TMS320C2000 Assembler PC v6.2.5 Tue Jun 27 16:56:14 2017

Tools Copyright (c) 1996-2014 Texas Instruments Incorporated
C:\Users\wmj\AppData\Local\Temp\1139610                              PAGE    1

       1              ;***************************************************************
       2              ;* TMS320C2000 C/C++ Codegen                         PC v6.2.5 *
       3              ;* Date/Time created: Tue Jun 27 16:56:13 2017                 *
       4              ;***************************************************************
       5                      .compiler_opts --float_support=softlib --hll_source=on --mem_model:code=flat --mem_model:data=large -
       6        0002  FP      .set    XAR2
       7              
       8              $C$DW$CU        .dwtag  DW_TAG_compile_unit
       9                      .dwattr $C$DW$CU, DW_AT_name("C:/ti/motorware/motorware_1_01_00_18/sw/modules/ctrl/src/32b/ctrl.c")
      10                      .dwattr $C$DW$CU, DW_AT_producer("TMS320C2000 C/C++ Codegen PC v6.2.5 Copyright (c) 1996-2014 Texas I
      11                      .dwattr $C$DW$CU, DW_AT_TI_version(0x01)
      12                      .dwattr $C$DW$CU, DW_AT_comp_dir("C:\ti\motorware\motorware_1_01_00_18\sw\solutions\instaspin_foc\boa
      13              
      14              ;**************************************************************
      15              ;* FUNCTION SYNONYMS                                          *
      16              ;**************************************************************
      17                      .global _CTRL_setMagCurrent_pu
      18        0439' _CTRL_setMagCurrent_pu  .set _CTRL_setIdRated_pu
      19                      .global _CTRL_setMaximumSpeed_pu
      20        043C' _CTRL_setMaximumSpeed_pu        .set _CTRL_setSpd_max_pu
      21                      .global _CTRL_getMaximumSpeed_pu
      22        043F' _CTRL_getMaximumSpeed_pu        .set _CTRL_getSpd_max_pu
      23                      .global _CTRL_getMagCurrent_pu
      24        0442' _CTRL_getMagCurrent_pu  .set _CTRL_getIdRated_pu
      25              
      26              $C$DW$1 .dwtag  DW_TAG_subprogram, DW_AT_name("CTRL_setEstParams")
      27                      .dwattr $C$DW$1, DW_AT_TI_symbol_name("_CTRL_setEstParams")
      28                      .dwattr $C$DW$1, DW_AT_declaration
      29                      .dwattr $C$DW$1, DW_AT_external
      30              $C$DW$2 .dwtag  DW_TAG_formal_parameter
      31                      .dwattr $C$DW$2, DW_AT_type(*$C$DW$T$47)
      32              $C$DW$3 .dwtag  DW_TAG_formal_parameter
      33                      .dwattr $C$DW$3, DW_AT_type(*$C$DW$T$219)
      34                      .dwendtag $C$DW$1
      35              
      36              
      37              $C$DW$4 .dwtag  DW_TAG_subprogram, DW_AT_name("CTRL_runTraj")
      38                      .dwattr $C$DW$4, DW_AT_TI_symbol_name("_CTRL_runTraj")
      39                      .dwattr $C$DW$4, DW_AT_declaration
      40                      .dwattr $C$DW$4, DW_AT_external
      41              $C$DW$5 .dwtag  DW_TAG_formal_parameter
      42                      .dwattr $C$DW$5, DW_AT_type(*$C$DW$T$161)
      43                      .dwendtag $C$DW$4
      44              
      45              
      46              $C$DW$6 .dwtag  DW_TAG_subprogram, DW_AT_name("CTRL_setupEstIdleState")
      47                      .dwattr $C$DW$6, DW_AT_TI_symbol_name("_CTRL_setupEstIdleState")
      48                      .dwattr $C$DW$6, DW_AT_declaration
      49                      .dwattr $C$DW$6, DW_AT_external
      50              $C$DW$7 .dwtag  DW_TAG_formal_parameter
      51                      .dwattr $C$DW$7, DW_AT_type(*$C$DW$T$161)
      52                      .dwendtag $C$DW$6
      53              
      54              
      55              $C$DW$8 .dwtag  DW_TAG_subprogram, DW_AT_name("CTRL_setUserMotorParams")
TMS320C2000 Assembler PC v6.2.5 Tue Jun 27 16:56:14 2017

Tools Copyright (c) 1996-2014 Texas Instruments Incorporated
C:\Users\wmj\AppData\Local\Temp\1139610                              PAGE    2

      56                      .dwattr $C$DW$8, DW_AT_TI_symbol_name("_CTRL_setUserMotorParams")
      57                      .dwattr $C$DW$8, DW_AT_declaration
      58                      .dwattr $C$DW$8, DW_AT_external
      59              $C$DW$9 .dwtag  DW_TAG_formal_parameter
      60                      .dwattr $C$DW$9, DW_AT_type(*$C$DW$T$161)
      61                      .dwendtag $C$DW$8
      62              
      63              
      64              $C$DW$10        .dwtag  DW_TAG_subprogram, DW_AT_name("CTRL_setupEstOnLineState")
      65                      .dwattr $C$DW$10, DW_AT_TI_symbol_name("_CTRL_setupEstOnLineState")
      66                      .dwattr $C$DW$10, DW_AT_declaration
      67                      .dwattr $C$DW$10, DW_AT_external
      68              $C$DW$11        .dwtag  DW_TAG_formal_parameter
      69                      .dwattr $C$DW$11, DW_AT_type(*$C$DW$T$161)
      70                      .dwendtag $C$DW$10
      71              
      72              
      73              $C$DW$12        .dwtag  DW_TAG_subprogram, DW_AT_name("CTRL_setupTraj")
      74                      .dwattr $C$DW$12, DW_AT_TI_symbol_name("_CTRL_setupTraj")
      75                      .dwattr $C$DW$12, DW_AT_declaration
      76                      .dwattr $C$DW$12, DW_AT_external
      77              $C$DW$13        .dwtag  DW_TAG_formal_parameter
      78                      .dwattr $C$DW$13, DW_AT_type(*$C$DW$T$161)
      79                      .dwendtag $C$DW$12
      80              
      81              
      82              $C$DW$14        .dwtag  DW_TAG_subprogram, DW_AT_name("CTRL_setupCtrl")
      83                      .dwattr $C$DW$14, DW_AT_TI_symbol_name("_CTRL_setupCtrl")
      84                      .dwattr $C$DW$14, DW_AT_declaration
      85                      .dwattr $C$DW$14, DW_AT_external
      86              $C$DW$15        .dwtag  DW_TAG_formal_parameter
      87                      .dwattr $C$DW$15, DW_AT_type(*$C$DW$T$161)
      88                      .dwendtag $C$DW$14
      89              
      90              
      91              $C$DW$16        .dwtag  DW_TAG_subprogram, DW_AT_name("EST_setRs_pu")
      92                      .dwattr $C$DW$16, DW_AT_TI_symbol_name("_EST_setRs_pu")
      93                      .dwattr $C$DW$16, DW_AT_declaration
      94                      .dwattr $C$DW$16, DW_AT_external
      95              $C$DW$17        .dwtag  DW_TAG_formal_parameter
      96                      .dwattr $C$DW$17, DW_AT_type(*$C$DW$T$47)
      97              $C$DW$18        .dwtag  DW_TAG_formal_parameter
      98                      .dwattr $C$DW$18, DW_AT_type(*$C$DW$T$226)
      99                      .dwendtag $C$DW$16
     100              
     101              
     102              $C$DW$19        .dwtag  DW_TAG_subprogram, DW_AT_name("EST_setIq_ref_pu")
     103                      .dwattr $C$DW$19, DW_AT_TI_symbol_name("_EST_setIq_ref_pu")
     104                      .dwattr $C$DW$19, DW_AT_declaration
     105                      .dwattr $C$DW$19, DW_AT_external
     106              $C$DW$20        .dwtag  DW_TAG_formal_parameter
     107                      .dwattr $C$DW$20, DW_AT_type(*$C$DW$T$47)
     108              $C$DW$21        .dwtag  DW_TAG_formal_parameter
     109                      .dwattr $C$DW$21, DW_AT_type(*$C$DW$T$226)
     110                      .dwendtag $C$DW$19
TMS320C2000 Assembler PC v6.2.5 Tue Jun 27 16:56:14 2017

Tools Copyright (c) 1996-2014 Texas Instruments Incorporated
C:\Users\wmj\AppData\Local\Temp\1139610                              PAGE    3

     111              
     112              
     113              $C$DW$22        .dwtag  DW_TAG_subprogram, DW_AT_name("EST_updateId_ref_pu")
     114                      .dwattr $C$DW$22, DW_AT_TI_symbol_name("_EST_updateId_ref_pu")
     115                      .dwattr $C$DW$22, DW_AT_declaration
     116                      .dwattr $C$DW$22, DW_AT_external
     117              $C$DW$23        .dwtag  DW_TAG_formal_parameter
     118                      .dwattr $C$DW$23, DW_AT_type(*$C$DW$T$47)
     119              $C$DW$24        .dwtag  DW_TAG_formal_parameter
     120                      .dwattr $C$DW$24, DW_AT_type(*$C$DW$T$233)
     121                      .dwendtag $C$DW$22
     122              
     123              
     124              $C$DW$25        .dwtag  DW_TAG_subprogram, DW_AT_name("EST_setIdle")
     125                      .dwattr $C$DW$25, DW_AT_TI_symbol_name("_EST_setIdle")
     126                      .dwattr $C$DW$25, DW_AT_declaration
     127                      .dwattr $C$DW$25, DW_AT_external
     128              $C$DW$26        .dwtag  DW_TAG_formal_parameter
     129                      .dwattr $C$DW$26, DW_AT_type(*$C$DW$T$47)
     130                      .dwendtag $C$DW$25
     131              
     132              
     133              $C$DW$27        .dwtag  DW_TAG_subprogram, DW_AT_name("EST_run")
     134                      .dwattr $C$DW$27, DW_AT_TI_symbol_name("_EST_run")
     135                      .dwattr $C$DW$27, DW_AT_declaration
     136                      .dwattr $C$DW$27, DW_AT_external
     137              $C$DW$28        .dwtag  DW_TAG_formal_parameter
     138                      .dwattr $C$DW$28, DW_AT_type(*$C$DW$T$47)
     139              $C$DW$29        .dwtag  DW_TAG_formal_parameter
     140                      .dwattr $C$DW$29, DW_AT_type(*$C$DW$T$198)
     141              $C$DW$30        .dwtag  DW_TAG_formal_parameter
     142                      .dwattr $C$DW$30, DW_AT_type(*$C$DW$T$198)
     143              $C$DW$31        .dwtag  DW_TAG_formal_parameter
     144                      .dwattr $C$DW$31, DW_AT_type(*$C$DW$T$226)
     145              $C$DW$32        .dwtag  DW_TAG_formal_parameter
     146                      .dwattr $C$DW$32, DW_AT_type(*$C$DW$T$226)
     147                      .dwendtag $C$DW$27
     148              
     149              
     150              $C$DW$33        .dwtag  DW_TAG_subprogram, DW_AT_name("EST_setId_ref_pu")
     151                      .dwattr $C$DW$33, DW_AT_TI_symbol_name("_EST_setId_ref_pu")
     152                      .dwattr $C$DW$33, DW_AT_declaration
     153                      .dwattr $C$DW$33, DW_AT_external
     154              $C$DW$34        .dwtag  DW_TAG_formal_parameter
     155                      .dwattr $C$DW$34, DW_AT_type(*$C$DW$T$47)
     156              $C$DW$35        .dwtag  DW_TAG_formal_parameter
     157                      .dwattr $C$DW$35, DW_AT_type(*$C$DW$T$226)
     158                      .dwendtag $C$DW$33
     159              
     160              
     161              $C$DW$36        .dwtag  DW_TAG_subprogram, DW_AT_name("EST_setIdle_all")
     162                      .dwattr $C$DW$36, DW_AT_TI_symbol_name("_EST_setIdle_all")
     163                      .dwattr $C$DW$36, DW_AT_declaration
     164                      .dwattr $C$DW$36, DW_AT_external
     165              $C$DW$37        .dwtag  DW_TAG_formal_parameter
TMS320C2000 Assembler PC v6.2.5 Tue Jun 27 16:56:14 2017

Tools Copyright (c) 1996-2014 Texas Instruments Incorporated
C:\Users\wmj\AppData\Local\Temp\1139610                              PAGE    4

     166                      .dwattr $C$DW$37, DW_AT_type(*$C$DW$T$47)
     167                      .dwendtag $C$DW$36
     168              
     169              
     170              $C$DW$38        .dwtag  DW_TAG_subprogram, DW_AT_name("EST_getState")
     171                      .dwattr $C$DW$38, DW_AT_TI_symbol_name("_EST_getState")
     172                      .dwattr $C$DW$38, DW_AT_type(*$C$DW$T$166)
     173                      .dwattr $C$DW$38, DW_AT_declaration
     174                      .dwattr $C$DW$38, DW_AT_external
     175              $C$DW$39        .dwtag  DW_TAG_formal_parameter
     176                      .dwattr $C$DW$39, DW_AT_type(*$C$DW$T$47)
     177                      .dwendtag $C$DW$38
     178              
     179              
     180              $C$DW$40        .dwtag  DW_TAG_subprogram, DW_AT_name("EST_isError")
     181                      .dwattr $C$DW$40, DW_AT_TI_symbol_name("_EST_isError")
     182                      .dwattr $C$DW$40, DW_AT_type(*$C$DW$T$70)
     183                      .dwattr $C$DW$40, DW_AT_declaration
     184                      .dwattr $C$DW$40, DW_AT_external
     185              $C$DW$41        .dwtag  DW_TAG_formal_parameter
     186                      .dwattr $C$DW$41, DW_AT_type(*$C$DW$T$47)
     187                      .dwendtag $C$DW$40
     188              
     189              
     190              $C$DW$42        .dwtag  DW_TAG_subprogram, DW_AT_name("EST_isMotorIdentified")
     191                      .dwattr $C$DW$42, DW_AT_TI_symbol_name("_EST_isMotorIdentified")
     192                      .dwattr $C$DW$42, DW_AT_type(*$C$DW$T$70)
     193                      .dwattr $C$DW$42, DW_AT_declaration
     194                      .dwattr $C$DW$42, DW_AT_external
     195              $C$DW$43        .dwtag  DW_TAG_formal_parameter
     196                      .dwattr $C$DW$43, DW_AT_type(*$C$DW$T$47)
     197                      .dwendtag $C$DW$42
     198              
     199              
     200              $C$DW$44        .dwtag  DW_TAG_subprogram, DW_AT_name("EST_isOnLine")
     201                      .dwattr $C$DW$44, DW_AT_TI_symbol_name("_EST_isOnLine")
     202                      .dwattr $C$DW$44, DW_AT_type(*$C$DW$T$70)
     203                      .dwattr $C$DW$44, DW_AT_declaration
     204                      .dwattr $C$DW$44, DW_AT_external
     205              $C$DW$45        .dwtag  DW_TAG_formal_parameter
     206                      .dwattr $C$DW$45, DW_AT_type(*$C$DW$T$47)
     207                      .dwendtag $C$DW$44
     208              
     209              
     210              $C$DW$46        .dwtag  DW_TAG_subprogram, DW_AT_name("EST_isIdle")
     211                      .dwattr $C$DW$46, DW_AT_TI_symbol_name("_EST_isIdle")
     212                      .dwattr $C$DW$46, DW_AT_type(*$C$DW$T$70)
     213                      .dwattr $C$DW$46, DW_AT_declaration
     214                      .dwattr $C$DW$46, DW_AT_external
     215              $C$DW$47        .dwtag  DW_TAG_formal_parameter
     216                      .dwattr $C$DW$47, DW_AT_type(*$C$DW$T$47)
     217                      .dwendtag $C$DW$46
     218              
     219              
     220              $C$DW$48        .dwtag  DW_TAG_subprogram, DW_AT_name("EST_isLockRotor")
TMS320C2000 Assembler PC v6.2.5 Tue Jun 27 16:56:14 2017

Tools Copyright (c) 1996-2014 Texas Instruments Incorporated
C:\Users\wmj\AppData\Local\Temp\1139610                              PAGE    5

     221                      .dwattr $C$DW$48, DW_AT_TI_symbol_name("_EST_isLockRotor")
     222                      .dwattr $C$DW$48, DW_AT_type(*$C$DW$T$70)
     223                      .dwattr $C$DW$48, DW_AT_declaration
     224                      .dwattr $C$DW$48, DW_AT_external
     225              $C$DW$49        .dwtag  DW_TAG_formal_parameter
     226                      .dwattr $C$DW$49, DW_AT_type(*$C$DW$T$47)
     227                      .dwendtag $C$DW$48
     228              
     229              
     230              $C$DW$50        .dwtag  DW_TAG_subprogram, DW_AT_name("EST_doCurrentCtrl")
     231                      .dwattr $C$DW$50, DW_AT_TI_symbol_name("_EST_doCurrentCtrl")
     232                      .dwattr $C$DW$50, DW_AT_type(*$C$DW$T$70)
     233                      .dwattr $C$DW$50, DW_AT_declaration
     234                      .dwattr $C$DW$50, DW_AT_external
     235              $C$DW$51        .dwtag  DW_TAG_formal_parameter
     236                      .dwattr $C$DW$51, DW_AT_type(*$C$DW$T$47)
     237                      .dwendtag $C$DW$50
     238              
     239              
     240              $C$DW$52        .dwtag  DW_TAG_subprogram, DW_AT_name("EST_doSpeedCtrl")
     241                      .dwattr $C$DW$52, DW_AT_TI_symbol_name("_EST_doSpeedCtrl")
     242                      .dwattr $C$DW$52, DW_AT_type(*$C$DW$T$70)
     243                      .dwattr $C$DW$52, DW_AT_declaration
     244                      .dwattr $C$DW$52, DW_AT_external
     245              $C$DW$53        .dwtag  DW_TAG_formal_parameter
     246                      .dwattr $C$DW$53, DW_AT_type(*$C$DW$T$47)
     247                      .dwendtag $C$DW$52
     248              
     249              
     250              $C$DW$54        .dwtag  DW_TAG_subprogram, DW_AT_name("EST_updateState")
     251                      .dwattr $C$DW$54, DW_AT_TI_symbol_name("_EST_updateState")
     252                      .dwattr $C$DW$54, DW_AT_type(*$C$DW$T$70)
     253                      .dwattr $C$DW$54, DW_AT_declaration
     254                      .dwattr $C$DW$54, DW_AT_external
     255              $C$DW$55        .dwtag  DW_TAG_formal_parameter
     256                      .dwattr $C$DW$55, DW_AT_type(*$C$DW$T$47)
     257              $C$DW$56        .dwtag  DW_TAG_formal_parameter
     258                      .dwattr $C$DW$56, DW_AT_type(*$C$DW$T$226)
     259                      .dwendtag $C$DW$54
     260              
     261              
     262              $C$DW$57        .dwtag  DW_TAG_subprogram, DW_AT_name("EST_useZeroIq_ref")
     263                      .dwattr $C$DW$57, DW_AT_TI_symbol_name("_EST_useZeroIq_ref")
     264                      .dwattr $C$DW$57, DW_AT_type(*$C$DW$T$70)
     265                      .dwattr $C$DW$57, DW_AT_declaration
     266                      .dwattr $C$DW$57, DW_AT_external
     267              $C$DW$58        .dwtag  DW_TAG_formal_parameter
     268                      .dwattr $C$DW$58, DW_AT_type(*$C$DW$T$47)
     269                      .dwendtag $C$DW$57
     270              
     271              
     272              $C$DW$59        .dwtag  DW_TAG_subprogram, DW_AT_name("_IQ24cosPU")
     273                      .dwattr $C$DW$59, DW_AT_TI_symbol_name("__IQ24cosPU")
     274                      .dwattr $C$DW$59, DW_AT_type(*$C$DW$T$12)
     275                      .dwattr $C$DW$59, DW_AT_declaration
TMS320C2000 Assembler PC v6.2.5 Tue Jun 27 16:56:14 2017

Tools Copyright (c) 1996-2014 Texas Instruments Incorporated
C:\Users\wmj\AppData\Local\Temp\1139610                              PAGE    6

     276                      .dwattr $C$DW$59, DW_AT_external
     277              $C$DW$60        .dwtag  DW_TAG_formal_parameter
     278                      .dwattr $C$DW$60, DW_AT_type(*$C$DW$T$12)
     279                      .dwendtag $C$DW$59
     280              
     281              
     282              $C$DW$61        .dwtag  DW_TAG_subprogram, DW_AT_name("_IQ24sinPU")
     283                      .dwattr $C$DW$61, DW_AT_TI_symbol_name("__IQ24sinPU")
     284                      .dwattr $C$DW$61, DW_AT_type(*$C$DW$T$12)
     285                      .dwattr $C$DW$61, DW_AT_declaration
     286                      .dwattr $C$DW$61, DW_AT_external
     287              $C$DW$62        .dwtag  DW_TAG_formal_parameter
     288                      .dwattr $C$DW$62, DW_AT_type(*$C$DW$T$12)
     289                      .dwendtag $C$DW$61
     290              
     291              
     292              $C$DW$63        .dwtag  DW_TAG_subprogram, DW_AT_name("__IQmpy")
     293                      .dwattr $C$DW$63, DW_AT_TI_symbol_name("___IQmpy")
     294                      .dwattr $C$DW$63, DW_AT_type(*$C$DW$T$12)
     295                      .dwattr $C$DW$63, DW_AT_declaration
     296                      .dwattr $C$DW$63, DW_AT_external
     297              $C$DW$64        .dwtag  DW_TAG_formal_parameter
     298                      .dwattr $C$DW$64, DW_AT_type(*$C$DW$T$12)
     299              $C$DW$65        .dwtag  DW_TAG_formal_parameter
     300                      .dwattr $C$DW$65, DW_AT_type(*$C$DW$T$12)
     301              $C$DW$66        .dwtag  DW_TAG_formal_parameter
     302                      .dwattr $C$DW$66, DW_AT_type(*$C$DW$T$10)
     303                      .dwendtag $C$DW$63
     304              
     305              
     306              $C$DW$67        .dwtag  DW_TAG_subprogram, DW_AT_name("labs")
     307                      .dwattr $C$DW$67, DW_AT_TI_symbol_name("_labs")
     308                      .dwattr $C$DW$67, DW_AT_type(*$C$DW$T$12)
     309                      .dwattr $C$DW$67, DW_AT_declaration
     310                      .dwattr $C$DW$67, DW_AT_external
     311              $C$DW$68        .dwtag  DW_TAG_formal_parameter
     312                      .dwattr $C$DW$68, DW_AT_type(*$C$DW$T$12)
     313                      .dwendtag $C$DW$67
     314              
     315              
     316              $C$DW$69        .dwtag  DW_TAG_subprogram, DW_AT_name("_IQ24sqrt")
     317                      .dwattr $C$DW$69, DW_AT_TI_symbol_name("__IQ24sqrt")
     318                      .dwattr $C$DW$69, DW_AT_type(*$C$DW$T$12)
     319                      .dwattr $C$DW$69, DW_AT_declaration
     320                      .dwattr $C$DW$69, DW_AT_external
     321              $C$DW$70        .dwtag  DW_TAG_formal_parameter
     322                      .dwattr $C$DW$70, DW_AT_type(*$C$DW$T$12)
     323                      .dwendtag $C$DW$69
     324              
     325              
     326              $C$DW$71        .dwtag  DW_TAG_subprogram, DW_AT_name("__IQsat")
     327                      .dwattr $C$DW$71, DW_AT_TI_symbol_name("___IQsat")
     328                      .dwattr $C$DW$71, DW_AT_type(*$C$DW$T$12)
     329                      .dwattr $C$DW$71, DW_AT_declaration
     330                      .dwattr $C$DW$71, DW_AT_external
TMS320C2000 Assembler PC v6.2.5 Tue Jun 27 16:56:14 2017

Tools Copyright (c) 1996-2014 Texas Instruments Incorporated
C:\Users\wmj\AppData\Local\Temp\1139610                              PAGE    7

     331              $C$DW$72        .dwtag  DW_TAG_formal_parameter
     332                      .dwattr $C$DW$72, DW_AT_type(*$C$DW$T$12)
     333              $C$DW$73        .dwtag  DW_TAG_formal_parameter
     334                      .dwattr $C$DW$73, DW_AT_type(*$C$DW$T$12)
     335              $C$DW$74        .dwtag  DW_TAG_formal_parameter
     336                      .dwattr $C$DW$74, DW_AT_type(*$C$DW$T$12)
     337                      .dwendtag $C$DW$71
     338              
     339              
     340              $C$DW$75        .dwtag  DW_TAG_subprogram, DW_AT_name("EST_get_krpm_to_pu_sf")
     341                      .dwattr $C$DW$75, DW_AT_TI_symbol_name("_EST_get_krpm_to_pu_sf")
     342                      .dwattr $C$DW$75, DW_AT_type(*$C$DW$T$32)
     343                      .dwattr $C$DW$75, DW_AT_declaration
     344                      .dwattr $C$DW$75, DW_AT_external
     345              $C$DW$76        .dwtag  DW_TAG_formal_parameter
     346                      .dwattr $C$DW$76, DW_AT_type(*$C$DW$T$47)
     347                      .dwendtag $C$DW$75
     348              
     349              
     350              $C$DW$77        .dwtag  DW_TAG_subprogram, DW_AT_name("EST_getFm_pu")
     351                      .dwattr $C$DW$77, DW_AT_TI_symbol_name("_EST_getFm_pu")
     352                      .dwattr $C$DW$77, DW_AT_type(*$C$DW$T$32)
     353                      .dwattr $C$DW$77, DW_AT_declaration
     354                      .dwattr $C$DW$77, DW_AT_external
     355              $C$DW$78        .dwtag  DW_TAG_formal_parameter
     356                      .dwattr $C$DW$78, DW_AT_type(*$C$DW$T$47)
     357                      .dwendtag $C$DW$77
     358              
     359              
     360              $C$DW$79        .dwtag  DW_TAG_subprogram, DW_AT_name("EST_getOneOverDcBus_pu")
     361                      .dwattr $C$DW$79, DW_AT_TI_symbol_name("_EST_getOneOverDcBus_pu")
     362                      .dwattr $C$DW$79, DW_AT_type(*$C$DW$T$32)
     363                      .dwattr $C$DW$79, DW_AT_declaration
     364                      .dwattr $C$DW$79, DW_AT_external
     365              $C$DW$80        .dwtag  DW_TAG_formal_parameter
     366                      .dwattr $C$DW$80, DW_AT_type(*$C$DW$T$47)
     367                      .dwendtag $C$DW$79
     368              
     369              
     370              $C$DW$81        .dwtag  DW_TAG_subprogram, DW_AT_name("EST_getAngle_pu")
     371                      .dwattr $C$DW$81, DW_AT_TI_symbol_name("_EST_getAngle_pu")
     372                      .dwattr $C$DW$81, DW_AT_type(*$C$DW$T$32)
     373                      .dwattr $C$DW$81, DW_AT_declaration
     374                      .dwattr $C$DW$81, DW_AT_external
     375              $C$DW$82        .dwtag  DW_TAG_formal_parameter
     376                      .dwattr $C$DW$82, DW_AT_type(*$C$DW$T$47)
     377                      .dwendtag $C$DW$81
     378              
     379 00000000               .sect   ".econst"
     380                      .align  2
     381 00000000       _$P$T4$5:
     382 00000000 0000          .bits   0,32                    ; _$P$T4$5._value[0] @ 0
         00000001 0000 
     383 00000002 0000          .bits   0,32                    ; _$P$T4$5._value[1] @ 32
         00000003 0000 
TMS320C2000 Assembler PC v6.2.5 Tue Jun 27 16:56:14 2017

Tools Copyright (c) 1996-2014 Texas Instruments Incorporated
C:\Users\wmj\AppData\Local\Temp\1139610                              PAGE    8

     384              
     385              $C$DW$83        .dwtag  DW_TAG_variable, DW_AT_name("$P$T4$5")
     386                      .dwattr $C$DW$83, DW_AT_TI_symbol_name("_$P$T4$5")
     387                      .dwattr $C$DW$83, DW_AT_type(*$C$DW$T$197)
     388                      .dwattr $C$DW$83, DW_AT_location[DW_OP_addr _$P$T4$5]
     389 00000004               .sect   ".econst"
     390                      .align  2
     391 00000004       _$P$T5$6:
     392 00000004 0000          .bits   0,32                    ; _$P$T5$6._value[0] @ 0
         00000005 0000 
     393 00000006 0000          .bits   0,32                    ; _$P$T5$6._value[1] @ 32
         00000007 0000 
     394              
     395              $C$DW$84        .dwtag  DW_TAG_variable, DW_AT_name("$P$T5$6")
     396                      .dwattr $C$DW$84, DW_AT_TI_symbol_name("_$P$T5$6")
     397                      .dwattr $C$DW$84, DW_AT_type(*$C$DW$T$197)
     398                      .dwattr $C$DW$84, DW_AT_location[DW_OP_addr _$P$T5$6]
     399 00000008               .sect   ".econst"
     400                      .align  2
     401 00000008       _$P$T3$4:
     402 00000008 0000          .bits   0,32                    ; _$P$T3$4._value[0] @ 0
         00000009 0000 
     403 0000000a 0000          .bits   0,32                    ; _$P$T3$4._value[1] @ 32
         0000000b 0000 
     404              
     405              $C$DW$85        .dwtag  DW_TAG_variable, DW_AT_name("$P$T3$4")
     406                      .dwattr $C$DW$85, DW_AT_TI_symbol_name("_$P$T3$4")
     407                      .dwattr $C$DW$85, DW_AT_type(*$C$DW$T$197)
     408                      .dwattr $C$DW$85, DW_AT_location[DW_OP_addr _$P$T3$4]
     409 0000000c               .sect   ".econst"
     410                      .align  2
     411 0000000c       _$P$T1$2:
     412 0000000c 0000          .bits   0,32                    ; _$P$T1$2._value[0] @ 0
         0000000d 0000 
     413 0000000e 0000          .bits   0,32                    ; _$P$T1$2._value[1] @ 32
         0000000f 0000 
     414              
     415              $C$DW$86        .dwtag  DW_TAG_variable, DW_AT_name("$P$T1$2")
     416                      .dwattr $C$DW$86, DW_AT_TI_symbol_name("_$P$T1$2")
     417                      .dwattr $C$DW$86, DW_AT_type(*$C$DW$T$197)
     418                      .dwattr $C$DW$86, DW_AT_location[DW_OP_addr _$P$T1$2]
     419 00000010               .sect   ".econst"
     420                      .align  2
     421 00000010       _$P$T2$3:
     422 00000010 0000          .bits   0,32                    ; _$P$T2$3._value[0] @ 0
         00000011 0000 
     423 00000012 0000          .bits   0,32                    ; _$P$T2$3._value[1] @ 32
         00000013 0000 
     424              
     425              $C$DW$87        .dwtag  DW_TAG_variable, DW_AT_name("$P$T2$3")
     426                      .dwattr $C$DW$87, DW_AT_TI_symbol_name("_$P$T2$3")
     427                      .dwattr $C$DW$87, DW_AT_type(*$C$DW$T$197)
     428                      .dwattr $C$DW$87, DW_AT_location[DW_OP_addr _$P$T2$3]
     429 00000014               .sect   ".econst"
     430                      .align  2
TMS320C2000 Assembler PC v6.2.5 Tue Jun 27 16:56:14 2017

Tools Copyright (c) 1996-2014 Texas Instruments Incorporated
C:\Users\wmj\AppData\Local\Temp\1139610                              PAGE    9

     431 00000014       _$P$T0$1:
     432 00000014 0000          .bits   0,32                    ; _$P$T0$1._value[0] @ 0
         00000015 0000 
     433 00000016 0000          .bits   0,32                    ; _$P$T0$1._value[1] @ 32
         00000017 0000 
     434              
     435              $C$DW$88        .dwtag  DW_TAG_variable, DW_AT_name("$P$T0$1")
     436                      .dwattr $C$DW$88, DW_AT_TI_symbol_name("_$P$T0$1")
     437                      .dwattr $C$DW$88, DW_AT_type(*$C$DW$T$197)
     438                      .dwattr $C$DW$88, DW_AT_location[DW_OP_addr _$P$T0$1]
     439              ;       c:\ti\ccsv6\tools\compiler\c2000_6.2.5\bin\opt2000.exe C:\\Users\\wmj\\AppData\\Local\\Temp\\113962 C
     440              ;       c:\ti\ccsv6\tools\compiler\c2000_6.2.5\bin\ac2000.exe -@C:\\Users\\wmj\\AppData\\Local\\Temp\\1139616
     441 00000000               .sect   ".text"
     442                      .clink
     443                      .global _CTRL_updateState
     444              
     445              $C$DW$89        .dwtag  DW_TAG_subprogram, DW_AT_name("CTRL_updateState")
     446                      .dwattr $C$DW$89, DW_AT_low_pc(_CTRL_updateState)
     447                      .dwattr $C$DW$89, DW_AT_high_pc(0x00)
     448                      .dwattr $C$DW$89, DW_AT_TI_symbol_name("_CTRL_updateState")
     449                      .dwattr $C$DW$89, DW_AT_external
     450                      .dwattr $C$DW$89, DW_AT_type(*$C$DW$T$70)
     451                      .dwattr $C$DW$89, DW_AT_TI_begin_file("C:/ti/motorware/motorware_1_01_00_18/sw/modules/ctrl/src/32b/c
     452                      .dwattr $C$DW$89, DW_AT_TI_begin_line(0x284)
     453                      .dwattr $C$DW$89, DW_AT_TI_begin_column(0x06)
     454                      .dwattr $C$DW$89, DW_AT_TI_max_frame_size(-12)
     455                      .dwpsn  file "C:/ti/motorware/motorware_1_01_00_18/sw/modules/ctrl/src/32b/ctrl.c",line 645,column 1,
     456              
     457                      .dwfde $C$DW$CIE, _CTRL_updateState
     458              $C$DW$90        .dwtag  DW_TAG_formal_parameter, DW_AT_name("handle")
     459                      .dwattr $C$DW$90, DW_AT_TI_symbol_name("_handle")
     460                      .dwattr $C$DW$90, DW_AT_type(*$C$DW$T$161)
     461                      .dwattr $C$DW$90, DW_AT_location[DW_OP_reg12]
     462              
     463              ;***************************************************************
     464              ;* FNAME: _CTRL_updateState             FR SIZE:  10           *
     465              ;*                                                             *
     466              ;* FUNCTION ENVIRONMENT                                        *
     467              ;*                                                             *
     468              ;* FUNCTION PROPERTIES                                         *
     469              ;*                            0 Parameter,  4 Auto,  6 SOE     *
     470              ;***************************************************************
     471              
     472              _CTRL_updateState:
     473              ;* AR3   assigned to _counter_ctrlState
     474              $C$DW$91        .dwtag  DW_TAG_variable, DW_AT_name("counter_ctrlState")
     475                      .dwattr $C$DW$91, DW_AT_TI_symbol_name("_counter_ctrlState")
     476                      .dwattr $C$DW$91, DW_AT_type(*$C$DW$T$65)
     477                      .dwattr $C$DW$91, DW_AT_location[DW_OP_reg10]
     478              $C$DW$92        .dwtag  DW_TAG_variable, DW_AT_name("waitTime")
     479                      .dwattr $C$DW$92, DW_AT_TI_symbol_name("_waitTime")
     480                      .dwattr $C$DW$92, DW_AT_type(*$C$DW$T$65)
     481                      .dwattr $C$DW$92, DW_AT_location[DW_OP_breg20 -4]
     482              ;* AR1   assigned to _stateChanged
     483              $C$DW$93        .dwtag  DW_TAG_variable, DW_AT_name("stateChanged")
TMS320C2000 Assembler PC v6.2.5 Tue Jun 27 16:56:14 2017

Tools Copyright (c) 1996-2014 Texas Instruments Incorporated
C:\Users\wmj\AppData\Local\Temp\1139610                              PAGE   10

     484                      .dwattr $C$DW$93, DW_AT_TI_symbol_name("_stateChanged")
     485                      .dwattr $C$DW$93, DW_AT_type(*$C$DW$T$70)
     486                      .dwattr $C$DW$93, DW_AT_location[DW_OP_reg6]
     487              $C$DW$94        .dwtag  DW_TAG_variable, DW_AT_name("ctrlState")
     488                      .dwattr $C$DW$94, DW_AT_TI_symbol_name("_ctrlState")
     489                      .dwattr $C$DW$94, DW_AT_type(*$C$DW$T$40)
     490                      .dwattr $C$DW$94, DW_AT_location[DW_OP_breg20 -1]
     491              ;* AR2   assigned to _handle
     492              $C$DW$95        .dwtag  DW_TAG_variable, DW_AT_name("handle")
     493                      .dwattr $C$DW$95, DW_AT_TI_symbol_name("_handle")
     494                      .dwattr $C$DW$95, DW_AT_type(*$C$DW$T$175)
     495                      .dwattr $C$DW$95, DW_AT_location[DW_OP_reg8]
     496                      .dwcfi  cfa_offset, -2
     497                      .dwcfi  save_reg_to_mem, 26, 0
     498                      .dwcfi  save_reg_to_reg, 78, 26
     499 00000000 B2BD          MOVL      *SP++,XAR1            ; [CPU_] 
     500                      .dwcfi  save_reg_to_mem, 7, 2
     501                      .dwcfi  cfa_offset, -4
     502 00000001 AABD          MOVL      *SP++,XAR2            ; [CPU_] 
     503                      .dwcfi  save_reg_to_mem, 9, 4
     504                      .dwcfi  cfa_offset, -6
     505 00000002 A2BD          MOVL      *SP++,XAR3            ; [CPU_] 
     506                      .dwcfi  save_reg_to_mem, 11, 6
     507                      .dwcfi  cfa_offset, -8
     508 00000003 FE04          ADDB      SP,#4                 ; [CPU_U] 
     509                      .dwcfi  cfa_offset, -12
     510 00000004 86A4          MOVL      XAR2,XAR4             ; [CPU_] |645| 
     511                      .dwpsn  file "C:/ti/motorware/motorware_1_01_00_18/sw/modules/ctrl/src/32b/ctrl.c",line 651,column 3,
     512 00000005 D0F0          MOVB      XAR0,#240             ; [CPU_] |651| 
     513                      .dwpsn  file "C:/ti/motorware/motorware_1_01_00_18/sw/modules/ctrl/src/32b/ctrl.c",line 648,column 21
     514 00000006 D100          MOVB      XAR1,#0               ; [CPU_] |648| 
     515                      .dwpsn  file "C:/ti/motorware/motorware_1_01_00_18/sw/modules/ctrl/src/32b/ctrl.h",line 771,column 3,
     516 00000007 92E2          MOV       AL,*+XAR2[4]          ; [CPU_] |771| 
     517 00000008 9641          MOV       *-SP[1],AL            ; [CPU_] |771| 
     518                      .dwpsn  file "C:/ti/motorware/motorware_1_01_00_18/sw/modules/ctrl/src/32b/ctrl.c",line 651,column 3,
     519 00000009 9292          MOV       AL,*+XAR2[AR0]        ; [CPU_] |651| 
     520 0000000a ED22          BF        $C$L2,NEQ             ; [CPU_] |651| 
     521                      ; branchcc occurs ; [] |651| 
     522 0000000b 9241          MOV       AL,*-SP[1]            ; [CPU_] 
     523                      .dwpsn  file "C:/ti/motorware/motorware_1_01_00_18/sw/modules/ctrl/src/32b/ctrl.c",line 756,column 7,
     524 0000000c D018          MOVB      XAR0,#24              ; [CPU_] |756| 
     525                      .dwpsn  file "C:/ti/motorware/motorware_1_01_00_18/sw/modules/ctrl/src/32b/ctrl.h",line 1778,column 3
     526 0000000d 96EA          MOV       *+XAR2[5],AL          ; [CPU_] |1778| 
     527                      .dwpsn  file "C:/ti/motorware/motorware_1_01_00_18/sw/modules/ctrl/src/32b/ctrl.h",line 1779,column 3
     528 0000000e 56BF          MOVB      *+XAR2[4],#1,UNC      ; [CPU_] |1779| 
         0000000f 01E2 
     529                      .dwpsn  file "C:/ti/motorware/motorware_1_01_00_18/sw/modules/ctrl/src/32b/ctrl.c",line 756,column 7,
     530 00000010 8A92          MOVL      XAR4,*+XAR2[AR0]      ; [CPU_] |756| 
     531              $C$DW$96        .dwtag  DW_TAG_TI_branch
     532                      .dwattr $C$DW$96, DW_AT_low_pc(0x00)
     533                      .dwattr $C$DW$96, DW_AT_name("_EST_isLockRotor")
     534                      .dwattr $C$DW$96, DW_AT_TI_call
     535 00000011 7640!         LCR       #_EST_isLockRotor     ; [CPU_] |756| 
         00000012 0000 
     536                      ; call occurs [#_EST_isLockRotor] ; [] |756| 
TMS320C2000 Assembler PC v6.2.5 Tue Jun 27 16:56:14 2017

Tools Copyright (c) 1996-2014 Texas Instruments Incorporated
C:\Users\wmj\AppData\Local\Temp\1139610                              PAGE   11

     537 00000013 5200          CMPB      AL,#0                 ; [CPU_] |756| 
     538 00000014 56C0          BF        $C$L12,NEQ            ; [CPU_] |756| 
         00000015 0094 
     539                      ; branchcc occurs ; [] |756| 
     540                      .dwpsn  file "C:/ti/motorware/motorware_1_01_00_18/sw/modules/ctrl/src/32b/ctrl.c",line 758,column 11
     541 00000016 D018          MOVB      XAR0,#24              ; [CPU_] |758| 
     542 00000017 8A92          MOVL      XAR4,*+XAR2[AR0]      ; [CPU_] |758| 
     543              $C$DW$97        .dwtag  DW_TAG_TI_branch
     544                      .dwattr $C$DW$97, DW_AT_low_pc(0x00)
     545                      .dwattr $C$DW$97, DW_AT_name("_EST_isMotorIdentified")
     546                      .dwattr $C$DW$97, DW_AT_TI_call
     547 00000018 7640!         LCR       #_EST_isMotorIdentified ; [CPU_] |758| 
         00000019 0000 
     548                      ; call occurs [#_EST_isMotorIdentified] ; [] |758| 
     549 0000001a 5200          CMPB      AL,#0                 ; [CPU_] |758| 
     550 0000001b ED0C          BF        $C$L1,NEQ             ; [CPU_] |758| 
     551                      ; branchcc occurs ; [] |758| 
     552                      .dwpsn  file "C:/ti/motorware/motorware_1_01_00_18/sw/modules/ctrl/src/32b/ctrl.c",line 764,column 15
     553 0000001c D018          MOVB      XAR0,#24              ; [CPU_] |764| 
     554 0000001d 8A92          MOVL      XAR4,*+XAR2[AR0]      ; [CPU_] |764| 
     555              $C$DW$98        .dwtag  DW_TAG_TI_branch
     556                      .dwattr $C$DW$98, DW_AT_low_pc(0x00)
     557                      .dwattr $C$DW$98, DW_AT_name("_EST_setIdle_all")
     558                      .dwattr $C$DW$98, DW_AT_TI_call
     559 0000001e 7640!         LCR       #_EST_setIdle_all     ; [CPU_] |764| 
         0000001f 0000 
     560                      ; call occurs [#_EST_setIdle_all] ; [] |764| 
     561                      .dwpsn  file "C:/ti/motorware/motorware_1_01_00_18/sw/modules/ctrl/src/32b/ctrl.c",line 766,column 15
     562 00000020 D018          MOVB      XAR0,#24              ; [CPU_] |766| 
     563 00000021 0200          MOVB      ACC,#0                ; [CPU_] |766| 
     564 00000022 8A92          MOVL      XAR4,*+XAR2[AR0]      ; [CPU_] |766| 
     565              $C$DW$99        .dwtag  DW_TAG_TI_branch
     566                      .dwattr $C$DW$99, DW_AT_low_pc(0x00)
     567                      .dwattr $C$DW$99, DW_AT_name("_EST_setRs_pu")
     568                      .dwattr $C$DW$99, DW_AT_TI_call
     569 00000023 7640!         LCR       #_EST_setRs_pu        ; [CPU_] |766| 
         00000024 0000 
     570                      ; call occurs [#_EST_setRs_pu] ; [] |766| 
     571 00000025 FFEF          B         $C$L12,UNC            ; [CPU_] |766| 
         00000026 0083 
     572                      ; branch occurs ; [] |766| 
     573 00000027       $C$L1:    
     574                      .dwpsn  file "C:/ti/motorware/motorware_1_01_00_18/sw/modules/ctrl/src/32b/ctrl.c",line 760,column 15
     575 00000027 D018          MOVB      XAR0,#24              ; [CPU_] |760| 
     576 00000028 8A92          MOVL      XAR4,*+XAR2[AR0]      ; [CPU_] |760| 
     577              $C$DW$100       .dwtag  DW_TAG_TI_branch
     578                      .dwattr $C$DW$100, DW_AT_low_pc(0x00)
     579                      .dwattr $C$DW$100, DW_AT_name("_EST_setIdle")
     580                      .dwattr $C$DW$100, DW_AT_TI_call
     581 00000029 7640!         LCR       #_EST_setIdle         ; [CPU_] |760| 
         0000002a 0000 
     582                      ; call occurs [#_EST_setIdle] ; [] |760| 
     583                      .dwpsn  file "C:/ti/motorware/motorware_1_01_00_18/sw/modules/ctrl/src/32b/ctrl.c",line 761,column 13
     584 0000002b 6F7D          B         $C$L12,UNC            ; [CPU_] |761| 
     585                      ; branch occurs ; [] |761| 
TMS320C2000 Assembler PC v6.2.5 Tue Jun 27 16:56:14 2017

Tools Copyright (c) 1996-2014 Texas Instruments Incorporated
C:\Users\wmj\AppData\Local\Temp\1139610                              PAGE   12

     586 0000002c       $C$L2:    
     587 0000002c 9241          MOV       AL,*-SP[1]            ; [CPU_] 
     588 0000002d 3B01          SETC      SXM                   ; [CPU_] 
     589                      .dwpsn  file "C:/ti/motorware/motorware_1_01_00_18/sw/modules/ctrl/src/32b/ctrl.h",line 937,column 3,
     590 0000002e D092          MOVB      XAR0,#146             ; [CPU_] |937| 
     591 0000002f 5603          MOV       ACC,AL << 1           ; [CPU_] |937| 
         00000030 01A9 
     592 00000031 5601          ADDL      XAR4,ACC              ; [CPU_] |937| 
         00000032 00A4 
     593 00000033 0694          MOVL      ACC,*+XAR4[AR0]       ; [CPU_] |937| 
     594                      .dwpsn  file "C:/ti/motorware/motorware_1_01_00_18/sw/modules/ctrl/src/32b/ctrl.h",line 132,column 3,
     595 00000034 D09A          MOVB      XAR0,#154             ; [CPU_] |132| 
     596                      .dwpsn  file "C:/ti/motorware/motorware_1_01_00_18/sw/modules/ctrl/src/32b/ctrl.h",line 937,column 3,
     597 00000035 1E44          MOVL      *-SP[4],ACC           ; [CPU_] |937| 
     598                      .dwpsn  file "C:/ti/motorware/motorware_1_01_00_18/sw/modules/ctrl/src/32b/ctrl.h",line 132,column 3,
     599 00000036 8292          MOVL      XAR3,*+XAR2[AR0]      ; [CPU_] |132| 
     600                      .dwpsn  file "C:/ti/motorware/motorware_1_01_00_18/sw/modules/ctrl/src/32b/ctrl.h",line 1987,column 3
     601 00000037 D018          MOVB      XAR0,#24              ; [CPU_] |1987| 
     602 00000038 8A92          MOVL      XAR4,*+XAR2[AR0]      ; [CPU_] |1987| 
     603              $C$DW$101       .dwtag  DW_TAG_TI_branch
     604                      .dwattr $C$DW$101, DW_AT_low_pc(0x00)
     605                      .dwattr $C$DW$101, DW_AT_name("_EST_isError")
     606                      .dwattr $C$DW$101, DW_AT_TI_call
     607 00000039 7640!         LCR       #_EST_isError         ; [CPU_] |1987| 
         0000003a 0000 
     608                      ; call occurs [#_EST_isError] ; [] |1987| 
     609 0000003b 5200          CMPB      AL,#0                 ; [CPU_] |1987| 
     610 0000003c EC06          BF        $C$L3,EQ              ; [CPU_] |1987| 
     611                      ; branchcc occurs ; [] |1987| 
     612                      .dwpsn  file "C:/ti/motorware/motorware_1_01_00_18/sw/modules/ctrl/src/32b/ctrl.h",line 1778,column 3
     613 0000003d 92E2          MOV       AL,*+XAR2[4]          ; [CPU_] |1778| 
     614 0000003e 96EA          MOV       *+XAR2[5],AL          ; [CPU_] |1778| 
     615                      .dwpsn  file "C:/ti/motorware/motorware_1_01_00_18/sw/modules/ctrl/src/32b/ctrl.h",line 1779,column 3
     616 0000003f 2BE2          MOV       *+XAR2[4],#0          ; [CPU_] |1779| 
     617                      .dwpsn  file "C:/ti/motorware/motorware_1_01_00_18/sw/modules/ctrl/src/32b/ctrl.h",line 1193,column 3
     618 00000040 56BF          MOVB      *+XAR2[6],#2,UNC      ; [CPU_] |1193| 
         00000041 02F2 
     619 00000042       $C$L3:    
     620 00000042 0644          MOVL      ACC,*-SP[4]           ; [CPU_] 
     621                      .dwpsn  file "C:/ti/motorware/motorware_1_01_00_18/sw/modules/ctrl/src/32b/ctrl.c",line 661,column 7,
     622 00000043 0FA3          CMPL      ACC,XAR3              ; [CPU_] |661| 
     623 00000044 6664          B         $C$L12,HI             ; [CPU_] |661| 
     624                      ; branchcc occurs ; [] |661| 
     625                      .dwpsn  file "C:/ti/motorware/motorware_1_01_00_18/sw/modules/ctrl/src/32b/ctrl.h",line 1111,column 3
     626 00000045 D09A          MOVB      XAR0,#154             ; [CPU_] |1111| 
     627 00000046 0200          MOVB      ACC,#0                ; [CPU_] |1111| 
     628 00000047 1E92          MOVL      *+XAR2[AR0],ACC       ; [CPU_] |1111| 
     629 00000048 9241          MOV       AL,*-SP[1]            ; [CPU_] |1111| 
     630                      .dwpsn  file "C:/ti/motorware/motorware_1_01_00_18/sw/modules/ctrl/src/32b/ctrl.c",line 667,column 11
     631 00000049 5203          CMPB      AL,#3                 ; [CPU_] |667| 
     632 0000004a EC2E          BF        $C$L8,EQ              ; [CPU_] |667| 
     633                      ; branchcc occurs ; [] |667| 
     634                      .dwpsn  file "C:/ti/motorware/motorware_1_01_00_18/sw/modules/ctrl/src/32b/ctrl.c",line 700,column 16
     635 0000004b 5202          CMPB      AL,#2                 ; [CPU_] |700| 
     636 0000004c EC27          BF        $C$L7,EQ              ; [CPU_] |700| 
TMS320C2000 Assembler PC v6.2.5 Tue Jun 27 16:56:14 2017

Tools Copyright (c) 1996-2014 Texas Instruments Incorporated
C:\Users\wmj\AppData\Local\Temp\1139610                              PAGE   13

     637                      ; branchcc occurs ; [] |700| 
     638                      .dwpsn  file "C:/ti/motorware/motorware_1_01_00_18/sw/modules/ctrl/src/32b/ctrl.c",line 705,column 16
     639 0000004d 5201          CMPB      AL,#1                 ; [CPU_] |705| 
     640 0000004e ED5A          BF        $C$L12,NEQ            ; [CPU_] |705| 
     641                      ; branchcc occurs ; [] |705| 
     642                      .dwpsn  file "C:/ti/motorware/motorware_1_01_00_18/sw/modules/ctrl/src/32b/ctrl.c",line 710,column 15
     643 0000004f D0F5          MOVB      XAR0,#245             ; [CPU_] |710| 
     644 00000050 9292          MOV       AL,*+XAR2[AR0]        ; [CPU_] |710| 
     645 00000051 EC04          BF        $C$L4,EQ              ; [CPU_] |710| 
     646                      ; branchcc occurs ; [] |710| 
     647                      .dwpsn  file "C:/ti/motorware/motorware_1_01_00_18/sw/modules/ctrl/src/32b/ctrl.c",line 713,column 19
     648 00000052 8AA2          MOVL      XAR4,XAR2             ; [CPU_] |713| 
     649              $C$DW$102       .dwtag  DW_TAG_TI_branch
     650                      .dwattr $C$DW$102, DW_AT_low_pc(0x00)
     651                      .dwattr $C$DW$102, DW_AT_name("_CTRL_setUserMotorParams")
     652                      .dwattr $C$DW$102, DW_AT_TI_call
     653 00000053 7640!         LCR       #_CTRL_setUserMotorParams ; [CPU_] |713| 
         00000054 0000 
     654                      ; call occurs [#_CTRL_setUserMotorParams] ; [] |713| 
     655 00000055       $C$L4:    
     656                      .dwpsn  file "C:/ti/motorware/motorware_1_01_00_18/sw/modules/ctrl/src/32b/ctrl.c",line 716,column 15
     657 00000055 D018          MOVB      XAR0,#24              ; [CPU_] |716| 
     658 00000056 8A92          MOVL      XAR4,*+XAR2[AR0]      ; [CPU_] |716| 
     659              $C$DW$103       .dwtag  DW_TAG_TI_branch
     660                      .dwattr $C$DW$103, DW_AT_low_pc(0x00)
     661                      .dwattr $C$DW$103, DW_AT_name("_EST_isIdle")
     662                      .dwattr $C$DW$103, DW_AT_TI_call
     663 00000057 7640!         LCR       #_EST_isIdle          ; [CPU_] |716| 
         00000058 0000 
     664                      ; call occurs [#_EST_isIdle] ; [] |716| 
     665 00000059 5200          CMPB      AL,#0                 ; [CPU_] |716| 
     666 0000005a ED08          BF        $C$L5,NEQ             ; [CPU_] |716| 
     667                      ; branchcc occurs ; [] |716| 
     668                      .dwpsn  file "C:/ti/motorware/motorware_1_01_00_18/sw/modules/ctrl/src/32b/ctrl.c",line 740,column 20
     669 0000005b D018          MOVB      XAR0,#24              ; [CPU_] |740| 
     670 0000005c 8A92          MOVL      XAR4,*+XAR2[AR0]      ; [CPU_] |740| 
     671              $C$DW$104       .dwtag  DW_TAG_TI_branch
     672                      .dwattr $C$DW$104, DW_AT_low_pc(0x00)
     673                      .dwattr $C$DW$104, DW_AT_name("_EST_isLockRotor")
     674                      .dwattr $C$DW$104, DW_AT_TI_call
     675 0000005d 7640!         LCR       #_EST_isLockRotor     ; [CPU_] |740| 
         0000005e 0000 
     676                      ; call occurs [#_EST_isLockRotor] ; [] |740| 
     677 0000005f 5200          CMPB      AL,#0                 ; [CPU_] |740| 
     678 00000060 ED13          BF        $C$L7,NEQ             ; [CPU_] |740| 
     679                      ; branchcc occurs ; [] |740| 
     680 00000061 6F47          B         $C$L12,UNC            ; [CPU_] |740| 
     681                      ; branch occurs ; [] |740| 
     682 00000062       $C$L5:    
     683                      .dwpsn  file "C:/ti/motorware/motorware_1_01_00_18/sw/modules/ctrl/src/32b/ctrl.c",line 719,column 19
     684 00000062 8AA2          MOVL      XAR4,XAR2             ; [CPU_] |719| 
     685              $C$DW$105       .dwtag  DW_TAG_TI_branch
     686                      .dwattr $C$DW$105, DW_AT_low_pc(0x00)
     687                      .dwattr $C$DW$105, DW_AT_name("_CTRL_setupEstIdleState")
     688                      .dwattr $C$DW$105, DW_AT_TI_call
TMS320C2000 Assembler PC v6.2.5 Tue Jun 27 16:56:14 2017

Tools Copyright (c) 1996-2014 Texas Instruments Incorporated
C:\Users\wmj\AppData\Local\Temp\1139610                              PAGE   14

     689 00000063 7640!         LCR       #_CTRL_setupEstIdleState ; [CPU_] |719| 
         00000064 0000 
     690                      ; call occurs [#_CTRL_setupEstIdleState] ; [] |719| 
     691                      .dwpsn  file "C:/ti/motorware/motorware_1_01_00_18/sw/modules/ctrl/src/32b/ctrl.c",line 721,column 19
     692 00000065 D018          MOVB      XAR0,#24              ; [CPU_] |721| 
     693 00000066 8A92          MOVL      XAR4,*+XAR2[AR0]      ; [CPU_] |721| 
     694              $C$DW$106       .dwtag  DW_TAG_TI_branch
     695                      .dwattr $C$DW$106, DW_AT_low_pc(0x00)
     696                      .dwattr $C$DW$106, DW_AT_name("_EST_isMotorIdentified")
     697                      .dwattr $C$DW$106, DW_AT_TI_call
     698 00000067 7640!         LCR       #_EST_isMotorIdentified ; [CPU_] |721| 
         00000068 0000 
     699                      ; call occurs [#_EST_isMotorIdentified] ; [] |721| 
     700 00000069 5200          CMPB      AL,#0                 ; [CPU_] |721| 
     701 0000006a EC04          BF        $C$L6,EQ              ; [CPU_] |721| 
     702                      ; branchcc occurs ; [] |721| 
     703 0000006b D0F3          MOVB      XAR0,#243             ; [CPU_] |721| 
     704 0000006c 9292          MOV       AL,*+XAR2[AR0]        ; [CPU_] |721| 
     705 0000006d EC06          BF        $C$L7,EQ              ; [CPU_] |721| 
     706                      ; branchcc occurs ; [] |721| 
     707 0000006e       $C$L6:    
     708                      .dwpsn  file "C:/ti/motorware/motorware_1_01_00_18/sw/modules/ctrl/src/32b/ctrl.h",line 1778,column 3
     709 0000006e 92E2          MOV       AL,*+XAR2[4]          ; [CPU_] |1778| 
     710 0000006f 96EA          MOV       *+XAR2[5],AL          ; [CPU_] |1778| 
     711                      .dwpsn  file "C:/ti/motorware/motorware_1_01_00_18/sw/modules/ctrl/src/32b/ctrl.h",line 1779,column 3
     712 00000070 56BF          MOVB      *+XAR2[4],#2,UNC      ; [CPU_] |1779| 
         00000071 02E2 
     713                      .dwpsn  file "C:/ti/motorware/motorware_1_01_00_18/sw/modules/ctrl/src/32b/ctrl.h",line 1781,column 3
     714 00000072 6F36          B         $C$L12,UNC            ; [CPU_] |1781| 
     715                      ; branch occurs ; [] |1781| 
     716 00000073       $C$L7:    
     717                      .dwpsn  file "C:/ti/motorware/motorware_1_01_00_18/sw/modules/ctrl/src/32b/ctrl.h",line 1778,column 3
     718 00000073 92E2          MOV       AL,*+XAR2[4]          ; [CPU_] |1778| 
     719 00000074 96EA          MOV       *+XAR2[5],AL          ; [CPU_] |1778| 
     720                      .dwpsn  file "C:/ti/motorware/motorware_1_01_00_18/sw/modules/ctrl/src/32b/ctrl.h",line 1779,column 3
     721 00000075 56BF          MOVB      *+XAR2[4],#3,UNC      ; [CPU_] |1779| 
         00000076 03E2 
     722                      .dwpsn  file "C:/ti/motorware/motorware_1_01_00_18/sw/modules/ctrl/src/32b/ctrl.h",line 1781,column 3
     723 00000077 6F31          B         $C$L12,UNC            ; [CPU_] |1781| 
     724                      ; branch occurs ; [] |1781| 
     725 00000078       $C$L8:    
     726                      .dwpsn  file "C:/ti/motorware/motorware_1_01_00_18/sw/modules/ctrl/src/32b/ctrl.c",line 673,column 41
     727 00000078 D018          MOVB      XAR0,#24              ; [CPU_] |673| 
     728 00000079 8A92          MOVL      XAR4,*+XAR2[AR0]      ; [CPU_] |673| 
     729 0000007a D060          MOVB      XAR0,#96              ; [CPU_] |673| 
     730 0000007b 8392          MOVL      XAR5,*+XAR2[AR0]      ; [CPU_] |673| 
     731 0000007c 06C5          MOVL      ACC,*+XAR5[0]         ; [CPU_] |673| 
     732              $C$DW$107       .dwtag  DW_TAG_TI_branch
     733                      .dwattr $C$DW$107, DW_AT_low_pc(0x00)
     734                      .dwattr $C$DW$107, DW_AT_name("_EST_updateState")
     735                      .dwattr $C$DW$107, DW_AT_TI_call
     736 0000007d 7640!         LCR       #_EST_updateState     ; [CPU_] |673| 
         0000007e 0000 
     737                      ; call occurs [#_EST_updateState] ; [] |673| 
     738 0000007f 5200          CMPB      AL,#0                 ; [CPU_] |673| 
TMS320C2000 Assembler PC v6.2.5 Tue Jun 27 16:56:14 2017

Tools Copyright (c) 1996-2014 Texas Instruments Incorporated
C:\Users\wmj\AppData\Local\Temp\1139610                              PAGE   15

     739 00000080 EC07          BF        $C$L9,EQ              ; [CPU_] |673| 
     740                      ; branchcc occurs ; [] |673| 
     741                      .dwpsn  file "C:/ti/motorware/motorware_1_01_00_18/sw/modules/ctrl/src/32b/ctrl.c",line 678,column 19
     742 00000081 8AA2          MOVL      XAR4,XAR2             ; [CPU_] |678| 
     743              $C$DW$108       .dwtag  DW_TAG_TI_branch
     744                      .dwattr $C$DW$108, DW_AT_low_pc(0x00)
     745                      .dwattr $C$DW$108, DW_AT_name("_CTRL_setupCtrl")
     746                      .dwattr $C$DW$108, DW_AT_TI_call
     747 00000082 7640!         LCR       #_CTRL_setupCtrl      ; [CPU_] |678| 
         00000083 0000 
     748                      ; call occurs [#_CTRL_setupCtrl] ; [] |678| 
     749                      .dwpsn  file "C:/ti/motorware/motorware_1_01_00_18/sw/modules/ctrl/src/32b/ctrl.c",line 681,column 19
     750 00000084 8AA2          MOVL      XAR4,XAR2             ; [CPU_] |681| 
     751              $C$DW$109       .dwtag  DW_TAG_TI_branch
     752                      .dwattr $C$DW$109, DW_AT_low_pc(0x00)
     753                      .dwattr $C$DW$109, DW_AT_name("_CTRL_setupTraj")
     754                      .dwattr $C$DW$109, DW_AT_TI_call
     755 00000085 7640!         LCR       #_CTRL_setupTraj      ; [CPU_] |681| 
         00000086 0000 
     756                      ; call occurs [#_CTRL_setupTraj] ; [] |681| 
     757 00000087       $C$L9:    
     758                      .dwpsn  file "C:/ti/motorware/motorware_1_01_00_18/sw/modules/ctrl/src/32b/ctrl.c",line 684,column 15
     759 00000087 D018          MOVB      XAR0,#24              ; [CPU_] |684| 
     760 00000088 8A92          MOVL      XAR4,*+XAR2[AR0]      ; [CPU_] |684| 
     761              $C$DW$110       .dwtag  DW_TAG_TI_branch
     762                      .dwattr $C$DW$110, DW_AT_low_pc(0x00)
     763                      .dwattr $C$DW$110, DW_AT_name("_EST_isOnLine")
     764                      .dwattr $C$DW$110, DW_AT_TI_call
     765 00000089 7640!         LCR       #_EST_isOnLine        ; [CPU_] |684| 
         0000008a 0000 
     766                      ; call occurs [#_EST_isOnLine] ; [] |684| 
     767 0000008b 5200          CMPB      AL,#0                 ; [CPU_] |684| 
     768 0000008c EC04          BF        $C$L10,EQ             ; [CPU_] |684| 
     769                      ; branchcc occurs ; [] |684| 
     770                      .dwpsn  file "C:/ti/motorware/motorware_1_01_00_18/sw/modules/ctrl/src/32b/ctrl.c",line 687,column 19
     771 0000008d 8AA2          MOVL      XAR4,XAR2             ; [CPU_] |687| 
     772              $C$DW$111       .dwtag  DW_TAG_TI_branch
     773                      .dwattr $C$DW$111, DW_AT_low_pc(0x00)
     774                      .dwattr $C$DW$111, DW_AT_name("_CTRL_setupEstOnLineState")
     775                      .dwattr $C$DW$111, DW_AT_TI_call
     776 0000008e 7640!         LCR       #_CTRL_setupEstOnLineState ; [CPU_] |687| 
         0000008f 0000 
     777                      ; call occurs [#_CTRL_setupEstOnLineState] ; [] |687| 
     778 00000090       $C$L10:    
     779                      .dwpsn  file "C:/ti/motorware/motorware_1_01_00_18/sw/modules/ctrl/src/32b/ctrl.c",line 690,column 15
     780 00000090 D018          MOVB      XAR0,#24              ; [CPU_] |690| 
     781 00000091 8A92          MOVL      XAR4,*+XAR2[AR0]      ; [CPU_] |690| 
     782              $C$DW$112       .dwtag  DW_TAG_TI_branch
     783                      .dwattr $C$DW$112, DW_AT_low_pc(0x00)
     784                      .dwattr $C$DW$112, DW_AT_name("_EST_isLockRotor")
     785                      .dwattr $C$DW$112, DW_AT_TI_call
     786 00000092 7640!         LCR       #_EST_isLockRotor     ; [CPU_] |690| 
         00000093 0000 
     787                      ; call occurs [#_EST_isLockRotor] ; [] |690| 
     788 00000094 5200          CMPB      AL,#0                 ; [CPU_] |690| 
TMS320C2000 Assembler PC v6.2.5 Tue Jun 27 16:56:14 2017

Tools Copyright (c) 1996-2014 Texas Instruments Incorporated
C:\Users\wmj\AppData\Local\Temp\1139610                              PAGE   16

     789 00000095 ED0D          BF        $C$L11,NEQ            ; [CPU_] |690| 
     790                      ; branchcc occurs ; [] |690| 
     791 00000096 D018          MOVB      XAR0,#24              ; [CPU_] |690| 
     792 00000097 8A92          MOVL      XAR4,*+XAR2[AR0]      ; [CPU_] |690| 
     793              $C$DW$113       .dwtag  DW_TAG_TI_branch
     794                      .dwattr $C$DW$113, DW_AT_low_pc(0x00)
     795                      .dwattr $C$DW$113, DW_AT_name("_EST_isIdle")
     796                      .dwattr $C$DW$113, DW_AT_TI_call
     797 00000098 7640!         LCR       #_EST_isIdle          ; [CPU_] |690| 
         00000099 0000 
     798                      ; call occurs [#_EST_isIdle] ; [] |690| 
     799 0000009a 5200          CMPB      AL,#0                 ; [CPU_] |690| 
     800 0000009b EC0D          BF        $C$L12,EQ             ; [CPU_] |690| 
     801                      ; branchcc occurs ; [] |690| 
     802 0000009c D018          MOVB      XAR0,#24              ; [CPU_] |690| 
     803 0000009d 8A92          MOVL      XAR4,*+XAR2[AR0]      ; [CPU_] |690| 
     804              $C$DW$114       .dwtag  DW_TAG_TI_branch
     805                      .dwattr $C$DW$114, DW_AT_low_pc(0x00)
     806                      .dwattr $C$DW$114, DW_AT_name("_EST_isMotorIdentified")
     807                      .dwattr $C$DW$114, DW_AT_TI_call
     808 0000009e 7640!         LCR       #_EST_isMotorIdentified ; [CPU_] |690| 
         0000009f 0000 
     809                      ; call occurs [#_EST_isMotorIdentified] ; [] |690| 
     810 000000a0 5200          CMPB      AL,#0                 ; [CPU_] |690| 
     811 000000a1 EC07          BF        $C$L12,EQ             ; [CPU_] |690| 
     812                      ; branchcc occurs ; [] |690| 
     813 000000a2       $C$L11:    
     814                      .dwpsn  file "C:/ti/motorware/motorware_1_01_00_18/sw/modules/ctrl/src/32b/ctrl.h",line 1218,column 3
     815 000000a2 D0F0          MOVB      XAR0,#240             ; [CPU_] |1218| 
     816 000000a3 2B92          MOV       *+XAR2[AR0],#0        ; [CPU_] |1218| 
     817                      .dwpsn  file "C:/ti/motorware/motorware_1_01_00_18/sw/modules/ctrl/src/32b/ctrl.h",line 1778,column 3
     818 000000a4 92E2          MOV       AL,*+XAR2[4]          ; [CPU_] |1778| 
     819 000000a5 96EA          MOV       *+XAR2[5],AL          ; [CPU_] |1778| 
     820                      .dwpsn  file "C:/ti/motorware/motorware_1_01_00_18/sw/modules/ctrl/src/32b/ctrl.h",line 1779,column 3
     821 000000a6 56BF          MOVB      *+XAR2[4],#1,UNC      ; [CPU_] |1779| 
         000000a7 01E2 
     822 000000a8       $C$L12:    
     823 000000a8 9241          MOV       AL,*-SP[1]            ; [CPU_] 
     824                      .dwpsn  file "C:/ti/motorware/motorware_1_01_00_18/sw/modules/ctrl/src/32b/ctrl.c",line 773,column 3,
     825 000000a9 54E2          CMP       AL,*+XAR2[4]          ; [CPU_] |773| 
     826                      .dwpsn  file "C:/ti/motorware/motorware_1_01_00_18/sw/modules/ctrl/src/32b/ctrl.c",line 775,column 7,
     827 000000aa 56B0          MOVB      XAR1,#1,NEQ           ; [CPU_] |775| 
         000000ab 01A1 
     828 000000ac FE84          SUBB      SP,#4                 ; [CPU_U] 
     829                      .dwcfi  cfa_offset, -8
     830                      .dwpsn  file "C:/ti/motorware/motorware_1_01_00_18/sw/modules/ctrl/src/32b/ctrl.c",line 778,column 3,
     831 000000ad 92A1          MOV       AL,AR1                ; [CPU_] |778| 
     832 000000ae 82BE          MOVL      XAR3,*--SP            ; [CPU_] 
     833                      .dwcfi  cfa_offset, -6
     834                      .dwcfi  restore_reg, 11
     835 000000af 86BE          MOVL      XAR2,*--SP            ; [CPU_] 
     836                      .dwcfi  cfa_offset, -4
     837                      .dwcfi  restore_reg, 9
     838 000000b0 8BBE          MOVL      XAR1,*--SP            ; [CPU_] 
     839                      .dwcfi  cfa_offset, -2
TMS320C2000 Assembler PC v6.2.5 Tue Jun 27 16:56:14 2017

Tools Copyright (c) 1996-2014 Texas Instruments Incorporated
C:\Users\wmj\AppData\Local\Temp\1139610                              PAGE   17

     840                      .dwcfi  restore_reg, 7
     841              $C$DW$115       .dwtag  DW_TAG_TI_branch
     842                      .dwattr $C$DW$115, DW_AT_low_pc(0x00)
     843                      .dwattr $C$DW$115, DW_AT_TI_return
     844 000000b1 0006          LRETR     ; [CPU_] 
     845                      ; return occurs ; [] 
     846                      .dwattr $C$DW$89, DW_AT_TI_end_file("C:/ti/motorware/motorware_1_01_00_18/sw/modules/ctrl/src/32b/ctr
     847                      .dwattr $C$DW$89, DW_AT_TI_end_line(0x30b)
     848                      .dwattr $C$DW$89, DW_AT_TI_end_column(0x01)
     849                      .dwendentry
     850                      .dwendtag $C$DW$89
     851              
     852 000000b2               .sect   ".text"
     853                      .clink
     854                      .global _CTRL_setup_user
     855              
     856              $C$DW$116       .dwtag  DW_TAG_subprogram, DW_AT_name("CTRL_setup_user")
     857                      .dwattr $C$DW$116, DW_AT_low_pc(_CTRL_setup_user)
     858                      .dwattr $C$DW$116, DW_AT_high_pc(0x00)
     859                      .dwattr $C$DW$116, DW_AT_TI_symbol_name("_CTRL_setup_user")
     860                      .dwattr $C$DW$116, DW_AT_external
     861                      .dwattr $C$DW$116, DW_AT_TI_begin_file("C:/ti/motorware/motorware_1_01_00_18/sw/modules/ctrl/src/32b/
     862                      .dwattr $C$DW$116, DW_AT_TI_begin_line(0x23c)
     863                      .dwattr $C$DW$116, DW_AT_TI_begin_column(0x06)
     864                      .dwattr $C$DW$116, DW_AT_TI_max_frame_size(-18)
     865                      .dwpsn  file "C:/ti/motorware/motorware_1_01_00_18/sw/modules/ctrl/src/32b/ctrl.c",line 581,column 1,
     866              
     867                      .dwfde $C$DW$CIE, _CTRL_setup_user
     868              $C$DW$117       .dwtag  DW_TAG_formal_parameter, DW_AT_name("handle")
     869                      .dwattr $C$DW$117, DW_AT_TI_symbol_name("_handle")
     870                      .dwattr $C$DW$117, DW_AT_type(*$C$DW$T$161)
     871                      .dwattr $C$DW$117, DW_AT_location[DW_OP_reg12]
     872              $C$DW$118       .dwtag  DW_TAG_formal_parameter, DW_AT_name("angle_pu")
     873                      .dwattr $C$DW$118, DW_AT_TI_symbol_name("_angle_pu")
     874                      .dwattr $C$DW$118, DW_AT_type(*$C$DW$T$226)
     875                      .dwattr $C$DW$118, DW_AT_location[DW_OP_reg0]
     876              $C$DW$119       .dwtag  DW_TAG_formal_parameter, DW_AT_name("speed_ref_pu")
     877                      .dwattr $C$DW$119, DW_AT_TI_symbol_name("_speed_ref_pu")
     878                      .dwattr $C$DW$119, DW_AT_type(*$C$DW$T$226)
     879                      .dwattr $C$DW$119, DW_AT_location[DW_OP_breg20 -20]
     880              $C$DW$120       .dwtag  DW_TAG_formal_parameter, DW_AT_name("speed_fb_pu")
     881                      .dwattr $C$DW$120, DW_AT_TI_symbol_name("_speed_fb_pu")
     882                      .dwattr $C$DW$120, DW_AT_type(*$C$DW$T$226)
     883                      .dwattr $C$DW$120, DW_AT_location[DW_OP_breg20 -22]
     884              $C$DW$121       .dwtag  DW_TAG_formal_parameter, DW_AT_name("speed_outMax_pu")
     885                      .dwattr $C$DW$121, DW_AT_TI_symbol_name("_speed_outMax_pu")
     886                      .dwattr $C$DW$121, DW_AT_type(*$C$DW$T$226)
     887                      .dwattr $C$DW$121, DW_AT_location[DW_OP_breg20 -24]
     888              $C$DW$122       .dwtag  DW_TAG_formal_parameter, DW_AT_name("pIdq_offset_pu")
     889                      .dwattr $C$DW$122, DW_AT_TI_symbol_name("_pIdq_offset_pu")
     890                      .dwattr $C$DW$122, DW_AT_type(*$C$DW$T$198)
     891                      .dwattr $C$DW$122, DW_AT_location[DW_OP_reg14]
     892              $C$DW$123       .dwtag  DW_TAG_formal_parameter, DW_AT_name("pVdq_offset_pu")
     893                      .dwattr $C$DW$123, DW_AT_TI_symbol_name("_pVdq_offset_pu")
     894                      .dwattr $C$DW$123, DW_AT_type(*$C$DW$T$198)
TMS320C2000 Assembler PC v6.2.5 Tue Jun 27 16:56:14 2017

Tools Copyright (c) 1996-2014 Texas Instruments Incorporated
C:\Users\wmj\AppData\Local\Temp\1139610                              PAGE   18

     895                      .dwattr $C$DW$123, DW_AT_location[DW_OP_breg20 -26]
     896              $C$DW$124       .dwtag  DW_TAG_formal_parameter, DW_AT_name("flag_enableSpeedCtrl")
     897                      .dwattr $C$DW$124, DW_AT_TI_symbol_name("_flag_enableSpeedCtrl")
     898                      .dwattr $C$DW$124, DW_AT_type(*$C$DW$T$261)
     899                      .dwattr $C$DW$124, DW_AT_location[DW_OP_breg20 -27]
     900              $C$DW$125       .dwtag  DW_TAG_formal_parameter, DW_AT_name("flag_enableCurrentCtrl")
     901                      .dwattr $C$DW$125, DW_AT_TI_symbol_name("_flag_enableCurrentCtrl")
     902                      .dwattr $C$DW$125, DW_AT_type(*$C$DW$T$261)
     903                      .dwattr $C$DW$125, DW_AT_location[DW_OP_breg20 -28]
     904              
     905              ;***************************************************************
     906              ;* FNAME: _CTRL_setup_user              FR SIZE:  16           *
     907              ;*                                                             *
     908              ;* FUNCTION ENVIRONMENT                                        *
     909              ;*                                                             *
     910              ;* FUNCTION PROPERTIES                                         *
     911              ;*                            0 Parameter, 10 Auto,  6 SOE     *
     912              ;***************************************************************
     913              
     914              _CTRL_setup_user:
     915              ;* AR5   assigned to $O$C1
     916              ;* AR4   assigned to $O$C2
     917              ;* AR5   assigned to $O$C3
     918              ;* AR4   assigned to $O$C4
     919              ;* AR7   assigned to _numCtrlTicksPerTrajTick
     920              $C$DW$126       .dwtag  DW_TAG_variable, DW_AT_name("numCtrlTicksPerTrajTick")
     921                      .dwattr $C$DW$126, DW_AT_TI_symbol_name("_numCtrlTicksPerTrajTick")
     922                      .dwattr $C$DW$126, DW_AT_type(*$C$DW$T$67)
     923                      .dwattr $C$DW$126, DW_AT_location[DW_OP_reg18]
     924              ;* PL    assigned to _count_traj
     925              $C$DW$127       .dwtag  DW_TAG_variable, DW_AT_name("count_traj")
     926                      .dwattr $C$DW$127, DW_AT_TI_symbol_name("_count_traj")
     927                      .dwattr $C$DW$127, DW_AT_type(*$C$DW$T$67)
     928                      .dwattr $C$DW$127, DW_AT_location[DW_OP_reg2]
     929              ;* AR6   assigned to _ctrlState
     930              $C$DW$128       .dwtag  DW_TAG_variable, DW_AT_name("ctrlState")
     931                      .dwattr $C$DW$128, DW_AT_TI_symbol_name("_ctrlState")
     932                      .dwattr $C$DW$128, DW_AT_type(*$C$DW$T$40)
     933                      .dwattr $C$DW$128, DW_AT_location[DW_OP_reg16]
     934              $C$DW$129       .dwtag  DW_TAG_variable, DW_AT_name("flag_enableCurrentCtrl")
     935                      .dwattr $C$DW$129, DW_AT_TI_symbol_name("_flag_enableCurrentCtrl")
     936                      .dwattr $C$DW$129, DW_AT_type(*$C$DW$T$261)
     937                      .dwattr $C$DW$129, DW_AT_location[DW_OP_breg20 -1]
     938              $C$DW$130       .dwtag  DW_TAG_variable, DW_AT_name("flag_enableSpeedCtrl")
     939                      .dwattr $C$DW$130, DW_AT_TI_symbol_name("_flag_enableSpeedCtrl")
     940                      .dwattr $C$DW$130, DW_AT_type(*$C$DW$T$261)
     941                      .dwattr $C$DW$130, DW_AT_location[DW_OP_breg20 -2]
     942              $C$DW$131       .dwtag  DW_TAG_variable, DW_AT_name("pVdq_offset_pu")
     943                      .dwattr $C$DW$131, DW_AT_TI_symbol_name("_pVdq_offset_pu")
     944                      .dwattr $C$DW$131, DW_AT_type(*$C$DW$T$199)
     945                      .dwattr $C$DW$131, DW_AT_location[DW_OP_breg20 -4]
     946              $C$DW$132       .dwtag  DW_TAG_variable, DW_AT_name("pIdq_offset_pu")
     947                      .dwattr $C$DW$132, DW_AT_TI_symbol_name("_pIdq_offset_pu")
     948                      .dwattr $C$DW$132, DW_AT_type(*$C$DW$T$199)
     949                      .dwattr $C$DW$132, DW_AT_location[DW_OP_breg20 -6]
TMS320C2000 Assembler PC v6.2.5 Tue Jun 27 16:56:14 2017

Tools Copyright (c) 1996-2014 Texas Instruments Incorporated
C:\Users\wmj\AppData\Local\Temp\1139610                              PAGE   19

     950              $C$DW$133       .dwtag  DW_TAG_variable, DW_AT_name("speed_outMax_pu")
     951                      .dwattr $C$DW$133, DW_AT_TI_symbol_name("_speed_outMax_pu")
     952                      .dwattr $C$DW$133, DW_AT_type(*$C$DW$T$226)
     953                      .dwattr $C$DW$133, DW_AT_location[DW_OP_breg20 -8]
     954              $C$DW$134       .dwtag  DW_TAG_variable, DW_AT_name("speed_fb_pu")
     955                      .dwattr $C$DW$134, DW_AT_TI_symbol_name("_speed_fb_pu")
     956                      .dwattr $C$DW$134, DW_AT_type(*$C$DW$T$226)
     957                      .dwattr $C$DW$134, DW_AT_location[DW_OP_breg20 -10]
     958              ;* AR2   assigned to _speed_ref_pu
     959              $C$DW$135       .dwtag  DW_TAG_variable, DW_AT_name("speed_ref_pu")
     960                      .dwattr $C$DW$135, DW_AT_TI_symbol_name("_speed_ref_pu")
     961                      .dwattr $C$DW$135, DW_AT_type(*$C$DW$T$226)
     962                      .dwattr $C$DW$135, DW_AT_location[DW_OP_reg8]
     963              ;* AR3   assigned to _angle_pu
     964              $C$DW$136       .dwtag  DW_TAG_variable, DW_AT_name("angle_pu")
     965                      .dwattr $C$DW$136, DW_AT_TI_symbol_name("_angle_pu")
     966                      .dwattr $C$DW$136, DW_AT_type(*$C$DW$T$226)
     967                      .dwattr $C$DW$136, DW_AT_location[DW_OP_reg10]
     968              ;* AR1   assigned to _handle
     969              $C$DW$137       .dwtag  DW_TAG_variable, DW_AT_name("handle")
     970                      .dwattr $C$DW$137, DW_AT_TI_symbol_name("_handle")
     971                      .dwattr $C$DW$137, DW_AT_type(*$C$DW$T$175)
     972                      .dwattr $C$DW$137, DW_AT_location[DW_OP_reg6]
     973                      .dwcfi  cfa_offset, -2
     974                      .dwcfi  save_reg_to_mem, 26, 0
     975                      .dwcfi  save_reg_to_reg, 78, 26
     976 000000b2 B2BD          MOVL      *SP++,XAR1            ; [CPU_] 
     977                      .dwcfi  save_reg_to_mem, 7, 2
     978                      .dwcfi  cfa_offset, -4
     979 000000b3 AABD          MOVL      *SP++,XAR2            ; [CPU_] 
     980                      .dwcfi  save_reg_to_mem, 9, 4
     981                      .dwcfi  cfa_offset, -6
     982 000000b4 A2BD          MOVL      *SP++,XAR3            ; [CPU_] 
     983                      .dwcfi  save_reg_to_mem, 11, 6
     984                      .dwcfi  cfa_offset, -8
     985 000000b5 FE0A          ADDB      SP,#10                ; [CPU_U] 
     986                      .dwcfi  cfa_offset, -18
     987 000000b6 82A9          MOVL      XAR3,ACC              ; [CPU_] |581| 
     988 000000b7 925C          MOV       AL,*-SP[28]           ; [CPU_] |581| 
     989                      .dwpsn  file "C:/ti/motorware/motorware_1_01_00_18/sw/modules/ctrl/src/32b/ctrl.h",line 143,column 3,
     990 000000b8 D0EF          MOVB      XAR0,#239             ; [CPU_] |143| 
     991                      .dwpsn  file "C:/ti/motorware/motorware_1_01_00_18/sw/modules/ctrl/src/32b/ctrl.c",line 581,column 1,
     992 000000b9 8BA4          MOVL      XAR1,XAR4             ; [CPU_] |581| 
     993 000000ba A046          MOVL      *-SP[6],XAR5          ; [CPU_] |581| 
     994 000000bb 9641          MOV       *-SP[1],AL            ; [CPU_] |581| 
     995 000000bc 8654          MOVL      XAR2,*-SP[20]         ; [CPU_] |581| 
     996 000000bd 925B          MOV       AL,*-SP[27]           ; [CPU_] |581| 
     997 000000be 9642          MOV       *-SP[2],AL            ; [CPU_] |581| 
     998 000000bf 065A          MOVL      ACC,*-SP[26]          ; [CPU_] |581| 
     999 000000c0 1E44          MOVL      *-SP[4],ACC           ; [CPU_] |581| 
    1000 000000c1 0658          MOVL      ACC,*-SP[24]          ; [CPU_] |581| 
    1001 000000c2 1E48          MOVL      *-SP[8],ACC           ; [CPU_] |581| 
    1002 000000c3 0656          MOVL      ACC,*-SP[22]          ; [CPU_] |581| 
    1003 000000c4 1E4A          MOVL      *-SP[10],ACC          ; [CPU_] |581| 
    1004                      .dwpsn  file "C:/ti/motorware/motorware_1_01_00_18/sw/modules/ctrl/src/32b/ctrl.h",line 1013,column 3
TMS320C2000 Assembler PC v6.2.5 Tue Jun 27 16:56:14 2017

Tools Copyright (c) 1996-2014 Texas Instruments Incorporated
C:\Users\wmj\AppData\Local\Temp\1139610                              PAGE   20

    1005 000000c5 029A          MOVB      ACC,#154              ; [CPU_] |1013| 
    1006 000000c6 07A1          ADDL      ACC,XAR1              ; [CPU_] |1013| 
    1007                      .dwpsn  file "C:/ti/motorware/motorware_1_01_00_18/sw/modules/ctrl/src/32b/ctrl.h",line 143,column 3,
    1008 000000c7 2791          MOV       PL,*+XAR1[AR0]        ; [CPU_] |143| 
    1009                      .dwpsn  file "C:/ti/motorware/motorware_1_01_00_18/sw/modules/ctrl/src/32b/ctrl.h",line 771,column 3,
    1010 000000c8 88E1          MOVZ      AR6,*+XAR1[4]         ; [CPU_] |771| 
    1011                      .dwpsn  file "C:/ti/motorware/motorware_1_01_00_18/sw/modules/ctrl/src/32b/ctrl.h",line 1013,column 3
    1012 000000c9 8AA9          MOVL      XAR4,ACC              ; [CPU_] |1013| 
    1013                      .dwpsn  file "C:/ti/motorware/motorware_1_01_00_18/sw/modules/ctrl/src/32b/ctrl.h",line 606,column 3,
    1014 000000ca D09F          MOVB      XAR0,#159             ; [CPU_] |606| 
    1015                      .dwpsn  file "C:/ti/motorware/motorware_1_01_00_18/sw/modules/ctrl/src/32b/ctrl.h",line 1013,column 3
    1016 000000cb 0201          MOVB      ACC,#1                ; [CPU_] |1013| 
    1017                      .dwpsn  file "C:/ti/motorware/motorware_1_01_00_18/sw/modules/ctrl/src/32b/ctrl.h",line 606,column 3,
    1018 000000cc 8091          MOVZ      AR7,*+XAR1[AR0]       ; [CPU_] |606| 
    1019                      .dwpsn  file "C:/ti/motorware/motorware_1_01_00_18/sw/modules/ctrl/src/32b/ctrl.h",line 1013,column 3
    1020 000000cd 5601          ADDL      *+XAR4[0],ACC         ; [CPU_] |1013| 
         000000ce 00C4 
    1021                      .dwpsn  file "C:/ti/motorware/motorware_1_01_00_18/sw/modules/ctrl/src/32b/ctrl.h",line 1031,column 3
    1022 000000cf 02EF          MOVB      ACC,#239              ; [CPU_] |1031| 
    1023 000000d0 07A1          ADDL      ACC,XAR1              ; [CPU_] |1031| 
    1024 000000d1 8AA9          MOVL      XAR4,ACC              ; [CPU_] |1031| 
    1025 000000d2 92A6          MOV       AL,AR6                ; [CPU_] |1031| 
    1026 000000d3 0AC4          INC       *+XAR4[0]             ; [CPU_] |1031| 
    1027                      .dwpsn  file "C:/ti/motorware/motorware_1_01_00_18/sw/modules/ctrl/src/32b/ctrl.c",line 594,column 3,
    1028 000000d4 5203          CMPB      AL,#3                 ; [CPU_] |594| 
    1029 000000d5 ED09          BF        $C$L13,NEQ            ; [CPU_] |594| 
    1030                      ; branchcc occurs ; [] |594| 
    1031                      .dwpsn  file "C:/ti/motorware/motorware_1_01_00_18/sw/modules/ctrl/src/32b/ctrl.h",line 959,column 3,
    1032 000000d6 02EC          MOVB      ACC,#236              ; [CPU_] |959| 
    1033 000000d7 07A1          ADDL      ACC,XAR1              ; [CPU_] |959| 
    1034 000000d8 8AA9          MOVL      XAR4,ACC              ; [CPU_] |959| 
    1035 000000d9 0AC4          INC       *+XAR4[0]             ; [CPU_] |959| 
    1036                      .dwpsn  file "C:/ti/motorware/motorware_1_01_00_18/sw/modules/ctrl/src/32b/ctrl.h",line 995,column 3,
    1037 000000da 02EE          MOVB      ACC,#238              ; [CPU_] |995| 
    1038 000000db 07A1          ADDL      ACC,XAR1              ; [CPU_] |995| 
    1039 000000dc 8AA9          MOVL      XAR4,ACC              ; [CPU_] |995| 
    1040 000000dd 0AC4          INC       *+XAR4[0]             ; [CPU_] |995| 
    1041 000000de       $C$L13:    
    1042 000000de 92A7          MOV       AL,AR7                ; [CPU_] 
    1043                      .dwpsn  file "C:/ti/motorware/motorware_1_01_00_18/sw/modules/ctrl/src/32b/ctrl.c",line 604,column 3,
    1044 000000df 54AB          CMP       AL,PL                 ; [CPU_] |604| 
    1045 000000e0 6606          B         $C$L14,HI             ; [CPU_] |604| 
    1046                      ; branchcc occurs ; [] |604| 
    1047                      .dwpsn  file "C:/ti/motorware/motorware_1_01_00_18/sw/modules/ctrl/src/32b/ctrl.h",line 1123,column 3
    1048 000000e1 D0EF          MOVB      XAR0,#239             ; [CPU_] |1123| 
    1049                      .dwpsn  file "C:/ti/motorware/motorware_1_01_00_18/sw/modules/ctrl/src/32b/ctrl.c",line 610,column 5,
    1050 000000e2 8AA1          MOVL      XAR4,XAR1             ; [CPU_] |610| 
    1051                      .dwpsn  file "C:/ti/motorware/motorware_1_01_00_18/sw/modules/ctrl/src/32b/ctrl.h",line 1123,column 3
    1052 000000e3 2B91          MOV       *+XAR1[AR0],#0        ; [CPU_] |1123| 
    1053                      .dwpsn  file "C:/ti/motorware/motorware_1_01_00_18/sw/modules/ctrl/src/32b/ctrl.c",line 610,column 5,
    1054              $C$DW$138       .dwtag  DW_TAG_TI_branch
    1055                      .dwattr $C$DW$138, DW_AT_low_pc(0x00)
    1056                      .dwattr $C$DW$138, DW_AT_name("_CTRL_runTraj")
    1057                      .dwattr $C$DW$138, DW_AT_TI_call
    1058 000000e4 7640!         LCR       #_CTRL_runTraj        ; [CPU_] |610| 
TMS320C2000 Assembler PC v6.2.5 Tue Jun 27 16:56:14 2017

Tools Copyright (c) 1996-2014 Texas Instruments Incorporated
C:\Users\wmj\AppData\Local\Temp\1139610                              PAGE   21

         000000e5 0000 
    1059                      ; call occurs [#_CTRL_runTraj] ; [] |610| 
    1060 000000e6       $C$L14:    
    1061                      .dwpsn  file "C:/ti/motorware/motorware_1_01_00_18/sw/modules/ctrl/src/32b/ctrl.h",line 1154,column 3
    1062 000000e6 D0FE          MOVB      XAR0,#254             ; [CPU_] |1154| 
    1063 000000e7 A291          MOVL      *+XAR1[AR0],XAR3      ; [CPU_] |1154| 
    1064                      .dwpsn  file "C:/ti/motorware/motorware_1_01_00_18/sw/modules/ctrl/src/32b/ctrl.h",line 1753,column 3
    1065 000000e8 8D00          MOVL      XAR0,#256             ; [CPU_] |1753| 
         000000e9 0100 
    1066 000000ea AA91          MOVL      *+XAR1[AR0],XAR2      ; [CPU_] |1753| 
    1067                      .dwpsn  file "C:/ti/motorware/motorware_1_01_00_18/sw/modules/ctrl/src/32b/ctrl.h",line 1701,column 3
    1068 000000eb 8D00          MOVL      XAR0,#258             ; [CPU_] |1701| 
         000000ec 0102 
    1069 000000ed 064A          MOVL      ACC,*-SP[10]          ; [CPU_] |1701| 
    1070 000000ee 1E91          MOVL      *+XAR1[AR0],ACC       ; [CPU_] |1701| 
    1071                      .dwpsn  file "C:/ti/motorware/motorware_1_01_00_18/sw/modules/ctrl/src/32b/ctrl.h",line 1740,column 3
    1072 000000ef 8D00          MOVL      XAR0,#260             ; [CPU_] |1740| 
         000000f0 0104 
    1073 000000f1 0648          MOVL      ACC,*-SP[8]           ; [CPU_] |1740| 
    1074 000000f2 1E91          MOVL      *+XAR1[AR0],ACC       ; [CPU_] |1740| 
    1075 000000f3 8A46          MOVL      XAR4,*-SP[6]          ; [CPU_] |1740| 
    1076                      .dwpsn  file "C:/ti/motorware/motorware_1_01_00_18/sw/modules/ctrl/src/32b/ctrl.h",line 1374,column 3
    1077 000000f4 02F6          MOVB      ACC,#246              ; [CPU_] |1374| 
    1078 000000f5 07A1          ADDL      ACC,XAR1              ; [CPU_] |1374| 
    1079 000000f6 83A9          MOVL      XAR5,ACC              ; [CPU_] |1374| 
    1080 000000f7 06C4          MOVL      ACC,*+XAR4[0]         ; [CPU_] |1374| 
    1081 000000f8 1EC5          MOVL      *+XAR5[0],ACC         ; [CPU_] |1374| 
    1082                      .dwpsn  file "C:/ti/motorware/motorware_1_01_00_18/sw/modules/ctrl/src/32b/ctrl.h",line 1375,column 3
    1083 000000f9 06D4          MOVL      ACC,*+XAR4[2]         ; [CPU_] |1375| 
    1084 000000fa 1ED5          MOVL      *+XAR5[2],ACC         ; [CPU_] |1375| 
    1085                      .dwpsn  file "C:/ti/motorware/motorware_1_01_00_18/sw/modules/ctrl/src/32b/ctrl.h",line 1914,column 3
    1086 000000fb 02FA          MOVB      ACC,#250              ; [CPU_] |1914| 
    1087                      .dwpsn  file "C:/ti/motorware/motorware_1_01_00_18/sw/modules/ctrl/src/32b/ctrl.h",line 1375,column 3
    1088 000000fc 8A44          MOVL      XAR4,*-SP[4]          ; [CPU_] |1375| 
    1089                      .dwpsn  file "C:/ti/motorware/motorware_1_01_00_18/sw/modules/ctrl/src/32b/ctrl.h",line 1914,column 3
    1090 000000fd 07A1          ADDL      ACC,XAR1              ; [CPU_] |1914| 
    1091                      .dwpsn  file "C:/ti/motorware/motorware_1_01_00_18/sw/modules/ctrl/src/32b/ctrl.h",line 1288,column 3
    1092 000000fe D0F4          MOVB      XAR0,#244             ; [CPU_] |1288| 
    1093                      .dwpsn  file "C:/ti/motorware/motorware_1_01_00_18/sw/modules/ctrl/src/32b/ctrl.h",line 1914,column 3
    1094 000000ff 83A9          MOVL      XAR5,ACC              ; [CPU_] |1914| 
    1095 00000100 06C4          MOVL      ACC,*+XAR4[0]         ; [CPU_] |1914| 
    1096 00000101 1EC5          MOVL      *+XAR5[0],ACC         ; [CPU_] |1914| 
    1097                      .dwpsn  file "C:/ti/motorware/motorware_1_01_00_18/sw/modules/ctrl/src/32b/ctrl.h",line 1915,column 3
    1098 00000102 06D4          MOVL      ACC,*+XAR4[2]         ; [CPU_] |1915| 
    1099 00000103 1ED5          MOVL      *+XAR5[2],ACC         ; [CPU_] |1915| 
    1100                      .dwpsn  file "C:/ti/motorware/motorware_1_01_00_18/sw/modules/ctrl/src/32b/ctrl.h",line 1288,column 3
    1101 00000104 9242          MOV       AL,*-SP[2]            ; [CPU_] |1288| 
    1102 00000105 9691          MOV       *+XAR1[AR0],AL        ; [CPU_] |1288| 
    1103                      .dwpsn  file "C:/ti/motorware/motorware_1_01_00_18/sw/modules/ctrl/src/32b/ctrl.h",line 1231,column 3
    1104 00000106 9241          MOV       AL,*-SP[1]            ; [CPU_] |1231| 
    1105 00000107 8D00          MOVL      XAR0,#262             ; [CPU_] |1231| 
         00000108 0106 
    1106 00000109 9691          MOV       *+XAR1[AR0],AL        ; [CPU_] |1231| 
    1107 0000010a FE8A          SUBB      SP,#10                ; [CPU_U] 
    1108                      .dwcfi  cfa_offset, -8
TMS320C2000 Assembler PC v6.2.5 Tue Jun 27 16:56:14 2017

Tools Copyright (c) 1996-2014 Texas Instruments Incorporated
C:\Users\wmj\AppData\Local\Temp\1139610                              PAGE   22

    1109 0000010b 82BE          MOVL      XAR3,*--SP            ; [CPU_] 
    1110                      .dwcfi  cfa_offset, -6
    1111                      .dwcfi  restore_reg, 11
    1112 0000010c 86BE          MOVL      XAR2,*--SP            ; [CPU_] 
    1113                      .dwcfi  cfa_offset, -4
    1114                      .dwcfi  restore_reg, 9
    1115 0000010d 8BBE          MOVL      XAR1,*--SP            ; [CPU_] 
    1116                      .dwcfi  cfa_offset, -2
    1117                      .dwcfi  restore_reg, 7
    1118              $C$DW$139       .dwtag  DW_TAG_TI_branch
    1119                      .dwattr $C$DW$139, DW_AT_low_pc(0x00)
    1120                      .dwattr $C$DW$139, DW_AT_TI_return
    1121 0000010e 0006          LRETR     ; [CPU_] 
    1122                      ; return occurs ; [] 
    1123                      .dwattr $C$DW$116, DW_AT_TI_end_file("C:/ti/motorware/motorware_1_01_00_18/sw/modules/ctrl/src/32b/ct
    1124                      .dwattr $C$DW$116, DW_AT_TI_end_line(0x273)
    1125                      .dwattr $C$DW$116, DW_AT_TI_end_column(0x01)
    1126                      .dwendentry
    1127                      .dwendtag $C$DW$116
    1128              
    1129 0000010f               .sect   ".text"
    1130                      .clink
    1131                      .global _CTRL_setupClarke_V
    1132              
    1133              $C$DW$140       .dwtag  DW_TAG_subprogram, DW_AT_name("CTRL_setupClarke_V")
    1134                      .dwattr $C$DW$140, DW_AT_low_pc(_CTRL_setupClarke_V)
    1135                      .dwattr $C$DW$140, DW_AT_high_pc(0x00)
    1136                      .dwattr $C$DW$140, DW_AT_TI_symbol_name("_CTRL_setupClarke_V")
    1137                      .dwattr $C$DW$140, DW_AT_external
    1138                      .dwattr $C$DW$140, DW_AT_TI_begin_file("C:/ti/motorware/motorware_1_01_00_18/sw/modules/ctrl/src/32b/
    1139                      .dwattr $C$DW$140, DW_AT_TI_begin_line(0x222)
    1140                      .dwattr $C$DW$140, DW_AT_TI_begin_column(0x06)
    1141                      .dwattr $C$DW$140, DW_AT_TI_max_frame_size(-2)
    1142                      .dwpsn  file "C:/ti/motorware/motorware_1_01_00_18/sw/modules/ctrl/src/32b/ctrl.c",line 547,column 1,
    1143              
    1144                      .dwfde $C$DW$CIE, _CTRL_setupClarke_V
    1145              $C$DW$141       .dwtag  DW_TAG_formal_parameter, DW_AT_name("handle")
    1146                      .dwattr $C$DW$141, DW_AT_TI_symbol_name("_handle")
    1147                      .dwattr $C$DW$141, DW_AT_type(*$C$DW$T$161)
    1148                      .dwattr $C$DW$141, DW_AT_location[DW_OP_reg12]
    1149              $C$DW$142       .dwtag  DW_TAG_formal_parameter, DW_AT_name("numVoltageSensors")
    1150                      .dwattr $C$DW$142, DW_AT_TI_symbol_name("_numVoltageSensors")
    1151                      .dwattr $C$DW$142, DW_AT_type(*$C$DW$T$33)
    1152                      .dwattr $C$DW$142, DW_AT_location[DW_OP_reg0]
    1153              
    1154              ;***************************************************************
    1155              ;* FNAME: _CTRL_setupClarke_V           FR SIZE:   0           *
    1156              ;*                                                             *
    1157              ;* FUNCTION ENVIRONMENT                                        *
    1158              ;*                                                             *
    1159              ;* FUNCTION PROPERTIES                                         *
    1160              ;*                            0 Parameter,  0 Auto,  0 SOE     *
    1161              ;***************************************************************
    1162              
    1163              _CTRL_setupClarke_V:
TMS320C2000 Assembler PC v6.2.5 Tue Jun 27 16:56:14 2017

Tools Copyright (c) 1996-2014 Texas Instruments Incorporated
C:\Users\wmj\AppData\Local\Temp\1139610                              PAGE   23

    1164              ;* AR5   assigned to _obj
    1165              $C$DW$143       .dwtag  DW_TAG_variable, DW_AT_name("obj")
    1166                      .dwattr $C$DW$143, DW_AT_TI_symbol_name("_obj")
    1167                      .dwattr $C$DW$143, DW_AT_type(*$C$DW$T$173)
    1168                      .dwattr $C$DW$143, DW_AT_location[DW_OP_reg14]
    1169              ;* PL    assigned to _beta_sf
    1170              $C$DW$144       .dwtag  DW_TAG_variable, DW_AT_name("beta_sf")
    1171                      .dwattr $C$DW$144, DW_AT_TI_symbol_name("_beta_sf")
    1172                      .dwattr $C$DW$144, DW_AT_type(*$C$DW$T$32)
    1173                      .dwattr $C$DW$144, DW_AT_location[DW_OP_reg2]
    1174              ;* AR6   assigned to _alpha_sf
    1175              $C$DW$145       .dwtag  DW_TAG_variable, DW_AT_name("alpha_sf")
    1176                      .dwattr $C$DW$145, DW_AT_TI_symbol_name("_alpha_sf")
    1177                      .dwattr $C$DW$145, DW_AT_type(*$C$DW$T$32)
    1178                      .dwattr $C$DW$145, DW_AT_location[DW_OP_reg16]
    1179              ;* AL    assigned to _numVoltageSensors
    1180              $C$DW$146       .dwtag  DW_TAG_variable, DW_AT_name("numVoltageSensors")
    1181                      .dwattr $C$DW$146, DW_AT_TI_symbol_name("_numVoltageSensors")
    1182                      .dwattr $C$DW$146, DW_AT_type(*$C$DW$T$224)
    1183                      .dwattr $C$DW$146, DW_AT_location[DW_OP_reg0]
    1184              ;* AR4   assigned to _handle
    1185              $C$DW$147       .dwtag  DW_TAG_variable, DW_AT_name("handle")
    1186                      .dwattr $C$DW$147, DW_AT_TI_symbol_name("_handle")
    1187                      .dwattr $C$DW$147, DW_AT_type(*$C$DW$T$175)
    1188                      .dwattr $C$DW$147, DW_AT_location[DW_OP_reg12]
    1189                      .dwcfi  cfa_offset, -2
    1190                      .dwcfi  save_reg_to_mem, 26, 0
    1191                      .dwcfi  save_reg_to_reg, 78, 26
    1192                      .dwpsn  file "C:/ti/motorware/motorware_1_01_00_18/sw/modules/ctrl/src/32b/ctrl.c",line 553,column 3,
    1193 0000010f 5203          CMPB      AL,#3                 ; [CPU_] |553| 
    1194 00000110 EC04          BF        $C$L15,EQ             ; [CPU_] |553| 
    1195                      ; branchcc occurs ; [] |553| 
    1196                      .dwpsn  file "C:/ti/motorware/motorware_1_01_00_18/sw/modules/ctrl/src/32b/ctrl.c",line 560,column 7,
    1197 00000111 BE00          MOVB      XAR6,#0               ; [CPU_] |560| 
    1198                      .dwpsn  file "C:/ti/motorware/motorware_1_01_00_18/sw/modules/ctrl/src/32b/ctrl.c",line 561,column 7,
    1199 00000112 3100          MOV       P,#0                  ; [CPU_] |561| 
    1200 00000113 6F0A          B         $C$L16,UNC            ; [CPU_] |561| 
    1201                      ; branch occurs ; [] |561| 
    1202 00000114       $C$L15:    
    1203                      .dwpsn  file "C:/ti/motorware/motorware_1_01_00_18/sw/modules/ctrl/src/32b/ctrl.c",line 555,column 7,
    1204 00000114 28AB          MOV       PL,#21845             ; [CPU_] |555| 
         00000115 5555 
    1205 00000116 28AA          MOV       PH,#85                ; [CPU_] |555| 
         00000117 0055 
    1206 00000118 A9A6          MOVL      XAR6,P                ; [CPU_] |555| 
    1207                      .dwpsn  file "C:/ti/motorware/motorware_1_01_00_18/sw/modules/ctrl/src/32b/ctrl.c",line 556,column 7,
    1208 00000119 28AB          MOV       PL,#52538             ; [CPU_] |556| 
         0000011a CD3A 
    1209 0000011b 28AA          MOV       PH,#147               ; [CPU_] |556| 
         0000011c 0093 
    1210 0000011d       $C$L16:    
    1211                      .dwpsn  file "C:/ti/motorware/motorware_1_01_00_18/sw/modules/clarke/src/32b/clarke.h",line 182,colum
    1212 0000011d D010          MOVB      XAR0,#16              ; [CPU_] |182| 
    1213 0000011e 8394          MOVL      XAR5,*+XAR4[AR0]      ; [CPU_] |182| 
    1214                      .dwpsn  file "C:/ti/motorware/motorware_1_01_00_18/sw/modules/clarke/src/32b/clarke.h",line 170,colum
TMS320C2000 Assembler PC v6.2.5 Tue Jun 27 16:56:14 2017

Tools Copyright (c) 1996-2014 Texas Instruments Incorporated
C:\Users\wmj\AppData\Local\Temp\1139610                              PAGE   24

    1215 0000011f D010          MOVB      XAR0,#16              ; [CPU_] |170| 
    1216                      .dwpsn  file "C:/ti/motorware/motorware_1_01_00_18/sw/modules/clarke/src/32b/clarke.h",line 185,colum
    1217 00000120 C2C5          MOVL      *+XAR5[0],XAR6        ; [CPU_] |185| 
    1218                      .dwpsn  file "C:/ti/motorware/motorware_1_01_00_18/sw/modules/clarke/src/32b/clarke.h",line 186,colum
    1219 00000121 A9D5          MOVL      *+XAR5[2],P           ; [CPU_] |186| 
    1220                      .dwpsn  file "C:/ti/motorware/motorware_1_01_00_18/sw/modules/clarke/src/32b/clarke.h",line 170,colum
    1221 00000122 8A94          MOVL      XAR4,*+XAR4[AR0]      ; [CPU_] |170| 
    1222 00000123 96E4          MOV       *+XAR4[4],AL          ; [CPU_] |170| 
    1223              $C$DW$148       .dwtag  DW_TAG_TI_branch
    1224                      .dwattr $C$DW$148, DW_AT_low_pc(0x00)
    1225                      .dwattr $C$DW$148, DW_AT_TI_return
    1226 00000124 0006          LRETR     ; [CPU_] 
    1227                      ; return occurs ; [] 
    1228                      .dwattr $C$DW$140, DW_AT_TI_end_file("C:/ti/motorware/motorware_1_01_00_18/sw/modules/ctrl/src/32b/ct
    1229                      .dwattr $C$DW$140, DW_AT_TI_end_line(0x239)
    1230                      .dwattr $C$DW$140, DW_AT_TI_end_column(0x01)
    1231                      .dwendentry
    1232                      .dwendtag $C$DW$140
    1233              
    1234 00000125               .sect   ".text"
    1235                      .clink
    1236                      .global _CTRL_setupClarke_I
    1237              
    1238              $C$DW$149       .dwtag  DW_TAG_subprogram, DW_AT_name("CTRL_setupClarke_I")
    1239                      .dwattr $C$DW$149, DW_AT_low_pc(_CTRL_setupClarke_I)
    1240                      .dwattr $C$DW$149, DW_AT_high_pc(0x00)
    1241                      .dwattr $C$DW$149, DW_AT_TI_symbol_name("_CTRL_setupClarke_I")
    1242                      .dwattr $C$DW$149, DW_AT_external
    1243                      .dwattr $C$DW$149, DW_AT_TI_begin_file("C:/ti/motorware/motorware_1_01_00_18/sw/modules/ctrl/src/32b/
    1244                      .dwattr $C$DW$149, DW_AT_TI_begin_line(0x203)
    1245                      .dwattr $C$DW$149, DW_AT_TI_begin_column(0x06)
    1246                      .dwattr $C$DW$149, DW_AT_TI_max_frame_size(-2)
    1247                      .dwpsn  file "C:/ti/motorware/motorware_1_01_00_18/sw/modules/ctrl/src/32b/ctrl.c",line 516,column 1,
    1248              
    1249                      .dwfde $C$DW$CIE, _CTRL_setupClarke_I
    1250              $C$DW$150       .dwtag  DW_TAG_formal_parameter, DW_AT_name("handle")
    1251                      .dwattr $C$DW$150, DW_AT_TI_symbol_name("_handle")
    1252                      .dwattr $C$DW$150, DW_AT_type(*$C$DW$T$161)
    1253                      .dwattr $C$DW$150, DW_AT_location[DW_OP_reg12]
    1254              $C$DW$151       .dwtag  DW_TAG_formal_parameter, DW_AT_name("numCurrentSensors")
    1255                      .dwattr $C$DW$151, DW_AT_TI_symbol_name("_numCurrentSensors")
    1256                      .dwattr $C$DW$151, DW_AT_type(*$C$DW$T$33)
    1257                      .dwattr $C$DW$151, DW_AT_location[DW_OP_reg0]
    1258              
    1259              ;***************************************************************
    1260              ;* FNAME: _CTRL_setupClarke_I           FR SIZE:   0           *
    1261              ;*                                                             *
    1262              ;* FUNCTION ENVIRONMENT                                        *
    1263              ;*                                                             *
    1264              ;* FUNCTION PROPERTIES                                         *
    1265              ;*                            0 Parameter,  0 Auto,  0 SOE     *
    1266              ;***************************************************************
    1267              
    1268              _CTRL_setupClarke_I:
    1269              ;* AR5   assigned to _obj
TMS320C2000 Assembler PC v6.2.5 Tue Jun 27 16:56:14 2017

Tools Copyright (c) 1996-2014 Texas Instruments Incorporated
C:\Users\wmj\AppData\Local\Temp\1139610                              PAGE   25

    1270              $C$DW$152       .dwtag  DW_TAG_variable, DW_AT_name("obj")
    1271                      .dwattr $C$DW$152, DW_AT_TI_symbol_name("_obj")
    1272                      .dwattr $C$DW$152, DW_AT_type(*$C$DW$T$173)
    1273                      .dwattr $C$DW$152, DW_AT_location[DW_OP_reg14]
    1274              ;* PL    assigned to _beta_sf
    1275              $C$DW$153       .dwtag  DW_TAG_variable, DW_AT_name("beta_sf")
    1276                      .dwattr $C$DW$153, DW_AT_TI_symbol_name("_beta_sf")
    1277                      .dwattr $C$DW$153, DW_AT_type(*$C$DW$T$32)
    1278                      .dwattr $C$DW$153, DW_AT_location[DW_OP_reg2]
    1279              ;* AR6   assigned to _alpha_sf
    1280              $C$DW$154       .dwtag  DW_TAG_variable, DW_AT_name("alpha_sf")
    1281                      .dwattr $C$DW$154, DW_AT_TI_symbol_name("_alpha_sf")
    1282                      .dwattr $C$DW$154, DW_AT_type(*$C$DW$T$32)
    1283                      .dwattr $C$DW$154, DW_AT_location[DW_OP_reg16]
    1284              ;* AL    assigned to _numCurrentSensors
    1285              $C$DW$155       .dwtag  DW_TAG_variable, DW_AT_name("numCurrentSensors")
    1286                      .dwattr $C$DW$155, DW_AT_TI_symbol_name("_numCurrentSensors")
    1287                      .dwattr $C$DW$155, DW_AT_type(*$C$DW$T$224)
    1288                      .dwattr $C$DW$155, DW_AT_location[DW_OP_reg0]
    1289              ;* AR4   assigned to _handle
    1290              $C$DW$156       .dwtag  DW_TAG_variable, DW_AT_name("handle")
    1291                      .dwattr $C$DW$156, DW_AT_TI_symbol_name("_handle")
    1292                      .dwattr $C$DW$156, DW_AT_type(*$C$DW$T$175)
    1293                      .dwattr $C$DW$156, DW_AT_location[DW_OP_reg12]
    1294                      .dwcfi  cfa_offset, -2
    1295                      .dwcfi  save_reg_to_mem, 26, 0
    1296                      .dwcfi  save_reg_to_reg, 78, 26
    1297                      .dwpsn  file "C:/ti/motorware/motorware_1_01_00_18/sw/modules/ctrl/src/32b/ctrl.c",line 522,column 3,
    1298 00000125 5203          CMPB      AL,#3                 ; [CPU_] |522| 
    1299 00000126 EC0A          BF        $C$L18,EQ             ; [CPU_] |522| 
    1300                      ; branchcc occurs ; [] |522| 
    1301                      .dwpsn  file "C:/ti/motorware/motorware_1_01_00_18/sw/modules/ctrl/src/32b/ctrl.c",line 527,column 8,
    1302 00000127 5202          CMPB      AL,#2                 ; [CPU_] |527| 
    1303 00000128 EC04          BF        $C$L17,EQ             ; [CPU_] |527| 
    1304                      ; branchcc occurs ; [] |527| 
    1305                      .dwpsn  file "C:/ti/motorware/motorware_1_01_00_18/sw/modules/ctrl/src/32b/ctrl.c",line 534,column 7,
    1306 00000129 BE00          MOVB      XAR6,#0               ; [CPU_] |534| 
    1307                      .dwpsn  file "C:/ti/motorware/motorware_1_01_00_18/sw/modules/ctrl/src/32b/ctrl.c",line 535,column 7,
    1308 0000012a 3100          MOV       P,#0                  ; [CPU_] |535| 
    1309 0000012b 6F0E          B         $C$L20,UNC            ; [CPU_] |535| 
    1310                      ; branch occurs ; [] |535| 
    1311 0000012c       $C$L17:    
    1312                      .dwpsn  file "C:/ti/motorware/motorware_1_01_00_18/sw/modules/ctrl/src/32b/ctrl.c",line 529,column 7,
    1313 0000012c 2BAB          MOV       PL,#0                 ; [CPU_] |529| 
    1314 0000012d 28AA          MOV       PH,#256               ; [CPU_] |529| 
         0000012e 0100 
    1315                      .dwpsn  file "C:/ti/motorware/motorware_1_01_00_18/sw/modules/ctrl/src/32b/ctrl.c",line 531,column 5,
    1316 0000012f 6F05          B         $C$L19,UNC            ; [CPU_] |531| 
    1317                      ; branch occurs ; [] |531| 
    1318 00000130       $C$L18:    
    1319                      .dwpsn  file "C:/ti/motorware/motorware_1_01_00_18/sw/modules/ctrl/src/32b/ctrl.c",line 524,column 7,
    1320 00000130 28AB          MOV       PL,#21845             ; [CPU_] |524| 
         00000131 5555 
    1321 00000132 28AA          MOV       PH,#85                ; [CPU_] |524| 
         00000133 0055 
TMS320C2000 Assembler PC v6.2.5 Tue Jun 27 16:56:14 2017

Tools Copyright (c) 1996-2014 Texas Instruments Incorporated
C:\Users\wmj\AppData\Local\Temp\1139610                              PAGE   26

    1322 00000134       $C$L19:    
    1323 00000134 A9A6          MOVL      XAR6,P                ; [CPU_] |524| 
    1324                      .dwpsn  file "C:/ti/motorware/motorware_1_01_00_18/sw/modules/ctrl/src/32b/ctrl.c",line 525,column 7,
    1325 00000135 28AB          MOV       PL,#52538             ; [CPU_] |525| 
         00000136 CD3A 
    1326 00000137 28AA          MOV       PH,#147               ; [CPU_] |525| 
         00000138 0093 
    1327 00000139       $C$L20:    
    1328                      .dwpsn  file "C:/ti/motorware/motorware_1_01_00_18/sw/modules/clarke/src/32b/clarke.h",line 182,colum
    1329 00000139 D008          MOVB      XAR0,#8               ; [CPU_] |182| 
    1330 0000013a 8394          MOVL      XAR5,*+XAR4[AR0]      ; [CPU_] |182| 
    1331                      .dwpsn  file "C:/ti/motorware/motorware_1_01_00_18/sw/modules/clarke/src/32b/clarke.h",line 170,colum
    1332 0000013b D008          MOVB      XAR0,#8               ; [CPU_] |170| 
    1333                      .dwpsn  file "C:/ti/motorware/motorware_1_01_00_18/sw/modules/clarke/src/32b/clarke.h",line 185,colum
    1334 0000013c C2C5          MOVL      *+XAR5[0],XAR6        ; [CPU_] |185| 
    1335                      .dwpsn  file "C:/ti/motorware/motorware_1_01_00_18/sw/modules/clarke/src/32b/clarke.h",line 186,colum
    1336 0000013d A9D5          MOVL      *+XAR5[2],P           ; [CPU_] |186| 
    1337                      .dwpsn  file "C:/ti/motorware/motorware_1_01_00_18/sw/modules/clarke/src/32b/clarke.h",line 170,colum
    1338 0000013e 8A94          MOVL      XAR4,*+XAR4[AR0]      ; [CPU_] |170| 
    1339 0000013f 96E4          MOV       *+XAR4[4],AL          ; [CPU_] |170| 
    1340              $C$DW$157       .dwtag  DW_TAG_TI_branch
    1341                      .dwattr $C$DW$157, DW_AT_low_pc(0x00)
    1342                      .dwattr $C$DW$157, DW_AT_TI_return
    1343 00000140 0006          LRETR     ; [CPU_] 
    1344                      ; return occurs ; [] 
    1345                      .dwattr $C$DW$149, DW_AT_TI_end_file("C:/ti/motorware/motorware_1_01_00_18/sw/modules/ctrl/src/32b/ct
    1346                      .dwattr $C$DW$149, DW_AT_TI_end_line(0x21f)
    1347                      .dwattr $C$DW$149, DW_AT_TI_end_column(0x01)
    1348                      .dwendentry
    1349                      .dwendtag $C$DW$149
    1350              
    1351 00000000               .sect   "ramfuncs"
    1352                      .clink
    1353                      .global _CTRL_setup
    1354              
    1355              $C$DW$158       .dwtag  DW_TAG_subprogram, DW_AT_name("CTRL_setup")
    1356                      .dwattr $C$DW$158, DW_AT_low_pc(_CTRL_setup)
    1357                      .dwattr $C$DW$158, DW_AT_high_pc(0x00)
    1358                      .dwattr $C$DW$158, DW_AT_TI_symbol_name("_CTRL_setup")
    1359                      .dwattr $C$DW$158, DW_AT_external
    1360                      .dwattr $C$DW$158, DW_AT_TI_begin_file("C:/ti/motorware/motorware_1_01_00_18/sw/modules/ctrl/src/32b/
    1361                      .dwattr $C$DW$158, DW_AT_TI_begin_line(0x1eb)
    1362                      .dwattr $C$DW$158, DW_AT_TI_begin_column(0x06)
    1363                      .dwattr $C$DW$158, DW_AT_TI_max_frame_size(-2)
    1364                      .dwpsn  file "C:/ti/motorware/motorware_1_01_00_18/sw/modules/ctrl/src/32b/ctrl.c",line 492,column 1,
    1365              
    1366                      .dwfde $C$DW$CIE, _CTRL_setup
    1367              $C$DW$159       .dwtag  DW_TAG_formal_parameter, DW_AT_name("handle")
    1368                      .dwattr $C$DW$159, DW_AT_TI_symbol_name("_handle")
    1369                      .dwattr $C$DW$159, DW_AT_type(*$C$DW$T$161)
    1370                      .dwattr $C$DW$159, DW_AT_location[DW_OP_reg12]
    1371              
    1372              ;***************************************************************
    1373              ;* FNAME: _CTRL_setup                   FR SIZE:   0           *
    1374              ;*                                                             *
TMS320C2000 Assembler PC v6.2.5 Tue Jun 27 16:56:14 2017

Tools Copyright (c) 1996-2014 Texas Instruments Incorporated
C:\Users\wmj\AppData\Local\Temp\1139610                              PAGE   27

    1375              ;* FUNCTION ENVIRONMENT                                        *
    1376              ;*                                                             *
    1377              ;* FUNCTION PROPERTIES                                         *
    1378              ;*                            0 Parameter,  0 Auto,  0 SOE     *
    1379              ;***************************************************************
    1380              
    1381              _CTRL_setup:
    1382              ;* AR4   assigned to _handle
    1383              $C$DW$160       .dwtag  DW_TAG_variable, DW_AT_name("handle")
    1384                      .dwattr $C$DW$160, DW_AT_TI_symbol_name("_handle")
    1385                      .dwattr $C$DW$160, DW_AT_type(*$C$DW$T$175)
    1386                      .dwattr $C$DW$160, DW_AT_location[DW_OP_reg12]
    1387                      .dwcfi  cfa_offset, -2
    1388                      .dwcfi  save_reg_to_mem, 26, 0
    1389                      .dwcfi  save_reg_to_reg, 78, 26
    1390                      .dwpsn  file "C:/ti/motorware/motorware_1_01_00_18/sw/modules/ctrl/src/32b/ctrl.c",line 500,column 3,
    1391 00000000 D09F          MOVB      XAR0,#159             ; [CPU_] |500| 
    1392 00000001 9294          MOV       AL,*+XAR4[AR0]        ; [CPU_] |500| 
    1393 00000002 D0EF          MOVB      XAR0,#239             ; [CPU_] |500| 
    1394 00000003 5494          CMP       AL,*+XAR4[AR0]        ; [CPU_] |500| 
    1395 00000004 6605          B         $C$L21,HI             ; [CPU_] |500| 
    1396                      ; branchcc occurs ; [] |500| 
    1397                      .dwpsn  file "C:/ti/motorware/motorware_1_01_00_18/sw/modules/ctrl/src/32b/ctrl.h",line 1123,column 3
    1398 00000005 D0EF          MOVB      XAR0,#239             ; [CPU_] |1123| 
    1399 00000006 2B94          MOV       *+XAR4[AR0],#0        ; [CPU_] |1123| 
    1400                      .dwpsn  file "C:/ti/motorware/motorware_1_01_00_18/sw/modules/ctrl/src/32b/ctrl.c",line 508,column 7,
    1401              $C$DW$161       .dwtag  DW_TAG_TI_branch
    1402                      .dwattr $C$DW$161, DW_AT_low_pc(0x00)
    1403                      .dwattr $C$DW$161, DW_AT_name("_CTRL_runTraj")
    1404                      .dwattr $C$DW$161, DW_AT_TI_call
    1405 00000007 7640!         LCR       #_CTRL_runTraj        ; [CPU_] |508| 
         00000008 0000 
    1406                      ; call occurs [#_CTRL_runTraj] ; [] |508| 
    1407              $C$L21:    
    1408              $C$DW$162       .dwtag  DW_TAG_TI_branch
    1409                      .dwattr $C$DW$162, DW_AT_low_pc(0x00)
    1410                      .dwattr $C$DW$162, DW_AT_TI_return
    1411 00000009 0006          LRETR     ; [CPU_] 
    1412                      ; return occurs ; [] 
    1413                      .dwattr $C$DW$158, DW_AT_TI_end_file("C:/ti/motorware/motorware_1_01_00_18/sw/modules/ctrl/src/32b/ct
    1414                      .dwattr $C$DW$158, DW_AT_TI_end_line(0x200)
    1415                      .dwattr $C$DW$158, DW_AT_TI_end_column(0x01)
    1416                      .dwendentry
    1417                      .dwendtag $C$DW$158
    1418              
    1419 00000141               .sect   ".text"
    1420                      .clink
    1421                      .global _CTRL_setWaitTimes
    1422              
    1423              $C$DW$163       .dwtag  DW_TAG_subprogram, DW_AT_name("CTRL_setWaitTimes")
    1424                      .dwattr $C$DW$163, DW_AT_low_pc(_CTRL_setWaitTimes)
    1425                      .dwattr $C$DW$163, DW_AT_high_pc(0x00)
    1426                      .dwattr $C$DW$163, DW_AT_TI_symbol_name("_CTRL_setWaitTimes")
    1427                      .dwattr $C$DW$163, DW_AT_external
    1428                      .dwattr $C$DW$163, DW_AT_TI_begin_file("C:/ti/motorware/motorware_1_01_00_18/sw/modules/ctrl/src/32b/
TMS320C2000 Assembler PC v6.2.5 Tue Jun 27 16:56:14 2017

Tools Copyright (c) 1996-2014 Texas Instruments Incorporated
C:\Users\wmj\AppData\Local\Temp\1139610                              PAGE   28

    1429                      .dwattr $C$DW$163, DW_AT_TI_begin_line(0x276)
    1430                      .dwattr $C$DW$163, DW_AT_TI_begin_column(0x06)
    1431                      .dwattr $C$DW$163, DW_AT_TI_max_frame_size(-2)
    1432                      .dwpsn  file "C:/ti/motorware/motorware_1_01_00_18/sw/modules/ctrl/src/32b/ctrl.c",line 631,column 1,
    1433              
    1434                      .dwfde $C$DW$CIE, _CTRL_setWaitTimes
    1435              $C$DW$164       .dwtag  DW_TAG_formal_parameter, DW_AT_name("handle")
    1436                      .dwattr $C$DW$164, DW_AT_TI_symbol_name("_handle")
    1437                      .dwattr $C$DW$164, DW_AT_type(*$C$DW$T$161)
    1438                      .dwattr $C$DW$164, DW_AT_location[DW_OP_reg12]
    1439              $C$DW$165       .dwtag  DW_TAG_formal_parameter, DW_AT_name("pWaitTimes")
    1440                      .dwattr $C$DW$165, DW_AT_TI_symbol_name("_pWaitTimes")
    1441                      .dwattr $C$DW$165, DW_AT_type(*$C$DW$T$282)
    1442                      .dwattr $C$DW$165, DW_AT_location[DW_OP_reg14]
    1443              
    1444              ;***************************************************************
    1445              ;* FNAME: _CTRL_setWaitTimes            FR SIZE:   0           *
    1446              ;*                                                             *
    1447              ;* FUNCTION ENVIRONMENT                                        *
    1448              ;*                                                             *
    1449              ;* FUNCTION PROPERTIES                                         *
    1450              ;*                            0 Parameter,  0 Auto,  0 SOE     *
    1451              ;***************************************************************
    1452              
    1453              _CTRL_setWaitTimes:
    1454              ;* AR4   assigned to _handle
    1455              $C$DW$166       .dwtag  DW_TAG_variable, DW_AT_name("handle")
    1456                      .dwattr $C$DW$166, DW_AT_TI_symbol_name("_handle")
    1457                      .dwattr $C$DW$166, DW_AT_type(*$C$DW$T$175)
    1458                      .dwattr $C$DW$166, DW_AT_location[DW_OP_reg12]
    1459              ;* AR5   assigned to _pWaitTimes
    1460              $C$DW$167       .dwtag  DW_TAG_variable, DW_AT_name("pWaitTimes")
    1461                      .dwattr $C$DW$167, DW_AT_TI_symbol_name("_pWaitTimes")
    1462                      .dwattr $C$DW$167, DW_AT_type(*$C$DW$T$324)
    1463                      .dwattr $C$DW$167, DW_AT_location[DW_OP_reg14]
    1464              ;* AR6   assigned to $O$L1
    1465              ;* AL    assigned to $O$K11
    1466              ;* AR4   assigned to $O$U12
    1467              ;* AR5   assigned to $O$U7
    1468                      .dwcfi  cfa_offset, -2
    1469                      .dwcfi  save_reg_to_mem, 26, 0
    1470                      .dwcfi  save_reg_to_reg, 78, 26
    1471 00000141 0292          MOVB      ACC,#146              ; [CPU_] 
    1472 00000142 BE03          MOVB      XAR6,#3               ; [CPU_] 
    1473 00000143 07A4          ADDL      ACC,XAR4              ; [CPU_] 
    1474 00000144 8AA9          MOVL      XAR4,ACC              ; [CPU_] 
    1475 00000145       $C$L22:    
    1476                      .dwpsn  file "C:/ti/motorware/motorware_1_01_00_18/sw/modules/ctrl/src/32b/ctrl.c",line 637,column 7,
    1477 00000145 0685          MOVL      ACC,*XAR5++           ; [CPU_] |637| 
    1478 00000146 1E84          MOVL      *XAR4++,ACC           ; [CPU_] |637| 
    1479                      .dwpsn  file "C:/ti/motorware/motorware_1_01_00_18/sw/modules/ctrl/src/32b/ctrl.c",line 635,column 18
    1480 00000147 000E          BANZ      $C$L22,AR6--          ; [CPU_] |635| 
         00000148 FFFE 
    1481                      ; branchcc occurs ; [] |635| 
    1482              $C$DW$168       .dwtag  DW_TAG_TI_branch
TMS320C2000 Assembler PC v6.2.5 Tue Jun 27 16:56:14 2017

Tools Copyright (c) 1996-2014 Texas Instruments Incorporated
C:\Users\wmj\AppData\Local\Temp\1139610                              PAGE   29

    1483                      .dwattr $C$DW$168, DW_AT_low_pc(0x00)
    1484                      .dwattr $C$DW$168, DW_AT_TI_return
    1485 00000149 0006          LRETR     ; [CPU_] 
    1486                      ; return occurs ; [] 
    1487                      .dwattr $C$DW$163, DW_AT_TI_end_file("C:/ti/motorware/motorware_1_01_00_18/sw/modules/ctrl/src/32b/ct
    1488                      .dwattr $C$DW$163, DW_AT_TI_end_line(0x281)
    1489                      .dwattr $C$DW$163, DW_AT_TI_end_column(0x01)
    1490                      .dwendentry
    1491                      .dwendtag $C$DW$163
    1492              
    1493 0000014a               .sect   ".text"
    1494                      .clink
    1495                      .global _CTRL_setSpd_ref_pu
    1496              
    1497              $C$DW$169       .dwtag  DW_TAG_subprogram, DW_AT_name("CTRL_setSpd_ref_pu")
    1498                      .dwattr $C$DW$169, DW_AT_low_pc(_CTRL_setSpd_ref_pu)
    1499                      .dwattr $C$DW$169, DW_AT_high_pc(0x00)
    1500                      .dwattr $C$DW$169, DW_AT_TI_symbol_name("_CTRL_setSpd_ref_pu")
    1501                      .dwattr $C$DW$169, DW_AT_external
    1502                      .dwattr $C$DW$169, DW_AT_TI_begin_file("C:/ti/motorware/motorware_1_01_00_18/sw/modules/ctrl/src/32b/
    1503                      .dwattr $C$DW$169, DW_AT_TI_begin_line(0x1d3)
    1504                      .dwattr $C$DW$169, DW_AT_TI_begin_column(0x06)
    1505                      .dwattr $C$DW$169, DW_AT_TI_max_frame_size(-2)
    1506                      .dwpsn  file "C:/ti/motorware/motorware_1_01_00_18/sw/modules/ctrl/src/32b/ctrl.c",line 468,column 1,
    1507              
    1508                      .dwfde $C$DW$CIE, _CTRL_setSpd_ref_pu
    1509              $C$DW$170       .dwtag  DW_TAG_formal_parameter, DW_AT_name("handle")
    1510                      .dwattr $C$DW$170, DW_AT_TI_symbol_name("_handle")
    1511                      .dwattr $C$DW$170, DW_AT_type(*$C$DW$T$161)
    1512                      .dwattr $C$DW$170, DW_AT_location[DW_OP_reg12]
    1513              $C$DW$171       .dwtag  DW_TAG_formal_parameter, DW_AT_name("spd_ref_pu")
    1514                      .dwattr $C$DW$171, DW_AT_TI_symbol_name("_spd_ref_pu")
    1515                      .dwattr $C$DW$171, DW_AT_type(*$C$DW$T$226)
    1516                      .dwattr $C$DW$171, DW_AT_location[DW_OP_reg0]
    1517              
    1518              ;***************************************************************
    1519              ;* FNAME: _CTRL_setSpd_ref_pu           FR SIZE:   0           *
    1520              ;*                                                             *
    1521              ;* FUNCTION ENVIRONMENT                                        *
    1522              ;*                                                             *
    1523              ;* FUNCTION PROPERTIES                                         *
    1524              ;*                            0 Parameter,  0 Auto,  0 SOE     *
    1525              ;***************************************************************
    1526              
    1527              _CTRL_setSpd_ref_pu:
    1528              ;* AR4   assigned to _handle
    1529              $C$DW$172       .dwtag  DW_TAG_variable, DW_AT_name("handle")
    1530                      .dwattr $C$DW$172, DW_AT_TI_symbol_name("_handle")
    1531                      .dwattr $C$DW$172, DW_AT_type(*$C$DW$T$175)
    1532                      .dwattr $C$DW$172, DW_AT_location[DW_OP_reg12]
    1533              ;* AL    assigned to _spd_ref_pu
    1534              $C$DW$173       .dwtag  DW_TAG_variable, DW_AT_name("spd_ref_pu")
    1535                      .dwattr $C$DW$173, DW_AT_TI_symbol_name("_spd_ref_pu")
    1536                      .dwattr $C$DW$173, DW_AT_type(*$C$DW$T$226)
    1537                      .dwattr $C$DW$173, DW_AT_location[DW_OP_reg0]
TMS320C2000 Assembler PC v6.2.5 Tue Jun 27 16:56:14 2017

Tools Copyright (c) 1996-2014 Texas Instruments Incorporated
C:\Users\wmj\AppData\Local\Temp\1139610                              PAGE   30

    1538                      .dwcfi  cfa_offset, -2
    1539                      .dwcfi  save_reg_to_mem, 26, 0
    1540                      .dwcfi  save_reg_to_reg, 78, 26
    1541                      .dwpsn  file "C:/ti/motorware/motorware_1_01_00_18/sw/modules/ctrl/src/32b/ctrl.c",line 471,column 3,
    1542 0000014a D0E8          MOVB      XAR0,#232             ; [CPU_] |471| 
    1543 0000014b 1E94          MOVL      *+XAR4[AR0],ACC       ; [CPU_] |471| 
    1544              $C$DW$174       .dwtag  DW_TAG_TI_branch
    1545                      .dwattr $C$DW$174, DW_AT_low_pc(0x00)
    1546                      .dwattr $C$DW$174, DW_AT_TI_return
    1547 0000014c 0006          LRETR     ; [CPU_] 
    1548                      ; return occurs ; [] 
    1549                      .dwattr $C$DW$169, DW_AT_TI_end_file("C:/ti/motorware/motorware_1_01_00_18/sw/modules/ctrl/src/32b/ct
    1550                      .dwattr $C$DW$169, DW_AT_TI_end_line(0x1da)
    1551                      .dwattr $C$DW$169, DW_AT_TI_end_column(0x01)
    1552                      .dwendentry
    1553                      .dwendtag $C$DW$169
    1554              
    1555 0000014d               .sect   ".text"
    1556                      .clink
    1557                      .global _CTRL_setSpd_ref_krpm
    1558              
    1559              $C$DW$175       .dwtag  DW_TAG_subprogram, DW_AT_name("CTRL_setSpd_ref_krpm")
    1560                      .dwattr $C$DW$175, DW_AT_low_pc(_CTRL_setSpd_ref_krpm)
    1561                      .dwattr $C$DW$175, DW_AT_high_pc(0x00)
    1562                      .dwattr $C$DW$175, DW_AT_TI_symbol_name("_CTRL_setSpd_ref_krpm")
    1563                      .dwattr $C$DW$175, DW_AT_external
    1564                      .dwattr $C$DW$175, DW_AT_TI_begin_file("C:/ti/motorware/motorware_1_01_00_18/sw/modules/ctrl/src/32b/
    1565                      .dwattr $C$DW$175, DW_AT_TI_begin_line(0x1dd)
    1566                      .dwattr $C$DW$175, DW_AT_TI_begin_column(0x06)
    1567                      .dwattr $C$DW$175, DW_AT_TI_max_frame_size(-6)
    1568                      .dwpsn  file "C:/ti/motorware/motorware_1_01_00_18/sw/modules/ctrl/src/32b/ctrl.c",line 478,column 1,
    1569              
    1570                      .dwfde $C$DW$CIE, _CTRL_setSpd_ref_krpm
    1571              $C$DW$176       .dwtag  DW_TAG_formal_parameter, DW_AT_name("handle")
    1572                      .dwattr $C$DW$176, DW_AT_TI_symbol_name("_handle")
    1573                      .dwattr $C$DW$176, DW_AT_type(*$C$DW$T$161)
    1574                      .dwattr $C$DW$176, DW_AT_location[DW_OP_reg12]
    1575              $C$DW$177       .dwtag  DW_TAG_formal_parameter, DW_AT_name("spd_ref_krpm")
    1576                      .dwattr $C$DW$177, DW_AT_TI_symbol_name("_spd_ref_krpm")
    1577                      .dwattr $C$DW$177, DW_AT_type(*$C$DW$T$226)
    1578                      .dwattr $C$DW$177, DW_AT_location[DW_OP_reg0]
    1579              
    1580              ;***************************************************************
    1581              ;* FNAME: _CTRL_setSpd_ref_krpm         FR SIZE:   4           *
    1582              ;*                                                             *
    1583              ;* FUNCTION ENVIRONMENT                                        *
    1584              ;*                                                             *
    1585              ;* FUNCTION PROPERTIES                                         *
    1586              ;*                            0 Parameter,  0 Auto,  4 SOE     *
    1587              ;***************************************************************
    1588              
    1589              _CTRL_setSpd_ref_krpm:
    1590              ;* AR2   assigned to _handle
    1591              $C$DW$178       .dwtag  DW_TAG_variable, DW_AT_name("handle")
    1592                      .dwattr $C$DW$178, DW_AT_TI_symbol_name("_handle")
TMS320C2000 Assembler PC v6.2.5 Tue Jun 27 16:56:14 2017

Tools Copyright (c) 1996-2014 Texas Instruments Incorporated
C:\Users\wmj\AppData\Local\Temp\1139610                              PAGE   31

    1593                      .dwattr $C$DW$178, DW_AT_type(*$C$DW$T$175)
    1594                      .dwattr $C$DW$178, DW_AT_location[DW_OP_reg8]
    1595              ;* XT    assigned to _spd_ref_krpm
    1596              $C$DW$179       .dwtag  DW_TAG_variable, DW_AT_name("spd_ref_krpm")
    1597                      .dwattr $C$DW$179, DW_AT_TI_symbol_name("_spd_ref_krpm")
    1598                      .dwattr $C$DW$179, DW_AT_type(*$C$DW$T$226)
    1599                      .dwattr $C$DW$179, DW_AT_location[DW_OP_reg21]
    1600              ;* AL    assigned to _krpm_to_pu_sf
    1601              $C$DW$180       .dwtag  DW_TAG_variable, DW_AT_name("krpm_to_pu_sf")
    1602                      .dwattr $C$DW$180, DW_AT_TI_symbol_name("_krpm_to_pu_sf")
    1603                      .dwattr $C$DW$180, DW_AT_type(*$C$DW$T$32)
    1604                      .dwattr $C$DW$180, DW_AT_location[DW_OP_reg0]
    1605                      .dwcfi  cfa_offset, -2
    1606                      .dwcfi  save_reg_to_mem, 26, 0
    1607                      .dwcfi  save_reg_to_reg, 78, 26
    1608 0000014d B2BD          MOVL      *SP++,XAR1            ; [CPU_] 
    1609                      .dwcfi  save_reg_to_mem, 7, 2
    1610                      .dwcfi  cfa_offset, -4
    1611                      .dwpsn  file "C:/ti/motorware/motorware_1_01_00_18/sw/modules/ctrl/src/32b/ctrl.c",line 481,column 21
    1612 0000014e D018          MOVB      XAR0,#24              ; [CPU_] |481| 
    1613                      .dwpsn  file "C:/ti/motorware/motorware_1_01_00_18/sw/modules/ctrl/src/32b/ctrl.c",line 478,column 1,
    1614 0000014f 8BA9          MOVL      XAR1,ACC              ; [CPU_] |478| 
    1615 00000150 AABD          MOVL      *SP++,XAR2            ; [CPU_] 
    1616                      .dwcfi  save_reg_to_mem, 9, 4
    1617                      .dwcfi  cfa_offset, -6
    1618 00000151 86A4          MOVL      XAR2,XAR4             ; [CPU_] |478| 
    1619                      .dwpsn  file "C:/ti/motorware/motorware_1_01_00_18/sw/modules/ctrl/src/32b/ctrl.c",line 481,column 21
    1620 00000152 8A92          MOVL      XAR4,*+XAR2[AR0]      ; [CPU_] |481| 
    1621              $C$DW$181       .dwtag  DW_TAG_TI_branch
    1622                      .dwattr $C$DW$181, DW_AT_low_pc(0x00)
    1623                      .dwattr $C$DW$181, DW_AT_name("_EST_get_krpm_to_pu_sf")
    1624                      .dwattr $C$DW$181, DW_AT_TI_call
    1625 00000153 7640!         LCR       #_EST_get_krpm_to_pu_sf ; [CPU_] |481| 
         00000154 0000 
    1626                      ; call occurs [#_EST_get_krpm_to_pu_sf] ; [] |481| 
    1627                      .dwpsn  file "C:/ti/motorware/motorware_1_01_00_18/sw/modules/ctrl/src/32b/ctrl.c",line 485,column 3,
    1628 00000155 D0E8          MOVB      XAR0,#232             ; [CPU_] |485| 
    1629                      .dwpsn  file "C:/ti/motorware/motorware_1_01_00_18/sw/modules/ctrl/src/32b/ctrl.c",line 481,column 21
    1630 00000156 B2AC          MOVL      XT,XAR1               ; [CPU_] |481| 
    1631                      .dwpsn  file "C:/ti/motorware/motorware_1_01_00_18/sw/modules/ctrl/src/32b/ctrl.c",line 485,column 3,
    1632 00000157 5605          IMPYL     P,XT,ACC              ; [CPU_] |485| 
         00000158 00A9 
    1633 00000159 5663          QMPYL     ACC,XT,ACC            ; [CPU_] |485| 
         0000015a 00A9 
    1634 0000015b 56A7          LSL64     ACC:P,#8              ; [CPU_] |485| 
    1635 0000015c 1E92          MOVL      *+XAR2[AR0],ACC       ; [CPU_] |485| 
    1636 0000015d 86BE          MOVL      XAR2,*--SP            ; [CPU_] 
    1637                      .dwcfi  cfa_offset, -4
    1638                      .dwcfi  restore_reg, 9
    1639 0000015e 8BBE          MOVL      XAR1,*--SP            ; [CPU_] 
    1640                      .dwcfi  cfa_offset, -2
    1641                      .dwcfi  restore_reg, 7
    1642              $C$DW$182       .dwtag  DW_TAG_TI_branch
    1643                      .dwattr $C$DW$182, DW_AT_low_pc(0x00)
    1644                      .dwattr $C$DW$182, DW_AT_TI_return
TMS320C2000 Assembler PC v6.2.5 Tue Jun 27 16:56:14 2017

Tools Copyright (c) 1996-2014 Texas Instruments Incorporated
C:\Users\wmj\AppData\Local\Temp\1139610                              PAGE   32

    1645 0000015f 0006          LRETR     ; [CPU_] 
    1646                      ; return occurs ; [] 
    1647                      .dwattr $C$DW$175, DW_AT_TI_end_file("C:/ti/motorware/motorware_1_01_00_18/sw/modules/ctrl/src/32b/ct
    1648                      .dwattr $C$DW$175, DW_AT_TI_end_line(0x1e8)
    1649                      .dwattr $C$DW$175, DW_AT_TI_end_column(0x01)
    1650                      .dwendentry
    1651                      .dwendtag $C$DW$175
    1652              
    1653 00000160               .sect   ".text"
    1654                      .clink
    1655                      .global _CTRL_setGains
    1656              
    1657              $C$DW$183       .dwtag  DW_TAG_subprogram, DW_AT_name("CTRL_setGains")
    1658                      .dwattr $C$DW$183, DW_AT_low_pc(_CTRL_setGains)
    1659                      .dwattr $C$DW$183, DW_AT_high_pc(0x00)
    1660                      .dwattr $C$DW$183, DW_AT_TI_symbol_name("_CTRL_setGains")
    1661                      .dwattr $C$DW$183, DW_AT_external
    1662                      .dwattr $C$DW$183, DW_AT_TI_begin_file("C:/ti/motorware/motorware_1_01_00_18/sw/modules/ctrl/src/32b/
    1663                      .dwattr $C$DW$183, DW_AT_TI_begin_line(0x106)
    1664                      .dwattr $C$DW$183, DW_AT_TI_begin_column(0x06)
    1665                      .dwattr $C$DW$183, DW_AT_TI_max_frame_size(-2)
    1666                      .dwpsn  file "C:/ti/motorware/motorware_1_01_00_18/sw/modules/ctrl/src/32b/ctrl.c",line 264,column 1,
    1667              
    1668                      .dwfde $C$DW$CIE, _CTRL_setGains
    1669              $C$DW$184       .dwtag  DW_TAG_formal_parameter, DW_AT_name("handle")
    1670                      .dwattr $C$DW$184, DW_AT_TI_symbol_name("_handle")
    1671                      .dwattr $C$DW$184, DW_AT_type(*$C$DW$T$161)
    1672                      .dwattr $C$DW$184, DW_AT_location[DW_OP_reg12]
    1673              $C$DW$185       .dwtag  DW_TAG_formal_parameter, DW_AT_name("ctrlType")
    1674                      .dwattr $C$DW$185, DW_AT_TI_symbol_name("_ctrlType")
    1675                      .dwattr $C$DW$185, DW_AT_type(*$C$DW$T$172)
    1676                      .dwattr $C$DW$185, DW_AT_location[DW_OP_reg14]
    1677              $C$DW$186       .dwtag  DW_TAG_formal_parameter, DW_AT_name("Kp")
    1678                      .dwattr $C$DW$186, DW_AT_TI_symbol_name("_Kp")
    1679                      .dwattr $C$DW$186, DW_AT_type(*$C$DW$T$226)
    1680                      .dwattr $C$DW$186, DW_AT_location[DW_OP_reg0]
    1681              $C$DW$187       .dwtag  DW_TAG_formal_parameter, DW_AT_name("Ki")
    1682                      .dwattr $C$DW$187, DW_AT_TI_symbol_name("_Ki")
    1683                      .dwattr $C$DW$187, DW_AT_type(*$C$DW$T$226)
    1684                      .dwattr $C$DW$187, DW_AT_location[DW_OP_breg20 -4]
    1685              $C$DW$188       .dwtag  DW_TAG_formal_parameter, DW_AT_name("Kd")
    1686                      .dwattr $C$DW$188, DW_AT_TI_symbol_name("_Kd")
    1687                      .dwattr $C$DW$188, DW_AT_type(*$C$DW$T$226)
    1688                      .dwattr $C$DW$188, DW_AT_location[DW_OP_breg20 -6]
    1689              
    1690              ;***************************************************************
    1691              ;* FNAME: _CTRL_setGains                FR SIZE:   0           *
    1692              ;*                                                             *
    1693              ;* FUNCTION ENVIRONMENT                                        *
    1694              ;*                                                             *
    1695              ;* FUNCTION PROPERTIES                                         *
    1696              ;*                            0 Parameter,  0 Auto,  0 SOE     *
    1697              ;***************************************************************
    1698              
    1699              _CTRL_setGains:
TMS320C2000 Assembler PC v6.2.5 Tue Jun 27 16:56:14 2017

Tools Copyright (c) 1996-2014 Texas Instruments Incorporated
C:\Users\wmj\AppData\Local\Temp\1139610                              PAGE   33

    1700              ;* AR7   assigned to _Kd
    1701              $C$DW$189       .dwtag  DW_TAG_variable, DW_AT_name("Kd")
    1702                      .dwattr $C$DW$189, DW_AT_TI_symbol_name("_Kd")
    1703                      .dwattr $C$DW$189, DW_AT_type(*$C$DW$T$226)
    1704                      .dwattr $C$DW$189, DW_AT_location[DW_OP_reg18]
    1705              ;* PL    assigned to _Ki
    1706              $C$DW$190       .dwtag  DW_TAG_variable, DW_AT_name("Ki")
    1707                      .dwattr $C$DW$190, DW_AT_TI_symbol_name("_Ki")
    1708                      .dwattr $C$DW$190, DW_AT_type(*$C$DW$T$226)
    1709                      .dwattr $C$DW$190, DW_AT_location[DW_OP_reg2]
    1710              ;* AR6   assigned to _Kp
    1711              $C$DW$191       .dwtag  DW_TAG_variable, DW_AT_name("Kp")
    1712                      .dwattr $C$DW$191, DW_AT_TI_symbol_name("_Kp")
    1713                      .dwattr $C$DW$191, DW_AT_type(*$C$DW$T$226)
    1714                      .dwattr $C$DW$191, DW_AT_location[DW_OP_reg16]
    1715              ;* AL    assigned to _ctrlType
    1716              $C$DW$192       .dwtag  DW_TAG_variable, DW_AT_name("ctrlType")
    1717                      .dwattr $C$DW$192, DW_AT_TI_symbol_name("_ctrlType")
    1718                      .dwattr $C$DW$192, DW_AT_type(*$C$DW$T$172)
    1719                      .dwattr $C$DW$192, DW_AT_location[DW_OP_reg0]
    1720              ;* AR4   assigned to _handle
    1721              $C$DW$193       .dwtag  DW_TAG_variable, DW_AT_name("handle")
    1722                      .dwattr $C$DW$193, DW_AT_TI_symbol_name("_handle")
    1723                      .dwattr $C$DW$193, DW_AT_type(*$C$DW$T$175)
    1724                      .dwattr $C$DW$193, DW_AT_location[DW_OP_reg12]
    1725                      .dwcfi  cfa_offset, -2
    1726                      .dwcfi  save_reg_to_mem, 26, 0
    1727                      .dwcfi  save_reg_to_reg, 78, 26
    1728 00000160 1EA6          MOVL      XAR6,ACC              ; [CPU_] |264| 
    1729 00000161 92A5          MOV       AL,AR5                ; [CPU_] |264| 
    1730 00000162 C546          MOVL      XAR7,*-SP[6]          ; [CPU_] |264| 
    1731 00000163 A344          MOVL      P,*-SP[4]             ; [CPU_] |264| 
    1732                      .dwpsn  file "C:/ti/motorware/motorware_1_01_00_18/sw/modules/ctrl/src/32b/ctrl.h",line 1503,column 3
    1733 00000164 EC09          BF        $C$L24,EQ             ; [CPU_] |1503| 
    1734                      ; branchcc occurs ; [] |1503| 
    1735                      .dwpsn  file "C:/ti/motorware/motorware_1_01_00_18/sw/modules/ctrl/src/32b/ctrl.h",line 1507,column 8
    1736 00000165 5201          CMPB      AL,#1                 ; [CPU_] |1507| 
    1737 00000166 EC05          BF        $C$L23,EQ             ; [CPU_] |1507| 
    1738                      ; branchcc occurs ; [] |1507| 
    1739                      .dwpsn  file "C:/ti/motorware/motorware_1_01_00_18/sw/modules/ctrl/src/32b/ctrl.h",line 1511,column 8
    1740 00000167 5202          CMPB      AL,#2                 ; [CPU_] |1511| 
    1741 00000168 ED07          BF        $C$L26,NEQ            ; [CPU_] |1511| 
    1742                      ; branchcc occurs ; [] |1511| 
    1743                      .dwpsn  file "C:/ti/motorware/motorware_1_01_00_18/sw/modules/ctrl/src/32b/ctrl.h",line 1513,column 7
    1744 00000169 D0CC          MOVB      XAR0,#204             ; [CPU_] |1513| 
    1745 0000016a 6F04          B         $C$L25,UNC            ; [CPU_] |1513| 
    1746                      ; branch occurs ; [] |1513| 
    1747 0000016b       $C$L23:    
    1748                      .dwpsn  file "C:/ti/motorware/motorware_1_01_00_18/sw/modules/ctrl/src/32b/ctrl.h",line 1509,column 7
    1749 0000016b D0CA          MOVB      XAR0,#202             ; [CPU_] |1509| 
    1750                      .dwpsn  file "C:/ti/motorware/motorware_1_01_00_18/sw/modules/ctrl/src/32b/ctrl.h",line 1510,column 5
    1751 0000016c 6F02          B         $C$L25,UNC            ; [CPU_] |1510| 
    1752                      ; branch occurs ; [] |1510| 
    1753 0000016d       $C$L24:    
    1754                      .dwpsn  file "C:/ti/motorware/motorware_1_01_00_18/sw/modules/ctrl/src/32b/ctrl.h",line 1505,column 7
TMS320C2000 Assembler PC v6.2.5 Tue Jun 27 16:56:14 2017

Tools Copyright (c) 1996-2014 Texas Instruments Incorporated
C:\Users\wmj\AppData\Local\Temp\1139610                              PAGE   34

    1755 0000016d D0CE          MOVB      XAR0,#206             ; [CPU_] |1505| 
    1756 0000016e       $C$L25:    
    1757 0000016e C294          MOVL      *+XAR4[AR0],XAR6      ; [CPU_] |1505| 
    1758 0000016f       $C$L26:    
    1759                      .dwpsn  file "C:/ti/motorware/motorware_1_01_00_18/sw/modules/ctrl/src/32b/ctrl.h",line 1478,column 3
    1760 0000016f 5200          CMPB      AL,#0                 ; [CPU_] |1478| 
    1761 00000170 EC09          BF        $C$L28,EQ             ; [CPU_] |1478| 
    1762                      ; branchcc occurs ; [] |1478| 
    1763                      .dwpsn  file "C:/ti/motorware/motorware_1_01_00_18/sw/modules/ctrl/src/32b/ctrl.h",line 1482,column 8
    1764 00000171 5201          CMPB      AL,#1                 ; [CPU_] |1482| 
    1765 00000172 EC05          BF        $C$L27,EQ             ; [CPU_] |1482| 
    1766                      ; branchcc occurs ; [] |1482| 
    1767                      .dwpsn  file "C:/ti/motorware/motorware_1_01_00_18/sw/modules/ctrl/src/32b/ctrl.h",line 1486,column 8
    1768 00000173 5202          CMPB      AL,#2                 ; [CPU_] |1486| 
    1769 00000174 ED07          BF        $C$L30,NEQ            ; [CPU_] |1486| 
    1770                      ; branchcc occurs ; [] |1486| 
    1771                      .dwpsn  file "C:/ti/motorware/motorware_1_01_00_18/sw/modules/ctrl/src/32b/ctrl.h",line 1488,column 7
    1772 00000175 D0D2          MOVB      XAR0,#210             ; [CPU_] |1488| 
    1773 00000176 6F04          B         $C$L29,UNC            ; [CPU_] |1488| 
    1774                      ; branch occurs ; [] |1488| 
    1775 00000177       $C$L27:    
    1776                      .dwpsn  file "C:/ti/motorware/motorware_1_01_00_18/sw/modules/ctrl/src/32b/ctrl.h",line 1484,column 7
    1777 00000177 D0D0          MOVB      XAR0,#208             ; [CPU_] |1484| 
    1778                      .dwpsn  file "C:/ti/motorware/motorware_1_01_00_18/sw/modules/ctrl/src/32b/ctrl.h",line 1485,column 5
    1779 00000178 6F02          B         $C$L29,UNC            ; [CPU_] |1485| 
    1780                      ; branch occurs ; [] |1485| 
    1781 00000179       $C$L28:    
    1782                      .dwpsn  file "C:/ti/motorware/motorware_1_01_00_18/sw/modules/ctrl/src/32b/ctrl.h",line 1480,column 7
    1783 00000179 D0D4          MOVB      XAR0,#212             ; [CPU_] |1480| 
    1784 0000017a       $C$L29:    
    1785 0000017a A994          MOVL      *+XAR4[AR0],P         ; [CPU_] |1480| 
    1786 0000017b       $C$L30:    
    1787                      .dwpsn  file "C:/ti/motorware/motorware_1_01_00_18/sw/modules/ctrl/src/32b/ctrl.h",line 1453,column 3
    1788 0000017b 5200          CMPB      AL,#0                 ; [CPU_] |1453| 
    1789 0000017c EC09          BF        $C$L32,EQ             ; [CPU_] |1453| 
    1790                      ; branchcc occurs ; [] |1453| 
    1791                      .dwpsn  file "C:/ti/motorware/motorware_1_01_00_18/sw/modules/ctrl/src/32b/ctrl.h",line 1457,column 8
    1792 0000017d 5201          CMPB      AL,#1                 ; [CPU_] |1457| 
    1793 0000017e EC05          BF        $C$L31,EQ             ; [CPU_] |1457| 
    1794                      ; branchcc occurs ; [] |1457| 
    1795                      .dwpsn  file "C:/ti/motorware/motorware_1_01_00_18/sw/modules/ctrl/src/32b/ctrl.h",line 1461,column 8
    1796 0000017f 5202          CMPB      AL,#2                 ; [CPU_] |1461| 
    1797 00000180 ED07          BF        $C$L34,NEQ            ; [CPU_] |1461| 
    1798                      ; branchcc occurs ; [] |1461| 
    1799                      .dwpsn  file "C:/ti/motorware/motorware_1_01_00_18/sw/modules/ctrl/src/32b/ctrl.h",line 1463,column 7
    1800 00000181 D0D8          MOVB      XAR0,#216             ; [CPU_] |1463| 
    1801 00000182 6F04          B         $C$L33,UNC            ; [CPU_] |1463| 
    1802                      ; branch occurs ; [] |1463| 
    1803 00000183       $C$L31:    
    1804                      .dwpsn  file "C:/ti/motorware/motorware_1_01_00_18/sw/modules/ctrl/src/32b/ctrl.h",line 1459,column 7
    1805 00000183 D0D6          MOVB      XAR0,#214             ; [CPU_] |1459| 
    1806                      .dwpsn  file "C:/ti/motorware/motorware_1_01_00_18/sw/modules/ctrl/src/32b/ctrl.h",line 1460,column 5
    1807 00000184 6F02          B         $C$L33,UNC            ; [CPU_] |1460| 
    1808                      ; branch occurs ; [] |1460| 
    1809 00000185       $C$L32:    
TMS320C2000 Assembler PC v6.2.5 Tue Jun 27 16:56:14 2017

Tools Copyright (c) 1996-2014 Texas Instruments Incorporated
C:\Users\wmj\AppData\Local\Temp\1139610                              PAGE   35

    1810                      .dwpsn  file "C:/ti/motorware/motorware_1_01_00_18/sw/modules/ctrl/src/32b/ctrl.h",line 1455,column 7
    1811 00000185 D0DA          MOVB      XAR0,#218             ; [CPU_] |1455| 
    1812 00000186       $C$L33:    
    1813 00000186 C394          MOVL      *+XAR4[AR0],XAR7      ; [CPU_] |1455| 
    1814              $C$L34:    
    1815              $C$DW$194       .dwtag  DW_TAG_TI_branch
    1816                      .dwattr $C$DW$194, DW_AT_low_pc(0x00)
    1817                      .dwattr $C$DW$194, DW_AT_TI_return
    1818 00000187 0006          LRETR     ; [CPU_] 
    1819                      ; return occurs ; [] 
    1820                      .dwattr $C$DW$183, DW_AT_TI_end_file("C:/ti/motorware/motorware_1_01_00_18/sw/modules/ctrl/src/32b/ct
    1821                      .dwattr $C$DW$183, DW_AT_TI_end_line(0x10f)
    1822                      .dwattr $C$DW$183, DW_AT_TI_end_column(0x01)
    1823                      .dwendentry
    1824                      .dwendtag $C$DW$183
    1825              
    1826 00000188               .sect   ".text"
    1827                      .clink
    1828                      .global _CTRL_setParams
    1829              
    1830              $C$DW$195       .dwtag  DW_TAG_subprogram, DW_AT_name("CTRL_setParams")
    1831                      .dwattr $C$DW$195, DW_AT_low_pc(_CTRL_setParams)
    1832                      .dwattr $C$DW$195, DW_AT_high_pc(0x00)
    1833                      .dwattr $C$DW$195, DW_AT_TI_symbol_name("_CTRL_setParams")
    1834                      .dwattr $C$DW$195, DW_AT_external
    1835                      .dwattr $C$DW$195, DW_AT_TI_begin_file("C:/ti/motorware/motorware_1_01_00_18/sw/modules/ctrl/src/32b/
    1836                      .dwattr $C$DW$195, DW_AT_TI_begin_line(0x124)
    1837                      .dwattr $C$DW$195, DW_AT_TI_begin_column(0x06)
    1838                      .dwattr $C$DW$195, DW_AT_TI_max_frame_size(-50)
    1839                      .dwpsn  file "C:/ti/motorware/motorware_1_01_00_18/sw/modules/ctrl/src/32b/ctrl.c",line 293,column 1,
    1840              
    1841                      .dwfde $C$DW$CIE, _CTRL_setParams
    1842              $C$DW$196       .dwtag  DW_TAG_formal_parameter, DW_AT_name("handle")
    1843                      .dwattr $C$DW$196, DW_AT_TI_symbol_name("_handle")
    1844                      .dwattr $C$DW$196, DW_AT_type(*$C$DW$T$161)
    1845                      .dwattr $C$DW$196, DW_AT_location[DW_OP_reg12]
    1846              $C$DW$197       .dwtag  DW_TAG_formal_parameter, DW_AT_name("pUserParams")
    1847                      .dwattr $C$DW$197, DW_AT_TI_symbol_name("_pUserParams")
    1848                      .dwattr $C$DW$197, DW_AT_type(*$C$DW$T$219)
    1849                      .dwattr $C$DW$197, DW_AT_location[DW_OP_reg14]
    1850              
    1851              ;***************************************************************
    1852              ;* FNAME: _CTRL_setParams               FR SIZE:  48           *
    1853              ;*                                                             *
    1854              ;* FUNCTION ENVIRONMENT                                        *
    1855              ;*                                                             *
    1856              ;* FUNCTION PROPERTIES                                         *
    1857              ;*                            4 Parameter, 38 Auto,  6 SOE     *
    1858              ;***************************************************************
    1859              
    1860              _CTRL_setParams:
    1861              ;* AR3   assigned to $O$C1
    1862              ;* AR2   assigned to $O$C2
    1863              ;* AR4   assigned to $O$C4
    1864              ;* AR4   assigned to $O$C5
TMS320C2000 Assembler PC v6.2.5 Tue Jun 27 16:56:14 2017

Tools Copyright (c) 1996-2014 Texas Instruments Incorporated
C:\Users\wmj\AppData\Local\Temp\1139610                              PAGE   36

    1865              ;* AR4   assigned to $O$C6
    1866              ;* AR4   assigned to $O$C7
    1867              ;* AR4   assigned to $O$C8
    1868              ;* AR4   assigned to $O$C9
    1869              ;* AH    assigned to _numPolePairs
    1870              $C$DW$198       .dwtag  DW_TAG_variable, DW_AT_name("numPolePairs")
    1871                      .dwattr $C$DW$198, DW_AT_TI_symbol_name("_numPolePairs")
    1872                      .dwattr $C$DW$198, DW_AT_type(*$C$DW$T$67)
    1873                      .dwattr $C$DW$198, DW_AT_location[DW_OP_reg1]
    1874              ;* AR2   assigned to _ratedFlux
    1875              $C$DW$199       .dwtag  DW_TAG_variable, DW_AT_name("ratedFlux")
    1876                      .dwattr $C$DW$199, DW_AT_TI_symbol_name("_ratedFlux")
    1877                      .dwattr $C$DW$199, DW_AT_type(*$C$DW$T$68)
    1878                      .dwattr $C$DW$199, DW_AT_location[DW_OP_reg8]
    1879              ;* XT    assigned to _Ls_d
    1880              $C$DW$200       .dwtag  DW_TAG_variable, DW_AT_name("Ls_d")
    1881                      .dwattr $C$DW$200, DW_AT_TI_symbol_name("_Ls_d")
    1882                      .dwattr $C$DW$200, DW_AT_type(*$C$DW$T$68)
    1883                      .dwattr $C$DW$200, DW_AT_location[DW_OP_reg21]
    1884              ;* AR4   assigned to _Ls_q
    1885              $C$DW$201       .dwtag  DW_TAG_variable, DW_AT_name("Ls_q")
    1886                      .dwattr $C$DW$201, DW_AT_TI_symbol_name("_Ls_q")
    1887                      .dwattr $C$DW$201, DW_AT_type(*$C$DW$T$68)
    1888                      .dwattr $C$DW$201, DW_AT_location[DW_OP_reg12]
    1889              ;* PL    assigned to _Rr
    1890              $C$DW$202       .dwtag  DW_TAG_variable, DW_AT_name("Rr")
    1891                      .dwattr $C$DW$202, DW_AT_TI_symbol_name("_Rr")
    1892                      .dwattr $C$DW$202, DW_AT_type(*$C$DW$T$68)
    1893                      .dwattr $C$DW$202, DW_AT_location[DW_OP_reg2]
    1894              ;* AR6   assigned to _Rs
    1895              $C$DW$203       .dwtag  DW_TAG_variable, DW_AT_name("Rs")
    1896                      .dwattr $C$DW$203, DW_AT_TI_symbol_name("_Rs")
    1897                      .dwattr $C$DW$203, DW_AT_type(*$C$DW$T$68)
    1898                      .dwattr $C$DW$203, DW_AT_location[DW_OP_reg16]
    1899              ;* AR7   assigned to _Ki
    1900              $C$DW$204       .dwtag  DW_TAG_variable, DW_AT_name("Ki")
    1901                      .dwattr $C$DW$204, DW_AT_TI_symbol_name("_Ki")
    1902                      .dwattr $C$DW$204, DW_AT_type(*$C$DW$T$32)
    1903                      .dwattr $C$DW$204, DW_AT_location[DW_OP_reg18]
    1904              ;* AR4   assigned to _obj
    1905              $C$DW$205       .dwtag  DW_TAG_variable, DW_AT_name("obj")
    1906                      .dwattr $C$DW$205, DW_AT_TI_symbol_name("_obj")
    1907                      .dwattr $C$DW$205, DW_AT_type(*$C$DW$T$217)
    1908                      .dwattr $C$DW$205, DW_AT_location[DW_OP_reg12]
    1909              ;* AR4   assigned to _obj
    1910              $C$DW$206       .dwtag  DW_TAG_variable, DW_AT_name("obj")
    1911                      .dwattr $C$DW$206, DW_AT_TI_symbol_name("_obj")
    1912                      .dwattr $C$DW$206, DW_AT_type(*$C$DW$T$217)
    1913                      .dwattr $C$DW$206, DW_AT_location[DW_OP_reg12]
    1914              ;* AR7   assigned to _Ki
    1915              $C$DW$207       .dwtag  DW_TAG_variable, DW_AT_name("Ki")
    1916                      .dwattr $C$DW$207, DW_AT_TI_symbol_name("_Ki")
    1917                      .dwattr $C$DW$207, DW_AT_type(*$C$DW$T$32)
    1918                      .dwattr $C$DW$207, DW_AT_location[DW_OP_reg18]
    1919              ;* AR4   assigned to _obj
TMS320C2000 Assembler PC v6.2.5 Tue Jun 27 16:56:14 2017

Tools Copyright (c) 1996-2014 Texas Instruments Incorporated
C:\Users\wmj\AppData\Local\Temp\1139610                              PAGE   37

    1920              $C$DW$208       .dwtag  DW_TAG_variable, DW_AT_name("obj")
    1921                      .dwattr $C$DW$208, DW_AT_TI_symbol_name("_obj")
    1922                      .dwattr $C$DW$208, DW_AT_type(*$C$DW$T$217)
    1923                      .dwattr $C$DW$208, DW_AT_location[DW_OP_reg12]
    1924              ;* AR4   assigned to _obj
    1925              $C$DW$209       .dwtag  DW_TAG_variable, DW_AT_name("obj")
    1926                      .dwattr $C$DW$209, DW_AT_TI_symbol_name("_obj")
    1927                      .dwattr $C$DW$209, DW_AT_type(*$C$DW$T$217)
    1928                      .dwattr $C$DW$209, DW_AT_location[DW_OP_reg12]
    1929              ;* AR7   assigned to _Ki
    1930              $C$DW$210       .dwtag  DW_TAG_variable, DW_AT_name("Ki")
    1931                      .dwattr $C$DW$210, DW_AT_TI_symbol_name("_Ki")
    1932                      .dwattr $C$DW$210, DW_AT_type(*$C$DW$T$32)
    1933                      .dwattr $C$DW$210, DW_AT_location[DW_OP_reg18]
    1934              ;* AR4   assigned to _obj
    1935              $C$DW$211       .dwtag  DW_TAG_variable, DW_AT_name("obj")
    1936                      .dwattr $C$DW$211, DW_AT_TI_symbol_name("_obj")
    1937                      .dwattr $C$DW$211, DW_AT_type(*$C$DW$T$217)
    1938                      .dwattr $C$DW$211, DW_AT_location[DW_OP_reg12]
    1939              ;* AR4   assigned to _obj
    1940              $C$DW$212       .dwtag  DW_TAG_variable, DW_AT_name("obj")
    1941                      .dwattr $C$DW$212, DW_AT_TI_symbol_name("_obj")
    1942                      .dwattr $C$DW$212, DW_AT_type(*$C$DW$T$217)
    1943                      .dwattr $C$DW$212, DW_AT_location[DW_OP_reg12]
    1944              ;* AR7   assigned to _Ki
    1945              $C$DW$213       .dwtag  DW_TAG_variable, DW_AT_name("Ki")
    1946                      .dwattr $C$DW$213, DW_AT_TI_symbol_name("_Ki")
    1947                      .dwattr $C$DW$213, DW_AT_type(*$C$DW$T$32)
    1948                      .dwattr $C$DW$213, DW_AT_location[DW_OP_reg18]
    1949              $C$DW$214       .dwtag  DW_TAG_variable, DW_AT_name("Kp")
    1950                      .dwattr $C$DW$214, DW_AT_TI_symbol_name("_Kp")
    1951                      .dwattr $C$DW$214, DW_AT_type(*$C$DW$T$32)
    1952                      .dwattr $C$DW$214, DW_AT_location[DW_OP_breg20 -40]
    1953              $C$DW$215       .dwtag  DW_TAG_variable, DW_AT_name("pUserParams")
    1954                      .dwattr $C$DW$215, DW_AT_TI_symbol_name("_pUserParams")
    1955                      .dwattr $C$DW$215, DW_AT_type(*$C$DW$T$220)
    1956                      .dwattr $C$DW$215, DW_AT_location[DW_OP_breg20 -42]
    1957              ;* AR1   assigned to _handle
    1958              $C$DW$216       .dwtag  DW_TAG_variable, DW_AT_name("handle")
    1959                      .dwattr $C$DW$216, DW_AT_TI_symbol_name("_handle")
    1960                      .dwattr $C$DW$216, DW_AT_type(*$C$DW$T$175)
    1961                      .dwattr $C$DW$216, DW_AT_location[DW_OP_reg6]
    1962              $C$DW$217       .dwtag  DW_TAG_variable, DW_AT_name("Iab_out_pu")
    1963                      .dwattr $C$DW$217, DW_AT_TI_symbol_name("_Iab_out_pu")
    1964                      .dwattr $C$DW$217, DW_AT_type(*$C$DW$T$69)
    1965                      .dwattr $C$DW$217, DW_AT_location[DW_OP_breg20 -8]
    1966              $C$DW$218       .dwtag  DW_TAG_variable, DW_AT_name("Idq_out_pu")
    1967                      .dwattr $C$DW$218, DW_AT_TI_symbol_name("_Idq_out_pu")
    1968                      .dwattr $C$DW$218, DW_AT_type(*$C$DW$T$69)
    1969                      .dwattr $C$DW$218, DW_AT_location[DW_OP_breg20 -12]
    1970              $C$DW$219       .dwtag  DW_TAG_variable, DW_AT_name("Idq_ref_pu")
    1971                      .dwattr $C$DW$219, DW_AT_TI_symbol_name("_Idq_ref_pu")
    1972                      .dwattr $C$DW$219, DW_AT_type(*$C$DW$T$69)
    1973                      .dwattr $C$DW$219, DW_AT_location[DW_OP_breg20 -16]
    1974              $C$DW$220       .dwtag  DW_TAG_variable, DW_AT_name("Vab_in_pu")
TMS320C2000 Assembler PC v6.2.5 Tue Jun 27 16:56:14 2017

Tools Copyright (c) 1996-2014 Texas Instruments Incorporated
C:\Users\wmj\AppData\Local\Temp\1139610                              PAGE   38

    1975                      .dwattr $C$DW$220, DW_AT_TI_symbol_name("_Vab_in_pu")
    1976                      .dwattr $C$DW$220, DW_AT_type(*$C$DW$T$69)
    1977                      .dwattr $C$DW$220, DW_AT_location[DW_OP_breg20 -20]
    1978              $C$DW$221       .dwtag  DW_TAG_variable, DW_AT_name("Vab_out_pu")
    1979                      .dwattr $C$DW$221, DW_AT_TI_symbol_name("_Vab_out_pu")
    1980                      .dwattr $C$DW$221, DW_AT_type(*$C$DW$T$69)
    1981                      .dwattr $C$DW$221, DW_AT_location[DW_OP_breg20 -24]
    1982              $C$DW$222       .dwtag  DW_TAG_variable, DW_AT_name("Vdq_out_pu")
    1983                      .dwattr $C$DW$222, DW_AT_TI_symbol_name("_Vdq_out_pu")
    1984                      .dwattr $C$DW$222, DW_AT_type(*$C$DW$T$69)
    1985                      .dwattr $C$DW$222, DW_AT_location[DW_OP_breg20 -28]
    1986                      .dwcfi  cfa_offset, -2
    1987                      .dwcfi  save_reg_to_mem, 26, 0
    1988                      .dwcfi  save_reg_to_reg, 78, 26
    1989 00000188 B2BD          MOVL      *SP++,XAR1            ; [CPU_] 
    1990                      .dwcfi  save_reg_to_mem, 7, 2
    1991                      .dwcfi  cfa_offset, -4
    1992 00000189 AABD          MOVL      *SP++,XAR2            ; [CPU_] 
    1993                      .dwcfi  save_reg_to_mem, 9, 4
    1994                      .dwcfi  cfa_offset, -6
    1995 0000018a A2BD          MOVL      *SP++,XAR3            ; [CPU_] 
    1996                      .dwcfi  save_reg_to_mem, 11, 6
    1997                      .dwcfi  cfa_offset, -8
    1998 0000018b FE2A          ADDB      SP,#42                ; [CPU_U] 
    1999                      .dwcfi  cfa_offset, -50
    2000 0000018c 761F+         MOVW      DP,#_$P$T0$1          ; [CPU_U] 
         0000018d 0000 
    2001                      .dwpsn  file "C:/ti/motorware/motorware_1_01_00_18/sw/modules/ctrl/src/32b/ctrl.c",line 300,column 13
    2002 0000018e 0614+         MOVL      ACC,@_$P$T0$1         ; [CPU_] |300| 
    2003 0000018f 761F+         MOVW      DP,#_$P$T0$1+2        ; [CPU_U] 
         00000190 0000 
    2004 00000191 C416+         MOVL      XAR6,@_$P$T0$1+2      ; [CPU_] |300| 
    2005 00000192 1E48          MOVL      *-SP[8],ACC           ; [CPU_] |300| 
    2006 00000193 761F+         MOVW      DP,#_$P$T1$2          ; [CPU_U] 
         00000194 0000 
    2007                      .dwpsn  file "C:/ti/motorware/motorware_1_01_00_18/sw/modules/ctrl/src/32b/ctrl.c",line 301,column 13
    2008 00000195 060C+         MOVL      ACC,@_$P$T1$2         ; [CPU_] |301| 
    2009                      .dwpsn  file "C:/ti/motorware/motorware_1_01_00_18/sw/modules/ctrl/src/32b/ctrl.h",line 1592,column 3
    2010 00000196 C5A5          MOVL      XAR7,XAR5             ; [CPU_] |1592| 
    2011 00000197 761F+         MOVW      DP,#_$P$T1$2+2        ; [CPU_U] 
         00000198 0000 
    2012                      .dwpsn  file "C:/ti/motorware/motorware_1_01_00_18/sw/modules/ctrl/src/32b/ctrl.c",line 300,column 13
    2013 00000199 C246          MOVL      *-SP[6],XAR6          ; [CPU_] |300| 
    2014                      .dwpsn  file "C:/ti/motorware/motorware_1_01_00_18/sw/modules/ctrl/src/32b/ctrl.c",line 301,column 13
    2015 0000019a 1E4C          MOVL      *-SP[12],ACC          ; [CPU_] |301| 
    2016 0000019b C40E+         MOVL      XAR6,@_$P$T1$2+2      ; [CPU_] |301| 
    2017 0000019c 761F+         MOVW      DP,#_$P$T2$3          ; [CPU_U] 
         0000019d 0000 
    2018                      .dwpsn  file "C:/ti/motorware/motorware_1_01_00_18/sw/modules/ctrl/src/32b/ctrl.c",line 302,column 13
    2019 0000019e 0610+         MOVL      ACC,@_$P$T2$3         ; [CPU_] |302| 
    2020 0000019f 761F+         MOVW      DP,#_$P$T2$3+2        ; [CPU_U] 
         000001a0 0000 
    2021                      .dwpsn  file "C:/ti/motorware/motorware_1_01_00_18/sw/modules/ctrl/src/32b/ctrl.c",line 301,column 13
    2022 000001a1 C24A          MOVL      *-SP[10],XAR6         ; [CPU_] |301| 
    2023                      .dwpsn  file "C:/ti/motorware/motorware_1_01_00_18/sw/modules/ctrl/src/32b/ctrl.c",line 302,column 13
TMS320C2000 Assembler PC v6.2.5 Tue Jun 27 16:56:14 2017

Tools Copyright (c) 1996-2014 Texas Instruments Incorporated
C:\Users\wmj\AppData\Local\Temp\1139610                              PAGE   39

    2024 000001a2 1E50          MOVL      *-SP[16],ACC          ; [CPU_] |302| 
    2025 000001a3 C412+         MOVL      XAR6,@_$P$T2$3+2      ; [CPU_] |302| 
    2026 000001a4 761F+         MOVW      DP,#_$P$T3$4          ; [CPU_U] 
         000001a5 0000 
    2027                      .dwpsn  file "C:/ti/motorware/motorware_1_01_00_18/sw/modules/ctrl/src/32b/ctrl.c",line 303,column 13
    2028 000001a6 0608+         MOVL      ACC,@_$P$T3$4         ; [CPU_] |303| 
    2029 000001a7 761F+         MOVW      DP,#_$P$T3$4+2        ; [CPU_U] 
         000001a8 0000 
    2030                      .dwpsn  file "C:/ti/motorware/motorware_1_01_00_18/sw/modules/ctrl/src/32b/ctrl.c",line 302,column 13
    2031 000001a9 C24E          MOVL      *-SP[14],XAR6         ; [CPU_] |302| 
    2032                      .dwpsn  file "C:/ti/motorware/motorware_1_01_00_18/sw/modules/ctrl/src/32b/ctrl.c",line 303,column 13
    2033 000001aa 1E54          MOVL      *-SP[20],ACC          ; [CPU_] |303| 
    2034 000001ab C40A+         MOVL      XAR6,@_$P$T3$4+2      ; [CPU_] |303| 
    2035 000001ac 761F+         MOVW      DP,#_$P$T4$5          ; [CPU_U] 
         000001ad 0000 
    2036                      .dwpsn  file "C:/ti/motorware/motorware_1_01_00_18/sw/modules/ctrl/src/32b/ctrl.c",line 304,column 13
    2037 000001ae 0600+         MOVL      ACC,@_$P$T4$5         ; [CPU_] |304| 
    2038 000001af 761F+         MOVW      DP,#_$P$T4$5+2        ; [CPU_U] 
         000001b0 0000 
    2039                      .dwpsn  file "C:/ti/motorware/motorware_1_01_00_18/sw/modules/ctrl/src/32b/ctrl.c",line 303,column 13
    2040 000001b1 C252          MOVL      *-SP[18],XAR6         ; [CPU_] |303| 
    2041                      .dwpsn  file "C:/ti/motorware/motorware_1_01_00_18/sw/modules/ctrl/src/32b/ctrl.c",line 304,column 13
    2042 000001b2 1E58          MOVL      *-SP[24],ACC          ; [CPU_] |304| 
    2043 000001b3 C402+         MOVL      XAR6,@_$P$T4$5+2      ; [CPU_] |304| 
    2044 000001b4 761F+         MOVW      DP,#_$P$T5$6          ; [CPU_U] 
         000001b5 0000 
    2045                      .dwpsn  file "C:/ti/motorware/motorware_1_01_00_18/sw/modules/ctrl/src/32b/ctrl.c",line 305,column 13
    2046 000001b6 0604+         MOVL      ACC,@_$P$T5$6         ; [CPU_] |305| 
    2047 000001b7 761F+         MOVW      DP,#_$P$T5$6+2        ; [CPU_U] 
         000001b8 0000 
    2048                      .dwpsn  file "C:/ti/motorware/motorware_1_01_00_18/sw/modules/ctrl/src/32b/ctrl.c",line 304,column 13
    2049 000001b9 C256          MOVL      *-SP[22],XAR6         ; [CPU_] |304| 
    2050                      .dwpsn  file "C:/ti/motorware/motorware_1_01_00_18/sw/modules/ctrl/src/32b/ctrl.c",line 305,column 13
    2051 000001ba 1E5C          MOVL      *-SP[28],ACC          ; [CPU_] |305| 
    2052 000001bb C406+         MOVL      XAR6,@_$P$T5$6+2      ; [CPU_] |305| 
    2053                      .dwpsn  file "C:/ti/motorware/motorware_1_01_00_18/sw/modules/ctrl/src/32b/ctrl.c",line 309,column 3,
    2054 000001bc D035          MOVB      XAR0,#53              ; [CPU_] |309| 
    2055                      .dwpsn  file "C:/ti/motorware/motorware_1_01_00_18/sw/modules/ctrl/src/32b/ctrl.c",line 293,column 1,
    2056 000001bd A06A          MOVL      *-SP[42],XAR5         ; [CPU_] |293| 
    2057                      .dwpsn  file "C:/ti/motorware/motorware_1_01_00_18/sw/modules/ctrl/src/32b/ctrl.h",line 1592,column 3
    2058 000001be DF34          ADDB      XAR7,#52              ; [CPU_] |1592| 
    2059                      .dwpsn  file "C:/ti/motorware/motorware_1_01_00_18/sw/modules/ctrl/src/32b/ctrl.c",line 305,column 13
    2060 000001bf C25A          MOVL      *-SP[26],XAR6         ; [CPU_] |305| 
    2061                      .dwpsn  file "C:/ti/motorware/motorware_1_01_00_18/sw/modules/ctrl/src/32b/ctrl.c",line 309,column 3,
    2062 000001c0 9395          MOV       AH,*+XAR5[AR0]        ; [CPU_] |309| 
    2063                      .dwpsn  file "C:/ti/motorware/motorware_1_01_00_18/sw/modules/ctrl/src/32b/ctrl.h",line 1592,column 3
    2064 000001c1 92C7          MOV       AL,*XAR7              ; [CPU_] |1592| 
    2065                      .dwpsn  file "C:/ti/motorware/motorware_1_01_00_18/sw/modules/ctrl/src/32b/ctrl.c",line 309,column 3,
    2066 000001c2 D036          MOVB      XAR0,#54              ; [CPU_] |309| 
    2067                      .dwpsn  file "C:/ti/motorware/motorware_1_01_00_18/sw/modules/ctrl/src/32b/ctrl.h",line 1634,column 3
    2068 000001c3 C5A5          MOVL      XAR7,XAR5             ; [CPU_] |1634| 
    2069                      .dwpsn  file "C:/ti/motorware/motorware_1_01_00_18/sw/modules/ctrl/src/32b/ctrl.c",line 293,column 1,
    2070 000001c4 8BA4          MOVL      XAR1,XAR4             ; [CPU_] |293| 
    2071                      .dwpsn  file "C:/ti/motorware/motorware_1_01_00_18/sw/modules/ctrl/src/32b/ctrl.c",line 309,column 3,
    2072 000001c5 8695          MOVL      XAR2,*+XAR5[AR0]      ; [CPU_] |309| 
TMS320C2000 Assembler PC v6.2.5 Tue Jun 27 16:56:14 2017

Tools Copyright (c) 1996-2014 Texas Instruments Incorporated
C:\Users\wmj\AppData\Local\Temp\1139610                              PAGE   40

    2073 000001c6 D03C          MOVB      XAR0,#60              ; [CPU_] |309| 
    2074                      .dwpsn  file "C:/ti/motorware/motorware_1_01_00_18/sw/modules/ctrl/src/32b/ctrl.h",line 1634,column 3
    2075 000001c7 DF09          ADDB      XAR7,#9               ; [CPU_] |1634| 
    2076                      .dwpsn  file "C:/ti/motorware/motorware_1_01_00_18/sw/modules/ctrl/src/32b/ctrl.c",line 309,column 3,
    2077 000001c8 8795          MOVL      XT,*+XAR5[AR0]        ; [CPU_] |309| 
    2078 000001c9 D03E          MOVB      XAR0,#62              ; [CPU_] |309| 
    2079 000001ca 8A95          MOVL      XAR4,*+XAR5[AR0]      ; [CPU_] |309| 
    2080 000001cb D038          MOVB      XAR0,#56              ; [CPU_] |309| 
    2081 000001cc A395          MOVL      P,*+XAR5[AR0]         ; [CPU_] |309| 
    2082 000001cd D03A          MOVB      XAR0,#58              ; [CPU_] |309| 
    2083 000001ce C495          MOVL      XAR6,*+XAR5[AR0]      ; [CPU_] |309| 
    2084                      .dwpsn  file "C:/ti/motorware/motorware_1_01_00_18/sw/modules/ctrl/src/32b/ctrl.h",line 1592,column 3
    2085 000001cf D084          MOVB      XAR0,#132             ; [CPU_] |1592| 
    2086 000001d0 9691          MOV       *+XAR1[AR0],AL        ; [CPU_] |1592| 
    2087                      .dwpsn  file "C:/ti/motorware/motorware_1_01_00_18/sw/modules/ctrl/src/32b/ctrl.h",line 1593,column 3
    2088 000001d1 D085          MOVB      XAR0,#133             ; [CPU_] |1593| 
    2089 000001d2 9791          MOV       *+XAR1[AR0],AH        ; [CPU_] |1593| 
    2090                      .dwpsn  file "C:/ti/motorware/motorware_1_01_00_18/sw/modules/ctrl/src/32b/ctrl.h",line 1594,column 3
    2091 000001d3 D090          MOVB      XAR0,#144             ; [CPU_] |1594| 
    2092 000001d4 AA91          MOVL      *+XAR1[AR0],XAR2      ; [CPU_] |1594| 
    2093                      .dwpsn  file "C:/ti/motorware/motorware_1_01_00_18/sw/modules/ctrl/src/32b/ctrl.h",line 1595,column 3
    2094 000001d5 D088          MOVB      XAR0,#136             ; [CPU_] |1595| 
    2095 000001d6 AB91          MOVL      *+XAR1[AR0],XT        ; [CPU_] |1595| 
    2096                      .dwpsn  file "C:/ti/motorware/motorware_1_01_00_18/sw/modules/ctrl/src/32b/ctrl.h",line 1596,column 3
    2097 000001d7 D08A          MOVB      XAR0,#138             ; [CPU_] |1596| 
    2098 000001d8 A891          MOVL      *+XAR1[AR0],XAR4      ; [CPU_] |1596| 
    2099                      .dwpsn  file "C:/ti/motorware/motorware_1_01_00_18/sw/modules/ctrl/src/32b/ctrl.h",line 1597,column 3
    2100 000001d9 D08C          MOVB      XAR0,#140             ; [CPU_] |1597| 
    2101 000001da A991          MOVL      *+XAR1[AR0],P         ; [CPU_] |1597| 
    2102                      .dwpsn  file "C:/ti/motorware/motorware_1_01_00_18/sw/modules/ctrl/src/32b/ctrl.h",line 1598,column 3
    2103 000001db D08E          MOVB      XAR0,#142             ; [CPU_] |1598| 
    2104 000001dc C291          MOVL      *+XAR1[AR0],XAR6      ; [CPU_] |1598| 
    2105                      .dwpsn  file "C:/ti/motorware/motorware_1_01_00_18/sw/modules/ctrl/src/32b/ctrl.h",line 1662,column 3
    2106 000001dd D09C          MOVB      XAR0,#156             ; [CPU_] |1662| 
    2107 000001de 92F5          MOV       AL,*+XAR5[6]          ; [CPU_] |1662| 
    2108 000001df 9691          MOV       *+XAR1[AR0],AL        ; [CPU_] |1662| 
    2109                      .dwpsn  file "C:/ti/motorware/motorware_1_01_00_18/sw/modules/ctrl/src/32b/ctrl.h",line 1620,column 3
    2110 000001e0 D09D          MOVB      XAR0,#157             ; [CPU_] |1620| 
    2111 000001e1 92FD          MOV       AL,*+XAR5[7]          ; [CPU_] |1620| 
    2112 000001e2 9691          MOV       *+XAR1[AR0],AL        ; [CPU_] |1620| 
    2113                      .dwpsn  file "C:/ti/motorware/motorware_1_01_00_18/sw/modules/ctrl/src/32b/ctrl.h",line 1634,column 3
    2114 000001e3 92C7          MOV       AL,*XAR7              ; [CPU_] |1634| 
    2115                      .dwpsn  file "C:/ti/motorware/motorware_1_01_00_18/sw/modules/ctrl/src/32b/ctrl.h",line 1648,column 3
    2116 000001e4 C5A5          MOVL      XAR7,XAR5             ; [CPU_] |1648| 
    2117                      .dwpsn  file "C:/ti/motorware/motorware_1_01_00_18/sw/modules/ctrl/src/32b/ctrl.h",line 1634,column 3
    2118 000001e5 D09E          MOVB      XAR0,#158             ; [CPU_] |1634| 
    2119                      .dwpsn  file "C:/ti/motorware/motorware_1_01_00_18/sw/modules/ctrl/src/32b/ctrl.h",line 1648,column 3
    2120 000001e6 86A5          MOVL      XAR2,XAR5             ; [CPU_] |1648| 
    2121 000001e7 DF0A          ADDB      XAR7,#10              ; [CPU_] |1648| 
    2122                      .dwpsn  file "C:/ti/motorware/motorware_1_01_00_18/sw/modules/ctrl/src/32b/ctrl.h",line 1634,column 3
    2123 000001e8 9691          MOV       *+XAR1[AR0],AL        ; [CPU_] |1634| 
    2124                      .dwpsn  file "C:/ti/motorware/motorware_1_01_00_18/sw/modules/ctrl/src/32b/ctrl.h",line 1648,column 3
    2125 000001e9 D09F          MOVB      XAR0,#159             ; [CPU_] |1648| 
    2126 000001ea 92C7          MOV       AL,*XAR7              ; [CPU_] |1648| 
    2127 000001eb 9691          MOV       *+XAR1[AR0],AL        ; [CPU_] |1648| 
TMS320C2000 Assembler PC v6.2.5 Tue Jun 27 16:56:14 2017

Tools Copyright (c) 1996-2014 Texas Instruments Incorporated
C:\Users\wmj\AppData\Local\Temp\1139610                              PAGE   41

    2128                      .dwpsn  file "C:/ti/motorware/motorware_1_01_00_18/sw/modules/ctrl/src/32b/ctrl.h",line 1167,column 3
    2129 000001ec D09E          MOVB      XAR0,#158             ; [CPU_] |1167| 
    2130 000001ed 0692          MOVL      ACC,*+XAR2[AR0]       ; [CPU_] |1167| 
    2131 000001ee D0A0          MOVB      XAR0,#160             ; [CPU_] |1167| 
    2132 000001ef 1E91          MOVL      *+XAR1[AR0],ACC       ; [CPU_] |1167| 
    2133                      .dwpsn  file "C:/ti/motorware/motorware_1_01_00_18/sw/modules/ctrl/src/32b/ctrl.h",line 1792,column 3
    2134 000001f0 D0A4          MOVB      XAR0,#164             ; [CPU_] |1792| 
    2135 000001f1 0692          MOVL      ACC,*+XAR2[AR0]       ; [CPU_] |1792| 
    2136 000001f2 D0A2          MOVB      XAR0,#162             ; [CPU_] |1792| 
    2137 000001f3 1E91          MOVL      *+XAR1[AR0],ACC       ; [CPU_] |1792| 
    2138                      .dwpsn  file "C:/ti/motorware/motorware_1_01_00_18/sw/modules/ctrl/src/32b/ctrl.h",line 1805,column 3
    2139 000001f4 D0A4          MOVB      XAR0,#164             ; [CPU_] |1805| 
    2140 000001f5 0692          MOVL      ACC,*+XAR2[AR0]       ; [CPU_] |1805| 
    2141              $C$DW$223       .dwtag  DW_TAG_TI_branch
    2142                      .dwattr $C$DW$223, DW_AT_low_pc(0x00)
    2143                      .dwattr $C$DW$223, DW_AT_name("UL$$TOFS")
    2144                      .dwattr $C$DW$223, DW_AT_TI_call
    2145 000001f6 7640!         LCR       #UL$$TOFS             ; [CPU_] |1805| 
         000001f7 0000 
    2146                      ; call occurs [#UL$$TOFS] ; [] |1805| 
    2147 000001f8 1E42          MOVL      *-SP[2],ACC           ; [CPU_] |1805| 
    2148 000001f9 FF2F          MOV       ACC,#32512 << 15      ; [CPU_] |1805| 
         000001fa 7F00 
    2149              $C$DW$224       .dwtag  DW_TAG_TI_branch
    2150                      .dwattr $C$DW$224, DW_AT_low_pc(0x00)
    2151                      .dwattr $C$DW$224, DW_AT_name("FS$$DIV")
    2152                      .dwattr $C$DW$224, DW_AT_TI_call
    2153 000001fb 7640!         LCR       #FS$$DIV              ; [CPU_] |1805| 
         000001fc 0000 
    2154                      ; call occurs [#FS$$DIV] ; [] |1805| 
    2155 000001fd 88AD          MOVZ      AR6,SP                ; [CPU_U] |1805| 
    2156 000001fe DEA4          SUBB      XAR6,#36              ; [CPU_U] |1805| 
    2157              $C$DW$225       .dwtag  DW_TAG_TI_branch
    2158                      .dwattr $C$DW$225, DW_AT_low_pc(0x00)
    2159                      .dwattr $C$DW$225, DW_AT_name("FS$$TOFD")
    2160                      .dwattr $C$DW$225, DW_AT_TI_call
    2161 000001ff 7640!         LCR       #FS$$TOFD             ; [CPU_] |1805| 
         00000200 0000 
    2162                      ; call occurs [#FS$$TOFD] ; [] |1805| 
    2163 00000201 5CAD          MOVZ      AR4,SP                ; [CPU_U] |1805| 
    2164 00000202 88AD          MOVZ      AR6,SP                ; [CPU_U] |1805| 
    2165 00000203 8F40+         MOVL      XAR5,#$C$FL1          ; [CPU_U] |1805| 
         00000204 0018 
    2166 00000205 DCA4          SUBB      XAR4,#36              ; [CPU_U] |1805| 
    2167 00000206 DEA0          SUBB      XAR6,#32              ; [CPU_U] |1805| 
    2168              $C$DW$226       .dwtag  DW_TAG_TI_branch
    2169                      .dwattr $C$DW$226, DW_AT_low_pc(0x00)
    2170                      .dwattr $C$DW$226, DW_AT_name("FD$$MPY")
    2171                      .dwattr $C$DW$226, DW_AT_TI_call
    2172 00000207 7640!         LCR       #FD$$MPY              ; [CPU_] |1805| 
         00000208 0000 
    2173                      ; call occurs [#FD$$MPY] ; [] |1805| 
    2174 00000209 5CAD          MOVZ      AR4,SP                ; [CPU_U] |1805| 
    2175 0000020a DCA0          SUBB      XAR4,#32              ; [CPU_U] |1805| 
    2176              $C$DW$227       .dwtag  DW_TAG_TI_branch
TMS320C2000 Assembler PC v6.2.5 Tue Jun 27 16:56:14 2017

Tools Copyright (c) 1996-2014 Texas Instruments Incorporated
C:\Users\wmj\AppData\Local\Temp\1139610                              PAGE   42

    2177                      .dwattr $C$DW$227, DW_AT_low_pc(0x00)
    2178                      .dwattr $C$DW$227, DW_AT_name("FD$$TOL")
    2179                      .dwattr $C$DW$227, DW_AT_TI_call
    2180 0000020b 7640!         LCR       #FD$$TOL              ; [CPU_] |1805| 
         0000020c 0000 
    2181                      ; call occurs [#FD$$TOL] ; [] |1805| 
    2182 0000020d D0A4          MOVB      XAR0,#164             ; [CPU_] |1805| 
    2183                      .dwpsn  file "C:/ti/motorware/motorware_1_01_00_18/sw/modules/ctrl/src/32b/ctrl.h",line 1546,column 3
    2184 0000020e 88AD          MOVZ      AR6,SP                ; [CPU_U] |1546| 
    2185                      .dwpsn  file "C:/ti/motorware/motorware_1_01_00_18/sw/modules/ctrl/src/32b/ctrl.h",line 1805,column 3
    2186 0000020f 1E91          MOVL      *+XAR1[AR0],ACC       ; [CPU_] |1805| 
    2187                      .dwpsn  file "C:/ti/motorware/motorware_1_01_00_18/sw/modules/ctrl/src/32b/ctrl.h",line 1546,column 3
    2188 00000210 DEA4          SUBB      XAR6,#36              ; [CPU_U] |1546| 
    2189                      .dwpsn  file "C:/ti/motorware/motorware_1_01_00_18/sw/modules/ctrl/src/32b/ctrl.h",line 1180,column 3
    2190 00000211 D0A6          MOVB      XAR0,#166             ; [CPU_] |1180| 
    2191 00000212 0692          MOVL      ACC,*+XAR2[AR0]       ; [CPU_] |1180| 
    2192 00000213 D0A6          MOVB      XAR0,#166             ; [CPU_] |1180| 
    2193 00000214 1E91          MOVL      *+XAR1[AR0],ACC       ; [CPU_] |1180| 
    2194                      .dwpsn  file "C:/ti/motorware/motorware_1_01_00_18/sw/modules/ctrl/src/32b/ctrl.h",line 1546,column 3
    2195 00000215 D030          MOVB      XAR0,#48              ; [CPU_] |1546| 
    2196 00000216 0692          MOVL      ACC,*+XAR2[AR0]       ; [CPU_] |1546| 
    2197              $C$DW$228       .dwtag  DW_TAG_TI_branch
    2198                      .dwattr $C$DW$228, DW_AT_low_pc(0x00)
    2199                      .dwattr $C$DW$228, DW_AT_name("FS$$TOFD")
    2200                      .dwattr $C$DW$228, DW_AT_TI_call
    2201 00000217 7640!         LCR       #FS$$TOFD             ; [CPU_] |1546| 
         00000218 0000 
    2202                      ; call occurs [#FS$$TOFD] ; [] |1546| 
    2203 00000219 5CAD          MOVZ      AR4,SP                ; [CPU_U] |1546| 
    2204 0000021a 88AD          MOVZ      AR6,SP                ; [CPU_U] |1546| 
    2205 0000021b 8F40+         MOVL      XAR5,#$C$FL1          ; [CPU_U] |1546| 
         0000021c 0018 
    2206 0000021d DCA4          SUBB      XAR4,#36              ; [CPU_U] |1546| 
    2207 0000021e DEA0          SUBB      XAR6,#32              ; [CPU_U] |1546| 
    2208              $C$DW$229       .dwtag  DW_TAG_TI_branch
    2209                      .dwattr $C$DW$229, DW_AT_low_pc(0x00)
    2210                      .dwattr $C$DW$229, DW_AT_name("FD$$MPY")
    2211                      .dwattr $C$DW$229, DW_AT_TI_call
    2212 0000021f 7640!         LCR       #FD$$MPY              ; [CPU_] |1546| 
         00000220 0000 
    2213                      ; call occurs [#FD$$MPY] ; [] |1546| 
    2214 00000221 5CAD          MOVZ      AR4,SP                ; [CPU_U] |1546| 
    2215 00000222 DCA0          SUBB      XAR4,#32              ; [CPU_U] |1546| 
    2216              $C$DW$230       .dwtag  DW_TAG_TI_branch
    2217                      .dwattr $C$DW$230, DW_AT_low_pc(0x00)
    2218                      .dwattr $C$DW$230, DW_AT_name("FD$$TOL")
    2219                      .dwattr $C$DW$230, DW_AT_TI_call
    2220 00000223 7640!         LCR       #FD$$TOL              ; [CPU_] |1546| 
         00000224 0000 
    2221                      ; call occurs [#FD$$TOL] ; [] |1546| 
    2222 00000225 D0A8          MOVB      XAR0,#168             ; [CPU_] |1546| 
    2223 00000226 1E91          MOVL      *+XAR1[AR0],ACC       ; [CPU_] |1546| 
    2224                      .dwpsn  file "C:/ti/motorware/motorware_1_01_00_18/sw/modules/ctrl/src/32b/ctrl.h",line 1327,column 3
    2225 00000227 02AA          MOVB      ACC,#170              ; [CPU_] |1327| 
    2226 00000228 07A1          ADDL      ACC,XAR1              ; [CPU_] |1327| 
TMS320C2000 Assembler PC v6.2.5 Tue Jun 27 16:56:14 2017

Tools Copyright (c) 1996-2014 Texas Instruments Incorporated
C:\Users\wmj\AppData\Local\Temp\1139610                              PAGE   43

    2227                      .dwpsn  file "C:/ti/motorware/motorware_1_01_00_18/sw/modules/ctrl/src/32b/ctrl.h",line 1402,column 3
    2228 00000229 D04A          MOVB      XAR0,#74              ; [CPU_] |1402| 
    2229                      .dwpsn  file "C:/ti/motorware/motorware_1_01_00_18/sw/modules/ctrl/src/32b/ctrl.h",line 1327,column 3
    2230 0000022a 8AA9          MOVL      XAR4,ACC              ; [CPU_] |1327| 
    2231 0000022b 0648          MOVL      ACC,*-SP[8]           ; [CPU_] |1327| 
    2232 0000022c 1EC4          MOVL      *+XAR4[0],ACC         ; [CPU_] |1327| 
    2233                      .dwpsn  file "C:/ti/motorware/motorware_1_01_00_18/sw/modules/ctrl/src/32b/ctrl.h",line 1328,column 3
    2234 0000022d 0646          MOVL      ACC,*-SP[6]           ; [CPU_] |1328| 
    2235 0000022e 1ED4          MOVL      *+XAR4[2],ACC         ; [CPU_] |1328| 
    2236                      .dwpsn  file "C:/ti/motorware/motorware_1_01_00_18/sw/modules/ctrl/src/32b/ctrl.h",line 1360,column 3
    2237 0000022f 02B2          MOVB      ACC,#178              ; [CPU_] |1360| 
    2238 00000230 07A1          ADDL      ACC,XAR1              ; [CPU_] |1360| 
    2239 00000231 8AA9          MOVL      XAR4,ACC              ; [CPU_] |1360| 
    2240 00000232 064C          MOVL      ACC,*-SP[12]          ; [CPU_] |1360| 
    2241 00000233 1EC4          MOVL      *+XAR4[0],ACC         ; [CPU_] |1360| 
    2242                      .dwpsn  file "C:/ti/motorware/motorware_1_01_00_18/sw/modules/ctrl/src/32b/ctrl.h",line 1361,column 3
    2243 00000234 064A          MOVL      ACC,*-SP[10]          ; [CPU_] |1361| 
    2244 00000235 1ED4          MOVL      *+XAR4[2],ACC         ; [CPU_] |1361| 
    2245                      .dwpsn  file "C:/ti/motorware/motorware_1_01_00_18/sw/modules/ctrl/src/32b/ctrl.h",line 1388,column 3
    2246 00000236 02E2          MOVB      ACC,#226              ; [CPU_] |1388| 
    2247 00000237 07A1          ADDL      ACC,XAR1              ; [CPU_] |1388| 
    2248 00000238 8AA9          MOVL      XAR4,ACC              ; [CPU_] |1388| 
    2249 00000239 0650          MOVL      ACC,*-SP[16]          ; [CPU_] |1388| 
    2250 0000023a 1EC4          MOVL      *+XAR4[0],ACC         ; [CPU_] |1388| 
    2251                      .dwpsn  file "C:/ti/motorware/motorware_1_01_00_18/sw/modules/ctrl/src/32b/ctrl.h",line 1389,column 3
    2252 0000023b 064E          MOVL      ACC,*-SP[14]          ; [CPU_] |1389| 
    2253 0000023c 1ED4          MOVL      *+XAR4[2],ACC         ; [CPU_] |1389| 
    2254                      .dwpsn  file "C:/ti/motorware/motorware_1_01_00_18/sw/modules/ctrl/src/32b/ctrl.h",line 1402,column 3
    2255 0000023d 06C2          MOVL      ACC,*+XAR2[0]         ; [CPU_] |1402| 
    2256 0000023e 1E42          MOVL      *-SP[2],ACC           ; [CPU_] |1402| 
    2257 0000023f 0692          MOVL      ACC,*+XAR2[AR0]       ; [CPU_] |1402| 
    2258              $C$DW$231       .dwtag  DW_TAG_TI_branch
    2259                      .dwattr $C$DW$231, DW_AT_low_pc(0x00)
    2260                      .dwattr $C$DW$231, DW_AT_name("FS$$DIV")
    2261                      .dwattr $C$DW$231, DW_AT_TI_call
    2262 00000240 7640!         LCR       #FS$$DIV              ; [CPU_] |1402| 
         00000241 0000 
    2263                      ; call occurs [#FS$$DIV] ; [] |1402| 
    2264 00000242 88AD          MOVZ      AR6,SP                ; [CPU_U] |1402| 
    2265 00000243 DEA4          SUBB      XAR6,#36              ; [CPU_U] |1402| 
    2266              $C$DW$232       .dwtag  DW_TAG_TI_branch
    2267                      .dwattr $C$DW$232, DW_AT_low_pc(0x00)
    2268                      .dwattr $C$DW$232, DW_AT_name("FS$$TOFD")
    2269                      .dwattr $C$DW$232, DW_AT_TI_call
    2270 00000244 7640!         LCR       #FS$$TOFD             ; [CPU_] |1402| 
         00000245 0000 
    2271                      ; call occurs [#FS$$TOFD] ; [] |1402| 
    2272 00000246 5CAD          MOVZ      AR4,SP                ; [CPU_U] |1402| 
    2273 00000247 88AD          MOVZ      AR6,SP                ; [CPU_U] |1402| 
    2274 00000248 8F40+         MOVL      XAR5,#$C$FL1          ; [CPU_U] |1402| 
         00000249 0018 
    2275 0000024a DCA4          SUBB      XAR4,#36              ; [CPU_U] |1402| 
    2276 0000024b DEA0          SUBB      XAR6,#32              ; [CPU_U] |1402| 
    2277              $C$DW$233       .dwtag  DW_TAG_TI_branch
    2278                      .dwattr $C$DW$233, DW_AT_low_pc(0x00)
TMS320C2000 Assembler PC v6.2.5 Tue Jun 27 16:56:14 2017

Tools Copyright (c) 1996-2014 Texas Instruments Incorporated
C:\Users\wmj\AppData\Local\Temp\1139610                              PAGE   44

    2279                      .dwattr $C$DW$233, DW_AT_name("FD$$MPY")
    2280                      .dwattr $C$DW$233, DW_AT_TI_call
    2281 0000024c 7640!         LCR       #FD$$MPY              ; [CPU_] |1402| 
         0000024d 0000 
    2282                      ; call occurs [#FD$$MPY] ; [] |1402| 
    2283 0000024e 5CAD          MOVZ      AR4,SP                ; [CPU_U] |1402| 
    2284 0000024f DCA0          SUBB      XAR4,#32              ; [CPU_U] |1402| 
    2285              $C$DW$234       .dwtag  DW_TAG_TI_branch
    2286                      .dwattr $C$DW$234, DW_AT_low_pc(0x00)
    2287                      .dwattr $C$DW$234, DW_AT_name("FD$$TOL")
    2288                      .dwattr $C$DW$234, DW_AT_TI_call
    2289 00000250 7640!         LCR       #FD$$TOL              ; [CPU_] |1402| 
         00000251 0000 
    2290                      ; call occurs [#FD$$TOL] ; [] |1402| 
    2291 00000252 D0E6          MOVB      XAR0,#230             ; [CPU_] |1402| 
    2292 00000253 1E91          MOVL      *+XAR1[AR0],ACC       ; [CPU_] |1402| 
    2293                      .dwpsn  file "C:/ti/motorware/motorware_1_01_00_18/sw/modules/ctrl/src/32b/ctrl.h",line 1886,column 3
    2294 00000254 02B6          MOVB      ACC,#182              ; [CPU_] |1886| 
    2295 00000255 07A1          ADDL      ACC,XAR1              ; [CPU_] |1886| 
    2296 00000256 8AA9          MOVL      XAR4,ACC              ; [CPU_] |1886| 
    2297                      .dwpsn  file "C:/ti/motorware/motorware_1_01_00_18/sw/modules/ctrl/src/32b/ctrl.h",line 1727,column 3
    2298 00000257 D0BA          MOVB      XAR0,#186             ; [CPU_] |1727| 
    2299                      .dwpsn  file "C:/ti/motorware/motorware_1_01_00_18/sw/modules/ctrl/src/32b/ctrl.h",line 1886,column 3
    2300 00000258 0654          MOVL      ACC,*-SP[20]          ; [CPU_] |1886| 
    2301 00000259 1EC4          MOVL      *+XAR4[0],ACC         ; [CPU_] |1886| 
    2302                      .dwpsn  file "C:/ti/motorware/motorware_1_01_00_18/sw/modules/ctrl/src/32b/ctrl.h",line 1887,column 3
    2303 0000025a 0652          MOVL      ACC,*-SP[18]          ; [CPU_] |1887| 
    2304 0000025b 1ED4          MOVL      *+XAR4[2],ACC         ; [CPU_] |1887| 
    2305                      .dwpsn  file "C:/ti/motorware/motorware_1_01_00_18/sw/modules/ctrl/src/32b/ctrl.h",line 1900,column 3
    2306 0000025c 02BC          MOVB      ACC,#188              ; [CPU_] |1900| 
    2307 0000025d 07A1          ADDL      ACC,XAR1              ; [CPU_] |1900| 
    2308 0000025e 8AA9          MOVL      XAR4,ACC              ; [CPU_] |1900| 
    2309 0000025f 0658          MOVL      ACC,*-SP[24]          ; [CPU_] |1900| 
    2310 00000260 1EC4          MOVL      *+XAR4[0],ACC         ; [CPU_] |1900| 
    2311                      .dwpsn  file "C:/ti/motorware/motorware_1_01_00_18/sw/modules/ctrl/src/32b/ctrl.h",line 1901,column 3
    2312 00000261 0656          MOVL      ACC,*-SP[22]          ; [CPU_] |1901| 
    2313 00000262 1ED4          MOVL      *+XAR4[2],ACC         ; [CPU_] |1901| 
    2314                      .dwpsn  file "C:/ti/motorware/motorware_1_01_00_18/sw/modules/ctrl/src/32b/ctrl.h",line 1928,column 3
    2315 00000263 02C0          MOVB      ACC,#192              ; [CPU_] |1928| 
    2316 00000264 07A1          ADDL      ACC,XAR1              ; [CPU_] |1928| 
    2317 00000265 8AA9          MOVL      XAR4,ACC              ; [CPU_] |1928| 
    2318 00000266 065C          MOVL      ACC,*-SP[28]          ; [CPU_] |1928| 
    2319 00000267 1EC4          MOVL      *+XAR4[0],ACC         ; [CPU_] |1928| 
    2320                      .dwpsn  file "C:/ti/motorware/motorware_1_01_00_18/sw/modules/ctrl/src/32b/ctrl.h",line 1929,column 3
    2321 00000268 065A          MOVL      ACC,*-SP[26]          ; [CPU_] |1929| 
    2322 00000269 1ED4          MOVL      *+XAR4[2],ACC         ; [CPU_] |1929| 
    2323                      .dwpsn  file "C:/ti/motorware/motorware_1_01_00_18/sw/modules/ctrl/src/32b/ctrl.h",line 1727,column 3
    2324 0000026a 0200          MOVB      ACC,#0                ; [CPU_] |1727| 
    2325 0000026b 1E91          MOVL      *+XAR1[AR0],ACC       ; [CPU_] |1727| 
    2326                      .dwpsn  file "C:/ti/motorware/motorware_1_01_00_18/sw/modules/ctrl/src/32b/ctrl.h",line 1675,column 3
    2327 0000026c D0C4          MOVB      XAR0,#196             ; [CPU_] |1675| 
    2328 0000026d 9A00          MOV       AL,#0                 ; [CPU_] |1675| 
    2329 0000026e 9B00          MOV       AH,#0                 ; [CPU_] |1675| 
    2330 0000026f 1E91          MOVL      *+XAR1[AR0],ACC       ; [CPU_] |1675| 
    2331                      .dwpsn  file "C:/ti/motorware/motorware_1_01_00_18/sw/modules/ctrl/src/32b/ctrl.h",line 1527,column 3
TMS320C2000 Assembler PC v6.2.5 Tue Jun 27 16:56:14 2017

Tools Copyright (c) 1996-2014 Texas Instruments Incorporated
C:\Users\wmj\AppData\Local\Temp\1139610                              PAGE   45

    2332 00000270 D0C6          MOVB      XAR0,#198             ; [CPU_] |1527| 
    2333 00000271 1E91          MOVL      *+XAR1[AR0],ACC       ; [CPU_] |1527| 
    2334                      .dwpsn  file "C:/ti/motorware/motorware_1_01_00_18/sw/modules/ctrl/src/32b/ctrl.h",line 1688,column 3
    2335 00000272 D0C8          MOVB      XAR0,#200             ; [CPU_] |1688| 
    2336 00000273 1E91          MOVL      *+XAR1[AR0],ACC       ; [CPU_] |1688| 
    2337                      .dwpsn  file "C:/ti/motorware/motorware_1_01_00_18/sw/modules/ctrl/src/32b/ctrl.h",line 1075,column 3
    2338 00000274 D0EC          MOVB      XAR0,#236             ; [CPU_] |1075| 
    2339                      .dwpsn  file "C:/ti/motorware/motorware_1_01_00_18/sw/modules/ctrl/src/32b/ctrl.h",line 1111,column 3
    2340 00000275 0200          MOVB      ACC,#0                ; [CPU_] |1111| 
    2341                      .dwpsn  file "C:/ti/motorware/motorware_1_01_00_18/sw/modules/ctrl/src/32b/ctrl.h",line 1075,column 3
    2342 00000276 2B91          MOV       *+XAR1[AR0],#0        ; [CPU_] |1075| 
    2343                      .dwpsn  file "C:/ti/motorware/motorware_1_01_00_18/sw/modules/ctrl/src/32b/ctrl.h",line 1087,column 3
    2344 00000277 D0ED          MOVB      XAR0,#237             ; [CPU_] |1087| 
    2345 00000278 56BF          MOVB      *+XAR1[AR0],#1,UNC    ; [CPU_] |1087| 
         00000279 0191 
    2346                      .dwpsn  file "C:/ti/motorware/motorware_1_01_00_18/sw/modules/ctrl/src/32b/ctrl.h",line 1099,column 3
    2347 0000027a D0EE          MOVB      XAR0,#238             ; [CPU_] |1099| 
    2348 0000027b 2B91          MOV       *+XAR1[AR0],#0        ; [CPU_] |1099| 
    2349                      .dwpsn  file "C:/ti/motorware/motorware_1_01_00_18/sw/modules/ctrl/src/32b/ctrl.h",line 1111,column 3
    2350 0000027c D09A          MOVB      XAR0,#154             ; [CPU_] |1111| 
    2351 0000027d 1E91          MOVL      *+XAR1[AR0],ACC       ; [CPU_] |1111| 
    2352                      .dwpsn  file "C:/ti/motorware/motorware_1_01_00_18/sw/modules/ctrl/src/32b/ctrl.h",line 1123,column 3
    2353 0000027e D0EF          MOVB      XAR0,#239             ; [CPU_] |1123| 
    2354 0000027f 2B91          MOV       *+XAR1[AR0],#0        ; [CPU_] |1123| 
    2355 00000280 866A          MOVL      XAR2,*-SP[42]         ; [CPU_] |1123| 
    2356                      .dwpsn  file "C:/ti/motorware/motorware_1_01_00_18/sw/modules/ctrl/src/32b/ctrl.c",line 358,column 3,
    2357 00000281 83A2          MOVL      XAR5,XAR2             ; [CPU_] |358| 
    2358 00000282 8AA1          MOVL      XAR4,XAR1             ; [CPU_] |358| 
    2359 00000283 DD54          ADDB      XAR5,#84              ; [CPU_] |358| 
    2360              $C$DW$235       .dwtag  DW_TAG_TI_branch
    2361                      .dwattr $C$DW$235, DW_AT_low_pc(0x00)
    2362                      .dwattr $C$DW$235, DW_AT_name("_CTRL_setWaitTimes")
    2363                      .dwattr $C$DW$235, DW_AT_TI_call
    2364 00000284 7640'         LCR       #_CTRL_setWaitTimes   ; [CPU_] |358| 
         00000285 0141 
    2365                      ; call occurs [#_CTRL_setWaitTimes] ; [] |358| 
    2366                      .dwpsn  file "C:/ti/motorware/motorware_1_01_00_18/sw/modules/ctrl/src/32b/ctrl.h",line 1262,column 3
    2367 00000286 D0F2          MOVB      XAR0,#242             ; [CPU_] |1262| 
    2368 00000287 2B91          MOV       *+XAR1[AR0],#0        ; [CPU_] |1262| 
    2369                      .dwpsn  file "C:/ti/motorware/motorware_1_01_00_18/sw/modules/ctrl/src/32b/ctrl.h",line 1218,column 3
    2370 00000288 D0F0          MOVB      XAR0,#240             ; [CPU_] |1218| 
    2371 00000289 2B91          MOV       *+XAR1[AR0],#0        ; [CPU_] |1218| 
    2372                      .dwpsn  file "C:/ti/motorware/motorware_1_01_00_18/sw/modules/ctrl/src/32b/ctrl.h",line 1275,column 3
    2373 0000028a D0F3          MOVB      XAR0,#243             ; [CPU_] |1275| 
    2374                      .dwpsn  file "C:/ti/motorware/motorware_1_01_00_18/sw/modules/ctrl/src/32b/ctrl.c",line 381,column 3,
    2375 0000028b 8AA1          MOVL      XAR4,XAR1             ; [CPU_] |381| 
    2376                      .dwpsn  file "C:/ti/motorware/motorware_1_01_00_18/sw/modules/ctrl/src/32b/ctrl.h",line 1275,column 3
    2377 0000028c 56BF          MOVB      *+XAR1[AR0],#1,UNC    ; [CPU_] |1275| 
         0000028d 0191 
    2378                      .dwpsn  file "C:/ti/motorware/motorware_1_01_00_18/sw/modules/ctrl/src/32b/ctrl.h",line 1288,column 3
    2379 0000028e D0F4          MOVB      XAR0,#244             ; [CPU_] |1288| 
    2380 0000028f 56BF          MOVB      *+XAR1[AR0],#1,UNC    ; [CPU_] |1288| 
         00000290 0191 
    2381                      .dwpsn  file "C:/ti/motorware/motorware_1_01_00_18/sw/modules/ctrl/src/32b/ctrl.h",line 1304,column 3
    2382 00000291 D0F5          MOVB      XAR0,#245             ; [CPU_] |1304| 
TMS320C2000 Assembler PC v6.2.5 Tue Jun 27 16:56:14 2017

Tools Copyright (c) 1996-2014 Texas Instruments Incorporated
C:\Users\wmj\AppData\Local\Temp\1139610                              PAGE   46

    2383 00000292 2B91          MOV       *+XAR1[AR0],#0        ; [CPU_] |1304| 
    2384                      .dwpsn  file "C:/ti/motorware/motorware_1_01_00_18/sw/modules/ctrl/src/32b/ctrl.h",line 1246,column 3
    2385 00000293 D0F1          MOVB      XAR0,#241             ; [CPU_] |1246| 
    2386 00000294 56BF          MOVB      *+XAR1[AR0],#1,UNC    ; [CPU_] |1246| 
         00000295 0191 
    2387                      .dwpsn  file "C:/ti/motorware/motorware_1_01_00_18/sw/modules/ctrl/src/32b/ctrl.h",line 1231,column 3
    2388 00000296 8D00          MOVL      XAR0,#262             ; [CPU_] |1231| 
         00000297 0106 
    2389 00000298 56BF          MOVB      *+XAR1[AR0],#1,UNC    ; [CPU_] |1231| 
         00000299 0191 
    2390                      .dwpsn  file "C:/ti/motorware/motorware_1_01_00_18/sw/modules/ctrl/src/32b/ctrl.c",line 381,column 3,
    2391 0000029a D00B          MOVB      XAR0,#11              ; [CPU_] |381| 
    2392                      .dwpsn  file "C:/ti/motorware/motorware_1_01_00_18/sw/modules/ctrl/src/32b/ctrl.h",line 1193,column 3
    2393 0000029b 2BF1          MOV       *+XAR1[6],#0          ; [CPU_] |1193| 
    2394                      .dwpsn  file "C:/ti/motorware/motorware_1_01_00_18/sw/modules/ctrl/src/32b/ctrl.h",line 1778,column 3
    2395 0000029c 92E1          MOV       AL,*+XAR1[4]          ; [CPU_] |1778| 
    2396 0000029d 96E9          MOV       *+XAR1[5],AL          ; [CPU_] |1778| 
    2397                      .dwpsn  file "C:/ti/motorware/motorware_1_01_00_18/sw/modules/ctrl/src/32b/ctrl.h",line 1779,column 3
    2398 0000029e 56BF          MOVB      *+XAR1[4],#1,UNC      ; [CPU_] |1779| 
         0000029f 01E1 
    2399                      .dwpsn  file "C:/ti/motorware/motorware_1_01_00_18/sw/modules/ctrl/src/32b/ctrl.c",line 381,column 3,
    2400 000002a0 9292          MOV       AL,*+XAR2[AR0]        ; [CPU_] |381| 
    2401              $C$DW$236       .dwtag  DW_TAG_TI_branch
    2402                      .dwattr $C$DW$236, DW_AT_low_pc(0x00)
    2403                      .dwattr $C$DW$236, DW_AT_name("_CTRL_setupClarke_I")
    2404                      .dwattr $C$DW$236, DW_AT_TI_call
    2405 000002a1 7640'         LCR       #_CTRL_setupClarke_I  ; [CPU_] |381| 
         000002a2 0125 
    2406                      ; call occurs [#_CTRL_setupClarke_I] ; [] |381| 
    2407                      .dwpsn  file "C:/ti/motorware/motorware_1_01_00_18/sw/modules/ctrl/src/32b/ctrl.c",line 385,column 3,
    2408 000002a3 D00C          MOVB      XAR0,#12              ; [CPU_] |385| 
    2409 000002a4 8AA1          MOVL      XAR4,XAR1             ; [CPU_] |385| 
    2410 000002a5 9292          MOV       AL,*+XAR2[AR0]        ; [CPU_] |385| 
    2411              $C$DW$237       .dwtag  DW_TAG_TI_branch
    2412                      .dwattr $C$DW$237, DW_AT_low_pc(0x00)
    2413                      .dwattr $C$DW$237, DW_AT_name("_CTRL_setupClarke_V")
    2414                      .dwattr $C$DW$237, DW_AT_TI_call
    2415 000002a6 7640'         LCR       #_CTRL_setupClarke_V  ; [CPU_] |385| 
         000002a7 010F 
    2416                      ; call occurs [#_CTRL_setupClarke_V] ; [] |385| 
    2417                      .dwpsn  file "C:/ti/motorware/motorware_1_01_00_18/sw/modules/ctrl/src/32b/ctrl.c",line 390,column 3,
    2418 000002a8 28A8          MOV       AH,#15235             ; [CPU_] |390| 
         000002a9 3B83 
    2419 000002aa D0A6          MOVB      XAR0,#166             ; [CPU_] |390| 
    2420 000002ab 28A9          MOV       AL,#4719              ; [CPU_] |390| 
         000002ac 126F 
    2421 000002ad 1E42          MOVL      *-SP[2],ACC           ; [CPU_] |390| 
    2422 000002ae 0692          MOVL      ACC,*+XAR2[AR0]       ; [CPU_] |390| 
    2423              $C$DW$238       .dwtag  DW_TAG_TI_branch
    2424                      .dwattr $C$DW$238, DW_AT_low_pc(0x00)
    2425                      .dwattr $C$DW$238, DW_AT_name("FS$$DIV")
    2426                      .dwattr $C$DW$238, DW_AT_TI_call
    2427 000002af 7640!         LCR       #FS$$DIV              ; [CPU_] |390| 
         000002b0 0000 
    2428                      ; call occurs [#FS$$DIV] ; [] |390| 
TMS320C2000 Assembler PC v6.2.5 Tue Jun 27 16:56:14 2017

Tools Copyright (c) 1996-2014 Texas Instruments Incorporated
C:\Users\wmj\AppData\Local\Temp\1139610                              PAGE   47

    2429 000002b1 88AD          MOVZ      AR6,SP                ; [CPU_U] |390| 
    2430 000002b2 DEA4          SUBB      XAR6,#36              ; [CPU_U] |390| 
    2431              $C$DW$239       .dwtag  DW_TAG_TI_branch
    2432                      .dwattr $C$DW$239, DW_AT_low_pc(0x00)
    2433                      .dwattr $C$DW$239, DW_AT_name("FS$$TOFD")
    2434                      .dwattr $C$DW$239, DW_AT_TI_call
    2435 000002b3 7640!         LCR       #FS$$TOFD             ; [CPU_] |390| 
         000002b4 0000 
    2436                      ; call occurs [#FS$$TOFD] ; [] |390| 
    2437 000002b5 5CAD          MOVZ      AR4,SP                ; [CPU_U] |390| 
    2438 000002b6 88AD          MOVZ      AR6,SP                ; [CPU_U] |390| 
    2439 000002b7 8F40+         MOVL      XAR5,#$C$FL1          ; [CPU_U] |390| 
         000002b8 0018 
    2440 000002b9 DCA4          SUBB      XAR4,#36              ; [CPU_U] |390| 
    2441 000002ba DEA0          SUBB      XAR6,#32              ; [CPU_U] |390| 
    2442              $C$DW$240       .dwtag  DW_TAG_TI_branch
    2443                      .dwattr $C$DW$240, DW_AT_low_pc(0x00)
    2444                      .dwattr $C$DW$240, DW_AT_name("FD$$MPY")
    2445                      .dwattr $C$DW$240, DW_AT_TI_call
    2446 000002bb 7640!         LCR       #FD$$MPY              ; [CPU_] |390| 
         000002bc 0000 
    2447                      ; call occurs [#FD$$MPY] ; [] |390| 
    2448 000002bd 5CAD          MOVZ      AR4,SP                ; [CPU_U] |390| 
    2449 000002be DCA0          SUBB      XAR4,#32              ; [CPU_U] |390| 
    2450              $C$DW$241       .dwtag  DW_TAG_TI_branch
    2451                      .dwattr $C$DW$241, DW_AT_low_pc(0x00)
    2452                      .dwattr $C$DW$241, DW_AT_name("FD$$TOL")
    2453                      .dwattr $C$DW$241, DW_AT_TI_call
    2454 000002bf 7640!         LCR       #FD$$TOL              ; [CPU_] |390| 
         000002c0 0000 
    2455                      ; call occurs [#FD$$TOL] ; [] |390| 
    2456                      .dwpsn  file "C:/ti/motorware/motorware_1_01_00_18/sw/modules/pid/src/32b/pid.h",line 303,column 16,i
    2457 000002c1 D020          MOVB      XAR0,#32              ; [CPU_] |303| 
    2458 000002c2 8A91          MOVL      XAR4,*+XAR1[AR0]      ; [CPU_] |303| 
    2459                      .dwpsn  file "C:/ti/motorware/motorware_1_01_00_18/sw/modules/pid/src/32b/pid.h",line 305,column 3,is
    2460 000002c3 8F59          MOVL      XAR5,#1677721         ; [CPU_U] |305| 
         000002c4 9999 
    2461                      .dwpsn  file "C:/ti/motorware/motorware_1_01_00_18/sw/modules/ctrl/src/32b/ctrl.c",line 390,column 3,
    2462 000002c5 1EA7          MOVL      XAR7,ACC              ; [CPU_] |390| 
    2463                      .dwpsn  file "C:/ti/motorware/motorware_1_01_00_18/sw/modules/pid/src/32b/pid.h",line 413,column 3,is
    2464 000002c6 D020          MOVB      XAR0,#32              ; [CPU_] |413| 
    2465                      .dwpsn  file "C:/ti/motorware/motorware_1_01_00_18/sw/modules/pid/src/32b/pid.h",line 305,column 3,is
    2466 000002c7 A0C4          MOVL      *+XAR4[0],XAR5        ; [CPU_] |305| 
    2467                      .dwpsn  file "C:/ti/motorware/motorware_1_01_00_18/sw/modules/pid/src/32b/pid.h",line 306,column 3,is
    2468 000002c8 1ED4          MOVL      *+XAR4[2],ACC         ; [CPU_] |306| 
    2469                      .dwpsn  file "C:/ti/motorware/motorware_1_01_00_18/sw/modules/pid/src/32b/pid.h",line 307,column 3,is
    2470 000002c9 0200          MOVB      ACC,#0                ; [CPU_] |307| 
    2471 000002ca 1EE4          MOVL      *+XAR4[4],ACC         ; [CPU_] |307| 
    2472                      .dwpsn  file "C:/ti/motorware/motorware_1_01_00_18/sw/modules/pid/src/32b/pid.h",line 413,column 3,is
    2473 000002cb 8A91          MOVL      XAR4,*+XAR1[AR0]      ; [CPU_] |413| 
    2474                      .dwpsn  file "C:/ti/motorware/motorware_1_01_00_18/sw/modules/pid/src/32b/pid.h",line 358,column 16,i
    2475 000002cc D020          MOVB      XAR0,#32              ; [CPU_] |358| 
    2476                      .dwpsn  file "C:/ti/motorware/motorware_1_01_00_18/sw/modules/pid/src/32b/pid.h",line 413,column 3,is
    2477 000002cd 1EF4          MOVL      *+XAR4[6],ACC         ; [CPU_] |413| 
    2478                      .dwpsn  file "C:/ti/motorware/motorware_1_01_00_18/sw/modules/pid/src/32b/pid.h",line 360,column 3,is
TMS320C2000 Assembler PC v6.2.5 Tue Jun 27 16:56:14 2017

Tools Copyright (c) 1996-2014 Texas Instruments Incorporated
C:\Users\wmj\AppData\Local\Temp\1139610                              PAGE   48

    2479 000002ce 28A9          MOV       AL,#52429             ; [CPU_] |360| 
         000002cf CCCD 
    2480 000002d0 28A8          MOV       AH,#65292             ; [CPU_] |360| 
         000002d1 FF0C 
    2481                      .dwpsn  file "C:/ti/motorware/motorware_1_01_00_18/sw/modules/pid/src/32b/pid.h",line 358,column 16,i
    2482 000002d2 8A91          MOVL      XAR4,*+XAR1[AR0]      ; [CPU_] |358| 
    2483                      .dwpsn  file "C:/ti/motorware/motorware_1_01_00_18/sw/modules/ctrl/src/32b/ctrl.c",line 398,column 3,
    2484 000002d3 7699          MOVL      XAR6,#1677721         ; [CPU_U] |398| 
         000002d4 9999 
    2485 000002d5 D501          MOVB      XAR5,#1               ; [CPU_] |398| 
    2486                      .dwpsn  file "C:/ti/motorware/motorware_1_01_00_18/sw/modules/pid/src/32b/pid.h",line 360,column 3,is
    2487 000002d6 D00C          MOVB      XAR0,#12              ; [CPU_] |360| 
    2488 000002d7 1E94          MOVL      *+XAR4[AR0],ACC       ; [CPU_] |360| 
    2489                      .dwpsn  file "C:/ti/motorware/motorware_1_01_00_18/sw/modules/pid/src/32b/pid.h",line 361,column 3,is
    2490 000002d8 D00E          MOVB      XAR0,#14              ; [CPU_] |361| 
    2491 000002d9 28A9          MOV       AL,#13107             ; [CPU_] |361| 
         000002da 3333 
    2492 000002db 9BF3          MOV       AH,#243               ; [CPU_] |361| 
    2493 000002dc 1E94          MOVL      *+XAR4[AR0],ACC       ; [CPU_] |361| 
    2494                      .dwpsn  file "C:/ti/motorware/motorware_1_01_00_18/sw/modules/ctrl/src/32b/ctrl.c",line 398,column 3,
    2495 000002dd 0200          MOVB      ACC,#0                ; [CPU_] |398| 
    2496 000002de 8AA1          MOVL      XAR4,XAR1             ; [CPU_] |398| 
    2497 000002df C342          MOVL      *-SP[2],XAR7          ; [CPU_] |398| 
    2498 000002e0 1E44          MOVL      *-SP[4],ACC           ; [CPU_] |398| 
    2499 000002e1 06A6          MOVL      ACC,XAR6              ; [CPU_] |398| 
    2500              $C$DW$242       .dwtag  DW_TAG_TI_branch
    2501                      .dwattr $C$DW$242, DW_AT_low_pc(0x00)
    2502                      .dwattr $C$DW$242, DW_AT_name("_CTRL_setGains")
    2503                      .dwattr $C$DW$242, DW_AT_TI_call
    2504 000002e2 7640'         LCR       #_CTRL_setGains       ; [CPU_] |398| 
         000002e3 0160 
    2505                      ; call occurs [#_CTRL_setGains] ; [] |398| 
    2506                      .dwpsn  file "C:/ti/motorware/motorware_1_01_00_18/sw/modules/ctrl/src/32b/ctrl.c",line 403,column 3,
    2507 000002e4 28A9          MOV       AL,#4719              ; [CPU_] |403| 
         000002e5 126F 
    2508 000002e6 D0A6          MOVB      XAR0,#166             ; [CPU_] |403| 
    2509 000002e7 28A8          MOV       AH,#15235             ; [CPU_] |403| 
         000002e8 3B83 
    2510 000002e9 1E42          MOVL      *-SP[2],ACC           ; [CPU_] |403| 
    2511 000002ea 0692          MOVL      ACC,*+XAR2[AR0]       ; [CPU_] |403| 
    2512              $C$DW$243       .dwtag  DW_TAG_TI_branch
    2513                      .dwattr $C$DW$243, DW_AT_low_pc(0x00)
    2514                      .dwattr $C$DW$243, DW_AT_name("FS$$DIV")
    2515                      .dwattr $C$DW$243, DW_AT_TI_call
    2516 000002eb 7640!         LCR       #FS$$DIV              ; [CPU_] |403| 
         000002ec 0000 
    2517                      ; call occurs [#FS$$DIV] ; [] |403| 
    2518 000002ed 88AD          MOVZ      AR6,SP                ; [CPU_U] |403| 
    2519 000002ee DEA4          SUBB      XAR6,#36              ; [CPU_U] |403| 
    2520              $C$DW$244       .dwtag  DW_TAG_TI_branch
    2521                      .dwattr $C$DW$244, DW_AT_low_pc(0x00)
    2522                      .dwattr $C$DW$244, DW_AT_name("FS$$TOFD")
    2523                      .dwattr $C$DW$244, DW_AT_TI_call
    2524 000002ef 7640!         LCR       #FS$$TOFD             ; [CPU_] |403| 
         000002f0 0000 
TMS320C2000 Assembler PC v6.2.5 Tue Jun 27 16:56:14 2017

Tools Copyright (c) 1996-2014 Texas Instruments Incorporated
C:\Users\wmj\AppData\Local\Temp\1139610                              PAGE   49

    2525                      ; call occurs [#FS$$TOFD] ; [] |403| 
    2526 000002f1 5CAD          MOVZ      AR4,SP                ; [CPU_U] |403| 
    2527 000002f2 88AD          MOVZ      AR6,SP                ; [CPU_U] |403| 
    2528 000002f3 8F40+         MOVL      XAR5,#$C$FL1          ; [CPU_U] |403| 
         000002f4 0018 
    2529 000002f5 DCA4          SUBB      XAR4,#36              ; [CPU_U] |403| 
    2530 000002f6 DEA0          SUBB      XAR6,#32              ; [CPU_U] |403| 
    2531              $C$DW$245       .dwtag  DW_TAG_TI_branch
    2532                      .dwattr $C$DW$245, DW_AT_low_pc(0x00)
    2533                      .dwattr $C$DW$245, DW_AT_name("FD$$MPY")
    2534                      .dwattr $C$DW$245, DW_AT_TI_call
    2535 000002f7 7640!         LCR       #FD$$MPY              ; [CPU_] |403| 
         000002f8 0000 
    2536                      ; call occurs [#FD$$MPY] ; [] |403| 
    2537 000002f9 5CAD          MOVZ      AR4,SP                ; [CPU_U] |403| 
    2538 000002fa DCA0          SUBB      XAR4,#32              ; [CPU_U] |403| 
    2539              $C$DW$246       .dwtag  DW_TAG_TI_branch
    2540                      .dwattr $C$DW$246, DW_AT_low_pc(0x00)
    2541                      .dwattr $C$DW$246, DW_AT_name("FD$$TOL")
    2542                      .dwattr $C$DW$246, DW_AT_TI_call
    2543 000002fb 7640!         LCR       #FD$$TOL              ; [CPU_] |403| 
         000002fc 0000 
    2544                      ; call occurs [#FD$$TOL] ; [] |403| 
    2545                      .dwpsn  file "C:/ti/motorware/motorware_1_01_00_18/sw/modules/pid/src/32b/pid.h",line 303,column 16,i
    2546 000002fd D032          MOVB      XAR0,#50              ; [CPU_] |303| 
    2547 000002fe 8A91          MOVL      XAR4,*+XAR1[AR0]      ; [CPU_] |303| 
    2548                      .dwpsn  file "C:/ti/motorware/motorware_1_01_00_18/sw/modules/pid/src/32b/pid.h",line 305,column 3,is
    2549 000002ff 8F59          MOVL      XAR5,#1677721         ; [CPU_U] |305| 
         00000300 9999 
    2550                      .dwpsn  file "C:/ti/motorware/motorware_1_01_00_18/sw/modules/ctrl/src/32b/ctrl.c",line 403,column 3,
    2551 00000301 1EA7          MOVL      XAR7,ACC              ; [CPU_] |403| 
    2552                      .dwpsn  file "C:/ti/motorware/motorware_1_01_00_18/sw/modules/pid/src/32b/pid.h",line 413,column 3,is
    2553 00000302 D032          MOVB      XAR0,#50              ; [CPU_] |413| 
    2554                      .dwpsn  file "C:/ti/motorware/motorware_1_01_00_18/sw/modules/pid/src/32b/pid.h",line 305,column 3,is
    2555 00000303 A0C4          MOVL      *+XAR4[0],XAR5        ; [CPU_] |305| 
    2556                      .dwpsn  file "C:/ti/motorware/motorware_1_01_00_18/sw/modules/pid/src/32b/pid.h",line 306,column 3,is
    2557 00000304 1ED4          MOVL      *+XAR4[2],ACC         ; [CPU_] |306| 
    2558                      .dwpsn  file "C:/ti/motorware/motorware_1_01_00_18/sw/modules/pid/src/32b/pid.h",line 307,column 3,is
    2559 00000305 0200          MOVB      ACC,#0                ; [CPU_] |307| 
    2560 00000306 1EE4          MOVL      *+XAR4[4],ACC         ; [CPU_] |307| 
    2561                      .dwpsn  file "C:/ti/motorware/motorware_1_01_00_18/sw/modules/pid/src/32b/pid.h",line 413,column 3,is
    2562 00000307 8A91          MOVL      XAR4,*+XAR1[AR0]      ; [CPU_] |413| 
    2563                      .dwpsn  file "C:/ti/motorware/motorware_1_01_00_18/sw/modules/pid/src/32b/pid.h",line 358,column 16,i
    2564 00000308 D032          MOVB      XAR0,#50              ; [CPU_] |358| 
    2565                      .dwpsn  file "C:/ti/motorware/motorware_1_01_00_18/sw/modules/pid/src/32b/pid.h",line 413,column 3,is
    2566 00000309 1EF4          MOVL      *+XAR4[6],ACC         ; [CPU_] |413| 
    2567                      .dwpsn  file "C:/ti/motorware/motorware_1_01_00_18/sw/modules/pid/src/32b/pid.h",line 360,column 3,is
    2568 0000030a 28A9          MOV       AL,#52429             ; [CPU_] |360| 
         0000030b CCCD 
    2569 0000030c 28A8          MOV       AH,#65292             ; [CPU_] |360| 
         0000030d FF0C 
    2570                      .dwpsn  file "C:/ti/motorware/motorware_1_01_00_18/sw/modules/pid/src/32b/pid.h",line 358,column 16,i
    2571 0000030e 8A91          MOVL      XAR4,*+XAR1[AR0]      ; [CPU_] |358| 
    2572                      .dwpsn  file "C:/ti/motorware/motorware_1_01_00_18/sw/modules/ctrl/src/32b/ctrl.c",line 411,column 3,
    2573 0000030f 7699          MOVL      XAR6,#1677721         ; [CPU_U] |411| 
TMS320C2000 Assembler PC v6.2.5 Tue Jun 27 16:56:14 2017

Tools Copyright (c) 1996-2014 Texas Instruments Incorporated
C:\Users\wmj\AppData\Local\Temp\1139610                              PAGE   50

         00000310 9999 
    2574 00000311 D502          MOVB      XAR5,#2               ; [CPU_] |411| 
    2575                      .dwpsn  file "C:/ti/motorware/motorware_1_01_00_18/sw/modules/pid/src/32b/pid.h",line 360,column 3,is
    2576 00000312 D00C          MOVB      XAR0,#12              ; [CPU_] |360| 
    2577 00000313 1E94          MOVL      *+XAR4[AR0],ACC       ; [CPU_] |360| 
    2578                      .dwpsn  file "C:/ti/motorware/motorware_1_01_00_18/sw/modules/pid/src/32b/pid.h",line 361,column 3,is
    2579 00000314 D00E          MOVB      XAR0,#14              ; [CPU_] |361| 
    2580 00000315 28A9          MOV       AL,#13107             ; [CPU_] |361| 
         00000316 3333 
    2581 00000317 9BF3          MOV       AH,#243               ; [CPU_] |361| 
    2582 00000318 1E94          MOVL      *+XAR4[AR0],ACC       ; [CPU_] |361| 
    2583                      .dwpsn  file "C:/ti/motorware/motorware_1_01_00_18/sw/modules/ctrl/src/32b/ctrl.c",line 411,column 3,
    2584 00000319 0200          MOVB      ACC,#0                ; [CPU_] |411| 
    2585 0000031a 8AA1          MOVL      XAR4,XAR1             ; [CPU_] |411| 
    2586 0000031b C342          MOVL      *-SP[2],XAR7          ; [CPU_] |411| 
    2587 0000031c 1E44          MOVL      *-SP[4],ACC           ; [CPU_] |411| 
    2588 0000031d 06A6          MOVL      ACC,XAR6              ; [CPU_] |411| 
    2589              $C$DW$247       .dwtag  DW_TAG_TI_branch
    2590                      .dwattr $C$DW$247, DW_AT_low_pc(0x00)
    2591                      .dwattr $C$DW$247, DW_AT_name("_CTRL_setGains")
    2592                      .dwattr $C$DW$247, DW_AT_TI_call
    2593 0000031e 7640'         LCR       #_CTRL_setGains       ; [CPU_] |411| 
         0000031f 0160 
    2594                      ; call occurs [#_CTRL_setGains] ; [] |411| 
    2595 00000320 8A6A          MOVL      XAR4,*-SP[42]         ; [CPU_] |411| 
    2596                      .dwpsn  file "C:/ti/motorware/motorware_1_01_00_18/sw/modules/ctrl/src/32b/ctrl.c",line 415,column 3,
    2597 00000321 D040          MOVB      XAR0,#64              ; [CPU_] |415| 
    2598 00000322 06C4          MOVL      ACC,*+XAR4[0]         ; [CPU_] |415| 
    2599 00000323 1E66          MOVL      *-SP[38],ACC          ; [CPU_] |415| 
    2600 00000324 28A9          MOV       AL,#55050             ; [CPU_] |415| 
         00000325 D70A 
    2601 00000326 8294          MOVL      XAR3,*+XAR4[AR0]      ; [CPU_] |415| 
    2602 00000327 28A8          MOV       AH,#15523             ; [CPU_] |415| 
         00000328 3CA3 
    2603 00000329 86E4          MOVL      XAR2,*+XAR4[4]        ; [CPU_] |415| 
    2604 0000032a 1E42          MOVL      *-SP[2],ACC           ; [CPU_] |415| 
    2605 0000032b A2A9          MOVL      ACC,XAR3              ; [CPU_] |415| 
    2606              $C$DW$248       .dwtag  DW_TAG_TI_branch
    2607                      .dwattr $C$DW$248, DW_AT_low_pc(0x00)
    2608                      .dwattr $C$DW$248, DW_AT_name("FS$$MPY")
    2609                      .dwattr $C$DW$248, DW_AT_TI_call
    2610 0000032c 7640!         LCR       #FS$$MPY              ; [CPU_] |415| 
         0000032d 0000 
    2611                      ; call occurs [#FS$$MPY] ; [] |415| 
    2612 0000032e AA42          MOVL      *-SP[2],XAR2          ; [CPU_] |415| 
    2613              $C$DW$249       .dwtag  DW_TAG_TI_branch
    2614                      .dwattr $C$DW$249, DW_AT_low_pc(0x00)
    2615                      .dwattr $C$DW$249, DW_AT_name("FS$$MPY")
    2616                      .dwattr $C$DW$249, DW_AT_TI_call
    2617 0000032f 7640!         LCR       #FS$$MPY              ; [CPU_] |415| 
         00000330 0000 
    2618                      ; call occurs [#FS$$MPY] ; [] |415| 
    2619 00000331 C466          MOVL      XAR6,*-SP[38]         ; [CPU_] |415| 
    2620 00000332 C242          MOVL      *-SP[2],XAR6          ; [CPU_] |415| 
    2621              $C$DW$250       .dwtag  DW_TAG_TI_branch
TMS320C2000 Assembler PC v6.2.5 Tue Jun 27 16:56:14 2017

Tools Copyright (c) 1996-2014 Texas Instruments Incorporated
C:\Users\wmj\AppData\Local\Temp\1139610                              PAGE   51

    2622                      .dwattr $C$DW$250, DW_AT_low_pc(0x00)
    2623                      .dwattr $C$DW$250, DW_AT_name("FS$$DIV")
    2624                      .dwattr $C$DW$250, DW_AT_TI_call
    2625 00000333 7640!         LCR       #FS$$DIV              ; [CPU_] |415| 
         00000334 0000 
    2626                      ; call occurs [#FS$$DIV] ; [] |415| 
    2627 00000335 88AD          MOVZ      AR6,SP                ; [CPU_U] |415| 
    2628 00000336 DEA4          SUBB      XAR6,#36              ; [CPU_U] |415| 
    2629              $C$DW$251       .dwtag  DW_TAG_TI_branch
    2630                      .dwattr $C$DW$251, DW_AT_low_pc(0x00)
    2631                      .dwattr $C$DW$251, DW_AT_name("FS$$TOFD")
    2632                      .dwattr $C$DW$251, DW_AT_TI_call
    2633 00000337 7640!         LCR       #FS$$TOFD             ; [CPU_] |415| 
         00000338 0000 
    2634                      ; call occurs [#FS$$TOFD] ; [] |415| 
    2635 00000339 5CAD          MOVZ      AR4,SP                ; [CPU_U] |415| 
    2636 0000033a 88AD          MOVZ      AR6,SP                ; [CPU_U] |415| 
    2637 0000033b 8F40+         MOVL      XAR5,#$C$FL1          ; [CPU_U] |415| 
         0000033c 0018 
    2638 0000033d DCA4          SUBB      XAR4,#36              ; [CPU_U] |415| 
    2639 0000033e DEA0          SUBB      XAR6,#32              ; [CPU_U] |415| 
    2640              $C$DW$252       .dwtag  DW_TAG_TI_branch
    2641                      .dwattr $C$DW$252, DW_AT_low_pc(0x00)
    2642                      .dwattr $C$DW$252, DW_AT_name("FD$$MPY")
    2643                      .dwattr $C$DW$252, DW_AT_TI_call
    2644 0000033f 7640!         LCR       #FD$$MPY              ; [CPU_] |415| 
         00000340 0000 
    2645                      ; call occurs [#FD$$MPY] ; [] |415| 
    2646 00000341 5CAD          MOVZ      AR4,SP                ; [CPU_U] |415| 
    2647 00000342 DCA0          SUBB      XAR4,#32              ; [CPU_U] |415| 
    2648              $C$DW$253       .dwtag  DW_TAG_TI_branch
    2649                      .dwattr $C$DW$253, DW_AT_low_pc(0x00)
    2650                      .dwattr $C$DW$253, DW_AT_name("FD$$TOL")
    2651                      .dwattr $C$DW$253, DW_AT_TI_call
    2652 00000343 7640!         LCR       #FD$$TOL              ; [CPU_] |415| 
         00000344 0000 
    2653                      ; call occurs [#FD$$TOL] ; [] |415| 
    2654 00000345 1E68          MOVL      *-SP[40],ACC          ; [CPU_] |415| 
    2655                      .dwpsn  file "C:/ti/motorware/motorware_1_01_00_18/sw/modules/ctrl/src/32b/ctrl.c",line 416,column 3,
    2656 00000346 A242          MOVL      *-SP[2],XAR3          ; [CPU_] |416| 
    2657 00000347 A2A9          MOVL      ACC,XAR3              ; [CPU_] |416| 
    2658              $C$DW$254       .dwtag  DW_TAG_TI_branch
    2659                      .dwattr $C$DW$254, DW_AT_low_pc(0x00)
    2660                      .dwattr $C$DW$254, DW_AT_name("FS$$ADD")
    2661                      .dwattr $C$DW$254, DW_AT_TI_call
    2662 00000348 7640!         LCR       #FS$$ADD              ; [CPU_] |416| 
         00000349 0000 
    2663                      ; call occurs [#FS$$ADD] ; [] |416| 
    2664 0000034a AA42          MOVL      *-SP[2],XAR2          ; [CPU_] |416| 
    2665              $C$DW$255       .dwtag  DW_TAG_TI_branch
    2666                      .dwattr $C$DW$255, DW_AT_low_pc(0x00)
    2667                      .dwattr $C$DW$255, DW_AT_name("FS$$MPY")
    2668                      .dwattr $C$DW$255, DW_AT_TI_call
    2669 0000034b 7640!         LCR       #FS$$MPY              ; [CPU_] |416| 
         0000034c 0000 
TMS320C2000 Assembler PC v6.2.5 Tue Jun 27 16:56:14 2017

Tools Copyright (c) 1996-2014 Texas Instruments Incorporated
C:\Users\wmj\AppData\Local\Temp\1139610                              PAGE   52

    2670                      ; call occurs [#FS$$MPY] ; [] |416| 
    2671 0000034d 866A          MOVL      XAR2,*-SP[42]         ; [CPU_] |416| 
    2672 0000034e D0A6          MOVB      XAR0,#166             ; [CPU_] |416| 
    2673 0000034f C492          MOVL      XAR6,*+XAR2[AR0]      ; [CPU_] |416| 
    2674 00000350 C242          MOVL      *-SP[2],XAR6          ; [CPU_] |416| 
    2675              $C$DW$256       .dwtag  DW_TAG_TI_branch
    2676                      .dwattr $C$DW$256, DW_AT_low_pc(0x00)
    2677                      .dwattr $C$DW$256, DW_AT_name("FS$$MPY")
    2678                      .dwattr $C$DW$256, DW_AT_TI_call
    2679 00000351 7640!         LCR       #FS$$MPY              ; [CPU_] |416| 
         00000352 0000 
    2680                      ; call occurs [#FS$$MPY] ; [] |416| 
    2681 00000353 C466          MOVL      XAR6,*-SP[38]         ; [CPU_] |416| 
    2682 00000354 C242          MOVL      *-SP[2],XAR6          ; [CPU_] |416| 
    2683              $C$DW$257       .dwtag  DW_TAG_TI_branch
    2684                      .dwattr $C$DW$257, DW_AT_low_pc(0x00)
    2685                      .dwattr $C$DW$257, DW_AT_name("FS$$DIV")
    2686                      .dwattr $C$DW$257, DW_AT_TI_call
    2687 00000355 7640!         LCR       #FS$$DIV              ; [CPU_] |416| 
         00000356 0000 
    2688                      ; call occurs [#FS$$DIV] ; [] |416| 
    2689 00000357 88AD          MOVZ      AR6,SP                ; [CPU_U] |416| 
    2690 00000358 DEA4          SUBB      XAR6,#36              ; [CPU_U] |416| 
    2691              $C$DW$258       .dwtag  DW_TAG_TI_branch
    2692                      .dwattr $C$DW$258, DW_AT_low_pc(0x00)
    2693                      .dwattr $C$DW$258, DW_AT_name("FS$$TOFD")
    2694                      .dwattr $C$DW$258, DW_AT_TI_call
    2695 00000359 7640!         LCR       #FS$$TOFD             ; [CPU_] |416| 
         0000035a 0000 
    2696                      ; call occurs [#FS$$TOFD] ; [] |416| 
    2697 0000035b 5CAD          MOVZ      AR4,SP                ; [CPU_U] |416| 
    2698 0000035c 88AD          MOVZ      AR6,SP                ; [CPU_U] |416| 
    2699 0000035d 8F40+         MOVL      XAR5,#$C$FL1          ; [CPU_U] |416| 
         0000035e 0018 
    2700 0000035f DCA4          SUBB      XAR4,#36              ; [CPU_U] |416| 
    2701 00000360 DEA0          SUBB      XAR6,#32              ; [CPU_U] |416| 
    2702              $C$DW$259       .dwtag  DW_TAG_TI_branch
    2703                      .dwattr $C$DW$259, DW_AT_low_pc(0x00)
    2704                      .dwattr $C$DW$259, DW_AT_name("FD$$MPY")
    2705                      .dwattr $C$DW$259, DW_AT_TI_call
    2706 00000361 7640!         LCR       #FD$$MPY              ; [CPU_] |416| 
         00000362 0000 
    2707                      ; call occurs [#FD$$MPY] ; [] |416| 
    2708 00000363 5CAD          MOVZ      AR4,SP                ; [CPU_U] |416| 
    2709 00000364 DCA0          SUBB      XAR4,#32              ; [CPU_U] |416| 
    2710              $C$DW$260       .dwtag  DW_TAG_TI_branch
    2711                      .dwattr $C$DW$260, DW_AT_low_pc(0x00)
    2712                      .dwattr $C$DW$260, DW_AT_name("FD$$TOL")
    2713                      .dwattr $C$DW$260, DW_AT_TI_call
    2714 00000365 7640!         LCR       #FD$$TOL              ; [CPU_] |416| 
         00000366 0000 
    2715                      ; call occurs [#FD$$TOL] ; [] |416| 
    2716                      .dwpsn  file "C:/ti/motorware/motorware_1_01_00_18/sw/modules/pid/src/32b/pid.h",line 303,column 16,i
    2717 00000367 D044          MOVB      XAR0,#68              ; [CPU_] |303| 
    2718 00000368 C468          MOVL      XAR6,*-SP[40]         ; [CPU_] |303| 
TMS320C2000 Assembler PC v6.2.5 Tue Jun 27 16:56:14 2017

Tools Copyright (c) 1996-2014 Texas Instruments Incorporated
C:\Users\wmj\AppData\Local\Temp\1139610                              PAGE   53

    2719 00000369 8A91          MOVL      XAR4,*+XAR1[AR0]      ; [CPU_] |303| 
    2720                      .dwpsn  file "C:/ti/motorware/motorware_1_01_00_18/sw/modules/ctrl/src/32b/ctrl.c",line 416,column 3,
    2721 0000036a 1EA7          MOVL      XAR7,ACC              ; [CPU_] |416| 
    2722                      .dwpsn  file "C:/ti/motorware/motorware_1_01_00_18/sw/modules/pid/src/32b/pid.h",line 413,column 3,is
    2723 0000036b D044          MOVB      XAR0,#68              ; [CPU_] |413| 
    2724                      .dwpsn  file "C:/ti/motorware/motorware_1_01_00_18/sw/modules/pid/src/32b/pid.h",line 305,column 3,is
    2725 0000036c C2C4          MOVL      *+XAR4[0],XAR6        ; [CPU_] |305| 
    2726                      .dwpsn  file "C:/ti/motorware/motorware_1_01_00_18/sw/modules/pid/src/32b/pid.h",line 306,column 3,is
    2727 0000036d 1ED4          MOVL      *+XAR4[2],ACC         ; [CPU_] |306| 
    2728                      .dwpsn  file "C:/ti/motorware/motorware_1_01_00_18/sw/modules/pid/src/32b/pid.h",line 307,column 3,is
    2729 0000036e 0200          MOVB      ACC,#0                ; [CPU_] |307| 
    2730 0000036f 1EE4          MOVL      *+XAR4[4],ACC         ; [CPU_] |307| 
    2731                      .dwpsn  file "C:/ti/motorware/motorware_1_01_00_18/sw/modules/pid/src/32b/pid.h",line 413,column 3,is
    2732 00000370 8A91          MOVL      XAR4,*+XAR1[AR0]      ; [CPU_] |413| 
    2733 00000371 3B01          SETC      SXM                   ; [CPU_] 
    2734                      .dwpsn  file "C:/ti/motorware/motorware_1_01_00_18/sw/modules/pid/src/32b/pid.h",line 358,column 16,i
    2735 00000372 D044          MOVB      XAR0,#68              ; [CPU_] |358| 
    2736                      .dwpsn  file "C:/ti/motorware/motorware_1_01_00_18/sw/modules/pid/src/32b/pid.h",line 413,column 3,is
    2737 00000373 1EF4          MOVL      *+XAR4[6],ACC         ; [CPU_] |413| 
    2738                      .dwpsn  file "C:/ti/motorware/motorware_1_01_00_18/sw/modules/pid/src/32b/pid.h",line 358,column 16,i
    2739 00000374 8A91          MOVL      XAR4,*+XAR1[AR0]      ; [CPU_] |358| 
    2740                      .dwpsn  file "C:/ti/motorware/motorware_1_01_00_18/sw/modules/pid/src/32b/pid.h",line 360,column 3,is
    2741 00000375 FF2F          MOV       ACC,#-512 << 15       ; [CPU_] |360| 
         00000376 FE00 
    2742                      .dwpsn  file "C:/ti/motorware/motorware_1_01_00_18/sw/modules/ctrl/src/32b/ctrl.c",line 424,column 3,
    2743 00000377 D500          MOVB      XAR5,#0               ; [CPU_] |424| 
    2744                      .dwpsn  file "C:/ti/motorware/motorware_1_01_00_18/sw/modules/pid/src/32b/pid.h",line 360,column 3,is
    2745 00000378 D00C          MOVB      XAR0,#12              ; [CPU_] |360| 
    2746 00000379 1E94          MOVL      *+XAR4[AR0],ACC       ; [CPU_] |360| 
    2747                      .dwpsn  file "C:/ti/motorware/motorware_1_01_00_18/sw/modules/pid/src/32b/pid.h",line 361,column 3,is
    2748 0000037a D00E          MOVB      XAR0,#14              ; [CPU_] |361| 
    2749 0000037b FF2F          MOV       ACC,#512 << 15        ; [CPU_] |361| 
         0000037c 0200 
    2750 0000037d 1E94          MOVL      *+XAR4[AR0],ACC       ; [CPU_] |361| 
    2751                      .dwpsn  file "C:/ti/motorware/motorware_1_01_00_18/sw/modules/ctrl/src/32b/ctrl.c",line 424,column 3,
    2752 0000037e 0200          MOVB      ACC,#0                ; [CPU_] |424| 
    2753 0000037f 8AA1          MOVL      XAR4,XAR1             ; [CPU_] |424| 
    2754 00000380 C342          MOVL      *-SP[2],XAR7          ; [CPU_] |424| 
    2755 00000381 1E44          MOVL      *-SP[4],ACC           ; [CPU_] |424| 
    2756 00000382 06A6          MOVL      ACC,XAR6              ; [CPU_] |424| 
    2757              $C$DW$261       .dwtag  DW_TAG_TI_branch
    2758                      .dwattr $C$DW$261, DW_AT_low_pc(0x00)
    2759                      .dwattr $C$DW$261, DW_AT_name("_CTRL_setGains")
    2760                      .dwattr $C$DW$261, DW_AT_TI_call
    2761 00000383 7640'         LCR       #_CTRL_setGains       ; [CPU_] |424| 
         00000384 0160 
    2762                      ; call occurs [#_CTRL_setGains] ; [] |424| 
    2763                      .dwpsn  file "C:/ti/motorware/motorware_1_01_00_18/sw/modules/ctrl/src/32b/ctrl.c",line 428,column 3,
    2764 00000385 0200          MOVB      ACC,#0                ; [CPU_] |428| 
    2765              $C$DW$262       .dwtag  DW_TAG_TI_branch
    2766                      .dwattr $C$DW$262, DW_AT_low_pc(0x00)
    2767                      .dwattr $C$DW$262, DW_AT_name("_CTRL_setSpd_ref_pu")
    2768                      .dwattr $C$DW$262, DW_AT_TI_call
    2769 00000386 7640'         LCR       #_CTRL_setSpd_ref_pu  ; [CPU_] |428| 
         00000387 014A 
TMS320C2000 Assembler PC v6.2.5 Tue Jun 27 16:56:14 2017

Tools Copyright (c) 1996-2014 Texas Instruments Incorporated
C:\Users\wmj\AppData\Local\Temp\1139610                              PAGE   54

    2770                      ; call occurs [#_CTRL_setSpd_ref_pu] ; [] |428| 
    2771                      .dwpsn  file "C:/ti/motorware/motorware_1_01_00_18/sw/modules/traj/src/32b/traj.h",line 158,column 3,
    2772 00000388 D060          MOVB      XAR0,#96              ; [CPU_] |158| 
    2773 00000389 8A91          MOVL      XAR4,*+XAR1[AR0]      ; [CPU_] |158| 
    2774                      .dwpsn  file "C:/ti/motorware/motorware_1_01_00_18/sw/modules/traj/src/32b/traj.h",line 210,column 3,
    2775 0000038a D060          MOVB      XAR0,#96              ; [CPU_] |210| 
    2776                      .dwpsn  file "C:/ti/motorware/motorware_1_01_00_18/sw/modules/traj/src/32b/traj.h",line 158,column 3,
    2777 0000038b 1ED4          MOVL      *+XAR4[2],ACC         ; [CPU_] |158| 
    2778                      .dwpsn  file "C:/ti/motorware/motorware_1_01_00_18/sw/modules/traj/src/32b/traj.h",line 210,column 3,
    2779 0000038c 8A91          MOVL      XAR4,*+XAR1[AR0]      ; [CPU_] |210| 
    2780                      .dwpsn  file "C:/ti/motorware/motorware_1_01_00_18/sw/modules/traj/src/32b/traj.h",line 197,column 3,
    2781 0000038d D060          MOVB      XAR0,#96              ; [CPU_] |197| 
    2782                      .dwpsn  file "C:/ti/motorware/motorware_1_01_00_18/sw/modules/traj/src/32b/traj.h",line 210,column 3,
    2783 0000038e 1EC4          MOVL      *+XAR4[0],ACC         ; [CPU_] |210| 
    2784                      .dwpsn  file "C:/ti/motorware/motorware_1_01_00_18/sw/modules/traj/src/32b/traj.h",line 197,column 3,
    2785 0000038f 8A91          MOVL      XAR4,*+XAR1[AR0]      ; [CPU_] |197| 
    2786                      .dwpsn  file "C:/ti/motorware/motorware_1_01_00_18/sw/modules/traj/src/32b/traj.h",line 184,column 3,
    2787 00000390 D060          MOVB      XAR0,#96              ; [CPU_] |184| 
    2788                      .dwpsn  file "C:/ti/motorware/motorware_1_01_00_18/sw/modules/traj/src/32b/traj.h",line 197,column 3,
    2789 00000391 1EE4          MOVL      *+XAR4[4],ACC         ; [CPU_] |197| 
    2790                      .dwpsn  file "C:/ti/motorware/motorware_1_01_00_18/sw/modules/traj/src/32b/traj.h",line 184,column 3,
    2791 00000392 8A91          MOVL      XAR4,*+XAR1[AR0]      ; [CPU_] |184| 
    2792                      .dwpsn  file "C:/ti/motorware/motorware_1_01_00_18/sw/modules/traj/src/32b/traj.h",line 171,column 3,
    2793 00000393 D060          MOVB      XAR0,#96              ; [CPU_] |171| 
    2794                      .dwpsn  file "C:/ti/motorware/motorware_1_01_00_18/sw/modules/traj/src/32b/traj.h",line 184,column 3,
    2795 00000394 1EF4          MOVL      *+XAR4[6],ACC         ; [CPU_] |184| 
    2796                      .dwpsn  file "C:/ti/motorware/motorware_1_01_00_18/sw/modules/traj/src/32b/traj.h",line 171,column 3,
    2797 00000395 8A91          MOVL      XAR4,*+XAR1[AR0]      ; [CPU_] |171| 
    2798 00000396 D008          MOVB      XAR0,#8               ; [CPU_] |171| 
    2799 00000397 1E94          MOVL      *+XAR4[AR0],ACC       ; [CPU_] |171| 
    2800                      .dwpsn  file "C:/ti/motorware/motorware_1_01_00_18/sw/modules/traj/src/32b/traj.h",line 158,column 3,
    2801 00000398 D06C          MOVB      XAR0,#108             ; [CPU_] |158| 
    2802 00000399 8A91          MOVL      XAR4,*+XAR1[AR0]      ; [CPU_] |158| 
    2803                      .dwpsn  file "C:/ti/motorware/motorware_1_01_00_18/sw/modules/traj/src/32b/traj.h",line 210,column 3,
    2804 0000039a D06C          MOVB      XAR0,#108             ; [CPU_] |210| 
    2805                      .dwpsn  file "C:/ti/motorware/motorware_1_01_00_18/sw/modules/traj/src/32b/traj.h",line 158,column 3,
    2806 0000039b 1ED4          MOVL      *+XAR4[2],ACC         ; [CPU_] |158| 
    2807                      .dwpsn  file "C:/ti/motorware/motorware_1_01_00_18/sw/modules/traj/src/32b/traj.h",line 210,column 3,
    2808 0000039c 8A91          MOVL      XAR4,*+XAR1[AR0]      ; [CPU_] |210| 
    2809                      .dwpsn  file "C:/ti/motorware/motorware_1_01_00_18/sw/modules/traj/src/32b/traj.h",line 197,column 3,
    2810 0000039d D06C          MOVB      XAR0,#108             ; [CPU_] |197| 
    2811                      .dwpsn  file "C:/ti/motorware/motorware_1_01_00_18/sw/modules/traj/src/32b/traj.h",line 210,column 3,
    2812 0000039e 1EC4          MOVL      *+XAR4[0],ACC         ; [CPU_] |210| 
    2813                      .dwpsn  file "C:/ti/motorware/motorware_1_01_00_18/sw/modules/traj/src/32b/traj.h",line 197,column 3,
    2814 0000039f 8A91          MOVL      XAR4,*+XAR1[AR0]      ; [CPU_] |197| 
    2815                      .dwpsn  file "C:/ti/motorware/motorware_1_01_00_18/sw/modules/traj/src/32b/traj.h",line 184,column 3,
    2816 000003a0 D06C          MOVB      XAR0,#108             ; [CPU_] |184| 
    2817                      .dwpsn  file "C:/ti/motorware/motorware_1_01_00_18/sw/modules/traj/src/32b/traj.h",line 197,column 3,
    2818 000003a1 1EE4          MOVL      *+XAR4[4],ACC         ; [CPU_] |197| 
    2819                      .dwpsn  file "C:/ti/motorware/motorware_1_01_00_18/sw/modules/traj/src/32b/traj.h",line 184,column 3,
    2820 000003a2 8A91          MOVL      XAR4,*+XAR1[AR0]      ; [CPU_] |184| 
    2821                      .dwpsn  file "C:/ti/motorware/motorware_1_01_00_18/sw/modules/traj/src/32b/traj.h",line 171,column 3,
    2822 000003a3 D06C          MOVB      XAR0,#108             ; [CPU_] |171| 
    2823                      .dwpsn  file "C:/ti/motorware/motorware_1_01_00_18/sw/modules/traj/src/32b/traj.h",line 184,column 3,
    2824 000003a4 1EF4          MOVL      *+XAR4[6],ACC         ; [CPU_] |184| 
TMS320C2000 Assembler PC v6.2.5 Tue Jun 27 16:56:14 2017

Tools Copyright (c) 1996-2014 Texas Instruments Incorporated
C:\Users\wmj\AppData\Local\Temp\1139610                              PAGE   55

    2825                      .dwpsn  file "C:/ti/motorware/motorware_1_01_00_18/sw/modules/traj/src/32b/traj.h",line 171,column 3,
    2826 000003a5 8A91          MOVL      XAR4,*+XAR1[AR0]      ; [CPU_] |171| 
    2827 000003a6 D008          MOVB      XAR0,#8               ; [CPU_] |171| 
    2828 000003a7 1E94          MOVL      *+XAR4[AR0],ACC       ; [CPU_] |171| 
    2829                      .dwpsn  file "C:/ti/motorware/motorware_1_01_00_18/sw/modules/traj/src/32b/traj.h",line 158,column 3,
    2830 000003a8 D078          MOVB      XAR0,#120             ; [CPU_] |158| 
    2831 000003a9 8A91          MOVL      XAR4,*+XAR1[AR0]      ; [CPU_] |158| 
    2832                      .dwpsn  file "C:/ti/motorware/motorware_1_01_00_18/sw/modules/traj/src/32b/traj.h",line 210,column 3,
    2833 000003aa D078          MOVB      XAR0,#120             ; [CPU_] |210| 
    2834                      .dwpsn  file "C:/ti/motorware/motorware_1_01_00_18/sw/modules/traj/src/32b/traj.h",line 158,column 3,
    2835 000003ab 1ED4          MOVL      *+XAR4[2],ACC         ; [CPU_] |158| 
    2836                      .dwpsn  file "C:/ti/motorware/motorware_1_01_00_18/sw/modules/traj/src/32b/traj.h",line 210,column 3,
    2837 000003ac 8A91          MOVL      XAR4,*+XAR1[AR0]      ; [CPU_] |210| 
    2838                      .dwpsn  file "C:/ti/motorware/motorware_1_01_00_18/sw/modules/traj/src/32b/traj.h",line 197,column 3,
    2839 000003ad D078          MOVB      XAR0,#120             ; [CPU_] |197| 
    2840                      .dwpsn  file "C:/ti/motorware/motorware_1_01_00_18/sw/modules/traj/src/32b/traj.h",line 210,column 3,
    2841 000003ae 1EC4          MOVL      *+XAR4[0],ACC         ; [CPU_] |210| 
    2842                      .dwpsn  file "C:/ti/motorware/motorware_1_01_00_18/sw/modules/traj/src/32b/traj.h",line 197,column 3,
    2843 000003af 8A91          MOVL      XAR4,*+XAR1[AR0]      ; [CPU_] |197| 
    2844                      .dwpsn  file "C:/ti/motorware/motorware_1_01_00_18/sw/modules/traj/src/32b/traj.h",line 184,column 3,
    2845 000003b0 D078          MOVB      XAR0,#120             ; [CPU_] |184| 
    2846                      .dwpsn  file "C:/ti/motorware/motorware_1_01_00_18/sw/modules/traj/src/32b/traj.h",line 197,column 3,
    2847 000003b1 1EE4          MOVL      *+XAR4[4],ACC         ; [CPU_] |197| 
    2848                      .dwpsn  file "C:/ti/motorware/motorware_1_01_00_18/sw/modules/traj/src/32b/traj.h",line 184,column 3,
    2849 000003b2 8A91          MOVL      XAR4,*+XAR1[AR0]      ; [CPU_] |184| 
    2850                      .dwpsn  file "C:/ti/motorware/motorware_1_01_00_18/sw/modules/traj/src/32b/traj.h",line 171,column 3,
    2851 000003b3 D078          MOVB      XAR0,#120             ; [CPU_] |171| 
    2852                      .dwpsn  file "C:/ti/motorware/motorware_1_01_00_18/sw/modules/traj/src/32b/traj.h",line 184,column 3,
    2853 000003b4 1EF4          MOVL      *+XAR4[6],ACC         ; [CPU_] |184| 
    2854                      .dwpsn  file "C:/ti/motorware/motorware_1_01_00_18/sw/modules/traj/src/32b/traj.h",line 171,column 3,
    2855 000003b5 8A91          MOVL      XAR4,*+XAR1[AR0]      ; [CPU_] |171| 
    2856                      .dwpsn  file "C:/ti/motorware/motorware_1_01_00_18/sw/modules/ctrl/src/32b/ctrl.c",line 456,column 3,
    2857 000003b6 83A2          MOVL      XAR5,XAR2             ; [CPU_] |456| 
    2858                      .dwpsn  file "C:/ti/motorware/motorware_1_01_00_18/sw/modules/traj/src/32b/traj.h",line 171,column 3,
    2859 000003b7 D008          MOVB      XAR0,#8               ; [CPU_] |171| 
    2860 000003b8 1E94          MOVL      *+XAR4[AR0],ACC       ; [CPU_] |171| 
    2861                      .dwpsn  file "C:/ti/motorware/motorware_1_01_00_18/sw/modules/ctrl/src/32b/ctrl.c",line 456,column 3,
    2862 000003b9 D018          MOVB      XAR0,#24              ; [CPU_] |456| 
    2863 000003ba 8A91          MOVL      XAR4,*+XAR1[AR0]      ; [CPU_] |456| 
    2864              $C$DW$263       .dwtag  DW_TAG_TI_branch
    2865                      .dwattr $C$DW$263, DW_AT_low_pc(0x00)
    2866                      .dwattr $C$DW$263, DW_AT_name("_CTRL_setEstParams")
    2867                      .dwattr $C$DW$263, DW_AT_TI_call
    2868 000003bb 7640!         LCR       #_CTRL_setEstParams   ; [CPU_] |456| 
         000003bc 0000 
    2869                      ; call occurs [#_CTRL_setEstParams] ; [] |456| 
    2870                      .dwpsn  file "C:/ti/motorware/motorware_1_01_00_18/sw/modules/svgen/src/32b/svgen.h",line 184,column 
    2871 000003bd D05C          MOVB      XAR0,#92              ; [CPU_] |184| 
    2872 000003be 8A91          MOVL      XAR4,*+XAR1[AR0]      ; [CPU_] |184| 
    2873 000003bf 28A9          MOV       AL,#43691             ; [CPU_] |184| 
         000003c0 AAAB 
    2874 000003c1 9BAA          MOV       AH,#170               ; [CPU_] |184| 
    2875 000003c2 1EC4          MOVL      *+XAR4[0],ACC         ; [CPU_] |184| 
    2876 000003c3 FEAA          SUBB      SP,#42                ; [CPU_U] 
    2877                      .dwcfi  cfa_offset, -8
TMS320C2000 Assembler PC v6.2.5 Tue Jun 27 16:56:14 2017

Tools Copyright (c) 1996-2014 Texas Instruments Incorporated
C:\Users\wmj\AppData\Local\Temp\1139610                              PAGE   56

    2878 000003c4 82BE          MOVL      XAR3,*--SP            ; [CPU_] 
    2879                      .dwcfi  cfa_offset, -6
    2880                      .dwcfi  restore_reg, 11
    2881 000003c5 86BE          MOVL      XAR2,*--SP            ; [CPU_] 
    2882                      .dwcfi  cfa_offset, -4
    2883                      .dwcfi  restore_reg, 9
    2884 000003c6 8BBE          MOVL      XAR1,*--SP            ; [CPU_] 
    2885                      .dwcfi  cfa_offset, -2
    2886                      .dwcfi  restore_reg, 7
    2887              $C$DW$264       .dwtag  DW_TAG_TI_branch
    2888                      .dwattr $C$DW$264, DW_AT_low_pc(0x00)
    2889                      .dwattr $C$DW$264, DW_AT_TI_return
    2890 000003c7 0006          LRETR     ; [CPU_] 
    2891                      ; return occurs ; [] 
    2892                      .dwattr $C$DW$195, DW_AT_TI_end_file("C:/ti/motorware/motorware_1_01_00_18/sw/modules/ctrl/src/32b/ct
    2893                      .dwattr $C$DW$195, DW_AT_TI_end_line(0x1d0)
    2894                      .dwattr $C$DW$195, DW_AT_TI_end_column(0x01)
    2895                      .dwendentry
    2896                      .dwendtag $C$DW$195
    2897              
    2898 0000000a               .sect   "ramfuncs"
    2899                      .clink
    2900                      .global _CTRL_run
    2901              
    2902              $C$DW$265       .dwtag  DW_TAG_subprogram, DW_AT_name("CTRL_run")
    2903                      .dwattr $C$DW$265, DW_AT_low_pc(_CTRL_run)
    2904                      .dwattr $C$DW$265, DW_AT_high_pc(0x00)
    2905                      .dwattr $C$DW$265, DW_AT_TI_symbol_name("_CTRL_run")
    2906                      .dwattr $C$DW$265, DW_AT_external
    2907                      .dwattr $C$DW$265, DW_AT_TI_begin_file("C:/ti/motorware/motorware_1_01_00_18/sw/modules/ctrl/src/32b/
    2908                      .dwattr $C$DW$265, DW_AT_TI_begin_line(0xc3)
    2909                      .dwattr $C$DW$265, DW_AT_TI_begin_column(0x06)
    2910                      .dwattr $C$DW$265, DW_AT_TI_max_frame_size(-38)
    2911                      .dwpsn  file "C:/ti/motorware/motorware_1_01_00_18/sw/modules/ctrl/src/32b/ctrl.c",line 198,column 1,
    2912              
    2913                      .dwfde $C$DW$CIE, _CTRL_run
    2914              $C$DW$266       .dwtag  DW_TAG_formal_parameter, DW_AT_name("handle")
    2915                      .dwattr $C$DW$266, DW_AT_TI_symbol_name("_handle")
    2916                      .dwattr $C$DW$266, DW_AT_type(*$C$DW$T$161)
    2917                      .dwattr $C$DW$266, DW_AT_location[DW_OP_reg12]
    2918              $C$DW$267       .dwtag  DW_TAG_formal_parameter, DW_AT_name("halHandle")
    2919                      .dwattr $C$DW$267, DW_AT_TI_symbol_name("_halHandle")
    2920                      .dwattr $C$DW$267, DW_AT_type(*$C$DW$T$188)
    2921                      .dwattr $C$DW$267, DW_AT_location[DW_OP_reg14]
    2922              $C$DW$268       .dwtag  DW_TAG_formal_parameter, DW_AT_name("pAdcData")
    2923                      .dwattr $C$DW$268, DW_AT_TI_symbol_name("_pAdcData")
    2924                      .dwattr $C$DW$268, DW_AT_type(*$C$DW$T$180)
    2925                      .dwattr $C$DW$268, DW_AT_location[DW_OP_breg20 -40]
    2926              $C$DW$269       .dwtag  DW_TAG_formal_parameter, DW_AT_name("pPwmData")
    2927                      .dwattr $C$DW$269, DW_AT_TI_symbol_name("_pPwmData")
    2928                      .dwattr $C$DW$269, DW_AT_type(*$C$DW$T$192)
    2929                      .dwattr $C$DW$269, DW_AT_location[DW_OP_breg20 -42]
    2930              
    2931              ;***************************************************************
    2932              ;* FNAME: _CTRL_run                     FR SIZE:  36           *
TMS320C2000 Assembler PC v6.2.5 Tue Jun 27 16:56:14 2017

Tools Copyright (c) 1996-2014 Texas Instruments Incorporated
C:\Users\wmj\AppData\Local\Temp\1139610                              PAGE   57

    2933              ;*                                                             *
    2934              ;* FUNCTION ENVIRONMENT                                        *
    2935              ;*                                                             *
    2936              ;* FUNCTION PROPERTIES                                         *
    2937              ;*                            4 Parameter, 26 Auto,  6 SOE     *
    2938              ;***************************************************************
    2939              
    2940              _CTRL_run:
    2941              ;* AR4   assigned to $O$C36
    2942              ;* AL    assigned to $O$C37
    2943              ;* AR4   assigned to $O$C38
    2944              ;* AR5   assigned to $O$C39
    2945              ;* AR6   assigned to $O$C40
    2946              ;* AR1   assigned to $O$C41
    2947              ;* AR6   assigned to $O$C42
    2948              ;* AR0   assigned to $O$C43
    2949              ;* AR4   assigned to $O$C44
    2950              ;* AR1   assigned to $O$C45
    2951              ;* AR5   assigned to $O$C46
    2952              ;* AR5   assigned to $O$C47
    2953              ;* AR4   assigned to $O$C48
    2954              ;* AR5   assigned to $O$C49
    2955              ;* AR4   assigned to $O$C50
    2956              ;* AL    assigned to $O$C51
    2957              ;* AR6   assigned to $O$C52
    2958              ;* AR5   assigned to $O$C53
    2959              ;* AR4   assigned to $O$C54
    2960              ;* AR5   assigned to $O$C55
    2961              ;* AR4   assigned to $O$C56
    2962              ;* AL    assigned to $O$C57
    2963              ;* AR6   assigned to $O$C58
    2964              ;* AR4   assigned to $O$C59
    2965              ;* AL    assigned to $O$C60
    2966              ;* AR4   assigned to $O$C61
    2967              ;* AR5   assigned to $O$C62
    2968              ;* AR6   assigned to $O$C63
    2969              ;* AL    assigned to $O$C64
    2970              ;* AR0   assigned to $O$C65
    2971              ;* AR4   assigned to $O$C66
    2972              ;* AR1   assigned to $O$C67
    2973              ;* AR5   assigned to $O$C68
    2974              ;* AR5   assigned to $O$C69
    2975              ;* AR4   assigned to $O$C70
    2976              ;* AR5   assigned to $O$C71
    2977              ;* AR4   assigned to $O$C72
    2978              ;* AL    assigned to $O$C73
    2979              ;* AR6   assigned to $O$C74
    2980              ;* AR5   assigned to $O$C75
    2981              ;* AR4   assigned to $O$C76
    2982              ;* AR5   assigned to $O$C77
    2983              ;* AR4   assigned to $O$C78
    2984              ;* AL    assigned to $O$C79
    2985              ;* AR6   assigned to $O$C80
    2986              ;* AL    assigned to $O$C81
    2987              ;* AL    assigned to $O$C82
TMS320C2000 Assembler PC v6.2.5 Tue Jun 27 16:56:14 2017

Tools Copyright (c) 1996-2014 Texas Instruments Incorporated
C:\Users\wmj\AppData\Local\Temp\1139610                              PAGE   58

    2988              ;* AR4   assigned to $O$C83
    2989              ;* AR4   assigned to $O$C84
    2990              ;* AR4   assigned to _pInVec
    2991              $C$DW$270       .dwtag  DW_TAG_variable, DW_AT_name("pInVec")
    2992                      .dwattr $C$DW$270, DW_AT_TI_symbol_name("_pInVec")
    2993                      .dwattr $C$DW$270, DW_AT_type(*$C$DW$T$209)
    2994                      .dwattr $C$DW$270, DW_AT_location[DW_OP_reg12]
    2995              ;* AR5   assigned to _pOutVec
    2996              $C$DW$271       .dwtag  DW_TAG_variable, DW_AT_name("pOutVec")
    2997                      .dwattr $C$DW$271, DW_AT_TI_symbol_name("_pOutVec")
    2998                      .dwattr $C$DW$271, DW_AT_type(*$C$DW$T$200)
    2999                      .dwattr $C$DW$271, DW_AT_location[DW_OP_reg14]
    3000              ;* AR7   assigned to _alpha_sf
    3001              $C$DW$272       .dwtag  DW_TAG_variable, DW_AT_name("alpha_sf")
    3002                      .dwattr $C$DW$272, DW_AT_TI_symbol_name("_alpha_sf")
    3003                      .dwattr $C$DW$272, DW_AT_type(*$C$DW$T$32)
