TMS320C2000 Assembler PC v6.2.5 Tue Jun 27 16:56:14 2017

Tools Copyright (c) 1996-2014 Texas Instruments Incorporated
C:\Users\wmj\AppData\Local\Temp\1139610                              PAGE    1

       1              ;***************************************************************
       2              ;* TMS320C2000 C/C++ Codegen                         PC v6.2.5 *
       3              ;* Date/Time created: Tue Jun 27 16:56:13 2017                 *
       4              ;***************************************************************
       5                      .compiler_opts --float_support=softlib --hll_source=on --mem_model:code=flat --mem_model:data=large -
       6        0002  FP      .set    XAR2
       7              
       8              $C$DW$CU        .dwtag  DW_TAG_compile_unit
       9                      .dwattr $C$DW$CU, DW_AT_name("C:/ti/motorware/motorware_1_01_00_18/sw/modules/ctrl/src/32b/ctrl.c")
      10                      .dwattr $C$DW$CU, DW_AT_producer("TMS320C2000 C/C++ Codegen PC v6.2.5 Copyright (c) 1996-2014 Texas I
      11                      .dwattr $C$DW$CU, DW_AT_TI_version(0x01)
      12                      .dwattr $C$DW$CU, DW_AT_comp_dir("C:\ti\motorware\motorware_1_01_00_18\sw\solutions\instaspin_foc\boa
      13              
      14              ;**************************************************************
      15              ;* FUNCTION SYNONYMS                                          *
      16              ;**************************************************************
      17                      .global _CTRL_setMagCurrent_pu
      18        0439' _CTRL_setMagCurrent_pu  .set _CTRL_setIdRated_pu
      19                      .global _CTRL_setMaximumSpeed_pu
      20        043C' _CTRL_setMaximumSpeed_pu        .set _CTRL_setSpd_max_pu
      21                      .global _CTRL_getMaximumSpeed_pu
      22        043F' _CTRL_getMaximumSpeed_pu        .set _CTRL_getSpd_max_pu
      23                      .global _CTRL_getMagCurrent_pu
      24        0442' _CTRL_getMagCurrent_pu  .set _CTRL_getIdRated_pu
      25              
      26              $C$DW$1 .dwtag  DW_TAG_subprogram, DW_AT_name("CTRL_setEstParams")
      27                      .dwattr $C$DW$1, DW_AT_TI_symbol_name("_CTRL_setEstParams")
      28                      .dwattr $C$DW$1, DW_AT_declaration
      29                      .dwattr $C$DW$1, DW_AT_external
      30              $C$DW$2 .dwtag  DW_TAG_formal_parameter
      31                      .dwattr $C$DW$2, DW_AT_type(*$C$DW$T$47)
      32              $C$DW$3 .dwtag  DW_TAG_formal_parameter
      33                      .dwattr $C$DW$3, DW_AT_type(*$C$DW$T$219)
      34                      .dwendtag $C$DW$1
      35              
      36              
      37              $C$DW$4 .dwtag  DW_TAG_subprogram, DW_AT_name("CTRL_runTraj")
      38                      .dwattr $C$DW$4, DW_AT_TI_symbol_name("_CTRL_runTraj")
      39                      .dwattr $C$DW$4, DW_AT_declaration
      40                      .dwattr $C$DW$4, DW_AT_external
      41              $C$DW$5 .dwtag  DW_TAG_formal_parameter
      42                      .dwattr $C$DW$5, DW_AT_type(*$C$DW$T$161)
      43                      .dwendtag $C$DW$4
      44              
      45              
      46              $C$DW$6 .dwtag  DW_TAG_subprogram, DW_AT_name("CTRL_setupEstIdleState")
      47                      .dwattr $C$DW$6, DW_AT_TI_symbol_name("_CTRL_setupEstIdleState")
      48                      .dwattr $C$DW$6, DW_AT_declaration
      49                      .dwattr $C$DW$6, DW_AT_external
      50              $C$DW$7 .dwtag  DW_TAG_formal_parameter
      51                      .dwattr $C$DW$7, DW_AT_type(*$C$DW$T$161)
      52                      .dwendtag $C$DW$6
      53              
      54              
      55              $C$DW$8 .dwtag  DW_TAG_subprogram, DW_AT_name("CTRL_setUserMotorParams")
TMS320C2000 Assembler PC v6.2.5 Tue Jun 27 16:56:14 2017

Tools Copyright (c) 1996-2014 Texas Instruments Incorporated
C:\Users\wmj\AppData\Local\Temp\1139610                              PAGE    2

      56                      .dwattr $C$DW$8, DW_AT_TI_symbol_name("_CTRL_setUserMotorParams")
      57                      .dwattr $C$DW$8, DW_AT_declaration
      58                      .dwattr $C$DW$8, DW_AT_external
      59              $C$DW$9 .dwtag  DW_TAG_formal_parameter
      60                      .dwattr $C$DW$9, DW_AT_type(*$C$DW$T$161)
      61                      .dwendtag $C$DW$8
      62              
      63              
      64              $C$DW$10        .dwtag  DW_TAG_subprogram, DW_AT_name("CTRL_setupEstOnLineState")
      65                      .dwattr $C$DW$10, DW_AT_TI_symbol_name("_CTRL_setupEstOnLineState")
      66                      .dwattr $C$DW$10, DW_AT_declaration
      67                      .dwattr $C$DW$10, DW_AT_external
      68              $C$DW$11        .dwtag  DW_TAG_formal_parameter
      69                      .dwattr $C$DW$11, DW_AT_type(*$C$DW$T$161)
      70                      .dwendtag $C$DW$10
      71              
      72              
      73              $C$DW$12        .dwtag  DW_TAG_subprogram, DW_AT_name("CTRL_setupTraj")
      74                      .dwattr $C$DW$12, DW_AT_TI_symbol_name("_CTRL_setupTraj")
      75                      .dwattr $C$DW$12, DW_AT_declaration
      76                      .dwattr $C$DW$12, DW_AT_external
      77              $C$DW$13        .dwtag  DW_TAG_formal_parameter
      78                      .dwattr $C$DW$13, DW_AT_type(*$C$DW$T$161)
      79                      .dwendtag $C$DW$12
      80              
      81              
      82              $C$DW$14        .dwtag  DW_TAG_subprogram, DW_AT_name("CTRL_setupCtrl")
      83                      .dwattr $C$DW$14, DW_AT_TI_symbol_name("_CTRL_setupCtrl")
      84                      .dwattr $C$DW$14, DW_AT_declaration
      85                      .dwattr $C$DW$14, DW_AT_external
      86              $C$DW$15        .dwtag  DW_TAG_formal_parameter
      87                      .dwattr $C$DW$15, DW_AT_type(*$C$DW$T$161)
      88                      .dwendtag $C$DW$14
      89              
      90              
      91              $C$DW$16        .dwtag  DW_TAG_subprogram, DW_AT_name("EST_setRs_pu")
      92                      .dwattr $C$DW$16, DW_AT_TI_symbol_name("_EST_setRs_pu")
      93                      .dwattr $C$DW$16, DW_AT_declaration
      94                      .dwattr $C$DW$16, DW_AT_external
      95              $C$DW$17        .dwtag  DW_TAG_formal_parameter
      96                      .dwattr $C$DW$17, DW_AT_type(*$C$DW$T$47)
      97              $C$DW$18        .dwtag  DW_TAG_formal_parameter
      98                      .dwattr $C$DW$18, DW_AT_type(*$C$DW$T$226)
      99                      .dwendtag $C$DW$16
     100              
     101              
     102              $C$DW$19        .dwtag  DW_TAG_subprogram, DW_AT_name("EST_setIq_ref_pu")
     103                      .dwattr $C$DW$19, DW_AT_TI_symbol_name("_EST_setIq_ref_pu")
     104                      .dwattr $C$DW$19, DW_AT_declaration
     105                      .dwattr $C$DW$19, DW_AT_external
     106              $C$DW$20        .dwtag  DW_TAG_formal_parameter
     107                      .dwattr $C$DW$20, DW_AT_type(*$C$DW$T$47)
     108              $C$DW$21        .dwtag  DW_TAG_formal_parameter
     109                      .dwattr $C$DW$21, DW_AT_type(*$C$DW$T$226)
     110                      .dwendtag $C$DW$19
TMS320C2000 Assembler PC v6.2.5 Tue Jun 27 16:56:14 2017

Tools Copyright (c) 1996-2014 Texas Instruments Incorporated
C:\Users\wmj\AppData\Local\Temp\1139610                              PAGE    3

     111              
     112              
     113              $C$DW$22        .dwtag  DW_TAG_subprogram, DW_AT_name("EST_updateId_ref_pu")
     114                      .dwattr $C$DW$22, DW_AT_TI_symbol_name("_EST_updateId_ref_pu")
     115                      .dwattr $C$DW$22, DW_AT_declaration
     116                      .dwattr $C$DW$22, DW_AT_external
     117              $C$DW$23        .dwtag  DW_TAG_formal_parameter
     118                      .dwattr $C$DW$23, DW_AT_type(*$C$DW$T$47)
     119              $C$DW$24        .dwtag  DW_TAG_formal_parameter
     120                      .dwattr $C$DW$24, DW_AT_type(*$C$DW$T$233)
     121                      .dwendtag $C$DW$22
     122              
     123              
     124              $C$DW$25        .dwtag  DW_TAG_subprogram, DW_AT_name("EST_setIdle")
     125                      .dwattr $C$DW$25, DW_AT_TI_symbol_name("_EST_setIdle")
     126                      .dwattr $C$DW$25, DW_AT_declaration
     127                      .dwattr $C$DW$25, DW_AT_external
     128              $C$DW$26        .dwtag  DW_TAG_formal_parameter
     129                      .dwattr $C$DW$26, DW_AT_type(*$C$DW$T$47)
     130                      .dwendtag $C$DW$25
     131              
     132              
     133              $C$DW$27        .dwtag  DW_TAG_subprogram, DW_AT_name("EST_run")
     134                      .dwattr $C$DW$27, DW_AT_TI_symbol_name("_EST_run")
     135                      .dwattr $C$DW$27, DW_AT_declaration
     136                      .dwattr $C$DW$27, DW_AT_external
     137              $C$DW$28        .dwtag  DW_TAG_formal_parameter
     138                      .dwattr $C$DW$28, DW_AT_type(*$C$DW$T$47)
     139              $C$DW$29        .dwtag  DW_TAG_formal_parameter
     140                      .dwattr $C$DW$29, DW_AT_type(*$C$DW$T$198)
     141              $C$DW$30        .dwtag  DW_TAG_formal_parameter
     142                      .dwattr $C$DW$30, DW_AT_type(*$C$DW$T$198)
     143              $C$DW$31        .dwtag  DW_TAG_formal_parameter
     144                      .dwattr $C$DW$31, DW_AT_type(*$C$DW$T$226)
     145              $C$DW$32        .dwtag  DW_TAG_formal_parameter
     146                      .dwattr $C$DW$32, DW_AT_type(*$C$DW$T$226)
     147                      .dwendtag $C$DW$27
     148              
     149              
     150              $C$DW$33        .dwtag  DW_TAG_subprogram, DW_AT_name("EST_setId_ref_pu")
     151                      .dwattr $C$DW$33, DW_AT_TI_symbol_name("_EST_setId_ref_pu")
     152                      .dwattr $C$DW$33, DW_AT_declaration
     153                      .dwattr $C$DW$33, DW_AT_external
     154              $C$DW$34        .dwtag  DW_TAG_formal_parameter
     155                      .dwattr $C$DW$34, DW_AT_type(*$C$DW$T$47)
     156              $C$DW$35        .dwtag  DW_TAG_formal_parameter
     157                      .dwattr $C$DW$35, DW_AT_type(*$C$DW$T$226)
     158                      .dwendtag $C$DW$33
     159              
     160              
     161              $C$DW$36        .dwtag  DW_TAG_subprogram, DW_AT_name("EST_setIdle_all")
     162                      .dwattr $C$DW$36, DW_AT_TI_symbol_name("_EST_setIdle_all")
     163                      .dwattr $C$DW$36, DW_AT_declaration
     164                      .dwattr $C$DW$36, DW_AT_external
     165              $C$DW$37        .dwtag  DW_TAG_formal_parameter
TMS320C2000 Assembler PC v6.2.5 Tue Jun 27 16:56:14 2017

Tools Copyright (c) 1996-2014 Texas Instruments Incorporated
C:\Users\wmj\AppData\Local\Temp\1139610                              PAGE    4

     166                      .dwattr $C$DW$37, DW_AT_type(*$C$DW$T$47)
     167                      .dwendtag $C$DW$36
     168              
     169              
     170              $C$DW$38        .dwtag  DW_TAG_subprogram, DW_AT_name("EST_getState")
     171                      .dwattr $C$DW$38, DW_AT_TI_symbol_name("_EST_getState")
     172                      .dwattr $C$DW$38, DW_AT_type(*$C$DW$T$166)
     173                      .dwattr $C$DW$38, DW_AT_declaration
     174                      .dwattr $C$DW$38, DW_AT_external
     175              $C$DW$39        .dwtag  DW_TAG_formal_parameter
     176                      .dwattr $C$DW$39, DW_AT_type(*$C$DW$T$47)
     177                      .dwendtag $C$DW$38
     178              
     179              
     180              $C$DW$40        .dwtag  DW_TAG_subprogram, DW_AT_name("EST_isError")
     181                      .dwattr $C$DW$40, DW_AT_TI_symbol_name("_EST_isError")
     182                      .dwattr $C$DW$40, DW_AT_type(*$C$DW$T$70)
     183                      .dwattr $C$DW$40, DW_AT_declaration
     184                      .dwattr $C$DW$40, DW_AT_external
     185              $C$DW$41        .dwtag  DW_TAG_formal_parameter
     186                      .dwattr $C$DW$41, DW_AT_type(*$C$DW$T$47)
     187                      .dwendtag $C$DW$40
     188              
     189              
     190              $C$DW$42        .dwtag  DW_TAG_subprogram, DW_AT_name("EST_isMotorIdentified")
     191                      .dwattr $C$DW$42, DW_AT_TI_symbol_name("_EST_isMotorIdentified")
     192                      .dwattr $C$DW$42, DW_AT_type(*$C$DW$T$70)
     193                      .dwattr $C$DW$42, DW_AT_declaration
     194                      .dwattr $C$DW$42, DW_AT_external
     195              $C$DW$43        .dwtag  DW_TAG_formal_parameter
     196                      .dwattr $C$DW$43, DW_AT_type(*$C$DW$T$47)
     197                      .dwendtag $C$DW$42
     198              
     199              
     200              $C$DW$44        .dwtag  DW_TAG_subprogram, DW_AT_name("EST_isOnLine")
     201                      .dwattr $C$DW$44, DW_AT_TI_symbol_name("_EST_isOnLine")
     202                      .dwattr $C$DW$44, DW_AT_type(*$C$DW$T$70)
     203                      .dwattr $C$DW$44, DW_AT_declaration
     204                      .dwattr $C$DW$44, DW_AT_external
     205              $C$DW$45        .dwtag  DW_TAG_formal_parameter
     206                      .dwattr $C$DW$45, DW_AT_type(*$C$DW$T$47)
     207                      .dwendtag $C$DW$44
     208              
     209              
     210              $C$DW$46        .dwtag  DW_TAG_subprogram, DW_AT_name("EST_isIdle")
     211                      .dwattr $C$DW$46, DW_AT_TI_symbol_name("_EST_isIdle")
     212                      .dwattr $C$DW$46, DW_AT_type(*$C$DW$T$70)
     213                      .dwattr $C$DW$46, DW_AT_declaration
     214                      .dwattr $C$DW$46, DW_AT_external
     215              $C$DW$47        .dwtag  DW_TAG_formal_parameter
     216                      .dwattr $C$DW$47, DW_AT_type(*$C$DW$T$47)
     217                      .dwendtag $C$DW$46
     218              
     219              
     220              $C$DW$48        .dwtag  DW_TAG_subprogram, DW_AT_name("EST_isLockRotor")
TMS320C2000 Assembler PC v6.2.5 Tue Jun 27 16:56:14 2017

Tools Copyright (c) 1996-2014 Texas Instruments Incorporated
C:\Users\wmj\AppData\Local\Temp\1139610                              PAGE    5

     221                      .dwattr $C$DW$48, DW_AT_TI_symbol_name("_EST_isLockRotor")
     222                      .dwattr $C$DW$48, DW_AT_type(*$C$DW$T$70)
     223                      .dwattr $C$DW$48, DW_AT_declaration
     224                      .dwattr $C$DW$48, DW_AT_external
     225              $C$DW$49        .dwtag  DW_TAG_formal_parameter
     226                      .dwattr $C$DW$49, DW_AT_type(*$C$DW$T$47)
     227                      .dwendtag $C$DW$48
     228              
     229              
     230              $C$DW$50        .dwtag  DW_TAG_subprogram, DW_AT_name("EST_doCurrentCtrl")
     231                      .dwattr $C$DW$50, DW_AT_TI_symbol_name("_EST_doCurrentCtrl")
     232                      .dwattr $C$DW$50, DW_AT_type(*$C$DW$T$70)
     233                      .dwattr $C$DW$50, DW_AT_declaration
     234                      .dwattr $C$DW$50, DW_AT_external
     235              $C$DW$51        .dwtag  DW_TAG_formal_parameter
     236                      .dwattr $C$DW$51, DW_AT_type(*$C$DW$T$47)
     237                      .dwendtag $C$DW$50
     238              
     239              
     240              $C$DW$52        .dwtag  DW_TAG_subprogram, DW_AT_name("EST_doSpeedCtrl")
     241                      .dwattr $C$DW$52, DW_AT_TI_symbol_name("_EST_doSpeedCtrl")
     242                      .dwattr $C$DW$52, DW_AT_type(*$C$DW$T$70)
     243                      .dwattr $C$DW$52, DW_AT_declaration
     244                      .dwattr $C$DW$52, DW_AT_external
     245              $C$DW$53        .dwtag  DW_TAG_formal_parameter
     246                      .dwattr $C$DW$53, DW_AT_type(*$C$DW$T$47)
     247                      .dwendtag $C$DW$52
     248              
     249              
     250              $C$DW$54        .dwtag  DW_TAG_subprogram, DW_AT_name("EST_updateState")
     251                      .dwattr $C$DW$54, DW_AT_TI_symbol_name("_EST_updateState")
     252                      .dwattr $C$DW$54, DW_AT_type(*$C$DW$T$70)
     253                      .dwattr $C$DW$54, DW_AT_declaration
     254                      .dwattr $C$DW$54, DW_AT_external
     255              $C$DW$55        .dwtag  DW_TAG_formal_parameter
     256                      .dwattr $C$DW$55, DW_AT_type(*$C$DW$T$47)
     257              $C$DW$56        .dwtag  DW_TAG_formal_parameter
     258                      .dwattr $C$DW$56, DW_AT_type(*$C$DW$T$226)
     259                      .dwendtag $C$DW$54
     260              
     261              
     262              $C$DW$57        .dwtag  DW_TAG_subprogram, DW_AT_name("EST_useZeroIq_ref")
     263                      .dwattr $C$DW$57, DW_AT_TI_symbol_name("_EST_useZeroIq_ref")
     264                      .dwattr $C$DW$57, DW_AT_type(*$C$DW$T$70)
     265                      .dwattr $C$DW$57, DW_AT_declaration
     266                      .dwattr $C$DW$57, DW_AT_external
     267              $C$DW$58        .dwtag  DW_TAG_formal_parameter
     268                      .dwattr $C$DW$58, DW_AT_type(*$C$DW$T$47)
     269                      .dwendtag $C$DW$57
     270              
     271              
     272              $C$DW$59        .dwtag  DW_TAG_subprogram, DW_AT_name("_IQ24cosPU")
     273                      .dwattr $C$DW$59, DW_AT_TI_symbol_name("__IQ24cosPU")
     274                      .dwattr $C$DW$59, DW_AT_type(*$C$DW$T$12)
     275                      .dwattr $C$DW$59, DW_AT_declaration
TMS320C2000 Assembler PC v6.2.5 Tue Jun 27 16:56:14 2017

Tools Copyright (c) 1996-2014 Texas Instruments Incorporated
C:\Users\wmj\AppData\Local\Temp\1139610                              PAGE    6

     276                      .dwattr $C$DW$59, DW_AT_external
     277              $C$DW$60        .dwtag  DW_TAG_formal_parameter
     278                      .dwattr $C$DW$60, DW_AT_type(*$C$DW$T$12)
     279                      .dwendtag $C$DW$59
     280              
     281              
     282              $C$DW$61        .dwtag  DW_TAG_subprogram, DW_AT_name("_IQ24sinPU")
     283                      .dwattr $C$DW$61, DW_AT_TI_symbol_name("__IQ24sinPU")
     284                      .dwattr $C$DW$61, DW_AT_type(*$C$DW$T$12)
     285                      .dwattr $C$DW$61, DW_AT_declaration
     286                      .dwattr $C$DW$61, DW_AT_external
     287              $C$DW$62        .dwtag  DW_TAG_formal_parameter
     288                      .dwattr $C$DW$62, DW_AT_type(*$C$DW$T$12)
     289                      .dwendtag $C$DW$61
     290              
     291              
     292              $C$DW$63        .dwtag  DW_TAG_subprogram, DW_AT_name("__IQmpy")
     293                      .dwattr $C$DW$63, DW_AT_TI_symbol_name("___IQmpy")
     294                      .dwattr $C$DW$63, DW_AT_type(*$C$DW$T$12)
     295                      .dwattr $C$DW$63, DW_AT_declaration
     296                      .dwattr $C$DW$63, DW_AT_external
     297              $C$DW$64        .dwtag  DW_TAG_formal_parameter
     298                      .dwattr $C$DW$64, DW_AT_type(*$C$DW$T$12)
     299              $C$DW$65        .dwtag  DW_TAG_formal_parameter
     300                      .dwattr $C$DW$65, DW_AT_type(*$C$DW$T$12)
     301              $C$DW$66        .dwtag  DW_TAG_formal_parameter
     302                      .dwattr $C$DW$66, DW_AT_type(*$C$DW$T$10)
     303                      .dwendtag $C$DW$63
     304              
     305              
     306              $C$DW$67        .dwtag  DW_TAG_subprogram, DW_AT_name("labs")
     307                      .dwattr $C$DW$67, DW_AT_TI_symbol_name("_labs")
     308                      .dwattr $C$DW$67, DW_AT_type(*$C$DW$T$12)
     309                      .dwattr $C$DW$67, DW_AT_declaration
     310                      .dwattr $C$DW$67, DW_AT_external
     311              $C$DW$68        .dwtag  DW_TAG_formal_parameter
     312                      .dwattr $C$DW$68, DW_AT_type(*$C$DW$T$12)
     313                      .dwendtag $C$DW$67
     314              
     315              
     316              $C$DW$69        .dwtag  DW_TAG_subprogram, DW_AT_name("_IQ24sqrt")
     317                      .dwattr $C$DW$69, DW_AT_TI_symbol_name("__IQ24sqrt")
     318                      .dwattr $C$DW$69, DW_AT_type(*$C$DW$T$12)
     319                      .dwattr $C$DW$69, DW_AT_declaration
     320                      .dwattr $C$DW$69, DW_AT_external
     321              $C$DW$70        .dwtag  DW_TAG_formal_parameter
     322                      .dwattr $C$DW$70, DW_AT_type(*$C$DW$T$12)
     323                      .dwendtag $C$DW$69
     324              
     325              
     326              $C$DW$71        .dwtag  DW_TAG_subprogram, DW_AT_name("__IQsat")
     327                      .dwattr $C$DW$71, DW_AT_TI_symbol_name("___IQsat")
     328                      .dwattr $C$DW$71, DW_AT_type(*$C$DW$T$12)
     329                      .dwattr $C$DW$71, DW_AT_declaration
     330                      .dwattr $C$DW$71, DW_AT_external
TMS320C2000 Assembler PC v6.2.5 Tue Jun 27 16:56:14 2017

Tools Copyright (c) 1996-2014 Texas Instruments Incorporated
C:\Users\wmj\AppData\Local\Temp\1139610                              PAGE    7

     331              $C$DW$72        .dwtag  DW_TAG_formal_parameter
     332                      .dwattr $C$DW$72, DW_AT_type(*$C$DW$T$12)
     333              $C$DW$73        .dwtag  DW_TAG_formal_parameter
     334                      .dwattr $C$DW$73, DW_AT_type(*$C$DW$T$12)
     335              $C$DW$74        .dwtag  DW_TAG_formal_parameter
     336                      .dwattr $C$DW$74, DW_AT_type(*$C$DW$T$12)
     337                      .dwendtag $C$DW$71
     338              
     339              
     340              $C$DW$75        .dwtag  DW_TAG_subprogram, DW_AT_name("EST_get_krpm_to_pu_sf")
     341                      .dwattr $C$DW$75, DW_AT_TI_symbol_name("_EST_get_krpm_to_pu_sf")
     342                      .dwattr $C$DW$75, DW_AT_type(*$C$DW$T$32)
     343                      .dwattr $C$DW$75, DW_AT_declaration
     344                      .dwattr $C$DW$75, DW_AT_external
     345              $C$DW$76        .dwtag  DW_TAG_formal_parameter
     346                      .dwattr $C$DW$76, DW_AT_type(*$C$DW$T$47)
     347                      .dwendtag $C$DW$75
     348              
     349              
     350              $C$DW$77        .dwtag  DW_TAG_subprogram, DW_AT_name("EST_getFm_pu")
     351                      .dwattr $C$DW$77, DW_AT_TI_symbol_name("_EST_getFm_pu")
     352                      .dwattr $C$DW$77, DW_AT_type(*$C$DW$T$32)
     353                      .dwattr $C$DW$77, DW_AT_declaration
     354                      .dwattr $C$DW$77, DW_AT_external
     355              $C$DW$78        .dwtag  DW_TAG_formal_parameter
     356                      .dwattr $C$DW$78, DW_AT_type(*$C$DW$T$47)
     357                      .dwendtag $C$DW$77
     358              
     359              
     360              $C$DW$79        .dwtag  DW_TAG_subprogram, DW_AT_name("EST_getOneOverDcBus_pu")
     361                      .dwattr $C$DW$79, DW_AT_TI_symbol_name("_EST_getOneOverDcBus_pu")
     362                      .dwattr $C$DW$79, DW_AT_type(*$C$DW$T$32)
     363                      .dwattr $C$DW$79, DW_AT_declaration
     364                      .dwattr $C$DW$79, DW_AT_external
     365              $C$DW$80        .dwtag  DW_TAG_formal_parameter
     366                      .dwattr $C$DW$80, DW_AT_type(*$C$DW$T$47)
     367                      .dwendtag $C$DW$79
     368              
     369              
     370              $C$DW$81        .dwtag  DW_TAG_subprogram, DW_AT_name("EST_getAngle_pu")
     371                      .dwattr $C$DW$81, DW_AT_TI_symbol_name("_EST_getAngle_pu")
     372                      .dwattr $C$DW$81, DW_AT_type(*$C$DW$T$32)
     373                      .dwattr $C$DW$81, DW_AT_declaration
     374                      .dwattr $C$DW$81, DW_AT_external
     375              $C$DW$82        .dwtag  DW_TAG_formal_parameter
     376                      .dwattr $C$DW$82, DW_AT_type(*$C$DW$T$47)
     377                      .dwendtag $C$DW$81
     378              
     379 00000000               .sect   ".econst"
     380                      .align  2
     381 00000000       _$P$T4$5:
     382 00000000 0000          .bits   0,32                    ; _$P$T4$5._value[0] @ 0
         00000001 0000 
     383 00000002 0000          .bits   0,32                    ; _$P$T4$5._value[1] @ 32
         00000003 0000 
TMS320C2000 Assembler PC v6.2.5 Tue Jun 27 16:56:14 2017

Tools Copyright (c) 1996-2014 Texas Instruments Incorporated
C:\Users\wmj\AppData\Local\Temp\1139610                              PAGE    8

     384              
     385              $C$DW$83        .dwtag  DW_TAG_variable, DW_AT_name("$P$T4$5")
     386                      .dwattr $C$DW$83, DW_AT_TI_symbol_name("_$P$T4$5")
     387                      .dwattr $C$DW$83, DW_AT_type(*$C$DW$T$197)
     388                      .dwattr $C$DW$83, DW_AT_location[DW_OP_addr _$P$T4$5]
     389 00000004               .sect   ".econst"
     390                      .align  2
     391 00000004       _$P$T5$6:
     392 00000004 0000          .bits   0,32                    ; _$P$T5$6._value[0] @ 0
         00000005 0000 
     393 00000006 0000          .bits   0,32                    ; _$P$T5$6._value[1] @ 32
         00000007 0000 
     394              
     395              $C$DW$84        .dwtag  DW_TAG_variable, DW_AT_name("$P$T5$6")
     396                      .dwattr $C$DW$84, DW_AT_TI_symbol_name("_$P$T5$6")
     397                      .dwattr $C$DW$84, DW_AT_type(*$C$DW$T$197)
     398                      .dwattr $C$DW$84, DW_AT_location[DW_OP_addr _$P$T5$6]
     399 00000008               .sect   ".econst"
     400                      .align  2
     401 00000008       _$P$T3$4:
     402 00000008 0000          .bits   0,32                    ; _$P$T3$4._value[0] @ 0
         00000009 0000 
     403 0000000a 0000          .bits   0,32                    ; _$P$T3$4._value[1] @ 32
         0000000b 0000 
     404              
     405              $C$DW$85        .dwtag  DW_TAG_variable, DW_AT_name("$P$T3$4")
     406                      .dwattr $C$DW$85, DW_AT_TI_symbol_name("_$P$T3$4")
     407                      .dwattr $C$DW$85, DW_AT_type(*$C$DW$T$197)
     408                      .dwattr $C$DW$85, DW_AT_location[DW_OP_addr _$P$T3$4]
     409 0000000c               .sect   ".econst"
     410                      .align  2
     411 0000000c       _$P$T1$2:
     412 0000000c 0000          .bits   0,32                    ; _$P$T1$2._value[0] @ 0
         0000000d 0000 
     413 0000000e 0000          .bits   0,32                    ; _$P$T1$2._value[1] @ 32
         0000000f 0000 
     414              
     415              $C$DW$86        .dwtag  DW_TAG_variable, DW_AT_name("$P$T1$2")
     416                      .dwattr $C$DW$86, DW_AT_TI_symbol_name("_$P$T1$2")
     417                      .dwattr $C$DW$86, DW_AT_type(*$C$DW$T$197)
     418                      .dwattr $C$DW$86, DW_AT_location[DW_OP_addr _$P$T1$2]
     419 00000010               .sect   ".econst"
     420                      .align  2
     421 00000010       _$P$T2$3:
     422 00000010 0000          .bits   0,32                    ; _$P$T2$3._value[0] @ 0
         00000011 0000 
     423 00000012 0000          .bits   0,32                    ; _$P$T2$3._value[1] @ 32
         00000013 0000 
     424              
     425              $C$DW$87        .dwtag  DW_TAG_variable, DW_AT_name("$P$T2$3")
     426                      .dwattr $C$DW$87, DW_AT_TI_symbol_name("_$P$T2$3")
     427                      .dwattr $C$DW$87, DW_AT_type(*$C$DW$T$197)
     428                      .dwattr $C$DW$87, DW_AT_location[DW_OP_addr _$P$T2$3]
     429 00000014               .sect   ".econst"
     430                      .align  2
TMS320C2000 Assembler PC v6.2.5 Tue Jun 27 16:56:14 2017

Tools Copyright (c) 1996-2014 Texas Instruments Incorporated
C:\Users\wmj\AppData\Local\Temp\1139610                              PAGE    9

     431 00000014       _$P$T0$1:
     432 00000014 0000          .bits   0,32                    ; _$P$T0$1._value[0] @ 0
         00000015 0000 
     433 00000016 0000          .bits   0,32                    ; _$P$T0$1._value[1] @ 32
         00000017 0000 
     434              
     435              $C$DW$88        .dwtag  DW_TAG_variable, DW_AT_name("$P$T0$1")
     436                      .dwattr $C$DW$88, DW_AT_TI_symbol_name("_$P$T0$1")
     437                      .dwattr $C$DW$88, DW_AT_type(*$C$DW$T$197)
     438                      .dwattr $C$DW$88, DW_AT_location[DW_OP_addr _$P$T0$1]
     439              ;       c:\ti\ccsv6\tools\compiler\c2000_6.2.5\bin\opt2000.exe C:\\Users\\wmj\\AppData\\Local\\Temp\\113962 C
     440              ;       c:\ti\ccsv6\tools\compiler\c2000_6.2.5\bin\ac2000.exe -@C:\\Users\\wmj\\AppData\\Local\\Temp\\1139616
     441 00000000               .sect   ".text"
     442                      .clink
     443                      .global _CTRL_updateState
     444              
     445              $C$DW$89        .dwtag  DW_TAG_subprogram, DW_AT_name("CTRL_updateState")
     446                      .dwattr $C$DW$89, DW_AT_low_pc(_CTRL_updateState)
     447                      .dwattr $C$DW$89, DW_AT_high_pc(0x00)
     448                      .dwattr $C$DW$89, DW_AT_TI_symbol_name("_CTRL_updateState")
     449                      .dwattr $C$DW$89, DW_AT_external
     450                      .dwattr $C$DW$89, DW_AT_type(*$C$DW$T$70)
     451                      .dwattr $C$DW$89, DW_AT_TI_begin_file("C:/ti/motorware/motorware_1_01_00_18/sw/modules/ctrl/src/32b/c
     452                      .dwattr $C$DW$89, DW_AT_TI_begin_line(0x284)
     453                      .dwattr $C$DW$89, DW_AT_TI_begin_column(0x06)
     454                      .dwattr $C$DW$89, DW_AT_TI_max_frame_size(-12)
     455                      .dwpsn  file "C:/ti/motorware/motorware_1_01_00_18/sw/modules/ctrl/src/32b/ctrl.c",line 645,column 1,
     456              
     457                      .dwfde $C$DW$CIE, _CTRL_updateState
     458              $C$DW$90        .dwtag  DW_TAG_formal_parameter, DW_AT_name("handle")
     459                      .dwattr $C$DW$90, DW_AT_TI_symbol_name("_handle")
     460                      .dwattr $C$DW$90, DW_AT_type(*$C$DW$T$161)
     461                      .dwattr $C$DW$90, DW_AT_location[DW_OP_reg12]
     462              
     463              ;***************************************************************
     464              ;* FNAME: _CTRL_updateState             FR SIZE:  10           *
     465              ;*                                                             *
     466              ;* FUNCTION ENVIRONMENT                                        *
     467              ;*                                                             *
     468              ;* FUNCTION PROPERTIES                                         *
     469              ;*                            0 Parameter,  4 Auto,  6 SOE     *
     470              ;***************************************************************
     471              
     472              _CTRL_updateState:
     473              ;* AR3   assigned to _counter_ctrlState
     474              $C$DW$91        .dwtag  DW_TAG_variable, DW_AT_name("counter_ctrlState")
     475                      .dwattr $C$DW$91, DW_AT_TI_symbol_name("_counter_ctrlState")
     476                      .dwattr $C$DW$91, DW_AT_type(*$C$DW$T$65)
     477                      .dwattr $C$DW$91, DW_AT_location[DW_OP_reg10]
     478              $C$DW$92        .dwtag  DW_TAG_variable, DW_AT_name("waitTime")
     479                      .dwattr $C$DW$92, DW_AT_TI_symbol_name("_waitTime")
     480                      .dwattr $C$DW$92, DW_AT_type(*$C$DW$T$65)
     481                      .dwattr $C$DW$92, DW_AT_location[DW_OP_breg20 -4]
     482              ;* AR1   assigned to _stateChanged
     483              $C$DW$93        .dwtag  DW_TAG_variable, DW_AT_name("stateChanged")
TMS320C2000 Assembler PC v6.2.5 Tue Jun 27 16:56:14 2017

Tools Copyright (c) 1996-2014 Texas Instruments Incorporated
C:\Users\wmj\AppData\Local\Temp\1139610                              PAGE   10

     484                      .dwattr $C$DW$93, DW_AT_TI_symbol_name("_stateChanged")
     485                      .dwattr $C$DW$93, DW_AT_type(*$C$DW$T$70)
     486                      .dwattr $C$DW$93, DW_AT_location[DW_OP_reg6]
     487              $C$DW$94        .dwtag  DW_TAG_variable, DW_AT_name("ctrlState")
     488                      .dwattr $C$DW$94, DW_AT_TI_symbol_name("_ctrlState")
     489                      .dwattr $C$DW$94, DW_AT_type(*$C$DW$T$40)
     490                      .dwattr $C$DW$94, DW_AT_location[DW_OP_breg20 -1]
     491              ;* AR2   assigned to _handle
     492              $C$DW$95        .dwtag  DW_TAG_variable, DW_AT_name("handle")
     493                      .dwattr $C$DW$95, DW_AT_TI_symbol_name("_handle")
     494                      .dwattr $C$DW$95, DW_AT_type(*$C$DW$T$175)
     495                      .dwattr $C$DW$95, DW_AT_location[DW_OP_reg8]
     496                      .dwcfi  cfa_offset, -2
     497                      .dwcfi  save_reg_to_mem, 26, 0
     498                      .dwcfi  save_reg_to_reg, 78, 26
     499 00000000 B2BD          MOVL      *SP++,XAR1            ; [CPU_] 
     500                      .dwcfi  save_reg_to_mem, 7, 2
     501                      .dwcfi  cfa_offset, -4
     502 00000001 AABD          MOVL      *SP++,XAR2            ; [CPU_] 
     503                      .dwcfi  save_reg_to_mem, 9, 4
     504                      .dwcfi  cfa_offset, -6
     505 00000002 A2BD          MOVL      *SP++,XAR3            ; [CPU_] 
     506                      .dwcfi  save_reg_to_mem, 11, 6
     507                      .dwcfi  cfa_offset, -8
     508 00000003 FE04          ADDB      SP,#4                 ; [CPU_U] 
     509                      .dwcfi  cfa_offset, -12
     510 00000004 86A4          MOVL      XAR2,XAR4             ; [CPU_] |645| 
     511                      .dwpsn  file "C:/ti/motorware/motorware_1_01_00_18/sw/modules/ctrl/src/32b/ctrl.c",line 651,column 3,
     512 00000005 D0F0          MOVB      XAR0,#240             ; [CPU_] |651| 
     513                      .dwpsn  file "C:/ti/motorware/motorware_1_01_00_18/sw/modules/ctrl/src/32b/ctrl.c",line 648,column 21
     514 00000006 D100          MOVB      XAR1,#0               ; [CPU_] |648| 
     515                      .dwpsn  file "C:/ti/motorware/motorware_1_01_00_18/sw/modules/ctrl/src/32b/ctrl.h",line 771,column 3,
     516 00000007 92E2          MOV       AL,*+XAR2[4]          ; [CPU_] |771| 
     517 00000008 9641          MOV       *-SP[1],AL            ; [CPU_] |771| 
     518                      .dwpsn  file "C:/ti/motorware/motorware_1_01_00_18/sw/modules/ctrl/src/32b/ctrl.c",line 651,column 3,
     519 00000009 9292          MOV       AL,*+XAR2[AR0]        ; [CPU_] |651| 
     520 0000000a ED22          BF        $C$L2,NEQ             ; [CPU_] |651| 
     521                      ; branchcc occurs ; [] |651| 
     522 0000000b 9241          MOV       AL,*-SP[1]            ; [CPU_] 
     523                      .dwpsn  file "C:/ti/motorware/motorware_1_01_00_18/sw/modules/ctrl/src/32b/ctrl.c",line 756,column 7,
     524 0000000c D018          MOVB      XAR0,#24              ; [CPU_] |756| 
     525                      .dwpsn  file "C:/ti/motorware/motorware_1_01_00_18/sw/modules/ctrl/src/32b/ctrl.h",line 1778,column 3
     526 0000000d 96EA          MOV       *+XAR2[5],AL          ; [CPU_] |1778| 
     527                      .dwpsn  file "C:/ti/motorware/motorware_1_01_00_18/sw/modules/ctrl/src/32b/ctrl.h",line 1779,column 3
     528 0000000e 56BF          MOVB      *+XAR2[4],#1,UNC      ; [CPU_] |1779| 
         0000000f 01E2 
     529                      .dwpsn  file "C:/ti/motorware/motorware_1_01_00_18/sw/modules/ctrl/src/32b/ctrl.c",line 756,column 7,
     530 00000010 8A92          MOVL      XAR4,*+XAR2[AR0]      ; [CPU_] |756| 
     531              $C$DW$96        .dwtag  DW_TAG_TI_branch
     532                      .dwattr $C$DW$96, DW_AT_low_pc(0x00)
     533                      .dwattr $C$DW$96, DW_AT_name("_EST_isLockRotor")
     534                      .dwattr $C$DW$96, DW_AT_TI_call
     535 00000011 7640!         LCR       #_EST_isLockRotor     ; [CPU_] |756| 
         00000012 0000 
     536                      ; call occurs [#_EST_isLockRotor] ; [] |756| 
TMS320C2000 Assembler PC v6.2.5 Tue Jun 27 16:56:14 2017

Tools Copyright (c) 1996-2014 Texas Instruments Incorporated
C:\Users\wmj\AppData\Local\Temp\1139610                              PAGE   11

     537 00000013 5200          CMPB      AL,#0                 ; [CPU_] |756| 
     538 00000014 56C0          BF        $C$L12,NEQ            ; [CPU_] |756| 
         00000015 0094 
     539                      ; branchcc occurs ; [] |756| 
     540                      .dwpsn  file "C:/ti/motorware/motorware_1_01_00_18/sw/modules/ctrl/src/32b/ctrl.c",line 758,column 11
     541 00000016 D018          MOVB      XAR0,#24              ; [CPU_] |758| 
     542 00000017 8A92          MOVL      XAR4,*+XAR2[AR0]      ; [CPU_] |758| 
     543              $C$DW$97        .dwtag  DW_TAG_TI_branch
     544                      .dwattr $C$DW$97, DW_AT_low_pc(0x00)
     545                      .dwattr $C$DW$97, DW_AT_name("_EST_isMotorIdentified")
     546                      .dwattr $C$DW$97, DW_AT_TI_call
     547 00000018 7640!         LCR       #_EST_isMotorIdentified ; [CPU_] |758| 
         00000019 0000 
     548                      ; call occurs [#_EST_isMotorIdentified] ; [] |758| 
     549 0000001a 5200          CMPB      AL,#0                 ; [CPU_] |758| 
     550 0000001b ED0C          BF        $C$L1,NEQ             ; [CPU_] |758| 
     551                      ; branchcc occurs ; [] |758| 
     552                      .dwpsn  file "C:/ti/motorware/motorware_1_01_00_18/sw/modules/ctrl/src/32b/ctrl.c",line 764,column 15
     553 0000001c D018          MOVB      XAR0,#24              ; [CPU_] |764| 
     554 0000001d 8A92          MOVL      XAR4,*+XAR2[AR0]      ; [CPU_] |764| 
     555              $C$DW$98        .dwtag  DW_TAG_TI_branch
     556                      .dwattr $C$DW$98, DW_AT_low_pc(0x00)
     557                      .dwattr $C$DW$98, DW_AT_name("_EST_setIdle_all")
     558                      .dwattr $C$DW$98, DW_AT_TI_call
     559 0000001e 7640!         LCR       #_EST_setIdle_all     ; [CPU_] |764| 
         0000001f 0000 
     560                      ; call occurs [#_EST_setIdle_all] ; [] |764| 
     561                      .dwpsn  file "C:/ti/motorware/motorware_1_01_00_18/sw/modules/ctrl/src/32b/ctrl.c",line 766,column 15
     562 00000020 D018          MOVB      XAR0,#24              ; [CPU_] |766| 
     563 00000021 0200          MOVB      ACC,#0                ; [CPU_] |766| 
     564 00000022 8A92          MOVL      XAR4,*+XAR2[AR0]      ; [CPU_] |766| 
     565              $C$DW$99        .dwtag  DW_TAG_TI_branch
     566                      .dwattr $C$DW$99, DW_AT_low_pc(0x00)
     567                      .dwattr $C$DW$99, DW_AT_name("_EST_setRs_pu")
     568                      .dwattr $C$DW$99, DW_AT_TI_call
     569 00000023 7640!         LCR       #_EST_setRs_pu        ; [CPU_] |766| 
         00000024 0000 
     570                      ; call occurs [#_EST_setRs_pu] ; [] |766| 
     571 00000025 FFEF          B         $C$L12,UNC            ; [CPU_] |766| 
         00000026 0083 
     572                      ; branch occurs ; [] |766| 
     573 00000027       $C$L1:    
     574                      .dwpsn  file "C:/ti/motorware/motorware_1_01_00_18/sw/modules/ctrl/src/32b/ctrl.c",line 760,column 15
     575 00000027 D018          MOVB      XAR0,#24              ; [CPU_] |760| 
     576 00000028 8A92          MOVL      XAR4,*+XAR2[AR0]      ; [CPU_] |760| 
     577              $C$DW$100       .dwtag  DW_TAG_TI_branch
     578                      .dwattr $C$DW$100, DW_AT_low_pc(0x00)
     579                      .dwattr $C$DW$100, DW_AT_name("_EST_setIdle")
     580                      .dwattr $C$DW$100, DW_AT_TI_call
     581 00000029 7640!         LCR       #_EST_setIdle         ; [CPU_] |760| 
         0000002a 0000 
     582                      ; call occurs [#_EST_setIdle] ; [] |760| 
     583                      .dwpsn  file "C:/ti/motorware/motorware_1_01_00_18/sw/modules/ctrl/src/32b/ctrl.c",line 761,column 13
     584 0000002b 6F7D          B         $C$L12,UNC            ; [CPU_] |761| 
     585                      ; branch occurs ; [] |761| 
TMS320C2000 Assembler PC v6.2.5 Tue Jun 27 16:56:14 2017

Tools Copyright (c) 1996-2014 Texas Instruments Incorporated
C:\Users\wmj\AppData\Local\Temp\1139610                              PAGE   12

     586 0000002c       $C$L2:    
     587 0000002c 9241          MOV       AL,*-SP[1]            ; [CPU_] 
     588 0000002d 3B01          SETC      SXM                   ; [CPU_] 
     589                      .dwpsn  file "C:/ti/motorware/motorware_1_01_00_18/sw/modules/ctrl/src/32b/ctrl.h",line 937,column 3,
     590 0000002e D092          MOVB      XAR0,#146             ; [CPU_] |937| 
     591 0000002f 5603          MOV       ACC,AL << 1           ; [CPU_] |937| 
         00000030 01A9 
     592 00000031 5601          ADDL      XAR4,ACC              ; [CPU_] |937| 
         00000032 00A4 
     593 00000033 0694          MOVL      ACC,*+XAR4[AR0]       ; [CPU_] |937| 
     594                      .dwpsn  file "C:/ti/motorware/motorware_1_01_00_18/sw/modules/ctrl/src/32b/ctrl.h",line 132,column 3,
     595 00000034 D09A          MOVB      XAR0,#154             ; [CPU_] |132| 
     596                      .dwpsn  file "C:/ti/motorware/motorware_1_01_00_18/sw/modules/ctrl/src/32b/ctrl.h",line 937,column 3,
     597 00000035 1E44          MOVL      *-SP[4],ACC           ; [CPU_] |937| 
     598                      .dwpsn  file "C:/ti/motorware/motorware_1_01_00_18/sw/modules/ctrl/src/32b/ctrl.h",line 132,column 3,
     599 00000036 8292          MOVL      XAR3,*+XAR2[AR0]      ; [CPU_] |132| 
     600                      .dwpsn  file "C:/ti/motorware/motorware_1_01_00_18/sw/modules/ctrl/src/32b/ctrl.h",line 1987,column 3
     601 00000037 D018          MOVB      XAR0,#24              ; [CPU_] |1987| 
     602 00000038 8A92          MOVL      XAR4,*+XAR2[AR0]      ; [CPU_] |1987| 
     603              $C$DW$101       .dwtag  DW_TAG_TI_branch
     604                      .dwattr $C$DW$101, DW_AT_low_pc(0x00)
     605                      .dwattr $C$DW$101, DW_AT_name("_EST_isError")
     606                      .dwattr $C$DW$101, DW_AT_TI_call
     607 00000039 7640!         LCR       #_EST_isError         ; [CPU_] |1987| 
         0000003a 0000 
     608                      ; call occurs [#_EST_isError] ; [] |1987| 
     609 0000003b 5200          CMPB      AL,#0                 ; [CPU_] |1987| 
     610 0000003c EC06          BF        $C$L3,EQ              ; [CPU_] |1987| 
     611                      ; branchcc occurs ; [] |1987| 
     612                      .dwpsn  file "C:/ti/motorware/motorware_1_01_00_18/sw/modules/ctrl/src/32b/ctrl.h",line 1778,column 3
     613 0000003d 92E2          MOV       AL,*+XAR2[4]          ; [CPU_] |1778| 
     614 0000003e 96EA          MOV       *+XAR2[5],AL          ; [CPU_] |1778| 
     615                      .dwpsn  file "C:/ti/motorware/motorware_1_01_00_18/sw/modules/ctrl/src/32b/ctrl.h",line 1779,column 3
     616 0000003f 2BE2          MOV       *+XAR2[4],#0          ; [CPU_] |1779| 
     617                      .dwpsn  file "C:/ti/motorware/motorware_1_01_00_18/sw/modules/ctrl/src/32b/ctrl.h",line 1193,column 3
     618 00000040 56BF          MOVB      *+XAR2[6],#2,UNC      ; [CPU_] |1193| 
         00000041 02F2 
     619 00000042       $C$L3:    
     620 00000042 0644          MOVL      ACC,*-SP[4]           ; [CPU_] 
     621                      .dwpsn  file "C:/ti/motorware/motorware_1_01_00_18/sw/modules/ctrl/src/32b/ctrl.c",line 661,column 7,
     622 00000043 0FA3          CMPL      ACC,XAR3              ; [CPU_] |661| 
     623 00000044 6664          B         $C$L12,HI             ; [CPU_] |661| 
     624                      ; branchcc occurs ; [] |661| 
     625                      .dwpsn  file "C:/ti/motorware/motorware_1_01_00_18/sw/modules/ctrl/src/32b/ctrl.h",line 1111,column 3
     626 00000045 D09A          MOVB      XAR0,#154             ; [CPU_] |1111| 
     627 00000046 0200          MOVB      ACC,#0                ; [CPU_] |1111| 
     628 00000047 1E92          MOVL      *+XAR2[AR0],ACC       ; [CPU_] |1111| 
     629 00000048 9241          MOV       AL,*-SP[1]            ; [CPU_] |1111| 
     630                      .dwpsn  file "C:/ti/motorware/motorware_1_01_00_18/sw/modules/ctrl/src/32b/ctrl.c",line 667,column 11
     631 00000049 5203          CMPB      AL,#3                 ; [CPU_] |667| 
     632 0000004a EC2E          BF        $C$L8,EQ              ; [CPU_] |667| 
     633                      ; branchcc occurs ; [] |667| 
     634                      .dwpsn  file "C:/ti/motorware/motorware_1_01_00_18/sw/modules/ctrl/src/32b/ctrl.c",line 700,column 16
     635 0000004b 5202          CMPB      AL,#2                 ; [CPU_] |700| 
     636 0000004c EC27          BF        $C$L7,EQ              ; [CPU_] |700| 
TMS320C2000 Assembler PC v6.2.5 Tue Jun 27 16:56:14 2017

Tools Copyright (c) 1996-2014 Texas Instruments Incorporated
C:\Users\wmj\AppData\Local\Temp\1139610                              PAGE   13

     637                      ; branchcc occurs ; [] |700| 
     638                      .dwpsn  file "C:/ti/motorware/motorware_1_01_00_18/sw/modules/ctrl/src/32b/ctrl.c",line 705,column 16
     639 0000004d 5201          CMPB      AL,#1                 ; [CPU_] |705| 
     640 0000004e ED5A          BF        $C$L12,NEQ            ; [CPU_] |705| 
     641                      ; branchcc occurs ; [] |705| 
     642                      .dwpsn  file "C:/ti/motorware/motorware_1_01_00_18/sw/modules/ctrl/src/32b/ctrl.c",line 710,column 15
     643 0000004f D0F5          MOVB      XAR0,#245             ; [CPU_] |710| 
     644 00000050 9292          MOV       AL,*+XAR2[AR0]        ; [CPU_] |710| 
     645 00000051 EC04          BF        $C$L4,EQ              ; [CPU_] |710| 
     646                      ; branchcc occurs ; [] |710| 
     647                      .dwpsn  file "C:/ti/motorware/motorware_1_01_00_18/sw/modules/ctrl/src/32b/ctrl.c",line 713,column 19
     648 00000052 8AA2          MOVL      XAR4,XAR2             ; [CPU_] |713| 
     649              $C$DW$102       .dwtag  DW_TAG_TI_branch
     650                      .dwattr $C$DW$102, DW_AT_low_pc(0x00)
     651                      .dwattr $C$DW$102, DW_AT_name("_CTRL_setUserMotorParams")
     652                      .dwattr $C$DW$102, DW_AT_TI_call
     653 00000053 7640!         LCR       #_CTRL_setUserMotorParams ; [CPU_] |713| 
         00000054 0000 
     654                      ; call occurs [#_CTRL_setUserMotorParams] ; [] |713| 
     655 00000055       $C$L4:    
     656                      .dwpsn  file "C:/ti/motorware/motorware_1_01_00_18/sw/modules/ctrl/src/32b/ctrl.c",line 716,column 15
     657 00000055 D018          MOVB      XAR0,#24              ; [CPU_] |716| 
     658 00000056 8A92          MOVL      XAR4,*+XAR2[AR0]      ; [CPU_] |716| 
     659              $C$DW$103       .dwtag  DW_TAG_TI_branch
     660                      .dwattr $C$DW$103, DW_AT_low_pc(0x00)
     661                      .dwattr $C$DW$103, DW_AT_name("_EST_isIdle")
     662                      .dwattr $C$DW$103, DW_AT_TI_call
     663 00000057 7640!         LCR       #_EST_isIdle          ; [CPU_] |716| 
         00000058 0000 
     664                      ; call occurs [#_EST_isIdle] ; [] |716| 
     665 00000059 5200          CMPB      AL,#0                 ; [CPU_] |716| 
     666 0000005a ED08          BF        $C$L5,NEQ             ; [CPU_] |716| 
     667                      ; branchcc occurs ; [] |716| 
     668                      .dwpsn  file "C:/ti/motorware/motorware_1_01_00_18/sw/modules/ctrl/src/32b/ctrl.c",line 740,column 20
     669 0000005b D018          MOVB      XAR0,#24              ; [CPU_] |740| 
     670 0000005c 8A92          MOVL      XAR4,*+XAR2[AR0]      ; [CPU_] |740| 
     671              $C$DW$104       .dwtag  DW_TAG_TI_branch
     672                      .dwattr $C$DW$104, DW_AT_low_pc(0x00)
     673                      .dwattr $C$DW$104, DW_AT_name("_EST_isLockRotor")
     674                      .dwattr $C$DW$104, DW_AT_TI_call
     675 0000005d 7640!         LCR       #_EST_isLockRotor     ; [CPU_] |740| 
         0000005e 0000 
     676                      ; call occurs [#_EST_isLockRotor] ; [] |740| 
     677 0000005f 5200          CMPB      AL,#0                 ; [CPU_] |740| 
     678 00000060 ED13          BF        $C$L7,NEQ             ; [CPU_] |740| 
     679                      ; branchcc occurs ; [] |740| 
     680 00000061 6F47          B         $C$L12,UNC            ; [CPU_] |740| 
     681                      ; branch occurs ; [] |740| 
     682 00000062       $C$L5:    
     683                      .dwpsn  file "C:/ti/motorware/motorware_1_01_00_18/sw/modules/ctrl/src/32b/ctrl.c",line 719,column 19
     684 00000062 8AA2          MOVL      XAR4,XAR2             ; [CPU_] |719| 
     685              $C$DW$105       .dwtag  DW_TAG_TI_branch
     686                      .dwattr $C$DW$105, DW_AT_low_pc(0x00)
     687                      .dwattr $C$DW$105, DW_AT_name("_CTRL_setupEstIdleState")
     688                      .dwattr $C$DW$105, DW_AT_TI_call
TMS320C2000 Assembler PC v6.2.5 Tue Jun 27 16:56:14 2017

Tools Copyright (c) 1996-2014 Texas Instruments Incorporated
C:\Users\wmj\AppData\Local\Temp\1139610                              PAGE   14

     689 00000063 7640!         LCR       #_CTRL_setupEstIdleState ; [CPU_] |719| 
         00000064 0000 
     690                      ; call occurs [#_CTRL_setupEstIdleState] ; [] |719| 
     691                      .dwpsn  file "C:/ti/motorware/motorware_1_01_00_18/sw/modules/ctrl/src/32b/ctrl.c",line 721,column 19
     692 00000065 D018          MOVB      XAR0,#24              ; [CPU_] |721| 
     693 00000066 8A92          MOVL      XAR4,*+XAR2[AR0]      ; [CPU_] |721| 
     694              $C$DW$106       .dwtag  DW_TAG_TI_branch
     695                      .dwattr $C$DW$106, DW_AT_low_pc(0x00)
     696                      .dwattr $C$DW$106, DW_AT_name("_EST_isMotorIdentified")
     697                      .dwattr $C$DW$106, DW_AT_TI_call
     698 00000067 7640!         LCR       #_EST_isMotorIdentified ; [CPU_] |721| 
         00000068 0000 
     699                      ; call occurs [#_EST_isMotorIdentified] ; [] |721| 
     700 00000069 5200          CMPB      AL,#0                 ; [CPU_] |721| 
     701 0000006a EC04          BF        $C$L6,EQ              ; [CPU_] |721| 
     702                      ; branchcc occurs ; [] |721| 
     703 0000006b D0F3          MOVB      XAR0,#243             ; [CPU_] |721| 
     704 0000006c 9292          MOV       AL,*+XAR2[AR0]        ; [CPU_] |721| 
     705 0000006d EC06          BF        $C$L7,EQ              ; [CPU_] |721| 
     706                      ; branchcc occurs ; [] |721| 
     707 0000006e       $C$L6:    
     708                      .dwpsn  file "C:/ti/motorware/motorware_1_01_00_18/sw/modules/ctrl/src/32b/ctrl.h",line 1778,column 3
     709 0000006e 92E2          MOV       AL,*+XAR2[4]          ; [CPU_] |1778| 
     710 0000006f 96EA          MOV       *+XAR2[5],AL          ; [CPU_] |1778| 
     711                      .dwpsn  file "C:/ti/motorware/motorware_1_01_00_18/sw/modules/ctrl/src/32b/ctrl.h",line 1779,column 3
     712 00000070 56BF          MOVB      *+XAR2[4],#2,UNC      ; [CPU_] |1779| 
         00000071 02E2 
     713                      .dwpsn  file "C:/ti/motorware/motorware_1_01_00_18/sw/modules/ctrl/src/32b/ctrl.h",line 1781,column 3
     714 00000072 6F36          B         $C$L12,UNC            ; [CPU_] |1781| 
     715                      ; branch occurs ; [] |1781| 
     716 00000073       $C$L7:    
     717                      .dwpsn  file "C:/ti/motorware/motorware_1_01_00_18/sw/modules/ctrl/src/32b/ctrl.h",line 1778,column 3
     718 00000073 92E2          MOV       AL,*+XAR2[4]          ; [CPU_] |1778| 
     719 00000074 96EA          MOV       *+XAR2[5],AL          ; [CPU_] |1778| 
     720                      .dwpsn  file "C:/ti/motorware/motorware_1_01_00_18/sw/modules/ctrl/src/32b/ctrl.h",line 1779,column 3
     721 00000075 56BF          MOVB      *+XAR2[4],#3,UNC      ; [CPU_] |1779| 
         00000076 03E2 
     722                      .dwpsn  file "C:/ti/motorware/motorware_1_01_00_18/sw/modules/ctrl/src/32b/ctrl.h",line 1781,column 3
     723 00000077 6F31          B         $C$L12,UNC            ; [CPU_] |1781| 
     724                      ; branch occurs ; [] |1781| 
     725 00000078       $C$L8:    
     726                      .dwpsn  file "C:/ti/motorware/motorware_1_01_00_18/sw/modules/ctrl/src/32b/ctrl.c",line 673,column 41
     727 00000078 D018          MOVB      XAR0,#24              ; [CPU_] |673| 
     728 00000079 8A92          MOVL      XAR4,*+XAR2[AR0]      ; [CPU_] |673| 
     729 0000007a D060          MOVB      XAR0,#96              ; [CPU_] |673| 
     730 0000007b 8392          MOVL      XAR5,*+XAR2[AR0]      ; [CPU_] |673| 
     731 0000007c 06C5          MOVL      ACC,*+XAR5[0]         ; [CPU_] |673| 
     732              $C$DW$107       .dwtag  DW_TAG_TI_branch
     733                      .dwattr $C$DW$107, DW_AT_low_pc(0x00)
     734                      .dwattr $C$DW$107, DW_AT_name("_EST_updateState")
     735                      .dwattr $C$DW$107, DW_AT_TI_call
     736 0000007d 7640!         LCR       #_EST_updateState     ; [CPU_] |673| 
         0000007e 0000 
     737                      ; call occurs [#_EST_updateState] ; [] |673| 
     738 0000007f 5200          CMPB      AL,#0                 ; [CPU_] |673| 
TMS320C2000 Assembler PC v6.2.5 Tue Jun 27 16:56:14 2017

Tools Copyright (c) 1996-2014 Texas Instruments Incorporated
C:\Users\wmj\AppData\Local\Temp\1139610                              PAGE   15

     739 00000080 EC07          BF        $C$L9,EQ              ; [CPU_] |673| 
     740                      ; branchcc occurs ; [] |673| 
     741                      .dwpsn  file "C:/ti/motorware/motorware_1_01_00_18/sw/modules/ctrl/src/32b/ctrl.c",line 678,column 19
     742 00000081 8AA2          MOVL      XAR4,XAR2             ; [CPU_] |678| 
     743              $C$DW$108       .dwtag  DW_TAG_TI_branch
     744                      .dwattr $C$DW$108, DW_AT_low_pc(0x00)
     745                      .dwattr $C$DW$108, DW_AT_name("_CTRL_setupCtrl")
     746                      .dwattr $C$DW$108, DW_AT_TI_call
     747 00000082 7640!         LCR       #_CTRL_setupCtrl      ; [CPU_] |678| 
         00000083 0000 
     748                      ; call occurs [#_CTRL_setupCtrl] ; [] |678| 
     749                      .dwpsn  file "C:/ti/motorware/motorware_1_01_00_18/sw/modules/ctrl/src/32b/ctrl.c",line 681,column 19
     750 00000084 8AA2          MOVL      XAR4,XAR2             ; [CPU_] |681| 
     751              $C$DW$109       .dwtag  DW_TAG_TI_branch
     752                      .dwattr $C$DW$109, DW_AT_low_pc(0x00)
     753                      .dwattr $C$DW$109, DW_AT_name("_CTRL_setupTraj")
     754                      .dwattr $C$DW$109, DW_AT_TI_call
     755 00000085 7640!         LCR       #_CTRL_setupTraj      ; [CPU_] |681| 
         00000086 0000 
     756                      ; call occurs [#_CTRL_setupTraj] ; [] |681| 
     757 00000087       $C$L9:    
     758                      .dwpsn  file "C:/ti/motorware/motorware_1_01_00_18/sw/modules/ctrl/src/32b/ctrl.c",line 684,column 15
     759 00000087 D018          MOVB      XAR0,#24              ; [CPU_] |684| 
     760 00000088 8A92          MOVL      XAR4,*+XAR2[AR0]      ; [CPU_] |684| 
     761              $C$DW$110       .dwtag  DW_TAG_TI_branch
     762                      .dwattr $C$DW$110, DW_AT_low_pc(0x00)
     763                      .dwattr $C$DW$110, DW_AT_name("_EST_isOnLine")
     764                      .dwattr $C$DW$110, DW_AT_TI_call
     765 00000089 7640!         LCR       #_EST_isOnLine        ; [CPU_] |684| 
         0000008a 0000 
     766                      ; call occurs [#_EST_isOnLine] ; [] |684| 
     767 0000008b 5200          CMPB      AL,#0                 ; [CPU_] |684| 
     768 0000008c EC04          BF        $C$L10,EQ             ; [CPU_] |684| 
     769                      ; branchcc occurs ; [] |684| 
     770                      .dwpsn  file "C:/ti/motorware/motorware_1_01_00_18/sw/modules/ctrl/src/32b/ctrl.c",line 687,column 19
     771 0000008d 8AA2          MOVL      XAR4,XAR2             ; [CPU_] |687| 
     772              $C$DW$111       .dwtag  DW_TAG_TI_branch
     773                      .dwattr $C$DW$111, DW_AT_low_pc(0x00)
     774                      .dwattr $C$DW$111, DW_AT_name("_CTRL_setupEstOnLineState")
     775                      .dwattr $C$DW$111, DW_AT_TI_call
     776 0000008e 7640!         LCR       #_CTRL_setupEstOnLineState ; [CPU_] |687| 
         0000008f 0000 
     777                      ; call occurs [#_CTRL_setupEstOnLineState] ; [] |687| 
     778 00000090       $C$L10:    
     779                      .dwpsn  file "C:/ti/motorware/motorware_1_01_00_18/sw/modules/ctrl/src/32b/ctrl.c",line 690,column 15
     780 00000090 D018          MOVB      XAR0,#24              ; [CPU_] |690| 
     781 00000091 8A92          MOVL      XAR4,*+XAR2[AR0]      ; [CPU_] |690| 
     782              $C$DW$112       .dwtag  DW_TAG_TI_branch
     783                      .dwattr $C$DW$112, DW_AT_low_pc(0x00)
     784                      .dwattr $C$DW$112, DW_AT_name("_EST_isLockRotor")
     785                      .dwattr $C$DW$112, DW_AT_TI_call
     786 00000092 7640!         LCR       #_EST_isLockRotor     ; [CPU_] |690| 
         00000093 0000 
     787                      ; call occurs [#_EST_isLockRotor] ; [] |690| 
     788 00000094 5200          CMPB      AL,#0                 ; [CPU_] |690| 
TMS320C2000 Assembler PC v6.2.5 Tue Jun 27 16:56:14 2017

Tools Copyright (c) 1996-2014 Texas Instruments Incorporated
C:\Users\wmj\AppData\Local\Temp\1139610                              PAGE   16

     789 00000095 ED0D          BF        $C$L11,NEQ            ; [CPU_] |690| 
     790                      ; branchcc occurs ; [] |690| 
     791 00000096 D018          MOVB      XAR0,#24              ; [CPU_] |690| 
     792 00000097 8A92          MOVL      XAR4,*+XAR2[AR0]      ; [CPU_] |690| 
     793              $C$DW$113       .dwtag  DW_TAG_TI_branch
     794                      .dwattr $C$DW$113, DW_AT_low_pc(0x00)
     795                      .dwattr $C$DW$113, DW_AT_name("_EST_isIdle")
     796                      .dwattr $C$DW$113, DW_AT_TI_call
     797 00000098 7640!         LCR       #_EST_isIdle          ; [CPU_] |690| 
         00000099 0000 
     798                      ; call occurs [#_EST_isIdle] ; [] |690| 
     799 0000009a 5200          CMPB      AL,#0                 ; [CPU_] |690| 
     800 0000009b EC0D          BF        $C$L12,EQ             ; [CPU_] |690| 
     801                      ; branchcc occurs ; [] |690| 
     802 0000009c D018          MOVB      XAR0,#24              ; [CPU_] |690| 
     803 0000009d 8A92          MOVL      XAR4,*+XAR2[AR0]      ; [CPU_] |690| 
     804              $C$DW$114       .dwtag  DW_TAG_TI_branch
     805                      .dwattr $C$DW$114, DW_AT_low_pc(0x00)
     806                      .dwattr $C$DW$114, DW_AT_name("_EST_isMotorIdentified")
     807                      .dwattr $C$DW$114, DW_AT_TI_call
     808 0000009e 7640!         LCR       #_EST_isMotorIdentified ; [CPU_] |690| 
         0000009f 0000 
     809                      ; call occurs [#_EST_isMotorIdentified] ; [] |690| 
     810 000000a0 5200          CMPB      AL,#0                 ; [CPU_] |690| 
     811 000000a1 EC07          BF        $C$L12,EQ             ; [CPU_] |690| 
     812                      ; branchcc occurs ; [] |690| 
     813 000000a2       $C$L11:    
     814                      .dwpsn  file "C:/ti/motorware/motorware_1_01_00_18/sw/modules/ctrl/src/32b/ctrl.h",line 1218,column 3
     815 000000a2 D0F0          MOVB      XAR0,#240             ; [CPU_] |1218| 
     816 000000a3 2B92          MOV       *+XAR2[AR0],#0        ; [CPU_] |1218| 
     817                      .dwpsn  file "C:/ti/motorware/motorware_1_01_00_18/sw/modules/ctrl/src/32b/ctrl.h",line 1778,column 3
     818 000000a4 92E2          MOV       AL,*+XAR2[4]          ; [CPU_] |1778| 
     819 000000a5 96EA          MOV       *+XAR2[5],AL          ; [CPU_] |1778| 
     820                      .dwpsn  file "C:/ti/motorware/motorware_1_01_00_18/sw/modules/ctrl/src/32b/ctrl.h",line 1779,column 3
     821 000000a6 56BF          MOVB      *+XAR2[4],#1,UNC      ; [CPU_] |1779| 
         000000a7 01E2 
     822 000000a8       $C$L12:    
     823 000000a8 9241          MOV       AL,*-SP[1]            ; [CPU_] 
     824                      .dwpsn  file "C:/ti/motorware/motorware_1_01_00_18/sw/modules/ctrl/src/32b/ctrl.c",line 773,column 3,
     825 000000a9 54E2          CMP       AL,*+XAR2[4]          ; [CPU_] |773| 
     826                      .dwpsn  file "C:/ti/motorware/motorware_1_01_00_18/sw/modules/ctrl/src/32b/ctrl.c",line 775,column 7,
     827 000000aa 56B0          MOVB      XAR1,#1,NEQ           ; [CPU_] |775| 
         000000ab 01A1 
     828 000000ac FE84          SUBB      SP,#4                 ; [CPU_U] 
     829                      .dwcfi  cfa_offset, -8
     830                      .dwpsn  file "C:/ti/motorware/motorware_1_01_00_18/sw/modules/ctrl/src/32b/ctrl.c",line 778,column 3,
     831 000000ad 92A1          MOV       AL,AR1                ; [CPU_] |778| 
     832 000000ae 82BE          MOVL      XAR3,*--SP            ; [CPU_] 
     833                      .dwcfi  cfa_offset, -6
     834                      .dwcfi  restore_reg, 11
     835 000000af 86BE          MOVL      XAR2,*--SP            ; [CPU_] 
     836                      .dwcfi  cfa_offset, -4
     837                      .dwcfi  restore_reg, 9
     838 000000b0 8BBE          MOVL      XAR1,*--SP            ; [CPU_] 
     839                      .dwcfi  cfa_offset, -2
TMS320C2000 Assembler PC v6.2.5 Tue Jun 27 16:56:14 2017

Tools Copyright (c) 1996-2014 Texas Instruments Incorporated
C:\Users\wmj\AppData\Local\Temp\1139610                              PAGE   17

     840                      .dwcfi  restore_reg, 7
     841              $C$DW$115       .dwtag  DW_TAG_TI_branch
     842                      .dwattr $C$DW$115, DW_AT_low_pc(0x00)
     843                      .dwattr $C$DW$115, DW_AT_TI_return
     844 000000b1 0006          LRETR     ; [CPU_] 
     845                      ; return occurs ; [] 
     846                      .dwattr $C$DW$89, DW_AT_TI_end_file("C:/ti/motorware/motorware_1_01_00_18/sw/modules/ctrl/src/32b/ctr
     847                      .dwattr $C$DW$89, DW_AT_TI_end_line(0x30b)
     848                      .dwattr $C$DW$89, DW_AT_TI_end_column(0x01)
     849                      .dwendentry
     850                      .dwendtag $C$DW$89
     851              
     852 000000b2               .sect   ".text"
     853                      .clink
     854                      .global _CTRL_setup_user
     855              
     856              $C$DW$116       .dwtag  DW_TAG_subprogram, DW_AT_name("CTRL_setup_user")
     857                      .dwattr $C$DW$116, DW_AT_low_pc(_CTRL_setup_user)
     858                      .dwattr $C$DW$116, DW_AT_high_pc(0x00)
     859                      .dwattr $C$DW$116, DW_AT_TI_symbol_name("_CTRL_setup_user")
     860                      .dwattr $C$DW$116, DW_AT_external
     861                      .dwattr $C$DW$116, DW_AT_TI_begin_file("C:/ti/motorware/motorware_1_01_00_18/sw/modules/ctrl/src/32b/
     862                      .dwattr $C$DW$116, DW_AT_TI_begin_line(0x23c)
     863                      .dwattr $C$DW$116, DW_AT_TI_begin_column(0x06)
     864                      .dwattr $C$DW$116, DW_AT_TI_max_frame_size(-18)
     865                      .dwpsn  file "C:/ti/motorware/motorware_1_01_00_18/sw/modules/ctrl/src/32b/ctrl.c",line 581,column 1,
     866              
     867                      .dwfde $C$DW$CIE, _CTRL_setup_user
     868              $C$DW$117       .dwtag  DW_TAG_formal_parameter, DW_AT_name("handle")
     869                      .dwattr $C$DW$117, DW_AT_TI_symbol_name("_handle")
     870                      .dwattr $C$DW$117, DW_AT_type(*$C$DW$T$161)
     871                      .dwattr $C$DW$117, DW_AT_location[DW_OP_reg12]
     872              $C$DW$118       .dwtag  DW_TAG_formal_parameter, DW_AT_name("angle_pu")
     873                      .dwattr $C$DW$118, DW_AT_TI_symbol_name("_angle_pu")
     874                      .dwattr $C$DW$118, DW_AT_type(*$C$DW$T$226)
     875                      .dwattr $C$DW$118, DW_AT_location[DW_OP_reg0]
     876              $C$DW$119       .dwtag  DW_TAG_formal_parameter, DW_AT_name("speed_ref_pu")
     877                      .dwattr $C$DW$119, DW_AT_TI_symbol_name("_speed_ref_pu")
     878                      .dwattr $C$DW$119, DW_AT_type(*$C$DW$T$226)
     879                      .dwattr $C$DW$119, DW_AT_location[DW_OP_breg20 -20]
     880              $C$DW$120       .dwtag  DW_TAG_formal_parameter, DW_AT_name("speed_fb_pu")
     881                      .dwattr $C$DW$120, DW_AT_TI_symbol_name("_speed_fb_pu")
     882                      .dwattr $C$DW$120, DW_AT_type(*$C$DW$T$226)
     883                      .dwattr $C$DW$120, DW_AT_location[DW_OP_breg20 -22]
     884              $C$DW$121       .dwtag  DW_TAG_formal_parameter, DW_AT_name("speed_outMax_pu")
     885                      .dwattr $C$DW$121, DW_AT_TI_symbol_name("_speed_outMax_pu")
     886                      .dwattr $C$DW$121, DW_AT_type(*$C$DW$T$226)
     887                      .dwattr $C$DW$121, DW_AT_location[DW_OP_breg20 -24]
     888              $C$DW$122       .dwtag  DW_TAG_formal_parameter, DW_AT_name("pIdq_offset_pu")
     889                      .dwattr $C$DW$122, DW_AT_TI_symbol_name("_pIdq_offset_pu")
     890                      .dwattr $C$DW$122, DW_AT_type(*$C$DW$T$198)
     891                      .dwattr $C$DW$122, DW_AT_location[DW_OP_reg14]
     892              $C$DW$123       .dwtag  DW_TAG_formal_parameter, DW_AT_name("pVdq_offset_pu")
     893                      .dwattr $C$DW$123, DW_AT_TI_symbol_name("_pVdq_offset_pu")
     894                      .dwattr $C$DW$123, DW_AT_type(*$C$DW$T$198)
TMS320C2000 Assembler PC v6.2.5 Tue Jun 27 16:56:14 2017

Tools Copyright (c) 1996-2014 Texas Instruments Incorporated
C:\Users\wmj\AppData\Local\Temp\1139610                              PAGE   18

     895                      .dwattr $C$DW$123, DW_AT_location[DW_OP_breg20 -26]
     896              $C$DW$124       .dwtag  DW_TAG_formal_parameter, DW_AT_name("flag_enableSpeedCtrl")
     897                      .dwattr $C$DW$124, DW_AT_TI_symbol_name("_flag_enableSpeedCtrl")
     898                      .dwattr $C$DW$124, DW_AT_type(*$C$DW$T$261)
     899                      .dwattr $C$DW$124, DW_AT_location[DW_OP_breg20 -27]
     900              $C$DW$125       .dwtag  DW_TAG_formal_parameter, DW_AT_name("flag_enableCurrentCtrl")
     901                      .dwattr $C$DW$125, DW_AT_TI_symbol_name("_flag_enableCurrentCtrl")
     902                      .dwattr $C$DW$125, DW_AT_type(*$C$DW$T$261)
     903                      .dwattr $C$DW$125, DW_AT_location[DW_OP_breg20 -28]
     904              
     905              ;***************************************************************
     906              ;* FNAME: _CTRL_setup_user              FR SIZE:  16           *
     907              ;*                                                             *
     908              ;* FUNCTION ENVIRONMENT                                        *
     909              ;*                                                             *
     910              ;* FUNCTION PROPERTIES                                         *
     911              ;*                            0 Parameter, 10 Auto,  6 SOE     *
     912              ;***************************************************************
     913              
     914              _CTRL_setup_user:
     915              ;* AR5   assigned to $O$C1
     916              ;* AR4   assigned to $O$C2
     917              ;* AR5   assigned to $O$C3
     918              ;* AR4   assigned to $O$C4
     919              ;* AR7   assigned to _numCtrlTicksPerTrajTick
     920              $C$DW$126       .dwtag  DW_TAG_variable, DW_AT_name("numCtrlTicksPerTrajTick")
     921                      .dwattr $C$DW$126, DW_AT_TI_symbol_name("_numCtrlTicksPerTrajTick")
     922                      .dwattr $C$DW$126, DW_AT_type(*$C$DW$T$67)
     923                      .dwattr $C$DW$126, DW_AT_location[DW_OP_reg18]
     924              ;* PL    assigned to _count_traj
     925              $C$DW$127       .dwtag  DW_TAG_variable, DW_AT_name("count_traj")
     926                      .dwattr $C$DW$127, DW_AT_TI_symbol_name("_count_traj")
     927                      .dwattr $C$DW$127, DW_AT_type(*$C$DW$T$67)
     928                      .dwattr $C$DW$127, DW_AT_location[DW_OP_reg2]
     929              ;* AR6   assigned to _ctrlState
     930              $C$DW$128       .dwtag  DW_TAG_variable, DW_AT_name("ctrlState")
     931                      .dwattr $C$DW$128, DW_AT_TI_symbol_name("_ctrlState")
     932                      .dwattr $C$DW$128, DW_AT_type(*$C$DW$T$40)
     933                      .dwattr $C$DW$128, DW_AT_location[DW_OP_reg16]
     934              $C$DW$129       .dwtag  DW_TAG_variable, DW_AT_name("flag_enableCurrentCtrl")
     935                      .dwattr $C$DW$129, DW_AT_TI_symbol_name("_flag_enableCurrentCtrl")
     936                      .dwattr $C$DW$129, DW_AT_type(*$C$DW$T$261)
     937                      .dwattr $C$DW$129, DW_AT_location[DW_OP_breg20 -1]
     938              $C$DW$130       .dwtag  DW_TAG_variable, DW_AT_name("flag_enableSpeedCtrl")
     939                      .dwattr $C$DW$130, DW_AT_TI_symbol_name("_flag_enableSpeedCtrl")
     940                      .dwattr $C$DW$130, DW_AT_type(*$C$DW$T$261)
     941                      .dwattr $C$DW$130, DW_AT_location[DW_OP_breg20 -2]
     942              $C$DW$131       .dwtag  DW_TAG_variable, DW_AT_name("pVdq_offset_pu")
     943                      .dwattr $C$DW$131, DW_AT_TI_symbol_name("_pVdq_offset_pu")
     944                      .dwattr $C$DW$131, DW_AT_type(*$C$DW$T$199)
     945                      .dwattr $C$DW$131, DW_AT_location[DW_OP_breg20 -4]
     946              $C$DW$132       .dwtag  DW_TAG_variable, DW_AT_name("pIdq_offset_pu")
     947                      .dwattr $C$DW$132, DW_AT_TI_symbol_name("_pIdq_offset_pu")
     948                      .dwattr $C$DW$132, DW_AT_type(*$C$DW$T$199)
     949                      .dwattr $C$DW$132, DW_AT_location[DW_OP_breg20 -6]
TMS320C2000 Assembler PC v6.2.5 Tue Jun 27 16:56:14 2017

Tools Copyright (c) 1996-2014 Texas Instruments Incorporated
C:\Users\wmj\AppData\Local\Temp\1139610                              PAGE   19

     950              $C$DW$133       .dwtag  DW_TAG_variable, DW_AT_name("speed_outMax_pu")
     951                      .dwattr $C$DW$133, DW_AT_TI_symbol_name("_speed_outMax_pu")
     952                      .dwattr $C$DW$133, DW_AT_type(*$C$DW$T$226)
     953                      .dwattr $C$DW$133, DW_AT_location[DW_OP_breg20 -8]
     954              $C$DW$134       .dwtag  DW_TAG_variable, DW_AT_name("speed_fb_pu")
     955                      .dwattr $C$DW$134, DW_AT_TI_symbol_name("_speed_fb_pu")
     956                      .dwattr $C$DW$134, DW_AT_type(*$C$DW$T$226)
     957                      .dwattr $C$DW$134, DW_AT_location[DW_OP_breg20 -10]
     958              ;* AR2   assigned to _speed_ref_pu
     959              $C$DW$135       .dwtag  DW_TAG_variable, DW_AT_name("speed_ref_pu")
     960                      .dwattr $C$DW$135, DW_AT_TI_symbol_name("_speed_ref_pu")
     961                      .dwattr $C$DW$135, DW_AT_type(*$C$DW$T$226)
     962                      .dwattr $C$DW$135, DW_AT_location[DW_OP_reg8]
     963              ;* AR3   assigned to _angle_pu
     964              $C$DW$136       .dwtag  DW_TAG_variable, DW_AT_name("angle_pu")
     965                      .dwattr $C$DW$136, DW_AT_TI_symbol_name("_angle_pu")
     966                      .dwattr $C$DW$136, DW_AT_type(*$C$DW$T$226)
     967                      .dwattr $C$DW$136, DW_AT_location[DW_OP_reg10]
     968              ;* AR1   assigned to _handle
     969              $C$DW$137       .dwtag  DW_TAG_variable, DW_AT_name("handle")
     970                      .dwattr $C$DW$137, DW_AT_TI_symbol_name("_handle")
     971                      .dwattr $C$DW$137, DW_AT_type(*$C$DW$T$175)
     972                      .dwattr $C$DW$137, DW_AT_location[DW_OP_reg6]
     973                      .dwcfi  cfa_offset, -2
     974                      .dwcfi  save_reg_to_mem, 26, 0
     975                      .dwcfi  save_reg_to_reg, 78, 26
     976 000000b2 B2BD          MOVL      *SP++,XAR1            ; [CPU_] 
     977                      .dwcfi  save_reg_to_mem, 7, 2
     978                      .dwcfi  cfa_offset, -4
     979 000000b3 AABD          MOVL      *SP++,XAR2            ; [CPU_] 
     980                      .dwcfi  save_reg_to_mem, 9, 4
     981                      .dwcfi  cfa_offset, -6
     982 000000b4 A2BD          MOVL      *SP++,XAR3            ; [CPU_] 
     983                      .dwcfi  save_reg_to_mem, 11, 6
     984                      .dwcfi  cfa_offset, -8
     985 000000b5 FE0A          ADDB      SP,#10                ; [CPU_U] 
     986                      .dwcfi  cfa_offset, -18
     987 000000b6 82A9          MOVL      XAR3,ACC              ; [CPU_] |581| 
     988 000000b7 925C          MOV       AL,*-SP[28]           ; [CPU_] |581| 
     989                      .dwpsn  file "C:/ti/motorware/motorware_1_01_00_18/sw/modules/ctrl/src/32b/ctrl.h",line 143,column 3,
     990 000000b8 D0EF          MOVB      XAR0,#239             ; [CPU_] |143| 
     991                      .dwpsn  file "C:/ti/motorware/motorware_1_01_00_18/sw/modules/ctrl/src/32b/ctrl.c",line 581,column 1,
     992 000000b9 8BA4          MOVL      XAR1,XAR4             ; [CPU_] |581| 
     993 000000ba A046          MOVL      *-SP[6],XAR5          ; [CPU_] |581| 
     994 000000bb 9641          MOV       *-SP[1],AL            ; [CPU_] |581| 
     995 000000bc 8654          MOVL      XAR2,*-SP[20]         ; [CPU_] |581| 
     996 000000bd 925B          MOV       AL,*-SP[27]           ; [CPU_] |581| 
     997 000000be 9642          MOV       *-SP[2],AL            ; [CPU_] |581| 
     998 000000bf 065A          MOVL      ACC,*-SP[26]          ; [CPU_] |581| 
     999 000000c0 1E44          MOVL      *-SP[4],ACC           ; [CPU_] |581| 
    1000 000000c1 0658          MOVL      ACC,*-SP[24]          ; [CPU_] |581| 
    1001 000000c2 1E48          MOVL      *-SP[8],ACC           ; [CPU_] |581| 
    1002 000000c3 0656          MOVL      ACC,*-SP[22]          ; [CPU_] |581| 
    1003 000000c4 1E4A          MOVL      *-SP[10],ACC          ; [CPU_] |581| 
    1004                      .dwpsn  file "C:/ti/motorware/motorware_1_01_00_18/sw/modules/ctrl/src/32b/ctrl.h",line 1013,column 3
TMS320C2000 Assembler PC v6.2.5 Tue Jun 27 16:56:14 2017

Tools Copyright (c) 1996-2014 Texas Instruments Incorporated
C:\Users\wmj\AppData\Local\Temp\1139610                              PAGE   20

    1005 000000c5 029A          MOVB      ACC,#154              ; [CPU_] |1013| 
    1006 000000c6 07A1          ADDL      ACC,XAR1              ; [CPU_] |1013| 
    1007                      .dwpsn  file "C:/ti/motorware/motorware_1_01_00_18/sw/modules/ctrl/src/32b/ctrl.h",line 143,column 3,
    1008 000000c7 2791          MOV       PL,*+XAR1[AR0]        ; [CPU_] |143| 
    1009                      .dwpsn  file "C:/ti/motorware/motorware_1_01_00_18/sw/modules/ctrl/src/32b/ctrl.h",line 771,column 3,
    1010 000000c8 88E1          MOVZ      AR6,*+XAR1[4]         ; [CPU_] |771| 
    1011                      .dwpsn  file "C:/ti/motorware/motorware_1_01_00_18/sw/modules/ctrl/src/32b/ctrl.h",line 1013,column 3
    1012 000000c9 8AA9          MOVL      XAR4,ACC              ; [CPU_] |1013| 
    1013                      .dwpsn  file "C:/ti/motorware/motorware_1_01_00_18/sw/modules/ctrl/src/32b/ctrl.h",line 606,column 3,
    1014 000000ca D09F          MOVB      XAR0,#159             ; [CPU_] |606| 
    1015                      .dwpsn  file "C:/ti/motorware/motorware_1_01_00_18/sw/modules/ctrl/src/32b/ctrl.h",line 1013,column 3
    1016 000000cb 0201          MOVB      ACC,#1                ; [CPU_] |1013| 
    1017                      .dwpsn  file "C:/ti/motorware/motorware_1_01_00_18/sw/modules/ctrl/src/32b/ctrl.h",line 606,column 3,
    1018 000000cc 8091          MOVZ      AR7,*+XAR1[AR0]       ; [CPU_] |606| 
    1019                      .dwpsn  file "C:/ti/motorware/motorware_1_01_00_18/sw/modules/ctrl/src/32b/ctrl.h",line 1013,column 3
    1020 000000cd 5601          ADDL      *+XAR4[0],ACC         ; [CPU_] |1013| 
         000000ce 00C4 
    1021                      .dwpsn  file "C:/ti/motorware/motorware_1_01_00_18/sw/modules/ctrl/src/32b/ctrl.h",line 1031,column 3
    1022 000000cf 02EF          MOVB      ACC,#239              ; [CPU_] |1031| 
    1023 000000d0 07A1          ADDL      ACC,XAR1              ; [CPU_] |1031| 
    1024 000000d1 8AA9          MOVL      XAR4,ACC              ; [CPU_] |1031| 
    1025 000000d2 92A6          MOV       AL,AR6                ; [CPU_] |1031| 
    1026 000000d3 0AC4          INC       *+XAR4[0]             ; [CPU_] |1031| 
    1027                      .dwpsn  file "C:/ti/motorware/motorware_1_01_00_18/sw/modules/ctrl/src/32b/ctrl.c",line 594,column 3,
    1028 000000d4 5203          CMPB      AL,#3                 ; [CPU_] |594| 
    1029 000000d5 ED09          BF        $C$L13,NEQ            ; [CPU_] |594| 
    1030                      ; branchcc occurs ; [] |594| 
    1031                      .dwpsn  file "C:/ti/motorware/motorware_1_01_00_18/sw/modules/ctrl/src/32b/ctrl.h",line 959,column 3,
    1032 000000d6 02EC          MOVB      ACC,#236              ; [CPU_] |959| 
    1033 000000d7 07A1          ADDL      ACC,XAR1              ; [CPU_] |959| 
    1034 000000d8 8AA9          MOVL      XAR4,ACC              ; [CPU_] |959| 
    1035 000000d9 0AC4          INC       *+XAR4[0]             ; [CPU_] |959| 
    1036                      .dwpsn  file "C:/ti/motorware/motorware_1_01_00_18/sw/modules/ctrl/src/32b/ctrl.h",line 995,column 3,
    1037 000000da 02EE          MOVB      ACC,#238              ; [CPU_] |995| 
    1038 000000db 07A1          ADDL      ACC,XAR1              ; [CPU_] |995| 
    1039 000000dc 8AA9          MOVL      XAR4,ACC              ; [CPU_] |995| 
    1040 000000dd 0AC4          INC       *+XAR4[0]             ; [CPU_] |995| 
    1041 000000de       $C$L13:    
    1042 000000de 92A7          MOV       AL,AR7                ; [CPU_] 
    1043                      .dwpsn  file "C:/ti/motorware/motorware_1_01_00_18/sw/modules/ctrl/src/32b/ctrl.c",line 604,column 3,
    1044 000000df 54AB          CMP       AL,PL                 ; [CPU_] |604| 
    1045 000000e0 6606          B         $C$L14,HI             ; [CPU_] |604| 
    1046                      ; branchcc occurs ; [] |604| 
    1047                      .dwpsn  file "C:/ti/motorware/motorware_1_01_00_18/sw/modules/ctrl/src/32b/ctrl.h",line 1123,column 3
    1048 000000e1 D0EF          MOVB      XAR0,#239             ; [CPU_] |1123| 
    1049                      .dwpsn  file "C:/ti/motorware/motorware_1_01_00_18/sw/modules/ctrl/src/32b/ctrl.c",line 610,column 5,
    1050 000000e2 8AA1          MOVL      XAR4,XAR1             ; [CPU_] |610| 
    1051                      .dwpsn  file "C:/ti/motorware/motorware_1_01_00_18/sw/modules/ctrl/src/32b/ctrl.h",line 1123,column 3
    1052 000000e3 2B91          MOV       *+XAR1[AR0],#0        ; [CPU_] |1123| 
    1053                      .dwpsn  file "C:/ti/motorware/motorware_1_01_00_18/sw/modules/ctrl/src/32b/ctrl.c",line 610,column 5,
    1054              $C$DW$138       .dwtag  DW_TAG_TI_branch
    1055                      .dwattr $C$DW$138, DW_AT_low_pc(0x00)
    1056                      .dwattr $C$DW$138, DW_AT_name("_CTRL_runTraj")
    1057                      .dwattr $C$DW$138, DW_AT_TI_call
    1058 000000e4 7640!         LCR       #_CTRL_runTraj        ; [CPU_] |610| 
TMS320C2000 Assembler PC v6.2.5 Tue Jun 27 16:56:14 2017

Tools Copyright (c) 1996-2014 Texas Instruments Incorporated
C:\Users\wmj\AppData\Local\Temp\1139610                              PAGE   21

         000000e5 0000 
    1059                      ; call occurs [#_CTRL_runTraj] ; [] |610| 
    1060 000000e6       $C$L14:    
    1061                      .dwpsn  file "C:/ti/motorware/motorware_1_01_00_18/sw/modules/ctrl/src/32b/ctrl.h",line 1154,column 3
    1062 000000e6 D0FE          MOVB      XAR0,#254             ; [CPU_] |1154| 
    1063 000000e7 A291          MOVL      *+XAR1[AR0],XAR3      ; [CPU_] |1154| 
    1064                      .dwpsn  file "C:/ti/motorware/motorware_1_01_00_18/sw/modules/ctrl/src/32b/ctrl.h",line 1753,column 3
    1065 000000e8 8D00          MOVL      XAR0,#256             ; [CPU_] |1753| 
         000000e9 0100 
    1066 000000ea AA91          MOVL      *+XAR1[AR0],XAR2      ; [CPU_] |1753| 
    1067                      .dwpsn  file "C:/ti/motorware/motorware_1_01_00_18/sw/modules/ctrl/src/32b/ctrl.h",line 1701,column 3
    1068 000000eb 8D00          MOVL      XAR0,#258             ; [CPU_] |1701| 
         000000ec 0102 
    1069 000000ed 064A          MOVL      ACC,*-SP[10]          ; [CPU_] |1701| 
    1070 000000ee 1E91          MOVL      *+XAR1[AR0],ACC       ; [CPU_] |1701| 
    1071                      .dwpsn  file "C:/ti/motorware/motorware_1_01_00_18/sw/modules/ctrl/src/32b/ctrl.h",line 1740,column 3
    1072 000000ef 8D00          MOVL      XAR0,#260             ; [CPU_] |1740| 
         000000f0 0104 
    1073 000000f1 0648          MOVL      ACC,*-SP[8]           ; [CPU_] |1740| 
    1074 000000f2 1E91          MOVL      *+XAR1[AR0],ACC       ; [CPU_] |1740| 
    1075 000000f3 8A46          MOVL      XAR4,*-SP[6]          ; [CPU_] |1740| 
    1076                      .dwpsn  file "C:/ti/motorware/motorware_1_01_00_18/sw/modules/ctrl/src/32b/ctrl.h",line 1374,column 3
    1077 000000f4 02F6          MOVB      ACC,#246              ; [CPU_] |1374| 
    1078 000000f5 07A1          ADDL      ACC,XAR1              ; [CPU_] |1374| 
    1079 000000f6 83A9          MOVL      XAR5,ACC              ; [CPU_] |1374| 
    1080 000000f7 06C4          MOVL      ACC,*+XAR4[0]         ; [CPU_] |1374| 
    1081 000000f8 1EC5          MOVL      *+XAR5[0],ACC         ; [CPU_] |1374| 
    1082                      .dwpsn  file "C:/ti/motorware/motorware_1_01_00_18/sw/modules/ctrl/src/32b/ctrl.h",line 1375,column 3
    1083 000000f9 06D4          MOVL      ACC,*+XAR4[2]         ; [CPU_] |1375| 
    1084 000000fa 1ED5          MOVL      *+XAR5[2],ACC         ; [CPU_] |1375| 
    1085                      .dwpsn  file "C:/ti/motorware/motorware_1_01_00_18/sw/modules/ctrl/src/32b/ctrl.h",line 1914,column 3
    1086 000000fb 02FA          MOVB      ACC,#250              ; [CPU_] |1914| 
    1087                      .dwpsn  file "C:/ti/motorware/motorware_1_01_00_18/sw/modules/ctrl/src/32b/ctrl.h",line 1375,column 3
    1088 000000fc 8A44          MOVL      XAR4,*-SP[4]          ; [CPU_] |1375| 
    1089                      .dwpsn  file "C:/ti/motorware/motorware_1_01_00_18/sw/modules/ctrl/src/32b/ctrl.h",line 1914,column 3
    1090 000000fd 07A1          ADDL      ACC,XAR1              ; [CPU_] |1914| 
    1091                      .dwpsn  file "C:/ti/motorware/motorware_1_01_00_18/sw/modules/ctrl/src/32b/ctrl.h",line 1288,column 3
    1092 000000fe D0F4          MOVB      XAR0,#244             ; [CPU_] |1288| 
    1093                      .dwpsn  file "C:/ti/motorware/motorware_1_01_00_18/sw/modules/ctrl/src/32b/ctrl.h",line 1914,column 3
    1094 000000ff 83A9          MOVL      XAR5,ACC              ; [CPU_] |1914| 
    1095 00000100 06C4          MOVL      ACC,*+XAR4[0]         ; [CPU_] |1914| 
    1096 00000101 1EC5          MOVL      *+XAR5[0],ACC         ; [CPU_] |1914| 
    1097                      .dwpsn  file "C:/ti/motorware/motorware_1_01_00_18/sw/modules/ctrl/src/32b/ctrl.h",line 1915,column 3
    1098 00000102 06D4          MOVL      ACC,*+XAR4[2]         ; [CPU_] |1915| 
    1099 00000103 1ED5          MOVL      *+XAR5[2],ACC         ; [CPU_] |1915| 
    1100                      .dwpsn  file "C:/ti/motorware/motorware_1_01_00_18/sw/modules/ctrl/src/32b/ctrl.h",line 1288,column 3
    1101 00000104 9242          MOV       AL,*-SP[2]            ; [CPU_] |1288| 
    1102 00000105 9691          MOV       *+XAR1[AR0],AL        ; [CPU_] |1288| 
    1103                      .dwpsn  file "C:/ti/motorware/motorware_1_01_00_18/sw/modules/ctrl/src/32b/ctrl.h",line 1231,column 3
    1104 00000106 9241          MOV       AL,*-SP[1]            ; [CPU_] |1231| 
    1105 00000107 8D00          MOVL      XAR0,#262             ; [CPU_] |1231| 
         00000108 0106 
    1106 00000109 9691          MOV       *+XAR1[AR0],AL        ; [CPU_] |1231| 
    1107 0000010a FE8A          SUBB      SP,#10                ; [CPU_U] 
    1108                      .dwcfi  cfa_offset, -8
TMS320C2000 Assembler PC v6.2.5 Tue Jun 27 16:56:14 2017

Tools Copyright (c) 1996-2014 Texas Instruments Incorporated
C:\Users\wmj\AppData\Local\Temp\1139610                              PAGE   22

    1109 0000010b 82BE          MOVL      XAR3,*--SP            ; [CPU_] 
    1110                      .dwcfi  cfa_offset, -6
    1111                      .dwcfi  restore_reg, 11
    1112 0000010c 86BE          MOVL      XAR2,*--SP            ; [CPU_] 
    1113                      .dwcfi  cfa_offset, -4
    1114                      .dwcfi  restore_reg, 9
    1115 0000010d 8BBE          MOVL      XAR1,*--SP            ; [CPU_] 
    1116                      .dwcfi  cfa_offset, -2
    1117                      .dwcfi  restore_reg, 7
    1118              $C$DW$139       .dwtag  DW_TAG_TI_branch
    1119                      .dwattr $C$DW$139, DW_AT_low_pc(0x00)
    1120                      .dwattr $C$DW$139, DW_AT_TI_return
    1121 0000010e 0006          LRETR     ; [CPU_] 
    1122                      ; return occurs ; [] 
    1123                      .dwattr $C$DW$116, DW_AT_TI_end_file("C:/ti/motorware/motorware_1_01_00_18/sw/modules/ctrl/src/32b/ct
    1124                      .dwattr $C$DW$116, DW_AT_TI_end_line(0x273)
    1125                      .dwattr $C$DW$116, DW_AT_TI_end_column(0x01)
    1126                      .dwendentry
    1127                      .dwendtag $C$DW$116
    1128              
    1129 0000010f               .sect   ".text"
    1130                      .clink
    1131                      .global _CTRL_setupClarke_V
    1132              
    1133              $C$DW$140       .dwtag  DW_TAG_subprogram, DW_AT_name("CTRL_setupClarke_V")
    1134                      .dwattr $C$DW$140, DW_AT_low_pc(_CTRL_setupClarke_V)
    1135                      .dwattr $C$DW$140, DW_AT_high_pc(0x00)
    1136                      .dwattr $C$DW$140, DW_AT_TI_symbol_name("_CTRL_setupClarke_V")
    1137                      .dwattr $C$DW$140, DW_AT_external
    1138                      .dwattr $C$DW$140, DW_AT_TI_begin_file("C:/ti/motorware/motorware_1_01_00_18/sw/modules/ctrl/src/32b/
    1139                      .dwattr $C$DW$140, DW_AT_TI_begin_line(0x222)
    1140                      .dwattr $C$DW$140, DW_AT_TI_begin_column(0x06)
    1141                      .dwattr $C$DW$140, DW_AT_TI_max_frame_size(-2)
    1142                      .dwpsn  file "C:/ti/motorware/motorware_1_01_00_18/sw/modules/ctrl/src/32b/ctrl.c",line 547,column 1,
    1143              
    1144                      .dwfde $C$DW$CIE, _CTRL_setupClarke_V
    1145              $C$DW$141       .dwtag  DW_TAG_formal_parameter, DW_AT_name("handle")
    1146                      .dwattr $C$DW$141, DW_AT_TI_symbol_name("_handle")
    1147                      .dwattr $C$DW$141, DW_AT_type(*$C$DW$T$161)
    1148                      .dwattr $C$DW$141, DW_AT_location[DW_OP_reg12]
    1149              $C$DW$142       .dwtag  DW_TAG_formal_parameter, DW_AT_name("numVoltageSensors")
    1150                      .dwattr $C$DW$142, DW_AT_TI_symbol_name("_numVoltageSensors")
    1151                      .dwattr $C$DW$142, DW_AT_type(*$C$DW$T$33)
    1152                      .dwattr $C$DW$142, DW_AT_location[DW_OP_reg0]
    1153              
    1154              ;***************************************************************
    1155              ;* FNAME: _CTRL_setupClarke_V           FR SIZE:   0           *
    1156              ;*                                                             *
    1157              ;* FUNCTION ENVIRONMENT                                        *
    1158              ;*                                                             *
    1159              ;* FUNCTION PROPERTIES                                         *
    1160              ;*                            0 Parameter,  0 Auto,  0 SOE     *
    1161              ;***************************************************************
    1162              
    1163              _CTRL_setupClarke_V:
TMS320C2000 Assembler PC v6.2.5 Tue Jun 27 16:56:14 2017

Tools Copyright (c) 1996-2014 Texas Instruments Incorporated
C:\Users\wmj\AppData\Local\Temp\1139610                              PAGE   23

    1164              ;* AR5   assigned to _obj
    1165              $C$DW$143       .dwtag  DW_TAG_variable, DW_AT_name("obj")
    1166                      .dwattr $C$DW$143, DW_AT_TI_symbol_name("_obj")
    1167                      .dwattr $C$DW$143, DW_AT_type(*$C$DW$T$173)
    1168                      .dwattr $C$DW$143, DW_AT_location[DW_OP_reg14]
    1169              ;* PL    assigned to _beta_sf
    1170              $C$DW$144       .dwtag  DW_TAG_variable, DW_AT_name("beta_sf")
    1171                      .dwattr $C$DW$144, DW_AT_TI_symbol_name("_beta_sf")
    1172                      .dwattr $C$DW$144, DW_AT_type(*$C$DW$T$32)
    1173                      .dwattr $C$DW$144, DW_AT_location[DW_OP_reg2]
    1174              ;* AR6   assigned to _alpha_sf
    1175              $C$DW$145       .dwtag  DW_TAG_variable, DW_AT_name("alpha_sf")
    1176                      .dwattr $C$DW$145, DW_AT_TI_symbol_name("_alpha_sf")
    1177                      .dwattr $C$DW$145, DW_AT_type(*$C$DW$T$32)
    1178                      .dwattr $C$DW$145, DW_AT_location[DW_OP_reg16]
    1179              ;* AL    assigned to _numVoltageSensors
    1180              $C$DW$146       .dwtag  DW_TAG_variable, DW_AT_name("numVoltageSensors")
    1181                      .dwattr $C$DW$146, DW_AT_TI_symbol_name("_numVoltageSensors")
    1182                      .dwattr $C$DW$146, DW_AT_type(*$C$DW$T$224)
    1183                      .dwattr $C$DW$146, DW_AT_location[DW_OP_reg0]
    1184              ;* AR4   assigned to _handle
    1185              $C$DW$147       .dwtag  DW_TAG_variable, DW_AT_name("handle")
    1186                      .dwattr $C$DW$147, DW_AT_TI_symbol_name("_handle")
    1187                      .dwattr $C$DW$147, DW_AT_type(*$C$DW$T$175)
    1188                      .dwattr $C$DW$147, DW_AT_location[DW_OP_reg12]
    1189                      .dwcfi  cfa_offset, -2
    1190                      .dwcfi  save_reg_to_mem, 26, 0
    1191                      .dwcfi  save_reg_to_reg, 78, 26
    1192                      .dwpsn  file "C:/ti/motorware/motorware_1_01_00_18/sw/modules/ctrl/src/32b/ctrl.c",line 553,column 3,
    1193 0000010f 5203          CMPB      AL,#3                 ; [CPU_] |553| 
    1194 00000110 EC04          BF        $C$L15,EQ             ; [CPU_] |553| 
    1195                      ; branchcc occurs ; [] |553| 
    1196                      .dwpsn  file "C:/ti/motorware/motorware_1_01_00_18/sw/modules/ctrl/src/32b/ctrl.c",line 560,column 7,
    1197 00000111 BE00          MOVB      XAR6,#0               ; [CPU_] |560| 
    1198                      .dwpsn  file "C:/ti/motorware/motorware_1_01_00_18/sw/modules/ctrl/src/32b/ctrl.c",line 561,column 7,
    1199 00000112 3100          MOV       P,#0                  ; [CPU_] |561| 
    1200 00000113 6F0A          B         $C$L16,UNC            ; [CPU_] |561| 
    1201                      ; branch occurs ; [] |561| 
    1202 00000114       $C$L15:    
    1203                      .dwpsn  file "C:/ti/motorware/motorware_1_01_00_18/sw/modules/ctrl/src/32b/ctrl.c",line 555,column 7,
    1204 00000114 28AB          MOV       PL,#21845             ; [CPU_] |555| 
         00000115 5555 
    1205 00000116 28AA          MOV       PH,#85                ; [CPU_] |555| 
         00000117 0055 
    1206 00000118 A9A6          MOVL      XAR6,P                ; [CPU_] |555| 
    1207                      .dwpsn  file "C:/ti/motorware/motorware_1_01_00_18/sw/modules/ctrl/src/32b/ctrl.c",line 556,column 7,
    1208 00000119 28AB          MOV       PL,#52538             ; [CPU_] |556| 
         0000011a CD3A 
    1209 0000011b 28AA          MOV       PH,#147               ; [CPU_] |556| 
         0000011c 0093 
    1210 0000011d       $C$L16:    
    1211                      .dwpsn  file "C:/ti/motorware/motorware_1_01_00_18/sw/modules/clarke/src/32b/clarke.h",line 182,colum
    1212 0000011d D010          MOVB      XAR0,#16              ; [CPU_] |182| 
    1213 0000011e 8394          MOVL      XAR5,*+XAR4[AR0]      ; [CPU_] |182| 
    1214                      .dwpsn  file "C:/ti/motorware/motorware_1_01_00_18/sw/modules/clarke/src/32b/clarke.h",line 170,colum
TMS320C2000 Assembler PC v6.2.5 Tue Jun 27 16:56:14 2017

Tools Copyright (c) 1996-2014 Texas Instruments Incorporated
C:\Users\wmj\AppData\Local\Temp\1139610                              PAGE   24

    1215 0000011f D010          MOVB      XAR0,#16              ; [CPU_] |170| 
    1216                      .dwpsn  file "C:/ti/motorware/motorware_1_01_00_18/sw/modules/clarke/src/32b/clarke.h",line 185,colum
    1217 00000120 C2C5          MOVL      *+XAR5[0],XAR6        ; [CPU_] |185| 
    1218                      .dwpsn  file "C:/ti/motorware/motorware_1_01_00_18/sw/modules/clarke/src/32b/clarke.h",line 186,colum
    1219 00000121 A9D5          MOVL      *+XAR5[2],P           ; [CPU_] |186| 
    1220                      .dwpsn  file "C:/ti/motorware/motorware_1_01_00_18/sw/modules/clarke/src/32b/clarke.h",line 170,colum
    1221 00000122 8A94          MOVL      XAR4,*+XAR4[AR0]      ; [CPU_] |170| 
    1222 00000123 96E4          MOV       *+XAR4[4],AL          ; [CPU_] |170| 
    1223              $C$DW$148       .dwtag  DW_TAG_TI_branch
    1224                      .dwattr $C$DW$148, DW_AT_low_pc(0x00)
    1225                      .dwattr $C$DW$148, DW_AT_TI_return
    1226 00000124 0006          LRETR     ; [CPU_] 
    1227                      ; return occurs ; [] 
    1228                      .dwattr $C$DW$140, DW_AT_TI_end_file("C:/ti/motorware/motorware_1_01_00_18/sw/modules/ctrl/src/32b/ct
    1229                      .dwattr $C$DW$140, DW_AT_TI_end_line(0x239)
    1230                      .dwattr $C$DW$140, DW_AT_TI_end_column(0x01)
    1231                      .dwendentry
    1232                      .dwendtag $C$DW$140
    1233              
    1234 00000125               .sect   ".text"
    1235                      .clink
    1236                      .global _CTRL_setupClarke_I
    1237              
    1238              $C$DW$149       .dwtag  DW_TAG_subprogram, DW_AT_name("CTRL_setupClarke_I")
    1239                      .dwattr $C$DW$149, DW_AT_low_pc(_CTRL_setupClarke_I)
    1240                      .dwattr $C$DW$149, DW_AT_high_pc(0x00)
    1241                      .dwattr $C$DW$149, DW_AT_TI_symbol_name("_CTRL_setupClarke_I")
    1242                      .dwattr $C$DW$149, DW_AT_external
    1243                      .dwattr $C$DW$149, DW_AT_TI_begin_file("C:/ti/motorware/motorware_1_01_00_18/sw/modules/ctrl/src/32b/
    1244                      .dwattr $C$DW$149, DW_AT_TI_begin_line(0x203)
    1245                      .dwattr $C$DW$149, DW_AT_TI_begin_column(0x06)
    1246                      .dwattr $C$DW$149, DW_AT_TI_max_frame_size(-2)
    1247                      .dwpsn  file "C:/ti/motorware/motorware_1_01_00_18/sw/modules/ctrl/src/32b/ctrl.c",line 516,column 1,
    1248              
    1249                      .dwfde $C$DW$CIE, _CTRL_setupClarke_I
    1250              $C$DW$150       .dwtag  DW_TAG_formal_parameter, DW_AT_name("handle")
    1251                      .dwattr $C$DW$150, DW_AT_TI_symbol_name("_handle")
    1252                      .dwattr $C$DW$150, DW_AT_type(*$C$DW$T$161)
    1253                      .dwattr $C$DW$150, DW_AT_location[DW_OP_reg12]
    1254              $C$DW$151       .dwtag  DW_TAG_formal_parameter, DW_AT_name("numCurrentSensors")
    1255                      .dwattr $C$DW$151, DW_AT_TI_symbol_name("_numCurrentSensors")
    1256                      .dwattr $C$DW$151, DW_AT_type(*$C$DW$T$33)
    1257                      .dwattr $C$DW$151, DW_AT_location[DW_OP_reg0]
    1258              
    1259              ;***************************************************************
    1260              ;* FNAME: _CTRL_setupClarke_I           FR SIZE:   0           *
    1261              ;*                                                             *
    1262              ;* FUNCTION ENVIRONMENT                                        *
    1263              ;*                                                             *
    1264              ;* FUNCTION PROPERTIES                                         *
    1265              ;*                            0 Parameter,  0 Auto,  0 SOE     *
    1266              ;***************************************************************
    1267              
    1268              _CTRL_setupClarke_I:
    1269              ;* AR5   assigned to _obj
TMS320C2000 Assembler PC v6.2.5 Tue Jun 27 16:56:14 2017

Tools Copyright (c) 1996-2014 Texas Instruments Incorporated
C:\Users\wmj\AppData\Local\Temp\1139610                              PAGE   25

    1270              $C$DW$152       .dwtag  DW_TAG_variable, DW_AT_name("obj")
    1271                      .dwattr $C$DW$152, DW_AT_TI_symbol_name("_obj")
    1272                      .dwattr $C$DW$152, DW_AT_type(*$C$DW$T$173)
    1273                      .dwattr $C$DW$152, DW_AT_location[DW_OP_reg14]
    1274              ;* PL    assigned to _beta_sf
    1275              $C$DW$153       .dwtag  DW_TAG_variable, DW_AT_name("beta_sf")
    1276                      .dwattr $C$DW$153, DW_AT_TI_symbol_name("_beta_sf")
    1277                      .dwattr $C$DW$153, DW_AT_type(*$C$DW$T$32)
    1278                      .dwattr $C$DW$153, DW_AT_location[DW_OP_reg2]
    1279              ;* AR6   assigned to _alpha_sf
    1280              $C$DW$154       .dwtag  DW_TAG_variable, DW_AT_name("alpha_sf")
    1281                      .dwattr $C$DW$154, DW_AT_TI_symbol_name("_alpha_sf")
    1282                      .dwattr $C$DW$154, DW_AT_type(*$C$DW$T$32)
    1283                      .dwattr $C$DW$154, DW_AT_location[DW_OP_reg16]
    1284              ;* AL    assigned to _numCurrentSensors
    1285              $C$DW$155       .dwtag  DW_TAG_variable, DW_AT_name("numCurrentSensors")
    1286                      .dwattr $C$DW$155, DW_AT_TI_symbol_name("_numCurrentSensors")
    1287                      .dwattr $C$DW$155, DW_AT_type(*$C$DW$T$224)
    1288                      .dwattr $C$DW$155, DW_AT_location[DW_OP_reg0]
    1289              ;* AR4   assigned to _handle
    1290              $C$DW$156       .dwtag  DW_TAG_variable, DW_AT_name("handle")
    1291                      .dwattr $C$DW$156, DW_AT_TI_symbol_name("_handle")
    1292                      .dwattr $C$DW$156, DW_AT_type(*$C$DW$T$175)
    1293                      .dwattr $C$DW$156, DW_AT_location[DW_OP_reg12]
    1294                      .dwcfi  cfa_offset, -2
    1295                      .dwcfi  save_reg_to_mem, 26, 0
    1296                      .dwcfi  save_reg_to_reg, 78, 26
    1297                      .dwpsn  file "C:/ti/motorware/motorware_1_01_00_18/sw/modules/ctrl/src/32b/ctrl.c",line 522,column 3,
    1298 00000125 5203          CMPB      AL,#3                 ; [CPU_] |522| 
    1299 00000126 EC0A          BF        $C$L18,EQ             ; [CPU_] |522| 
    1300                      ; branchcc occurs ; [] |522| 
    1301                      .dwpsn  file "C:/ti/motorware/motorware_1_01_00_18/sw/modules/ctrl/src/32b/ctrl.c",line 527,column 8,
    1302 00000127 5202          CMPB      AL,#2                 ; [CPU_] |527| 
    1303 00000128 EC04          BF        $C$L17,EQ             ; [CPU_] |527| 
    1304                      ; branchcc occurs ; [] |527| 
    1305                      .dwpsn  file "C:/ti/motorware/motorware_1_01_00_18/sw/modules/ctrl/src/32b/ctrl.c",line 534,column 7,
    1306 00000129 BE00          MOVB      XAR6,#0               ; [CPU_] |534| 
    1307                      .dwpsn  file "C:/ti/motorware/motorware_1_01_00_18/sw/modules/ctrl/src/32b/ctrl.c",line 535,column 7,
    1308 0000012a 3100          MOV       P,#0                  ; [CPU_] |535| 
    1309 0000012b 6F0E          B         $C$L20,UNC            ; [CPU_] |535| 
    1310                      ; branch occurs ; [] |535| 
    1311 0000012c       $C$L17:    
    1312                      .dwpsn  file "C:/ti/motorware/motorware_1_01_00_18/sw/modules/ctrl/src/32b/ctrl.c",line 529,column 7,
    1313 0000012c 2BAB          MOV       PL,#0                 ; [CPU_] |529| 
    1314 0000012d 28AA          MOV       PH,#256               ; [CPU_] |529| 
         0000012e 0100 
    1315                      .dwpsn  file "C:/ti/motorware/motorware_1_01_00_18/sw/modules/ctrl/src/32b/ctrl.c",line 531,column 5,
    1316 0000012f 6F05          B         $C$L19,UNC            ; [CPU_] |531| 
    1317                      ; branch occurs ; [] |531| 
    1318 00000130       $C$L18:    
    1319                      .dwpsn  file "C:/ti/motorware/motorware_1_01_00_18/sw/modules/ctrl/src/32b/ctrl.c",line 524,column 7,
    1320 00000130 28AB          MOV       PL,#21845             ; [CPU_] |524| 
         00000131 5555 
    1321 00000132 28AA          MOV       PH,#85                ; [CPU_] |524| 
         00000133 0055 
TMS320C2000 Assembler PC v6.2.5 Tue Jun 27 16:56:14 2017

Tools Copyright (c) 1996-2014 Texas Instruments Incorporated
C:\Users\wmj\AppData\Local\Temp\1139610                              PAGE   26

    1322 00000134       $C$L19:    
    1323 00000134 A9A6          MOVL      XAR6,P                ; [CPU_] |524| 
    1324                      .dwpsn  file "C:/ti/motorware/motorware_1_01_00_18/sw/modules/ctrl/src/32b/ctrl.c",line 525,column 7,
    1325 00000135 28AB          MOV       PL,#52538             ; [CPU_] |525| 
         00000136 CD3A 
    1326 00000137 28AA          MOV       PH,#147               ; [CPU_] |525| 
         00000138 0093 
    1327 00000139       $C$L20:    
    1328                      .dwpsn  file "C:/ti/motorware/motorware_1_01_00_18/sw/modules/clarke/src/32b/clarke.h",line 182,colum
    1329 00000139 D008          MOVB      XAR0,#8               ; [CPU_] |182| 
    1330 0000013a 8394          MOVL      XAR5,*+XAR4[AR0]      ; [CPU_] |182| 
    1331                      .dwpsn  file "C:/ti/motorware/motorware_1_01_00_18/sw/modules/clarke/src/32b/clarke.h",line 170,colum
    1332 0000013b D008          MOVB      XAR0,#8               ; [CPU_] |170| 
    1333                      .dwpsn  file "C:/ti/motorware/motorware_1_01_00_18/sw/modules/clarke/src/32b/clarke.h",line 185,colum
    1334 0000013c C2C5          MOVL      *+XAR5[0],XAR6        ; [CPU_] |185| 
    1335                      .dwpsn  file "C:/ti/motorware/motorware_1_01_00_18/sw/modules/clarke/src/32b/clarke.h",line 186,colum
    1336 0000013d A9D5          MOVL      *+XAR5[2],P           ; [CPU_] |186| 
    1337                      .dwpsn  file "C:/ti/motorware/motorware_1_01_00_18/sw/modules/clarke/src/32b/clarke.h",line 170,colum
    1338 0000013e 8A94          MOVL      XAR4,*+XAR4[AR0]      ; [CPU_] |170| 
    1339 0000013f 96E4          MOV       *+XAR4[4],AL          ; [CPU_] |170| 
    1340              $C$DW$157       .dwtag  DW_TAG_TI_branch
    1341                      .dwattr $C$DW$157, DW_AT_low_pc(0x00)
    1342                      .dwattr $C$DW$157, DW_AT_TI_return
    1343 00000140 0006          LRETR     ; [CPU_] 
    1344                      ; return occurs ; [] 
    1345                      .dwattr $C$DW$149, DW_AT_TI_end_file("C:/ti/motorware/motorware_1_01_00_18/sw/modules/ctrl/src/32b/ct
    1346                      .dwattr $C$DW$149, DW_AT_TI_end_line(0x21f)
    1347                      .dwattr $C$DW$149, DW_AT_TI_end_column(0x01)
    1348                      .dwendentry
    1349                      .dwendtag $C$DW$149
    1350              
    1351 00000000               .sect   "ramfuncs"
    1352                      .clink
    1353                      .global _CTRL_setup
    1354              
    1355              $C$DW$158       .dwtag  DW_TAG_subprogram, DW_AT_name("CTRL_setup")
    1356                      .dwattr $C$DW$158, DW_AT_low_pc(_CTRL_setup)
    1357                      .dwattr $C$DW$158, DW_AT_high_pc(0x00)
    1358                      .dwattr $C$DW$158, DW_AT_TI_symbol_name("_CTRL_setup")
    1359                      .dwattr $C$DW$158, DW_AT_external
    1360                      .dwattr $C$DW$158, DW_AT_TI_begin_file("C:/ti/motorware/motorware_1_01_00_18/sw/modules/ctrl/src/32b/
    1361                      .dwattr $C$DW$158, DW_AT_TI_begin_line(0x1eb)
    1362                      .dwattr $C$DW$158, DW_AT_TI_begin_column(0x06)
    1363                      .dwattr $C$DW$158, DW_AT_TI_max_frame_size(-2)
    1364                      .dwpsn  file "C:/ti/motorware/motorware_1_01_00_18/sw/modules/ctrl/src/32b/ctrl.c",line 492,column 1,
    1365              
    1366                      .dwfde $C$DW$CIE, _CTRL_setup
    1367              $C$DW$159       .dwtag  DW_TAG_formal_parameter, DW_AT_name("handle")
    1368                      .dwattr $C$DW$159, DW_AT_TI_symbol_name("_handle")
    1369                      .dwattr $C$DW$159, DW_AT_type(*$C$DW$T$161)
    1370                      .dwattr $C$DW$159, DW_AT_location[DW_OP_reg12]
    1371              
    1372              ;***************************************************************
    1373              ;* FNAME: _CTRL_setup                   FR SIZE:   0           *
    1374              ;*                                                             *
TMS320C2000 Assembler PC v6.2.5 Tue Jun 27 16:56:14 2017

Tools Copyright (c) 1996-2014 Texas Instruments Incorporated
C:\Users\wmj\AppData\Local\Temp\1139610                              PAGE   27

    1375              ;* FUNCTION ENVIRONMENT                                        *
    1376              ;*                                                             *
    1377              ;* FUNCTION PROPERTIES                                         *
    1378              ;*                            0 Parameter,  0 Auto,  0 SOE     *
    1379              ;***************************************************************
    1380              
    1381              _CTRL_setup:
    1382              ;* AR4   assigned to _handle
    1383              $C$DW$160       .dwtag  DW_TAG_variable, DW_AT_name("handle")
    1384                      .dwattr $C$DW$160, DW_AT_TI_symbol_name("_handle")
    1385                      .dwattr $C$DW$160, DW_AT_type(*$C$DW$T$175)
    1386                      .dwattr $C$DW$160, DW_AT_location[DW_OP_reg12]
    1387                      .dwcfi  cfa_offset, -2
    1388                      .dwcfi  save_reg_to_mem, 26, 0
    1389                      .dwcfi  save_reg_to_reg, 78, 26
    1390                      .dwpsn  file "C:/ti/motorware/motorware_1_01_00_18/sw/modules/ctrl/src/32b/ctrl.c",line 500,column 3,
    1391 00000000 D09F          MOVB      XAR0,#159             ; [CPU_] |500| 
    1392 00000001 9294          MOV       AL,*+XAR4[AR0]        ; [CPU_] |500| 
    1393 00000002 D0EF          MOVB      XAR0,#239             ; [CPU_] |500| 
    1394 00000003 5494          CMP       AL,*+XAR4[AR0]        ; [CPU_] |500| 
    1395 00000004 6605          B         $C$L21,HI             ; [CPU_] |500| 
    1396                      ; branchcc occurs ; [] |500| 
    1397                      .dwpsn  file "C:/ti/motorware/motorware_1_01_00_18/sw/modules/ctrl/src/32b/ctrl.h",line 1123,column 3
    1398 00000005 D0EF          MOVB      XAR0,#239             ; [CPU_] |1123| 
    1399 00000006 2B94          MOV       *+XAR4[AR0],#0        ; [CPU_] |1123| 
    1400                      .dwpsn  file "C:/ti/motorware/motorware_1_01_00_18/sw/modules/ctrl/src/32b/ctrl.c",line 508,column 7,
    1401              $C$DW$161       .dwtag  DW_TAG_TI_branch
    1402                      .dwattr $C$DW$161, DW_AT_low_pc(0x00)
    1403                      .dwattr $C$DW$161, DW_AT_name("_CTRL_runTraj")
    1404                      .dwattr $C$DW$161, DW_AT_TI_call
    1405 00000007 7640!         LCR       #_CTRL_runTraj        ; [CPU_] |508| 
         00000008 0000 
    1406                      ; call occurs [#_CTRL_runTraj] ; [] |508| 
    1407              $C$L21:    
    1408              $C$DW$162       .dwtag  DW_TAG_TI_branch
    1409                      .dwattr $C$DW$162, DW_AT_low_pc(0x00)
    1410                      .dwattr $C$DW$162, DW_AT_TI_return
    1411 00000009 0006          LRETR     ; [CPU_] 
    1412                      ; return occurs ; [] 
    1413                      .dwattr $C$DW$158, DW_AT_TI_end_file("C:/ti/motorware/motorware_1_01_00_18/sw/modules/ctrl/src/32b/ct
    1414                      .dwattr $C$DW$158, DW_AT_TI_end_line(0x200)
    1415                      .dwattr $C$DW$158, DW_AT_TI_end_column(0x01)
    1416                      .dwendentry
    1417                      .dwendtag $C$DW$158
    1418              
    1419 00000141               .sect   ".text"
    1420                      .clink
    1421                      .global _CTRL_setWaitTimes
    1422              
    1423              $C$DW$163       .dwtag  DW_TAG_subprogram, DW_AT_name("CTRL_setWaitTimes")
    1424                      .dwattr $C$DW$163, DW_AT_low_pc(_CTRL_setWaitTimes)
    1425                      .dwattr $C$DW$163, DW_AT_high_pc(0x00)
    1426                      .dwattr $C$DW$163, DW_AT_TI_symbol_name("_CTRL_setWaitTimes")
    1427                      .dwattr $C$DW$163, DW_AT_external
    1428                      .dwattr $C$DW$163, DW_AT_TI_begin_file("C:/ti/motorware/motorware_1_01_00_18/sw/modules/ctrl/src/32b/
TMS320C2000 Assembler PC v6.2.5 Tue Jun 27 16:56:14 2017

Tools Copyright (c) 1996-2014 Texas Instruments Incorporated
C:\Users\wmj\AppData\Local\Temp\1139610                              PAGE   28

    1429                      .dwattr $C$DW$163, DW_AT_TI_begin_line(0x276)
    1430                      .dwattr $C$DW$163, DW_AT_TI_begin_column(0x06)
    1431                      .dwattr $C$DW$163, DW_AT_TI_max_frame_size(-2)
    1432                      .dwpsn  file "C:/ti/motorware/motorware_1_01_00_18/sw/modules/ctrl/src/32b/ctrl.c",line 631,column 1,
    1433              
    1434                      .dwfde $C$DW$CIE, _CTRL_setWaitTimes
    1435              $C$DW$164       .dwtag  DW_TAG_formal_parameter, DW_AT_name("handle")
    1436                      .dwattr $C$DW$164, DW_AT_TI_symbol_name("_handle")
    1437                      .dwattr $C$DW$164, DW_AT_type(*$C$DW$T$161)
    1438                      .dwattr $C$DW$164, DW_AT_location[DW_OP_reg12]
    1439              $C$DW$165       .dwtag  DW_TAG_formal_parameter, DW_AT_name("pWaitTimes")
    1440                      .dwattr $C$DW$165, DW_AT_TI_symbol_name("_pWaitTimes")
    1441                      .dwattr $C$DW$165, DW_AT_type(*$C$DW$T$282)
    1442                      .dwattr $C$DW$165, DW_AT_location[DW_OP_reg14]
    1443              
    1444              ;***************************************************************
    1445              ;* FNAME: _CTRL_setWaitTimes            FR SIZE:   0           *
    1446              ;*                                                             *
    1447              ;* FUNCTION ENVIRONMENT                                        *
    1448              ;*                                                             *
    1449              ;* FUNCTION PROPERTIES                                         *
    1450              ;*                            0 Parameter,  0 Auto,  0 SOE     *
    1451              ;***************************************************************
    1452              
    1453              _CTRL_setWaitTimes:
    1454              ;* AR4   assigned to _handle
    1455              $C$DW$166       .dwtag  DW_TAG_variable, DW_AT_name("handle")
    1456                      .dwattr $C$DW$166, DW_AT_TI_symbol_name("_handle")
    1457                      .dwattr $C$DW$166, DW_AT_type(*$C$DW$T$175)
    1458                      .dwattr $C$DW$166, DW_AT_location[DW_OP_reg12]
    1459              ;* AR5   assigned to _pWaitTimes
    1460              $C$DW$167       .dwtag  DW_TAG_variable, DW_AT_name("pWaitTimes")
    1461                      .dwattr $C$DW$167, DW_AT_TI_symbol_name("_pWaitTimes")
    1462                      .dwattr $C$DW$167, DW_AT_type(*$C$DW$T$324)
    1463                      .dwattr $C$DW$167, DW_AT_location[DW_OP_reg14]
    1464              ;* AR6   assigned to $O$L1
    1465              ;* AL    assigned to $O$K11
    1466              ;* AR4   assigned to $O$U12
    1467              ;* AR5   assigned to $O$U7
    1468                      .dwcfi  cfa_offset, -2
    1469                      .dwcfi  save_reg_to_mem, 26, 0
    1470                      .dwcfi  save_reg_to_reg, 78, 26
    1471 00000141 0292          MOVB      ACC,#146              ; [CPU_] 
    1472 00000142 BE03          MOVB      XAR6,#3               ; [CPU_] 
    1473 00000143 07A4          ADDL      ACC,XAR4              ; [CPU_] 
    1474 00000144 8AA9          MOVL      XAR4,ACC              ; [CPU_] 
    1475 00000145       $C$L22:    
    1476                      .dwpsn  file "C:/ti/motorware/motorware_1_01_00_18/sw/modules/ctrl/src/32b/ctrl.c",line 637,column 7,
    1477 00000145 0685          MOVL      ACC,*XAR5++           ; [CPU_] |637| 
    1478 00000146 1E84          MOVL      *XAR4++,ACC           ; [CPU_] |637| 
    1479                      .dwpsn  file "C:/ti/motorware/motorware_1_01_00_18/sw/modules/ctrl/src/32b/ctrl.c",line 635,column 18
    1480 00000147 000E          BANZ      $C$L22,AR6--          ; [CPU_] |635| 
         00000148 FFFE 
    1481                      ; branchcc occurs ; [] |635| 
    1482              $C$DW$168       .dwtag  DW_TAG_TI_branch
TMS320C2000 Assembler PC v6.2.5 Tue Jun 27 16:56:14 2017

Tools Copyright (c) 1996-2014 Texas Instruments Incorporated
C:\Users\wmj\AppData\Local\Temp\1139610                              PAGE   29

    1483                      .dwattr $C$DW$168, DW_AT_low_pc(0x00)
    1484                      .dwattr $C$DW$168, DW_AT_TI_return
    1485 00000149 0006          LRETR     ; [CPU_] 
    1486                      ; return occurs ; [] 
    1487                      .dwattr $C$DW$163, DW_AT_TI_end_file("C:/ti/motorware/motorware_1_01_00_18/sw/modules/ctrl/src/32b/ct
    1488                      .dwattr $C$DW$163, DW_AT_TI_end_line(0x281)
    1489                      .dwattr $C$DW$163, DW_AT_TI_end_column(0x01)
    1490                      .dwendentry
    1491                      .dwendtag $C$DW$163
    1492              
    1493 0000014a               .sect   ".text"
    1494                      .clink
    1495                      .global _CTRL_setSpd_ref_pu
    1496              
    1497              $C$DW$169       .dwtag  DW_TAG_subprogram, DW_AT_name("CTRL_setSpd_ref_pu")
    1498                      .dwattr $C$DW$169, DW_AT_low_pc(_CTRL_setSpd_ref_pu)
    1499                      .dwattr $C$DW$169, DW_AT_high_pc(0x00)
    1500                      .dwattr $C$DW$169, DW_AT_TI_symbol_name("_CTRL_setSpd_ref_pu")
    1501                      .dwattr $C$DW$169, DW_AT_external
    1502                      .dwattr $C$DW$169, DW_AT_TI_begin_file("C:/ti/motorware/motorware_1_01_00_18/sw/modules/ctrl/src/32b/
    1503                      .dwattr $C$DW$169, DW_AT_TI_begin_line(0x1d3)
    1504                      .dwattr $C$DW$169, DW_AT_TI_begin_column(0x06)
    1505                      .dwattr $C$DW$169, DW_AT_TI_max_frame_size(-2)
    1506                      .dwpsn  file "C:/ti/motorware/motorware_1_01_00_18/sw/modules/ctrl/src/32b/ctrl.c",line 468,column 1,
    1507              
    1508                      .dwfde $C$DW$CIE, _CTRL_setSpd_ref_pu
    1509              $C$DW$170       .dwtag  DW_TAG_formal_parameter, DW_AT_name("handle")
    1510                      .dwattr $C$DW$170, DW_AT_TI_symbol_name("_handle")
    1511                      .dwattr $C$DW$170, DW_AT_type(*$C$DW$T$161)
    1512                      .dwattr $C$DW$170, DW_AT_location[DW_OP_reg12]
    1513              $C$DW$171       .dwtag  DW_TAG_formal_parameter, DW_AT_name("spd_ref_pu")
    1514                      .dwattr $C$DW$171, DW_AT_TI_symbol_name("_spd_ref_pu")
    1515                      .dwattr $C$DW$171, DW_AT_type(*$C$DW$T$226)
    1516                      .dwattr $C$DW$171, DW_AT_location[DW_OP_reg0]
    1517              
    1518              ;***************************************************************
    1519              ;* FNAME: _CTRL_setSpd_ref_pu           FR SIZE:   0           *
    1520              ;*                                                             *
    1521              ;* FUNCTION ENVIRONMENT                                        *
    1522              ;*                                                             *
    1523              ;* FUNCTION PROPERTIES                                         *
    1524              ;*                            0 Parameter,  0 Auto,  0 SOE     *
    1525              ;***************************************************************
    1526              
    1527              _CTRL_setSpd_ref_pu:
    1528              ;* AR4   assigned to _handle
    1529              $C$DW$172       .dwtag  DW_TAG_variable, DW_AT_name("handle")
    1530                      .dwattr $C$DW$172, DW_AT_TI_symbol_name("_handle")
    1531                      .dwattr $C$DW$172, DW_AT_type(*$C$DW$T$175)
    1532                      .dwattr $C$DW$172, DW_AT_location[DW_OP_reg12]
    1533              ;* AL    assigned to _spd_ref_pu
    1534              $C$DW$173       .dwtag  DW_TAG_variable, DW_AT_name("spd_ref_pu")
    1535                      .dwattr $C$DW$173, DW_AT_TI_symbol_name("_spd_ref_pu")
    1536                      .dwattr $C$DW$173, DW_AT_type(*$C$DW$T$226)
    1537                      .dwattr $C$DW$173, DW_AT_location[DW_OP_reg0]
TMS320C2000 Assembler PC v6.2.5 Tue Jun 27 16:56:14 2017

Tools Copyright (c) 1996-2014 Texas Instruments Incorporated
C:\Users\wmj\AppData\Local\Temp\1139610                              PAGE   30

    1538                      .dwcfi  cfa_offset, -2
    1539                      .dwcfi  save_reg_to_mem, 26, 0
    1540                      .dwcfi  save_reg_to_reg, 78, 26
    1541                      .dwpsn  file "C:/ti/motorware/motorware_1_01_00_18/sw/modules/ctrl/src/32b/ctrl.c",line 471,column 3,
    1542 0000014a D0E8          MOVB      XAR0,#232             ; [CPU_] |471| 
    1543 0000014b 1E94          MOVL      *+XAR4[AR0],ACC       ; [CPU_] |471| 
    1544              $C$DW$174       .dwtag  DW_TAG_TI_branch
    1545                      .dwattr $C$DW$174, DW_AT_low_pc(0x00)
    1546                      .dwattr $C$DW$174, DW_AT_TI_return
    1547 0000014c 0006          LRETR     ; [CPU_] 
    1548                      ; return occurs ; [] 
    1549                      .dwattr $C$DW$169, DW_AT_TI_end_file("C:/ti/motorware/motorware_1_01_00_18/sw/modules/ctrl/src/32b/ct
    1550                      .dwattr $C$DW$169, DW_AT_TI_end_line(0x1da)
    1551                      .dwattr $C$DW$169, DW_AT_TI_end_column(0x01)
    1552                      .dwendentry
    1553                      .dwendtag $C$DW$169
    1554              
    1555 0000014d               .sect   ".text"
    1556                      .clink
    1557                      .global _CTRL_setSpd_ref_krpm
    1558              
    1559              $C$DW$175       .dwtag  DW_TAG_subprogram, DW_AT_name("CTRL_setSpd_ref_krpm")
    1560                      .dwattr $C$DW$175, DW_AT_low_pc(_CTRL_setSpd_ref_krpm)
    1561                      .dwattr $C$DW$175, DW_AT_high_pc(0x00)
    1562                      .dwattr $C$DW$175, DW_AT_TI_symbol_name("_CTRL_setSpd_ref_krpm")
    1563                      .dwattr $C$DW$175, DW_AT_external
    1564                      .dwattr $C$DW$175, DW_AT_TI_begin_file("C:/ti/motorware/motorware_1_01_00_18/sw/modules/ctrl/src/32b/
    1565                      .dwattr $C$DW$175, DW_AT_TI_begin_line(0x1dd)
    1566                      .dwattr $C$DW$175, DW_AT_TI_begin_column(0x06)
    1567                      .dwattr $C$DW$175, DW_AT_TI_max_frame_size(-6)
    1568                      .dwpsn  file "C:/ti/motorware/motorware_1_01_00_18/sw/modules/ctrl/src/32b/ctrl.c",line 478,column 1,
    1569              
    1570                      .dwfde $C$DW$CIE, _CTRL_setSpd_ref_krpm
    1571              $C$DW$176       .dwtag  DW_TAG_formal_parameter, DW_AT_name("handle")
    1572                      .dwattr $C$DW$176, DW_AT_TI_symbol_name("_handle")
    1573                      .dwattr $C$DW$176, DW_AT_type(*$C$DW$T$161)
    1574                      .dwattr $C$DW$176, DW_AT_location[DW_OP_reg12]
    1575              $C$DW$177       .dwtag  DW_TAG_formal_parameter, DW_AT_name("spd_ref_krpm")
    1576                      .dwattr $C$DW$177, DW_AT_TI_symbol_name("_spd_ref_krpm")
    1577                      .dwattr $C$DW$177, DW_AT_type(*$C$DW$T$226)
    1578                      .dwattr $C$DW$177, DW_AT_location[DW_OP_reg0]
    1579              
    1580              ;***************************************************************
    1581              ;* FNAME: _CTRL_setSpd_ref_krpm         FR SIZE:   4           *
    1582              ;*                                                             *
    1583              ;* FUNCTION ENVIRONMENT                                        *
    1584              ;*                                                             *
    1585              ;* FUNCTION PROPERTIES                                         *
    1586              ;*                            0 Parameter,  0 Auto,  4 SOE     *
    1587              ;***************************************************************
    1588              
    1589              _CTRL_setSpd_ref_krpm:
    1590              ;* AR2   assigned to _handle
    1591              $C$DW$178       .dwtag  DW_TAG_variable, DW_AT_name("handle")
    1592                      .dwattr $C$DW$178, DW_AT_TI_symbol_name("_handle")
TMS320C2000 Assembler PC v6.2.5 Tue Jun 27 16:56:14 2017

Tools Copyright (c) 1996-2014 Texas Instruments Incorporated
C:\Users\wmj\AppData\Local\Temp\1139610                              PAGE   31

    1593                      .dwattr $C$DW$178, DW_AT_type(*$C$DW$T$175)
    1594                      .dwattr $C$DW$178, DW_AT_location[DW_OP_reg8]
    1595              ;* XT    assigned to _spd_ref_krpm
    1596              $C$DW$179       .dwtag  DW_TAG_variable, DW_AT_name("spd_ref_krpm")
    1597                      .dwattr $C$DW$179, DW_AT_TI_symbol_name("_spd_ref_krpm")
    1598                      .dwattr $C$DW$179, DW_AT_type(*$C$DW$T$226)
    1599                      .dwattr $C$DW$179, DW_AT_location[DW_OP_reg21]
    1600              ;* AL    assigned to _krpm_to_pu_sf
    1601              $C$DW$180       .dwtag  DW_TAG_variable, DW_AT_name("krpm_to_pu_sf")
    1602                      .dwattr $C$DW$180, DW_AT_TI_symbol_name("_krpm_to_pu_sf")
    1603                      .dwattr $C$DW$180, DW_AT_type(*$C$DW$T$32)
    1604                      .dwattr $C$DW$180, DW_AT_location[DW_OP_reg0]
    1605                      .dwcfi  cfa_offset, -2
    1606                      .dwcfi  save_reg_to_mem, 26, 0
    1607                      .dwcfi  save_reg_to_reg, 78, 26
    1608 0000014d B2BD          MOVL      *SP++,XAR1            ; [CPU_] 
    1609                      .dwcfi  save_reg_to_mem, 7, 2
    1610                      .dwcfi  cfa_offset, -4
    1611                      .dwpsn  file "C:/ti/motorware/motorware_1_01_00_18/sw/modules/ctrl/src/32b/ctrl.c",line 481,column 21
    1612 0000014e D018          MOVB      XAR0,#24              ; [CPU_] |481| 
    1613                      .dwpsn  file "C:/ti/motorware/motorware_1_01_00_18/sw/modules/ctrl/src/32b/ctrl.c",line 478,column 1,
    1614 0000014f 8BA9          MOVL      XAR1,ACC              ; [CPU_] |478| 
    1615 00000150 AABD          MOVL      *SP++,XAR2            ; [CPU_] 
    1616                      .dwcfi  save_reg_to_mem, 9, 4
    1617                      .dwcfi  cfa_offset, -6
    1618 00000151 86A4          MOVL      XAR2,XAR4             ; [CPU_] |478| 
    1619                      .dwpsn  file "C:/ti/motorware/motorware_1_01_00_18/sw/modules/ctrl/src/32b/ctrl.c",line 481,column 21
    1620 00000152 8A92          MOVL      XAR4,*+XAR2[AR0]      ; [CPU_] |481| 
    1621              $C$DW$181       .dwtag  DW_TAG_TI_branch
    1622                      .dwattr $C$DW$181, DW_AT_low_pc(0x00)
    1623                      .dwattr $C$DW$181, DW_AT_name("_EST_get_krpm_to_pu_sf")
    1624                      .dwattr $C$DW$181, DW_AT_TI_call
    1625 00000153 7640!         LCR       #_EST_get_krpm_to_pu_sf ; [CPU_] |481| 
         00000154 0000 
    1626                      ; call occurs [#_EST_get_krpm_to_pu_sf] ; [] |481| 
    1627                      .dwpsn  file "C:/ti/motorware/motorware_1_01_00_18/sw/modules/ctrl/src/32b/ctrl.c",line 485,column 3,
    1628 00000155 D0E8          MOVB      XAR0,#232             ; [CPU_] |485| 
    1629                      .dwpsn  file "C:/ti/motorware/motorware_1_01_00_18/sw/modules/ctrl/src/32b/ctrl.c",line 481,column 21
    1630 00000156 B2AC          MOVL      XT,XAR1               ; [CPU_] |481| 
    1631                      .dwpsn  file "C:/ti/motorware/motorware_1_01_00_18/sw/modules/ctrl/src/32b/ctrl.c",line 485,column 3,
    1632 00000157 5605          IMPYL     P,XT,ACC              ; [CPU_] |485| 
         00000158 00A9 
    1633 00000159 5663          QMPYL     ACC,XT,ACC            ; [CPU_] |485| 
         0000015a 00A9 
    1634 0000015b 56A7          LSL64     ACC:P,#8              ; [CPU_] |485| 
    1635 0000015c 1E92          MOVL      *+XAR2[AR0],ACC       ; [CPU_] |485| 
    1636 0000015d 86BE          MOVL      XAR2,*--SP            ; [CPU_] 
    1637                      .dwcfi  cfa_offset, -4
    1638                      .dwcfi  restore_reg, 9
    1639 0000015e 8BBE          MOVL      XAR1,*--SP            ; [CPU_] 
    1640                      .dwcfi  cfa_offset, -2
    1641                      .dwcfi  restore_reg, 7
    1642              $C$DW$182       .dwtag  DW_TAG_TI_branch
    1643                      .dwattr $C$DW$182, DW_AT_low_pc(0x00)
    1644                      .dwattr $C$DW$182, DW_AT_TI_return
TMS320C2000 Assembler PC v6.2.5 Tue Jun 27 16:56:14 2017

Tools Copyright (c) 1996-2014 Texas Instruments Incorporated
C:\Users\wmj\AppData\Local\Temp\1139610                              PAGE   32

    1645 0000015f 0006          LRETR     ; [CPU_] 
    1646                      ; return occurs ; [] 
    1647                      .dwattr $C$DW$175, DW_AT_TI_end_file("C:/ti/motorware/motorware_1_01_00_18/sw/modules/ctrl/src/32b/ct
    1648                      .dwattr $C$DW$175, DW_AT_TI_end_line(0x1e8)
    1649                      .dwattr $C$DW$175, DW_AT_TI_end_column(0x01)
    1650                      .dwendentry
    1651                      .dwendtag $C$DW$175
    1652              
    1653 00000160               .sect   ".text"
    1654                      .clink
    1655                      .global _CTRL_setGains
    1656              
    1657              $C$DW$183       .dwtag  DW_TAG_subprogram, DW_AT_name("CTRL_setGains")
    1658                      .dwattr $C$DW$183, DW_AT_low_pc(_CTRL_setGains)
    1659                      .dwattr $C$DW$183, DW_AT_high_pc(0x00)
    1660                      .dwattr $C$DW$183, DW_AT_TI_symbol_name("_CTRL_setGains")
    1661                      .dwattr $C$DW$183, DW_AT_external
    1662                      .dwattr $C$DW$183, DW_AT_TI_begin_file("C:/ti/motorware/motorware_1_01_00_18/sw/modules/ctrl/src/32b/
    1663                      .dwattr $C$DW$183, DW_AT_TI_begin_line(0x106)
    1664                      .dwattr $C$DW$183, DW_AT_TI_begin_column(0x06)
    1665                      .dwattr $C$DW$183, DW_AT_TI_max_frame_size(-2)
    1666                      .dwpsn  file "C:/ti/motorware/motorware_1_01_00_18/sw/modules/ctrl/src/32b/ctrl.c",line 264,column 1,
    1667              
    1668                      .dwfde $C$DW$CIE, _CTRL_setGains
    1669              $C$DW$184       .dwtag  DW_TAG_formal_parameter, DW_AT_name("handle")
    1670                      .dwattr $C$DW$184, DW_AT_TI_symbol_name("_handle")
    1671                      .dwattr $C$DW$184, DW_AT_type(*$C$DW$T$161)
    1672                      .dwattr $C$DW$184, DW_AT_location[DW_OP_reg12]
    1673              $C$DW$185       .dwtag  DW_TAG_formal_parameter, DW_AT_name("ctrlType")
    1674                      .dwattr $C$DW$185, DW_AT_TI_symbol_name("_ctrlType")
    1675                      .dwattr $C$DW$185, DW_AT_type(*$C$DW$T$172)
    1676                      .dwattr $C$DW$185, DW_AT_location[DW_OP_reg14]
    1677              $C$DW$186       .dwtag  DW_TAG_formal_parameter, DW_AT_name("Kp")
    1678                      .dwattr $C$DW$186, DW_AT_TI_symbol_name("_Kp")
    1679                      .dwattr $C$DW$186, DW_AT_type(*$C$DW$T$226)
    1680                      .dwattr $C$DW$186, DW_AT_location[DW_OP_reg0]
    1681              $C$DW$187       .dwtag  DW_TAG_formal_parameter, DW_AT_name("Ki")
    1682                      .dwattr $C$DW$187, DW_AT_TI_symbol_name("_Ki")
    1683                      .dwattr $C$DW$187, DW_AT_type(*$C$DW$T$226)
    1684                      .dwattr $C$DW$187, DW_AT_location[DW_OP_breg20 -4]
    1685              $C$DW$188       .dwtag  DW_TAG_formal_parameter, DW_AT_name("Kd")
    1686                      .dwattr $C$DW$188, DW_AT_TI_symbol_name("_Kd")
    1687                      .dwattr $C$DW$188, DW_AT_type(*$C$DW$T$226)
    1688                      .dwattr $C$DW$188, DW_AT_location[DW_OP_breg20 -6]
    1689              
    1690              ;***************************************************************
    1691              ;* FNAME: _CTRL_setGains                FR SIZE:   0           *
    1692              ;*                                                             *
    1693              ;* FUNCTION ENVIRONMENT                                        *
    1694              ;*                                                             *
    1695              ;* FUNCTION PROPERTIES                                         *
    1696              ;*                            0 Parameter,  0 Auto,  0 SOE     *
    1697              ;***************************************************************
    1698              
    1699              _CTRL_setGains:
TMS320C2000 Assembler PC v6.2.5 Tue Jun 27 16:56:14 2017

Tools Copyright (c) 1996-2014 Texas Instruments Incorporated
C:\Users\wmj\AppData\Local\Temp\1139610                              PAGE   33

    1700              ;* AR7   assigned to _Kd
    1701              $C$DW$189       .dwtag  DW_TAG_variable, DW_AT_name("Kd")
    1702                      .dwattr $C$DW$189, DW_AT_TI_symbol_name("_Kd")
    1703                      .dwattr $C$DW$189, DW_AT_type(*$C$DW$T$226)
    1704                      .dwattr $C$DW$189, DW_AT_location[DW_OP_reg18]
    1705              ;* PL    assigned to _Ki
    1706              $C$DW$190       .dwtag  DW_TAG_variable, DW_AT_name("Ki")
    1707                      .dwattr $C$DW$190, DW_AT_TI_symbol_name("_Ki")
    1708                      .dwattr $C$DW$190, DW_AT_type(*$C$DW$T$226)
    1709                      .dwattr $C$DW$190, DW_AT_location[DW_OP_reg2]
    1710              ;* AR6   assigned to _Kp
    1711              $C$DW$191       .dwtag  DW_TAG_variable, DW_AT_name("Kp")
    1712                      .dwattr $C$DW$191, DW_AT_TI_symbol_name("_Kp")
    1713                      .dwattr $C$DW$191, DW_AT_type(*$C$DW$T$226)
    1714                      .dwattr $C$DW$191, DW_AT_location[DW_OP_reg16]
    1715              ;* AL    assigned to _ctrlType
    1716              $C$DW$192       .dwtag  DW_TAG_variable, DW_AT_name("ctrlType")
    1717                      .dwattr $C$DW$192, DW_AT_TI_symbol_name("_ctrlType")
    1718                      .dwattr $C$DW$192, DW_AT_type(*$C$DW$T$172)
    1719                      .dwattr $C$DW$192, DW_AT_location[DW_OP_reg0]
    1720              ;* AR4   assigned to _handle
    1721              $C$DW$193       .dwtag  DW_TAG_variable, DW_AT_name("handle")
    1722                      .dwattr $C$DW$193, DW_AT_TI_symbol_name("_handle")
    1723                      .dwattr $C$DW$193, DW_AT_type(*$C$DW$T$175)
    1724                      .dwattr $C$DW$193, DW_AT_location[DW_OP_reg12]
    1725                      .dwcfi  cfa_offset, -2
    1726                      .dwcfi  save_reg_to_mem, 26, 0
    1727                      .dwcfi  save_reg_to_reg, 78, 26
    1728 00000160 1EA6          MOVL      XAR6,ACC              ; [CPU_] |264| 
    1729 00000161 92A5          MOV       AL,AR5                ; [CPU_] |264| 
    1730 00000162 C546          MOVL      XAR7,*-SP[6]          ; [CPU_] |264| 
    1731 00000163 A344          MOVL      P,*-SP[4]             ; [CPU_] |264| 
    1732                      .dwpsn  file "C:/ti/motorware/motorware_1_01_00_18/sw/modules/ctrl/src/32b/ctrl.h",line 1503,column 3
    1733 00000164 EC09          BF        $C$L24,EQ             ; [CPU_] |1503| 
    1734                      ; branchcc occurs ; [] |1503| 
    1735                      .dwpsn  file "C:/ti/motorware/motorware_1_01_00_18/sw/modules/ctrl/src/32b/ctrl.h",line 1507,column 8
    1736 00000165 5201          CMPB      AL,#1                 ; [CPU_] |1507| 
    1737 00000166 EC05          BF        $C$L23,EQ             ; [CPU_] |1507| 
    1738                      ; branchcc occurs ; [] |1507| 
    1739                      .dwpsn  file "C:/ti/motorware/motorware_1_01_00_18/sw/modules/ctrl/src/32b/ctrl.h",line 1511,column 8
    1740 00000167 5202          CMPB      AL,#2                 ; [CPU_] |1511| 
    1741 00000168 ED07          BF        $C$L26,NEQ            ; [CPU_] |1511| 
    1742                      ; branchcc occurs ; [] |1511| 
    1743                      .dwpsn  file "C:/ti/motorware/motorware_1_01_00_18/sw/modules/ctrl/src/32b/ctrl.h",line 1513,column 7
    1744 00000169 D0CC          MOVB      XAR0,#204             ; [CPU_] |1513| 
    1745 0000016a 6F04          B         $C$L25,UNC            ; [CPU_] |1513| 
    1746                      ; branch occurs ; [] |1513| 
    1747 0000016b       $C$L23:    
    1748                      .dwpsn  file "C:/ti/motorware/motorware_1_01_00_18/sw/modules/ctrl/src/32b/ctrl.h",line 1509,column 7
    1749 0000016b D0CA          MOVB      XAR0,#202             ; [CPU_] |1509| 
    1750                      .dwpsn  file "C:/ti/motorware/motorware_1_01_00_18/sw/modules/ctrl/src/32b/ctrl.h",line 1510,column 5
    1751 0000016c 6F02          B         $C$L25,UNC            ; [CPU_] |1510| 
    1752                      ; branch occurs ; [] |1510| 
    1753 0000016d       $C$L24:    
    1754                      .dwpsn  file "C:/ti/motorware/motorware_1_01_00_18/sw/modules/ctrl/src/32b/ctrl.h",line 1505,column 7
TMS320C2000 Assembler PC v6.2.5 Tue Jun 27 16:56:14 2017

Tools Copyright (c) 1996-2014 Texas Instruments Incorporated
C:\Users\wmj\AppData\Local\Temp\1139610                              PAGE   34

    1755 0000016d D0CE          MOVB      XAR0,#206             ; [CPU_] |1505| 
    1756 0000016e       $C$L25:    
    1757 0000016e C294          MOVL      *+XAR4[AR0],XAR6      ; [CPU_] |1505| 
    1758 0000016f       $C$L26:    
    1759                      .dwpsn  file "C:/ti/motorware/motorware_1_01_00_18/sw/modules/ctrl/src/32b/ctrl.h",line 1478,column 3
    1760 0000016f 5200          CMPB      AL,#0                 ; [CPU_] |1478| 
    1761 00000170 EC09          BF        $C$L28,EQ             ; [CPU_] |1478| 
    1762                      ; branchcc occurs ; [] |1478| 
    1763                      .dwpsn  file "C:/ti/motorware/motorware_1_01_00_18/sw/modules/ctrl/src/32b/ctrl.h",line 1482,column 8
    1764 00000171 5201          CMPB      AL,#1                 ; [CPU_] |1482| 
    1765 00000172 EC05          BF        $C$L27,EQ             ; [CPU_] |1482| 
    1766                      ; branchcc occurs ; [] |1482| 
    1767                      .dwpsn  file "C:/ti/motorware/motorware_1_01_00_18/sw/modules/ctrl/src/32b/ctrl.h",line 1486,column 8
    1768 00000173 5202          CMPB      AL,#2                 ; [CPU_] |1486| 
    1769 00000174 ED07          BF        $C$L30,NEQ            ; [CPU_] |1486| 
    1770                      ; branchcc occurs ; [] |1486| 
    1771                      .dwpsn  file "C:/ti/motorware/motorware_1_01_00_18/sw/modules/ctrl/src/32b/ctrl.h",line 1488,column 7
    1772 00000175 D0D2          MOVB      XAR0,#210             ; [CPU_] |1488| 
    1773 00000176 6F04          B         $C$L29,UNC            ; [CPU_] |1488| 
    1774                      ; branch occurs ; [] |1488| 
    1775 00000177       $C$L27:    
    1776                      .dwpsn  file "C:/ti/motorware/motorware_1_01_00_18/sw/modules/ctrl/src/32b/ctrl.h",line 1484,column 7
    1777 00000177 D0D0          MOVB      XAR0,#208             ; [CPU_] |1484| 
    1778                      .dwpsn  file "C:/ti/motorware/motorware_1_01_00_18/sw/modules/ctrl/src/32b/ctrl.h",line 1485,column 5
    1779 00000178 6F02          B         $C$L29,UNC            ; [CPU_] |1485| 
    1780                      ; branch occurs ; [] |1485| 
    1781 00000179       $C$L28:    
    1782                      .dwpsn  file "C:/ti/motorware/motorware_1_01_00_18/sw/modules/ctrl/src/32b/ctrl.h",line 1480,column 7
    1783 00000179 D0D4          MOVB      XAR0,#212             ; [CPU_] |1480| 
    1784 0000017a       $C$L29:    
    1785 0000017a A994          MOVL      *+XAR4[AR0],P         ; [CPU_] |1480| 
    1786 0000017b       $C$L30:    
    1787                      .dwpsn  file "C:/ti/motorware/motorware_1_01_00_18/sw/modules/ctrl/src/32b/ctrl.h",line 1453,column 3
    1788 0000017b 5200          CMPB      AL,#0                 ; [CPU_] |1453| 
    1789 0000017c EC09          BF        $C$L32,EQ             ; [CPU_] |1453| 
    1790                      ; branchcc occurs ; [] |1453| 
    1791                      .dwpsn  file "C:/ti/motorware/motorware_1_01_00_18/sw/modules/ctrl/src/32b/ctrl.h",line 1457,column 8
    1792 0000017d 5201          CMPB      AL,#1                 ; [CPU_] |1457| 
    1793 0000017e EC05          BF        $C$L31,EQ             ; [CPU_] |1457| 
    1794                      ; branchcc occurs ; [] |1457| 
    1795                      .dwpsn  file "C:/ti/motorware/motorware_1_01_00_18/sw/modules/ctrl/src/32b/ctrl.h",line 1461,column 8
    1796 0000017f 5202          CMPB      AL,#2                 ; [CPU_] |1461| 
    1797 00000180 ED07          BF        $C$L34,NEQ            ; [CPU_] |1461| 
    1798                      ; branchcc occurs ; [] |1461| 
    1799                      .dwpsn  file "C:/ti/motorware/motorware_1_01_00_18/sw/modules/ctrl/src/32b/ctrl.h",line 1463,column 7
    1800 00000181 D0D8          MOVB      XAR0,#216             ; [CPU_] |1463| 
    1801 00000182 6F04          B         $C$L33,UNC            ; [CPU_] |1463| 
    1802                      ; branch occurs ; [] |1463| 
    1803 00000183       $C$L31:    
    1804                      .dwpsn  file "C:/ti/motorware/motorware_1_01_00_18/sw/modules/ctrl/src/32b/ctrl.h",line 1459,column 7
    1805 00000183 D0D6          MOVB      XAR0,#214             ; [CPU_] |1459| 
    1806                      .dwpsn  file "C:/ti/motorware/motorware_1_01_00_18/sw/modules/ctrl/src/32b/ctrl.h",line 1460,column 5
    1807 00000184 6F02          B         $C$L33,UNC            ; [CPU_] |1460| 
    1808                      ; branch occurs ; [] |1460| 
    1809 00000185       $C$L32:    
TMS320C2000 Assembler PC v6.2.5 Tue Jun 27 16:56:14 2017

Tools Copyright (c) 1996-2014 Texas Instruments Incorporated
C:\Users\wmj\AppData\Local\Temp\1139610                              PAGE   35

    1810                      .dwpsn  file "C:/ti/motorware/motorware_1_01_00_18/sw/modules/ctrl/src/32b/ctrl.h",line 1455,column 7
    1811 00000185 D0DA          MOVB      XAR0,#218             ; [CPU_] |1455| 
    1812 00000186       $C$L33:    
    1813 00000186 C394          MOVL      *+XAR4[AR0],XAR7      ; [CPU_] |1455| 
    1814              $C$L34:    
    1815              $C$DW$194       .dwtag  DW_TAG_TI_branch
    1816                      .dwattr $C$DW$194, DW_AT_low_pc(0x00)
    1817                      .dwattr $C$DW$194, DW_AT_TI_return
    1818 00000187 0006          LRETR     ; [CPU_] 
    1819                      ; return occurs ; [] 
    1820                      .dwattr $C$DW$183, DW_AT_TI_end_file("C:/ti/motorware/motorware_1_01_00_18/sw/modules/ctrl/src/32b/ct
    1821                      .dwattr $C$DW$183, DW_AT_TI_end_line(0x10f)
    1822                      .dwattr $C$DW$183, DW_AT_TI_end_column(0x01)
    1823                      .dwendentry
    1824                      .dwendtag $C$DW$183
    1825              
    1826 00000188               .sect   ".text"
    1827                      .clink
    1828                      .global _CTRL_setParams
    1829              
    1830              $C$DW$195       .dwtag  DW_TAG_subprogram, DW_AT_name("CTRL_setParams")
    1831                      .dwattr $C$DW$195, DW_AT_low_pc(_CTRL_setParams)
    1832                      .dwattr $C$DW$195, DW_AT_high_pc(0x00)
    1833                      .dwattr $C$DW$195, DW_AT_TI_symbol_name("_CTRL_setParams")
    1834                      .dwattr $C$DW$195, DW_AT_external
    1835                      .dwattr $C$DW$195, DW_AT_TI_begin_file("C:/ti/motorware/motorware_1_01_00_18/sw/modules/ctrl/src/32b/
    1836                      .dwattr $C$DW$195, DW_AT_TI_begin_line(0x124)
    1837                      .dwattr $C$DW$195, DW_AT_TI_begin_column(0x06)
    1838                      .dwattr $C$DW$195, DW_AT_TI_max_frame_size(-50)
    1839                      .dwpsn  file "C:/ti/motorware/motorware_1_01_00_18/sw/modules/ctrl/src/32b/ctrl.c",line 293,column 1,
    1840              
    1841                      .dwfde $C$DW$CIE, _CTRL_setParams
    1842              $C$DW$196       .dwtag  DW_TAG_formal_parameter, DW_AT_name("handle")
    1843                      .dwattr $C$DW$196, DW_AT_TI_symbol_name("_handle")
    1844                      .dwattr $C$DW$196, DW_AT_type(*$C$DW$T$161)
    1845                      .dwattr $C$DW$196, DW_AT_location[DW_OP_reg12]
    1846              $C$DW$197       .dwtag  DW_TAG_formal_parameter, DW_AT_name("pUserParams")
    1847                      .dwattr $C$DW$197, DW_AT_TI_symbol_name("_pUserParams")
    1848                      .dwattr $C$DW$197, DW_AT_type(*$C$DW$T$219)
    1849                      .dwattr $C$DW$197, DW_AT_location[DW_OP_reg14]
    1850              
    1851              ;***************************************************************
    1852              ;* FNAME: _CTRL_setParams               FR SIZE:  48           *
    1853              ;*                                                             *
    1854              ;* FUNCTION ENVIRONMENT                                        *
    1855              ;*                                                             *
    1856              ;* FUNCTION PROPERTIES                                         *
    1857              ;*                            4 Parameter, 38 Auto,  6 SOE     *
    1858              ;***************************************************************
    1859              
    1860              _CTRL_setParams:
    1861              ;* AR3   assigned to $O$C1
    1862              ;* AR2   assigned to $O$C2
    1863              ;* AR4   assigned to $O$C4
    1864              ;* AR4   assigned to $O$C5
TMS320C2000 Assembler PC v6.2.5 Tue Jun 27 16:56:14 2017

Tools Copyright (c) 1996-2014 Texas Instruments Incorporated
C:\Users\wmj\AppData\Local\Temp\1139610                              PAGE   36

    1865              ;* AR4   assigned to $O$C6
    1866              ;* AR4   assigned to $O$C7
    1867              ;* AR4   assigned to $O$C8
    1868              ;* AR4   assigned to $O$C9
    1869              ;* AH    assigned to _numPolePairs
    1870              $C$DW$198       .dwtag  DW_TAG_variable, DW_AT_name("numPolePairs")
    1871                      .dwattr $C$DW$198, DW_AT_TI_symbol_name("_numPolePairs")
    1872                      .dwattr $C$DW$198, DW_AT_type(*$C$DW$T$67)
    1873                      .dwattr $C$DW$198, DW_AT_location[DW_OP_reg1]
    1874              ;* AR2   assigned to _ratedFlux
    1875              $C$DW$199       .dwtag  DW_TAG_variable, DW_AT_name("ratedFlux")
    1876                      .dwattr $C$DW$199, DW_AT_TI_symbol_name("_ratedFlux")
    1877                      .dwattr $C$DW$199, DW_AT_type(*$C$DW$T$68)
    1878                      .dwattr $C$DW$199, DW_AT_location[DW_OP_reg8]
    1879              ;* XT    assigned to _Ls_d
    1880              $C$DW$200       .dwtag  DW_TAG_variable, DW_AT_name("Ls_d")
    1881                      .dwattr $C$DW$200, DW_AT_TI_symbol_name("_Ls_d")
    1882                      .dwattr $C$DW$200, DW_AT_type(*$C$DW$T$68)
    1883                      .dwattr $C$DW$200, DW_AT_location[DW_OP_reg21]
    1884              ;* AR4   assigned to _Ls_q
    1885              $C$DW$201       .dwtag  DW_TAG_variable, DW_AT_name("Ls_q")
    1886                      .dwattr $C$DW$201, DW_AT_TI_symbol_name("_Ls_q")
    1887                      .dwattr $C$DW$201, DW_AT_type(*$C$DW$T$68)
    1888                      .dwattr $C$DW$201, DW_AT_location[DW_OP_reg12]
    1889              ;* PL    assigned to _Rr
    1890              $C$DW$202       .dwtag  DW_TAG_variable, DW_AT_name("Rr")
    1891                      .dwattr $C$DW$202, DW_AT_TI_symbol_name("_Rr")
    1892                      .dwattr $C$DW$202, DW_AT_type(*$C$DW$T$68)
    1893                      .dwattr $C$DW$202, DW_AT_location[DW_OP_reg2]
    1894              ;* AR6   assigned to _Rs
    1895              $C$DW$203       .dwtag  DW_TAG_variable, DW_AT_name("Rs")
    1896                      .dwattr $C$DW$203, DW_AT_TI_symbol_name("_Rs")
    1897                      .dwattr $C$DW$203, DW_AT_type(*$C$DW$T$68)
    1898                      .dwattr $C$DW$203, DW_AT_location[DW_OP_reg16]
    1899              ;* AR7   assigned to _Ki
    1900              $C$DW$204       .dwtag  DW_TAG_variable, DW_AT_name("Ki")
    1901                      .dwattr $C$DW$204, DW_AT_TI_symbol_name("_Ki")
    1902                      .dwattr $C$DW$204, DW_AT_type(*$C$DW$T$32)
    1903                      .dwattr $C$DW$204, DW_AT_location[DW_OP_reg18]
    1904              ;* AR4   assigned to _obj
    1905              $C$DW$205       .dwtag  DW_TAG_variable, DW_AT_name("obj")
    1906                      .dwattr $C$DW$205, DW_AT_TI_symbol_name("_obj")
    1907                      .dwattr $C$DW$205, DW_AT_type(*$C$DW$T$217)
    1908                      .dwattr $C$DW$205, DW_AT_location[DW_OP_reg12]
    1909              ;* AR4   assigned to _obj
    1910              $C$DW$206       .dwtag  DW_TAG_variable, DW_AT_name("obj")
    1911                      .dwattr $C$DW$206, DW_AT_TI_symbol_name("_obj")
    1912                      .dwattr $C$DW$206, DW_AT_type(*$C$DW$T$217)
    1913                      .dwattr $C$DW$206, DW_AT_location[DW_OP_reg12]
    1914              ;* AR7   assigned to _Ki
    1915              $C$DW$207       .dwtag  DW_TAG_variable, DW_AT_name("Ki")
    1916                      .dwattr $C$DW$207, DW_AT_TI_symbol_name("_Ki")
    1917                      .dwattr $C$DW$207, DW_AT_type(*$C$DW$T$32)
    1918                      .dwattr $C$DW$207, DW_AT_location[DW_OP_reg18]
    1919              ;* AR4   assigned to _obj
TMS320C2000 Assembler PC v6.2.5 Tue Jun 27 16:56:14 2017

Tools Copyright (c) 1996-2014 Texas Instruments Incorporated
C:\Users\wmj\AppData\Local\Temp\1139610                              PAGE   37

    1920              $C$DW$208       .dwtag  DW_TAG_variable, DW_AT_name("obj")
    1921                      .dwattr $C$DW$208, DW_AT_TI_symbol_name("_obj")
    1922                      .dwattr $C$DW$208, DW_AT_type(*$C$DW$T$217)
    1923                      .dwattr $C$DW$208, DW_AT_location[DW_OP_reg12]
    1924              ;* AR4   assigned to _obj
    1925              $C$DW$209       .dwtag  DW_TAG_variable, DW_AT_name("obj")
    1926                      .dwattr $C$DW$209, DW_AT_TI_symbol_name("_obj")
    1927                      .dwattr $C$DW$209, DW_AT_type(*$C$DW$T$217)
    1928                      .dwattr $C$DW$209, DW_AT_location[DW_OP_reg12]
    1929              ;* AR7   assigned to _Ki
    1930              $C$DW$210       .dwtag  DW_TAG_variable, DW_AT_name("Ki")
    1931                      .dwattr $C$DW$210, DW_AT_TI_symbol_name("_Ki")
    1932                      .dwattr $C$DW$210, DW_AT_type(*$C$DW$T$32)
    1933                      .dwattr $C$DW$210, DW_AT_location[DW_OP_reg18]
    1934              ;* AR4   assigned to _obj
    1935              $C$DW$211       .dwtag  DW_TAG_variable, DW_AT_name("obj")
    1936                      .dwattr $C$DW$211, DW_AT_TI_symbol_name("_obj")
    1937                      .dwattr $C$DW$211, DW_AT_type(*$C$DW$T$217)
    1938                      .dwattr $C$DW$211, DW_AT_location[DW_OP_reg12]
    1939              ;* AR4   assigned to _obj
    1940              $C$DW$212       .dwtag  DW_TAG_variable, DW_AT_name("obj")
    1941                      .dwattr $C$DW$212, DW_AT_TI_symbol_name("_obj")
    1942                      .dwattr $C$DW$212, DW_AT_type(*$C$DW$T$217)
    1943                      .dwattr $C$DW$212, DW_AT_location[DW_OP_reg12]
    1944              ;* AR7   assigned to _Ki
    1945              $C$DW$213       .dwtag  DW_TAG_variable, DW_AT_name("Ki")
    1946                      .dwattr $C$DW$213, DW_AT_TI_symbol_name("_Ki")
    1947                      .dwattr $C$DW$213, DW_AT_type(*$C$DW$T$32)
    1948                      .dwattr $C$DW$213, DW_AT_location[DW_OP_reg18]
    1949              $C$DW$214       .dwtag  DW_TAG_variable, DW_AT_name("Kp")
    1950                      .dwattr $C$DW$214, DW_AT_TI_symbol_name("_Kp")
    1951                      .dwattr $C$DW$214, DW_AT_type(*$C$DW$T$32)
    1952                      .dwattr $C$DW$214, DW_AT_location[DW_OP_breg20 -40]
    1953              $C$DW$215       .dwtag  DW_TAG_variable, DW_AT_name("pUserParams")
    1954                      .dwattr $C$DW$215, DW_AT_TI_symbol_name("_pUserParams")
    1955                      .dwattr $C$DW$215, DW_AT_type(*$C$DW$T$220)
    1956                      .dwattr $C$DW$215, DW_AT_location[DW_OP_breg20 -42]
    1957              ;* AR1   assigned to _handle
    1958              $C$DW$216       .dwtag  DW_TAG_variable, DW_AT_name("handle")
    1959                      .dwattr $C$DW$216, DW_AT_TI_symbol_name("_handle")
    1960                      .dwattr $C$DW$216, DW_AT_type(*$C$DW$T$175)
    1961                      .dwattr $C$DW$216, DW_AT_location[DW_OP_reg6]
    1962              $C$DW$217       .dwtag  DW_TAG_variable, DW_AT_name("Iab_out_pu")
    1963                      .dwattr $C$DW$217, DW_AT_TI_symbol_name("_Iab_out_pu")
    1964                      .dwattr $C$DW$217, DW_AT_type(*$C$DW$T$69)
    1965                      .dwattr $C$DW$217, DW_AT_location[DW_OP_breg20 -8]
    1966              $C$DW$218       .dwtag  DW_TAG_variable, DW_AT_name("Idq_out_pu")
    1967                      .dwattr $C$DW$218, DW_AT_TI_symbol_name("_Idq_out_pu")
    1968                      .dwattr $C$DW$218, DW_AT_type(*$C$DW$T$69)
    1969                      .dwattr $C$DW$218, DW_AT_location[DW_OP_breg20 -12]
    1970              $C$DW$219       .dwtag  DW_TAG_variable, DW_AT_name("Idq_ref_pu")
    1971                      .dwattr $C$DW$219, DW_AT_TI_symbol_name("_Idq_ref_pu")
    1972                      .dwattr $C$DW$219, DW_AT_type(*$C$DW$T$69)
    1973                      .dwattr $C$DW$219, DW_AT_location[DW_OP_breg20 -16]
    1974              $C$DW$220       .dwtag  DW_TAG_variable, DW_AT_name("Vab_in_pu")
TMS320C2000 Assembler PC v6.2.5 Tue Jun 27 16:56:14 2017

Tools Copyright (c) 1996-2014 Texas Instruments Incorporated
C:\Users\wmj\AppData\Local\Temp\1139610                              PAGE   38

    1975                      .dwattr $C$DW$220, DW_AT_TI_symbol_name("_Vab_in_pu")
    1976                      .dwattr $C$DW$220, DW_AT_type(*$C$DW$T$69)
    1977                      .dwattr $C$DW$220, DW_AT_location[DW_OP_breg20 -20]
    1978              $C$DW$221       .dwtag  DW_TAG_variable, DW_AT_name("Vab_out_pu")
    1979                      .dwattr $C$DW$221, DW_AT_TI_symbol_name("_Vab_out_pu")
    1980                      .dwattr $C$DW$221, DW_AT_type(*$C$DW$T$69)
    1981                      .dwattr $C$DW$221, DW_AT_location[DW_OP_breg20 -24]
    1982              $C$DW$222       .dwtag  DW_TAG_variable, DW_AT_name("Vdq_out_pu")
    1983                      .dwattr $C$DW$222, DW_AT_TI_symbol_name("_Vdq_out_pu")
    1984                      .dwattr $C$DW$222, DW_AT_type(*$C$DW$T$69)
    1985                      .dwattr $C$DW$222, DW_AT_location[DW_OP_breg20 -28]
    1986                      .dwcfi  cfa_offset, -2
    1987                      .dwcfi  save_reg_to_mem, 26, 0
    1988                      .dwcfi  save_reg_to_reg, 78, 26
    1989 00000188 B2BD          MOVL      *SP++,XAR1            ; [CPU_] 
    1990                      .dwcfi  save_reg_to_mem, 7, 2
    1991                      .dwcfi  cfa_offset, -4
    1992 00000189 AABD          MOVL      *SP++,XAR2            ; [CPU_] 
    1993                      .dwcfi  save_reg_to_mem, 9, 4
    1994                      .dwcfi  cfa_offset, -6
    1995 0000018a A2BD          MOVL      *SP++,XAR3            ; [CPU_] 
    1996                      .dwcfi  save_reg_to_mem, 11, 6
    1997                      .dwcfi  cfa_offset, -8
    1998 0000018b FE2A          ADDB      SP,#42                ; [CPU_U] 
    1999                      .dwcfi  cfa_offset, -50
    2000 0000018c 761F+         MOVW      DP,#_$P$T0$1          ; [CPU_U] 
         0000018d 0000 
    2001                      .dwpsn  file "C:/ti/motorware/motorware_1_01_00_18/sw/modules/ctrl/src/32b/ctrl.c",line 300,column 13
    2002 0000018e 0614+         MOVL      ACC,@_$P$T0$1         ; [CPU_] |300| 
    2003 0000018f 761F+         MOVW      DP,#_$P$T0$1+2        ; [CPU_U] 
         00000190 0000 
    2004 00000191 C416+         MOVL      XAR6,@_$P$T0$1+2      ; [CPU_] |300| 
    2005 00000192 1E48          MOVL      *-SP[8],ACC           ; [CPU_] |300| 
    2006 00000193 761F+         MOVW      DP,#_$P$T1$2          ; [CPU_U] 
         00000194 0000 
    2007                      .dwpsn  file "C:/ti/motorware/motorware_1_01_00_18/sw/modules/ctrl/src/32b/ctrl.c",line 301,column 13
    2008 00000195 060C+         MOVL      ACC,@_$P$T1$2         ; [CPU_] |301| 
    2009                      .dwpsn  file "C:/ti/motorware/motorware_1_01_00_18/sw/modules/ctrl/src/32b/ctrl.h",line 1592,column 3
    2010 00000196 C5A5          MOVL      XAR7,XAR5             ; [CPU_] |1592| 
    2011 00000197 761F+         MOVW      DP,#_$P$T1$2+2        ; [CPU_U] 
         00000198 0000 
    2012                      .dwpsn  file "C:/ti/motorware/motorware_1_01_00_18/sw/modules/ctrl/src/32b/ctrl.c",line 300,column 13
    2013 00000199 C246          MOVL      *-SP[6],XAR6          ; [CPU_] |300| 
    2014                      .dwpsn  file "C:/ti/motorware/motorware_1_01_00_18/sw/modules/ctrl/src/32b/ctrl.c",line 301,column 13
    2015 0000019a 1E4C          MOVL      *-SP[12],ACC          ; [CPU_] |301| 
    2016 0000019b C40E+         MOVL      XAR6,@_$P$T1$2+2      ; [CPU_] |301| 
    2017 0000019c 761F+         MOVW      DP,#_$P$T2$3          ; [CPU_U] 
         0000019d 0000 
    2018                      .dwpsn  file "C:/ti/motorware/motorware_1_01_00_18/sw/modules/ctrl/src/32b/ctrl.c",line 302,column 13
    2019 0000019e 0610+         MOVL      ACC,@_$P$T2$3         ; [CPU_] |302| 
    2020 0000019f 761F+         MOVW      DP,#_$P$T2$3+2        ; [CPU_U] 
         000001a0 0000 
    2021                      .dwpsn  file "C:/ti/motorware/motorware_1_01_00_18/sw/modules/ctrl/src/32b/ctrl.c",line 301,column 13
    2022 000001a1 C24A          MOVL      *-SP[10],XAR6         ; [CPU_] |301| 
    2023                      .dwpsn  file "C:/ti/motorware/motorware_1_01_00_18/sw/modules/ctrl/src/32b/ctrl.c",line 302,column 13
TMS320C2000 Assembler PC v6.2.5 Tue Jun 27 16:56:14 2017

Tools Copyright (c) 1996-2014 Texas Instruments Incorporated
C:\Users\wmj\AppData\Local\Temp\1139610                              PAGE   39

    2024 000001a2 1E50          MOVL      *-SP[16],ACC          ; [CPU_] |302| 
    2025 000001a3 C412+         MOVL      XAR6,@_$P$T2$3+2      ; [CPU_] |302| 
    2026 000001a4 761F+         MOVW      DP,#_$P$T3$4          ; [CPU_U] 
         000001a5 0000 
    2027                      .dwpsn  file "C:/ti/motorware/motorware_1_01_00_18/sw/modules/ctrl/src/32b/ctrl.c",line 303,column 13
    2028 000001a6 0608+         MOVL      ACC,@_$P$T3$4         ; [CPU_] |303| 
    2029 000001a7 761F+         MOVW      DP,#_$P$T3$4+2        ; [CPU_U] 
         000001a8 0000 
    2030                      .dwpsn  file "C:/ti/motorware/motorware_1_01_00_18/sw/modules/ctrl/src/32b/ctrl.c",line 302,column 13
    2031 000001a9 C24E          MOVL      *-SP[14],XAR6         ; [CPU_] |302| 
    2032                      .dwpsn  file "C:/ti/motorware/motorware_1_01_00_18/sw/modules/ctrl/src/32b/ctrl.c",line 303,column 13
    2033 000001aa 1E54          MOVL      *-SP[20],ACC          ; [CPU_] |303| 
    2034 000001ab C40A+         MOVL      XAR6,@_$P$T3$4+2      ; [CPU_] |303| 
    2035 000001ac 761F+         MOVW      DP,#_$P$T4$5          ; [CPU_U] 
         000001ad 0000 
    2036                      .dwpsn  file "C:/ti/motorware/motorware_1_01_00_18/sw/modules/ctrl/src/32b/ctrl.c",line 304,column 13
    2037 000001ae 0600+         MOVL      ACC,@_$P$T4$5         ; [CPU_] |304| 
    2038 000001af 761F+         MOVW      DP,#_$P$T4$5+2        ; [CPU_U] 
         000001b0 0000 
    2039                      .dwpsn  file "C:/ti/motorware/motorware_1_01_00_18/sw/modules/ctrl/src/32b/ctrl.c",line 303,column 13
    2040 000001b1 C252          MOVL      *-SP[18],XAR6         ; [CPU_] |303| 
    2041                      .dwpsn  file "C:/ti/motorware/motorware_1_01_00_18/sw/modules/ctrl/src/32b/ctrl.c",line 304,column 13
    2042 000001b2 1E58          MOVL      *-SP[24],ACC          ; [CPU_] |304| 
    2043 000001b3 C402+         MOVL      XAR6,@_$P$T4$5+2      ; [CPU_] |304| 
    2044 000001b4 761F+         MOVW      DP,#_$P$T5$6          ; [CPU_U] 
         000001b5 0000 
    2045                      .dwpsn  file "C:/ti/motorware/motorware_1_01_00_18/sw/modules/ctrl/src/32b/ctrl.c",line 305,column 13
    2046 000001b6 0604+         MOVL      ACC,@_$P$T5$6         ; [CPU_] |305| 
    2047 000001b7 761F+         MOVW      DP,#_$P$T5$6+2        ; [CPU_U] 
         000001b8 0000 
    2048                      .dwpsn  file "C:/ti/motorware/motorware_1_01_00_18/sw/modules/ctrl/src/32b/ctrl.c",line 304,column 13
    2049 000001b9 C256          MOVL      *-SP[22],XAR6         ; [CPU_] |304| 
    2050                      .dwpsn  file "C:/ti/motorware/motorware_1_01_00_18/sw/modules/ctrl/src/32b/ctrl.c",line 305,column 13
    2051 000001ba 1E5C          MOVL      *-SP[28],ACC          ; [CPU_] |305| 
    2052 000001bb C406+         MOVL      XAR6,@_$P$T5$6+2      ; [CPU_] |305| 
    2053                      .dwpsn  file "C:/ti/motorware/motorware_1_01_00_18/sw/modules/ctrl/src/32b/ctrl.c",line 309,column 3,
    2054 000001bc D035          MOVB      XAR0,#53              ; [CPU_] |309| 
    2055                      .dwpsn  file "C:/ti/motorware/motorware_1_01_00_18/sw/modules/ctrl/src/32b/ctrl.c",line 293,column 1,
    2056 000001bd A06A          MOVL      *-SP[42],XAR5         ; [CPU_] |293| 
    2057                      .dwpsn  file "C:/ti/motorware/motorware_1_01_00_18/sw/modules/ctrl/src/32b/ctrl.h",line 1592,column 3
    2058 000001be DF34          ADDB      XAR7,#52              ; [CPU_] |1592| 
    2059                      .dwpsn  file "C:/ti/motorware/motorware_1_01_00_18/sw/modules/ctrl/src/32b/ctrl.c",line 305,column 13
    2060 000001bf C25A          MOVL      *-SP[26],XAR6         ; [CPU_] |305| 
    2061                      .dwpsn  file "C:/ti/motorware/motorware_1_01_00_18/sw/modules/ctrl/src/32b/ctrl.c",line 309,column 3,
    2062 000001c0 9395          MOV       AH,*+XAR5[AR0]        ; [CPU_] |309| 
    2063                      .dwpsn  file "C:/ti/motorware/motorware_1_01_00_18/sw/modules/ctrl/src/32b/ctrl.h",line 1592,column 3
    2064 000001c1 92C7          MOV       AL,*XAR7              ; [CPU_] |1592| 
    2065                      .dwpsn  file "C:/ti/motorware/motorware_1_01_00_18/sw/modules/ctrl/src/32b/ctrl.c",line 309,column 3,
    2066 000001c2 D036          MOVB      XAR0,#54              ; [CPU_] |309| 
    2067                      .dwpsn  file "C:/ti/motorware/motorware_1_01_00_18/sw/modules/ctrl/src/32b/ctrl.h",line 1634,column 3
    2068 000001c3 C5A5          MOVL      XAR7,XAR5             ; [CPU_] |1634| 
    2069                      .dwpsn  file "C:/ti/motorware/motorware_1_01_00_18/sw/modules/ctrl/src/32b/ctrl.c",line 293,column 1,
    2070 000001c4 8BA4          MOVL      XAR1,XAR4             ; [CPU_] |293| 
    2071                      .dwpsn  file "C:/ti/motorware/motorware_1_01_00_18/sw/modules/ctrl/src/32b/ctrl.c",line 309,column 3,
    2072 000001c5 8695          MOVL      XAR2,*+XAR5[AR0]      ; [CPU_] |309| 
TMS320C2000 Assembler PC v6.2.5 Tue Jun 27 16:56:14 2017

Tools Copyright (c) 1996-2014 Texas Instruments Incorporated
C:\Users\wmj\AppData\Local\Temp\1139610                              PAGE   40

    2073 000001c6 D03C          MOVB      XAR0,#60              ; [CPU_] |309| 
    2074                      .dwpsn  file "C:/ti/motorware/motorware_1_01_00_18/sw/modules/ctrl/src/32b/ctrl.h",line 1634,column 3
    2075 000001c7 DF09          ADDB      XAR7,#9               ; [CPU_] |1634| 
    2076                      .dwpsn  file "C:/ti/motorware/motorware_1_01_00_18/sw/modules/ctrl/src/32b/ctrl.c",line 309,column 3,
    2077 000001c8 8795          MOVL      XT,*+XAR5[AR0]        ; [CPU_] |309| 
    2078 000001c9 D03E          MOVB      XAR0,#62              ; [CPU_] |309| 
    2079 000001ca 8A95          MOVL      XAR4,*+XAR5[AR0]      ; [CPU_] |309| 
    2080 000001cb D038          MOVB      XAR0,#56              ; [CPU_] |309| 
    2081 000001cc A395          MOVL      P,*+XAR5[AR0]         ; [CPU_] |309| 
    2082 000001cd D03A          MOVB      XAR0,#58              ; [CPU_] |309| 
    2083 000001ce C495          MOVL      XAR6,*+XAR5[AR0]      ; [CPU_] |309| 
    2084                      .dwpsn  file "C:/ti/motorware/motorware_1_01_00_18/sw/modules/ctrl/src/32b/ctrl.h",line 1592,column 3
    2085 000001cf D084          MOVB      XAR0,#132             ; [CPU_] |1592| 
    2086 000001d0 9691          MOV       *+XAR1[AR0],AL        ; [CPU_] |1592| 
    2087                      .dwpsn  file "C:/ti/motorware/motorware_1_01_00_18/sw/modules/ctrl/src/32b/ctrl.h",line 1593,column 3
    2088 000001d1 D085          MOVB      XAR0,#133             ; [CPU_] |1593| 
    2089 000001d2 9791          MOV       *+XAR1[AR0],AH        ; [CPU_] |1593| 
    2090                      .dwpsn  file "C:/ti/motorware/motorware_1_01_00_18/sw/modules/ctrl/src/32b/ctrl.h",line 1594,column 3
    2091 000001d3 D090          MOVB      XAR0,#144             ; [CPU_] |1594| 
    2092 000001d4 AA91          MOVL      *+XAR1[AR0],XAR2      ; [CPU_] |1594| 
    2093                      .dwpsn  file "C:/ti/motorware/motorware_1_01_00_18/sw/modules/ctrl/src/32b/ctrl.h",line 1595,column 3
    2094 000001d5 D088          MOVB      XAR0,#136             ; [CPU_] |1595| 
    2095 000001d6 AB91          MOVL      *+XAR1[AR0],XT        ; [CPU_] |1595| 
    2096                      .dwpsn  file "C:/ti/motorware/motorware_1_01_00_18/sw/modules/ctrl/src/32b/ctrl.h",line 1596,column 3
    2097 000001d7 D08A          MOVB      XAR0,#138             ; [CPU_] |1596| 
    2098 000001d8 A891          MOVL      *+XAR1[AR0],XAR4      ; [CPU_] |1596| 
    2099                      .dwpsn  file "C:/ti/motorware/motorware_1_01_00_18/sw/modules/ctrl/src/32b/ctrl.h",line 1597,column 3
    2100 000001d9 D08C          MOVB      XAR0,#140             ; [CPU_] |1597| 
    2101 000001da A991          MOVL      *+XAR1[AR0],P         ; [CPU_] |1597| 
    2102                      .dwpsn  file "C:/ti/motorware/motorware_1_01_00_18/sw/modules/ctrl/src/32b/ctrl.h",line 1598,column 3
    2103 000001db D08E          MOVB      XAR0,#142             ; [CPU_] |1598| 
    2104 000001dc C291          MOVL      *+XAR1[AR0],XAR6      ; [CPU_] |1598| 
    2105                      .dwpsn  file "C:/ti/motorware/motorware_1_01_00_18/sw/modules/ctrl/src/32b/ctrl.h",line 1662,column 3
    2106 000001dd D09C          MOVB      XAR0,#156             ; [CPU_] |1662| 
    2107 000001de 92F5          MOV       AL,*+XAR5[6]          ; [CPU_] |1662| 
    2108 000001df 9691          MOV       *+XAR1[AR0],AL        ; [CPU_] |1662| 
    2109                      .dwpsn  file "C:/ti/motorware/motorware_1_01_00_18/sw/modules/ctrl/src/32b/ctrl.h",line 1620,column 3
    2110 000001e0 D09D          MOVB      XAR0,#157             ; [CPU_] |1620| 
    2111 000001e1 92FD          MOV       AL,*+XAR5[7]          ; [CPU_] |1620| 
    2112 000001e2 9691          MOV       *+XAR1[AR0],AL        ; [CPU_] |1620| 
    2113                      .dwpsn  file "C:/ti/motorware/motorware_1_01_00_18/sw/modules/ctrl/src/32b/ctrl.h",line 1634,column 3
    2114 000001e3 92C7          MOV       AL,*XAR7              ; [CPU_] |1634| 
    2115                      .dwpsn  file "C:/ti/motorware/motorware_1_01_00_18/sw/modules/ctrl/src/32b/ctrl.h",line 1648,column 3
    2116 000001e4 C5A5          MOVL      XAR7,XAR5             ; [CPU_] |1648| 
    2117                      .dwpsn  file "C:/ti/motorware/motorware_1_01_00_18/sw/modules/ctrl/src/32b/ctrl.h",line 1634,column 3
    2118 000001e5 D09E          MOVB      XAR0,#158             ; [CPU_] |1634| 
    2119                      .dwpsn  file "C:/ti/motorware/motorware_1_01_00_18/sw/modules/ctrl/src/32b/ctrl.h",line 1648,column 3
    2120 000001e6 86A5          MOVL      XAR2,XAR5             ; [CPU_] |1648| 
    2121 000001e7 DF0A          ADDB      XAR7,#10              ; [CPU_] |1648| 
    2122                      .dwpsn  file "C:/ti/motorware/motorware_1_01_00_18/sw/modules/ctrl/src/32b/ctrl.h",line 1634,column 3
    2123 000001e8 9691          MOV       *+XAR1[AR0],AL        ; [CPU_] |1634| 
    2124                      .dwpsn  file "C:/ti/motorware/motorware_1_01_00_18/sw/modules/ctrl/src/32b/ctrl.h",line 1648,column 3
    2125 000001e9 D09F          MOVB      XAR0,#159             ; [CPU_] |1648| 
    2126 000001ea 92C7          MOV       AL,*XAR7              ; [CPU_] |1648| 
    2127 000001eb 9691          MOV       *+XAR1[AR0],AL        ; [CPU_] |1648| 
TMS320C2000 Assembler PC v6.2.5 Tue Jun 27 16:56:14 2017

Tools Copyright (c) 1996-2014 Texas Instruments Incorporated
C:\Users\wmj\AppData\Local\Temp\1139610                              PAGE   41

    2128                      .dwpsn  file "C:/ti/motorware/motorware_1_01_00_18/sw/modules/ctrl/src/32b/ctrl.h",line 1167,column 3
    2129 000001ec D09E          MOVB      XAR0,#158             ; [CPU_] |1167| 
    2130 000001ed 0692          MOVL      ACC,*+XAR2[AR0]       ; [CPU_] |1167| 
    2131 000001ee D0A0          MOVB      XAR0,#160             ; [CPU_] |1167| 
    2132 000001ef 1E91          MOVL      *+XAR1[AR0],ACC       ; [CPU_] |1167| 
    2133                      .dwpsn  file "C:/ti/motorware/motorware_1_01_00_18/sw/modules/ctrl/src/32b/ctrl.h",line 1792,column 3
    2134 000001f0 D0A4          MOVB      XAR0,#164             ; [CPU_] |1792| 
    2135 000001f1 0692          MOVL      ACC,*+XAR2[AR0]       ; [CPU_] |1792| 
    2136 000001f2 D0A2          MOVB      XAR0,#162             ; [CPU_] |1792| 
    2137 000001f3 1E91          MOVL      *+XAR1[AR0],ACC       ; [CPU_] |1792| 
    2138                      .dwpsn  file "C:/ti/motorware/motorware_1_01_00_18/sw/modules/ctrl/src/32b/ctrl.h",line 1805,column 3
    2139 000001f4 D0A4          MOVB      XAR0,#164             ; [CPU_] |1805| 
    2140 000001f5 0692          MOVL      ACC,*+XAR2[AR0]       ; [CPU_] |1805| 
    2141              $C$DW$223       .dwtag  DW_TAG_TI_branch
    2142                      .dwattr $C$DW$223, DW_AT_low_pc(0x00)
    2143                      .dwattr $C$DW$223, DW_AT_name("UL$$TOFS")
    2144                      .dwattr $C$DW$223, DW_AT_TI_call
    2145 000001f6 7640!         LCR       #UL$$TOFS             ; [CPU_] |1805| 
         000001f7 0000 
    2146                      ; call occurs [#UL$$TOFS] ; [] |1805| 
    2147 000001f8 1E42          MOVL      *-SP[2],ACC           ; [CPU_] |1805| 
    2148 000001f9 FF2F          MOV       ACC,#32512 << 15      ; [CPU_] |1805| 
         000001fa 7F00 
    2149              $C$DW$224       .dwtag  DW_TAG_TI_branch
    2150                      .dwattr $C$DW$224, DW_AT_low_pc(0x00)
    2151                      .dwattr $C$DW$224, DW_AT_name("FS$$DIV")
    2152                      .dwattr $C$DW$224, DW_AT_TI_call
    2153 000001fb 7640!         LCR       #FS$$DIV              ; [CPU_] |1805| 
         000001fc 0000 
    2154                      ; call occurs [#FS$$DIV] ; [] |1805| 
    2155 000001fd 88AD          MOVZ      AR6,SP                ; [CPU_U] |1805| 
    2156 000001fe DEA4          SUBB      XAR6,#36              ; [CPU_U] |1805| 
    2157              $C$DW$225       .dwtag  DW_TAG_TI_branch
    2158                      .dwattr $C$DW$225, DW_AT_low_pc(0x00)
    2159                      .dwattr $C$DW$225, DW_AT_name("FS$$TOFD")
    2160                      .dwattr $C$DW$225, DW_AT_TI_call
    2161 000001ff 7640!         LCR       #FS$$TOFD             ; [CPU_] |1805| 
         00000200 0000 
    2162                      ; call occurs [#FS$$TOFD] ; [] |1805| 
    2163 00000201 5CAD          MOVZ      AR4,SP                ; [CPU_U] |1805| 
    2164 00000202 88AD          MOVZ      AR6,SP                ; [CPU_U] |1805| 
    2165 00000203 8F40+         MOVL      XAR5,#$C$FL1          ; [CPU_U] |1805| 
         00000204 0018 
    2166 00000205 DCA4          SUBB      XAR4,#36              ; [CPU_U] |1805| 
    2167 00000206 DEA0          SUBB      XAR6,#32              ; [CPU_U] |1805| 
    2168              $C$DW$226       .dwtag  DW_TAG_TI_branch
    2169                      .dwattr $C$DW$226, DW_AT_low_pc(0x00)
    2170                      .dwattr $C$DW$226, DW_AT_name("FD$$MPY")
    2171                      .dwattr $C$DW$226, DW_AT_TI_call
    2172 00000207 7640!         LCR       #FD$$MPY              ; [CPU_] |1805| 
         00000208 0000 
    2173                      ; call occurs [#FD$$MPY] ; [] |1805| 
    2174 00000209 5CAD          MOVZ      AR4,SP                ; [CPU_U] |1805| 
    2175 0000020a DCA0          SUBB      XAR4,#32              ; [CPU_U] |1805| 
    2176              $C$DW$227       .dwtag  DW_TAG_TI_branch
TMS320C2000 Assembler PC v6.2.5 Tue Jun 27 16:56:14 2017

Tools Copyright (c) 1996-2014 Texas Instruments Incorporated
C:\Users\wmj\AppData\Local\Temp\1139610                              PAGE   42

    2177                      .dwattr $C$DW$227, DW_AT_low_pc(0x00)
    2178                      .dwattr $C$DW$227, DW_AT_name("FD$$TOL")
    2179                      .dwattr $C$DW$227, DW_AT_TI_call
    2180 0000020b 7640!         LCR       #FD$$TOL              ; [CPU_] |1805| 
         0000020c 0000 
    2181                      ; call occurs [#FD$$TOL] ; [] |1805| 
    2182 0000020d D0A4          MOVB      XAR0,#164             ; [CPU_] |1805| 
    2183                      .dwpsn  file "C:/ti/motorware/motorware_1_01_00_18/sw/modules/ctrl/src/32b/ctrl.h",line 1546,column 3
    2184 0000020e 88AD          MOVZ      AR6,SP                ; [CPU_U] |1546| 
    2185                      .dwpsn  file "C:/ti/motorware/motorware_1_01_00_18/sw/modules/ctrl/src/32b/ctrl.h",line 1805,column 3
    2186 0000020f 1E91          MOVL      *+XAR1[AR0],ACC       ; [CPU_] |1805| 
    2187                      .dwpsn  file "C:/ti/motorware/motorware_1_01_00_18/sw/modules/ctrl/src/32b/ctrl.h",line 1546,column 3
    2188 00000210 DEA4          SUBB      XAR6,#36              ; [CPU_U] |1546| 
    2189                      .dwpsn  file "C:/ti/motorware/motorware_1_01_00_18/sw/modules/ctrl/src/32b/ctrl.h",line 1180,column 3
    2190 00000211 D0A6          MOVB      XAR0,#166             ; [CPU_] |1180| 
    2191 00000212 0692          MOVL      ACC,*+XAR2[AR0]       ; [CPU_] |1180| 
    2192 00000213 D0A6          MOVB      XAR0,#166             ; [CPU_] |1180| 
    2193 00000214 1E91          MOVL      *+XAR1[AR0],ACC       ; [CPU_] |1180| 
    2194                      .dwpsn  file "C:/ti/motorware/motorware_1_01_00_18/sw/modules/ctrl/src/32b/ctrl.h",line 1546,column 3
    2195 00000215 D030          MOVB      XAR0,#48              ; [CPU_] |1546| 
    2196 00000216 0692          MOVL      ACC,*+XAR2[AR0]       ; [CPU_] |1546| 
    2197              $C$DW$228       .dwtag  DW_TAG_TI_branch
    2198                      .dwattr $C$DW$228, DW_AT_low_pc(0x00)
    2199                      .dwattr $C$DW$228, DW_AT_name("FS$$TOFD")
    2200                      .dwattr $C$DW$228, DW_AT_TI_call
    2201 00000217 7640!         LCR       #FS$$TOFD             ; [CPU_] |1546| 
         00000218 0000 
    2202                      ; call occurs [#FS$$TOFD] ; [] |1546| 
    2203 00000219 5CAD          MOVZ      AR4,SP                ; [CPU_U] |1546| 
    2204 0000021a 88AD          MOVZ      AR6,SP                ; [CPU_U] |1546| 
    2205 0000021b 8F40+         MOVL      XAR5,#$C$FL1          ; [CPU_U] |1546| 
         0000021c 0018 
    2206 0000021d DCA4          SUBB      XAR4,#36              ; [CPU_U] |1546| 
    2207 0000021e DEA0          SUBB      XAR6,#32              ; [CPU_U] |1546| 
    2208              $C$DW$229       .dwtag  DW_TAG_TI_branch
    2209                      .dwattr $C$DW$229, DW_AT_low_pc(0x00)
    2210                      .dwattr $C$DW$229, DW_AT_name("FD$$MPY")
    2211                      .dwattr $C$DW$229, DW_AT_TI_call
    2212 0000021f 7640!         LCR       #FD$$MPY              ; [CPU_] |1546| 
         00000220 0000 
    2213                      ; call occurs [#FD$$MPY] ; [] |1546| 
    2214 00000221 5CAD          MOVZ      AR4,SP                ; [CPU_U] |1546| 
    2215 00000222 DCA0          SUBB      XAR4,#32              ; [CPU_U] |1546| 
    2216              $C$DW$230       .dwtag  DW_TAG_TI_branch
    2217                      .dwattr $C$DW$230, DW_AT_low_pc(0x00)
    2218                      .dwattr $C$DW$230, DW_AT_name("FD$$TOL")
    2219                      .dwattr $C$DW$230, DW_AT_TI_call
    2220 00000223 7640!         LCR       #FD$$TOL              ; [CPU_] |1546| 
         00000224 0000 
    2221                      ; call occurs [#FD$$TOL] ; [] |1546| 
    2222 00000225 D0A8          MOVB      XAR0,#168             ; [CPU_] |1546| 
    2223 00000226 1E91          MOVL      *+XAR1[AR0],ACC       ; [CPU_] |1546| 
    2224                      .dwpsn  file "C:/ti/motorware/motorware_1_01_00_18/sw/modules/ctrl/src/32b/ctrl.h",line 1327,column 3
    2225 00000227 02AA          MOVB      ACC,#170              ; [CPU_] |1327| 
    2226 00000228 07A1          ADDL      ACC,XAR1              ; [CPU_] |1327| 
TMS320C2000 Assembler PC v6.2.5 Tue Jun 27 16:56:14 2017

Tools Copyright (c) 1996-2014 Texas Instruments Incorporated
C:\Users\wmj\AppData\Local\Temp\1139610                              PAGE   43

    2227                      .dwpsn  file "C:/ti/motorware/motorware_1_01_00_18/sw/modules/ctrl/src/32b/ctrl.h",line 1402,column 3
    2228 00000229 D04A          MOVB      XAR0,#74              ; [CPU_] |1402| 
    2229                      .dwpsn  file "C:/ti/motorware/motorware_1_01_00_18/sw/modules/ctrl/src/32b/ctrl.h",line 1327,column 3
    2230 0000022a 8AA9          MOVL      XAR4,ACC              ; [CPU_] |1327| 
    2231 0000022b 0648          MOVL      ACC,*-SP[8]           ; [CPU_] |1327| 
    2232 0000022c 1EC4          MOVL      *+XAR4[0],ACC         ; [CPU_] |1327| 
    2233                      .dwpsn  file "C:/ti/motorware/motorware_1_01_00_18/sw/modules/ctrl/src/32b/ctrl.h",line 1328,column 3
    2234 0000022d 0646          MOVL      ACC,*-SP[6]           ; [CPU_] |1328| 
    2235 0000022e 1ED4          MOVL      *+XAR4[2],ACC         ; [CPU_] |1328| 
    2236                      .dwpsn  file "C:/ti/motorware/motorware_1_01_00_18/sw/modules/ctrl/src/32b/ctrl.h",line 1360,column 3
    2237 0000022f 02B2          MOVB      ACC,#178              ; [CPU_] |1360| 
    2238 00000230 07A1          ADDL      ACC,XAR1              ; [CPU_] |1360| 
    2239 00000231 8AA9          MOVL      XAR4,ACC              ; [CPU_] |1360| 
    2240 00000232 064C          MOVL      ACC,*-SP[12]          ; [CPU_] |1360| 
    2241 00000233 1EC4          MOVL      *+XAR4[0],ACC         ; [CPU_] |1360| 
    2242                      .dwpsn  file "C:/ti/motorware/motorware_1_01_00_18/sw/modules/ctrl/src/32b/ctrl.h",line 1361,column 3
    2243 00000234 064A          MOVL      ACC,*-SP[10]          ; [CPU_] |1361| 
    2244 00000235 1ED4          MOVL      *+XAR4[2],ACC         ; [CPU_] |1361| 
    2245                      .dwpsn  file "C:/ti/motorware/motorware_1_01_00_18/sw/modules/ctrl/src/32b/ctrl.h",line 1388,column 3
    2246 00000236 02E2          MOVB      ACC,#226              ; [CPU_] |1388| 
    2247 00000237 07A1          ADDL      ACC,XAR1              ; [CPU_] |1388| 
    2248 00000238 8AA9          MOVL      XAR4,ACC              ; [CPU_] |1388| 
    2249 00000239 0650          MOVL      ACC,*-SP[16]          ; [CPU_] |1388| 
    2250 0000023a 1EC4          MOVL      *+XAR4[0],ACC         ; [CPU_] |1388| 
    2251                      .dwpsn  file "C:/ti/motorware/motorware_1_01_00_18/sw/modules/ctrl/src/32b/ctrl.h",line 1389,column 3
    2252 0000023b 064E          MOVL      ACC,*-SP[14]          ; [CPU_] |1389| 
    2253 0000023c 1ED4          MOVL      *+XAR4[2],ACC         ; [CPU_] |1389| 
    2254                      .dwpsn  file "C:/ti/motorware/motorware_1_01_00_18/sw/modules/ctrl/src/32b/ctrl.h",line 1402,column 3
    2255 0000023d 06C2          MOVL      ACC,*+XAR2[0]         ; [CPU_] |1402| 
    2256 0000023e 1E42          MOVL      *-SP[2],ACC           ; [CPU_] |1402| 
    2257 0000023f 0692          MOVL      ACC,*+XAR2[AR0]       ; [CPU_] |1402| 
    2258              $C$DW$231       .dwtag  DW_TAG_TI_branch
    2259                      .dwattr $C$DW$231, DW_AT_low_pc(0x00)
    2260                      .dwattr $C$DW$231, DW_AT_name("FS$$DIV")
    2261                      .dwattr $C$DW$231, DW_AT_TI_call
    2262 00000240 7640!         LCR       #FS$$DIV              ; [CPU_] |1402| 
         00000241 0000 
    2263                      ; call occurs [#FS$$DIV] ; [] |1402| 
    2264 00000242 88AD          MOVZ      AR6,SP                ; [CPU_U] |1402| 
    2265 00000243 DEA4          SUBB      XAR6,#36              ; [CPU_U] |1402| 
    2266              $C$DW$232       .dwtag  DW_TAG_TI_branch
    2267                      .dwattr $C$DW$232, DW_AT_low_pc(0x00)
    2268                      .dwattr $C$DW$232, DW_AT_name("FS$$TOFD")
    2269                      .dwattr $C$DW$232, DW_AT_TI_call
    2270 00000244 7640!         LCR       #FS$$TOFD             ; [CPU_] |1402| 
         00000245 0000 
    2271                      ; call occurs [#FS$$TOFD] ; [] |1402| 
    2272 00000246 5CAD          MOVZ      AR4,SP                ; [CPU_U] |1402| 
    2273 00000247 88AD          MOVZ      AR6,SP                ; [CPU_U] |1402| 
    2274 00000248 8F40+         MOVL      XAR5,#$C$FL1          ; [CPU_U] |1402| 
         00000249 0018 
    2275 0000024a DCA4          SUBB      XAR4,#36              ; [CPU_U] |1402| 
    2276 0000024b DEA0          SUBB      XAR6,#32              ; [CPU_U] |1402| 
    2277              $C$DW$233       .dwtag  DW_TAG_TI_branch
    2278                      .dwattr $C$DW$233, DW_AT_low_pc(0x00)
TMS320C2000 Assembler PC v6.2.5 Tue Jun 27 16:56:14 2017

Tools Copyright (c) 1996-2014 Texas Instruments Incorporated
C:\Users\wmj\AppData\Local\Temp\1139610                              PAGE   44

    2279                      .dwattr $C$DW$233, DW_AT_name("FD$$MPY")
    2280                      .dwattr $C$DW$233, DW_AT_TI_call
    2281 0000024c 7640!         LCR       #FD$$MPY              ; [CPU_] |1402| 
         0000024d 0000 
    2282                      ; call occurs [#FD$$MPY] ; [] |1402| 
    2283 0000024e 5CAD          MOVZ      AR4,SP                ; [CPU_U] |1402| 
    2284 0000024f DCA0          SUBB      XAR4,#32              ; [CPU_U] |1402| 
    2285              $C$DW$234       .dwtag  DW_TAG_TI_branch
    2286                      .dwattr $C$DW$234, DW_AT_low_pc(0x00)
    2287                      .dwattr $C$DW$234, DW_AT_name("FD$$TOL")
    2288                      .dwattr $C$DW$234, DW_AT_TI_call
    2289 00000250 7640!         LCR       #FD$$TOL              ; [CPU_] |1402| 
         00000251 0000 
    2290                      ; call occurs [#FD$$TOL] ; [] |1402| 
    2291 00000252 D0E6          MOVB      XAR0,#230             ; [CPU_] |1402| 
    2292 00000253 1E91          MOVL      *+XAR1[AR0],ACC       ; [CPU_] |1402| 
    2293                      .dwpsn  file "C:/ti/motorware/motorware_1_01_00_18/sw/modules/ctrl/src/32b/ctrl.h",line 1886,column 3
    2294 00000254 02B6          MOVB      ACC,#182              ; [CPU_] |1886| 
    2295 00000255 07A1          ADDL      ACC,XAR1              ; [CPU_] |1886| 
    2296 00000256 8AA9          MOVL      XAR4,ACC              ; [CPU_] |1886| 
    2297                      .dwpsn  file "C:/ti/motorware/motorware_1_01_00_18/sw/modules/ctrl/src/32b/ctrl.h",line 1727,column 3
    2298 00000257 D0BA          MOVB      XAR0,#186             ; [CPU_] |1727| 
    2299                      .dwpsn  file "C:/ti/motorware/motorware_1_01_00_18/sw/modules/ctrl/src/32b/ctrl.h",line 1886,column 3
    2300 00000258 0654          MOVL      ACC,*-SP[20]          ; [CPU_] |1886| 
    2301 00000259 1EC4          MOVL      *+XAR4[0],ACC         ; [CPU_] |1886| 
    2302                      .dwpsn  file "C:/ti/motorware/motorware_1_01_00_18/sw/modules/ctrl/src/32b/ctrl.h",line 1887,column 3
    2303 0000025a 0652          MOVL      ACC,*-SP[18]          ; [CPU_] |1887| 
    2304 0000025b 1ED4          MOVL      *+XAR4[2],ACC         ; [CPU_] |1887| 
    2305                      .dwpsn  file "C:/ti/motorware/motorware_1_01_00_18/sw/modules/ctrl/src/32b/ctrl.h",line 1900,column 3
    2306 0000025c 02BC          MOVB      ACC,#188              ; [CPU_] |1900| 
    2307 0000025d 07A1          ADDL      ACC,XAR1              ; [CPU_] |1900| 
    2308 0000025e 8AA9          MOVL      XAR4,ACC              ; [CPU_] |1900| 
    2309 0000025f 0658          MOVL      ACC,*-SP[24]          ; [CPU_] |1900| 
    2310 00000260 1EC4          MOVL      *+XAR4[0],ACC         ; [CPU_] |1900| 
    2311                      .dwpsn  file "C:/ti/motorware/motorware_1_01_00_18/sw/modules/ctrl/src/32b/ctrl.h",line 1901,column 3
    2312 00000261 0656          MOVL      ACC,*-SP[22]          ; [CPU_] |1901| 
    2313 00000262 1ED4          MOVL      *+XAR4[2],ACC         ; [CPU_] |1901| 
    2314                      .dwpsn  file "C:/ti/motorware/motorware_1_01_00_18/sw/modules/ctrl/src/32b/ctrl.h",line 1928,column 3
    2315 00000263 02C0          MOVB      ACC,#192              ; [CPU_] |1928| 
    2316 00000264 07A1          ADDL      ACC,XAR1              ; [CPU_] |1928| 
    2317 00000265 8AA9          MOVL      XAR4,ACC              ; [CPU_] |1928| 
    2318 00000266 065C          MOVL      ACC,*-SP[28]          ; [CPU_] |1928| 
    2319 00000267 1EC4          MOVL      *+XAR4[0],ACC         ; [CPU_] |1928| 
    2320                      .dwpsn  file "C:/ti/motorware/motorware_1_01_00_18/sw/modules/ctrl/src/32b/ctrl.h",line 1929,column 3
    2321 00000268 065A          MOVL      ACC,*-SP[26]          ; [CPU_] |1929| 
    2322 00000269 1ED4          MOVL      *+XAR4[2],ACC         ; [CPU_] |1929| 
    2323                      .dwpsn  file "C:/ti/motorware/motorware_1_01_00_18/sw/modules/ctrl/src/32b/ctrl.h",line 1727,column 3
    2324 0000026a 0200          MOVB      ACC,#0                ; [CPU_] |1727| 
    2325 0000026b 1E91          MOVL      *+XAR1[AR0],ACC       ; [CPU_] |1727| 
    2326                      .dwpsn  file "C:/ti/motorware/motorware_1_01_00_18/sw/modules/ctrl/src/32b/ctrl.h",line 1675,column 3
    2327 0000026c D0C4          MOVB      XAR0,#196             ; [CPU_] |1675| 
    2328 0000026d 9A00          MOV       AL,#0                 ; [CPU_] |1675| 
    2329 0000026e 9B00          MOV       AH,#0                 ; [CPU_] |1675| 
    2330 0000026f 1E91          MOVL      *+XAR1[AR0],ACC       ; [CPU_] |1675| 
    2331                      .dwpsn  file "C:/ti/motorware/motorware_1_01_00_18/sw/modules/ctrl/src/32b/ctrl.h",line 1527,column 3
TMS320C2000 Assembler PC v6.2.5 Tue Jun 27 16:56:14 2017

Tools Copyright (c) 1996-2014 Texas Instruments Incorporated
C:\Users\wmj\AppData\Local\Temp\1139610                              PAGE   45

    2332 00000270 D0C6          MOVB      XAR0,#198             ; [CPU_] |1527| 
    2333 00000271 1E91          MOVL      *+XAR1[AR0],ACC       ; [CPU_] |1527| 
    2334                      .dwpsn  file "C:/ti/motorware/motorware_1_01_00_18/sw/modules/ctrl/src/32b/ctrl.h",line 1688,column 3
    2335 00000272 D0C8          MOVB      XAR0,#200             ; [CPU_] |1688| 
    2336 00000273 1E91          MOVL      *+XAR1[AR0],ACC       ; [CPU_] |1688| 
    2337                      .dwpsn  file "C:/ti/motorware/motorware_1_01_00_18/sw/modules/ctrl/src/32b/ctrl.h",line 1075,column 3
    2338 00000274 D0EC          MOVB      XAR0,#236             ; [CPU_] |1075| 
    2339                      .dwpsn  file "C:/ti/motorware/motorware_1_01_00_18/sw/modules/ctrl/src/32b/ctrl.h",line 1111,column 3
    2340 00000275 0200          MOVB      ACC,#0                ; [CPU_] |1111| 
    2341                      .dwpsn  file "C:/ti/motorware/motorware_1_01_00_18/sw/modules/ctrl/src/32b/ctrl.h",line 1075,column 3
    2342 00000276 2B91          MOV       *+XAR1[AR0],#0        ; [CPU_] |1075| 
    2343                      .dwpsn  file "C:/ti/motorware/motorware_1_01_00_18/sw/modules/ctrl/src/32b/ctrl.h",line 1087,column 3
    2344 00000277 D0ED          MOVB      XAR0,#237             ; [CPU_] |1087| 
    2345 00000278 56BF          MOVB      *+XAR1[AR0],#1,UNC    ; [CPU_] |1087| 
         00000279 0191 
    2346                      .dwpsn  file "C:/ti/motorware/motorware_1_01_00_18/sw/modules/ctrl/src/32b/ctrl.h",line 1099,column 3
    2347 0000027a D0EE          MOVB      XAR0,#238             ; [CPU_] |1099| 
    2348 0000027b 2B91          MOV       *+XAR1[AR0],#0        ; [CPU_] |1099| 
    2349                      .dwpsn  file "C:/ti/motorware/motorware_1_01_00_18/sw/modules/ctrl/src/32b/ctrl.h",line 1111,column 3
    2350 0000027c D09A          MOVB      XAR0,#154             ; [CPU_] |1111| 
    2351 0000027d 1E91          MOVL      *+XAR1[AR0],ACC       ; [CPU_] |1111| 
    2352                      .dwpsn  file "C:/ti/motorware/motorware_1_01_00_18/sw/modules/ctrl/src/32b/ctrl.h",line 1123,column 3
    2353 0000027e D0EF          MOVB      XAR0,#239             ; [CPU_] |1123| 
    2354 0000027f 2B91          MOV       *+XAR1[AR0],#0        ; [CPU_] |1123| 
    2355 00000280 866A          MOVL      XAR2,*-SP[42]         ; [CPU_] |1123| 
    2356                      .dwpsn  file "C:/ti/motorware/motorware_1_01_00_18/sw/modules/ctrl/src/32b/ctrl.c",line 358,column 3,
    2357 00000281 83A2          MOVL      XAR5,XAR2             ; [CPU_] |358| 
    2358 00000282 8AA1          MOVL      XAR4,XAR1             ; [CPU_] |358| 
    2359 00000283 DD54          ADDB      XAR5,#84              ; [CPU_] |358| 
    2360              $C$DW$235       .dwtag  DW_TAG_TI_branch
    2361                      .dwattr $C$DW$235, DW_AT_low_pc(0x00)
    2362                      .dwattr $C$DW$235, DW_AT_name("_CTRL_setWaitTimes")
    2363                      .dwattr $C$DW$235, DW_AT_TI_call
    2364 00000284 7640'         LCR       #_CTRL_setWaitTimes   ; [CPU_] |358| 
         00000285 0141 
    2365                      ; call occurs [#_CTRL_setWaitTimes] ; [] |358| 
    2366                      .dwpsn  file "C:/ti/motorware/motorware_1_01_00_18/sw/modules/ctrl/src/32b/ctrl.h",line 1262,column 3
    2367 00000286 D0F2          MOVB      XAR0,#242             ; [CPU_] |1262| 
    2368 00000287 2B91          MOV       *+XAR1[AR0],#0        ; [CPU_] |1262| 
    2369                      .dwpsn  file "C:/ti/motorware/motorware_1_01_00_18/sw/modules/ctrl/src/32b/ctrl.h",line 1218,column 3
    2370 00000288 D0F0          MOVB      XAR0,#240             ; [CPU_] |1218| 
    2371 00000289 2B91          MOV       *+XAR1[AR0],#0        ; [CPU_] |1218| 
    2372                      .dwpsn  file "C:/ti/motorware/motorware_1_01_00_18/sw/modules/ctrl/src/32b/ctrl.h",line 1275,column 3
    2373 0000028a D0F3          MOVB      XAR0,#243             ; [CPU_] |1275| 
    2374                      .dwpsn  file "C:/ti/motorware/motorware_1_01_00_18/sw/modules/ctrl/src/32b/ctrl.c",line 381,column 3,
    2375 0000028b 8AA1          MOVL      XAR4,XAR1             ; [CPU_] |381| 
    2376                      .dwpsn  file "C:/ti/motorware/motorware_1_01_00_18/sw/modules/ctrl/src/32b/ctrl.h",line 1275,column 3
    2377 0000028c 56BF          MOVB      *+XAR1[AR0],#1,UNC    ; [CPU_] |1275| 
         0000028d 0191 
    2378                      .dwpsn  file "C:/ti/motorware/motorware_1_01_00_18/sw/modules/ctrl/src/32b/ctrl.h",line 1288,column 3
    2379 0000028e D0F4          MOVB      XAR0,#244             ; [CPU_] |1288| 
    2380 0000028f 56BF          MOVB      *+XAR1[AR0],#1,UNC    ; [CPU_] |1288| 
         00000290 0191 
    2381                      .dwpsn  file "C:/ti/motorware/motorware_1_01_00_18/sw/modules/ctrl/src/32b/ctrl.h",line 1304,column 3
    2382 00000291 D0F5          MOVB      XAR0,#245             ; [CPU_] |1304| 
TMS320C2000 Assembler PC v6.2.5 Tue Jun 27 16:56:14 2017

Tools Copyright (c) 1996-2014 Texas Instruments Incorporated
C:\Users\wmj\AppData\Local\Temp\1139610                              PAGE   46

    2383 00000292 2B91          MOV       *+XAR1[AR0],#0        ; [CPU_] |1304| 
    2384                      .dwpsn  file "C:/ti/motorware/motorware_1_01_00_18/sw/modules/ctrl/src/32b/ctrl.h",line 1246,column 3
    2385 00000293 D0F1          MOVB      XAR0,#241             ; [CPU_] |1246| 
    2386 00000294 56BF          MOVB      *+XAR1[AR0],#1,UNC    ; [CPU_] |1246| 
         00000295 0191 
    2387                      .dwpsn  file "C:/ti/motorware/motorware_1_01_00_18/sw/modules/ctrl/src/32b/ctrl.h",line 1231,column 3
    2388 00000296 8D00          MOVL      XAR0,#262             ; [CPU_] |1231| 
         00000297 0106 
    2389 00000298 56BF          MOVB      *+XAR1[AR0],#1,UNC    ; [CPU_] |1231| 
         00000299 0191 
    2390                      .dwpsn  file "C:/ti/motorware/motorware_1_01_00_18/sw/modules/ctrl/src/32b/ctrl.c",line 381,column 3,
    2391 0000029a D00B          MOVB      XAR0,#11              ; [CPU_] |381| 
    2392                      .dwpsn  file "C:/ti/motorware/motorware_1_01_00_18/sw/modules/ctrl/src/32b/ctrl.h",line 1193,column 3
    2393 0000029b 2BF1          MOV       *+XAR1[6],#0          ; [CPU_] |1193| 
    2394                      .dwpsn  file "C:/ti/motorware/motorware_1_01_00_18/sw/modules/ctrl/src/32b/ctrl.h",line 1778,column 3
    2395 0000029c 92E1          MOV       AL,*+XAR1[4]          ; [CPU_] |1778| 
    2396 0000029d 96E9          MOV       *+XAR1[5],AL          ; [CPU_] |1778| 
    2397                      .dwpsn  file "C:/ti/motorware/motorware_1_01_00_18/sw/modules/ctrl/src/32b/ctrl.h",line 1779,column 3
    2398 0000029e 56BF          MOVB      *+XAR1[4],#1,UNC      ; [CPU_] |1779| 
         0000029f 01E1 
    2399                      .dwpsn  file "C:/ti/motorware/motorware_1_01_00_18/sw/modules/ctrl/src/32b/ctrl.c",line 381,column 3,
    2400 000002a0 9292          MOV       AL,*+XAR2[AR0]        ; [CPU_] |381| 
    2401              $C$DW$236       .dwtag  DW_TAG_TI_branch
    2402                      .dwattr $C$DW$236, DW_AT_low_pc(0x00)
    2403                      .dwattr $C$DW$236, DW_AT_name("_CTRL_setupClarke_I")
    2404                      .dwattr $C$DW$236, DW_AT_TI_call
    2405 000002a1 7640'         LCR       #_CTRL_setupClarke_I  ; [CPU_] |381| 
         000002a2 0125 
    2406                      ; call occurs [#_CTRL_setupClarke_I] ; [] |381| 
    2407                      .dwpsn  file "C:/ti/motorware/motorware_1_01_00_18/sw/modules/ctrl/src/32b/ctrl.c",line 385,column 3,
    2408 000002a3 D00C          MOVB      XAR0,#12              ; [CPU_] |385| 
    2409 000002a4 8AA1          MOVL      XAR4,XAR1             ; [CPU_] |385| 
    2410 000002a5 9292          MOV       AL,*+XAR2[AR0]        ; [CPU_] |385| 
    2411              $C$DW$237       .dwtag  DW_TAG_TI_branch
    2412                      .dwattr $C$DW$237, DW_AT_low_pc(0x00)
    2413                      .dwattr $C$DW$237, DW_AT_name("_CTRL_setupClarke_V")
    2414                      .dwattr $C$DW$237, DW_AT_TI_call
    2415 000002a6 7640'         LCR       #_CTRL_setupClarke_V  ; [CPU_] |385| 
         000002a7 010F 
    2416                      ; call occurs [#_CTRL_setupClarke_V] ; [] |385| 
    2417                      .dwpsn  file "C:/ti/motorware/motorware_1_01_00_18/sw/modules/ctrl/src/32b/ctrl.c",line 390,column 3,
    2418 000002a8 28A8          MOV       AH,#15235             ; [CPU_] |390| 
         000002a9 3B83 
    2419 000002aa D0A6          MOVB      XAR0,#166             ; [CPU_] |390| 
    2420 000002ab 28A9          MOV       AL,#4719              ; [CPU_] |390| 
         000002ac 126F 
    2421 000002ad 1E42          MOVL      *-SP[2],ACC           ; [CPU_] |390| 
    2422 000002ae 0692          MOVL      ACC,*+XAR2[AR0]       ; [CPU_] |390| 
    2423              $C$DW$238       .dwtag  DW_TAG_TI_branch
    2424                      .dwattr $C$DW$238, DW_AT_low_pc(0x00)
    2425                      .dwattr $C$DW$238, DW_AT_name("FS$$DIV")
    2426                      .dwattr $C$DW$238, DW_AT_TI_call
    2427 000002af 7640!         LCR       #FS$$DIV              ; [CPU_] |390| 
         000002b0 0000 
    2428                      ; call occurs [#FS$$DIV] ; [] |390| 
TMS320C2000 Assembler PC v6.2.5 Tue Jun 27 16:56:14 2017

Tools Copyright (c) 1996-2014 Texas Instruments Incorporated
C:\Users\wmj\AppData\Local\Temp\1139610                              PAGE   47

    2429 000002b1 88AD          MOVZ      AR6,SP                ; [CPU_U] |390| 
    2430 000002b2 DEA4          SUBB      XAR6,#36              ; [CPU_U] |390| 
    2431              $C$DW$239       .dwtag  DW_TAG_TI_branch
    2432                      .dwattr $C$DW$239, DW_AT_low_pc(0x00)
    2433                      .dwattr $C$DW$239, DW_AT_name("FS$$TOFD")
    2434                      .dwattr $C$DW$239, DW_AT_TI_call
    2435 000002b3 7640!         LCR       #FS$$TOFD             ; [CPU_] |390| 
         000002b4 0000 
    2436                      ; call occurs [#FS$$TOFD] ; [] |390| 
    2437 000002b5 5CAD          MOVZ      AR4,SP                ; [CPU_U] |390| 
    2438 000002b6 88AD          MOVZ      AR6,SP                ; [CPU_U] |390| 
    2439 000002b7 8F40+         MOVL      XAR5,#$C$FL1          ; [CPU_U] |390| 
         000002b8 0018 
    2440 000002b9 DCA4          SUBB      XAR4,#36              ; [CPU_U] |390| 
    2441 000002ba DEA0          SUBB      XAR6,#32              ; [CPU_U] |390| 
    2442              $C$DW$240       .dwtag  DW_TAG_TI_branch
    2443                      .dwattr $C$DW$240, DW_AT_low_pc(0x00)
    2444                      .dwattr $C$DW$240, DW_AT_name("FD$$MPY")
    2445                      .dwattr $C$DW$240, DW_AT_TI_call
    2446 000002bb 7640!         LCR       #FD$$MPY              ; [CPU_] |390| 
         000002bc 0000 
    2447                      ; call occurs [#FD$$MPY] ; [] |390| 
    2448 000002bd 5CAD          MOVZ      AR4,SP                ; [CPU_U] |390| 
    2449 000002be DCA0          SUBB      XAR4,#32              ; [CPU_U] |390| 
    2450              $C$DW$241       .dwtag  DW_TAG_TI_branch
    2451                      .dwattr $C$DW$241, DW_AT_low_pc(0x00)
    2452                      .dwattr $C$DW$241, DW_AT_name("FD$$TOL")
    2453                      .dwattr $C$DW$241, DW_AT_TI_call
    2454 000002bf 7640!         LCR       #FD$$TOL              ; [CPU_] |390| 
         000002c0 0000 
    2455                      ; call occurs [#FD$$TOL] ; [] |390| 
    2456                      .dwpsn  file "C:/ti/motorware/motorware_1_01_00_18/sw/modules/pid/src/32b/pid.h",line 303,column 16,i
    2457 000002c1 D020          MOVB      XAR0,#32              ; [CPU_] |303| 
    2458 000002c2 8A91          MOVL      XAR4,*+XAR1[AR0]      ; [CPU_] |303| 
    2459                      .dwpsn  file "C:/ti/motorware/motorware_1_01_00_18/sw/modules/pid/src/32b/pid.h",line 305,column 3,is
    2460 000002c3 8F59          MOVL      XAR5,#1677721         ; [CPU_U] |305| 
         000002c4 9999 
    2461                      .dwpsn  file "C:/ti/motorware/motorware_1_01_00_18/sw/modules/ctrl/src/32b/ctrl.c",line 390,column 3,
    2462 000002c5 1EA7          MOVL      XAR7,ACC              ; [CPU_] |390| 
    2463                      .dwpsn  file "C:/ti/motorware/motorware_1_01_00_18/sw/modules/pid/src/32b/pid.h",line 413,column 3,is
    2464 000002c6 D020          MOVB      XAR0,#32              ; [CPU_] |413| 
    2465                      .dwpsn  file "C:/ti/motorware/motorware_1_01_00_18/sw/modules/pid/src/32b/pid.h",line 305,column 3,is
    2466 000002c7 A0C4          MOVL      *+XAR4[0],XAR5        ; [CPU_] |305| 
    2467                      .dwpsn  file "C:/ti/motorware/motorware_1_01_00_18/sw/modules/pid/src/32b/pid.h",line 306,column 3,is
    2468 000002c8 1ED4          MOVL      *+XAR4[2],ACC         ; [CPU_] |306| 
    2469                      .dwpsn  file "C:/ti/motorware/motorware_1_01_00_18/sw/modules/pid/src/32b/pid.h",line 307,column 3,is
    2470 000002c9 0200          MOVB      ACC,#0                ; [CPU_] |307| 
    2471 000002ca 1EE4          MOVL      *+XAR4[4],ACC         ; [CPU_] |307| 
    2472                      .dwpsn  file "C:/ti/motorware/motorware_1_01_00_18/sw/modules/pid/src/32b/pid.h",line 413,column 3,is
    2473 000002cb 8A91          MOVL      XAR4,*+XAR1[AR0]      ; [CPU_] |413| 
    2474                      .dwpsn  file "C:/ti/motorware/motorware_1_01_00_18/sw/modules/pid/src/32b/pid.h",line 358,column 16,i
    2475 000002cc D020          MOVB      XAR0,#32              ; [CPU_] |358| 
    2476                      .dwpsn  file "C:/ti/motorware/motorware_1_01_00_18/sw/modules/pid/src/32b/pid.h",line 413,column 3,is
    2477 000002cd 1EF4          MOVL      *+XAR4[6],ACC         ; [CPU_] |413| 
    2478                      .dwpsn  file "C:/ti/motorware/motorware_1_01_00_18/sw/modules/pid/src/32b/pid.h",line 360,column 3,is
TMS320C2000 Assembler PC v6.2.5 Tue Jun 27 16:56:14 2017

Tools Copyright (c) 1996-2014 Texas Instruments Incorporated
C:\Users\wmj\AppData\Local\Temp\1139610                              PAGE   48

    2479 000002ce 28A9          MOV       AL,#52429             ; [CPU_] |360| 
         000002cf CCCD 
    2480 000002d0 28A8          MOV       AH,#65292             ; [CPU_] |360| 
         000002d1 FF0C 
    2481                      .dwpsn  file "C:/ti/motorware/motorware_1_01_00_18/sw/modules/pid/src/32b/pid.h",line 358,column 16,i
    2482 000002d2 8A91          MOVL      XAR4,*+XAR1[AR0]      ; [CPU_] |358| 
    2483                      .dwpsn  file "C:/ti/motorware/motorware_1_01_00_18/sw/modules/ctrl/src/32b/ctrl.c",line 398,column 3,
    2484 000002d3 7699          MOVL      XAR6,#1677721         ; [CPU_U] |398| 
         000002d4 9999 
    2485 000002d5 D501          MOVB      XAR5,#1               ; [CPU_] |398| 
    2486                      .dwpsn  file "C:/ti/motorware/motorware_1_01_00_18/sw/modules/pid/src/32b/pid.h",line 360,column 3,is
    2487 000002d6 D00C          MOVB      XAR0,#12              ; [CPU_] |360| 
    2488 000002d7 1E94          MOVL      *+XAR4[AR0],ACC       ; [CPU_] |360| 
    2489                      .dwpsn  file "C:/ti/motorware/motorware_1_01_00_18/sw/modules/pid/src/32b/pid.h",line 361,column 3,is
    2490 000002d8 D00E          MOVB      XAR0,#14              ; [CPU_] |361| 
    2491 000002d9 28A9          MOV       AL,#13107             ; [CPU_] |361| 
         000002da 3333 
    2492 000002db 9BF3          MOV       AH,#243               ; [CPU_] |361| 
    2493 000002dc 1E94          MOVL      *+XAR4[AR0],ACC       ; [CPU_] |361| 
    2494                      .dwpsn  file "C:/ti/motorware/motorware_1_01_00_18/sw/modules/ctrl/src/32b/ctrl.c",line 398,column 3,
    2495 000002dd 0200          MOVB      ACC,#0                ; [CPU_] |398| 
    2496 000002de 8AA1          MOVL      XAR4,XAR1             ; [CPU_] |398| 
    2497 000002df C342          MOVL      *-SP[2],XAR7          ; [CPU_] |398| 
    2498 000002e0 1E44          MOVL      *-SP[4],ACC           ; [CPU_] |398| 
    2499 000002e1 06A6          MOVL      ACC,XAR6              ; [CPU_] |398| 
    2500              $C$DW$242       .dwtag  DW_TAG_TI_branch
    2501                      .dwattr $C$DW$242, DW_AT_low_pc(0x00)
    2502                      .dwattr $C$DW$242, DW_AT_name("_CTRL_setGains")
    2503                      .dwattr $C$DW$242, DW_AT_TI_call
    2504 000002e2 7640'         LCR       #_CTRL_setGains       ; [CPU_] |398| 
         000002e3 0160 
    2505                      ; call occurs [#_CTRL_setGains] ; [] |398| 
    2506                      .dwpsn  file "C:/ti/motorware/motorware_1_01_00_18/sw/modules/ctrl/src/32b/ctrl.c",line 403,column 3,
    2507 000002e4 28A9          MOV       AL,#4719              ; [CPU_] |403| 
         000002e5 126F 
    2508 000002e6 D0A6          MOVB      XAR0,#166             ; [CPU_] |403| 
    2509 000002e7 28A8          MOV       AH,#15235             ; [CPU_] |403| 
         000002e8 3B83 
    2510 000002e9 1E42          MOVL      *-SP[2],ACC           ; [CPU_] |403| 
    2511 000002ea 0692          MOVL      ACC,*+XAR2[AR0]       ; [CPU_] |403| 
    2512              $C$DW$243       .dwtag  DW_TAG_TI_branch
    2513                      .dwattr $C$DW$243, DW_AT_low_pc(0x00)
    2514                      .dwattr $C$DW$243, DW_AT_name("FS$$DIV")
    2515                      .dwattr $C$DW$243, DW_AT_TI_call
    2516 000002eb 7640!         LCR       #FS$$DIV              ; [CPU_] |403| 
         000002ec 0000 
    2517                      ; call occurs [#FS$$DIV] ; [] |403| 
    2518 000002ed 88AD          MOVZ      AR6,SP                ; [CPU_U] |403| 
    2519 000002ee DEA4          SUBB      XAR6,#36              ; [CPU_U] |403| 
    2520              $C$DW$244       .dwtag  DW_TAG_TI_branch
    2521                      .dwattr $C$DW$244, DW_AT_low_pc(0x00)
    2522                      .dwattr $C$DW$244, DW_AT_name("FS$$TOFD")
    2523                      .dwattr $C$DW$244, DW_AT_TI_call
    2524 000002ef 7640!         LCR       #FS$$TOFD             ; [CPU_] |403| 
         000002f0 0000 
TMS320C2000 Assembler PC v6.2.5 Tue Jun 27 16:56:14 2017

Tools Copyright (c) 1996-2014 Texas Instruments Incorporated
C:\Users\wmj\AppData\Local\Temp\1139610                              PAGE   49

    2525                      ; call occurs [#FS$$TOFD] ; [] |403| 
    2526 000002f1 5CAD          MOVZ      AR4,SP                ; [CPU_U] |403| 
    2527 000002f2 88AD          MOVZ      AR6,SP                ; [CPU_U] |403| 
    2528 000002f3 8F40+         MOVL      XAR5,#$C$FL1          ; [CPU_U] |403| 
         000002f4 0018 
    2529 000002f5 DCA4          SUBB      XAR4,#36              ; [CPU_U] |403| 
    2530 000002f6 DEA0          SUBB      XAR6,#32              ; [CPU_U] |403| 
    2531              $C$DW$245       .dwtag  DW_TAG_TI_branch
    2532                      .dwattr $C$DW$245, DW_AT_low_pc(0x00)
    2533                      .dwattr $C$DW$245, DW_AT_name("FD$$MPY")
    2534                      .dwattr $C$DW$245, DW_AT_TI_call
    2535 000002f7 7640!         LCR       #FD$$MPY              ; [CPU_] |403| 
         000002f8 0000 
    2536                      ; call occurs [#FD$$MPY] ; [] |403| 
    2537 000002f9 5CAD          MOVZ      AR4,SP                ; [CPU_U] |403| 
    2538 000002fa DCA0          SUBB      XAR4,#32              ; [CPU_U] |403| 
    2539              $C$DW$246       .dwtag  DW_TAG_TI_branch
    2540                      .dwattr $C$DW$246, DW_AT_low_pc(0x00)
    2541                      .dwattr $C$DW$246, DW_AT_name("FD$$TOL")
    2542                      .dwattr $C$DW$246, DW_AT_TI_call
    2543 000002fb 7640!         LCR       #FD$$TOL              ; [CPU_] |403| 
         000002fc 0000 
    2544                      ; call occurs [#FD$$TOL] ; [] |403| 
    2545                      .dwpsn  file "C:/ti/motorware/motorware_1_01_00_18/sw/modules/pid/src/32b/pid.h",line 303,column 16,i
    2546 000002fd D032          MOVB      XAR0,#50              ; [CPU_] |303| 
    2547 000002fe 8A91          MOVL      XAR4,*+XAR1[AR0]      ; [CPU_] |303| 
    2548                      .dwpsn  file "C:/ti/motorware/motorware_1_01_00_18/sw/modules/pid/src/32b/pid.h",line 305,column 3,is
    2549 000002ff 8F59          MOVL      XAR5,#1677721         ; [CPU_U] |305| 
         00000300 9999 
    2550                      .dwpsn  file "C:/ti/motorware/motorware_1_01_00_18/sw/modules/ctrl/src/32b/ctrl.c",line 403,column 3,
    2551 00000301 1EA7          MOVL      XAR7,ACC              ; [CPU_] |403| 
    2552                      .dwpsn  file "C:/ti/motorware/motorware_1_01_00_18/sw/modules/pid/src/32b/pid.h",line 413,column 3,is
    2553 00000302 D032          MOVB      XAR0,#50              ; [CPU_] |413| 
    2554                      .dwpsn  file "C:/ti/motorware/motorware_1_01_00_18/sw/modules/pid/src/32b/pid.h",line 305,column 3,is
    2555 00000303 A0C4          MOVL      *+XAR4[0],XAR5        ; [CPU_] |305| 
    2556                      .dwpsn  file "C:/ti/motorware/motorware_1_01_00_18/sw/modules/pid/src/32b/pid.h",line 306,column 3,is
    2557 00000304 1ED4          MOVL      *+XAR4[2],ACC         ; [CPU_] |306| 
    2558                      .dwpsn  file "C:/ti/motorware/motorware_1_01_00_18/sw/modules/pid/src/32b/pid.h",line 307,column 3,is
    2559 00000305 0200          MOVB      ACC,#0                ; [CPU_] |307| 
    2560 00000306 1EE4          MOVL      *+XAR4[4],ACC         ; [CPU_] |307| 
    2561                      .dwpsn  file "C:/ti/motorware/motorware_1_01_00_18/sw/modules/pid/src/32b/pid.h",line 413,column 3,is
    2562 00000307 8A91          MOVL      XAR4,*+XAR1[AR0]      ; [CPU_] |413| 
    2563                      .dwpsn  file "C:/ti/motorware/motorware_1_01_00_18/sw/modules/pid/src/32b/pid.h",line 358,column 16,i
    2564 00000308 D032          MOVB      XAR0,#50              ; [CPU_] |358| 
    2565                      .dwpsn  file "C:/ti/motorware/motorware_1_01_00_18/sw/modules/pid/src/32b/pid.h",line 413,column 3,is
    2566 00000309 1EF4          MOVL      *+XAR4[6],ACC         ; [CPU_] |413| 
    2567                      .dwpsn  file "C:/ti/motorware/motorware_1_01_00_18/sw/modules/pid/src/32b/pid.h",line 360,column 3,is
    2568 0000030a 28A9          MOV       AL,#52429             ; [CPU_] |360| 
         0000030b CCCD 
    2569 0000030c 28A8          MOV       AH,#65292             ; [CPU_] |360| 
         0000030d FF0C 
    2570                      .dwpsn  file "C:/ti/motorware/motorware_1_01_00_18/sw/modules/pid/src/32b/pid.h",line 358,column 16,i
    2571 0000030e 8A91          MOVL      XAR4,*+XAR1[AR0]      ; [CPU_] |358| 
    2572                      .dwpsn  file "C:/ti/motorware/motorware_1_01_00_18/sw/modules/ctrl/src/32b/ctrl.c",line 411,column 3,
    2573 0000030f 7699          MOVL      XAR6,#1677721         ; [CPU_U] |411| 
TMS320C2000 Assembler PC v6.2.5 Tue Jun 27 16:56:14 2017

Tools Copyright (c) 1996-2014 Texas Instruments Incorporated
C:\Users\wmj\AppData\Local\Temp\1139610                              PAGE   50

         00000310 9999 
    2574 00000311 D502          MOVB      XAR5,#2               ; [CPU_] |411| 
    2575                      .dwpsn  file "C:/ti/motorware/motorware_1_01_00_18/sw/modules/pid/src/32b/pid.h",line 360,column 3,is
    2576 00000312 D00C          MOVB      XAR0,#12              ; [CPU_] |360| 
    2577 00000313 1E94          MOVL      *+XAR4[AR0],ACC       ; [CPU_] |360| 
    2578                      .dwpsn  file "C:/ti/motorware/motorware_1_01_00_18/sw/modules/pid/src/32b/pid.h",line 361,column 3,is
    2579 00000314 D00E          MOVB      XAR0,#14              ; [CPU_] |361| 
    2580 00000315 28A9          MOV       AL,#13107             ; [CPU_] |361| 
         00000316 3333 
    2581 00000317 9BF3          MOV       AH,#243               ; [CPU_] |361| 
    2582 00000318 1E94          MOVL      *+XAR4[AR0],ACC       ; [CPU_] |361| 
    2583                      .dwpsn  file "C:/ti/motorware/motorware_1_01_00_18/sw/modules/ctrl/src/32b/ctrl.c",line 411,column 3,
    2584 00000319 0200          MOVB      ACC,#0                ; [CPU_] |411| 
    2585 0000031a 8AA1          MOVL      XAR4,XAR1             ; [CPU_] |411| 
    2586 0000031b C342          MOVL      *-SP[2],XAR7          ; [CPU_] |411| 
    2587 0000031c 1E44          MOVL      *-SP[4],ACC           ; [CPU_] |411| 
    2588 0000031d 06A6          MOVL      ACC,XAR6              ; [CPU_] |411| 
    2589              $C$DW$247       .dwtag  DW_TAG_TI_branch
    2590                      .dwattr $C$DW$247, DW_AT_low_pc(0x00)
    2591                      .dwattr $C$DW$247, DW_AT_name("_CTRL_setGains")
    2592                      .dwattr $C$DW$247, DW_AT_TI_call
    2593 0000031e 7640'         LCR       #_CTRL_setGains       ; [CPU_] |411| 
         0000031f 0160 
    2594                      ; call occurs [#_CTRL_setGains] ; [] |411| 
    2595 00000320 8A6A          MOVL      XAR4,*-SP[42]         ; [CPU_] |411| 
    2596                      .dwpsn  file "C:/ti/motorware/motorware_1_01_00_18/sw/modules/ctrl/src/32b/ctrl.c",line 415,column 3,
    2597 00000321 D040          MOVB      XAR0,#64              ; [CPU_] |415| 
    2598 00000322 06C4          MOVL      ACC,*+XAR4[0]         ; [CPU_] |415| 
    2599 00000323 1E66          MOVL      *-SP[38],ACC          ; [CPU_] |415| 
    2600 00000324 28A9          MOV       AL,#55050             ; [CPU_] |415| 
         00000325 D70A 
    2601 00000326 8294          MOVL      XAR3,*+XAR4[AR0]      ; [CPU_] |415| 
    2602 00000327 28A8          MOV       AH,#15523             ; [CPU_] |415| 
         00000328 3CA3 
    2603 00000329 86E4          MOVL      XAR2,*+XAR4[4]        ; [CPU_] |415| 
    2604 0000032a 1E42          MOVL      *-SP[2],ACC           ; [CPU_] |415| 
    2605 0000032b A2A9          MOVL      ACC,XAR3              ; [CPU_] |415| 
    2606              $C$DW$248       .dwtag  DW_TAG_TI_branch
    2607                      .dwattr $C$DW$248, DW_AT_low_pc(0x00)
    2608                      .dwattr $C$DW$248, DW_AT_name("FS$$MPY")
    2609                      .dwattr $C$DW$248, DW_AT_TI_call
    2610 0000032c 7640!         LCR       #FS$$MPY              ; [CPU_] |415| 
         0000032d 0000 
    2611                      ; call occurs [#FS$$MPY] ; [] |415| 
    2612 0000032e AA42          MOVL      *-SP[2],XAR2          ; [CPU_] |415| 
    2613              $C$DW$249       .dwtag  DW_TAG_TI_branch
    2614                      .dwattr $C$DW$249, DW_AT_low_pc(0x00)
    2615                      .dwattr $C$DW$249, DW_AT_name("FS$$MPY")
    2616                      .dwattr $C$DW$249, DW_AT_TI_call
    2617 0000032f 7640!         LCR       #FS$$MPY              ; [CPU_] |415| 
         00000330 0000 
    2618                      ; call occurs [#FS$$MPY] ; [] |415| 
    2619 00000331 C466          MOVL      XAR6,*-SP[38]         ; [CPU_] |415| 
    2620 00000332 C242          MOVL      *-SP[2],XAR6          ; [CPU_] |415| 
    2621              $C$DW$250       .dwtag  DW_TAG_TI_branch
TMS320C2000 Assembler PC v6.2.5 Tue Jun 27 16:56:14 2017

Tools Copyright (c) 1996-2014 Texas Instruments Incorporated
C:\Users\wmj\AppData\Local\Temp\1139610                              PAGE   51

    2622                      .dwattr $C$DW$250, DW_AT_low_pc(0x00)
    2623                      .dwattr $C$DW$250, DW_AT_name("FS$$DIV")
    2624                      .dwattr $C$DW$250, DW_AT_TI_call
    2625 00000333 7640!         LCR       #FS$$DIV              ; [CPU_] |415| 
         00000334 0000 
    2626                      ; call occurs [#FS$$DIV] ; [] |415| 
    2627 00000335 88AD          MOVZ      AR6,SP                ; [CPU_U] |415| 
    2628 00000336 DEA4          SUBB      XAR6,#36              ; [CPU_U] |415| 
    2629              $C$DW$251       .dwtag  DW_TAG_TI_branch
    2630                      .dwattr $C$DW$251, DW_AT_low_pc(0x00)
    2631                      .dwattr $C$DW$251, DW_AT_name("FS$$TOFD")
    2632                      .dwattr $C$DW$251, DW_AT_TI_call
    2633 00000337 7640!         LCR       #FS$$TOFD             ; [CPU_] |415| 
         00000338 0000 
    2634                      ; call occurs [#FS$$TOFD] ; [] |415| 
    2635 00000339 5CAD          MOVZ      AR4,SP                ; [CPU_U] |415| 
    2636 0000033a 88AD          MOVZ      AR6,SP                ; [CPU_U] |415| 
    2637 0000033b 8F40+         MOVL      XAR5,#$C$FL1          ; [CPU_U] |415| 
         0000033c 0018 
    2638 0000033d DCA4          SUBB      XAR4,#36              ; [CPU_U] |415| 
    2639 0000033e DEA0          SUBB      XAR6,#32              ; [CPU_U] |415| 
    2640              $C$DW$252       .dwtag  DW_TAG_TI_branch
    2641                      .dwattr $C$DW$252, DW_AT_low_pc(0x00)
    2642                      .dwattr $C$DW$252, DW_AT_name("FD$$MPY")
    2643                      .dwattr $C$DW$252, DW_AT_TI_call
    2644 0000033f 7640!         LCR       #FD$$MPY              ; [CPU_] |415| 
         00000340 0000 
    2645                      ; call occurs [#FD$$MPY] ; [] |415| 
    2646 00000341 5CAD          MOVZ      AR4,SP                ; [CPU_U] |415| 
    2647 00000342 DCA0          SUBB      XAR4,#32              ; [CPU_U] |415| 
    2648              $C$DW$253       .dwtag  DW_TAG_TI_branch
    2649                      .dwattr $C$DW$253, DW_AT_low_pc(0x00)
    2650                      .dwattr $C$DW$253, DW_AT_name("FD$$TOL")
    2651                      .dwattr $C$DW$253, DW_AT_TI_call
    2652 00000343 7640!         LCR       #FD$$TOL              ; [CPU_] |415| 
         00000344 0000 
    2653                      ; call occurs [#FD$$TOL] ; [] |415| 
    2654 00000345 1E68          MOVL      *-SP[40],ACC          ; [CPU_] |415| 
    2655                      .dwpsn  file "C:/ti/motorware/motorware_1_01_00_18/sw/modules/ctrl/src/32b/ctrl.c",line 416,column 3,
    2656 00000346 A242          MOVL      *-SP[2],XAR3          ; [CPU_] |416| 
    2657 00000347 A2A9          MOVL      ACC,XAR3              ; [CPU_] |416| 
    2658              $C$DW$254       .dwtag  DW_TAG_TI_branch
    2659                      .dwattr $C$DW$254, DW_AT_low_pc(0x00)
    2660                      .dwattr $C$DW$254, DW_AT_name("FS$$ADD")
    2661                      .dwattr $C$DW$254, DW_AT_TI_call
    2662 00000348 7640!         LCR       #FS$$ADD              ; [CPU_] |416| 
         00000349 0000 
    2663                      ; call occurs [#FS$$ADD] ; [] |416| 
    2664 0000034a AA42          MOVL      *-SP[2],XAR2          ; [CPU_] |416| 
    2665              $C$DW$255       .dwtag  DW_TAG_TI_branch
    2666                      .dwattr $C$DW$255, DW_AT_low_pc(0x00)
    2667                      .dwattr $C$DW$255, DW_AT_name("FS$$MPY")
    2668                      .dwattr $C$DW$255, DW_AT_TI_call
    2669 0000034b 7640!         LCR       #FS$$MPY              ; [CPU_] |416| 
         0000034c 0000 
TMS320C2000 Assembler PC v6.2.5 Tue Jun 27 16:56:14 2017

Tools Copyright (c) 1996-2014 Texas Instruments Incorporated
C:\Users\wmj\AppData\Local\Temp\1139610                              PAGE   52

    2670                      ; call occurs [#FS$$MPY] ; [] |416| 
    2671 0000034d 866A          MOVL      XAR2,*-SP[42]         ; [CPU_] |416| 
    2672 0000034e D0A6          MOVB      XAR0,#166             ; [CPU_] |416| 
    2673 0000034f C492          MOVL      XAR6,*+XAR2[AR0]      ; [CPU_] |416| 
    2674 00000350 C242          MOVL      *-SP[2],XAR6          ; [CPU_] |416| 
    2675              $C$DW$256       .dwtag  DW_TAG_TI_branch
    2676                      .dwattr $C$DW$256, DW_AT_low_pc(0x00)
    2677                      .dwattr $C$DW$256, DW_AT_name("FS$$MPY")
    2678                      .dwattr $C$DW$256, DW_AT_TI_call
    2679 00000351 7640!         LCR       #FS$$MPY              ; [CPU_] |416| 
         00000352 0000 
    2680                      ; call occurs [#FS$$MPY] ; [] |416| 
    2681 00000353 C466          MOVL      XAR6,*-SP[38]         ; [CPU_] |416| 
    2682 00000354 C242          MOVL      *-SP[2],XAR6          ; [CPU_] |416| 
    2683              $C$DW$257       .dwtag  DW_TAG_TI_branch
    2684                      .dwattr $C$DW$257, DW_AT_low_pc(0x00)
    2685                      .dwattr $C$DW$257, DW_AT_name("FS$$DIV")
    2686                      .dwattr $C$DW$257, DW_AT_TI_call
    2687 00000355 7640!         LCR       #FS$$DIV              ; [CPU_] |416| 
         00000356 0000 
    2688                      ; call occurs [#FS$$DIV] ; [] |416| 
    2689 00000357 88AD          MOVZ      AR6,SP                ; [CPU_U] |416| 
    2690 00000358 DEA4          SUBB      XAR6,#36              ; [CPU_U] |416| 
    2691              $C$DW$258       .dwtag  DW_TAG_TI_branch
    2692                      .dwattr $C$DW$258, DW_AT_low_pc(0x00)
    2693                      .dwattr $C$DW$258, DW_AT_name("FS$$TOFD")
    2694                      .dwattr $C$DW$258, DW_AT_TI_call
    2695 00000359 7640!         LCR       #FS$$TOFD             ; [CPU_] |416| 
         0000035a 0000 
    2696                      ; call occurs [#FS$$TOFD] ; [] |416| 
    2697 0000035b 5CAD          MOVZ      AR4,SP                ; [CPU_U] |416| 
    2698 0000035c 88AD          MOVZ      AR6,SP                ; [CPU_U] |416| 
    2699 0000035d 8F40+         MOVL      XAR5,#$C$FL1          ; [CPU_U] |416| 
         0000035e 0018 
    2700 0000035f DCA4          SUBB      XAR4,#36              ; [CPU_U] |416| 
    2701 00000360 DEA0          SUBB      XAR6,#32              ; [CPU_U] |416| 
    2702              $C$DW$259       .dwtag  DW_TAG_TI_branch
    2703                      .dwattr $C$DW$259, DW_AT_low_pc(0x00)
    2704                      .dwattr $C$DW$259, DW_AT_name("FD$$MPY")
    2705                      .dwattr $C$DW$259, DW_AT_TI_call
    2706 00000361 7640!         LCR       #FD$$MPY              ; [CPU_] |416| 
         00000362 0000 
    2707                      ; call occurs [#FD$$MPY] ; [] |416| 
    2708 00000363 5CAD          MOVZ      AR4,SP                ; [CPU_U] |416| 
    2709 00000364 DCA0          SUBB      XAR4,#32              ; [CPU_U] |416| 
    2710              $C$DW$260       .dwtag  DW_TAG_TI_branch
    2711                      .dwattr $C$DW$260, DW_AT_low_pc(0x00)
    2712                      .dwattr $C$DW$260, DW_AT_name("FD$$TOL")
    2713                      .dwattr $C$DW$260, DW_AT_TI_call
    2714 00000365 7640!         LCR       #FD$$TOL              ; [CPU_] |416| 
         00000366 0000 
    2715                      ; call occurs [#FD$$TOL] ; [] |416| 
    2716                      .dwpsn  file "C:/ti/motorware/motorware_1_01_00_18/sw/modules/pid/src/32b/pid.h",line 303,column 16,i
    2717 00000367 D044          MOVB      XAR0,#68              ; [CPU_] |303| 
    2718 00000368 C468          MOVL      XAR6,*-SP[40]         ; [CPU_] |303| 
TMS320C2000 Assembler PC v6.2.5 Tue Jun 27 16:56:14 2017

Tools Copyright (c) 1996-2014 Texas Instruments Incorporated
C:\Users\wmj\AppData\Local\Temp\1139610                              PAGE   53

    2719 00000369 8A91          MOVL      XAR4,*+XAR1[AR0]      ; [CPU_] |303| 
    2720                      .dwpsn  file "C:/ti/motorware/motorware_1_01_00_18/sw/modules/ctrl/src/32b/ctrl.c",line 416,column 3,
    2721 0000036a 1EA7          MOVL      XAR7,ACC              ; [CPU_] |416| 
    2722                      .dwpsn  file "C:/ti/motorware/motorware_1_01_00_18/sw/modules/pid/src/32b/pid.h",line 413,column 3,is
    2723 0000036b D044          MOVB      XAR0,#68              ; [CPU_] |413| 
    2724                      .dwpsn  file "C:/ti/motorware/motorware_1_01_00_18/sw/modules/pid/src/32b/pid.h",line 305,column 3,is
    2725 0000036c C2C4          MOVL      *+XAR4[0],XAR6        ; [CPU_] |305| 
    2726                      .dwpsn  file "C:/ti/motorware/motorware_1_01_00_18/sw/modules/pid/src/32b/pid.h",line 306,column 3,is
    2727 0000036d 1ED4          MOVL      *+XAR4[2],ACC         ; [CPU_] |306| 
    2728                      .dwpsn  file "C:/ti/motorware/motorware_1_01_00_18/sw/modules/pid/src/32b/pid.h",line 307,column 3,is
    2729 0000036e 0200          MOVB      ACC,#0                ; [CPU_] |307| 
    2730 0000036f 1EE4          MOVL      *+XAR4[4],ACC         ; [CPU_] |307| 
    2731                      .dwpsn  file "C:/ti/motorware/motorware_1_01_00_18/sw/modules/pid/src/32b/pid.h",line 413,column 3,is
    2732 00000370 8A91          MOVL      XAR4,*+XAR1[AR0]      ; [CPU_] |413| 
    2733 00000371 3B01          SETC      SXM                   ; [CPU_] 
    2734                      .dwpsn  file "C:/ti/motorware/motorware_1_01_00_18/sw/modules/pid/src/32b/pid.h",line 358,column 16,i
    2735 00000372 D044          MOVB      XAR0,#68              ; [CPU_] |358| 
    2736                      .dwpsn  file "C:/ti/motorware/motorware_1_01_00_18/sw/modules/pid/src/32b/pid.h",line 413,column 3,is
    2737 00000373 1EF4          MOVL      *+XAR4[6],ACC         ; [CPU_] |413| 
    2738                      .dwpsn  file "C:/ti/motorware/motorware_1_01_00_18/sw/modules/pid/src/32b/pid.h",line 358,column 16,i
    2739 00000374 8A91          MOVL      XAR4,*+XAR1[AR0]      ; [CPU_] |358| 
    2740                      .dwpsn  file "C:/ti/motorware/motorware_1_01_00_18/sw/modules/pid/src/32b/pid.h",line 360,column 3,is
    2741 00000375 FF2F          MOV       ACC,#-512 << 15       ; [CPU_] |360| 
         00000376 FE00 
    2742                      .dwpsn  file "C:/ti/motorware/motorware_1_01_00_18/sw/modules/ctrl/src/32b/ctrl.c",line 424,column 3,
    2743 00000377 D500          MOVB      XAR5,#0               ; [CPU_] |424| 
    2744                      .dwpsn  file "C:/ti/motorware/motorware_1_01_00_18/sw/modules/pid/src/32b/pid.h",line 360,column 3,is
    2745 00000378 D00C          MOVB      XAR0,#12              ; [CPU_] |360| 
    2746 00000379 1E94          MOVL      *+XAR4[AR0],ACC       ; [CPU_] |360| 
    2747                      .dwpsn  file "C:/ti/motorware/motorware_1_01_00_18/sw/modules/pid/src/32b/pid.h",line 361,column 3,is
    2748 0000037a D00E          MOVB      XAR0,#14              ; [CPU_] |361| 
    2749 0000037b FF2F          MOV       ACC,#512 << 15        ; [CPU_] |361| 
         0000037c 0200 
    2750 0000037d 1E94          MOVL      *+XAR4[AR0],ACC       ; [CPU_] |361| 
    2751                      .dwpsn  file "C:/ti/motorware/motorware_1_01_00_18/sw/modules/ctrl/src/32b/ctrl.c",line 424,column 3,
    2752 0000037e 0200          MOVB      ACC,#0                ; [CPU_] |424| 
    2753 0000037f 8AA1          MOVL      XAR4,XAR1             ; [CPU_] |424| 
    2754 00000380 C342          MOVL      *-SP[2],XAR7          ; [CPU_] |424| 
    2755 00000381 1E44          MOVL      *-SP[4],ACC           ; [CPU_] |424| 
    2756 00000382 06A6          MOVL      ACC,XAR6              ; [CPU_] |424| 
    2757              $C$DW$261       .dwtag  DW_TAG_TI_branch
    2758                      .dwattr $C$DW$261, DW_AT_low_pc(0x00)
    2759                      .dwattr $C$DW$261, DW_AT_name("_CTRL_setGains")
    2760                      .dwattr $C$DW$261, DW_AT_TI_call
    2761 00000383 7640'         LCR       #_CTRL_setGains       ; [CPU_] |424| 
         00000384 0160 
    2762                      ; call occurs [#_CTRL_setGains] ; [] |424| 
    2763                      .dwpsn  file "C:/ti/motorware/motorware_1_01_00_18/sw/modules/ctrl/src/32b/ctrl.c",line 428,column 3,
    2764 00000385 0200          MOVB      ACC,#0                ; [CPU_] |428| 
    2765              $C$DW$262       .dwtag  DW_TAG_TI_branch
    2766                      .dwattr $C$DW$262, DW_AT_low_pc(0x00)
    2767                      .dwattr $C$DW$262, DW_AT_name("_CTRL_setSpd_ref_pu")
    2768                      .dwattr $C$DW$262, DW_AT_TI_call
    2769 00000386 7640'         LCR       #_CTRL_setSpd_ref_pu  ; [CPU_] |428| 
         00000387 014A 
TMS320C2000 Assembler PC v6.2.5 Tue Jun 27 16:56:14 2017

Tools Copyright (c) 1996-2014 Texas Instruments Incorporated
C:\Users\wmj\AppData\Local\Temp\1139610                              PAGE   54

    2770                      ; call occurs [#_CTRL_setSpd_ref_pu] ; [] |428| 
    2771                      .dwpsn  file "C:/ti/motorware/motorware_1_01_00_18/sw/modules/traj/src/32b/traj.h",line 158,column 3,
    2772 00000388 D060          MOVB      XAR0,#96              ; [CPU_] |158| 
    2773 00000389 8A91          MOVL      XAR4,*+XAR1[AR0]      ; [CPU_] |158| 
    2774                      .dwpsn  file "C:/ti/motorware/motorware_1_01_00_18/sw/modules/traj/src/32b/traj.h",line 210,column 3,
    2775 0000038a D060          MOVB      XAR0,#96              ; [CPU_] |210| 
    2776                      .dwpsn  file "C:/ti/motorware/motorware_1_01_00_18/sw/modules/traj/src/32b/traj.h",line 158,column 3,
    2777 0000038b 1ED4          MOVL      *+XAR4[2],ACC         ; [CPU_] |158| 
    2778                      .dwpsn  file "C:/ti/motorware/motorware_1_01_00_18/sw/modules/traj/src/32b/traj.h",line 210,column 3,
    2779 0000038c 8A91          MOVL      XAR4,*+XAR1[AR0]      ; [CPU_] |210| 
    2780                      .dwpsn  file "C:/ti/motorware/motorware_1_01_00_18/sw/modules/traj/src/32b/traj.h",line 197,column 3,
    2781 0000038d D060          MOVB      XAR0,#96              ; [CPU_] |197| 
    2782                      .dwpsn  file "C:/ti/motorware/motorware_1_01_00_18/sw/modules/traj/src/32b/traj.h",line 210,column 3,
    2783 0000038e 1EC4          MOVL      *+XAR4[0],ACC         ; [CPU_] |210| 
    2784                      .dwpsn  file "C:/ti/motorware/motorware_1_01_00_18/sw/modules/traj/src/32b/traj.h",line 197,column 3,
    2785 0000038f 8A91          MOVL      XAR4,*+XAR1[AR0]      ; [CPU_] |197| 
    2786                      .dwpsn  file "C:/ti/motorware/motorware_1_01_00_18/sw/modules/traj/src/32b/traj.h",line 184,column 3,
    2787 00000390 D060          MOVB      XAR0,#96              ; [CPU_] |184| 
    2788                      .dwpsn  file "C:/ti/motorware/motorware_1_01_00_18/sw/modules/traj/src/32b/traj.h",line 197,column 3,
    2789 00000391 1EE4          MOVL      *+XAR4[4],ACC         ; [CPU_] |197| 
    2790                      .dwpsn  file "C:/ti/motorware/motorware_1_01_00_18/sw/modules/traj/src/32b/traj.h",line 184,column 3,
    2791 00000392 8A91          MOVL      XAR4,*+XAR1[AR0]      ; [CPU_] |184| 
    2792                      .dwpsn  file "C:/ti/motorware/motorware_1_01_00_18/sw/modules/traj/src/32b/traj.h",line 171,column 3,
    2793 00000393 D060          MOVB      XAR0,#96              ; [CPU_] |171| 
    2794                      .dwpsn  file "C:/ti/motorware/motorware_1_01_00_18/sw/modules/traj/src/32b/traj.h",line 184,column 3,
    2795 00000394 1EF4          MOVL      *+XAR4[6],ACC         ; [CPU_] |184| 
    2796                      .dwpsn  file "C:/ti/motorware/motorware_1_01_00_18/sw/modules/traj/src/32b/traj.h",line 171,column 3,
    2797 00000395 8A91          MOVL      XAR4,*+XAR1[AR0]      ; [CPU_] |171| 
    2798 00000396 D008          MOVB      XAR0,#8               ; [CPU_] |171| 
    2799 00000397 1E94          MOVL      *+XAR4[AR0],ACC       ; [CPU_] |171| 
    2800                      .dwpsn  file "C:/ti/motorware/motorware_1_01_00_18/sw/modules/traj/src/32b/traj.h",line 158,column 3,
    2801 00000398 D06C          MOVB      XAR0,#108             ; [CPU_] |158| 
    2802 00000399 8A91          MOVL      XAR4,*+XAR1[AR0]      ; [CPU_] |158| 
    2803                      .dwpsn  file "C:/ti/motorware/motorware_1_01_00_18/sw/modules/traj/src/32b/traj.h",line 210,column 3,
    2804 0000039a D06C          MOVB      XAR0,#108             ; [CPU_] |210| 
    2805                      .dwpsn  file "C:/ti/motorware/motorware_1_01_00_18/sw/modules/traj/src/32b/traj.h",line 158,column 3,
    2806 0000039b 1ED4          MOVL      *+XAR4[2],ACC         ; [CPU_] |158| 
    2807                      .dwpsn  file "C:/ti/motorware/motorware_1_01_00_18/sw/modules/traj/src/32b/traj.h",line 210,column 3,
    2808 0000039c 8A91          MOVL      XAR4,*+XAR1[AR0]      ; [CPU_] |210| 
    2809                      .dwpsn  file "C:/ti/motorware/motorware_1_01_00_18/sw/modules/traj/src/32b/traj.h",line 197,column 3,
    2810 0000039d D06C          MOVB      XAR0,#108             ; [CPU_] |197| 
    2811                      .dwpsn  file "C:/ti/motorware/motorware_1_01_00_18/sw/modules/traj/src/32b/traj.h",line 210,column 3,
    2812 0000039e 1EC4          MOVL      *+XAR4[0],ACC         ; [CPU_] |210| 
    2813                      .dwpsn  file "C:/ti/motorware/motorware_1_01_00_18/sw/modules/traj/src/32b/traj.h",line 197,column 3,
    2814 0000039f 8A91          MOVL      XAR4,*+XAR1[AR0]      ; [CPU_] |197| 
    2815                      .dwpsn  file "C:/ti/motorware/motorware_1_01_00_18/sw/modules/traj/src/32b/traj.h",line 184,column 3,
    2816 000003a0 D06C          MOVB      XAR0,#108             ; [CPU_] |184| 
    2817                      .dwpsn  file "C:/ti/motorware/motorware_1_01_00_18/sw/modules/traj/src/32b/traj.h",line 197,column 3,
    2818 000003a1 1EE4          MOVL      *+XAR4[4],ACC         ; [CPU_] |197| 
    2819                      .dwpsn  file "C:/ti/motorware/motorware_1_01_00_18/sw/modules/traj/src/32b/traj.h",line 184,column 3,
    2820 000003a2 8A91          MOVL      XAR4,*+XAR1[AR0]      ; [CPU_] |184| 
    2821                      .dwpsn  file "C:/ti/motorware/motorware_1_01_00_18/sw/modules/traj/src/32b/traj.h",line 171,column 3,
    2822 000003a3 D06C          MOVB      XAR0,#108             ; [CPU_] |171| 
    2823                      .dwpsn  file "C:/ti/motorware/motorware_1_01_00_18/sw/modules/traj/src/32b/traj.h",line 184,column 3,
    2824 000003a4 1EF4          MOVL      *+XAR4[6],ACC         ; [CPU_] |184| 
TMS320C2000 Assembler PC v6.2.5 Tue Jun 27 16:56:14 2017

Tools Copyright (c) 1996-2014 Texas Instruments Incorporated
C:\Users\wmj\AppData\Local\Temp\1139610                              PAGE   55

    2825                      .dwpsn  file "C:/ti/motorware/motorware_1_01_00_18/sw/modules/traj/src/32b/traj.h",line 171,column 3,
    2826 000003a5 8A91          MOVL      XAR4,*+XAR1[AR0]      ; [CPU_] |171| 
    2827 000003a6 D008          MOVB      XAR0,#8               ; [CPU_] |171| 
    2828 000003a7 1E94          MOVL      *+XAR4[AR0],ACC       ; [CPU_] |171| 
    2829                      .dwpsn  file "C:/ti/motorware/motorware_1_01_00_18/sw/modules/traj/src/32b/traj.h",line 158,column 3,
    2830 000003a8 D078          MOVB      XAR0,#120             ; [CPU_] |158| 
    2831 000003a9 8A91          MOVL      XAR4,*+XAR1[AR0]      ; [CPU_] |158| 
    2832                      .dwpsn  file "C:/ti/motorware/motorware_1_01_00_18/sw/modules/traj/src/32b/traj.h",line 210,column 3,
    2833 000003aa D078          MOVB      XAR0,#120             ; [CPU_] |210| 
    2834                      .dwpsn  file "C:/ti/motorware/motorware_1_01_00_18/sw/modules/traj/src/32b/traj.h",line 158,column 3,
    2835 000003ab 1ED4          MOVL      *+XAR4[2],ACC         ; [CPU_] |158| 
    2836                      .dwpsn  file "C:/ti/motorware/motorware_1_01_00_18/sw/modules/traj/src/32b/traj.h",line 210,column 3,
    2837 000003ac 8A91          MOVL      XAR4,*+XAR1[AR0]      ; [CPU_] |210| 
    2838                      .dwpsn  file "C:/ti/motorware/motorware_1_01_00_18/sw/modules/traj/src/32b/traj.h",line 197,column 3,
    2839 000003ad D078          MOVB      XAR0,#120             ; [CPU_] |197| 
    2840                      .dwpsn  file "C:/ti/motorware/motorware_1_01_00_18/sw/modules/traj/src/32b/traj.h",line 210,column 3,
    2841 000003ae 1EC4          MOVL      *+XAR4[0],ACC         ; [CPU_] |210| 
    2842                      .dwpsn  file "C:/ti/motorware/motorware_1_01_00_18/sw/modules/traj/src/32b/traj.h",line 197,column 3,
    2843 000003af 8A91          MOVL      XAR4,*+XAR1[AR0]      ; [CPU_] |197| 
    2844                      .dwpsn  file "C:/ti/motorware/motorware_1_01_00_18/sw/modules/traj/src/32b/traj.h",line 184,column 3,
    2845 000003b0 D078          MOVB      XAR0,#120             ; [CPU_] |184| 
    2846                      .dwpsn  file "C:/ti/motorware/motorware_1_01_00_18/sw/modules/traj/src/32b/traj.h",line 197,column 3,
    2847 000003b1 1EE4          MOVL      *+XAR4[4],ACC         ; [CPU_] |197| 
    2848                      .dwpsn  file "C:/ti/motorware/motorware_1_01_00_18/sw/modules/traj/src/32b/traj.h",line 184,column 3,
    2849 000003b2 8A91          MOVL      XAR4,*+XAR1[AR0]      ; [CPU_] |184| 
    2850                      .dwpsn  file "C:/ti/motorware/motorware_1_01_00_18/sw/modules/traj/src/32b/traj.h",line 171,column 3,
    2851 000003b3 D078          MOVB      XAR0,#120             ; [CPU_] |171| 
    2852                      .dwpsn  file "C:/ti/motorware/motorware_1_01_00_18/sw/modules/traj/src/32b/traj.h",line 184,column 3,
    2853 000003b4 1EF4          MOVL      *+XAR4[6],ACC         ; [CPU_] |184| 
    2854                      .dwpsn  file "C:/ti/motorware/motorware_1_01_00_18/sw/modules/traj/src/32b/traj.h",line 171,column 3,
    2855 000003b5 8A91          MOVL      XAR4,*+XAR1[AR0]      ; [CPU_] |171| 
    2856                      .dwpsn  file "C:/ti/motorware/motorware_1_01_00_18/sw/modules/ctrl/src/32b/ctrl.c",line 456,column 3,
    2857 000003b6 83A2          MOVL      XAR5,XAR2             ; [CPU_] |456| 
    2858                      .dwpsn  file "C:/ti/motorware/motorware_1_01_00_18/sw/modules/traj/src/32b/traj.h",line 171,column 3,
    2859 000003b7 D008          MOVB      XAR0,#8               ; [CPU_] |171| 
    2860 000003b8 1E94          MOVL      *+XAR4[AR0],ACC       ; [CPU_] |171| 
    2861                      .dwpsn  file "C:/ti/motorware/motorware_1_01_00_18/sw/modules/ctrl/src/32b/ctrl.c",line 456,column 3,
    2862 000003b9 D018          MOVB      XAR0,#24              ; [CPU_] |456| 
    2863 000003ba 8A91          MOVL      XAR4,*+XAR1[AR0]      ; [CPU_] |456| 
    2864              $C$DW$263       .dwtag  DW_TAG_TI_branch
    2865                      .dwattr $C$DW$263, DW_AT_low_pc(0x00)
    2866                      .dwattr $C$DW$263, DW_AT_name("_CTRL_setEstParams")
    2867                      .dwattr $C$DW$263, DW_AT_TI_call
    2868 000003bb 7640!         LCR       #_CTRL_setEstParams   ; [CPU_] |456| 
         000003bc 0000 
    2869                      ; call occurs [#_CTRL_setEstParams] ; [] |456| 
    2870                      .dwpsn  file "C:/ti/motorware/motorware_1_01_00_18/sw/modules/svgen/src/32b/svgen.h",line 184,column 
    2871 000003bd D05C          MOVB      XAR0,#92              ; [CPU_] |184| 
    2872 000003be 8A91          MOVL      XAR4,*+XAR1[AR0]      ; [CPU_] |184| 
    2873 000003bf 28A9          MOV       AL,#43691             ; [CPU_] |184| 
         000003c0 AAAB 
    2874 000003c1 9BAA          MOV       AH,#170               ; [CPU_] |184| 
    2875 000003c2 1EC4          MOVL      *+XAR4[0],ACC         ; [CPU_] |184| 
    2876 000003c3 FEAA          SUBB      SP,#42                ; [CPU_U] 
    2877                      .dwcfi  cfa_offset, -8
TMS320C2000 Assembler PC v6.2.5 Tue Jun 27 16:56:14 2017

Tools Copyright (c) 1996-2014 Texas Instruments Incorporated
C:\Users\wmj\AppData\Local\Temp\1139610                              PAGE   56

    2878 000003c4 82BE          MOVL      XAR3,*--SP            ; [CPU_] 
    2879                      .dwcfi  cfa_offset, -6
    2880                      .dwcfi  restore_reg, 11
    2881 000003c5 86BE          MOVL      XAR2,*--SP            ; [CPU_] 
    2882                      .dwcfi  cfa_offset, -4
    2883                      .dwcfi  restore_reg, 9
    2884 000003c6 8BBE          MOVL      XAR1,*--SP            ; [CPU_] 
    2885                      .dwcfi  cfa_offset, -2
    2886                      .dwcfi  restore_reg, 7
    2887              $C$DW$264       .dwtag  DW_TAG_TI_branch
    2888                      .dwattr $C$DW$264, DW_AT_low_pc(0x00)
    2889                      .dwattr $C$DW$264, DW_AT_TI_return
    2890 000003c7 0006          LRETR     ; [CPU_] 
    2891                      ; return occurs ; [] 
    2892                      .dwattr $C$DW$195, DW_AT_TI_end_file("C:/ti/motorware/motorware_1_01_00_18/sw/modules/ctrl/src/32b/ct
    2893                      .dwattr $C$DW$195, DW_AT_TI_end_line(0x1d0)
    2894                      .dwattr $C$DW$195, DW_AT_TI_end_column(0x01)
    2895                      .dwendentry
    2896                      .dwendtag $C$DW$195
    2897              
    2898 0000000a               .sect   "ramfuncs"
    2899                      .clink
    2900                      .global _CTRL_run
    2901              
    2902              $C$DW$265       .dwtag  DW_TAG_subprogram, DW_AT_name("CTRL_run")
    2903                      .dwattr $C$DW$265, DW_AT_low_pc(_CTRL_run)
    2904                      .dwattr $C$DW$265, DW_AT_high_pc(0x00)
    2905                      .dwattr $C$DW$265, DW_AT_TI_symbol_name("_CTRL_run")
    2906                      .dwattr $C$DW$265, DW_AT_external
    2907                      .dwattr $C$DW$265, DW_AT_TI_begin_file("C:/ti/motorware/motorware_1_01_00_18/sw/modules/ctrl/src/32b/
    2908                      .dwattr $C$DW$265, DW_AT_TI_begin_line(0xc3)
    2909                      .dwattr $C$DW$265, DW_AT_TI_begin_column(0x06)
    2910                      .dwattr $C$DW$265, DW_AT_TI_max_frame_size(-38)
    2911                      .dwpsn  file "C:/ti/motorware/motorware_1_01_00_18/sw/modules/ctrl/src/32b/ctrl.c",line 198,column 1,
    2912              
    2913                      .dwfde $C$DW$CIE, _CTRL_run
    2914              $C$DW$266       .dwtag  DW_TAG_formal_parameter, DW_AT_name("handle")
    2915                      .dwattr $C$DW$266, DW_AT_TI_symbol_name("_handle")
    2916                      .dwattr $C$DW$266, DW_AT_type(*$C$DW$T$161)
    2917                      .dwattr $C$DW$266, DW_AT_location[DW_OP_reg12]
    2918              $C$DW$267       .dwtag  DW_TAG_formal_parameter, DW_AT_name("halHandle")
    2919                      .dwattr $C$DW$267, DW_AT_TI_symbol_name("_halHandle")
    2920                      .dwattr $C$DW$267, DW_AT_type(*$C$DW$T$188)
    2921                      .dwattr $C$DW$267, DW_AT_location[DW_OP_reg14]
    2922              $C$DW$268       .dwtag  DW_TAG_formal_parameter, DW_AT_name("pAdcData")
    2923                      .dwattr $C$DW$268, DW_AT_TI_symbol_name("_pAdcData")
    2924                      .dwattr $C$DW$268, DW_AT_type(*$C$DW$T$180)
    2925                      .dwattr $C$DW$268, DW_AT_location[DW_OP_breg20 -40]
    2926              $C$DW$269       .dwtag  DW_TAG_formal_parameter, DW_AT_name("pPwmData")
    2927                      .dwattr $C$DW$269, DW_AT_TI_symbol_name("_pPwmData")
    2928                      .dwattr $C$DW$269, DW_AT_type(*$C$DW$T$192)
    2929                      .dwattr $C$DW$269, DW_AT_location[DW_OP_breg20 -42]
    2930              
    2931              ;***************************************************************
    2932              ;* FNAME: _CTRL_run                     FR SIZE:  36           *
TMS320C2000 Assembler PC v6.2.5 Tue Jun 27 16:56:14 2017

Tools Copyright (c) 1996-2014 Texas Instruments Incorporated
C:\Users\wmj\AppData\Local\Temp\1139610                              PAGE   57

    2933              ;*                                                             *
    2934              ;* FUNCTION ENVIRONMENT                                        *
    2935              ;*                                                             *
    2936              ;* FUNCTION PROPERTIES                                         *
    2937              ;*                            4 Parameter, 26 Auto,  6 SOE     *
    2938              ;***************************************************************
    2939              
    2940              _CTRL_run:
    2941              ;* AR4   assigned to $O$C36
    2942              ;* AL    assigned to $O$C37
    2943              ;* AR4   assigned to $O$C38
    2944              ;* AR5   assigned to $O$C39
    2945              ;* AR6   assigned to $O$C40
    2946              ;* AR1   assigned to $O$C41
    2947              ;* AR6   assigned to $O$C42
    2948              ;* AR0   assigned to $O$C43
    2949              ;* AR4   assigned to $O$C44
    2950              ;* AR1   assigned to $O$C45
    2951              ;* AR5   assigned to $O$C46
    2952              ;* AR5   assigned to $O$C47
    2953              ;* AR4   assigned to $O$C48
    2954              ;* AR5   assigned to $O$C49
    2955              ;* AR4   assigned to $O$C50
    2956              ;* AL    assigned to $O$C51
    2957              ;* AR6   assigned to $O$C52
    2958              ;* AR5   assigned to $O$C53
    2959              ;* AR4   assigned to $O$C54
    2960              ;* AR5   assigned to $O$C55
    2961              ;* AR4   assigned to $O$C56
    2962              ;* AL    assigned to $O$C57
    2963              ;* AR6   assigned to $O$C58
    2964              ;* AR4   assigned to $O$C59
    2965              ;* AL    assigned to $O$C60
    2966              ;* AR4   assigned to $O$C61
    2967              ;* AR5   assigned to $O$C62
    2968              ;* AR6   assigned to $O$C63
    2969              ;* AL    assigned to $O$C64
    2970              ;* AR0   assigned to $O$C65
    2971              ;* AR4   assigned to $O$C66
    2972              ;* AR1   assigned to $O$C67
    2973              ;* AR5   assigned to $O$C68
    2974              ;* AR5   assigned to $O$C69
    2975              ;* AR4   assigned to $O$C70
    2976              ;* AR5   assigned to $O$C71
    2977              ;* AR4   assigned to $O$C72
    2978              ;* AL    assigned to $O$C73
    2979              ;* AR6   assigned to $O$C74
    2980              ;* AR5   assigned to $O$C75
    2981              ;* AR4   assigned to $O$C76
    2982              ;* AR5   assigned to $O$C77
    2983              ;* AR4   assigned to $O$C78
    2984              ;* AL    assigned to $O$C79
    2985              ;* AR6   assigned to $O$C80
    2986              ;* AL    assigned to $O$C81
    2987              ;* AL    assigned to $O$C82
TMS320C2000 Assembler PC v6.2.5 Tue Jun 27 16:56:14 2017

Tools Copyright (c) 1996-2014 Texas Instruments Incorporated
C:\Users\wmj\AppData\Local\Temp\1139610                              PAGE   58

    2988              ;* AR4   assigned to $O$C83
    2989              ;* AR4   assigned to $O$C84
    2990              ;* AR4   assigned to _pInVec
    2991              $C$DW$270       .dwtag  DW_TAG_variable, DW_AT_name("pInVec")
    2992                      .dwattr $C$DW$270, DW_AT_TI_symbol_name("_pInVec")
    2993                      .dwattr $C$DW$270, DW_AT_type(*$C$DW$T$209)
    2994                      .dwattr $C$DW$270, DW_AT_location[DW_OP_reg12]
    2995              ;* AR5   assigned to _pOutVec
    2996              $C$DW$271       .dwtag  DW_TAG_variable, DW_AT_name("pOutVec")
    2997                      .dwattr $C$DW$271, DW_AT_TI_symbol_name("_pOutVec")
    2998                      .dwattr $C$DW$271, DW_AT_type(*$C$DW$T$200)
    2999                      .dwattr $C$DW$271, DW_AT_location[DW_OP_reg14]
    3000              ;* AR7   assigned to _alpha_sf
    3001              $C$DW$272       .dwtag  DW_TAG_variable, DW_AT_name("alpha_sf")
    3002                      .dwattr $C$DW$272, DW_AT_TI_symbol_name("_alpha_sf")
    3003                      .dwattr $C$DW$272, DW_AT_type(*$C$DW$T$32)
    3004                      .dwattr $C$DW$272, DW_AT_location[DW_OP_reg18]
    3005              ;* AR0   assigned to _beta_sf
    3006              $C$DW$273       .dwtag  DW_TAG_variable, DW_AT_name("beta_sf")
    3007                      .dwattr $C$DW$273, DW_AT_TI_symbol_name("_beta_sf")
    3008                      .dwattr $C$DW$273, DW_AT_type(*$C$DW$T$32)
    3009                      .dwattr $C$DW$273, DW_AT_location[DW_OP_reg4]
    3010              ;* AR4   assigned to _pInVec
    3011              $C$DW$274       .dwtag  DW_TAG_variable, DW_AT_name("pInVec")
    3012                      .dwattr $C$DW$274, DW_AT_TI_symbol_name("_pInVec")
    3013                      .dwattr $C$DW$274, DW_AT_type(*$C$DW$T$209)
    3014                      .dwattr $C$DW$274, DW_AT_location[DW_OP_reg12]
    3015              ;* AR5   assigned to _pOutVec
    3016              $C$DW$275       .dwtag  DW_TAG_variable, DW_AT_name("pOutVec")
    3017                      .dwattr $C$DW$275, DW_AT_TI_symbol_name("_pOutVec")
    3018                      .dwattr $C$DW$275, DW_AT_type(*$C$DW$T$200)
    3019                      .dwattr $C$DW$275, DW_AT_location[DW_OP_reg14]
    3020              ;* AR7   assigned to _alpha_sf
    3021              $C$DW$276       .dwtag  DW_TAG_variable, DW_AT_name("alpha_sf")
    3022                      .dwattr $C$DW$276, DW_AT_TI_symbol_name("_alpha_sf")
    3023                      .dwattr $C$DW$276, DW_AT_type(*$C$DW$T$32)
    3024                      .dwattr $C$DW$276, DW_AT_location[DW_OP_reg18]
    3025              ;* AR0   assigned to _beta_sf
    3026              $C$DW$277       .dwtag  DW_TAG_variable, DW_AT_name("beta_sf")
    3027                      .dwattr $C$DW$277, DW_AT_TI_symbol_name("_beta_sf")
    3028                      .dwattr $C$DW$277, DW_AT_type(*$C$DW$T$32)
    3029                      .dwattr $C$DW$277, DW_AT_location[DW_OP_reg4]
    3030              ;* AR4   assigned to _obj
    3031              $C$DW$278       .dwtag  DW_TAG_variable, DW_AT_name("obj")
    3032                      .dwattr $C$DW$278, DW_AT_TI_symbol_name("_obj")
    3033                      .dwattr $C$DW$278, DW_AT_type(*$C$DW$T$216)
    3034                      .dwattr $C$DW$278, DW_AT_location[DW_OP_reg12]
    3035              ;* AR6   assigned to _sinTh
    3036              $C$DW$279       .dwtag  DW_TAG_variable, DW_AT_name("sinTh")
    3037                      .dwattr $C$DW$279, DW_AT_TI_symbol_name("_sinTh")
    3038                      .dwattr $C$DW$279, DW_AT_type(*$C$DW$T$32)
    3039                      .dwattr $C$DW$279, DW_AT_location[DW_OP_reg16]
    3040              ;* AR7   assigned to _cosTh
    3041              $C$DW$280       .dwtag  DW_TAG_variable, DW_AT_name("cosTh")
    3042                      .dwattr $C$DW$280, DW_AT_TI_symbol_name("_cosTh")
TMS320C2000 Assembler PC v6.2.5 Tue Jun 27 16:56:14 2017

Tools Copyright (c) 1996-2014 Texas Instruments Incorporated
C:\Users\wmj\AppData\Local\Temp\1139610                              PAGE   59

    3043                      .dwattr $C$DW$280, DW_AT_type(*$C$DW$T$32)
    3044                      .dwattr $C$DW$280, DW_AT_location[DW_OP_reg18]
    3045              ;* AR0   assigned to _value_0
    3046              $C$DW$281       .dwtag  DW_TAG_variable, DW_AT_name("value_0")
    3047                      .dwattr $C$DW$281, DW_AT_TI_symbol_name("_value_0")
    3048                      .dwattr $C$DW$281, DW_AT_type(*$C$DW$T$32)
    3049                      .dwattr $C$DW$281, DW_AT_location[DW_OP_reg4]
    3050              ;* AR5   assigned to _value_1
    3051              $C$DW$282       .dwtag  DW_TAG_variable, DW_AT_name("value_1")
    3052                      .dwattr $C$DW$282, DW_AT_TI_symbol_name("_value_1")
    3053                      .dwattr $C$DW$282, DW_AT_type(*$C$DW$T$32)
    3054                      .dwattr $C$DW$282, DW_AT_location[DW_OP_reg14]
    3055              ;* AR7   assigned to _outMax
    3056              $C$DW$283       .dwtag  DW_TAG_variable, DW_AT_name("outMax")
    3057                      .dwattr $C$DW$283, DW_AT_TI_symbol_name("_outMax")
    3058                      .dwattr $C$DW$283, DW_AT_type(*$C$DW$T$32)
    3059                      .dwattr $C$DW$283, DW_AT_location[DW_OP_reg18]
    3060              ;* AR4   assigned to _obj
    3061              $C$DW$284       .dwtag  DW_TAG_variable, DW_AT_name("obj")
    3062                      .dwattr $C$DW$284, DW_AT_TI_symbol_name("_obj")
    3063                      .dwattr $C$DW$284, DW_AT_type(*$C$DW$T$217)
    3064                      .dwattr $C$DW$284, DW_AT_location[DW_OP_reg12]
    3065              ;* AR7   assigned to _refValue
    3066              $C$DW$285       .dwtag  DW_TAG_variable, DW_AT_name("refValue")
    3067                      .dwattr $C$DW$285, DW_AT_TI_symbol_name("_refValue")
    3068                      .dwattr $C$DW$285, DW_AT_type(*$C$DW$T$32)
    3069                      .dwattr $C$DW$285, DW_AT_location[DW_OP_reg18]
    3070              ;* AR5   assigned to _obj
    3071              $C$DW$286       .dwtag  DW_TAG_variable, DW_AT_name("obj")
    3072                      .dwattr $C$DW$286, DW_AT_TI_symbol_name("_obj")
    3073                      .dwattr $C$DW$286, DW_AT_type(*$C$DW$T$217)
    3074                      .dwattr $C$DW$286, DW_AT_location[DW_OP_reg14]
    3075              ;* AR2   assigned to _Up
    3076              $C$DW$287       .dwtag  DW_TAG_variable, DW_AT_name("Up")
    3077                      .dwattr $C$DW$287, DW_AT_TI_symbol_name("_Up")
    3078                      .dwattr $C$DW$287, DW_AT_type(*$C$DW$T$32)
    3079                      .dwattr $C$DW$287, DW_AT_location[DW_OP_reg8]
    3080              ;* AL    assigned to _Ui
    3081              $C$DW$288       .dwtag  DW_TAG_variable, DW_AT_name("Ui")
    3082                      .dwattr $C$DW$288, DW_AT_TI_symbol_name("_Ui")
    3083                      .dwattr $C$DW$288, DW_AT_type(*$C$DW$T$32)
    3084                      .dwattr $C$DW$288, DW_AT_location[DW_OP_reg0]
    3085              ;* AR4   assigned to _obj
    3086              $C$DW$289       .dwtag  DW_TAG_variable, DW_AT_name("obj")
    3087                      .dwattr $C$DW$289, DW_AT_TI_symbol_name("_obj")
    3088                      .dwattr $C$DW$289, DW_AT_type(*$C$DW$T$217)
    3089                      .dwattr $C$DW$289, DW_AT_location[DW_OP_reg12]
    3090              ;* AR7   assigned to _refValue
    3091              $C$DW$290       .dwtag  DW_TAG_variable, DW_AT_name("refValue")
    3092                      .dwattr $C$DW$290, DW_AT_TI_symbol_name("_refValue")
    3093                      .dwattr $C$DW$290, DW_AT_type(*$C$DW$T$32)
    3094                      .dwattr $C$DW$290, DW_AT_location[DW_OP_reg18]
    3095              ;* AR5   assigned to _obj
    3096              $C$DW$291       .dwtag  DW_TAG_variable, DW_AT_name("obj")
    3097                      .dwattr $C$DW$291, DW_AT_TI_symbol_name("_obj")
TMS320C2000 Assembler PC v6.2.5 Tue Jun 27 16:56:14 2017

Tools Copyright (c) 1996-2014 Texas Instruments Incorporated
C:\Users\wmj\AppData\Local\Temp\1139610                              PAGE   60

    3098                      .dwattr $C$DW$291, DW_AT_type(*$C$DW$T$217)
    3099                      .dwattr $C$DW$291, DW_AT_location[DW_OP_reg14]
    3100              $C$DW$292       .dwtag  DW_TAG_variable, DW_AT_name("Up")
    3101                      .dwattr $C$DW$292, DW_AT_TI_symbol_name("_Up")
    3102                      .dwattr $C$DW$292, DW_AT_type(*$C$DW$T$32)
    3103                      .dwattr $C$DW$292, DW_AT_location[DW_OP_breg20 -18]
    3104              ;* AL    assigned to _Ui
    3105              $C$DW$293       .dwtag  DW_TAG_variable, DW_AT_name("Ui")
    3106                      .dwattr $C$DW$293, DW_AT_TI_symbol_name("_Ui")
    3107                      .dwattr $C$DW$293, DW_AT_type(*$C$DW$T$32)
    3108                      .dwattr $C$DW$293, DW_AT_location[DW_OP_reg0]
    3109              ;* AR4   assigned to _obj
    3110              $C$DW$294       .dwtag  DW_TAG_variable, DW_AT_name("obj")
    3111                      .dwattr $C$DW$294, DW_AT_TI_symbol_name("_obj")
    3112                      .dwattr $C$DW$294, DW_AT_type(*$C$DW$T$217)
    3113                      .dwattr $C$DW$294, DW_AT_location[DW_OP_reg12]
    3114              ;* AR4   assigned to _obj
    3115              $C$DW$295       .dwtag  DW_TAG_variable, DW_AT_name("obj")
    3116                      .dwattr $C$DW$295, DW_AT_TI_symbol_name("_obj")
    3117                      .dwattr $C$DW$295, DW_AT_type(*$C$DW$T$217)
    3118                      .dwattr $C$DW$295, DW_AT_location[DW_OP_reg12]
    3119              ;* AR6   assigned to _Up
    3120              $C$DW$296       .dwtag  DW_TAG_variable, DW_AT_name("Up")
    3121                      .dwattr $C$DW$296, DW_AT_TI_symbol_name("_Up")
    3122                      .dwattr $C$DW$296, DW_AT_type(*$C$DW$T$32)
    3123                      .dwattr $C$DW$296, DW_AT_location[DW_OP_reg16]
    3124              ;* AL    assigned to _Ui
    3125              $C$DW$297       .dwtag  DW_TAG_variable, DW_AT_name("Ui")
    3126                      .dwattr $C$DW$297, DW_AT_TI_symbol_name("_Ui")
    3127                      .dwattr $C$DW$297, DW_AT_type(*$C$DW$T$32)
    3128                      .dwattr $C$DW$297, DW_AT_location[DW_OP_reg0]
    3129              ;* XT    assigned to _angleDelta_pu
    3130              $C$DW$298       .dwtag  DW_TAG_variable, DW_AT_name("angleDelta_pu")
    3131                      .dwattr $C$DW$298, DW_AT_TI_symbol_name("_angleDelta_pu")
    3132                      .dwattr $C$DW$298, DW_AT_type(*$C$DW$T$32)
    3133                      .dwattr $C$DW$298, DW_AT_location[DW_OP_reg21]
    3134              ;* AR1   assigned to _angleComp_pu
    3135              $C$DW$299       .dwtag  DW_TAG_variable, DW_AT_name("angleComp_pu")
    3136                      .dwattr $C$DW$299, DW_AT_TI_symbol_name("_angleComp_pu")
    3137                      .dwattr $C$DW$299, DW_AT_type(*$C$DW$T$32)
    3138                      .dwattr $C$DW$299, DW_AT_location[DW_OP_reg6]
    3139              ;* AR4   assigned to _obj
    3140              $C$DW$300       .dwtag  DW_TAG_variable, DW_AT_name("obj")
    3141                      .dwattr $C$DW$300, DW_AT_TI_symbol_name("_obj")
    3142                      .dwattr $C$DW$300, DW_AT_type(*$C$DW$T$196)
    3143                      .dwattr $C$DW$300, DW_AT_location[DW_OP_reg12]
    3144              ;* AR7   assigned to _sinTh
    3145              $C$DW$301       .dwtag  DW_TAG_variable, DW_AT_name("sinTh")
    3146                      .dwattr $C$DW$301, DW_AT_TI_symbol_name("_sinTh")
    3147                      .dwattr $C$DW$301, DW_AT_type(*$C$DW$T$32)
    3148                      .dwattr $C$DW$301, DW_AT_location[DW_OP_reg18]
    3149              ;* AR6   assigned to _cosTh
    3150              $C$DW$302       .dwtag  DW_TAG_variable, DW_AT_name("cosTh")
    3151                      .dwattr $C$DW$302, DW_AT_TI_symbol_name("_cosTh")
    3152                      .dwattr $C$DW$302, DW_AT_type(*$C$DW$T$32)
TMS320C2000 Assembler PC v6.2.5 Tue Jun 27 16:56:14 2017

Tools Copyright (c) 1996-2014 Texas Instruments Incorporated
C:\Users\wmj\AppData\Local\Temp\1139610                              PAGE   61

    3153                      .dwattr $C$DW$302, DW_AT_location[DW_OP_reg16]
    3154              ;* AR0   assigned to _value_0
    3155              $C$DW$303       .dwtag  DW_TAG_variable, DW_AT_name("value_0")
    3156                      .dwattr $C$DW$303, DW_AT_TI_symbol_name("_value_0")
    3157                      .dwattr $C$DW$303, DW_AT_type(*$C$DW$T$32)
    3158                      .dwattr $C$DW$303, DW_AT_location[DW_OP_reg4]
    3159              ;* AR5   assigned to _value_1
    3160              $C$DW$304       .dwtag  DW_TAG_variable, DW_AT_name("value_1")
    3161                      .dwattr $C$DW$304, DW_AT_TI_symbol_name("_value_1")
    3162                      .dwattr $C$DW$304, DW_AT_type(*$C$DW$T$32)
    3163                      .dwattr $C$DW$304, DW_AT_location[DW_OP_reg14]
    3164              ;* AR6   assigned to _pT
    3165              $C$DW$305       .dwtag  DW_TAG_variable, DW_AT_name("pT")
    3166                      .dwattr $C$DW$305, DW_AT_TI_symbol_name("_pT")
    3167                      .dwattr $C$DW$305, DW_AT_type(*$C$DW$T$210)
    3168                      .dwattr $C$DW$305, DW_AT_location[DW_OP_reg16]
    3169              ;* AR0   assigned to _Va
    3170              $C$DW$306       .dwtag  DW_TAG_variable, DW_AT_name("Va")
    3171                      .dwattr $C$DW$306, DW_AT_TI_symbol_name("_Va")
    3172                      .dwattr $C$DW$306, DW_AT_type(*$C$DW$T$32)
    3173                      .dwattr $C$DW$306, DW_AT_location[DW_OP_reg4]
    3174              ;* AR5   assigned to _Vb
    3175              $C$DW$307       .dwtag  DW_TAG_variable, DW_AT_name("Vb")
    3176                      .dwattr $C$DW$307, DW_AT_TI_symbol_name("_Vb")
    3177                      .dwattr $C$DW$307, DW_AT_type(*$C$DW$T$32)
    3178                      .dwattr $C$DW$307, DW_AT_location[DW_OP_reg14]
    3179              ;* AR7   assigned to _Vc
    3180              $C$DW$308       .dwtag  DW_TAG_variable, DW_AT_name("Vc")
    3181                      .dwattr $C$DW$308, DW_AT_TI_symbol_name("_Vc")
    3182                      .dwattr $C$DW$308, DW_AT_type(*$C$DW$T$32)
    3183                      .dwattr $C$DW$308, DW_AT_location[DW_OP_reg18]
    3184              ;* AR7   assigned to _Va_tmp
    3185              $C$DW$309       .dwtag  DW_TAG_variable, DW_AT_name("Va_tmp")
    3186                      .dwattr $C$DW$309, DW_AT_TI_symbol_name("_Va_tmp")
    3187                      .dwattr $C$DW$309, DW_AT_type(*$C$DW$T$32)
    3188                      .dwattr $C$DW$309, DW_AT_location[DW_OP_reg18]
    3189              ;* AL    assigned to _Vb_tmp
    3190              $C$DW$310       .dwtag  DW_TAG_variable, DW_AT_name("Vb_tmp")
    3191                      .dwattr $C$DW$310, DW_AT_TI_symbol_name("_Vb_tmp")
    3192                      .dwattr $C$DW$310, DW_AT_type(*$C$DW$T$32)
    3193                      .dwattr $C$DW$310, DW_AT_location[DW_OP_reg0]
    3194              $C$DW$311       .dwtag  DW_TAG_variable, DW_AT_name("angle_pu")
    3195                      .dwattr $C$DW$311, DW_AT_TI_symbol_name("_angle_pu")
    3196                      .dwattr $C$DW$311, DW_AT_type(*$C$DW$T$32)
    3197                      .dwattr $C$DW$311, DW_AT_location[DW_OP_breg20 -20]
    3198              ;* AR1   assigned to _refValue
    3199              $C$DW$312       .dwtag  DW_TAG_variable, DW_AT_name("refValue")
    3200                      .dwattr $C$DW$312, DW_AT_TI_symbol_name("_refValue")
    3201                      .dwattr $C$DW$312, DW_AT_type(*$C$DW$T$32)
    3202                      .dwattr $C$DW$312, DW_AT_location[DW_OP_reg6]
    3203              ;* AR6   assigned to _fbackValue
    3204              $C$DW$313       .dwtag  DW_TAG_variable, DW_AT_name("fbackValue")
    3205                      .dwattr $C$DW$313, DW_AT_TI_symbol_name("_fbackValue")
    3206                      .dwattr $C$DW$313, DW_AT_type(*$C$DW$T$32)
    3207                      .dwattr $C$DW$313, DW_AT_location[DW_OP_reg16]
TMS320C2000 Assembler PC v6.2.5 Tue Jun 27 16:56:14 2017

Tools Copyright (c) 1996-2014 Texas Instruments Incorporated
C:\Users\wmj\AppData\Local\Temp\1139610                              PAGE   62

    3208              ;* AR7   assigned to _outMax
    3209              $C$DW$314       .dwtag  DW_TAG_variable, DW_AT_name("outMax")
    3210                      .dwattr $C$DW$314, DW_AT_TI_symbol_name("_outMax")
    3211                      .dwattr $C$DW$314, DW_AT_type(*$C$DW$T$32)
    3212                      .dwattr $C$DW$314, DW_AT_location[DW_OP_reg18]
    3213              ;* AL    assigned to _outMin
    3214              $C$DW$315       .dwtag  DW_TAG_variable, DW_AT_name("outMin")
    3215                      .dwattr $C$DW$315, DW_AT_TI_symbol_name("_outMin")
    3216                      .dwattr $C$DW$315, DW_AT_type(*$C$DW$T$32)
    3217                      .dwattr $C$DW$315, DW_AT_location[DW_OP_reg0]
    3218              ;* AR1   assigned to _Kp_Id
    3219              $C$DW$316       .dwtag  DW_TAG_variable, DW_AT_name("Kp_Id")
    3220                      .dwattr $C$DW$316, DW_AT_TI_symbol_name("_Kp_Id")
    3221                      .dwattr $C$DW$316, DW_AT_type(*$C$DW$T$32)
    3222                      .dwattr $C$DW$316, DW_AT_location[DW_OP_reg6]
    3223              $C$DW$317       .dwtag  DW_TAG_variable, DW_AT_name("Kp_Iq")
    3224                      .dwattr $C$DW$317, DW_AT_TI_symbol_name("_Kp_Iq")
    3225                      .dwattr $C$DW$317, DW_AT_type(*$C$DW$T$32)
    3226                      .dwattr $C$DW$317, DW_AT_location[DW_OP_breg20 -22]
    3227              $C$DW$318       .dwtag  DW_TAG_variable, DW_AT_name("refValue")
    3228                      .dwattr $C$DW$318, DW_AT_TI_symbol_name("_refValue")
    3229                      .dwattr $C$DW$318, DW_AT_type(*$C$DW$T$32)
    3230                      .dwattr $C$DW$318, DW_AT_location[DW_OP_breg20 -6]
    3231              $C$DW$319       .dwtag  DW_TAG_variable, DW_AT_name("maxVsMag")
    3232                      .dwattr $C$DW$319, DW_AT_TI_symbol_name("_maxVsMag")
    3233                      .dwattr $C$DW$319, DW_AT_type(*$C$DW$T$32)
    3234                      .dwattr $C$DW$319, DW_AT_location[DW_OP_breg20 -24]
    3235              ;* AR4   assigned to _pInVec
    3236              $C$DW$320       .dwtag  DW_TAG_variable, DW_AT_name("pInVec")
    3237                      .dwattr $C$DW$320, DW_AT_TI_symbol_name("_pInVec")
    3238                      .dwattr $C$DW$320, DW_AT_type(*$C$DW$T$209)
    3239                      .dwattr $C$DW$320, DW_AT_location[DW_OP_reg12]
    3240              ;* AR5   assigned to _pOutVec
    3241              $C$DW$321       .dwtag  DW_TAG_variable, DW_AT_name("pOutVec")
    3242                      .dwattr $C$DW$321, DW_AT_TI_symbol_name("_pOutVec")
    3243                      .dwattr $C$DW$321, DW_AT_type(*$C$DW$T$200)
    3244                      .dwattr $C$DW$321, DW_AT_location[DW_OP_reg14]
    3245              ;* AR7   assigned to _alpha_sf
    3246              $C$DW$322       .dwtag  DW_TAG_variable, DW_AT_name("alpha_sf")
    3247                      .dwattr $C$DW$322, DW_AT_TI_symbol_name("_alpha_sf")
    3248                      .dwattr $C$DW$322, DW_AT_type(*$C$DW$T$32)
    3249                      .dwattr $C$DW$322, DW_AT_location[DW_OP_reg18]
    3250              ;* AR0   assigned to _beta_sf
    3251              $C$DW$323       .dwtag  DW_TAG_variable, DW_AT_name("beta_sf")
    3252                      .dwattr $C$DW$323, DW_AT_TI_symbol_name("_beta_sf")
    3253                      .dwattr $C$DW$323, DW_AT_type(*$C$DW$T$32)
    3254                      .dwattr $C$DW$323, DW_AT_location[DW_OP_reg4]
    3255              ;* AR4   assigned to _pInVec
    3256              $C$DW$324       .dwtag  DW_TAG_variable, DW_AT_name("pInVec")
    3257                      .dwattr $C$DW$324, DW_AT_TI_symbol_name("_pInVec")
    3258                      .dwattr $C$DW$324, DW_AT_type(*$C$DW$T$209)
    3259                      .dwattr $C$DW$324, DW_AT_location[DW_OP_reg12]
    3260              ;* AR5   assigned to _pOutVec
    3261              $C$DW$325       .dwtag  DW_TAG_variable, DW_AT_name("pOutVec")
    3262                      .dwattr $C$DW$325, DW_AT_TI_symbol_name("_pOutVec")
TMS320C2000 Assembler PC v6.2.5 Tue Jun 27 16:56:14 2017

Tools Copyright (c) 1996-2014 Texas Instruments Incorporated
C:\Users\wmj\AppData\Local\Temp\1139610                              PAGE   63

    3263                      .dwattr $C$DW$325, DW_AT_type(*$C$DW$T$200)
    3264                      .dwattr $C$DW$325, DW_AT_location[DW_OP_reg14]
    3265              ;* AR7   assigned to _alpha_sf
    3266              $C$DW$326       .dwtag  DW_TAG_variable, DW_AT_name("alpha_sf")
    3267                      .dwattr $C$DW$326, DW_AT_TI_symbol_name("_alpha_sf")
    3268                      .dwattr $C$DW$326, DW_AT_type(*$C$DW$T$32)
    3269                      .dwattr $C$DW$326, DW_AT_location[DW_OP_reg18]
    3270              ;* AR0   assigned to _beta_sf
    3271              $C$DW$327       .dwtag  DW_TAG_variable, DW_AT_name("beta_sf")
    3272                      .dwattr $C$DW$327, DW_AT_TI_symbol_name("_beta_sf")
    3273                      .dwattr $C$DW$327, DW_AT_type(*$C$DW$T$32)
    3274                      .dwattr $C$DW$327, DW_AT_location[DW_OP_reg4]
    3275              ;* AR4   assigned to _obj
    3276              $C$DW$328       .dwtag  DW_TAG_variable, DW_AT_name("obj")
    3277                      .dwattr $C$DW$328, DW_AT_TI_symbol_name("_obj")
    3278                      .dwattr $C$DW$328, DW_AT_type(*$C$DW$T$216)
    3279                      .dwattr $C$DW$328, DW_AT_location[DW_OP_reg12]
    3280              ;* AR6   assigned to _sinTh
    3281              $C$DW$329       .dwtag  DW_TAG_variable, DW_AT_name("sinTh")
    3282                      .dwattr $C$DW$329, DW_AT_TI_symbol_name("_sinTh")
    3283                      .dwattr $C$DW$329, DW_AT_type(*$C$DW$T$32)
    3284                      .dwattr $C$DW$329, DW_AT_location[DW_OP_reg16]
    3285              ;* AR7   assigned to _cosTh
    3286              $C$DW$330       .dwtag  DW_TAG_variable, DW_AT_name("cosTh")
    3287                      .dwattr $C$DW$330, DW_AT_TI_symbol_name("_cosTh")
    3288                      .dwattr $C$DW$330, DW_AT_type(*$C$DW$T$32)
    3289                      .dwattr $C$DW$330, DW_AT_location[DW_OP_reg18]
    3290              ;* AR0   assigned to _value_0
    3291              $C$DW$331       .dwtag  DW_TAG_variable, DW_AT_name("value_0")
    3292                      .dwattr $C$DW$331, DW_AT_TI_symbol_name("_value_0")
    3293                      .dwattr $C$DW$331, DW_AT_type(*$C$DW$T$32)
    3294                      .dwattr $C$DW$331, DW_AT_location[DW_OP_reg4]
    3295              ;* AR5   assigned to _value_1
    3296              $C$DW$332       .dwtag  DW_TAG_variable, DW_AT_name("value_1")
    3297                      .dwattr $C$DW$332, DW_AT_TI_symbol_name("_value_1")
    3298                      .dwattr $C$DW$332, DW_AT_type(*$C$DW$T$32)
    3299                      .dwattr $C$DW$332, DW_AT_location[DW_OP_reg14]
    3300              ;* AR7   assigned to _outMax
    3301              $C$DW$333       .dwtag  DW_TAG_variable, DW_AT_name("outMax")
    3302                      .dwattr $C$DW$333, DW_AT_TI_symbol_name("_outMax")
    3303                      .dwattr $C$DW$333, DW_AT_type(*$C$DW$T$32)
    3304                      .dwattr $C$DW$333, DW_AT_location[DW_OP_reg18]
    3305              ;* AR4   assigned to _obj
    3306              $C$DW$334       .dwtag  DW_TAG_variable, DW_AT_name("obj")
    3307                      .dwattr $C$DW$334, DW_AT_TI_symbol_name("_obj")
    3308                      .dwattr $C$DW$334, DW_AT_type(*$C$DW$T$217)
    3309                      .dwattr $C$DW$334, DW_AT_location[DW_OP_reg12]
    3310              ;* AR7   assigned to _refValue
    3311              $C$DW$335       .dwtag  DW_TAG_variable, DW_AT_name("refValue")
    3312                      .dwattr $C$DW$335, DW_AT_TI_symbol_name("_refValue")
    3313                      .dwattr $C$DW$335, DW_AT_type(*$C$DW$T$32)
    3314                      .dwattr $C$DW$335, DW_AT_location[DW_OP_reg18]
    3315              ;* AR5   assigned to _obj
    3316              $C$DW$336       .dwtag  DW_TAG_variable, DW_AT_name("obj")
    3317                      .dwattr $C$DW$336, DW_AT_TI_symbol_name("_obj")
TMS320C2000 Assembler PC v6.2.5 Tue Jun 27 16:56:14 2017

Tools Copyright (c) 1996-2014 Texas Instruments Incorporated
C:\Users\wmj\AppData\Local\Temp\1139610                              PAGE   64

    3318                      .dwattr $C$DW$336, DW_AT_type(*$C$DW$T$217)
    3319                      .dwattr $C$DW$336, DW_AT_location[DW_OP_reg14]
    3320              ;* AR2   assigned to _Up
    3321              $C$DW$337       .dwtag  DW_TAG_variable, DW_AT_name("Up")
    3322                      .dwattr $C$DW$337, DW_AT_TI_symbol_name("_Up")
    3323                      .dwattr $C$DW$337, DW_AT_type(*$C$DW$T$32)
    3324                      .dwattr $C$DW$337, DW_AT_location[DW_OP_reg8]
    3325              ;* AL    assigned to _Ui
    3326              $C$DW$338       .dwtag  DW_TAG_variable, DW_AT_name("Ui")
    3327                      .dwattr $C$DW$338, DW_AT_TI_symbol_name("_Ui")
    3328                      .dwattr $C$DW$338, DW_AT_type(*$C$DW$T$32)
    3329                      .dwattr $C$DW$338, DW_AT_location[DW_OP_reg0]
    3330              ;* AR4   assigned to _obj
    3331              $C$DW$339       .dwtag  DW_TAG_variable, DW_AT_name("obj")
    3332                      .dwattr $C$DW$339, DW_AT_TI_symbol_name("_obj")
    3333                      .dwattr $C$DW$339, DW_AT_type(*$C$DW$T$217)
    3334                      .dwattr $C$DW$339, DW_AT_location[DW_OP_reg12]
    3335              ;* AR6   assigned to _refValue
    3336              $C$DW$340       .dwtag  DW_TAG_variable, DW_AT_name("refValue")
    3337                      .dwattr $C$DW$340, DW_AT_TI_symbol_name("_refValue")
    3338                      .dwattr $C$DW$340, DW_AT_type(*$C$DW$T$32)
    3339                      .dwattr $C$DW$340, DW_AT_location[DW_OP_reg16]
    3340              ;* AR5   assigned to _obj
    3341              $C$DW$341       .dwtag  DW_TAG_variable, DW_AT_name("obj")
    3342                      .dwattr $C$DW$341, DW_AT_TI_symbol_name("_obj")
    3343                      .dwattr $C$DW$341, DW_AT_type(*$C$DW$T$217)
    3344                      .dwattr $C$DW$341, DW_AT_location[DW_OP_reg14]
    3345              $C$DW$342       .dwtag  DW_TAG_variable, DW_AT_name("Up")
    3346                      .dwattr $C$DW$342, DW_AT_TI_symbol_name("_Up")
    3347                      .dwattr $C$DW$342, DW_AT_type(*$C$DW$T$32)
    3348                      .dwattr $C$DW$342, DW_AT_location[DW_OP_breg20 -18]
    3349              ;* AL    assigned to _Ui
    3350              $C$DW$343       .dwtag  DW_TAG_variable, DW_AT_name("Ui")
    3351                      .dwattr $C$DW$343, DW_AT_TI_symbol_name("_Ui")
    3352                      .dwattr $C$DW$343, DW_AT_type(*$C$DW$T$32)
    3353                      .dwattr $C$DW$343, DW_AT_location[DW_OP_reg0]
    3354              ;* AR5   assigned to _obj
    3355              $C$DW$344       .dwtag  DW_TAG_variable, DW_AT_name("obj")
    3356                      .dwattr $C$DW$344, DW_AT_TI_symbol_name("_obj")
    3357                      .dwattr $C$DW$344, DW_AT_type(*$C$DW$T$217)
    3358                      .dwattr $C$DW$344, DW_AT_location[DW_OP_reg14]
    3359              ;* AR5   assigned to _obj
    3360              $C$DW$345       .dwtag  DW_TAG_variable, DW_AT_name("obj")
    3361                      .dwattr $C$DW$345, DW_AT_TI_symbol_name("_obj")
    3362                      .dwattr $C$DW$345, DW_AT_type(*$C$DW$T$217)
    3363                      .dwattr $C$DW$345, DW_AT_location[DW_OP_reg14]
    3364              ;* AR7   assigned to _Up
    3365              $C$DW$346       .dwtag  DW_TAG_variable, DW_AT_name("Up")
    3366                      .dwattr $C$DW$346, DW_AT_TI_symbol_name("_Up")
    3367                      .dwattr $C$DW$346, DW_AT_type(*$C$DW$T$32)
    3368                      .dwattr $C$DW$346, DW_AT_location[DW_OP_reg18]
    3369              ;* AL    assigned to _Ui
    3370              $C$DW$347       .dwtag  DW_TAG_variable, DW_AT_name("Ui")
    3371                      .dwattr $C$DW$347, DW_AT_TI_symbol_name("_Ui")
    3372                      .dwattr $C$DW$347, DW_AT_type(*$C$DW$T$32)
TMS320C2000 Assembler PC v6.2.5 Tue Jun 27 16:56:14 2017

Tools Copyright (c) 1996-2014 Texas Instruments Incorporated
C:\Users\wmj\AppData\Local\Temp\1139610                              PAGE   65

    3373                      .dwattr $C$DW$347, DW_AT_location[DW_OP_reg0]
    3374              ;* AR4   assigned to _obj
    3375              $C$DW$348       .dwtag  DW_TAG_variable, DW_AT_name("obj")
    3376                      .dwattr $C$DW$348, DW_AT_TI_symbol_name("_obj")
    3377                      .dwattr $C$DW$348, DW_AT_type(*$C$DW$T$196)
    3378                      .dwattr $C$DW$348, DW_AT_location[DW_OP_reg12]
    3379              ;* AR7   assigned to _sinTh
    3380              $C$DW$349       .dwtag  DW_TAG_variable, DW_AT_name("sinTh")
    3381                      .dwattr $C$DW$349, DW_AT_TI_symbol_name("_sinTh")
    3382                      .dwattr $C$DW$349, DW_AT_type(*$C$DW$T$32)
    3383                      .dwattr $C$DW$349, DW_AT_location[DW_OP_reg18]
    3384              ;* AR6   assigned to _cosTh
    3385              $C$DW$350       .dwtag  DW_TAG_variable, DW_AT_name("cosTh")
    3386                      .dwattr $C$DW$350, DW_AT_TI_symbol_name("_cosTh")
    3387                      .dwattr $C$DW$350, DW_AT_type(*$C$DW$T$32)
    3388                      .dwattr $C$DW$350, DW_AT_location[DW_OP_reg16]
    3389              ;* AR0   assigned to _value_0
    3390              $C$DW$351       .dwtag  DW_TAG_variable, DW_AT_name("value_0")
    3391                      .dwattr $C$DW$351, DW_AT_TI_symbol_name("_value_0")
    3392                      .dwattr $C$DW$351, DW_AT_type(*$C$DW$T$32)
    3393                      .dwattr $C$DW$351, DW_AT_location[DW_OP_reg4]
    3394              ;* AR5   assigned to _value_1
    3395              $C$DW$352       .dwtag  DW_TAG_variable, DW_AT_name("value_1")
    3396                      .dwattr $C$DW$352, DW_AT_TI_symbol_name("_value_1")
    3397                      .dwattr $C$DW$352, DW_AT_type(*$C$DW$T$32)
    3398                      .dwattr $C$DW$352, DW_AT_location[DW_OP_reg14]
    3399              ;* AR6   assigned to _pT
    3400              $C$DW$353       .dwtag  DW_TAG_variable, DW_AT_name("pT")
    3401                      .dwattr $C$DW$353, DW_AT_TI_symbol_name("_pT")
    3402                      .dwattr $C$DW$353, DW_AT_type(*$C$DW$T$210)
    3403                      .dwattr $C$DW$353, DW_AT_location[DW_OP_reg16]
    3404              ;* AR0   assigned to _Va
    3405              $C$DW$354       .dwtag  DW_TAG_variable, DW_AT_name("Va")
    3406                      .dwattr $C$DW$354, DW_AT_TI_symbol_name("_Va")
    3407                      .dwattr $C$DW$354, DW_AT_type(*$C$DW$T$32)
    3408                      .dwattr $C$DW$354, DW_AT_location[DW_OP_reg4]
    3409              ;* AR5   assigned to _Vb
    3410              $C$DW$355       .dwtag  DW_TAG_variable, DW_AT_name("Vb")
    3411                      .dwattr $C$DW$355, DW_AT_TI_symbol_name("_Vb")
    3412                      .dwattr $C$DW$355, DW_AT_type(*$C$DW$T$32)
    3413                      .dwattr $C$DW$355, DW_AT_location[DW_OP_reg14]
    3414              ;* AR7   assigned to _Vc
    3415              $C$DW$356       .dwtag  DW_TAG_variable, DW_AT_name("Vc")
    3416                      .dwattr $C$DW$356, DW_AT_TI_symbol_name("_Vc")
    3417                      .dwattr $C$DW$356, DW_AT_type(*$C$DW$T$32)
    3418                      .dwattr $C$DW$356, DW_AT_location[DW_OP_reg18]
    3419              ;* AR7   assigned to _Va_tmp
    3420              $C$DW$357       .dwtag  DW_TAG_variable, DW_AT_name("Va_tmp")
    3421                      .dwattr $C$DW$357, DW_AT_TI_symbol_name("_Va_tmp")
    3422                      .dwattr $C$DW$357, DW_AT_type(*$C$DW$T$32)
    3423                      .dwattr $C$DW$357, DW_AT_location[DW_OP_reg18]
    3424              ;* AL    assigned to _Vb_tmp
    3425              $C$DW$358       .dwtag  DW_TAG_variable, DW_AT_name("Vb_tmp")
    3426                      .dwattr $C$DW$358, DW_AT_TI_symbol_name("_Vb_tmp")
    3427                      .dwattr $C$DW$358, DW_AT_type(*$C$DW$T$32)
TMS320C2000 Assembler PC v6.2.5 Tue Jun 27 16:56:14 2017

Tools Copyright (c) 1996-2014 Texas Instruments Incorporated
C:\Users\wmj\AppData\Local\Temp\1139610                              PAGE   66

    3428                      .dwattr $C$DW$358, DW_AT_location[DW_OP_reg0]
    3429              ;* AR2   assigned to _angle_pu
    3430              $C$DW$359       .dwtag  DW_TAG_variable, DW_AT_name("angle_pu")
    3431                      .dwattr $C$DW$359, DW_AT_TI_symbol_name("_angle_pu")
    3432                      .dwattr $C$DW$359, DW_AT_type(*$C$DW$T$32)
    3433                      .dwattr $C$DW$359, DW_AT_location[DW_OP_reg8]
    3434              ;* AR1   assigned to _refValue
    3435              $C$DW$360       .dwtag  DW_TAG_variable, DW_AT_name("refValue")
    3436                      .dwattr $C$DW$360, DW_AT_TI_symbol_name("_refValue")
    3437                      .dwattr $C$DW$360, DW_AT_type(*$C$DW$T$32)
    3438                      .dwattr $C$DW$360, DW_AT_location[DW_OP_reg6]
    3439              ;* AR6   assigned to _fbackValue
    3440              $C$DW$361       .dwtag  DW_TAG_variable, DW_AT_name("fbackValue")
    3441                      .dwattr $C$DW$361, DW_AT_TI_symbol_name("_fbackValue")
    3442                      .dwattr $C$DW$361, DW_AT_type(*$C$DW$T$32)
    3443                      .dwattr $C$DW$361, DW_AT_location[DW_OP_reg16]
    3444              ;* AR7   assigned to _outMax
    3445              $C$DW$362       .dwtag  DW_TAG_variable, DW_AT_name("outMax")
    3446                      .dwattr $C$DW$362, DW_AT_TI_symbol_name("_outMax")
    3447                      .dwattr $C$DW$362, DW_AT_type(*$C$DW$T$32)
    3448                      .dwattr $C$DW$362, DW_AT_location[DW_OP_reg18]
    3449              ;* AL    assigned to _outMin
    3450              $C$DW$363       .dwtag  DW_TAG_variable, DW_AT_name("outMin")
    3451                      .dwattr $C$DW$363, DW_AT_TI_symbol_name("_outMin")
    3452                      .dwattr $C$DW$363, DW_AT_type(*$C$DW$T$32)
    3453                      .dwattr $C$DW$363, DW_AT_location[DW_OP_reg0]
    3454              ;* AR1   assigned to _Kp_Id
    3455              $C$DW$364       .dwtag  DW_TAG_variable, DW_AT_name("Kp_Id")
    3456                      .dwattr $C$DW$364, DW_AT_TI_symbol_name("_Kp_Id")
    3457                      .dwattr $C$DW$364, DW_AT_type(*$C$DW$T$32)
    3458                      .dwattr $C$DW$364, DW_AT_location[DW_OP_reg6]
    3459              $C$DW$365       .dwtag  DW_TAG_variable, DW_AT_name("Kp_Iq")
    3460                      .dwattr $C$DW$365, DW_AT_TI_symbol_name("_Kp_Iq")
    3461                      .dwattr $C$DW$365, DW_AT_type(*$C$DW$T$32)
    3462                      .dwattr $C$DW$365, DW_AT_location[DW_OP_breg20 -20]
    3463              $C$DW$366       .dwtag  DW_TAG_variable, DW_AT_name("refValue")
    3464                      .dwattr $C$DW$366, DW_AT_TI_symbol_name("_refValue")
    3465                      .dwattr $C$DW$366, DW_AT_type(*$C$DW$T$32)
    3466                      .dwattr $C$DW$366, DW_AT_location[DW_OP_breg20 -8]
    3467              ;* AR2   assigned to _maxVsMag
    3468              $C$DW$367       .dwtag  DW_TAG_variable, DW_AT_name("maxVsMag")
    3469                      .dwattr $C$DW$367, DW_AT_TI_symbol_name("_maxVsMag")
    3470                      .dwattr $C$DW$367, DW_AT_type(*$C$DW$T$32)
    3471                      .dwattr $C$DW$367, DW_AT_location[DW_OP_reg8]
    3472              ;* AR4   assigned to _obj
    3473              $C$DW$368       .dwtag  DW_TAG_variable, DW_AT_name("obj")
    3474                      .dwattr $C$DW$368, DW_AT_TI_symbol_name("_obj")
    3475                      .dwattr $C$DW$368, DW_AT_type(*$C$DW$T$177)
    3476                      .dwattr $C$DW$368, DW_AT_location[DW_OP_reg12]
    3477              ;* AL    assigned to _y0
    3478              $C$DW$369       .dwtag  DW_TAG_variable, DW_AT_name("y0")
    3479                      .dwattr $C$DW$369, DW_AT_TI_symbol_name("_y0")
    3480                      .dwattr $C$DW$369, DW_AT_type(*$C$DW$T$32)
    3481                      .dwattr $C$DW$369, DW_AT_location[DW_OP_reg0]
    3482              ;* AR6   assigned to _handle
TMS320C2000 Assembler PC v6.2.5 Tue Jun 27 16:56:14 2017

Tools Copyright (c) 1996-2014 Texas Instruments Incorporated
C:\Users\wmj\AppData\Local\Temp\1139610                              PAGE   67

    3483              $C$DW$370       .dwtag  DW_TAG_variable, DW_AT_name("handle")
    3484                      .dwattr $C$DW$370, DW_AT_TI_symbol_name("_handle")
    3485                      .dwattr $C$DW$370, DW_AT_type(*$C$DW$T$94)
    3486                      .dwattr $C$DW$370, DW_AT_location[DW_OP_reg16]
    3487              ;* AR7   assigned to _inputValue
    3488              $C$DW$371       .dwtag  DW_TAG_variable, DW_AT_name("inputValue")
    3489                      .dwattr $C$DW$371, DW_AT_TI_symbol_name("_inputValue")
    3490                      .dwattr $C$DW$371, DW_AT_type(*$C$DW$T$32)
    3491                      .dwattr $C$DW$371, DW_AT_location[DW_OP_reg18]
    3492              ;* AR4   assigned to _obj
    3493              $C$DW$372       .dwtag  DW_TAG_variable, DW_AT_name("obj")
    3494                      .dwattr $C$DW$372, DW_AT_TI_symbol_name("_obj")
    3495                      .dwattr $C$DW$372, DW_AT_type(*$C$DW$T$177)
    3496                      .dwattr $C$DW$372, DW_AT_location[DW_OP_reg12]
    3497              ;* AL    assigned to _y0
    3498              $C$DW$373       .dwtag  DW_TAG_variable, DW_AT_name("y0")
    3499                      .dwattr $C$DW$373, DW_AT_TI_symbol_name("_y0")
    3500                      .dwattr $C$DW$373, DW_AT_type(*$C$DW$T$32)
    3501                      .dwattr $C$DW$373, DW_AT_location[DW_OP_reg0]
    3502              ;* AR6   assigned to _handle
    3503              $C$DW$374       .dwtag  DW_TAG_variable, DW_AT_name("handle")
    3504                      .dwattr $C$DW$374, DW_AT_TI_symbol_name("_handle")
    3505                      .dwattr $C$DW$374, DW_AT_type(*$C$DW$T$94)
    3506                      .dwattr $C$DW$374, DW_AT_location[DW_OP_reg16]
    3507              ;* AR7   assigned to _inputValue
    3508              $C$DW$375       .dwtag  DW_TAG_variable, DW_AT_name("inputValue")
    3509                      .dwattr $C$DW$375, DW_AT_TI_symbol_name("_inputValue")
    3510                      .dwattr $C$DW$375, DW_AT_type(*$C$DW$T$32)
    3511                      .dwattr $C$DW$375, DW_AT_location[DW_OP_reg18]
    3512              ;* AR6   assigned to _ctrlState
    3513              $C$DW$376       .dwtag  DW_TAG_variable, DW_AT_name("ctrlState")
    3514                      .dwattr $C$DW$376, DW_AT_TI_symbol_name("_ctrlState")
    3515                      .dwattr $C$DW$376, DW_AT_type(*$C$DW$T$40)
    3516                      .dwattr $C$DW$376, DW_AT_location[DW_OP_reg16]
    3517              $C$DW$377       .dwtag  DW_TAG_variable, DW_AT_name("pPwmData")
    3518                      .dwattr $C$DW$377, DW_AT_TI_symbol_name("_pPwmData")
    3519                      .dwattr $C$DW$377, DW_AT_type(*$C$DW$T$193)
    3520                      .dwattr $C$DW$377, DW_AT_location[DW_OP_breg20 -26]
    3521              ;* AR2   assigned to _pAdcData
    3522              $C$DW$378       .dwtag  DW_TAG_variable, DW_AT_name("pAdcData")
    3523                      .dwattr $C$DW$378, DW_AT_TI_symbol_name("_pAdcData")
    3524                      .dwattr $C$DW$378, DW_AT_type(*$C$DW$T$181)
    3525                      .dwattr $C$DW$378, DW_AT_location[DW_OP_reg8]
    3526              ;* AR5   assigned to _halHandle
    3527              $C$DW$379       .dwtag  DW_TAG_variable, DW_AT_name("halHandle")
    3528                      .dwattr $C$DW$379, DW_AT_TI_symbol_name("_halHandle")
    3529                      .dwattr $C$DW$379, DW_AT_type(*$C$DW$T$189)
    3530                      .dwattr $C$DW$379, DW_AT_location[DW_OP_reg14]
    3531              ;* AR3   assigned to _handle
    3532              $C$DW$380       .dwtag  DW_TAG_variable, DW_AT_name("handle")
    3533                      .dwattr $C$DW$380, DW_AT_TI_symbol_name("_handle")
    3534                      .dwattr $C$DW$380, DW_AT_type(*$C$DW$T$175)
    3535                      .dwattr $C$DW$380, DW_AT_location[DW_OP_reg10]
    3536              ;* AR5   assigned to $O$R35
    3537              ;* AR5   assigned to $O$R34
TMS320C2000 Assembler PC v6.2.5 Tue Jun 27 16:56:14 2017

Tools Copyright (c) 1996-2014 Texas Instruments Incorporated
C:\Users\wmj\AppData\Local\Temp\1139610                              PAGE   68

    3538              ;* AL    assigned to $O$R30
    3539              ;* AR4   assigned to $O$R28
    3540              ;* AR4   assigned to $O$R25
    3541              ;* AL    assigned to $O$R21
    3542              ;* AR5   assigned to $O$R20
    3543              ;* AR5   assigned to $O$R18
    3544              ;* AR5   assigned to $O$R17
    3545              ;* AL    assigned to $O$R13
    3546              ;* AR4   assigned to $O$R11
    3547              ;* AR4   assigned to $O$R8
    3548              ;* AL    assigned to $O$R7
    3549              ;* AL    assigned to $O$R5
    3550              ;* AR5   assigned to $O$R4
    3551              ;* PL    assigned to _Vmax
    3552              $C$DW$381       .dwtag  DW_TAG_variable, DW_AT_name("Vmax")
    3553                      .dwattr $C$DW$381, DW_AT_TI_symbol_name("_Vmax")
    3554                      .dwattr $C$DW$381, DW_AT_type(*$C$DW$T$32)
    3555                      .dwattr $C$DW$381, DW_AT_location[DW_OP_reg2]
    3556              ;* XT    assigned to _Vmin
    3557              $C$DW$382       .dwtag  DW_TAG_variable, DW_AT_name("Vmin")
    3558                      .dwattr $C$DW$382, DW_AT_TI_symbol_name("_Vmin")
    3559                      .dwattr $C$DW$382, DW_AT_type(*$C$DW$T$32)
    3560                      .dwattr $C$DW$382, DW_AT_location[DW_OP_reg21]
    3561              ;* AR6   assigned to _fbackValue
    3562              $C$DW$383       .dwtag  DW_TAG_variable, DW_AT_name("fbackValue")
    3563                      .dwattr $C$DW$383, DW_AT_TI_symbol_name("_fbackValue")
    3564                      .dwattr $C$DW$383, DW_AT_type(*$C$DW$T$32)
    3565                      .dwattr $C$DW$383, DW_AT_location[DW_OP_reg16]
    3566              ;* AR2   assigned to _fbackValue
    3567              $C$DW$384       .dwtag  DW_TAG_variable, DW_AT_name("fbackValue")
    3568                      .dwattr $C$DW$384, DW_AT_TI_symbol_name("_fbackValue")
    3569                      .dwattr $C$DW$384, DW_AT_type(*$C$DW$T$32)
    3570                      .dwattr $C$DW$384, DW_AT_location[DW_OP_reg8]
    3571              ;* AR6   assigned to _outMax
    3572              $C$DW$385       .dwtag  DW_TAG_variable, DW_AT_name("outMax")
    3573                      .dwattr $C$DW$385, DW_AT_TI_symbol_name("_outMax")
    3574                      .dwattr $C$DW$385, DW_AT_type(*$C$DW$T$32)
    3575                      .dwattr $C$DW$385, DW_AT_location[DW_OP_reg16]
    3576              ;* PL    assigned to _Vmax
    3577              $C$DW$386       .dwtag  DW_TAG_variable, DW_AT_name("Vmax")
    3578                      .dwattr $C$DW$386, DW_AT_TI_symbol_name("_Vmax")
    3579                      .dwattr $C$DW$386, DW_AT_type(*$C$DW$T$32)
    3580                      .dwattr $C$DW$386, DW_AT_location[DW_OP_reg2]
    3581              ;* XT    assigned to _Vmin
    3582              $C$DW$387       .dwtag  DW_TAG_variable, DW_AT_name("Vmin")
    3583                      .dwattr $C$DW$387, DW_AT_TI_symbol_name("_Vmin")
    3584                      .dwattr $C$DW$387, DW_AT_type(*$C$DW$T$32)
    3585                      .dwattr $C$DW$387, DW_AT_location[DW_OP_reg21]
    3586              ;* AR7   assigned to _fbackValue
    3587              $C$DW$388       .dwtag  DW_TAG_variable, DW_AT_name("fbackValue")
    3588                      .dwattr $C$DW$388, DW_AT_TI_symbol_name("_fbackValue")
    3589                      .dwattr $C$DW$388, DW_AT_type(*$C$DW$T$32)
    3590                      .dwattr $C$DW$388, DW_AT_location[DW_OP_reg18]
    3591              ;* AR6   assigned to _fbackValue
    3592              $C$DW$389       .dwtag  DW_TAG_variable, DW_AT_name("fbackValue")
TMS320C2000 Assembler PC v6.2.5 Tue Jun 27 16:56:14 2017

Tools Copyright (c) 1996-2014 Texas Instruments Incorporated
C:\Users\wmj\AppData\Local\Temp\1139610                              PAGE   69

    3593                      .dwattr $C$DW$389, DW_AT_TI_symbol_name("_fbackValue")
    3594                      .dwattr $C$DW$389, DW_AT_type(*$C$DW$T$32)
    3595                      .dwattr $C$DW$389, DW_AT_location[DW_OP_reg16]
    3596              ;* AR3   assigned to _cnt
    3597              $C$DW$390       .dwtag  DW_TAG_variable, DW_AT_name("cnt")
    3598                      .dwattr $C$DW$390, DW_AT_TI_symbol_name("_cnt")
    3599                      .dwattr $C$DW$390, DW_AT_type(*$C$DW$T$33)
    3600                      .dwattr $C$DW$390, DW_AT_location[DW_OP_reg10]
    3601              ;* AR3   assigned to _cnt
    3602              $C$DW$391       .dwtag  DW_TAG_variable, DW_AT_name("cnt")
    3603                      .dwattr $C$DW$391, DW_AT_TI_symbol_name("_cnt")
    3604                      .dwattr $C$DW$391, DW_AT_type(*$C$DW$T$33)
    3605                      .dwattr $C$DW$391, DW_AT_location[DW_OP_reg10]
    3606              ;* AR1   assigned to $O$K117
    3607              ;* AR1   assigned to $O$K117
    3608              ;* AR2   assigned to $O$K331
    3609              $C$DW$392       .dwtag  DW_TAG_variable, DW_AT_name("phasor")
    3610                      .dwattr $C$DW$392, DW_AT_TI_symbol_name("_phasor")
    3611                      .dwattr $C$DW$392, DW_AT_type(*$C$DW$T$69)
    3612                      .dwattr $C$DW$392, DW_AT_location[DW_OP_breg20 -12]
    3613              $C$DW$393       .dwtag  DW_TAG_variable, DW_AT_name("phasor")
    3614                      .dwattr $C$DW$393, DW_AT_TI_symbol_name("_phasor")
    3615                      .dwattr $C$DW$393, DW_AT_type(*$C$DW$T$69)
    3616                      .dwattr $C$DW$393, DW_AT_location[DW_OP_breg20 -16]
    3617                      .dwcfi  cfa_offset, -2
    3618                      .dwcfi  save_reg_to_mem, 26, 0
    3619                      .dwcfi  save_reg_to_reg, 78, 26
    3620 0000000a B2BD          MOVL      *SP++,XAR1            ; [CPU_] 
    3621                      .dwcfi  save_reg_to_mem, 7, 2
    3622                      .dwcfi  cfa_offset, -4
    3623 0000000b AABD          MOVL      *SP++,XAR2            ; [CPU_] 
    3624                      .dwcfi  save_reg_to_mem, 9, 4
    3625                      .dwcfi  cfa_offset, -6
    3626 0000000c A2BD          MOVL      *SP++,XAR3            ; [CPU_] 
    3627                      .dwcfi  save_reg_to_mem, 11, 6
    3628                      .dwcfi  cfa_offset, -8
    3629 0000000d FE1E          ADDB      SP,#30                ; [CPU_U] 
    3630                      .dwcfi  cfa_offset, -38
    3631                      .dwpsn  file "C:/ti/motorware/motorware_1_01_00_18/sw/modules/ctrl/src/32b/ctrl.c",line 204,column 3,
    3632 0000000e D09C          MOVB      XAR0,#156             ; [CPU_] |204| 
    3633                      .dwpsn  file "C:/ti/motorware/motorware_1_01_00_18/sw/modules/ctrl/src/32b/ctrl.c",line 198,column 1,
    3634 0000000f 82A4          MOVL      XAR3,XAR4             ; [CPU_] |198| 
    3635 00000010 066A          MOVL      ACC,*-SP[42]          ; [CPU_] |198| 
    3636 00000011 8668          MOVL      XAR2,*-SP[40]         ; [CPU_] |198| 
    3637 00000012 1E5A          MOVL      *-SP[26],ACC          ; [CPU_] |198| 
    3638                      .dwpsn  file "C:/ti/motorware/motorware_1_01_00_18/sw/modules/ctrl/src/32b/ctrl.c",line 204,column 3,
    3639 00000013 9293          MOV       AL,*+XAR3[AR0]        ; [CPU_] |204| 
    3640 00000014 D0ED          MOVB      XAR0,#237             ; [CPU_] |204| 
    3641 00000015 5493          CMP       AL,*+XAR3[AR0]        ; [CPU_] |204| 
    3642 00000016 FFE6          B         $C$L77,HI             ; [CPU_] |204| 
         00000017 04FD 
    3643                      ; branchcc occurs ; [] |204| 
    3644                      .dwpsn  file "C:/ti/motorware/motorware_1_01_00_18/sw/modules/ctrl/src/32b/ctrl.h",line 771,column 3,
    3645 00000018 88E3          MOVZ      AR6,*+XAR3[4]         ; [CPU_] |771| 
    3646                      .dwpsn  file "C:/ti/motorware/motorware_1_01_00_18/sw/modules/ctrl/src/32b/ctrl.h",line 1087,column 3
TMS320C2000 Assembler PC v6.2.5 Tue Jun 27 16:56:14 2017

Tools Copyright (c) 1996-2014 Texas Instruments Incorporated
C:\Users\wmj\AppData\Local\Temp\1139610                              PAGE   70

    3647 00000019 D0ED          MOVB      XAR0,#237             ; [CPU_] |1087| 
    3648                      .dwpsn  file "C:/ti/motorware/motorware_1_01_00_18/sw/modules/ctrl/src/32b/ctrl.h",line 1013,column 3
    3649 0000001a 029A          MOVB      ACC,#154              ; [CPU_] |1013| 
    3650                      .dwpsn  file "C:/ti/motorware/motorware_1_01_00_18/sw/modules/ctrl/src/32b/ctrl.h",line 1087,column 3
    3651 0000001b 56BF          MOVB      *+XAR3[AR0],#1,UNC    ; [CPU_] |1087| 
         0000001c 0193 
    3652                      .dwpsn  file "C:/ti/motorware/motorware_1_01_00_18/sw/modules/ctrl/src/32b/ctrl.h",line 1013,column 3
    3653 0000001d 07A3          ADDL      ACC,XAR3              ; [CPU_] |1013| 
    3654 0000001e 8AA9          MOVL      XAR4,ACC              ; [CPU_] |1013| 
    3655 0000001f 0201          MOVB      ACC,#1                ; [CPU_] |1013| 
    3656 00000020 5601          ADDL      *+XAR4[0],ACC         ; [CPU_] |1013| 
         00000021 00C4 
    3657                      .dwpsn  file "C:/ti/motorware/motorware_1_01_00_18/sw/modules/ctrl/src/32b/ctrl.h",line 1031,column 3
    3658 00000022 02EF          MOVB      ACC,#239              ; [CPU_] |1031| 
    3659 00000023 07A3          ADDL      ACC,XAR3              ; [CPU_] |1031| 
    3660 00000024 8AA9          MOVL      XAR4,ACC              ; [CPU_] |1031| 
    3661 00000025 92A6          MOV       AL,AR6                ; [CPU_] |1031| 
    3662 00000026 0AC4          INC       *+XAR4[0]             ; [CPU_] |1031| 
    3663                      .dwpsn  file "C:/ti/motorware/motorware_1_01_00_18/sw/modules/ctrl/src/32b/ctrl.c",line 218,column 7,
    3664 00000027 5203          CMPB      AL,#3                 ; [CPU_] |218| 
    3665 00000028 EC6E          BF        $C$L41,EQ             ; [CPU_] |218| 
    3666                      ; branchcc occurs ; [] |218| 
    3667                      .dwpsn  file "C:/ti/motorware/motorware_1_01_00_18/sw/modules/ctrl/src/32b/ctrl.c",line 239,column 12
    3668 00000029 5202          CMPB      AL,#2                 ; [CPU_] |239| 
    3669 0000002a EC05          BF        $C$L35,EQ             ; [CPU_] |239| 
    3670                      ; branchcc occurs ; [] |239| 
    3671                      .dwpsn  file "C:/ti/motorware/motorware_1_01_00_18/sw/modules/ctrl/src/32b/ctrl.c",line 244,column 12
    3672 0000002b 5201          CMPB      AL,#1                 ; [CPU_] |244| 
    3673 0000002c 56C0          BF        $C$L78,NEQ            ; [CPU_] |244| 
         0000002d 04EB 
    3674                      ; branchcc occurs ; [] |244| 
    3675                      .dwpsn  file "C:/ti/motorware/motorware_1_01_00_18/sw/modules/ctrl/src/32b/ctrl.c",line 249,column 11
    3676 0000002e 6F0B          B         $C$L38,UNC            ; [CPU_] |249| 
    3677                      ; branch occurs ; [] |249| 
    3678 0000002f       $C$L35:    
    3679                      .dwpsn  file "C:/ti/motorware/motorware_1_01_00_18/sw/modules/hal/boards/hvkit_rev1p1/f28x/f2802x/src
    3680 0000002f D300          MOVB      XAR3,#0               ; [CPU_] |197| 
    3681 00000030       $C$L36:    
    3682                      .dwpsn  file "C:/ti/motorware/motorware_1_01_00_18/sw/modules/hal/boards/hvkit_rev1p1/f28x/f2802x/src
    3683 00000030 D0A6          MOVB      XAR0,#166             ; [CPU_] |197| 
    3684 00000031 92A3          MOV       AL,AR3                ; [CPU_] |197| 
    3685 00000032 5495          CMP       AL,*+XAR5[AR0]        ; [CPU_] |197| 
    3686 00000033 6838          B         $C$L40,LO             ; [CPU_] |197| 
    3687                      ; branchcc occurs ; [] |197| 
    3688                      .dwpsn  file "C:/ti/motorware/motorware_1_01_00_18/sw/modules/hal/boards/hvkit_rev1p1/f28x/f2802x/src
    3689 00000034 D300          MOVB      XAR3,#0               ; [CPU_] |204| 
    3690 00000035       $C$L37:    
    3691                      .dwpsn  file "C:/ti/motorware/motorware_1_01_00_18/sw/modules/hal/boards/hvkit_rev1p1/f28x/f2802x/src
    3692 00000035 D0A7          MOVB      XAR0,#167             ; [CPU_] |204| 
    3693 00000036 92A3          MOV       AL,AR3                ; [CPU_] |204| 
    3694 00000037 5495          CMP       AL,*+XAR5[AR0]        ; [CPU_] |204| 
    3695 00000038 6808          B         $C$L39,LO             ; [CPU_] |204| 
    3696                      ; branchcc occurs ; [] |204| 
    3697 00000039       $C$L38:    
    3698 00000039 8A5A          MOVL      XAR4,*-SP[26]         ; [CPU_] 
TMS320C2000 Assembler PC v6.2.5 Tue Jun 27 16:56:14 2017

Tools Copyright (c) 1996-2014 Texas Instruments Incorporated
C:\Users\wmj\AppData\Local\Temp\1139610                              PAGE   71

    3699                      .dwpsn  file "C:/ti/motorware/motorware_1_01_00_18/sw/modules/ctrl/src/32b/ctrl.h",line 2097,column 3
    3700 0000003a 0200          MOVB      ACC,#0                ; [CPU_] |2097| 
    3701 0000003b 1EC4          MOVL      *+XAR4[0],ACC         ; [CPU_] |2097| 
    3702                      .dwpsn  file "C:/ti/motorware/motorware_1_01_00_18/sw/modules/ctrl/src/32b/ctrl.h",line 2098,column 3
    3703 0000003c 1ED4          MOVL      *+XAR4[2],ACC         ; [CPU_] |2098| 
    3704                      .dwpsn  file "C:/ti/motorware/motorware_1_01_00_18/sw/modules/ctrl/src/32b/ctrl.h",line 2099,column 3
    3705 0000003d 1EE4          MOVL      *+XAR4[4],ACC         ; [CPU_] |2099| 
    3706                      .dwpsn  file "C:/ti/motorware/motorware_1_01_00_18/sw/modules/ctrl/src/32b/ctrl.h",line 2101,column 3
    3707 0000003e FFEF          B         $C$L78,UNC            ; [CPU_] |2101| 
         0000003f 04D9 
    3708                      ; branch occurs ; [] |2101| 
    3709 00000040       $C$L39:    
    3710                      .dwpsn  file "C:/ti/motorware/motorware_1_01_00_18/sw/modules/hal/boards/hvkit_rev1p1/f28x/f2802x/src
    3711 00000040 0EA3          MOVU      ACC,AR3               ; [CPU_] |206| 
    3712 00000041 8AA5          MOVL      XAR4,XAR5             ; [CPU_] |206| 
    3713 00000042 D040          MOVB      XAR0,#64              ; [CPU_] |206| 
    3714 00000043 FF30          LSL       ACC,1                 ; [CPU_] |206| 
    3715 00000044 5601          ADDL      XAR4,ACC              ; [CPU_] |206| 
         00000045 00A4 
    3716 00000046 C494          MOVL      XAR6,*+XAR4[AR0]      ; [CPU_] |206| 
    3717                      .dwpsn  file "C:/ti/motorware/motorware_1_01_00_18/sw/modules/filter/src/32b/filter_fo.h",line 191,co
    3718 00000047 D00E          MOVB      XAR0,#14              ; [CPU_] |191| 
    3719                      .dwpsn  file "C:/ti/motorware/motorware_1_01_00_18/sw/modules/hal/boards/hvkit_rev1p1/f28x/f2802x/src
    3720 00000048 8AA2          MOVL      XAR4,XAR2             ; [CPU_] |206| 
    3721 00000049 5601          ADDL      XAR4,ACC              ; [CPU_] |206| 
         0000004a 00A4 
    3722 0000004b C5F4          MOVL      XAR7,*+XAR4[6]        ; [CPU_] |206| 
    3723                      .dwpsn  file "C:/ti/motorware/motorware_1_01_00_18/sw/modules/filter/src/32b/filter_fo.h",line 191,co
    3724 0000004c 8A96          MOVL      XAR4,*+XAR6[AR0]      ; [CPU_] |191| 
    3725                      .dwpsn  file "C:/ti/motorware/motorware_1_01_00_18/sw/modules/hal/boards/hvkit_rev1p1/f28x/f2802x/src
    3726 0000004d DB01          ADDB      XAR3,#1               ; [CPU_] |204| 
    3727                      .dwpsn  file "C:/ti/motorware/motorware_1_01_00_18/sw/modules/filter/src/32b/filter_fo.h",line 201,co
    3728 0000004e 87D4          MOVL      XT,*+XAR4[2]          ; [CPU_] |201| 
    3729 0000004f 5605          IMPYL     P,XT,XAR7             ; [CPU_] |201| 
         00000050 00A7 
    3730 00000051 5663          QMPYL     ACC,XT,XAR7           ; [CPU_] |201| 
         00000052 00A7 
    3731 00000053 56A7          LSL64     ACC:P,#8              ; [CPU_] |201| 
    3732 00000054 87E4          MOVL      XT,*+XAR4[4]          ; [CPU_] |201| 
    3733 00000055 8EA9          MOVL      XAR0,ACC              ; [CPU_] |201| 
    3734 00000056 5605          IMPYL     P,XT,*+XAR4[6]        ; [CPU_] |201| 
         00000057 00F4 
    3735 00000058 5663          QMPYL     ACC,XT,*+XAR4[6]      ; [CPU_] |201| 
         00000059 00F4 
    3736 0000005a 56A7          LSL64     ACC:P,#8              ; [CPU_] |201| 
    3737 0000005b 87C4          MOVL      XT,*+XAR4[0]          ; [CPU_] |201| 
    3738 0000005c 07A0          ADDL      ACC,XAR0              ; [CPU_] |201| 
    3739 0000005d D008          MOVB      XAR0,#8               ; [CPU_] |201| 
    3740 0000005e 8BA9          MOVL      XAR1,ACC              ; [CPU_] |201| 
    3741 0000005f 5605          IMPYL     P,XT,*+XAR4[AR0]      ; [CPU_] |201| 
         00000060 0094 
    3742 00000061 5663          QMPYL     ACC,XT,*+XAR4[AR0]    ; [CPU_] |201| 
         00000062 0094 
    3743                      .dwpsn  file "C:/ti/motorware/motorware_1_01_00_18/sw/modules/filter/src/32b/filter_fo.h",line 207,co
    3744 00000063 D008          MOVB      XAR0,#8               ; [CPU_] |207| 
TMS320C2000 Assembler PC v6.2.5 Tue Jun 27 16:56:14 2017

Tools Copyright (c) 1996-2014 Texas Instruments Incorporated
C:\Users\wmj\AppData\Local\Temp\1139610                              PAGE   72

    3745                      .dwpsn  file "C:/ti/motorware/motorware_1_01_00_18/sw/modules/filter/src/32b/filter_fo.h",line 201,co
    3746 00000064 56A7          LSL64     ACC:P,#8              ; [CPU_] |201| 
    3747 00000065 5641          SUBL      XAR1,ACC              ; [CPU_] |201| 
         00000066 00A1 
    3748                      .dwpsn  file "C:/ti/motorware/motorware_1_01_00_18/sw/modules/filter/src/32b/filter_fo.h",line 206,co
    3749 00000067 C3F4          MOVL      *+XAR4[6],XAR7        ; [CPU_] |206| 
    3750                      .dwpsn  file "C:/ti/motorware/motorware_1_01_00_18/sw/modules/filter/src/32b/filter_fo.h",line 207,co
    3751 00000068 B294          MOVL      *+XAR4[AR0],XAR1      ; [CPU_] |207| 
    3752                      .dwpsn  file "C:/ti/motorware/motorware_1_01_00_18/sw/modules/offset/src/32b/offset.h",line 141,colum
    3753 00000069 B2C6          MOVL      *+XAR6[0],XAR1        ; [CPU_] |141| 
    3754                      .dwpsn  file "C:/ti/motorware/motorware_1_01_00_18/sw/modules/hal/boards/hvkit_rev1p1/f28x/f2802x/src
    3755 0000006a 6FCB          B         $C$L37,UNC            ; [CPU_] |204| 
    3756                      ; branch occurs ; [] |204| 
    3757 0000006b       $C$L40:    
    3758                      .dwpsn  file "C:/ti/motorware/motorware_1_01_00_18/sw/modules/hal/boards/hvkit_rev1p1/f28x/f2802x/src
    3759 0000006b 0EA3          MOVU      ACC,AR3               ; [CPU_] |199| 
    3760 0000006c 8AA5          MOVL      XAR4,XAR5             ; [CPU_] |199| 
    3761 0000006d D00A          MOVB      XAR0,#10              ; [CPU_] |199| 
    3762 0000006e FF30          LSL       ACC,1                 ; [CPU_] |199| 
    3763 0000006f 5601          ADDL      XAR4,ACC              ; [CPU_] |199| 
         00000070 00A4 
    3764 00000071 C494          MOVL      XAR6,*+XAR4[AR0]      ; [CPU_] |199| 
    3765                      .dwpsn  file "C:/ti/motorware/motorware_1_01_00_18/sw/modules/filter/src/32b/filter_fo.h",line 191,co
    3766 00000072 D00E          MOVB      XAR0,#14              ; [CPU_] |191| 
    3767                      .dwpsn  file "C:/ti/motorware/motorware_1_01_00_18/sw/modules/hal/boards/hvkit_rev1p1/f28x/f2802x/src
    3768 00000073 8AA2          MOVL      XAR4,XAR2             ; [CPU_] |199| 
    3769 00000074 5601          ADDL      XAR4,ACC              ; [CPU_] |199| 
         00000075 00A4 
    3770 00000076 C5C4          MOVL      XAR7,*+XAR4[0]        ; [CPU_] |199| 
    3771                      .dwpsn  file "C:/ti/motorware/motorware_1_01_00_18/sw/modules/filter/src/32b/filter_fo.h",line 191,co
    3772 00000077 8A96          MOVL      XAR4,*+XAR6[AR0]      ; [CPU_] |191| 
    3773                      .dwpsn  file "C:/ti/motorware/motorware_1_01_00_18/sw/modules/hal/boards/hvkit_rev1p1/f28x/f2802x/src
    3774 00000078 DB01          ADDB      XAR3,#1               ; [CPU_] |197| 
    3775                      .dwpsn  file "C:/ti/motorware/motorware_1_01_00_18/sw/modules/filter/src/32b/filter_fo.h",line 201,co
    3776 00000079 87D4          MOVL      XT,*+XAR4[2]          ; [CPU_] |201| 
    3777 0000007a 5605          IMPYL     P,XT,XAR7             ; [CPU_] |201| 
         0000007b 00A7 
    3778 0000007c 5663          QMPYL     ACC,XT,XAR7           ; [CPU_] |201| 
         0000007d 00A7 
    3779 0000007e 56A7          LSL64     ACC:P,#8              ; [CPU_] |201| 
    3780 0000007f 87E4          MOVL      XT,*+XAR4[4]          ; [CPU_] |201| 
    3781 00000080 8EA9          MOVL      XAR0,ACC              ; [CPU_] |201| 
    3782 00000081 5605          IMPYL     P,XT,*+XAR4[6]        ; [CPU_] |201| 
         00000082 00F4 
    3783 00000083 5663          QMPYL     ACC,XT,*+XAR4[6]      ; [CPU_] |201| 
         00000084 00F4 
    3784 00000085 56A7          LSL64     ACC:P,#8              ; [CPU_] |201| 
    3785 00000086 87C4          MOVL      XT,*+XAR4[0]          ; [CPU_] |201| 
    3786 00000087 07A0          ADDL      ACC,XAR0              ; [CPU_] |201| 
    3787 00000088 D008          MOVB      XAR0,#8               ; [CPU_] |201| 
    3788 00000089 8BA9          MOVL      XAR1,ACC              ; [CPU_] |201| 
    3789 0000008a 5605          IMPYL     P,XT,*+XAR4[AR0]      ; [CPU_] |201| 
         0000008b 0094 
    3790 0000008c 5663          QMPYL     ACC,XT,*+XAR4[AR0]    ; [CPU_] |201| 
         0000008d 0094 
TMS320C2000 Assembler PC v6.2.5 Tue Jun 27 16:56:14 2017

Tools Copyright (c) 1996-2014 Texas Instruments Incorporated
C:\Users\wmj\AppData\Local\Temp\1139610                              PAGE   73

    3791                      .dwpsn  file "C:/ti/motorware/motorware_1_01_00_18/sw/modules/filter/src/32b/filter_fo.h",line 207,co
    3792 0000008e D008          MOVB      XAR0,#8               ; [CPU_] |207| 
    3793                      .dwpsn  file "C:/ti/motorware/motorware_1_01_00_18/sw/modules/filter/src/32b/filter_fo.h",line 201,co
    3794 0000008f 56A7          LSL64     ACC:P,#8              ; [CPU_] |201| 
    3795 00000090 5641          SUBL      XAR1,ACC              ; [CPU_] |201| 
         00000091 00A1 
    3796                      .dwpsn  file "C:/ti/motorware/motorware_1_01_00_18/sw/modules/filter/src/32b/filter_fo.h",line 206,co
    3797 00000092 C3F4          MOVL      *+XAR4[6],XAR7        ; [CPU_] |206| 
    3798                      .dwpsn  file "C:/ti/motorware/motorware_1_01_00_18/sw/modules/filter/src/32b/filter_fo.h",line 207,co
    3799 00000093 B294          MOVL      *+XAR4[AR0],XAR1      ; [CPU_] |207| 
    3800                      .dwpsn  file "C:/ti/motorware/motorware_1_01_00_18/sw/modules/offset/src/32b/offset.h",line 141,colum
    3801 00000094 B2C6          MOVL      *+XAR6[0],XAR1        ; [CPU_] |141| 
    3802                      .dwpsn  file "C:/ti/motorware/motorware_1_01_00_18/sw/modules/hal/boards/hvkit_rev1p1/f28x/f2802x/src
    3803 00000095 6F9B          B         $C$L36,UNC            ; [CPU_] |197| 
    3804                      ; branch occurs ; [] |197| 
    3805 00000096       $C$L41:    
    3806                      .dwpsn  file "C:/ti/motorware/motorware_1_01_00_18/sw/modules/ctrl/src/32b/ctrl.h",line 959,column 3,
    3807 00000096 02EC          MOVB      ACC,#236              ; [CPU_] |959| 
    3808                      .dwpsn  file "C:/ti/motorware/motorware_1_01_00_18/sw/modules/ctrl/src/32b/ctrl.c",line 228,column 11
    3809 00000097 D018          MOVB      XAR0,#24              ; [CPU_] |228| 
    3810                      .dwpsn  file "C:/ti/motorware/motorware_1_01_00_18/sw/modules/ctrl/src/32b/ctrl.h",line 959,column 3,
    3811 00000098 07A3          ADDL      ACC,XAR3              ; [CPU_] |959| 
    3812 00000099 8AA9          MOVL      XAR4,ACC              ; [CPU_] |959| 
    3813 0000009a 0AC4          INC       *+XAR4[0]             ; [CPU_] |959| 
    3814                      .dwpsn  file "C:/ti/motorware/motorware_1_01_00_18/sw/modules/ctrl/src/32b/ctrl.h",line 995,column 3,
    3815 0000009b 02EE          MOVB      ACC,#238              ; [CPU_] |995| 
    3816 0000009c 07A3          ADDL      ACC,XAR3              ; [CPU_] |995| 
    3817 0000009d 8AA9          MOVL      XAR4,ACC              ; [CPU_] |995| 
    3818 0000009e 0AC4          INC       *+XAR4[0]             ; [CPU_] |995| 
    3819                      .dwpsn  file "C:/ti/motorware/motorware_1_01_00_18/sw/modules/ctrl/src/32b/ctrl.c",line 228,column 11
    3820 0000009f 8A93          MOVL      XAR4,*+XAR3[AR0]      ; [CPU_] |228| 
    3821              $C$DW$394       .dwtag  DW_TAG_TI_branch
    3822                      .dwattr $C$DW$394, DW_AT_low_pc(0x00)
    3823                      .dwattr $C$DW$394, DW_AT_name("_EST_getState")
    3824                      .dwattr $C$DW$394, DW_AT_TI_call
    3825 000000a0 7640!         LCR       #_EST_getState        ; [CPU_] |228| 
         000000a1 0000 
    3826                      ; call occurs [#_EST_getState] ; [] |228| 
    3827 000000a2 520C          CMPB      AL,#12                ; [CPU_] |228| 
    3828 000000a3 FFE3          B         $C$L58,GEQ            ; [CPU_] |228| 
         000000a4 0227 
    3829                      ; branchcc occurs ; [] |228| 
    3830                      .dwpsn  file "C:/ti/motorware/motorware_1_01_00_18/sw/modules/clarke/src/32b/clarke.h",line 125,colum
    3831 000000a5 D008          MOVB      XAR0,#8               ; [CPU_] |125| 
    3832                      .dwpsn  file "C:/ti/motorware/motorware_1_01_00_18/sw/modules/ctrl/src/32b/ctrl.h",line 312,column 3,
    3833 000000a6 02AA          MOVB      ACC,#170              ; [CPU_] |312| 
    3834                      .dwpsn  file "C:/ti/motorware/motorware_1_01_00_18/sw/modules/clarke/src/32b/clarke.h",line 125,colum
    3835 000000a7 C493          MOVL      XAR6,*+XAR3[AR0]      ; [CPU_] |125| 
    3836                      .dwpsn  file "C:/ti/motorware/motorware_1_01_00_18/sw/modules/ctrl/src/32b/ctrl.h",line 2169,column 2
    3837 000000a8 8AA2          MOVL      XAR4,XAR2             ; [CPU_] |2169| 
    3838                      .dwpsn  file "C:/ti/motorware/motorware_1_01_00_18/sw/modules/ctrl/src/32b/ctrl.h",line 312,column 3,
    3839 000000a9 07A3          ADDL      ACC,XAR3              ; [CPU_] |312| 
    3840 000000aa 8BA9          MOVL      XAR1,ACC              ; [CPU_] |312| 
    3841 000000ab 83A9          MOVL      XAR5,ACC              ; [CPU_] |312| 
    3842                      .dwpsn  file "C:/ti/motorware/motorware_1_01_00_18/sw/modules/clarke/src/32b/clarke.h",line 125,colum
TMS320C2000 Assembler PC v6.2.5 Tue Jun 27 16:56:14 2017

Tools Copyright (c) 1996-2014 Texas Instruments Incorporated
C:\Users\wmj\AppData\Local\Temp\1139610                              PAGE   74

    3843 000000ac C5C6          MOVL      XAR7,*+XAR6[0]        ; [CPU_] |125| 
    3844                      .dwpsn  file "C:/ti/motorware/motorware_1_01_00_18/sw/modules/clarke/src/32b/clarke.h",line 126,colum
    3845 000000ad 8ED6          MOVL      XAR0,*+XAR6[2]        ; [CPU_] |126| 
    3846                      .dwpsn  file "C:/ti/motorware/motorware_1_01_00_18/sw/modules/clarke/src/32b/clarke.h",line 129,colum
    3847 000000ae 92E6          MOV       AL,*+XAR6[4]          ; [CPU_] |129| 
    3848 000000af 5203          CMPB      AL,#3                 ; [CPU_] |129| 
    3849 000000b0 EC0E          BF        $C$L42,EQ             ; [CPU_] |129| 
    3850                      ; branchcc occurs ; [] |129| 
    3851                      .dwpsn  file "C:/ti/motorware/motorware_1_01_00_18/sw/modules/clarke/src/32b/clarke.h",line 134,colum
    3852 000000b1 5202          CMPB      AL,#2                 ; [CPU_] |134| 
    3853 000000b2 ED20          BF        $C$L44,NEQ            ; [CPU_] |134| 
    3854                      ; branchcc occurs ; [] |134| 
    3855                      .dwpsn  file "C:/ti/motorware/motorware_1_01_00_18/sw/modules/clarke/src/32b/clarke.h",line 136,colum
    3856 000000b3 87C4          MOVL      XT,*+XAR4[0]          ; [CPU_] |136| 
    3857 000000b4 5605          IMPYL     P,XT,XAR7             ; [CPU_] |136| 
         000000b5 00A7 
    3858 000000b6 5663          QMPYL     ACC,XT,XAR7           ; [CPU_] |136| 
         000000b7 00A7 
    3859 000000b8 56A7          LSL64     ACC:P,#8              ; [CPU_] |136| 
    3860 000000b9 1EC5          MOVL      *+XAR5[0],ACC         ; [CPU_] |136| 
    3861                      .dwpsn  file "C:/ti/motorware/motorware_1_01_00_18/sw/modules/clarke/src/32b/clarke.h",line 137,colum
    3862 000000ba 06D4          MOVL      ACC,*+XAR4[2]         ; [CPU_] |137| 
    3863 000000bb FF30          LSL       ACC,1                 ; [CPU_] |137| 
    3864 000000bc 07C4          ADDL      ACC,*+XAR4[0]         ; [CPU_] |137| 
    3865 000000bd 6F0E          B         $C$L43,UNC            ; [CPU_] |137| 
    3866                      ; branch occurs ; [] |137| 
    3867 000000be       $C$L42:    
    3868                      .dwpsn  file "C:/ti/motorware/motorware_1_01_00_18/sw/modules/clarke/src/32b/clarke.h",line 131,colum
    3869 000000be 06C4          MOVL      ACC,*+XAR4[0]         ; [CPU_] |131| 
    3870 000000bf FF30          LSL       ACC,1                 ; [CPU_] |131| 
    3871 000000c0 03D4          SUBL      ACC,*+XAR4[2]         ; [CPU_] |131| 
    3872 000000c1 03E4          SUBL      ACC,*+XAR4[4]         ; [CPU_] |131| 
    3873 000000c2 1EAC          MOVL      XT,ACC                ; [CPU_] |131| 
    3874 000000c3 5605          IMPYL     P,XT,XAR7             ; [CPU_] |131| 
         000000c4 00A7 
    3875 000000c5 5663          QMPYL     ACC,XT,XAR7           ; [CPU_] |131| 
         000000c6 00A7 
    3876 000000c7 56A7          LSL64     ACC:P,#8              ; [CPU_] |131| 
    3877 000000c8 1EC5          MOVL      *+XAR5[0],ACC         ; [CPU_] |131| 
    3878                      .dwpsn  file "C:/ti/motorware/motorware_1_01_00_18/sw/modules/clarke/src/32b/clarke.h",line 132,colum
    3879 000000c9 06D4          MOVL      ACC,*+XAR4[2]         ; [CPU_] |132| 
    3880 000000ca 03E4          SUBL      ACC,*+XAR4[4]         ; [CPU_] |132| 
    3881 000000cb       $C$L43:    
    3882 000000cb 1EAC          MOVL      XT,ACC                ; [CPU_] |132| 
    3883 000000cc 5605          IMPYL     P,XT,XAR0             ; [CPU_] |132| 
         000000cd 00A0 
    3884 000000ce 5663          QMPYL     ACC,XT,XAR0           ; [CPU_] |132| 
         000000cf 00A0 
    3885 000000d0 56A7          LSL64     ACC:P,#8              ; [CPU_] |132| 
    3886 000000d1 1ED5          MOVL      *+XAR5[2],ACC         ; [CPU_] |132| 
    3887 000000d2       $C$L44:    
    3888                      .dwpsn  file "C:/ti/motorware/motorware_1_01_00_18/sw/modules/ctrl/src/32b/ctrl.h",line 835,column 3,
    3889 000000d2 02B6          MOVB      ACC,#182              ; [CPU_] |835| 
    3890                      .dwpsn  file "C:/ti/motorware/motorware_1_01_00_18/sw/modules/clarke/src/32b/clarke.h",line 125,colum
    3891 000000d3 D010          MOVB      XAR0,#16              ; [CPU_] |125| 
TMS320C2000 Assembler PC v6.2.5 Tue Jun 27 16:56:14 2017

Tools Copyright (c) 1996-2014 Texas Instruments Incorporated
C:\Users\wmj\AppData\Local\Temp\1139610                              PAGE   75

    3892                      .dwpsn  file "C:/ti/motorware/motorware_1_01_00_18/sw/modules/ctrl/src/32b/ctrl.h",line 835,column 3,
    3893 000000d4 07A3          ADDL      ACC,XAR3              ; [CPU_] |835| 
    3894 000000d5 1E52          MOVL      *-SP[18],ACC          ; [CPU_] |835| 
    3895                      .dwpsn  file "C:/ti/motorware/motorware_1_01_00_18/sw/modules/clarke/src/32b/clarke.h",line 125,colum
    3896 000000d6 C493          MOVL      XAR6,*+XAR3[AR0]      ; [CPU_] |125| 
    3897                      .dwpsn  file "C:/ti/motorware/motorware_1_01_00_18/sw/modules/ctrl/src/32b/ctrl.h",line 835,column 3,
    3898 000000d7 83A9          MOVL      XAR5,ACC              ; [CPU_] |835| 
    3899                      .dwpsn  file "C:/ti/motorware/motorware_1_01_00_18/sw/modules/ctrl/src/32b/ctrl.h",line 2173,column 2
    3900 000000d8 DC06          ADDB      XAR4,#6               ; [CPU_] |2173| 
    3901                      .dwpsn  file "C:/ti/motorware/motorware_1_01_00_18/sw/modules/clarke/src/32b/clarke.h",line 125,colum
    3902 000000d9 C5C6          MOVL      XAR7,*+XAR6[0]        ; [CPU_] |125| 
    3903                      .dwpsn  file "C:/ti/motorware/motorware_1_01_00_18/sw/modules/clarke/src/32b/clarke.h",line 126,colum
    3904 000000da 8ED6          MOVL      XAR0,*+XAR6[2]        ; [CPU_] |126| 
    3905                      .dwpsn  file "C:/ti/motorware/motorware_1_01_00_18/sw/modules/clarke/src/32b/clarke.h",line 129,colum
    3906 000000db 92E6          MOV       AL,*+XAR6[4]          ; [CPU_] |129| 
    3907 000000dc 5203          CMPB      AL,#3                 ; [CPU_] |129| 
    3908 000000dd EC0E          BF        $C$L45,EQ             ; [CPU_] |129| 
    3909                      ; branchcc occurs ; [] |129| 
    3910                      .dwpsn  file "C:/ti/motorware/motorware_1_01_00_18/sw/modules/clarke/src/32b/clarke.h",line 134,colum
    3911 000000de 5202          CMPB      AL,#2                 ; [CPU_] |134| 
    3912 000000df ED20          BF        $C$L47,NEQ            ; [CPU_] |134| 
    3913                      ; branchcc occurs ; [] |134| 
    3914                      .dwpsn  file "C:/ti/motorware/motorware_1_01_00_18/sw/modules/clarke/src/32b/clarke.h",line 136,colum
    3915 000000e0 87C4          MOVL      XT,*+XAR4[0]          ; [CPU_] |136| 
    3916 000000e1 5605          IMPYL     P,XT,XAR7             ; [CPU_] |136| 
         000000e2 00A7 
    3917 000000e3 5663          QMPYL     ACC,XT,XAR7           ; [CPU_] |136| 
         000000e4 00A7 
    3918 000000e5 56A7          LSL64     ACC:P,#8              ; [CPU_] |136| 
    3919 000000e6 1EC5          MOVL      *+XAR5[0],ACC         ; [CPU_] |136| 
    3920                      .dwpsn  file "C:/ti/motorware/motorware_1_01_00_18/sw/modules/clarke/src/32b/clarke.h",line 137,colum
    3921 000000e7 06D4          MOVL      ACC,*+XAR4[2]         ; [CPU_] |137| 
    3922 000000e8 FF30          LSL       ACC,1                 ; [CPU_] |137| 
    3923 000000e9 07C4          ADDL      ACC,*+XAR4[0]         ; [CPU_] |137| 
    3924 000000ea 6F0E          B         $C$L46,UNC            ; [CPU_] |137| 
    3925                      ; branch occurs ; [] |137| 
    3926 000000eb       $C$L45:    
    3927                      .dwpsn  file "C:/ti/motorware/motorware_1_01_00_18/sw/modules/clarke/src/32b/clarke.h",line 131,colum
    3928 000000eb 06C4          MOVL      ACC,*+XAR4[0]         ; [CPU_] |131| 
    3929 000000ec FF30          LSL       ACC,1                 ; [CPU_] |131| 
    3930 000000ed 03D4          SUBL      ACC,*+XAR4[2]         ; [CPU_] |131| 
    3931 000000ee 03E4          SUBL      ACC,*+XAR4[4]         ; [CPU_] |131| 
    3932 000000ef 1EAC          MOVL      XT,ACC                ; [CPU_] |131| 
    3933 000000f0 5605          IMPYL     P,XT,XAR7             ; [CPU_] |131| 
         000000f1 00A7 
    3934 000000f2 5663          QMPYL     ACC,XT,XAR7           ; [CPU_] |131| 
         000000f3 00A7 
    3935 000000f4 56A7          LSL64     ACC:P,#8              ; [CPU_] |131| 
    3936 000000f5 1EC5          MOVL      *+XAR5[0],ACC         ; [CPU_] |131| 
    3937                      .dwpsn  file "C:/ti/motorware/motorware_1_01_00_18/sw/modules/clarke/src/32b/clarke.h",line 132,colum
    3938 000000f6 06D4          MOVL      ACC,*+XAR4[2]         ; [CPU_] |132| 
    3939 000000f7 03E4          SUBL      ACC,*+XAR4[4]         ; [CPU_] |132| 
    3940 000000f8       $C$L46:    
    3941 000000f8 1EAC          MOVL      XT,ACC                ; [CPU_] |132| 
    3942 000000f9 5605          IMPYL     P,XT,XAR0             ; [CPU_] |132| 
TMS320C2000 Assembler PC v6.2.5 Tue Jun 27 16:56:14 2017

Tools Copyright (c) 1996-2014 Texas Instruments Incorporated
C:\Users\wmj\AppData\Local\Temp\1139610                              PAGE   76

         000000fa 00A0 
    3943 000000fb 5663          QMPYL     ACC,XT,XAR0           ; [CPU_] |132| 
         000000fc 00A0 
    3944 000000fd 56A7          LSL64     ACC:P,#8              ; [CPU_] |132| 
    3945 000000fe 1ED5          MOVL      *+XAR5[2],ACC         ; [CPU_] |132| 
    3946 000000ff       $C$L47:    
    3947 000000ff 0652          MOVL      ACC,*-SP[18]          ; [CPU_] 
    3948                      .dwpsn  file "C:/ti/motorware/motorware_1_01_00_18/sw/modules/ctrl/src/32b/ctrl.h",line 2177,column 2
    3949 00000100 D06C          MOVB      XAR0,#108             ; [CPU_] |2177| 
    3950 00000101 1E42          MOVL      *-SP[2],ACC           ; [CPU_] |2177| 
    3951 00000102 8A93          MOVL      XAR4,*+XAR3[AR0]      ; [CPU_] |2177| 
    3952 00000103 83A1          MOVL      XAR5,XAR1             ; [CPU_] |2177| 
    3953 00000104 D018          MOVB      XAR0,#24              ; [CPU_] |2177| 
    3954 00000105 06D4          MOVL      ACC,*+XAR4[2]         ; [CPU_] |2177| 
    3955 00000106 1E44          MOVL      *-SP[4],ACC           ; [CPU_] |2177| 
    3956 00000107 8A93          MOVL      XAR4,*+XAR3[AR0]      ; [CPU_] |2177| 
    3957 00000108 D00C          MOVB      XAR0,#12              ; [CPU_] |2177| 
    3958 00000109 0692          MOVL      ACC,*+XAR2[AR0]       ; [CPU_] |2177| 
    3959              $C$DW$395       .dwtag  DW_TAG_TI_branch
    3960                      .dwattr $C$DW$395, DW_AT_low_pc(0x00)
    3961                      .dwattr $C$DW$395, DW_AT_name("_EST_run")
    3962                      .dwattr $C$DW$395, DW_AT_TI_call
    3963 0000010a 7640!         LCR       #_EST_run             ; [CPU_] |2177| 
         0000010b 0000 
    3964                      ; call occurs [#_EST_run] ; [] |2177| 
    3965                      .dwpsn  file "C:/ti/motorware/motorware_1_01_00_18/sw/modules/ctrl/src/32b/ctrl.h",line 2182,column 2
    3966 0000010c D018          MOVB      XAR0,#24              ; [CPU_] |2182| 
    3967 0000010d 8A93          MOVL      XAR4,*+XAR3[AR0]      ; [CPU_] |2182| 
    3968              $C$DW$396       .dwtag  DW_TAG_TI_branch
    3969                      .dwattr $C$DW$396, DW_AT_low_pc(0x00)
    3970                      .dwattr $C$DW$396, DW_AT_name("_EST_getAngle_pu")
    3971                      .dwattr $C$DW$396, DW_AT_TI_call
    3972 0000010e 7640!         LCR       #_EST_getAngle_pu     ; [CPU_] |2182| 
         0000010f 0000 
    3973                      ; call occurs [#_EST_getAngle_pu] ; [] |2182| 
    3974 00000110 86A9          MOVL      XAR2,ACC              ; [CPU_] |2182| 
    3975                      .dwpsn  file "C:/ti/motorware/motorware_1_01_00_18/sw/modules/ctrl/src/32b/ctrl.h",line 2043,column 3
    3976              $C$DW$397       .dwtag  DW_TAG_TI_branch
    3977                      .dwattr $C$DW$397, DW_AT_low_pc(0x00)
    3978                      .dwattr $C$DW$397, DW_AT_name("__IQ24cosPU")
    3979                      .dwattr $C$DW$397, DW_AT_TI_call
    3980 00000111 7640!         LCR       #__IQ24cosPU          ; [CPU_] |2043| 
         00000112 0000 
    3981                      ; call occurs [#__IQ24cosPU] ; [] |2043| 
    3982 00000113 1E4C          MOVL      *-SP[12],ACC          ; [CPU_] |2043| 
    3983                      .dwpsn  file "C:/ti/motorware/motorware_1_01_00_18/sw/modules/ctrl/src/32b/ctrl.h",line 2044,column 3
    3984 00000114 AAA9          MOVL      ACC,XAR2              ; [CPU_] |2044| 
    3985              $C$DW$398       .dwtag  DW_TAG_TI_branch
    3986                      .dwattr $C$DW$398, DW_AT_low_pc(0x00)
    3987                      .dwattr $C$DW$398, DW_AT_name("__IQ24sinPU")
    3988                      .dwattr $C$DW$398, DW_AT_TI_call
    3989 00000115 7640!         LCR       #__IQ24sinPU          ; [CPU_] |2044| 
         00000116 0000 
    3990                      ; call occurs [#__IQ24sinPU] ; [] |2044| 
    3991                      .dwpsn  file "C:/ti/motorware/motorware_1_01_00_18/sw/modules/park/src/32b/park.h",line 173,column 17
TMS320C2000 Assembler PC v6.2.5 Tue Jun 27 16:56:14 2017

Tools Copyright (c) 1996-2014 Texas Instruments Incorporated
C:\Users\wmj\AppData\Local\Temp\1139610                              PAGE   77

    3992 00000117 D01A          MOVB      XAR0,#26              ; [CPU_] |173| 
    3993                      .dwpsn  file "C:/ti/motorware/motorware_1_01_00_18/sw/modules/ctrl/src/32b/ctrl.h",line 2044,column 3
    3994 00000118 1E4A          MOVL      *-SP[10],ACC          ; [CPU_] |2044| 
    3995                      .dwpsn  file "C:/ti/motorware/motorware_1_01_00_18/sw/modules/park/src/32b/park.h",line 173,column 17
    3996 00000119 8A93          MOVL      XAR4,*+XAR3[AR0]      ; [CPU_] |173| 
    3997                      .dwpsn  file "C:/ti/motorware/motorware_1_01_00_18/sw/modules/park/src/32b/park.h",line 175,column 3,
    3998 0000011a 064C          MOVL      ACC,*-SP[12]          ; [CPU_] |175| 
    3999                      .dwpsn  file "C:/ti/motorware/motorware_1_01_00_18/sw/modules/park/src/32b/park.h",line 141,column 13
    4000 0000011b D01A          MOVB      XAR0,#26              ; [CPU_] |141| 
    4001                      .dwpsn  file "C:/ti/motorware/motorware_1_01_00_18/sw/modules/park/src/32b/park.h",line 175,column 3,
    4002 0000011c 1ED4          MOVL      *+XAR4[2],ACC         ; [CPU_] |175| 
    4003                      .dwpsn  file "C:/ti/motorware/motorware_1_01_00_18/sw/modules/park/src/32b/park.h",line 176,column 3,
    4004 0000011d 064A          MOVL      ACC,*-SP[10]          ; [CPU_] |176| 
    4005 0000011e 1EC4          MOVL      *+XAR4[0],ACC         ; [CPU_] |176| 
    4006                      .dwpsn  file "C:/ti/motorware/motorware_1_01_00_18/sw/modules/ctrl/src/32b/ctrl.h",line 351,column 3,
    4007 0000011f 02B2          MOVB      ACC,#178              ; [CPU_] |351| 
    4008                      .dwpsn  file "C:/ti/motorware/motorware_1_01_00_18/sw/modules/park/src/32b/park.h",line 141,column 13
    4009 00000120 8393          MOVL      XAR5,*+XAR3[AR0]      ; [CPU_] |141| 
    4010                      .dwpsn  file "C:/ti/motorware/motorware_1_01_00_18/sw/modules/ctrl/src/32b/ctrl.h",line 351,column 3,
    4011 00000121 07A3          ADDL      ACC,XAR3              ; [CPU_] |351| 
    4012                      .dwpsn  file "C:/ti/motorware/motorware_1_01_00_18/sw/modules/park/src/32b/park.h",line 144,column 15
    4013 00000122 8EC1          MOVL      XAR0,*+XAR1[0]        ; [CPU_] |144| 
    4014                      .dwpsn  file "C:/ti/motorware/motorware_1_01_00_18/sw/modules/park/src/32b/park.h",line 148,column 3,
    4015 00000123 8AA9          MOVL      XAR4,ACC              ; [CPU_] |148| 
    4016                      .dwpsn  file "C:/ti/motorware/motorware_1_01_00_18/sw/modules/park/src/32b/park.h",line 142,column 13
    4017 00000124 C5D5          MOVL      XAR7,*+XAR5[2]        ; [CPU_] |142| 
    4018                      .dwpsn  file "C:/ti/motorware/motorware_1_01_00_18/sw/modules/park/src/32b/park.h",line 141,column 13
    4019 00000125 C4C5          MOVL      XAR6,*+XAR5[0]        ; [CPU_] |141| 
    4020                      .dwpsn  file "C:/ti/motorware/motorware_1_01_00_18/sw/modules/park/src/32b/park.h",line 148,column 3,
    4021 00000126 3AAC          MOVL      XT,XAR0               ; [CPU_] |148| 
    4022                      .dwpsn  file "C:/ti/motorware/motorware_1_01_00_18/sw/modules/park/src/32b/park.h",line 145,column 15
    4023 00000127 83D1          MOVL      XAR5,*+XAR1[2]        ; [CPU_] |145| 
    4024                      .dwpsn  file "C:/ti/motorware/motorware_1_01_00_18/sw/modules/park/src/32b/park.h",line 148,column 3,
    4025 00000128 5605          IMPYL     P,XT,XAR7             ; [CPU_] |148| 
         00000129 00A7 
    4026 0000012a 5663          QMPYL     ACC,XT,XAR7           ; [CPU_] |148| 
         0000012b 00A7 
    4027 0000012c 56A7          LSL64     ACC:P,#8              ; [CPU_] |148| 
    4028 0000012d A0AC          MOVL      XT,XAR5               ; [CPU_] |148| 
    4029 0000012e 86A9          MOVL      XAR2,ACC              ; [CPU_] |148| 
    4030 0000012f 5605          IMPYL     P,XT,XAR6             ; [CPU_] |148| 
         00000130 00A6 
    4031 00000131 5663          QMPYL     ACC,XT,XAR6           ; [CPU_] |148| 
         00000132 00A6 
    4032 00000133 56A7          LSL64     ACC:P,#8              ; [CPU_] |148| 
    4033 00000134 3AAC          MOVL      XT,XAR0               ; [CPU_] |148| 
    4034 00000135 07A2          ADDL      ACC,XAR2              ; [CPU_] |148| 
    4035                      .dwpsn  file "C:/ti/motorware/motorware_1_01_00_18/sw/modules/ctrl/src/32b/ctrl.h",line 2198,column 2
    4036 00000136 D018          MOVB      XAR0,#24              ; [CPU_] |2198| 
    4037                      .dwpsn  file "C:/ti/motorware/motorware_1_01_00_18/sw/modules/park/src/32b/park.h",line 149,column 3,
    4038 00000137 5605          IMPYL     P,XT,XAR6             ; [CPU_] |149| 
         00000138 00A6 
    4039                      .dwpsn  file "C:/ti/motorware/motorware_1_01_00_18/sw/modules/park/src/32b/park.h",line 148,column 3,
    4040 00000139 1EC4          MOVL      *+XAR4[0],ACC         ; [CPU_] |148| 
    4041                      .dwpsn  file "C:/ti/motorware/motorware_1_01_00_18/sw/modules/park/src/32b/park.h",line 149,column 3,
TMS320C2000 Assembler PC v6.2.5 Tue Jun 27 16:56:14 2017

Tools Copyright (c) 1996-2014 Texas Instruments Incorporated
C:\Users\wmj\AppData\Local\Temp\1139610                              PAGE   78

    4042 0000013a 5663          QMPYL     ACC,XT,XAR6           ; [CPU_] |149| 
         0000013b 00A6 
    4043 0000013c 56A7          LSL64     ACC:P,#8              ; [CPU_] |149| 
    4044 0000013d A0AC          MOVL      XT,XAR5               ; [CPU_] |149| 
    4045 0000013e 1EA6          MOVL      XAR6,ACC              ; [CPU_] |149| 
    4046 0000013f 5605          IMPYL     P,XT,XAR7             ; [CPU_] |149| 
         00000140 00A7 
    4047 00000141 5663          QMPYL     ACC,XT,XAR7           ; [CPU_] |149| 
         00000142 00A7 
    4048 00000143 56A7          LSL64     ACC:P,#8              ; [CPU_] |149| 
    4049 00000144 03A6          SUBL      ACC,XAR6              ; [CPU_] |149| 
    4050 00000145 1ED4          MOVL      *+XAR4[2],ACC         ; [CPU_] |149| 
    4051                      .dwpsn  file "C:/ti/motorware/motorware_1_01_00_18/sw/modules/ctrl/src/32b/ctrl.h",line 2198,column 2
    4052 00000146 8A93          MOVL      XAR4,*+XAR3[AR0]      ; [CPU_] |2198| 
    4053              $C$DW$399       .dwtag  DW_TAG_TI_branch
    4054                      .dwattr $C$DW$399, DW_AT_low_pc(0x00)
    4055                      .dwattr $C$DW$399, DW_AT_name("_EST_doSpeedCtrl")
    4056                      .dwattr $C$DW$399, DW_AT_TI_call
    4057 00000147 7640!         LCR       #_EST_doSpeedCtrl     ; [CPU_] |2198| 
         00000148 0000 
    4058                      ; call occurs [#_EST_doSpeedCtrl] ; [] |2198| 
    4059 00000149 5200          CMPB      AL,#0                 ; [CPU_] |2198| 
    4060 0000014a EC47          BF        $C$L48,EQ             ; [CPU_] |2198| 
    4061                      ; branchcc occurs ; [] |2198| 
    4062                      .dwpsn  file "C:/ti/motorware/motorware_1_01_00_18/sw/modules/ctrl/src/32b/ctrl.h",line 2075,column 3
    4063 0000014b D09E          MOVB      XAR0,#158             ; [CPU_] |2075| 
    4064 0000014c 9293          MOV       AL,*+XAR3[AR0]        ; [CPU_] |2075| 
    4065 0000014d D0EE          MOVB      XAR0,#238             ; [CPU_] |2075| 
    4066 0000014e 5493          CMP       AL,*+XAR3[AR0]        ; [CPU_] |2075| 
    4067 0000014f 6648          B         $C$L49,HI             ; [CPU_] |2075| 
    4068                      ; branchcc occurs ; [] |2075| 
    4069                      .dwpsn  file "C:/ti/motorware/motorware_1_01_00_18/sw/modules/traj/src/32b/traj.h",line 96,column 3,i
    4070 00000150 D06C          MOVB      XAR0,#108             ; [CPU_] |96| 
    4071 00000151 8A93          MOVL      XAR4,*+XAR3[AR0]      ; [CPU_] |96| 
    4072                      .dwpsn  file "C:/ti/motorware/motorware_1_01_00_18/sw/modules/ctrl/src/32b/ctrl.h",line 2203,column 2
    4073 00000152 D018          MOVB      XAR0,#24              ; [CPU_] |2203| 
    4074                      .dwpsn  file "C:/ti/motorware/motorware_1_01_00_18/sw/modules/traj/src/32b/traj.h",line 96,column 3,i
    4075 00000153 8BD4          MOVL      XAR1,*+XAR4[2]        ; [CPU_] |96| 
    4076                      .dwpsn  file "C:/ti/motorware/motorware_1_01_00_18/sw/modules/ctrl/src/32b/ctrl.h",line 2203,column 2
    4077 00000154 8A93          MOVL      XAR4,*+XAR3[AR0]      ; [CPU_] |2203| 
    4078              $C$DW$400       .dwtag  DW_TAG_TI_branch
    4079                      .dwattr $C$DW$400, DW_AT_low_pc(0x00)
    4080                      .dwattr $C$DW$400, DW_AT_name("_EST_getFm_pu")
    4081                      .dwattr $C$DW$400, DW_AT_TI_call
    4082 00000155 7640!         LCR       #_EST_getFm_pu        ; [CPU_] |2203| 
         00000156 0000 
    4083                      ; call occurs [#_EST_getFm_pu] ; [] |2203| 
    4084                      .dwpsn  file "C:/ti/motorware/motorware_1_01_00_18/sw/modules/traj/src/32b/traj.h",line 96,column 3,i
    4085 00000157 D078          MOVB      XAR0,#120             ; [CPU_] |96| 
    4086 00000158 8A93          MOVL      XAR4,*+XAR3[AR0]      ; [CPU_] |96| 
    4087                      .dwpsn  file "C:/ti/motorware/motorware_1_01_00_18/sw/modules/ctrl/src/32b/ctrl.h",line 2203,column 2
    4088 00000159 1EA6          MOVL      XAR6,ACC              ; [CPU_] |2203| 
    4089                      .dwpsn  file "C:/ti/motorware/motorware_1_01_00_18/sw/modules/ctrl/src/32b/ctrl.h",line 1099,column 3
    4090 0000015a D0EE          MOVB      XAR0,#238             ; [CPU_] |1099| 
    4091                      .dwpsn  file "C:/ti/motorware/motorware_1_01_00_18/sw/modules/traj/src/32b/traj.h",line 96,column 3,i
TMS320C2000 Assembler PC v6.2.5 Tue Jun 27 16:56:14 2017

Tools Copyright (c) 1996-2014 Texas Instruments Incorporated
C:\Users\wmj\AppData\Local\Temp\1139610                              PAGE   79

    4092 0000015b C5D4          MOVL      XAR7,*+XAR4[2]        ; [CPU_] |96| 
    4093                      .dwpsn  file "C:/ti/motorware/motorware_1_01_00_18/sw/modules/ctrl/src/32b/ctrl.h",line 2212,column 1
    4094 0000015c B2AB          MOVL      P,XAR1                ; [CPU_] |2212| 
    4095                      .dwpsn  file "C:/ti/motorware/motorware_1_01_00_18/sw/modules/ctrl/src/32b/ctrl.h",line 1099,column 3
    4096 0000015d 2B93          MOV       *+XAR3[AR0],#0        ; [CPU_] |1099| 
    4097                      .dwpsn  file "C:/ti/motorware/motorware_1_01_00_18/sw/modules/pid/src/32b/pid.h",line 358,column 16,i
    4098 0000015e D044          MOVB      XAR0,#68              ; [CPU_] |358| 
    4099                      .dwpsn  file "C:/ti/motorware/motorware_1_01_00_18/sw/modules/ctrl/src/32b/ctrl.h",line 2205,column 2
    4100 0000015f 06A7          MOVL      ACC,XAR7              ; [CPU_] |2205| 
    4101                      .dwpsn  file "C:/ti/motorware/motorware_1_01_00_18/sw/modules/pid/src/32b/pid.h",line 358,column 16,i
    4102 00000160 8A93          MOVL      XAR4,*+XAR3[AR0]      ; [CPU_] |358| 
    4103                      .dwpsn  file "C:/ti/motorware/motorware_1_01_00_18/sw/modules/pid/src/32b/pid.h",line 270,column 3,is
    4104 00000161 565D          SUBUL     P,XAR6                ; [CPU_] |270| 
         00000162 00A6 
    4105                      .dwpsn  file "C:/ti/motorware/motorware_1_01_00_18/sw/modules/ctrl/src/32b/ctrl.h",line 2205,column 2
    4106 00000163 FF54          NEG       ACC                   ; [CPU_] |2205| 
    4107                      .dwpsn  file "C:/ti/motorware/motorware_1_01_00_18/sw/modules/pid/src/32b/pid.h",line 360,column 3,is
    4108 00000164 D00C          MOVB      XAR0,#12              ; [CPU_] |360| 
    4109 00000165 1E94          MOVL      *+XAR4[AR0],ACC       ; [CPU_] |360| 
    4110                      .dwpsn  file "C:/ti/motorware/motorware_1_01_00_18/sw/modules/pid/src/32b/pid.h",line 361,column 3,is
    4111 00000166 D00E          MOVB      XAR0,#14              ; [CPU_] |361| 
    4112                      .dwpsn  file "C:/ti/motorware/motorware_1_01_00_18/sw/modules/ctrl/src/32b/ctrl.h",line 716,column 3,
    4113 00000167 02BA          MOVB      ACC,#186              ; [CPU_] |716| 
    4114 00000168 07A3          ADDL      ACC,XAR3              ; [CPU_] |716| 
    4115                      .dwpsn  file "C:/ti/motorware/motorware_1_01_00_18/sw/modules/pid/src/32b/pid.h",line 361,column 3,is
    4116 00000169 C394          MOVL      *+XAR4[AR0],XAR7      ; [CPU_] |361| 
    4117                      .dwpsn  file "C:/ti/motorware/motorware_1_01_00_18/sw/modules/pid/src/32b/pid.h",line 262,column 16,i
    4118 0000016a D044          MOVB      XAR0,#68              ; [CPU_] |262| 
    4119 0000016b 8393          MOVL      XAR5,*+XAR3[AR0]      ; [CPU_] |262| 
    4120                      .dwpsn  file "C:/ti/motorware/motorware_1_01_00_18/sw/modules/ctrl/src/32b/ctrl.h",line 716,column 3,
    4121 0000016c 8AA9          MOVL      XAR4,ACC              ; [CPU_] |716| 
    4122                      .dwpsn  file "C:/ti/motorware/motorware_1_01_00_18/sw/modules/ctrl/src/32b/ctrl.h",line 2212,column 1
    4123 0000016d C5A1          MOVL      XAR7,XAR1             ; [CPU_] |2212| 
    4124                      .dwpsn  file "C:/ti/motorware/motorware_1_01_00_18/sw/modules/pid/src/32b/pid.h",line 270,column 3,is
    4125 0000016e A9A0          MOVL      XAR0,P                ; [CPU_] |270| 
    4126 0000016f 87C5          MOVL      XT,*+XAR5[0]          ; [CPU_] |270| 
    4127                      .dwpsn  file "C:/ti/motorware/motorware_1_01_00_18/sw/modules/pid/src/32b/pid.h",line 271,column 3,is
    4128 00000170 D10E          MOVB      XAR1,#14              ; [CPU_] |271| 
    4129                      .dwpsn  file "C:/ti/motorware/motorware_1_01_00_18/sw/modules/pid/src/32b/pid.h",line 270,column 3,is
    4130 00000171 5663          QMPYL     ACC,XT,XAR0           ; [CPU_] |270| 
         00000172 00A0 
    4131 00000173 5605          IMPYL     P,XT,XAR0             ; [CPU_] |270| 
         00000174 00A0 
    4132 00000175 56A7          LSL64     ACC:P,#8              ; [CPU_] |270| 
    4133 00000176 86A9          MOVL      XAR2,ACC              ; [CPU_] |270| 
    4134                      .dwpsn  file "C:/ti/motorware/motorware_1_01_00_18/sw/modules/pid/src/32b/pid.h",line 271,column 3,is
    4135 00000177 87D5          MOVL      XT,*+XAR5[2]          ; [CPU_] |271| 
    4136 00000178 5605          IMPYL     P,XT,XAR0             ; [CPU_] |271| 
         00000179 00A0 
    4137 0000017a 5663          QMPYL     ACC,XT,XAR0           ; [CPU_] |271| 
         0000017b 00A0 
    4138 0000017c D00C          MOVB      XAR0,#12              ; [CPU_] |271| 
    4139 0000017d 56A7          LSL64     ACC:P,#8              ; [CPU_] |271| 
    4140 0000017e 07F5          ADDL      ACC,*+XAR5[6]         ; [CPU_] |271| 
    4141 0000017f 5650          MINL      ACC,*+XAR5[AR1]       ; [CPU_] |271| 
TMS320C2000 Assembler PC v6.2.5 Tue Jun 27 16:56:14 2017

Tools Copyright (c) 1996-2014 Texas Instruments Incorporated
C:\Users\wmj\AppData\Local\Temp\1139610                              PAGE   80

         00000180 009D 
    4142                      .dwpsn  file "C:/ti/motorware/motorware_1_01_00_18/sw/modules/pid/src/32b/pid.h",line 277,column 3,is
    4143 00000181 D10E          MOVB      XAR1,#14              ; [CPU_] |277| 
    4144                      .dwpsn  file "C:/ti/motorware/motorware_1_01_00_18/sw/modules/pid/src/32b/pid.h",line 271,column 3,is
    4145 00000182 5661          MAXL      ACC,*+XAR5[AR0]       ; [CPU_] |271| 
         00000183 0095 
    4146                      .dwpsn  file "C:/ti/motorware/motorware_1_01_00_18/sw/modules/pid/src/32b/pid.h",line 274,column 3,is
    4147 00000184 D008          MOVB      XAR0,#8               ; [CPU_] |274| 
    4148                      .dwpsn  file "C:/ti/motorware/motorware_1_01_00_18/sw/modules/pid/src/32b/pid.h",line 273,column 3,is
    4149 00000185 1EF5          MOVL      *+XAR5[6],ACC         ; [CPU_] |273| 
    4150                      .dwpsn  file "C:/ti/motorware/motorware_1_01_00_18/sw/modules/pid/src/32b/pid.h",line 277,column 3,is
    4151 00000186 07A2          ADDL      ACC,XAR2              ; [CPU_] |277| 
    4152                      .dwpsn  file "C:/ti/motorware/motorware_1_01_00_18/sw/modules/pid/src/32b/pid.h",line 274,column 3,is
    4153 00000187 C395          MOVL      *+XAR5[AR0],XAR7      ; [CPU_] |274| 
    4154                      .dwpsn  file "C:/ti/motorware/motorware_1_01_00_18/sw/modules/pid/src/32b/pid.h",line 275,column 3,is
    4155 00000188 D00A          MOVB      XAR0,#10              ; [CPU_] |275| 
    4156 00000189 C295          MOVL      *+XAR5[AR0],XAR6      ; [CPU_] |275| 
    4157                      .dwpsn  file "C:/ti/motorware/motorware_1_01_00_18/sw/modules/pid/src/32b/pid.h",line 277,column 3,is
    4158 0000018a D00C          MOVB      XAR0,#12              ; [CPU_] |277| 
    4159 0000018b 5650          MINL      ACC,*+XAR5[AR1]       ; [CPU_] |277| 
         0000018c 009D 
    4160 0000018d 5661          MAXL      ACC,*+XAR5[AR0]       ; [CPU_] |277| 
         0000018e 0095 
    4161 0000018f 1EC4          MOVL      *+XAR4[0],ACC         ; [CPU_] |277| 
    4162                      .dwpsn  file "C:/ti/motorware/motorware_1_01_00_18/sw/modules/pid/src/32b/pid.h",line 279,column 3,is
    4163 00000190 6F07          B         $C$L49,UNC            ; [CPU_] |279| 
    4164                      ; branch occurs ; [] |279| 
    4165 00000191       $C$L48:    
    4166                      .dwpsn  file "C:/ti/motorware/motorware_1_01_00_18/sw/modules/ctrl/src/32b/ctrl.h",line 1727,column 3
    4167 00000191 D0BA          MOVB      XAR0,#186             ; [CPU_] |1727| 
    4168 00000192 0200          MOVB      ACC,#0                ; [CPU_] |1727| 
    4169 00000193 1E93          MOVL      *+XAR3[AR0],ACC       ; [CPU_] |1727| 
    4170                      .dwpsn  file "C:/ti/motorware/motorware_1_01_00_18/sw/modules/pid/src/32b/pid.h",line 413,column 3,is
    4171 00000194 D044          MOVB      XAR0,#68              ; [CPU_] |413| 
    4172 00000195 8A93          MOVL      XAR4,*+XAR3[AR0]      ; [CPU_] |413| 
    4173 00000196 1EF4          MOVL      *+XAR4[6],ACC         ; [CPU_] |413| 
    4174 00000197       $C$L49:    
    4175                      .dwpsn  file "C:/ti/motorware/motorware_1_01_00_18/sw/modules/ctrl/src/32b/ctrl.h",line 219,column 3,
    4176 00000197 8D00          MOVL      XAR0,#262             ; [CPU_] |219| 
         00000198 0106 
    4177 00000199 9293          MOV       AL,*+XAR3[AR0]        ; [CPU_] |219| 
    4178 0000019a 56C1          BF        $C$L55,EQ             ; [CPU_] |219| 
         0000019b 00D9 
    4179                      ; branchcc occurs ; [] |219| 
    4180 0000019c D09D          MOVB      XAR0,#157             ; [CPU_] |219| 
    4181 0000019d 9293          MOV       AL,*+XAR3[AR0]        ; [CPU_] |219| 
    4182 0000019e D0EC          MOVB      XAR0,#236             ; [CPU_] |219| 
    4183 0000019f 5493          CMP       AL,*+XAR3[AR0]        ; [CPU_] |219| 
    4184 000001a0 FFE6          B         $C$L55,HI             ; [CPU_] |219| 
         000001a1 00D3 
    4185                      ; branchcc occurs ; [] |219| 
    4186                      .dwpsn  file "C:/ti/motorware/motorware_1_01_00_18/sw/modules/ctrl/src/32b/ctrl.h",line 2226,column 2
    4187 000001a2 D018          MOVB      XAR0,#24              ; [CPU_] |2226| 
    4188 000001a3 8A93          MOVL      XAR4,*+XAR3[AR0]      ; [CPU_] |2226| 
    4189              $C$DW$401       .dwtag  DW_TAG_TI_branch
TMS320C2000 Assembler PC v6.2.5 Tue Jun 27 16:56:14 2017

Tools Copyright (c) 1996-2014 Texas Instruments Incorporated
C:\Users\wmj\AppData\Local\Temp\1139610                              PAGE   81

    4190                      .dwattr $C$DW$401, DW_AT_low_pc(0x00)
    4191                      .dwattr $C$DW$401, DW_AT_name("_EST_doCurrentCtrl")
    4192                      .dwattr $C$DW$401, DW_AT_TI_call
    4193 000001a4 7640!         LCR       #_EST_doCurrentCtrl   ; [CPU_] |2226| 
         000001a5 0000 
    4194                      ; call occurs [#_EST_doCurrentCtrl] ; [] |2226| 
    4195 000001a6 5200          CMPB      AL,#0                 ; [CPU_] |2226| 
    4196 000001a7 56C1          BF        $C$L55,EQ             ; [CPU_] |2226| 
         000001a8 00CC 
    4197                      ; branchcc occurs ; [] |2226| 
    4198                      .dwpsn  file "C:/ti/motorware/motorware_1_01_00_18/sw/modules/ctrl/src/32b/ctrl.h",line 517,column 3,
    4199 000001a9 D0CA          MOVB      XAR0,#202             ; [CPU_] |517| 
    4200 000001aa 8B93          MOVL      XAR1,*+XAR3[AR0]      ; [CPU_] |517| 
    4201 000001ab D0CC          MOVB      XAR0,#204             ; [CPU_] |517| 
    4202 000001ac 0693          MOVL      ACC,*+XAR3[AR0]       ; [CPU_] |517| 
    4203                      .dwpsn  file "C:/ti/motorware/motorware_1_01_00_18/sw/modules/ctrl/src/32b/ctrl.h",line 545,column 3,
    4204 000001ad D0A8          MOVB      XAR0,#168             ; [CPU_] |545| 
    4205                      .dwpsn  file "C:/ti/motorware/motorware_1_01_00_18/sw/modules/ctrl/src/32b/ctrl.h",line 517,column 3,
    4206 000001ae 1E54          MOVL      *-SP[20],ACC          ; [CPU_] |517| 
    4207                      .dwpsn  file "C:/ti/motorware/motorware_1_01_00_18/sw/modules/ctrl/src/32b/ctrl.h",line 545,column 3,
    4208 000001af 8693          MOVL      XAR2,*+XAR3[AR0]      ; [CPU_] |545| 
    4209                      .dwpsn  file "C:/ti/motorware/motorware_1_01_00_18/sw/modules/ctrl/src/32b/ctrl.h",line 1075,column 3
    4210 000001b0 D0EC          MOVB      XAR0,#236             ; [CPU_] |1075| 
    4211 000001b1 2B93          MOV       *+XAR3[AR0],#0        ; [CPU_] |1075| 
    4212                      .dwpsn  file "C:/ti/motorware/motorware_1_01_00_18/sw/modules/ctrl/src/32b/ctrl.h",line 230,column 3,
    4213 000001b2 D0F1          MOVB      XAR0,#241             ; [CPU_] |230| 
    4214 000001b3 9293          MOV       AL,*+XAR3[AR0]        ; [CPU_] |230| 
    4215 000001b4 EC0C          BF        $C$L50,EQ             ; [CPU_] |230| 
    4216                      ; branchcc occurs ; [] |230| 
    4217                      .dwpsn  file "C:/ti/motorware/motorware_1_01_00_18/sw/modules/ctrl/src/32b/ctrl.h",line 2246,column 1
    4218 000001b5 D018          MOVB      XAR0,#24              ; [CPU_] |2246| 
    4219 000001b6 8A93          MOVL      XAR4,*+XAR3[AR0]      ; [CPU_] |2246| 
    4220              $C$DW$402       .dwtag  DW_TAG_TI_branch
    4221                      .dwattr $C$DW$402, DW_AT_low_pc(0x00)
    4222                      .dwattr $C$DW$402, DW_AT_name("_EST_getOneOverDcBus_pu")
    4223                      .dwattr $C$DW$402, DW_AT_TI_call
    4224 000001b7 7640!         LCR       #_EST_getOneOverDcBus_pu ; [CPU_] |2246| 
         000001b8 0000 
    4225                      ; call occurs [#_EST_getOneOverDcBus_pu] ; [] |2246| 
    4226 000001b9 B2AC          MOVL      XT,XAR1               ; [CPU_] |2246| 
    4227 000001ba 5605          IMPYL     P,XT,ACC              ; [CPU_] |2246| 
         000001bb 00A9 
    4228 000001bc 5663          QMPYL     ACC,XT,ACC            ; [CPU_] |2246| 
         000001bd 00A9 
    4229 000001be 56A7          LSL64     ACC:P,#8              ; [CPU_] |2246| 
    4230 000001bf 8BA9          MOVL      XAR1,ACC              ; [CPU_] |2246| 
    4231 000001c0       $C$L50:    
    4232                      .dwpsn  file "C:/ti/motorware/motorware_1_01_00_18/sw/modules/pid/src/32b/pid.h",line 346,column 3,is
    4233 000001c0 D020          MOVB      XAR0,#32              ; [CPU_] |346| 
    4234 000001c1 8A93          MOVL      XAR4,*+XAR3[AR0]      ; [CPU_] |346| 
    4235                      .dwpsn  file "C:/ti/motorware/motorware_1_01_00_18/sw/modules/ctrl/src/32b/ctrl.h",line 340,column 3,
    4236 000001c2 02E2          MOVB      ACC,#226              ; [CPU_] |340| 
    4237                      .dwpsn  file "C:/ti/motorware/motorware_1_01_00_18/sw/modules/ctrl/src/32b/ctrl.h",line 2252,column 6
    4238 000001c3 D060          MOVB      XAR0,#96              ; [CPU_] |2252| 
    4239                      .dwpsn  file "C:/ti/motorware/motorware_1_01_00_18/sw/modules/ctrl/src/32b/ctrl.h",line 340,column 3,
TMS320C2000 Assembler PC v6.2.5 Tue Jun 27 16:56:14 2017

Tools Copyright (c) 1996-2014 Texas Instruments Incorporated
C:\Users\wmj\AppData\Local\Temp\1139610                              PAGE   82

    4240 000001c4 07A3          ADDL      ACC,XAR3              ; [CPU_] |340| 
    4241                      .dwpsn  file "C:/ti/motorware/motorware_1_01_00_18/sw/modules/pid/src/32b/pid.h",line 346,column 3,is
    4242 000001c5 B2C4          MOVL      *+XAR4[0],XAR1        ; [CPU_] |346| 
    4243                      .dwpsn  file "C:/ti/motorware/motorware_1_01_00_18/sw/modules/ctrl/src/32b/ctrl.h",line 340,column 3,
    4244 000001c6 1E56          MOVL      *-SP[22],ACC          ; [CPU_] |340| 
    4245                      .dwpsn  file "C:/ti/motorware/motorware_1_01_00_18/sw/modules/ctrl/src/32b/ctrl.h",line 2252,column 6
    4246 000001c7 8393          MOVL      XAR5,*+XAR3[AR0]      ; [CPU_] |2252| 
    4247 000001c8 8AA9          MOVL      XAR4,ACC              ; [CPU_] |2252| 
    4248                      .dwpsn  file "C:/ti/motorware/motorware_1_01_00_18/sw/modules/ctrl/src/32b/ctrl.h",line 2255,column 6
    4249 000001c9 D018          MOVB      XAR0,#24              ; [CPU_] |2255| 
    4250                      .dwpsn  file "C:/ti/motorware/motorware_1_01_00_18/sw/modules/ctrl/src/32b/ctrl.h",line 2252,column 6
    4251 000001ca 06C4          MOVL      ACC,*+XAR4[0]         ; [CPU_] |2252| 
    4252 000001cb 07D5          ADDL      ACC,*+XAR5[2]         ; [CPU_] |2252| 
    4253                      .dwpsn  file "C:/ti/motorware/motorware_1_01_00_18/sw/modules/ctrl/src/32b/ctrl.h",line 2255,column 6
    4254 000001cc 5DAD          MOVZ      AR5,SP                ; [CPU_U] |2255| 
    4255                      .dwpsn  file "C:/ti/motorware/motorware_1_01_00_18/sw/modules/ctrl/src/32b/ctrl.h",line 2252,column 6
    4256 000001cd 1E48          MOVL      *-SP[8],ACC           ; [CPU_] |2252| 
    4257                      .dwpsn  file "C:/ti/motorware/motorware_1_01_00_18/sw/modules/ctrl/src/32b/ctrl.h",line 2255,column 6
    4258 000001ce DD88          SUBB      XAR5,#8               ; [CPU_U] |2255| 
    4259 000001cf 8A93          MOVL      XAR4,*+XAR3[AR0]      ; [CPU_] |2255| 
    4260              $C$DW$403       .dwtag  DW_TAG_TI_branch
    4261                      .dwattr $C$DW$403, DW_AT_low_pc(0x00)
    4262                      .dwattr $C$DW$403, DW_AT_name("_EST_updateId_ref_pu")
    4263                      .dwattr $C$DW$403, DW_AT_TI_call
    4264 000001d0 7640!         LCR       #_EST_updateId_ref_pu ; [CPU_] |2255| 
         000001d1 0000 
    4265                      ; call occurs [#_EST_updateId_ref_pu] ; [] |2255| 
    4266                      .dwpsn  file "C:/ti/motorware/motorware_1_01_00_18/sw/modules/ctrl/src/32b/ctrl.h",line 329,column 3,
    4267 000001d2 02B2          MOVB      ACC,#178              ; [CPU_] |329| 
    4268                      .dwpsn  file "C:/ti/motorware/motorware_1_01_00_18/sw/modules/pid/src/32b/pid.h",line 358,column 16,i
    4269 000001d3 D020          MOVB      XAR0,#32              ; [CPU_] |358| 
    4270                      .dwpsn  file "C:/ti/motorware/motorware_1_01_00_18/sw/modules/ctrl/src/32b/ctrl.h",line 329,column 3,
    4271 000001d4 07A3          ADDL      ACC,XAR3              ; [CPU_] |329| 
    4272 000001d5 1E58          MOVL      *-SP[24],ACC          ; [CPU_] |329| 
    4273 000001d6 8AA9          MOVL      XAR4,ACC              ; [CPU_] |329| 
    4274                      .dwpsn  file "C:/ti/motorware/motorware_1_01_00_18/sw/modules/pid/src/32b/pid.h",line 360,column 3,is
    4275 000001d7 AAA9          MOVL      ACC,XAR2              ; [CPU_] |360| 
    4276                      .dwpsn  file "C:/ti/motorware/motorware_1_01_00_18/sw/modules/ctrl/src/32b/ctrl.h",line 329,column 3,
    4277 000001d8 C5C4          MOVL      XAR7,*+XAR4[0]        ; [CPU_] |329| 
    4278                      .dwpsn  file "C:/ti/motorware/motorware_1_01_00_18/sw/modules/pid/src/32b/pid.h",line 358,column 16,i
    4279 000001d9 8A93          MOVL      XAR4,*+XAR3[AR0]      ; [CPU_] |358| 
    4280                      .dwpsn  file "C:/ti/motorware/motorware_1_01_00_18/sw/modules/pid/src/32b/pid.h",line 360,column 3,is
    4281 000001da FF54          NEG       ACC                   ; [CPU_] |360| 
    4282                      .dwpsn  file "C:/ti/motorware/motorware_1_01_00_18/sw/modules/pid/src/32b/pid.h",line 243,column 3,is
    4283 000001db D10E          MOVB      XAR1,#14              ; [CPU_] |243| 
    4284                      .dwpsn  file "C:/ti/motorware/motorware_1_01_00_18/sw/modules/pid/src/32b/pid.h",line 360,column 3,is
    4285 000001dc D00C          MOVB      XAR0,#12              ; [CPU_] |360| 
    4286 000001dd 1E94          MOVL      *+XAR4[AR0],ACC       ; [CPU_] |360| 
    4287                      .dwpsn  file "C:/ti/motorware/motorware_1_01_00_18/sw/modules/pid/src/32b/pid.h",line 361,column 3,is
    4288 000001de D00E          MOVB      XAR0,#14              ; [CPU_] |361| 
    4289                      .dwpsn  file "C:/ti/motorware/motorware_1_01_00_18/sw/modules/ctrl/src/32b/ctrl.h",line 869,column 3,
    4290 000001df 02C0          MOVB      ACC,#192              ; [CPU_] |869| 
    4291 000001e0 07A3          ADDL      ACC,XAR3              ; [CPU_] |869| 
    4292                      .dwpsn  file "C:/ti/motorware/motorware_1_01_00_18/sw/modules/pid/src/32b/pid.h",line 361,column 3,is
    4293 000001e1 AA94          MOVL      *+XAR4[AR0],XAR2      ; [CPU_] |361| 
TMS320C2000 Assembler PC v6.2.5 Tue Jun 27 16:56:14 2017

Tools Copyright (c) 1996-2014 Texas Instruments Incorporated
C:\Users\wmj\AppData\Local\Temp\1139610                              PAGE   83

    4294                      .dwpsn  file "C:/ti/motorware/motorware_1_01_00_18/sw/modules/pid/src/32b/pid.h",line 233,column 16,i
    4295 000001e2 D020          MOVB      XAR0,#32              ; [CPU_] |233| 
    4296                      .dwpsn  file "C:/ti/motorware/motorware_1_01_00_18/sw/modules/ctrl/src/32b/ctrl.h",line 2268,column 6
    4297 000001e3 C448          MOVL      XAR6,*-SP[8]          ; [CPU_] |2268| 
    4298                      .dwpsn  file "C:/ti/motorware/motorware_1_01_00_18/sw/modules/ctrl/src/32b/ctrl.h",line 869,column 3,
    4299 000001e4 1E5C          MOVL      *-SP[28],ACC          ; [CPU_] |869| 
    4300 000001e5 8AA9          MOVL      XAR4,ACC              ; [CPU_] |869| 
    4301                      .dwpsn  file "C:/ti/motorware/motorware_1_01_00_18/sw/modules/pid/src/32b/pid.h",line 233,column 16,i
    4302 000001e6 8393          MOVL      XAR5,*+XAR3[AR0]      ; [CPU_] |233| 
    4303                      .dwpsn  file "C:/ti/motorware/motorware_1_01_00_18/sw/modules/pid/src/32b/pid.h",line 242,column 3,is
    4304 000001e7 06A6          MOVL      ACC,XAR6              ; [CPU_] |242| 
    4305                      .dwpsn  file "C:/ti/motorware/motorware_1_01_00_18/sw/modules/pid/src/32b/pid.h",line 243,column 3,is
    4306 000001e8 D00C          MOVB      XAR0,#12              ; [CPU_] |243| 
    4307                      .dwpsn  file "C:/ti/motorware/motorware_1_01_00_18/sw/modules/pid/src/32b/pid.h",line 242,column 3,is
    4308 000001e9 03A7          SUBL      ACC,XAR7              ; [CPU_] |242| 
    4309 000001ea 87C5          MOVL      XT,*+XAR5[0]          ; [CPU_] |242| 
    4310 000001eb 5605          IMPYL     P,XT,ACC              ; [CPU_] |242| 
         000001ec 00A9 
    4311 000001ed 5663          QMPYL     ACC,XT,ACC            ; [CPU_] |242| 
         000001ee 00A9 
    4312 000001ef 1E52          MOVL      *-SP[18],ACC          ; [CPU_] |242| 
    4313 000001f0 56A7          LSL64     ACC:P,#8              ; [CPU_] |242| 
    4314 000001f1 1E52          MOVL      *-SP[18],ACC          ; [CPU_] |242| 
    4315                      .dwpsn  file "C:/ti/motorware/motorware_1_01_00_18/sw/modules/pid/src/32b/pid.h",line 243,column 3,is
    4316 000001f2 0652          MOVL      ACC,*-SP[18]          ; [CPU_] |243| 
    4317 000001f3 87D5          MOVL      XT,*+XAR5[2]          ; [CPU_] |243| 
    4318 000001f4 5605          IMPYL     P,XT,ACC              ; [CPU_] |243| 
         000001f5 00A9 
    4319 000001f6 0652          MOVL      ACC,*-SP[18]          ; [CPU_] |243| 
    4320 000001f7 5663          QMPYL     ACC,XT,ACC            ; [CPU_] |243| 
         000001f8 00A9 
    4321 000001f9 56A7          LSL64     ACC:P,#8              ; [CPU_] |243| 
    4322 000001fa 07F5          ADDL      ACC,*+XAR5[6]         ; [CPU_] |243| 
    4323 000001fb 5650          MINL      ACC,*+XAR5[AR1]       ; [CPU_] |243| 
         000001fc 009D 
    4324 000001fd 5661          MAXL      ACC,*+XAR5[AR0]       ; [CPU_] |243| 
         000001fe 0095 
    4325                      .dwpsn  file "C:/ti/motorware/motorware_1_01_00_18/sw/modules/pid/src/32b/pid.h",line 246,column 3,is
    4326 000001ff D008          MOVB      XAR0,#8               ; [CPU_] |246| 
    4327                      .dwpsn  file "C:/ti/motorware/motorware_1_01_00_18/sw/modules/pid/src/32b/pid.h",line 245,column 3,is
    4328 00000200 1EF5          MOVL      *+XAR5[6],ACC         ; [CPU_] |245| 
    4329                      .dwpsn  file "C:/ti/motorware/motorware_1_01_00_18/sw/modules/pid/src/32b/pid.h",line 246,column 3,is
    4330 00000201 C295          MOVL      *+XAR5[AR0],XAR6      ; [CPU_] |246| 
    4331                      .dwpsn  file "C:/ti/motorware/motorware_1_01_00_18/sw/modules/pid/src/32b/pid.h",line 247,column 3,is
    4332 00000202 D00A          MOVB      XAR0,#10              ; [CPU_] |247| 
    4333 00000203 C395          MOVL      *+XAR5[AR0],XAR7      ; [CPU_] |247| 
    4334                      .dwpsn  file "C:/ti/motorware/motorware_1_01_00_18/sw/modules/pid/src/32b/pid.h",line 249,column 3,is
    4335 00000204 C552          MOVL      XAR7,*-SP[18]         ; [CPU_] |249| 
    4336 00000205 D10E          MOVB      XAR1,#14              ; [CPU_] |249| 
    4337 00000206 D00C          MOVB      XAR0,#12              ; [CPU_] |249| 
    4338 00000207 07A7          ADDL      ACC,XAR7              ; [CPU_] |249| 
    4339 00000208 5650          MINL      ACC,*+XAR5[AR1]       ; [CPU_] |249| 
         00000209 009D 
    4340 0000020a 5661          MAXL      ACC,*+XAR5[AR0]       ; [CPU_] |249| 
         0000020b 0095 
TMS320C2000 Assembler PC v6.2.5 Tue Jun 27 16:56:14 2017

Tools Copyright (c) 1996-2014 Texas Instruments Incorporated
C:\Users\wmj\AppData\Local\Temp\1139610                              PAGE   84

    4341                      .dwpsn  file "C:/ti/motorware/motorware_1_01_00_18/sw/modules/ctrl/src/32b/ctrl.h",line 2271,column 6
    4342 0000020c D018          MOVB      XAR0,#24              ; [CPU_] |2271| 
    4343                      .dwpsn  file "C:/ti/motorware/motorware_1_01_00_18/sw/modules/pid/src/32b/pid.h",line 249,column 3,is
    4344 0000020d 1EC4          MOVL      *+XAR4[0],ACC         ; [CPU_] |249| 
    4345                      .dwpsn  file "C:/ti/motorware/motorware_1_01_00_18/sw/modules/ctrl/src/32b/ctrl.h",line 2271,column 6
    4346 0000020e 06A6          MOVL      ACC,XAR6              ; [CPU_] |2271| 
    4347 0000020f 8A93          MOVL      XAR4,*+XAR3[AR0]      ; [CPU_] |2271| 
    4348              $C$DW$404       .dwtag  DW_TAG_TI_branch
    4349                      .dwattr $C$DW$404, DW_AT_low_pc(0x00)
    4350                      .dwattr $C$DW$404, DW_AT_name("_EST_setId_ref_pu")
    4351                      .dwattr $C$DW$404, DW_AT_TI_call
    4352 00000210 7640!         LCR       #_EST_setId_ref_pu    ; [CPU_] |2271| 
         00000211 0000 
    4353                      ; call occurs [#_EST_setId_ref_pu] ; [] |2271| 
    4354                      .dwpsn  file "C:/ti/motorware/motorware_1_01_00_18/sw/modules/ctrl/src/32b/ctrl.h",line 230,column 3,
    4355 00000212 D0F1          MOVB      XAR0,#241             ; [CPU_] |230| 
    4356 00000213 9293          MOV       AL,*+XAR3[AR0]        ; [CPU_] |230| 
    4357 00000214 EC0E          BF        $C$L51,EQ             ; [CPU_] |230| 
    4358                      ; branchcc occurs ; [] |230| 
    4359                      .dwpsn  file "C:/ti/motorware/motorware_1_01_00_18/sw/modules/ctrl/src/32b/ctrl.h",line 2280,column 1
    4360 00000215 D018          MOVB      XAR0,#24              ; [CPU_] |2280| 
    4361 00000216 8A93          MOVL      XAR4,*+XAR3[AR0]      ; [CPU_] |2280| 
    4362              $C$DW$405       .dwtag  DW_TAG_TI_branch
    4363                      .dwattr $C$DW$405, DW_AT_low_pc(0x00)
    4364                      .dwattr $C$DW$405, DW_AT_name("_EST_getOneOverDcBus_pu")
    4365                      .dwattr $C$DW$405, DW_AT_TI_call
    4366 00000217 7640!         LCR       #_EST_getOneOverDcBus_pu ; [CPU_] |2280| 
         00000218 0000 
    4367                      ; call occurs [#_EST_getOneOverDcBus_pu] ; [] |2280| 
    4368 00000219 8754          MOVL      XT,*-SP[20]           ; [CPU_] |2280| 
    4369 0000021a 5605          IMPYL     P,XT,ACC              ; [CPU_] |2280| 
         0000021b 00A9 
    4370 0000021c 8754          MOVL      XT,*-SP[20]           ; [CPU_] |2280| 
    4371 0000021d 5663          QMPYL     ACC,XT,ACC            ; [CPU_] |2280| 
         0000021e 00A9 
    4372 0000021f 1E54          MOVL      *-SP[20],ACC          ; [CPU_] |2280| 
    4373 00000220 56A7          LSL64     ACC:P,#8              ; [CPU_] |2280| 
    4374 00000221 1E54          MOVL      *-SP[20],ACC          ; [CPU_] |2280| 
    4375 00000222       $C$L51:    
    4376                      .dwpsn  file "C:/ti/motorware/motorware_1_01_00_18/sw/modules/pid/src/32b/pid.h",line 346,column 3,is
    4377 00000222 D032          MOVB      XAR0,#50              ; [CPU_] |346| 
    4378 00000223 8A93          MOVL      XAR4,*+XAR3[AR0]      ; [CPU_] |346| 
    4379 00000224 0654          MOVL      ACC,*-SP[20]          ; [CPU_] |346| 
    4380                      .dwpsn  file "C:/ti/motorware/motorware_1_01_00_18/sw/modules/ctrl/src/32b/ctrl.h",line 263,column 3,
    4381 00000225 D0F4          MOVB      XAR0,#244             ; [CPU_] |263| 
    4382                      .dwpsn  file "C:/ti/motorware/motorware_1_01_00_18/sw/modules/pid/src/32b/pid.h",line 346,column 3,is
    4383 00000226 1EC4          MOVL      *+XAR4[0],ACC         ; [CPU_] |346| 
    4384                      .dwpsn  file "C:/ti/motorware/motorware_1_01_00_18/sw/modules/ctrl/src/32b/ctrl.h",line 263,column 3,
    4385 00000227 9293          MOV       AL,*+XAR3[AR0]        ; [CPU_] |263| 
    4386 00000228 EC0C          BF        $C$L53,EQ             ; [CPU_] |263| 
    4387                      ; branchcc occurs ; [] |263| 
    4388                      .dwpsn  file "C:/ti/motorware/motorware_1_01_00_18/sw/modules/ctrl/src/32b/ctrl.h",line 1976,column 3
    4389 00000229 D018          MOVB      XAR0,#24              ; [CPU_] |1976| 
    4390 0000022a 8A93          MOVL      XAR4,*+XAR3[AR0]      ; [CPU_] |1976| 
    4391              $C$DW$406       .dwtag  DW_TAG_TI_branch
TMS320C2000 Assembler PC v6.2.5 Tue Jun 27 16:56:14 2017

Tools Copyright (c) 1996-2014 Texas Instruments Incorporated
C:\Users\wmj\AppData\Local\Temp\1139610                              PAGE   85

    4392                      .dwattr $C$DW$406, DW_AT_low_pc(0x00)
    4393                      .dwattr $C$DW$406, DW_AT_name("_EST_useZeroIq_ref")
    4394                      .dwattr $C$DW$406, DW_AT_TI_call
    4395 0000022b 7640!         LCR       #_EST_useZeroIq_ref   ; [CPU_] |1976| 
         0000022c 0000 
    4396                      ; call occurs [#_EST_useZeroIq_ref] ; [] |1976| 
    4397 0000022d 5200          CMPB      AL,#0                 ; [CPU_] |1976| 
    4398 0000022e ED04          BF        $C$L52,NEQ            ; [CPU_] |1976| 
    4399                      ; branchcc occurs ; [] |1976| 
    4400                      .dwpsn  file "C:/ti/motorware/motorware_1_01_00_18/sw/modules/ctrl/src/32b/ctrl.h",line 727,column 3,
    4401 0000022f D0BA          MOVB      XAR0,#186             ; [CPU_] |727| 
    4402 00000230 0693          MOVL      ACC,*+XAR3[AR0]       ; [CPU_] |727| 
    4403 00000231 6F05          B         $C$L54,UNC            ; [CPU_] |727| 
    4404                      ; branch occurs ; [] |727| 
    4405 00000232       $C$L52:    
    4406                      .dwpsn  file "C:/ti/motorware/motorware_1_01_00_18/sw/modules/ctrl/src/32b/ctrl.h",line 2294,column 1
    4407 00000232 0200          MOVB      ACC,#0                ; [CPU_] |2294| 
    4408 00000233 6F03          B         $C$L54,UNC            ; [CPU_] |2294| 
    4409                      ; branch occurs ; [] |2294| 
    4410 00000234       $C$L53:    
    4411 00000234 8A56          MOVL      XAR4,*-SP[22]         ; [CPU_] 
    4412                      .dwpsn  file "C:/ti/motorware/motorware_1_01_00_18/sw/modules/ctrl/src/32b/ctrl.h",line 418,column 3,
    4413 00000235 06D4          MOVL      ACC,*+XAR4[2]         ; [CPU_] |418| 
    4414 00000236       $C$L54:    
    4415 00000236 8A58          MOVL      XAR4,*-SP[24]         ; [CPU_] 
    4416 00000237 1E48          MOVL      *-SP[8],ACC           ; [CPU_] |418| 
    4417                      .dwpsn  file "C:/ti/motorware/motorware_1_01_00_18/sw/modules/ctrl/src/32b/ctrl.h",line 396,column 3,
    4418 00000238 C4D4          MOVL      XAR6,*+XAR4[2]        ; [CPU_] |396| 
    4419 00000239 8A5C          MOVL      XAR4,*-SP[28]         ; [CPU_] |396| 
    4420                      .dwpsn  file "C:/ti/motorware/motorware_1_01_00_18/sw/modules/pid/src/32b/pid.h",line 358,column 16,i
    4421 0000023a D032          MOVB      XAR0,#50              ; [CPU_] |358| 
    4422 0000023b 8393          MOVL      XAR5,*+XAR3[AR0]      ; [CPU_] |358| 
    4423                      .dwpsn  file "C:/ti/motorware/motorware_1_01_00_18/sw/modules/pid/src/32b/pid.h",line 360,column 3,is
    4424 0000023c D00C          MOVB      XAR0,#12              ; [CPU_] |360| 
    4425                      .dwpsn  file "C:/ti/motorware/motorware_1_01_00_18/sw/modules/ctrl/src/32b/ctrl.h",line 880,column 3,
    4426 0000023d 06C4          MOVL      ACC,*+XAR4[0]         ; [CPU_] |880| 
    4427                      .dwpsn  file "C:/ti/motorware/motorware_1_01_00_18/sw/modules/pid/src/32b/pid.h",line 360,column 3,is
    4428 0000023e FF56          ABS       ACC                   ; [CPU_] |360| 
    4429 0000023f FF5A          MOVL      P,ACC                 ; [CPU_] |360| 
    4430 00000240 565D          SUBUL     P,XAR2                ; [CPU_] |360| 
         00000241 00A2 
    4431 00000242 A995          MOVL      *+XAR5[AR0],P         ; [CPU_] |360| 
    4432                      .dwpsn  file "C:/ti/motorware/motorware_1_01_00_18/sw/modules/pid/src/32b/pid.h",line 361,column 3,is
    4433 00000243 D00E          MOVB      XAR0,#14              ; [CPU_] |361| 
    4434 00000244 AAAB          MOVL      P,XAR2                ; [CPU_] |361| 
    4435 00000245 5641          SUBL      P,ACC                 ; [CPU_] |361| 
         00000246 00AB 
    4436 00000247 A995          MOVL      *+XAR5[AR0],P         ; [CPU_] |361| 
    4437                      .dwpsn  file "C:/ti/motorware/motorware_1_01_00_18/sw/modules/pid/src/32b/pid.h",line 233,column 16,i
    4438 00000248 D032          MOVB      XAR0,#50              ; [CPU_] |233| 
    4439                      .dwpsn  file "C:/ti/motorware/motorware_1_01_00_18/sw/modules/pid/src/32b/pid.h",line 242,column 3,is
    4440 00000249 0648          MOVL      ACC,*-SP[8]           ; [CPU_] |242| 
    4441                      .dwpsn  file "C:/ti/motorware/motorware_1_01_00_18/sw/modules/pid/src/32b/pid.h",line 233,column 16,i
    4442 0000024a 8393          MOVL      XAR5,*+XAR3[AR0]      ; [CPU_] |233| 
    4443                      .dwpsn  file "C:/ti/motorware/motorware_1_01_00_18/sw/modules/pid/src/32b/pid.h",line 243,column 3,is
TMS320C2000 Assembler PC v6.2.5 Tue Jun 27 16:56:14 2017

Tools Copyright (c) 1996-2014 Texas Instruments Incorporated
C:\Users\wmj\AppData\Local\Temp\1139610                              PAGE   86

    4444 0000024b D10E          MOVB      XAR1,#14              ; [CPU_] |243| 
    4445                      .dwpsn  file "C:/ti/motorware/motorware_1_01_00_18/sw/modules/pid/src/32b/pid.h",line 242,column 3,is
    4446 0000024c 03A6          SUBL      ACC,XAR6              ; [CPU_] |242| 
    4447                      .dwpsn  file "C:/ti/motorware/motorware_1_01_00_18/sw/modules/pid/src/32b/pid.h",line 243,column 3,is
    4448 0000024d D00C          MOVB      XAR0,#12              ; [CPU_] |243| 
    4449                      .dwpsn  file "C:/ti/motorware/motorware_1_01_00_18/sw/modules/pid/src/32b/pid.h",line 242,column 3,is
    4450 0000024e 87C5          MOVL      XT,*+XAR5[0]          ; [CPU_] |242| 
    4451 0000024f 5605          IMPYL     P,XT,ACC              ; [CPU_] |242| 
         00000250 00A9 
    4452 00000251 5663          QMPYL     ACC,XT,ACC            ; [CPU_] |242| 
         00000252 00A9 
    4453 00000253 56A7          LSL64     ACC:P,#8              ; [CPU_] |242| 
    4454 00000254 1EA7          MOVL      XAR7,ACC              ; [CPU_] |242| 
    4455                      .dwpsn  file "C:/ti/motorware/motorware_1_01_00_18/sw/modules/pid/src/32b/pid.h",line 243,column 3,is
    4456 00000255 87D5          MOVL      XT,*+XAR5[2]          ; [CPU_] |243| 
    4457 00000256 5605          IMPYL     P,XT,XAR7             ; [CPU_] |243| 
         00000257 00A7 
    4458 00000258 5663          QMPYL     ACC,XT,XAR7           ; [CPU_] |243| 
         00000259 00A7 
    4459 0000025a 56A7          LSL64     ACC:P,#8              ; [CPU_] |243| 
    4460 0000025b 07F5          ADDL      ACC,*+XAR5[6]         ; [CPU_] |243| 
    4461 0000025c 5650          MINL      ACC,*+XAR5[AR1]       ; [CPU_] |243| 
         0000025d 009D 
    4462                      .dwpsn  file "C:/ti/motorware/motorware_1_01_00_18/sw/modules/pid/src/32b/pid.h",line 249,column 3,is
    4463 0000025e D10E          MOVB      XAR1,#14              ; [CPU_] |249| 
    4464                      .dwpsn  file "C:/ti/motorware/motorware_1_01_00_18/sw/modules/pid/src/32b/pid.h",line 243,column 3,is
    4465 0000025f 5661          MAXL      ACC,*+XAR5[AR0]       ; [CPU_] |243| 
         00000260 0095 
    4466                      .dwpsn  file "C:/ti/motorware/motorware_1_01_00_18/sw/modules/pid/src/32b/pid.h",line 246,column 3,is
    4467 00000261 D008          MOVB      XAR0,#8               ; [CPU_] |246| 
    4468                      .dwpsn  file "C:/ti/motorware/motorware_1_01_00_18/sw/modules/pid/src/32b/pid.h",line 245,column 3,is
    4469 00000262 1EF5          MOVL      *+XAR5[6],ACC         ; [CPU_] |245| 
    4470                      .dwpsn  file "C:/ti/motorware/motorware_1_01_00_18/sw/modules/pid/src/32b/pid.h",line 246,column 3,is
    4471 00000263 A348          MOVL      P,*-SP[8]             ; [CPU_] |246| 
    4472                      .dwpsn  file "C:/ti/motorware/motorware_1_01_00_18/sw/modules/pid/src/32b/pid.h",line 249,column 3,is
    4473 00000264 07A7          ADDL      ACC,XAR7              ; [CPU_] |249| 
    4474                      .dwpsn  file "C:/ti/motorware/motorware_1_01_00_18/sw/modules/pid/src/32b/pid.h",line 246,column 3,is
    4475 00000265 A995          MOVL      *+XAR5[AR0],P         ; [CPU_] |246| 
    4476                      .dwpsn  file "C:/ti/motorware/motorware_1_01_00_18/sw/modules/pid/src/32b/pid.h",line 247,column 3,is
    4477 00000266 D00A          MOVB      XAR0,#10              ; [CPU_] |247| 
    4478 00000267 C295          MOVL      *+XAR5[AR0],XAR6      ; [CPU_] |247| 
    4479                      .dwpsn  file "C:/ti/motorware/motorware_1_01_00_18/sw/modules/pid/src/32b/pid.h",line 249,column 3,is
    4480 00000268 D00C          MOVB      XAR0,#12              ; [CPU_] |249| 
    4481 00000269 5650          MINL      ACC,*+XAR5[AR1]       ; [CPU_] |249| 
         0000026a 009D 
    4482 0000026b 5661          MAXL      ACC,*+XAR5[AR0]       ; [CPU_] |249| 
         0000026c 0095 
    4483 0000026d 1ED4          MOVL      *+XAR4[2],ACC         ; [CPU_] |249| 
    4484                      .dwpsn  file "C:/ti/motorware/motorware_1_01_00_18/sw/modules/ctrl/src/32b/ctrl.h",line 2317,column 6
    4485 0000026e 0648          MOVL      ACC,*-SP[8]           ; [CPU_] |2317| 
    4486 0000026f D018          MOVB      XAR0,#24              ; [CPU_] |2317| 
    4487 00000270 8A93          MOVL      XAR4,*+XAR3[AR0]      ; [CPU_] |2317| 
    4488              $C$DW$407       .dwtag  DW_TAG_TI_branch
    4489                      .dwattr $C$DW$407, DW_AT_low_pc(0x00)
    4490                      .dwattr $C$DW$407, DW_AT_name("_EST_setIq_ref_pu")
TMS320C2000 Assembler PC v6.2.5 Tue Jun 27 16:56:14 2017

Tools Copyright (c) 1996-2014 Texas Instruments Incorporated
C:\Users\wmj\AppData\Local\Temp\1139610                              PAGE   87

    4491                      .dwattr $C$DW$407, DW_AT_TI_call
    4492 00000271 7640!         LCR       #_EST_setIq_ref_pu    ; [CPU_] |2317| 
         00000272 0000 
    4493                      ; call occurs [#_EST_setIq_ref_pu] ; [] |2317| 
    4494 00000273       $C$L55:    
    4495                      .dwpsn  file "C:/ti/motorware/motorware_1_01_00_18/sw/modules/ipark/src/32b/ipark.h",line 173,column 
    4496 00000273 D056          MOVB      XAR0,#86              ; [CPU_] |173| 
    4497 00000274 8A93          MOVL      XAR4,*+XAR3[AR0]      ; [CPU_] |173| 
    4498                      .dwpsn  file "C:/ti/motorware/motorware_1_01_00_18/sw/modules/ipark/src/32b/ipark.h",line 175,column 
    4499 00000275 064C          MOVL      ACC,*-SP[12]          ; [CPU_] |175| 
    4500                      .dwpsn  file "C:/ti/motorware/motorware_1_01_00_18/sw/modules/ipark/src/32b/ipark.h",line 141,column 
    4501 00000276 D056          MOVB      XAR0,#86              ; [CPU_] |141| 
    4502                      .dwpsn  file "C:/ti/motorware/motorware_1_01_00_18/sw/modules/ipark/src/32b/ipark.h",line 175,column 
    4503 00000277 1ED4          MOVL      *+XAR4[2],ACC         ; [CPU_] |175| 
    4504                      .dwpsn  file "C:/ti/motorware/motorware_1_01_00_18/sw/modules/ipark/src/32b/ipark.h",line 176,column 
    4505 00000278 064A          MOVL      ACC,*-SP[10]          ; [CPU_] |176| 
    4506 00000279 1EC4          MOVL      *+XAR4[0],ACC         ; [CPU_] |176| 
    4507                      .dwpsn  file "C:/ti/motorware/motorware_1_01_00_18/sw/modules/ipark/src/32b/ipark.h",line 141,column 
    4508 0000027a C493          MOVL      XAR6,*+XAR3[AR0]      ; [CPU_] |141| 
    4509                      .dwpsn  file "C:/ti/motorware/motorware_1_01_00_18/sw/modules/ctrl/src/32b/ctrl.h",line 891,column 3,
    4510 0000027b 02C0          MOVB      ACC,#192              ; [CPU_] |891| 
    4511 0000027c 07A3          ADDL      ACC,XAR3              ; [CPU_] |891| 
    4512 0000027d 83A9          MOVL      XAR5,ACC              ; [CPU_] |891| 
    4513                      .dwpsn  file "C:/ti/motorware/motorware_1_01_00_18/sw/modules/ipark/src/32b/ipark.h",line 141,column 
    4514 0000027e C5C6          MOVL      XAR7,*+XAR6[0]        ; [CPU_] |141| 
    4515                      .dwpsn  file "C:/ti/motorware/motorware_1_01_00_18/sw/modules/ctrl/src/32b/ctrl.h",line 852,column 3,
    4516 0000027f 02BC          MOVB      ACC,#188              ; [CPU_] |852| 
    4517                      .dwpsn  file "C:/ti/motorware/motorware_1_01_00_18/sw/modules/ipark/src/32b/ipark.h",line 144,column 
    4518 00000280 8EC5          MOVL      XAR0,*+XAR5[0]        ; [CPU_] |144| 
    4519                      .dwpsn  file "C:/ti/motorware/motorware_1_01_00_18/sw/modules/ipark/src/32b/ipark.h",line 145,column 
    4520 00000281 83D5          MOVL      XAR5,*+XAR5[2]        ; [CPU_] |145| 
    4521                      .dwpsn  file "C:/ti/motorware/motorware_1_01_00_18/sw/modules/ctrl/src/32b/ctrl.h",line 852,column 3,
    4522 00000282 07A3          ADDL      ACC,XAR3              ; [CPU_] |852| 
    4523 00000283 3B01          SETC      SXM                   ; [CPU_] 
    4524                      .dwpsn  file "C:/ti/motorware/motorware_1_01_00_18/sw/modules/ipark/src/32b/ipark.h",line 142,column 
    4525 00000284 C4D6          MOVL      XAR6,*+XAR6[2]        ; [CPU_] |142| 
    4526                      .dwpsn  file "C:/ti/motorware/motorware_1_01_00_18/sw/modules/ipark/src/32b/ipark.h",line 148,column 
    4527 00000285 A0AC          MOVL      XT,XAR5               ; [CPU_] |148| 
    4528 00000286 8AA9          MOVL      XAR4,ACC              ; [CPU_] |148| 
    4529 00000287 5605          IMPYL     P,XT,XAR7             ; [CPU_] |148| 
         00000288 00A7 
    4530 00000289 5663          QMPYL     ACC,XT,XAR7           ; [CPU_] |148| 
         0000028a 00A7 
    4531 0000028b 56A7          LSL64     ACC:P,#8              ; [CPU_] |148| 
    4532 0000028c 3AAC          MOVL      XT,XAR0               ; [CPU_] |148| 
    4533 0000028d 86A9          MOVL      XAR2,ACC              ; [CPU_] |148| 
    4534 0000028e 5605          IMPYL     P,XT,XAR6             ; [CPU_] |148| 
         0000028f 00A6 
    4535 00000290 5663          QMPYL     ACC,XT,XAR6           ; [CPU_] |148| 
         00000291 00A6 
    4536 00000292 56A7          LSL64     ACC:P,#8              ; [CPU_] |148| 
    4537 00000293 A0AC          MOVL      XT,XAR5               ; [CPU_] |148| 
    4538 00000294 03A2          SUBL      ACC,XAR2              ; [CPU_] |148| 
    4539                      .dwpsn  file "C:/ti/motorware/motorware_1_01_00_18/sw/modules/ipark/src/32b/ipark.h",line 149,column 
    4540 00000295 5605          IMPYL     P,XT,XAR6             ; [CPU_] |149| 
TMS320C2000 Assembler PC v6.2.5 Tue Jun 27 16:56:14 2017

Tools Copyright (c) 1996-2014 Texas Instruments Incorporated
C:\Users\wmj\AppData\Local\Temp\1139610                              PAGE   88

         00000296 00A6 
    4541                      .dwpsn  file "C:/ti/motorware/motorware_1_01_00_18/sw/modules/ipark/src/32b/ipark.h",line 148,column 
    4542 00000297 1EC4          MOVL      *+XAR4[0],ACC         ; [CPU_] |148| 
    4543                      .dwpsn  file "C:/ti/motorware/motorware_1_01_00_18/sw/modules/ipark/src/32b/ipark.h",line 149,column 
    4544 00000298 5663          QMPYL     ACC,XT,XAR6           ; [CPU_] |149| 
         00000299 00A6 
    4545 0000029a 56A7          LSL64     ACC:P,#8              ; [CPU_] |149| 
    4546 0000029b 3AAC          MOVL      XT,XAR0               ; [CPU_] |149| 
    4547 0000029c 5605          IMPYL     P,XT,XAR7             ; [CPU_] |149| 
         0000029d 00A7 
    4548 0000029e 1EA6          MOVL      XAR6,ACC              ; [CPU_] |149| 
    4549 0000029f 5663          QMPYL     ACC,XT,XAR7           ; [CPU_] |149| 
         000002a0 00A7 
    4550 000002a1 56A7          LSL64     ACC:P,#8              ; [CPU_] |149| 
    4551 000002a2 07A6          ADDL      ACC,XAR6              ; [CPU_] |149| 
    4552 000002a3 1ED4          MOVL      *+XAR4[2],ACC         ; [CPU_] |149| 
    4553                      .dwpsn  file "C:/ti/motorware/motorware_1_01_00_18/sw/modules/svgen/src/32b/svgen.h",line 129,column 
    4554 000002a4 06C4          MOVL      ACC,*+XAR4[0]         ; [CPU_] |129| 
    4555                      .dwpsn  file "C:/ti/motorware/motorware_1_01_00_18/sw/modules/ipark/src/32b/ipark.h",line 149,column 
    4556 000002a5 C45A          MOVL      XAR6,*-SP[26]         ; [CPU_] |149| 
    4557                      .dwpsn  file "C:/ti/motorware/motorware_1_01_00_18/sw/modules/svgen/src/32b/svgen.h",line 129,column 
    4558 000002a6 FF40          SFR       ACC,1                 ; [CPU_] |129| 
    4559                      .dwpsn  file "C:/ti/motorware/motorware_1_01_00_18/sw/modules/svgen/src/32b/svgen.h",line 132,column 
    4560 000002a7 8EC4          MOVL      XAR0,*+XAR4[0]        ; [CPU_] |132| 
    4561                      .dwpsn  file "C:/ti/motorware/motorware_1_01_00_18/sw/modules/svgen/src/32b/svgen.h",line 129,column 
    4562 000002a8 FF54          NEG       ACC                   ; [CPU_] |129| 
    4563 000002a9 1EA7          MOVL      XAR7,ACC              ; [CPU_] |129| 
    4564                      .dwpsn  file "C:/ti/motorware/motorware_1_01_00_18/sw/modules/svgen/src/32b/svgen.h",line 130,column 
    4565 000002aa 28A9          MOV       AL,#46039             ; [CPU_] |130| 
         000002ab B3D7 
    4566 000002ac 9BDD          MOV       AH,#221               ; [CPU_] |130| 
    4567 000002ad 1EAC          MOVL      XT,ACC                ; [CPU_] |130| 
    4568 000002ae 5605          IMPYL     P,XT,*+XAR4[2]        ; [CPU_] |130| 
         000002af 00D4 
    4569 000002b0 5663          QMPYL     ACC,XT,*+XAR4[2]      ; [CPU_] |130| 
         000002b1 00D4 
    4570 000002b2 56A7          LSL64     ACC:P,#8              ; [CPU_] |130| 
    4571                      .dwpsn  file "C:/ti/motorware/motorware_1_01_00_18/sw/modules/svgen/src/32b/svgen.h",line 133,column 
    4572 000002b3 FF5A          MOVL      P,ACC                 ; [CPU_] |133| 
    4573 000002b4 5657          ADDUL     P,XAR7                ; [CPU_] |133| 
         000002b5 00A7 
    4574                      .dwpsn  file "C:/ti/motorware/motorware_1_01_00_18/sw/modules/svgen/src/32b/svgen.h",line 134,column 
    4575 000002b6 5641          SUBL      XAR7,ACC              ; [CPU_] |134| 
         000002b7 00A7 
    4576                      .dwpsn  file "C:/ti/motorware/motorware_1_01_00_18/sw/modules/svgen/src/32b/svgen.h",line 133,column 
    4577 000002b8 A9A5          MOVL      XAR5,P                ; [CPU_] |133| 
    4578                      .dwpsn  file "C:/ti/motorware/motorware_1_01_00_18/sw/modules/svgen/src/32b/svgen.h",line 134,column 
    4579 000002b9 A0A9          MOVL      ACC,XAR5              ; [CPU_] |134| 
    4580                      .dwpsn  file "C:/ti/motorware/motorware_1_01_00_18/sw/modules/svgen/src/32b/svgen.h",line 140,column 
    4581 000002ba 0FA0          CMPL      ACC,XAR0              ; [CPU_] |140| 
    4582 000002bb 6403          B         $C$L56,LT             ; [CPU_] |140| 
    4583                      ; branchcc occurs ; [] |140| 
    4584                      .dwpsn  file "C:/ti/motorware/motorware_1_01_00_18/sw/modules/svgen/src/32b/svgen.h",line 148,column 
    4585 000002bc 3AAC          MOVL      XT,XAR0               ; [CPU_] |148| 
    4586 000002bd 6F03          B         $C$L57,UNC            ; [CPU_] |148| 
TMS320C2000 Assembler PC v6.2.5 Tue Jun 27 16:56:14 2017

Tools Copyright (c) 1996-2014 Texas Instruments Incorporated
C:\Users\wmj\AppData\Local\Temp\1139610                              PAGE   89

    4587                      ; branch occurs ; [] |148| 
    4588 000002be       $C$L56:    
    4589                      .dwpsn  file "C:/ti/motorware/motorware_1_01_00_18/sw/modules/svgen/src/32b/svgen.h",line 142,column 
    4590 000002be 3AAB          MOVL      P,XAR0                ; [CPU_] |142| 
    4591 000002bf A0AC          MOVL      XT,XAR5               ; [CPU_] |142| 
    4592 000002c0       $C$L57:    
    4593 000002c0 A9A9          MOVL      ACC,P                 ; [CPU_] 
    4594                      .dwpsn  file "C:/ti/motorware/motorware_1_01_00_18/sw/modules/svgen/src/32b/svgen.h",line 151,column 
    4595 000002c1 0FA7          CMPL      ACC,XAR7              ; [CPU_] |151| 
    4596 000002c2 FFE4          B         $C$L75,LT             ; [CPU_] |151| 
         000002c3 023B 
    4597                      ; branchcc occurs ; [] |151| 
    4598 000002c4 ABA9          MOVL      ACC,XT                ; [CPU_] 
    4599                      .dwpsn  file "C:/ti/motorware/motorware_1_01_00_18/sw/modules/svgen/src/32b/svgen.h",line 155,column 
    4600 000002c5 0FA7          CMPL      ACC,XAR7              ; [CPU_] |155| 
    4601 000002c6 FFE5          B         $C$L76,LEQ            ; [CPU_] |155| 
         000002c7 0238 
    4602                      ; branchcc occurs ; [] |155| 
    4603                      .dwpsn  file "C:/ti/motorware/motorware_1_01_00_18/sw/modules/svgen/src/32b/svgen.h",line 157,column 
    4604 000002c8 FFEF          B         $C$L74,UNC            ; [CPU_] |157| 
         000002c9 0233 
    4605                      ; branch occurs ; [] |157| 
    4606 000002ca       $C$L58:    
    4607                      .dwpsn  file "C:/ti/motorware/motorware_1_01_00_18/sw/modules/clarke/src/32b/clarke.h",line 125,colum
    4608 000002ca D008          MOVB      XAR0,#8               ; [CPU_] |125| 
    4609                      .dwpsn  file "C:/ti/motorware/motorware_1_01_00_18/sw/modules/ctrl/src/32b/ctrl.h",line 312,column 3,
    4610 000002cb 02AA          MOVB      ACC,#170              ; [CPU_] |312| 
    4611                      .dwpsn  file "C:/ti/motorware/motorware_1_01_00_18/sw/modules/clarke/src/32b/clarke.h",line 125,colum
    4612 000002cc C493          MOVL      XAR6,*+XAR3[AR0]      ; [CPU_] |125| 
    4613                      .dwpsn  file "C:/ti/motorware/motorware_1_01_00_18/sw/modules/ctrl/src/32b/ctrl.h",line 2354,column 2
    4614 000002cd 8AA2          MOVL      XAR4,XAR2             ; [CPU_] |2354| 
    4615                      .dwpsn  file "C:/ti/motorware/motorware_1_01_00_18/sw/modules/ctrl/src/32b/ctrl.h",line 312,column 3,
    4616 000002ce 07A3          ADDL      ACC,XAR3              ; [CPU_] |312| 
    4617 000002cf 8BA9          MOVL      XAR1,ACC              ; [CPU_] |312| 
    4618 000002d0 83A9          MOVL      XAR5,ACC              ; [CPU_] |312| 
    4619                      .dwpsn  file "C:/ti/motorware/motorware_1_01_00_18/sw/modules/clarke/src/32b/clarke.h",line 125,colum
    4620 000002d1 C5C6          MOVL      XAR7,*+XAR6[0]        ; [CPU_] |125| 
    4621                      .dwpsn  file "C:/ti/motorware/motorware_1_01_00_18/sw/modules/clarke/src/32b/clarke.h",line 126,colum
    4622 000002d2 8ED6          MOVL      XAR0,*+XAR6[2]        ; [CPU_] |126| 
    4623                      .dwpsn  file "C:/ti/motorware/motorware_1_01_00_18/sw/modules/clarke/src/32b/clarke.h",line 129,colum
    4624 000002d3 92E6          MOV       AL,*+XAR6[4]          ; [CPU_] |129| 
    4625 000002d4 5203          CMPB      AL,#3                 ; [CPU_] |129| 
    4626 000002d5 EC0E          BF        $C$L59,EQ             ; [CPU_] |129| 
    4627                      ; branchcc occurs ; [] |129| 
    4628                      .dwpsn  file "C:/ti/motorware/motorware_1_01_00_18/sw/modules/clarke/src/32b/clarke.h",line 134,colum
    4629 000002d6 5202          CMPB      AL,#2                 ; [CPU_] |134| 
    4630 000002d7 ED20          BF        $C$L61,NEQ            ; [CPU_] |134| 
    4631                      ; branchcc occurs ; [] |134| 
    4632                      .dwpsn  file "C:/ti/motorware/motorware_1_01_00_18/sw/modules/clarke/src/32b/clarke.h",line 136,colum
    4633 000002d8 87C4          MOVL      XT,*+XAR4[0]          ; [CPU_] |136| 
    4634 000002d9 5605          IMPYL     P,XT,XAR7             ; [CPU_] |136| 
         000002da 00A7 
    4635 000002db 5663          QMPYL     ACC,XT,XAR7           ; [CPU_] |136| 
         000002dc 00A7 
    4636 000002dd 56A7          LSL64     ACC:P,#8              ; [CPU_] |136| 
TMS320C2000 Assembler PC v6.2.5 Tue Jun 27 16:56:14 2017

Tools Copyright (c) 1996-2014 Texas Instruments Incorporated
C:\Users\wmj\AppData\Local\Temp\1139610                              PAGE   90

    4637 000002de 1EC5          MOVL      *+XAR5[0],ACC         ; [CPU_] |136| 
    4638                      .dwpsn  file "C:/ti/motorware/motorware_1_01_00_18/sw/modules/clarke/src/32b/clarke.h",line 137,colum
    4639 000002df 06D4          MOVL      ACC,*+XAR4[2]         ; [CPU_] |137| 
    4640 000002e0 FF30          LSL       ACC,1                 ; [CPU_] |137| 
    4641 000002e1 07C4          ADDL      ACC,*+XAR4[0]         ; [CPU_] |137| 
    4642 000002e2 6F0E          B         $C$L60,UNC            ; [CPU_] |137| 
    4643                      ; branch occurs ; [] |137| 
    4644 000002e3       $C$L59:    
    4645                      .dwpsn  file "C:/ti/motorware/motorware_1_01_00_18/sw/modules/clarke/src/32b/clarke.h",line 131,colum
    4646 000002e3 06C4          MOVL      ACC,*+XAR4[0]         ; [CPU_] |131| 
    4647 000002e4 FF30          LSL       ACC,1                 ; [CPU_] |131| 
    4648 000002e5 03D4          SUBL      ACC,*+XAR4[2]         ; [CPU_] |131| 
    4649 000002e6 03E4          SUBL      ACC,*+XAR4[4]         ; [CPU_] |131| 
    4650 000002e7 1EAC          MOVL      XT,ACC                ; [CPU_] |131| 
    4651 000002e8 5605          IMPYL     P,XT,XAR7             ; [CPU_] |131| 
         000002e9 00A7 
    4652 000002ea 5663          QMPYL     ACC,XT,XAR7           ; [CPU_] |131| 
         000002eb 00A7 
    4653 000002ec 56A7          LSL64     ACC:P,#8              ; [CPU_] |131| 
    4654 000002ed 1EC5          MOVL      *+XAR5[0],ACC         ; [CPU_] |131| 
    4655                      .dwpsn  file "C:/ti/motorware/motorware_1_01_00_18/sw/modules/clarke/src/32b/clarke.h",line 132,colum
    4656 000002ee 06D4          MOVL      ACC,*+XAR4[2]         ; [CPU_] |132| 
    4657 000002ef 03E4          SUBL      ACC,*+XAR4[4]         ; [CPU_] |132| 
    4658 000002f0       $C$L60:    
    4659 000002f0 1EAC          MOVL      XT,ACC                ; [CPU_] |132| 
    4660 000002f1 5605          IMPYL     P,XT,XAR0             ; [CPU_] |132| 
         000002f2 00A0 
    4661 000002f3 5663          QMPYL     ACC,XT,XAR0           ; [CPU_] |132| 
         000002f4 00A0 
    4662 000002f5 56A7          LSL64     ACC:P,#8              ; [CPU_] |132| 
    4663 000002f6 1ED5          MOVL      *+XAR5[2],ACC         ; [CPU_] |132| 
    4664 000002f7       $C$L61:    
    4665                      .dwpsn  file "C:/ti/motorware/motorware_1_01_00_18/sw/modules/ctrl/src/32b/ctrl.h",line 835,column 3,
    4666 000002f7 02B6          MOVB      ACC,#182              ; [CPU_] |835| 
    4667                      .dwpsn  file "C:/ti/motorware/motorware_1_01_00_18/sw/modules/clarke/src/32b/clarke.h",line 125,colum
    4668 000002f8 D010          MOVB      XAR0,#16              ; [CPU_] |125| 
    4669                      .dwpsn  file "C:/ti/motorware/motorware_1_01_00_18/sw/modules/ctrl/src/32b/ctrl.h",line 835,column 3,
    4670 000002f9 07A3          ADDL      ACC,XAR3              ; [CPU_] |835| 
    4671 000002fa 1E52          MOVL      *-SP[18],ACC          ; [CPU_] |835| 
    4672                      .dwpsn  file "C:/ti/motorware/motorware_1_01_00_18/sw/modules/clarke/src/32b/clarke.h",line 125,colum
    4673 000002fb C493          MOVL      XAR6,*+XAR3[AR0]      ; [CPU_] |125| 
    4674                      .dwpsn  file "C:/ti/motorware/motorware_1_01_00_18/sw/modules/ctrl/src/32b/ctrl.h",line 835,column 3,
    4675 000002fc 83A9          MOVL      XAR5,ACC              ; [CPU_] |835| 
    4676                      .dwpsn  file "C:/ti/motorware/motorware_1_01_00_18/sw/modules/ctrl/src/32b/ctrl.h",line 2358,column 2
    4677 000002fd DC06          ADDB      XAR4,#6               ; [CPU_] |2358| 
    4678                      .dwpsn  file "C:/ti/motorware/motorware_1_01_00_18/sw/modules/clarke/src/32b/clarke.h",line 125,colum
    4679 000002fe C5C6          MOVL      XAR7,*+XAR6[0]        ; [CPU_] |125| 
    4680                      .dwpsn  file "C:/ti/motorware/motorware_1_01_00_18/sw/modules/clarke/src/32b/clarke.h",line 126,colum
    4681 000002ff 8ED6          MOVL      XAR0,*+XAR6[2]        ; [CPU_] |126| 
    4682                      .dwpsn  file "C:/ti/motorware/motorware_1_01_00_18/sw/modules/clarke/src/32b/clarke.h",line 129,colum
    4683 00000300 92E6          MOV       AL,*+XAR6[4]          ; [CPU_] |129| 
    4684 00000301 5203          CMPB      AL,#3                 ; [CPU_] |129| 
    4685 00000302 EC0E          BF        $C$L62,EQ             ; [CPU_] |129| 
    4686                      ; branchcc occurs ; [] |129| 
    4687                      .dwpsn  file "C:/ti/motorware/motorware_1_01_00_18/sw/modules/clarke/src/32b/clarke.h",line 134,colum
TMS320C2000 Assembler PC v6.2.5 Tue Jun 27 16:56:14 2017

Tools Copyright (c) 1996-2014 Texas Instruments Incorporated
C:\Users\wmj\AppData\Local\Temp\1139610                              PAGE   91

    4688 00000303 5202          CMPB      AL,#2                 ; [CPU_] |134| 
    4689 00000304 ED20          BF        $C$L64,NEQ            ; [CPU_] |134| 
    4690                      ; branchcc occurs ; [] |134| 
    4691                      .dwpsn  file "C:/ti/motorware/motorware_1_01_00_18/sw/modules/clarke/src/32b/clarke.h",line 136,colum
    4692 00000305 87C4          MOVL      XT,*+XAR4[0]          ; [CPU_] |136| 
    4693 00000306 5605          IMPYL     P,XT,XAR7             ; [CPU_] |136| 
         00000307 00A7 
    4694 00000308 5663          QMPYL     ACC,XT,XAR7           ; [CPU_] |136| 
         00000309 00A7 
    4695 0000030a 56A7          LSL64     ACC:P,#8              ; [CPU_] |136| 
    4696 0000030b 1EC5          MOVL      *+XAR5[0],ACC         ; [CPU_] |136| 
    4697                      .dwpsn  file "C:/ti/motorware/motorware_1_01_00_18/sw/modules/clarke/src/32b/clarke.h",line 137,colum
    4698 0000030c 06D4          MOVL      ACC,*+XAR4[2]         ; [CPU_] |137| 
    4699 0000030d FF30          LSL       ACC,1                 ; [CPU_] |137| 
    4700 0000030e 07C4          ADDL      ACC,*+XAR4[0]         ; [CPU_] |137| 
    4701 0000030f 6F0E          B         $C$L63,UNC            ; [CPU_] |137| 
    4702                      ; branch occurs ; [] |137| 
    4703 00000310       $C$L62:    
    4704                      .dwpsn  file "C:/ti/motorware/motorware_1_01_00_18/sw/modules/clarke/src/32b/clarke.h",line 131,colum
    4705 00000310 06C4          MOVL      ACC,*+XAR4[0]         ; [CPU_] |131| 
    4706 00000311 FF30          LSL       ACC,1                 ; [CPU_] |131| 
    4707 00000312 03D4          SUBL      ACC,*+XAR4[2]         ; [CPU_] |131| 
    4708 00000313 03E4          SUBL      ACC,*+XAR4[4]         ; [CPU_] |131| 
    4709 00000314 1EAC          MOVL      XT,ACC                ; [CPU_] |131| 
    4710 00000315 5605          IMPYL     P,XT,XAR7             ; [CPU_] |131| 
         00000316 00A7 
    4711 00000317 5663          QMPYL     ACC,XT,XAR7           ; [CPU_] |131| 
         00000318 00A7 
    4712 00000319 56A7          LSL64     ACC:P,#8              ; [CPU_] |131| 
    4713 0000031a 1EC5          MOVL      *+XAR5[0],ACC         ; [CPU_] |131| 
    4714                      .dwpsn  file "C:/ti/motorware/motorware_1_01_00_18/sw/modules/clarke/src/32b/clarke.h",line 132,colum
    4715 0000031b 06D4          MOVL      ACC,*+XAR4[2]         ; [CPU_] |132| 
    4716 0000031c 03E4          SUBL      ACC,*+XAR4[4]         ; [CPU_] |132| 
    4717 0000031d       $C$L63:    
    4718 0000031d 1EAC          MOVL      XT,ACC                ; [CPU_] |132| 
    4719 0000031e 5605          IMPYL     P,XT,XAR0             ; [CPU_] |132| 
         0000031f 00A0 
    4720 00000320 5663          QMPYL     ACC,XT,XAR0           ; [CPU_] |132| 
         00000321 00A0 
    4721 00000322 56A7          LSL64     ACC:P,#8              ; [CPU_] |132| 
    4722 00000323 1ED5          MOVL      *+XAR5[2],ACC         ; [CPU_] |132| 
    4723 00000324       $C$L64:    
    4724 00000324 0652          MOVL      ACC,*-SP[18]          ; [CPU_] 
    4725                      .dwpsn  file "C:/ti/motorware/motorware_1_01_00_18/sw/modules/ctrl/src/32b/ctrl.h",line 2362,column 2
    4726 00000325 D06C          MOVB      XAR0,#108             ; [CPU_] |2362| 
    4727 00000326 1E42          MOVL      *-SP[2],ACC           ; [CPU_] |2362| 
    4728 00000327 8A93          MOVL      XAR4,*+XAR3[AR0]      ; [CPU_] |2362| 
    4729 00000328 83A1          MOVL      XAR5,XAR1             ; [CPU_] |2362| 
    4730 00000329 D018          MOVB      XAR0,#24              ; [CPU_] |2362| 
    4731 0000032a 06D4          MOVL      ACC,*+XAR4[2]         ; [CPU_] |2362| 
    4732 0000032b 1E44          MOVL      *-SP[4],ACC           ; [CPU_] |2362| 
    4733 0000032c 8A93          MOVL      XAR4,*+XAR3[AR0]      ; [CPU_] |2362| 
    4734 0000032d D00C          MOVB      XAR0,#12              ; [CPU_] |2362| 
    4735 0000032e 0692          MOVL      ACC,*+XAR2[AR0]       ; [CPU_] |2362| 
    4736              $C$DW$408       .dwtag  DW_TAG_TI_branch
TMS320C2000 Assembler PC v6.2.5 Tue Jun 27 16:56:14 2017

Tools Copyright (c) 1996-2014 Texas Instruments Incorporated
C:\Users\wmj\AppData\Local\Temp\1139610                              PAGE   92

    4737                      .dwattr $C$DW$408, DW_AT_low_pc(0x00)
    4738                      .dwattr $C$DW$408, DW_AT_name("_EST_run")
    4739                      .dwattr $C$DW$408, DW_AT_TI_call
    4740 0000032f 7640!         LCR       #_EST_run             ; [CPU_] |2362| 
         00000330 0000 
    4741                      ; call occurs [#_EST_run] ; [] |2362| 
    4742                      .dwpsn  file "C:/ti/motorware/motorware_1_01_00_18/sw/modules/ctrl/src/32b/ctrl.h",line 2367,column 2
    4743 00000331 D018          MOVB      XAR0,#24              ; [CPU_] |2367| 
    4744 00000332 8A93          MOVL      XAR4,*+XAR3[AR0]      ; [CPU_] |2367| 
    4745              $C$DW$409       .dwtag  DW_TAG_TI_branch
    4746                      .dwattr $C$DW$409, DW_AT_low_pc(0x00)
    4747                      .dwattr $C$DW$409, DW_AT_name("_EST_getAngle_pu")
    4748                      .dwattr $C$DW$409, DW_AT_TI_call
    4749 00000333 7640!         LCR       #_EST_getAngle_pu     ; [CPU_] |2367| 
         00000334 0000 
    4750                      ; call occurs [#_EST_getAngle_pu] ; [] |2367| 
    4751 00000335 86A9          MOVL      XAR2,ACC              ; [CPU_] |2367| 
    4752 00000336 1E54          MOVL      *-SP[20],ACC          ; [CPU_] |2367| 
    4753                      .dwpsn  file "C:/ti/motorware/motorware_1_01_00_18/sw/modules/ctrl/src/32b/ctrl.h",line 2043,column 3
    4754              $C$DW$410       .dwtag  DW_TAG_TI_branch
    4755                      .dwattr $C$DW$410, DW_AT_low_pc(0x00)
    4756                      .dwattr $C$DW$410, DW_AT_name("__IQ24cosPU")
    4757                      .dwattr $C$DW$410, DW_AT_TI_call
    4758 00000337 7640!         LCR       #__IQ24cosPU          ; [CPU_] |2043| 
         00000338 0000 
    4759                      ; call occurs [#__IQ24cosPU] ; [] |2043| 
    4760 00000339 1E50          MOVL      *-SP[16],ACC          ; [CPU_] |2043| 
    4761                      .dwpsn  file "C:/ti/motorware/motorware_1_01_00_18/sw/modules/ctrl/src/32b/ctrl.h",line 2044,column 3
    4762 0000033a AAA9          MOVL      ACC,XAR2              ; [CPU_] |2044| 
    4763              $C$DW$411       .dwtag  DW_TAG_TI_branch
    4764                      .dwattr $C$DW$411, DW_AT_low_pc(0x00)
    4765                      .dwattr $C$DW$411, DW_AT_name("__IQ24sinPU")
    4766                      .dwattr $C$DW$411, DW_AT_TI_call
    4767 0000033b 7640!         LCR       #__IQ24sinPU          ; [CPU_] |2044| 
         0000033c 0000 
    4768                      ; call occurs [#__IQ24sinPU] ; [] |2044| 
    4769                      .dwpsn  file "C:/ti/motorware/motorware_1_01_00_18/sw/modules/park/src/32b/park.h",line 173,column 17
    4770 0000033d D01A          MOVB      XAR0,#26              ; [CPU_] |173| 
    4771                      .dwpsn  file "C:/ti/motorware/motorware_1_01_00_18/sw/modules/ctrl/src/32b/ctrl.h",line 2044,column 3
    4772 0000033e 1E4E          MOVL      *-SP[14],ACC          ; [CPU_] |2044| 
    4773                      .dwpsn  file "C:/ti/motorware/motorware_1_01_00_18/sw/modules/park/src/32b/park.h",line 173,column 17
    4774 0000033f 8A93          MOVL      XAR4,*+XAR3[AR0]      ; [CPU_] |173| 
    4775                      .dwpsn  file "C:/ti/motorware/motorware_1_01_00_18/sw/modules/park/src/32b/park.h",line 175,column 3,
    4776 00000340 0650          MOVL      ACC,*-SP[16]          ; [CPU_] |175| 
    4777                      .dwpsn  file "C:/ti/motorware/motorware_1_01_00_18/sw/modules/park/src/32b/park.h",line 141,column 13
    4778 00000341 D01A          MOVB      XAR0,#26              ; [CPU_] |141| 
    4779                      .dwpsn  file "C:/ti/motorware/motorware_1_01_00_18/sw/modules/park/src/32b/park.h",line 175,column 3,
    4780 00000342 1ED4          MOVL      *+XAR4[2],ACC         ; [CPU_] |175| 
    4781                      .dwpsn  file "C:/ti/motorware/motorware_1_01_00_18/sw/modules/park/src/32b/park.h",line 176,column 3,
    4782 00000343 064E          MOVL      ACC,*-SP[14]          ; [CPU_] |176| 
    4783 00000344 1EC4          MOVL      *+XAR4[0],ACC         ; [CPU_] |176| 
    4784                      .dwpsn  file "C:/ti/motorware/motorware_1_01_00_18/sw/modules/ctrl/src/32b/ctrl.h",line 351,column 3,
    4785 00000345 02B2          MOVB      ACC,#178              ; [CPU_] |351| 
    4786                      .dwpsn  file "C:/ti/motorware/motorware_1_01_00_18/sw/modules/park/src/32b/park.h",line 141,column 13
    4787 00000346 8393          MOVL      XAR5,*+XAR3[AR0]      ; [CPU_] |141| 
TMS320C2000 Assembler PC v6.2.5 Tue Jun 27 16:56:14 2017

Tools Copyright (c) 1996-2014 Texas Instruments Incorporated
C:\Users\wmj\AppData\Local\Temp\1139610                              PAGE   93

    4788                      .dwpsn  file "C:/ti/motorware/motorware_1_01_00_18/sw/modules/ctrl/src/32b/ctrl.h",line 351,column 3,
    4789 00000347 07A3          ADDL      ACC,XAR3              ; [CPU_] |351| 
    4790                      .dwpsn  file "C:/ti/motorware/motorware_1_01_00_18/sw/modules/park/src/32b/park.h",line 144,column 15
    4791 00000348 8EC1          MOVL      XAR0,*+XAR1[0]        ; [CPU_] |144| 
    4792                      .dwpsn  file "C:/ti/motorware/motorware_1_01_00_18/sw/modules/park/src/32b/park.h",line 148,column 3,
    4793 00000349 8AA9          MOVL      XAR4,ACC              ; [CPU_] |148| 
    4794                      .dwpsn  file "C:/ti/motorware/motorware_1_01_00_18/sw/modules/park/src/32b/park.h",line 142,column 13
    4795 0000034a C5D5          MOVL      XAR7,*+XAR5[2]        ; [CPU_] |142| 
    4796                      .dwpsn  file "C:/ti/motorware/motorware_1_01_00_18/sw/modules/park/src/32b/park.h",line 141,column 13
    4797 0000034b C4C5          MOVL      XAR6,*+XAR5[0]        ; [CPU_] |141| 
    4798                      .dwpsn  file "C:/ti/motorware/motorware_1_01_00_18/sw/modules/park/src/32b/park.h",line 148,column 3,
    4799 0000034c 3AAC          MOVL      XT,XAR0               ; [CPU_] |148| 
    4800                      .dwpsn  file "C:/ti/motorware/motorware_1_01_00_18/sw/modules/park/src/32b/park.h",line 145,column 15
    4801 0000034d 83D1          MOVL      XAR5,*+XAR1[2]        ; [CPU_] |145| 
    4802                      .dwpsn  file "C:/ti/motorware/motorware_1_01_00_18/sw/modules/park/src/32b/park.h",line 148,column 3,
    4803 0000034e 5605          IMPYL     P,XT,XAR7             ; [CPU_] |148| 
         0000034f 00A7 
    4804 00000350 5663          QMPYL     ACC,XT,XAR7           ; [CPU_] |148| 
         00000351 00A7 
    4805 00000352 56A7          LSL64     ACC:P,#8              ; [CPU_] |148| 
    4806 00000353 A0AC          MOVL      XT,XAR5               ; [CPU_] |148| 
    4807 00000354 86A9          MOVL      XAR2,ACC              ; [CPU_] |148| 
    4808 00000355 5605          IMPYL     P,XT,XAR6             ; [CPU_] |148| 
         00000356 00A6 
    4809 00000357 5663          QMPYL     ACC,XT,XAR6           ; [CPU_] |148| 
         00000358 00A6 
    4810 00000359 56A7          LSL64     ACC:P,#8              ; [CPU_] |148| 
    4811 0000035a 3AAC          MOVL      XT,XAR0               ; [CPU_] |148| 
    4812 0000035b 07A2          ADDL      ACC,XAR2              ; [CPU_] |148| 
    4813                      .dwpsn  file "C:/ti/motorware/motorware_1_01_00_18/sw/modules/ctrl/src/32b/ctrl.h",line 2075,column 3
    4814 0000035c D09E          MOVB      XAR0,#158             ; [CPU_] |2075| 
    4815                      .dwpsn  file "C:/ti/motorware/motorware_1_01_00_18/sw/modules/park/src/32b/park.h",line 149,column 3,
    4816 0000035d 5605          IMPYL     P,XT,XAR6             ; [CPU_] |149| 
         0000035e 00A6 
    4817                      .dwpsn  file "C:/ti/motorware/motorware_1_01_00_18/sw/modules/park/src/32b/park.h",line 148,column 3,
    4818 0000035f 1EC4          MOVL      *+XAR4[0],ACC         ; [CPU_] |148| 
    4819                      .dwpsn  file "C:/ti/motorware/motorware_1_01_00_18/sw/modules/park/src/32b/park.h",line 149,column 3,
    4820 00000360 5663          QMPYL     ACC,XT,XAR6           ; [CPU_] |149| 
         00000361 00A6 
    4821 00000362 56A7          LSL64     ACC:P,#8              ; [CPU_] |149| 
    4822 00000363 A0AC          MOVL      XT,XAR5               ; [CPU_] |149| 
    4823 00000364 1EA6          MOVL      XAR6,ACC              ; [CPU_] |149| 
    4824 00000365 5605          IMPYL     P,XT,XAR7             ; [CPU_] |149| 
         00000366 00A7 
    4825 00000367 5663          QMPYL     ACC,XT,XAR7           ; [CPU_] |149| 
         00000368 00A7 
    4826 00000369 56A7          LSL64     ACC:P,#8              ; [CPU_] |149| 
    4827 0000036a 03A6          SUBL      ACC,XAR6              ; [CPU_] |149| 
    4828 0000036b 1ED4          MOVL      *+XAR4[2],ACC         ; [CPU_] |149| 
    4829                      .dwpsn  file "C:/ti/motorware/motorware_1_01_00_18/sw/modules/ctrl/src/32b/ctrl.h",line 2075,column 3
    4830 0000036c 9293          MOV       AL,*+XAR3[AR0]        ; [CPU_] |2075| 
    4831 0000036d D0EE          MOVB      XAR0,#238             ; [CPU_] |2075| 
    4832 0000036e 5493          CMP       AL,*+XAR3[AR0]        ; [CPU_] |2075| 
    4833 0000036f 6641          B         $C$L65,HI             ; [CPU_] |2075| 
    4834                      ; branchcc occurs ; [] |2075| 
TMS320C2000 Assembler PC v6.2.5 Tue Jun 27 16:56:14 2017

Tools Copyright (c) 1996-2014 Texas Instruments Incorporated
C:\Users\wmj\AppData\Local\Temp\1139610                              PAGE   94

    4835                      .dwpsn  file "C:/ti/motorware/motorware_1_01_00_18/sw/modules/traj/src/32b/traj.h",line 96,column 3,i
    4836 00000370 D06C          MOVB      XAR0,#108             ; [CPU_] |96| 
    4837 00000371 8A93          MOVL      XAR4,*+XAR3[AR0]      ; [CPU_] |96| 
    4838                      .dwpsn  file "C:/ti/motorware/motorware_1_01_00_18/sw/modules/ctrl/src/32b/ctrl.h",line 2386,column 2
    4839 00000372 D018          MOVB      XAR0,#24              ; [CPU_] |2386| 
    4840                      .dwpsn  file "C:/ti/motorware/motorware_1_01_00_18/sw/modules/traj/src/32b/traj.h",line 96,column 3,i
    4841 00000373 8BD4          MOVL      XAR1,*+XAR4[2]        ; [CPU_] |96| 
    4842                      .dwpsn  file "C:/ti/motorware/motorware_1_01_00_18/sw/modules/ctrl/src/32b/ctrl.h",line 2386,column 2
    4843 00000374 8A93          MOVL      XAR4,*+XAR3[AR0]      ; [CPU_] |2386| 
    4844              $C$DW$412       .dwtag  DW_TAG_TI_branch
    4845                      .dwattr $C$DW$412, DW_AT_low_pc(0x00)
    4846                      .dwattr $C$DW$412, DW_AT_name("_EST_getFm_pu")
    4847                      .dwattr $C$DW$412, DW_AT_TI_call
    4848 00000375 7640!         LCR       #_EST_getFm_pu        ; [CPU_] |2386| 
         00000376 0000 
    4849                      ; call occurs [#_EST_getFm_pu] ; [] |2386| 
    4850                      .dwpsn  file "C:/ti/motorware/motorware_1_01_00_18/sw/modules/traj/src/32b/traj.h",line 96,column 3,i
    4851 00000377 D078          MOVB      XAR0,#120             ; [CPU_] |96| 
    4852 00000378 8A93          MOVL      XAR4,*+XAR3[AR0]      ; [CPU_] |96| 
    4853                      .dwpsn  file "C:/ti/motorware/motorware_1_01_00_18/sw/modules/ctrl/src/32b/ctrl.h",line 2386,column 2
    4854 00000379 1EA6          MOVL      XAR6,ACC              ; [CPU_] |2386| 
    4855                      .dwpsn  file "C:/ti/motorware/motorware_1_01_00_18/sw/modules/ctrl/src/32b/ctrl.h",line 1099,column 3
    4856 0000037a D0EE          MOVB      XAR0,#238             ; [CPU_] |1099| 
    4857                      .dwpsn  file "C:/ti/motorware/motorware_1_01_00_18/sw/modules/traj/src/32b/traj.h",line 96,column 3,i
    4858 0000037b C5D4          MOVL      XAR7,*+XAR4[2]        ; [CPU_] |96| 
    4859                      .dwpsn  file "C:/ti/motorware/motorware_1_01_00_18/sw/modules/ctrl/src/32b/ctrl.h",line 2395,column 6
    4860 0000037c B2AB          MOVL      P,XAR1                ; [CPU_] |2395| 
    4861                      .dwpsn  file "C:/ti/motorware/motorware_1_01_00_18/sw/modules/ctrl/src/32b/ctrl.h",line 1099,column 3
    4862 0000037d 2B93          MOV       *+XAR3[AR0],#0        ; [CPU_] |1099| 
    4863                      .dwpsn  file "C:/ti/motorware/motorware_1_01_00_18/sw/modules/pid/src/32b/pid.h",line 358,column 16,i
    4864 0000037e D044          MOVB      XAR0,#68              ; [CPU_] |358| 
    4865                      .dwpsn  file "C:/ti/motorware/motorware_1_01_00_18/sw/modules/ctrl/src/32b/ctrl.h",line 2388,column 1
    4866 0000037f 06A7          MOVL      ACC,XAR7              ; [CPU_] |2388| 
    4867                      .dwpsn  file "C:/ti/motorware/motorware_1_01_00_18/sw/modules/pid/src/32b/pid.h",line 358,column 16,i
    4868 00000380 8A93          MOVL      XAR4,*+XAR3[AR0]      ; [CPU_] |358| 
    4869                      .dwpsn  file "C:/ti/motorware/motorware_1_01_00_18/sw/modules/pid/src/32b/pid.h",line 270,column 3,is
    4870 00000381 565D          SUBUL     P,XAR6                ; [CPU_] |270| 
         00000382 00A6 
    4871                      .dwpsn  file "C:/ti/motorware/motorware_1_01_00_18/sw/modules/ctrl/src/32b/ctrl.h",line 2388,column 1
    4872 00000383 FF54          NEG       ACC                   ; [CPU_] |2388| 
    4873                      .dwpsn  file "C:/ti/motorware/motorware_1_01_00_18/sw/modules/pid/src/32b/pid.h",line 360,column 3,is
    4874 00000384 D00C          MOVB      XAR0,#12              ; [CPU_] |360| 
    4875 00000385 1E94          MOVL      *+XAR4[AR0],ACC       ; [CPU_] |360| 
    4876                      .dwpsn  file "C:/ti/motorware/motorware_1_01_00_18/sw/modules/pid/src/32b/pid.h",line 361,column 3,is
    4877 00000386 D00E          MOVB      XAR0,#14              ; [CPU_] |361| 
    4878                      .dwpsn  file "C:/ti/motorware/motorware_1_01_00_18/sw/modules/ctrl/src/32b/ctrl.h",line 716,column 3,
    4879 00000387 02BA          MOVB      ACC,#186              ; [CPU_] |716| 
    4880 00000388 07A3          ADDL      ACC,XAR3              ; [CPU_] |716| 
    4881                      .dwpsn  file "C:/ti/motorware/motorware_1_01_00_18/sw/modules/pid/src/32b/pid.h",line 361,column 3,is
    4882 00000389 C394          MOVL      *+XAR4[AR0],XAR7      ; [CPU_] |361| 
    4883                      .dwpsn  file "C:/ti/motorware/motorware_1_01_00_18/sw/modules/pid/src/32b/pid.h",line 262,column 16,i
    4884 0000038a D044          MOVB      XAR0,#68              ; [CPU_] |262| 
    4885 0000038b 8393          MOVL      XAR5,*+XAR3[AR0]      ; [CPU_] |262| 
    4886                      .dwpsn  file "C:/ti/motorware/motorware_1_01_00_18/sw/modules/ctrl/src/32b/ctrl.h",line 716,column 3,
    4887 0000038c 8AA9          MOVL      XAR4,ACC              ; [CPU_] |716| 
TMS320C2000 Assembler PC v6.2.5 Tue Jun 27 16:56:14 2017

Tools Copyright (c) 1996-2014 Texas Instruments Incorporated
C:\Users\wmj\AppData\Local\Temp\1139610                              PAGE   95

    4888                      .dwpsn  file "C:/ti/motorware/motorware_1_01_00_18/sw/modules/ctrl/src/32b/ctrl.h",line 2395,column 6
    4889 0000038d C5A1          MOVL      XAR7,XAR1             ; [CPU_] |2395| 
    4890                      .dwpsn  file "C:/ti/motorware/motorware_1_01_00_18/sw/modules/pid/src/32b/pid.h",line 270,column 3,is
    4891 0000038e A9A0          MOVL      XAR0,P                ; [CPU_] |270| 
    4892 0000038f 87C5          MOVL      XT,*+XAR5[0]          ; [CPU_] |270| 
    4893                      .dwpsn  file "C:/ti/motorware/motorware_1_01_00_18/sw/modules/pid/src/32b/pid.h",line 271,column 3,is
    4894 00000390 D10E          MOVB      XAR1,#14              ; [CPU_] |271| 
    4895                      .dwpsn  file "C:/ti/motorware/motorware_1_01_00_18/sw/modules/pid/src/32b/pid.h",line 270,column 3,is
    4896 00000391 5663          QMPYL     ACC,XT,XAR0           ; [CPU_] |270| 
         00000392 00A0 
    4897 00000393 5605          IMPYL     P,XT,XAR0             ; [CPU_] |270| 
         00000394 00A0 
    4898 00000395 56A7          LSL64     ACC:P,#8              ; [CPU_] |270| 
    4899 00000396 86A9          MOVL      XAR2,ACC              ; [CPU_] |270| 
    4900                      .dwpsn  file "C:/ti/motorware/motorware_1_01_00_18/sw/modules/pid/src/32b/pid.h",line 271,column 3,is
    4901 00000397 87D5          MOVL      XT,*+XAR5[2]          ; [CPU_] |271| 
    4902 00000398 5605          IMPYL     P,XT,XAR0             ; [CPU_] |271| 
         00000399 00A0 
    4903 0000039a 5663          QMPYL     ACC,XT,XAR0           ; [CPU_] |271| 
         0000039b 00A0 
    4904 0000039c D00C          MOVB      XAR0,#12              ; [CPU_] |271| 
    4905 0000039d 56A7          LSL64     ACC:P,#8              ; [CPU_] |271| 
    4906 0000039e 07F5          ADDL      ACC,*+XAR5[6]         ; [CPU_] |271| 
    4907 0000039f 5650          MINL      ACC,*+XAR5[AR1]       ; [CPU_] |271| 
         000003a0 009D 
    4908                      .dwpsn  file "C:/ti/motorware/motorware_1_01_00_18/sw/modules/pid/src/32b/pid.h",line 277,column 3,is
    4909 000003a1 D10E          MOVB      XAR1,#14              ; [CPU_] |277| 
    4910                      .dwpsn  file "C:/ti/motorware/motorware_1_01_00_18/sw/modules/pid/src/32b/pid.h",line 271,column 3,is
    4911 000003a2 5661          MAXL      ACC,*+XAR5[AR0]       ; [CPU_] |271| 
         000003a3 0095 
    4912                      .dwpsn  file "C:/ti/motorware/motorware_1_01_00_18/sw/modules/pid/src/32b/pid.h",line 274,column 3,is
    4913 000003a4 D008          MOVB      XAR0,#8               ; [CPU_] |274| 
    4914                      .dwpsn  file "C:/ti/motorware/motorware_1_01_00_18/sw/modules/pid/src/32b/pid.h",line 273,column 3,is
    4915 000003a5 1EF5          MOVL      *+XAR5[6],ACC         ; [CPU_] |273| 
    4916                      .dwpsn  file "C:/ti/motorware/motorware_1_01_00_18/sw/modules/pid/src/32b/pid.h",line 277,column 3,is
    4917 000003a6 07A2          ADDL      ACC,XAR2              ; [CPU_] |277| 
    4918                      .dwpsn  file "C:/ti/motorware/motorware_1_01_00_18/sw/modules/pid/src/32b/pid.h",line 274,column 3,is
    4919 000003a7 C395          MOVL      *+XAR5[AR0],XAR7      ; [CPU_] |274| 
    4920                      .dwpsn  file "C:/ti/motorware/motorware_1_01_00_18/sw/modules/pid/src/32b/pid.h",line 275,column 3,is
    4921 000003a8 D00A          MOVB      XAR0,#10              ; [CPU_] |275| 
    4922 000003a9 C295          MOVL      *+XAR5[AR0],XAR6      ; [CPU_] |275| 
    4923                      .dwpsn  file "C:/ti/motorware/motorware_1_01_00_18/sw/modules/pid/src/32b/pid.h",line 277,column 3,is
    4924 000003aa D00C          MOVB      XAR0,#12              ; [CPU_] |277| 
    4925 000003ab 5650          MINL      ACC,*+XAR5[AR1]       ; [CPU_] |277| 
         000003ac 009D 
    4926 000003ad 5661          MAXL      ACC,*+XAR5[AR0]       ; [CPU_] |277| 
         000003ae 0095 
    4927 000003af 1EC4          MOVL      *+XAR4[0],ACC         ; [CPU_] |277| 
    4928 000003b0       $C$L65:    
    4929                      .dwpsn  file "C:/ti/motorware/motorware_1_01_00_18/sw/modules/ctrl/src/32b/ctrl.h",line 219,column 3,
    4930 000003b0 8D00          MOVL      XAR0,#262             ; [CPU_] |219| 
         000003b1 0106 
    4931 000003b2 9293          MOV       AL,*+XAR3[AR0]        ; [CPU_] |219| 
    4932 000003b3 56C1          BF        $C$L70,EQ             ; [CPU_] |219| 
         000003b4 00CE 
TMS320C2000 Assembler PC v6.2.5 Tue Jun 27 16:56:14 2017

Tools Copyright (c) 1996-2014 Texas Instruments Incorporated
C:\Users\wmj\AppData\Local\Temp\1139610                              PAGE   96

    4933                      ; branchcc occurs ; [] |219| 
    4934 000003b5 D09D          MOVB      XAR0,#157             ; [CPU_] |219| 
    4935 000003b6 9293          MOV       AL,*+XAR3[AR0]        ; [CPU_] |219| 
    4936 000003b7 D0EC          MOVB      XAR0,#236             ; [CPU_] |219| 
    4937 000003b8 5493          CMP       AL,*+XAR3[AR0]        ; [CPU_] |219| 
    4938 000003b9 FFE6          B         $C$L70,HI             ; [CPU_] |219| 
         000003ba 00C8 
    4939                      ; branchcc occurs ; [] |219| 
    4940                      .dwpsn  file "C:/ti/motorware/motorware_1_01_00_18/sw/modules/ctrl/src/32b/ctrl.h",line 517,column 3,
    4941 000003bb D0CA          MOVB      XAR0,#202             ; [CPU_] |517| 
    4942 000003bc 8B93          MOVL      XAR1,*+XAR3[AR0]      ; [CPU_] |517| 
    4943 000003bd D0CC          MOVB      XAR0,#204             ; [CPU_] |517| 
    4944 000003be 0693          MOVL      ACC,*+XAR3[AR0]       ; [CPU_] |517| 
    4945                      .dwpsn  file "C:/ti/motorware/motorware_1_01_00_18/sw/modules/ctrl/src/32b/ctrl.h",line 545,column 3,
    4946 000003bf D0A8          MOVB      XAR0,#168             ; [CPU_] |545| 
    4947                      .dwpsn  file "C:/ti/motorware/motorware_1_01_00_18/sw/modules/ctrl/src/32b/ctrl.h",line 517,column 3,
    4948 000003c0 1E56          MOVL      *-SP[22],ACC          ; [CPU_] |517| 
    4949                      .dwpsn  file "C:/ti/motorware/motorware_1_01_00_18/sw/modules/ctrl/src/32b/ctrl.h",line 545,column 3,
    4950 000003c1 0693          MOVL      ACC,*+XAR3[AR0]       ; [CPU_] |545| 
    4951                      .dwpsn  file "C:/ti/motorware/motorware_1_01_00_18/sw/modules/ctrl/src/32b/ctrl.h",line 1075,column 3
    4952 000003c2 D0EC          MOVB      XAR0,#236             ; [CPU_] |1075| 
    4953                      .dwpsn  file "C:/ti/motorware/motorware_1_01_00_18/sw/modules/ctrl/src/32b/ctrl.h",line 545,column 3,
    4954 000003c3 1E58          MOVL      *-SP[24],ACC          ; [CPU_] |545| 
    4955                      .dwpsn  file "C:/ti/motorware/motorware_1_01_00_18/sw/modules/ctrl/src/32b/ctrl.h",line 1075,column 3
    4956 000003c4 2B93          MOV       *+XAR3[AR0],#0        ; [CPU_] |1075| 
    4957                      .dwpsn  file "C:/ti/motorware/motorware_1_01_00_18/sw/modules/ctrl/src/32b/ctrl.h",line 230,column 3,
    4958 000003c5 D0F1          MOVB      XAR0,#241             ; [CPU_] |230| 
    4959 000003c6 9293          MOV       AL,*+XAR3[AR0]        ; [CPU_] |230| 
    4960 000003c7 EC0C          BF        $C$L66,EQ             ; [CPU_] |230| 
    4961                      ; branchcc occurs ; [] |230| 
    4962                      .dwpsn  file "C:/ti/motorware/motorware_1_01_00_18/sw/modules/ctrl/src/32b/ctrl.h",line 2422,column 1
    4963 000003c8 D018          MOVB      XAR0,#24              ; [CPU_] |2422| 
    4964 000003c9 8A93          MOVL      XAR4,*+XAR3[AR0]      ; [CPU_] |2422| 
    4965              $C$DW$413       .dwtag  DW_TAG_TI_branch
    4966                      .dwattr $C$DW$413, DW_AT_low_pc(0x00)
    4967                      .dwattr $C$DW$413, DW_AT_name("_EST_getOneOverDcBus_pu")
    4968                      .dwattr $C$DW$413, DW_AT_TI_call
    4969 000003ca 7640!         LCR       #_EST_getOneOverDcBus_pu ; [CPU_] |2422| 
         000003cb 0000 
    4970                      ; call occurs [#_EST_getOneOverDcBus_pu] ; [] |2422| 
    4971 000003cc B2AC          MOVL      XT,XAR1               ; [CPU_] |2422| 
    4972 000003cd 5605          IMPYL     P,XT,ACC              ; [CPU_] |2422| 
         000003ce 00A9 
    4973 000003cf 5663          QMPYL     ACC,XT,ACC            ; [CPU_] |2422| 
         000003d0 00A9 
    4974 000003d1 56A7          LSL64     ACC:P,#8              ; [CPU_] |2422| 
    4975 000003d2 8BA9          MOVL      XAR1,ACC              ; [CPU_] |2422| 
    4976 000003d3       $C$L66:    
    4977                      .dwpsn  file "C:/ti/motorware/motorware_1_01_00_18/sw/modules/pid/src/32b/pid.h",line 346,column 3,is
    4978 000003d3 D020          MOVB      XAR0,#32              ; [CPU_] |346| 
    4979 000003d4 8A93          MOVL      XAR4,*+XAR3[AR0]      ; [CPU_] |346| 
    4980                      .dwpsn  file "C:/ti/motorware/motorware_1_01_00_18/sw/modules/ctrl/src/32b/ctrl.h",line 340,column 3,
    4981 000003d5 02E2          MOVB      ACC,#226              ; [CPU_] |340| 
    4982                      .dwpsn  file "C:/ti/motorware/motorware_1_01_00_18/sw/modules/ctrl/src/32b/ctrl.h",line 2428,column 6
    4983 000003d6 D060          MOVB      XAR0,#96              ; [CPU_] |2428| 
TMS320C2000 Assembler PC v6.2.5 Tue Jun 27 16:56:14 2017

Tools Copyright (c) 1996-2014 Texas Instruments Incorporated
C:\Users\wmj\AppData\Local\Temp\1139610                              PAGE   97

    4984                      .dwpsn  file "C:/ti/motorware/motorware_1_01_00_18/sw/modules/ctrl/src/32b/ctrl.h",line 340,column 3,
    4985 000003d7 07A3          ADDL      ACC,XAR3              ; [CPU_] |340| 
    4986                      .dwpsn  file "C:/ti/motorware/motorware_1_01_00_18/sw/modules/pid/src/32b/pid.h",line 346,column 3,is
    4987 000003d8 B2C4          MOVL      *+XAR4[0],XAR1        ; [CPU_] |346| 
    4988                      .dwpsn  file "C:/ti/motorware/motorware_1_01_00_18/sw/modules/ctrl/src/32b/ctrl.h",line 340,column 3,
    4989 000003d9 1E5C          MOVL      *-SP[28],ACC          ; [CPU_] |340| 
    4990                      .dwpsn  file "C:/ti/motorware/motorware_1_01_00_18/sw/modules/ctrl/src/32b/ctrl.h",line 2428,column 6
    4991 000003da 8393          MOVL      XAR5,*+XAR3[AR0]      ; [CPU_] |2428| 
    4992 000003db 8AA9          MOVL      XAR4,ACC              ; [CPU_] |2428| 
    4993                      .dwpsn  file "C:/ti/motorware/motorware_1_01_00_18/sw/modules/ctrl/src/32b/ctrl.h",line 2431,column 6
    4994 000003dc D018          MOVB      XAR0,#24              ; [CPU_] |2431| 
    4995                      .dwpsn  file "C:/ti/motorware/motorware_1_01_00_18/sw/modules/ctrl/src/32b/ctrl.h",line 2428,column 6
    4996 000003dd 06C4          MOVL      ACC,*+XAR4[0]         ; [CPU_] |2428| 
    4997 000003de 07D5          ADDL      ACC,*+XAR5[2]         ; [CPU_] |2428| 
    4998                      .dwpsn  file "C:/ti/motorware/motorware_1_01_00_18/sw/modules/ctrl/src/32b/ctrl.h",line 2431,column 6
    4999 000003df 5DAD          MOVZ      AR5,SP                ; [CPU_U] |2431| 
    5000                      .dwpsn  file "C:/ti/motorware/motorware_1_01_00_18/sw/modules/ctrl/src/32b/ctrl.h",line 2428,column 6
    5001 000003e0 1E46          MOVL      *-SP[6],ACC           ; [CPU_] |2428| 
    5002                      .dwpsn  file "C:/ti/motorware/motorware_1_01_00_18/sw/modules/ctrl/src/32b/ctrl.h",line 2431,column 6
    5003 000003e1 DD86          SUBB      XAR5,#6               ; [CPU_U] |2431| 
    5004 000003e2 8A93          MOVL      XAR4,*+XAR3[AR0]      ; [CPU_] |2431| 
    5005              $C$DW$414       .dwtag  DW_TAG_TI_branch
    5006                      .dwattr $C$DW$414, DW_AT_low_pc(0x00)
    5007                      .dwattr $C$DW$414, DW_AT_name("_EST_updateId_ref_pu")
    5008                      .dwattr $C$DW$414, DW_AT_TI_call
    5009 000003e3 7640!         LCR       #_EST_updateId_ref_pu ; [CPU_] |2431| 
         000003e4 0000 
    5010                      ; call occurs [#_EST_updateId_ref_pu] ; [] |2431| 
    5011                      .dwpsn  file "C:/ti/motorware/motorware_1_01_00_18/sw/modules/pid/src/32b/pid.h",line 358,column 16,i
    5012 000003e5 D020          MOVB      XAR0,#32              ; [CPU_] |358| 
    5013                      .dwpsn  file "C:/ti/motorware/motorware_1_01_00_18/sw/modules/ctrl/src/32b/ctrl.h",line 329,column 3,
    5014 000003e6 02B2          MOVB      ACC,#178              ; [CPU_] |329| 
    5015                      .dwpsn  file "C:/ti/motorware/motorware_1_01_00_18/sw/modules/pid/src/32b/pid.h",line 360,column 3,is
    5016 000003e7 C558          MOVL      XAR7,*-SP[24]         ; [CPU_] |360| 
    5017                      .dwpsn  file "C:/ti/motorware/motorware_1_01_00_18/sw/modules/pid/src/32b/pid.h",line 358,column 16,i
    5018 000003e8 8A93          MOVL      XAR4,*+XAR3[AR0]      ; [CPU_] |358| 
    5019                      .dwpsn  file "C:/ti/motorware/motorware_1_01_00_18/sw/modules/ctrl/src/32b/ctrl.h",line 329,column 3,
    5020 000003e9 07A3          ADDL      ACC,XAR3              ; [CPU_] |329| 
    5021 000003ea 86A9          MOVL      XAR2,ACC              ; [CPU_] |329| 
    5022                      .dwpsn  file "C:/ti/motorware/motorware_1_01_00_18/sw/modules/pid/src/32b/pid.h",line 360,column 3,is
    5023 000003eb D00C          MOVB      XAR0,#12              ; [CPU_] |360| 
    5024                      .dwpsn  file "C:/ti/motorware/motorware_1_01_00_18/sw/modules/ctrl/src/32b/ctrl.h",line 329,column 3,
    5025 000003ec C4C2          MOVL      XAR6,*+XAR2[0]        ; [CPU_] |329| 
    5026                      .dwpsn  file "C:/ti/motorware/motorware_1_01_00_18/sw/modules/pid/src/32b/pid.h",line 360,column 3,is
    5027 000003ed 06A7          MOVL      ACC,XAR7              ; [CPU_] |360| 
    5028 000003ee FF54          NEG       ACC                   ; [CPU_] |360| 
    5029 000003ef 1E94          MOVL      *+XAR4[AR0],ACC       ; [CPU_] |360| 
    5030                      .dwpsn  file "C:/ti/motorware/motorware_1_01_00_18/sw/modules/pid/src/32b/pid.h",line 361,column 3,is
    5031 000003f0 D00E          MOVB      XAR0,#14              ; [CPU_] |361| 
    5032                      .dwpsn  file "C:/ti/motorware/motorware_1_01_00_18/sw/modules/ctrl/src/32b/ctrl.h",line 869,column 3,
    5033 000003f1 02C0          MOVB      ACC,#192              ; [CPU_] |869| 
    5034 000003f2 07A3          ADDL      ACC,XAR3              ; [CPU_] |869| 
    5035                      .dwpsn  file "C:/ti/motorware/motorware_1_01_00_18/sw/modules/pid/src/32b/pid.h",line 361,column 3,is
    5036 000003f3 C394          MOVL      *+XAR4[AR0],XAR7      ; [CPU_] |361| 
    5037                      .dwpsn  file "C:/ti/motorware/motorware_1_01_00_18/sw/modules/pid/src/32b/pid.h",line 233,column 16,i
TMS320C2000 Assembler PC v6.2.5 Tue Jun 27 16:56:14 2017

Tools Copyright (c) 1996-2014 Texas Instruments Incorporated
C:\Users\wmj\AppData\Local\Temp\1139610                              PAGE   98

    5038 000003f4 D020          MOVB      XAR0,#32              ; [CPU_] |233| 
    5039                      .dwpsn  file "C:/ti/motorware/motorware_1_01_00_18/sw/modules/ctrl/src/32b/ctrl.h",line 869,column 3,
    5040 000003f5 1E5E          MOVL      *-SP[30],ACC          ; [CPU_] |869| 
    5041                      .dwpsn  file "C:/ti/motorware/motorware_1_01_00_18/sw/modules/ctrl/src/32b/ctrl.h",line 2444,column 6
    5042 000003f6 C546          MOVL      XAR7,*-SP[6]          ; [CPU_] |2444| 
    5043                      .dwpsn  file "C:/ti/motorware/motorware_1_01_00_18/sw/modules/ctrl/src/32b/ctrl.h",line 869,column 3,
    5044 000003f7 8AA9          MOVL      XAR4,ACC              ; [CPU_] |869| 
    5045                      .dwpsn  file "C:/ti/motorware/motorware_1_01_00_18/sw/modules/pid/src/32b/pid.h",line 233,column 16,i
    5046 000003f8 8393          MOVL      XAR5,*+XAR3[AR0]      ; [CPU_] |233| 
    5047                      .dwpsn  file "C:/ti/motorware/motorware_1_01_00_18/sw/modules/pid/src/32b/pid.h",line 243,column 3,is
    5048 000003f9 D10E          MOVB      XAR1,#14              ; [CPU_] |243| 
    5049                      .dwpsn  file "C:/ti/motorware/motorware_1_01_00_18/sw/modules/pid/src/32b/pid.h",line 242,column 3,is
    5050 000003fa 06A7          MOVL      ACC,XAR7              ; [CPU_] |242| 
    5051                      .dwpsn  file "C:/ti/motorware/motorware_1_01_00_18/sw/modules/pid/src/32b/pid.h",line 243,column 3,is
    5052 000003fb D00C          MOVB      XAR0,#12              ; [CPU_] |243| 
    5053                      .dwpsn  file "C:/ti/motorware/motorware_1_01_00_18/sw/modules/pid/src/32b/pid.h",line 242,column 3,is
    5054 000003fc 87C5          MOVL      XT,*+XAR5[0]          ; [CPU_] |242| 
    5055 000003fd 03A6          SUBL      ACC,XAR6              ; [CPU_] |242| 
    5056 000003fe 5605          IMPYL     P,XT,ACC              ; [CPU_] |242| 
         000003ff 00A9 
    5057 00000400 5663          QMPYL     ACC,XT,ACC            ; [CPU_] |242| 
         00000401 00A9 
    5058 00000402 1E52          MOVL      *-SP[18],ACC          ; [CPU_] |242| 
    5059 00000403 56A7          LSL64     ACC:P,#8              ; [CPU_] |242| 
    5060 00000404 1E52          MOVL      *-SP[18],ACC          ; [CPU_] |242| 
    5061                      .dwpsn  file "C:/ti/motorware/motorware_1_01_00_18/sw/modules/pid/src/32b/pid.h",line 243,column 3,is
    5062 00000405 0652          MOVL      ACC,*-SP[18]          ; [CPU_] |243| 
    5063 00000406 87D5          MOVL      XT,*+XAR5[2]          ; [CPU_] |243| 
    5064 00000407 5605          IMPYL     P,XT,ACC              ; [CPU_] |243| 
         00000408 00A9 
    5065 00000409 0652          MOVL      ACC,*-SP[18]          ; [CPU_] |243| 
    5066 0000040a 5663          QMPYL     ACC,XT,ACC            ; [CPU_] |243| 
         0000040b 00A9 
    5067 0000040c 56A7          LSL64     ACC:P,#8              ; [CPU_] |243| 
    5068 0000040d 07F5          ADDL      ACC,*+XAR5[6]         ; [CPU_] |243| 
    5069 0000040e 5650          MINL      ACC,*+XAR5[AR1]       ; [CPU_] |243| 
         0000040f 009D 
    5070 00000410 5661          MAXL      ACC,*+XAR5[AR0]       ; [CPU_] |243| 
         00000411 0095 
    5071                      .dwpsn  file "C:/ti/motorware/motorware_1_01_00_18/sw/modules/pid/src/32b/pid.h",line 246,column 3,is
    5072 00000412 D008          MOVB      XAR0,#8               ; [CPU_] |246| 
    5073                      .dwpsn  file "C:/ti/motorware/motorware_1_01_00_18/sw/modules/pid/src/32b/pid.h",line 245,column 3,is
    5074 00000413 1EF5          MOVL      *+XAR5[6],ACC         ; [CPU_] |245| 
    5075                      .dwpsn  file "C:/ti/motorware/motorware_1_01_00_18/sw/modules/pid/src/32b/pid.h",line 246,column 3,is
    5076 00000414 C395          MOVL      *+XAR5[AR0],XAR7      ; [CPU_] |246| 
    5077                      .dwpsn  file "C:/ti/motorware/motorware_1_01_00_18/sw/modules/pid/src/32b/pid.h",line 247,column 3,is
    5078 00000415 D00A          MOVB      XAR0,#10              ; [CPU_] |247| 
    5079 00000416 C295          MOVL      *+XAR5[AR0],XAR6      ; [CPU_] |247| 
    5080                      .dwpsn  file "C:/ti/motorware/motorware_1_01_00_18/sw/modules/pid/src/32b/pid.h",line 249,column 3,is
    5081 00000417 C452          MOVL      XAR6,*-SP[18]         ; [CPU_] |249| 
    5082 00000418 D10E          MOVB      XAR1,#14              ; [CPU_] |249| 
    5083 00000419 D00C          MOVB      XAR0,#12              ; [CPU_] |249| 
    5084 0000041a 07A6          ADDL      ACC,XAR6              ; [CPU_] |249| 
    5085 0000041b 5650          MINL      ACC,*+XAR5[AR1]       ; [CPU_] |249| 
         0000041c 009D 
TMS320C2000 Assembler PC v6.2.5 Tue Jun 27 16:56:14 2017

Tools Copyright (c) 1996-2014 Texas Instruments Incorporated
C:\Users\wmj\AppData\Local\Temp\1139610                              PAGE   99

    5086 0000041d 5661          MAXL      ACC,*+XAR5[AR0]       ; [CPU_] |249| 
         0000041e 0095 
    5087                      .dwpsn  file "C:/ti/motorware/motorware_1_01_00_18/sw/modules/ctrl/src/32b/ctrl.h",line 230,column 3,
    5088 0000041f D0F1          MOVB      XAR0,#241             ; [CPU_] |230| 
    5089                      .dwpsn  file "C:/ti/motorware/motorware_1_01_00_18/sw/modules/pid/src/32b/pid.h",line 249,column 3,is
    5090 00000420 1EC4          MOVL      *+XAR4[0],ACC         ; [CPU_] |249| 
    5091                      .dwpsn  file "C:/ti/motorware/motorware_1_01_00_18/sw/modules/ctrl/src/32b/ctrl.h",line 230,column 3,
    5092 00000421 9293          MOV       AL,*+XAR3[AR0]        ; [CPU_] |230| 
    5093 00000422 EC0E          BF        $C$L67,EQ             ; [CPU_] |230| 
    5094                      ; branchcc occurs ; [] |230| 
    5095                      .dwpsn  file "C:/ti/motorware/motorware_1_01_00_18/sw/modules/ctrl/src/32b/ctrl.h",line 2453,column 1
    5096 00000423 D018          MOVB      XAR0,#24              ; [CPU_] |2453| 
    5097 00000424 8A93          MOVL      XAR4,*+XAR3[AR0]      ; [CPU_] |2453| 
    5098              $C$DW$415       .dwtag  DW_TAG_TI_branch
    5099                      .dwattr $C$DW$415, DW_AT_low_pc(0x00)
    5100                      .dwattr $C$DW$415, DW_AT_name("_EST_getOneOverDcBus_pu")
    5101                      .dwattr $C$DW$415, DW_AT_TI_call
    5102 00000425 7640!         LCR       #_EST_getOneOverDcBus_pu ; [CPU_] |2453| 
         00000426 0000 
    5103                      ; call occurs [#_EST_getOneOverDcBus_pu] ; [] |2453| 
    5104 00000427 8756          MOVL      XT,*-SP[22]           ; [CPU_] |2453| 
    5105 00000428 5605          IMPYL     P,XT,ACC              ; [CPU_] |2453| 
         00000429 00A9 
    5106 0000042a 8756          MOVL      XT,*-SP[22]           ; [CPU_] |2453| 
    5107 0000042b 5663          QMPYL     ACC,XT,ACC            ; [CPU_] |2453| 
         0000042c 00A9 
    5108 0000042d 1E56          MOVL      *-SP[22],ACC          ; [CPU_] |2453| 
    5109 0000042e 56A7          LSL64     ACC:P,#8              ; [CPU_] |2453| 
    5110 0000042f 1E56          MOVL      *-SP[22],ACC          ; [CPU_] |2453| 
    5111 00000430       $C$L67:    
    5112                      .dwpsn  file "C:/ti/motorware/motorware_1_01_00_18/sw/modules/pid/src/32b/pid.h",line 346,column 3,is
    5113 00000430 D032          MOVB      XAR0,#50              ; [CPU_] |346| 
    5114 00000431 8A93          MOVL      XAR4,*+XAR3[AR0]      ; [CPU_] |346| 
    5115 00000432 0656          MOVL      ACC,*-SP[22]          ; [CPU_] |346| 
    5116                      .dwpsn  file "C:/ti/motorware/motorware_1_01_00_18/sw/modules/ctrl/src/32b/ctrl.h",line 727,column 3,
    5117 00000433 D0F4          MOVB      XAR0,#244             ; [CPU_] |727| 
    5118                      .dwpsn  file "C:/ti/motorware/motorware_1_01_00_18/sw/modules/pid/src/32b/pid.h",line 346,column 3,is
    5119 00000434 1EC4          MOVL      *+XAR4[0],ACC         ; [CPU_] |346| 
    5120                      .dwpsn  file "C:/ti/motorware/motorware_1_01_00_18/sw/modules/ctrl/src/32b/ctrl.h",line 727,column 3,
    5121 00000435 9293          MOV       AL,*+XAR3[AR0]        ; [CPU_] |727| 
    5122 00000436 EC04          BF        $C$L68,EQ             ; [CPU_] |727| 
    5123                      ; branchcc occurs ; [] |727| 
    5124 00000437 D0BA          MOVB      XAR0,#186             ; [CPU_] |727| 
    5125 00000438 0693          MOVL      ACC,*+XAR3[AR0]       ; [CPU_] |727| 
    5126 00000439 6F03          B         $C$L69,UNC            ; [CPU_] |727| 
    5127                      ; branch occurs ; [] |727| 
    5128 0000043a       $C$L68:    
    5129 0000043a 8A5C          MOVL      XAR4,*-SP[28]         ; [CPU_] 
    5130 0000043b 06D4          MOVL      ACC,*+XAR4[2]         ; [CPU_] |727| 
    5131 0000043c       $C$L69:    
    5132                      .dwpsn  file "C:/ti/motorware/motorware_1_01_00_18/sw/modules/ctrl/src/32b/ctrl.h",line 396,column 3,
    5133 0000043c 8A5E          MOVL      XAR4,*-SP[30]         ; [CPU_] |396| 
    5134                      .dwpsn  file "C:/ti/motorware/motorware_1_01_00_18/sw/modules/ctrl/src/32b/ctrl.h",line 727,column 3,
    5135 0000043d 1E46          MOVL      *-SP[6],ACC           ; [CPU_] |727| 
    5136                      .dwpsn  file "C:/ti/motorware/motorware_1_01_00_18/sw/modules/ctrl/src/32b/ctrl.h",line 2473,column 6
TMS320C2000 Assembler PC v6.2.5 Tue Jun 27 16:56:14 2017

Tools Copyright (c) 1996-2014 Texas Instruments Incorporated
C:\Users\wmj\AppData\Local\Temp\1139610                              PAGE  100

    5137 0000043e 87C4          MOVL      XT,*+XAR4[0]          ; [CPU_] |2473| 
    5138                      .dwpsn  file "C:/ti/motorware/motorware_1_01_00_18/sw/modules/ctrl/src/32b/ctrl.h",line 396,column 3,
    5139 0000043f 86D2          MOVL      XAR2,*+XAR2[2]        ; [CPU_] |396| 
    5140                      .dwpsn  file "C:/ti/motorware/motorware_1_01_00_18/sw/modules/ctrl/src/32b/ctrl.h",line 2473,column 6
    5141 00000440 5605          IMPYL     P,XT,*+XAR4[0]        ; [CPU_] |2473| 
         00000441 00C4 
    5142 00000442 5663          QMPYL     ACC,XT,*+XAR4[0]      ; [CPU_] |2473| 
         00000443 00C4 
    5143 00000444 8758          MOVL      XT,*-SP[24]           ; [CPU_] |2473| 
    5144 00000445 56A7          LSL64     ACC:P,#8              ; [CPU_] |2473| 
    5145 00000446 1EA6          MOVL      XAR6,ACC              ; [CPU_] |2473| 
    5146 00000447 0658          MOVL      ACC,*-SP[24]          ; [CPU_] |2473| 
    5147 00000448 5605          IMPYL     P,XT,ACC              ; [CPU_] |2473| 
         00000449 00A9 
    5148 0000044a 8758          MOVL      XT,*-SP[24]           ; [CPU_] |2473| 
    5149 0000044b 0658          MOVL      ACC,*-SP[24]          ; [CPU_] |2473| 
    5150 0000044c 5663          QMPYL     ACC,XT,ACC            ; [CPU_] |2473| 
         0000044d 00A9 
    5151 0000044e 56A7          LSL64     ACC:P,#8              ; [CPU_] |2473| 
    5152 0000044f 03A6          SUBL      ACC,XAR6              ; [CPU_] |2473| 
    5153              $C$DW$416       .dwtag  DW_TAG_TI_branch
    5154                      .dwattr $C$DW$416, DW_AT_low_pc(0x00)
    5155                      .dwattr $C$DW$416, DW_AT_name("__IQ24sqrt")
    5156                      .dwattr $C$DW$416, DW_AT_TI_call
    5157 00000450 7640!         LCR       #__IQ24sqrt           ; [CPU_] |2473| 
         00000451 0000 
    5158                      ; call occurs [#__IQ24sqrt] ; [] |2473| 
    5159                      .dwpsn  file "C:/ti/motorware/motorware_1_01_00_18/sw/modules/pid/src/32b/pid.h",line 358,column 16,i
    5160 00000452 D032          MOVB      XAR0,#50              ; [CPU_] |358| 
    5161 00000453 8A93          MOVL      XAR4,*+XAR3[AR0]      ; [CPU_] |358| 
    5162                      .dwpsn  file "C:/ti/motorware/motorware_1_01_00_18/sw/modules/ctrl/src/32b/ctrl.h",line 2473,column 6
    5163 00000454 1EA6          MOVL      XAR6,ACC              ; [CPU_] |2473| 
    5164                      .dwpsn  file "C:/ti/motorware/motorware_1_01_00_18/sw/modules/pid/src/32b/pid.h",line 360,column 3,is
    5165 00000455 D00C          MOVB      XAR0,#12              ; [CPU_] |360| 
    5166 00000456 FF54          NEG       ACC                   ; [CPU_] |360| 
    5167 00000457 1E94          MOVL      *+XAR4[AR0],ACC       ; [CPU_] |360| 
    5168                      .dwpsn  file "C:/ti/motorware/motorware_1_01_00_18/sw/modules/pid/src/32b/pid.h",line 361,column 3,is
    5169 00000458 D00E          MOVB      XAR0,#14              ; [CPU_] |361| 
    5170 00000459 C294          MOVL      *+XAR4[AR0],XAR6      ; [CPU_] |361| 
    5171                      .dwpsn  file "C:/ti/motorware/motorware_1_01_00_18/sw/modules/pid/src/32b/pid.h",line 233,column 16,i
    5172 0000045a D032          MOVB      XAR0,#50              ; [CPU_] |233| 
    5173                      .dwpsn  file "C:/ti/motorware/motorware_1_01_00_18/sw/modules/pid/src/32b/pid.h",line 242,column 3,is
    5174 0000045b 0646          MOVL      ACC,*-SP[6]           ; [CPU_] |242| 
    5175                      .dwpsn  file "C:/ti/motorware/motorware_1_01_00_18/sw/modules/pid/src/32b/pid.h",line 233,column 16,i
    5176 0000045c 8A93          MOVL      XAR4,*+XAR3[AR0]      ; [CPU_] |233| 
    5177                      .dwpsn  file "C:/ti/motorware/motorware_1_01_00_18/sw/modules/pid/src/32b/pid.h",line 243,column 3,is
    5178 0000045d D10E          MOVB      XAR1,#14              ; [CPU_] |243| 
    5179                      .dwpsn  file "C:/ti/motorware/motorware_1_01_00_18/sw/modules/pid/src/32b/pid.h",line 242,column 3,is
    5180 0000045e 03A2          SUBL      ACC,XAR2              ; [CPU_] |242| 
    5181                      .dwpsn  file "C:/ti/motorware/motorware_1_01_00_18/sw/modules/pid/src/32b/pid.h",line 243,column 3,is
    5182 0000045f D00C          MOVB      XAR0,#12              ; [CPU_] |243| 
    5183                      .dwpsn  file "C:/ti/motorware/motorware_1_01_00_18/sw/modules/pid/src/32b/pid.h",line 242,column 3,is
    5184 00000460 87C4          MOVL      XT,*+XAR4[0]          ; [CPU_] |242| 
    5185 00000461 5605          IMPYL     P,XT,ACC              ; [CPU_] |242| 
         00000462 00A9 
TMS320C2000 Assembler PC v6.2.5 Tue Jun 27 16:56:14 2017

Tools Copyright (c) 1996-2014 Texas Instruments Incorporated
C:\Users\wmj\AppData\Local\Temp\1139610                              PAGE  101

    5186 00000463 5663          QMPYL     ACC,XT,ACC            ; [CPU_] |242| 
         00000464 00A9 
    5187 00000465 56A7          LSL64     ACC:P,#8              ; [CPU_] |242| 
    5188                      .dwpsn  file "C:/ti/motorware/motorware_1_01_00_18/sw/modules/pid/src/32b/pid.h",line 243,column 3,is
    5189 00000466 87D4          MOVL      XT,*+XAR4[2]          ; [CPU_] |243| 
    5190                      .dwpsn  file "C:/ti/motorware/motorware_1_01_00_18/sw/modules/pid/src/32b/pid.h",line 242,column 3,is
    5191 00000467 1EA6          MOVL      XAR6,ACC              ; [CPU_] |242| 
    5192                      .dwpsn  file "C:/ti/motorware/motorware_1_01_00_18/sw/modules/pid/src/32b/pid.h",line 243,column 3,is
    5193 00000468 5605          IMPYL     P,XT,XAR6             ; [CPU_] |243| 
         00000469 00A6 
    5194 0000046a 5663          QMPYL     ACC,XT,XAR6           ; [CPU_] |243| 
         0000046b 00A6 
    5195 0000046c 56A7          LSL64     ACC:P,#8              ; [CPU_] |243| 
    5196 0000046d 07F4          ADDL      ACC,*+XAR4[6]         ; [CPU_] |243| 
    5197 0000046e 5650          MINL      ACC,*+XAR4[AR1]       ; [CPU_] |243| 
         0000046f 009C 
    5198 00000470 5661          MAXL      ACC,*+XAR4[AR0]       ; [CPU_] |243| 
         00000471 0094 
    5199                      .dwpsn  file "C:/ti/motorware/motorware_1_01_00_18/sw/modules/pid/src/32b/pid.h",line 245,column 3,is
    5200 00000472 1EF4          MOVL      *+XAR4[6],ACC         ; [CPU_] |245| 
    5201                      .dwpsn  file "C:/ti/motorware/motorware_1_01_00_18/sw/modules/pid/src/32b/pid.h",line 246,column 3,is
    5202 00000473 C546          MOVL      XAR7,*-SP[6]          ; [CPU_] |246| 
    5203 00000474 D008          MOVB      XAR0,#8               ; [CPU_] |246| 
    5204                      .dwpsn  file "C:/ti/motorware/motorware_1_01_00_18/sw/modules/pid/src/32b/pid.h",line 249,column 3,is
    5205 00000475 D10E          MOVB      XAR1,#14              ; [CPU_] |249| 
    5206 00000476 07A6          ADDL      ACC,XAR6              ; [CPU_] |249| 
    5207                      .dwpsn  file "C:/ti/motorware/motorware_1_01_00_18/sw/modules/pid/src/32b/pid.h",line 246,column 3,is
    5208 00000477 C394          MOVL      *+XAR4[AR0],XAR7      ; [CPU_] |246| 
    5209                      .dwpsn  file "C:/ti/motorware/motorware_1_01_00_18/sw/modules/pid/src/32b/pid.h",line 247,column 3,is
    5210 00000478 D00A          MOVB      XAR0,#10              ; [CPU_] |247| 
    5211 00000479 AA94          MOVL      *+XAR4[AR0],XAR2      ; [CPU_] |247| 
    5212                      .dwpsn  file "C:/ti/motorware/motorware_1_01_00_18/sw/modules/pid/src/32b/pid.h",line 249,column 3,is
    5213 0000047a D00C          MOVB      XAR0,#12              ; [CPU_] |249| 
    5214 0000047b 5650          MINL      ACC,*+XAR4[AR1]       ; [CPU_] |249| 
         0000047c 009C 
    5215 0000047d 5661          MAXL      ACC,*+XAR4[AR0]       ; [CPU_] |249| 
         0000047e 0094 
    5216 0000047f 8A5E          MOVL      XAR4,*-SP[30]         ; [CPU_] |249| 
    5217 00000480 1ED4          MOVL      *+XAR4[2],ACC         ; [CPU_] |249| 
    5218 00000481       $C$L70:    
    5219                      .dwpsn  file "C:/ti/motorware/motorware_1_01_00_18/sw/modules/ctrl/src/32b/ctrl.h",line 2129,column 2
    5220 00000481 D018          MOVB      XAR0,#24              ; [CPU_] |2129| 
    5221 00000482 8A93          MOVL      XAR4,*+XAR3[AR0]      ; [CPU_] |2129| 
    5222              $C$DW$417       .dwtag  DW_TAG_TI_branch
    5223                      .dwattr $C$DW$417, DW_AT_low_pc(0x00)
    5224                      .dwattr $C$DW$417, DW_AT_name("_EST_getFm_pu")
    5225                      .dwattr $C$DW$417, DW_AT_TI_call
    5226 00000483 7640!         LCR       #_EST_getFm_pu        ; [CPU_] |2129| 
         00000484 0000 
    5227                      ; call occurs [#_EST_getFm_pu] ; [] |2129| 
    5228 00000485 8F03          MOVL      XAR4,#223696          ; [CPU_U] |2129| 
         00000486 69D0 
    5229 00000487 1EAC          MOVL      XT,ACC                ; [CPU_] |2129| 
    5230                      .dwpsn  file "C:/ti/motorware/motorware_1_01_00_18/sw/modules/ctrl/src/32b/ctrl.h",line 2142,column 3
    5231 00000488 C454          MOVL      XAR6,*-SP[20]         ; [CPU_] |2142| 
TMS320C2000 Assembler PC v6.2.5 Tue Jun 27 16:56:14 2017

Tools Copyright (c) 1996-2014 Texas Instruments Incorporated
C:\Users\wmj\AppData\Local\Temp\1139610                              PAGE  102

    5232                      .dwpsn  file "C:/ti/motorware/motorware_1_01_00_18/sw/modules/ctrl/src/32b/ctrl.h",line 2129,column 2
    5233 00000489 5605          IMPYL     P,XT,XAR4             ; [CPU_] |2129| 
         0000048a 00A4 
    5234 0000048b 5663          QMPYL     ACC,XT,XAR4           ; [CPU_] |2129| 
         0000048c 00A4 
    5235 0000048d 56A7          LSL64     ACC:P,#8              ; [CPU_] |2129| 
    5236 0000048e 1EAC          MOVL      XT,ACC                ; [CPU_] |2129| 
    5237                      .dwpsn  file "C:/ti/motorware/motorware_1_01_00_18/sw/modules/ctrl/src/32b/ctrl.h",line 2142,column 3
    5238 0000048f FF2F          MOV       ACC,#768 << 15        ; [CPU_] |2142| 
         00000490 0300 
    5239 00000491 5605          IMPYL     P,XT,ACC              ; [CPU_] |2142| 
         00000492 00A9 
    5240 00000493 5663          QMPYL     ACC,XT,ACC            ; [CPU_] |2142| 
         00000494 00A9 
    5241 00000495 56A7          LSL64     ACC:P,#8              ; [CPU_] |2142| 
    5242 00000496 07A6          ADDL      ACC,XAR6              ; [CPU_] |2142| 
    5243 00000497 1EA6          MOVL      XAR6,ACC              ; [CPU_] |2142| 
    5244 00000498 FF56          ABS       ACC                   ; [CPU_] |2142| 
    5245 00000499 91FF          ANDB      AH,#255               ; [CPU_] |2142| 
    5246 0000049a 8BA9          MOVL      XAR1,ACC              ; [CPU_] |2142| 
    5247 0000049b 06A6          MOVL      ACC,XAR6              ; [CPU_] |2142| 
    5248                      .dwpsn  file "C:/ti/motorware/motorware_1_01_00_18/sw/modules/ctrl/src/32b/ctrl.h",line 2145,column 3
    5249 0000049c 6304          B         $C$L71,GEQ            ; [CPU_] |2145| 
    5250                      ; branchcc occurs ; [] |2145| 
    5251                      .dwpsn  file "C:/ti/motorware/motorware_1_01_00_18/sw/modules/ctrl/src/32b/ctrl.h",line 2147,column 7
    5252 0000049d B2A9          MOVL      ACC,XAR1              ; [CPU_] |2147| 
    5253 0000049e FF54          NEG       ACC                   ; [CPU_] |2147| 
    5254 0000049f 8BA9          MOVL      XAR1,ACC              ; [CPU_] |2147| 
    5255 000004a0       $C$L71:    
    5256                      .dwpsn  file "C:/ti/motorware/motorware_1_01_00_18/sw/modules/ctrl/src/32b/ctrl.h",line 2043,column 3
    5257 000004a0 B2A9          MOVL      ACC,XAR1              ; [CPU_] |2043| 
    5258              $C$DW$418       .dwtag  DW_TAG_TI_branch
    5259                      .dwattr $C$DW$418, DW_AT_low_pc(0x00)
    5260                      .dwattr $C$DW$418, DW_AT_name("__IQ24cosPU")
    5261                      .dwattr $C$DW$418, DW_AT_TI_call
    5262 000004a1 7640!         LCR       #__IQ24cosPU          ; [CPU_] |2043| 
         000004a2 0000 
    5263                      ; call occurs [#__IQ24cosPU] ; [] |2043| 
    5264 000004a3 1E50          MOVL      *-SP[16],ACC          ; [CPU_] |2043| 
    5265                      .dwpsn  file "C:/ti/motorware/motorware_1_01_00_18/sw/modules/ctrl/src/32b/ctrl.h",line 2044,column 3
    5266 000004a4 B2A9          MOVL      ACC,XAR1              ; [CPU_] |2044| 
    5267              $C$DW$419       .dwtag  DW_TAG_TI_branch
    5268                      .dwattr $C$DW$419, DW_AT_low_pc(0x00)
    5269                      .dwattr $C$DW$419, DW_AT_name("__IQ24sinPU")
    5270                      .dwattr $C$DW$419, DW_AT_TI_call
    5271 000004a5 7640!         LCR       #__IQ24sinPU          ; [CPU_] |2044| 
         000004a6 0000 
    5272                      ; call occurs [#__IQ24sinPU] ; [] |2044| 
    5273                      .dwpsn  file "C:/ti/motorware/motorware_1_01_00_18/sw/modules/ipark/src/32b/ipark.h",line 173,column 
    5274 000004a7 D056          MOVB      XAR0,#86              ; [CPU_] |173| 
    5275                      .dwpsn  file "C:/ti/motorware/motorware_1_01_00_18/sw/modules/ctrl/src/32b/ctrl.h",line 2044,column 3
    5276 000004a8 1E4E          MOVL      *-SP[14],ACC          ; [CPU_] |2044| 
    5277                      .dwpsn  file "C:/ti/motorware/motorware_1_01_00_18/sw/modules/ipark/src/32b/ipark.h",line 173,column 
    5278 000004a9 8A93          MOVL      XAR4,*+XAR3[AR0]      ; [CPU_] |173| 
    5279                      .dwpsn  file "C:/ti/motorware/motorware_1_01_00_18/sw/modules/ipark/src/32b/ipark.h",line 175,column 
TMS320C2000 Assembler PC v6.2.5 Tue Jun 27 16:56:14 2017

Tools Copyright (c) 1996-2014 Texas Instruments Incorporated
C:\Users\wmj\AppData\Local\Temp\1139610                              PAGE  103

    5280 000004aa 0650          MOVL      ACC,*-SP[16]          ; [CPU_] |175| 
    5281                      .dwpsn  file "C:/ti/motorware/motorware_1_01_00_18/sw/modules/ipark/src/32b/ipark.h",line 141,column 
    5282 000004ab D056          MOVB      XAR0,#86              ; [CPU_] |141| 
    5283                      .dwpsn  file "C:/ti/motorware/motorware_1_01_00_18/sw/modules/ipark/src/32b/ipark.h",line 175,column 
    5284 000004ac 1ED4          MOVL      *+XAR4[2],ACC         ; [CPU_] |175| 
    5285                      .dwpsn  file "C:/ti/motorware/motorware_1_01_00_18/sw/modules/ipark/src/32b/ipark.h",line 176,column 
    5286 000004ad 064E          MOVL      ACC,*-SP[14]          ; [CPU_] |176| 
    5287 000004ae 1EC4          MOVL      *+XAR4[0],ACC         ; [CPU_] |176| 
    5288                      .dwpsn  file "C:/ti/motorware/motorware_1_01_00_18/sw/modules/ctrl/src/32b/ctrl.h",line 891,column 3,
    5289 000004af 02C0          MOVB      ACC,#192              ; [CPU_] |891| 
    5290 000004b0 07A3          ADDL      ACC,XAR3              ; [CPU_] |891| 
    5291                      .dwpsn  file "C:/ti/motorware/motorware_1_01_00_18/sw/modules/ipark/src/32b/ipark.h",line 141,column 
    5292 000004b1 C493          MOVL      XAR6,*+XAR3[AR0]      ; [CPU_] |141| 
    5293                      .dwpsn  file "C:/ti/motorware/motorware_1_01_00_18/sw/modules/ctrl/src/32b/ctrl.h",line 891,column 3,
    5294 000004b2 83A9          MOVL      XAR5,ACC              ; [CPU_] |891| 
    5295                      .dwpsn  file "C:/ti/motorware/motorware_1_01_00_18/sw/modules/ctrl/src/32b/ctrl.h",line 852,column 3,
    5296 000004b3 02BC          MOVB      ACC,#188              ; [CPU_] |852| 
    5297 000004b4 07A3          ADDL      ACC,XAR3              ; [CPU_] |852| 
    5298                      .dwpsn  file "C:/ti/motorware/motorware_1_01_00_18/sw/modules/ipark/src/32b/ipark.h",line 144,column 
    5299 000004b5 8EC5          MOVL      XAR0,*+XAR5[0]        ; [CPU_] |144| 
    5300                      .dwpsn  file "C:/ti/motorware/motorware_1_01_00_18/sw/modules/ipark/src/32b/ipark.h",line 141,column 
    5301 000004b6 C5C6          MOVL      XAR7,*+XAR6[0]        ; [CPU_] |141| 
    5302                      .dwpsn  file "C:/ti/motorware/motorware_1_01_00_18/sw/modules/ipark/src/32b/ipark.h",line 145,column 
    5303 000004b7 83D5          MOVL      XAR5,*+XAR5[2]        ; [CPU_] |145| 
    5304 000004b8 3B01          SETC      SXM                   ; [CPU_] 
    5305                      .dwpsn  file "C:/ti/motorware/motorware_1_01_00_18/sw/modules/ipark/src/32b/ipark.h",line 148,column 
    5306 000004b9 8AA9          MOVL      XAR4,ACC              ; [CPU_] |148| 
    5307                      .dwpsn  file "C:/ti/motorware/motorware_1_01_00_18/sw/modules/ipark/src/32b/ipark.h",line 142,column 
    5308 000004ba C4D6          MOVL      XAR6,*+XAR6[2]        ; [CPU_] |142| 
    5309                      .dwpsn  file "C:/ti/motorware/motorware_1_01_00_18/sw/modules/ipark/src/32b/ipark.h",line 148,column 
    5310 000004bb A0AC          MOVL      XT,XAR5               ; [CPU_] |148| 
    5311 000004bc 5605          IMPYL     P,XT,XAR7             ; [CPU_] |148| 
         000004bd 00A7 
    5312 000004be 5663          QMPYL     ACC,XT,XAR7           ; [CPU_] |148| 
         000004bf 00A7 
    5313 000004c0 56A7          LSL64     ACC:P,#8              ; [CPU_] |148| 
    5314 000004c1 3AAC          MOVL      XT,XAR0               ; [CPU_] |148| 
    5315 000004c2 86A9          MOVL      XAR2,ACC              ; [CPU_] |148| 
    5316 000004c3 5605          IMPYL     P,XT,XAR6             ; [CPU_] |148| 
         000004c4 00A6 
    5317 000004c5 5663          QMPYL     ACC,XT,XAR6           ; [CPU_] |148| 
         000004c6 00A6 
    5318 000004c7 56A7          LSL64     ACC:P,#8              ; [CPU_] |148| 
    5319 000004c8 A0AC          MOVL      XT,XAR5               ; [CPU_] |148| 
    5320 000004c9 03A2          SUBL      ACC,XAR2              ; [CPU_] |148| 
    5321                      .dwpsn  file "C:/ti/motorware/motorware_1_01_00_18/sw/modules/ipark/src/32b/ipark.h",line 149,column 
    5322 000004ca 5605          IMPYL     P,XT,XAR6             ; [CPU_] |149| 
         000004cb 00A6 
    5323                      .dwpsn  file "C:/ti/motorware/motorware_1_01_00_18/sw/modules/ipark/src/32b/ipark.h",line 148,column 
    5324 000004cc 1EC4          MOVL      *+XAR4[0],ACC         ; [CPU_] |148| 
    5325                      .dwpsn  file "C:/ti/motorware/motorware_1_01_00_18/sw/modules/ipark/src/32b/ipark.h",line 149,column 
    5326 000004cd 5663          QMPYL     ACC,XT,XAR6           ; [CPU_] |149| 
         000004ce 00A6 
    5327 000004cf 56A7          LSL64     ACC:P,#8              ; [CPU_] |149| 
    5328 000004d0 3AAC          MOVL      XT,XAR0               ; [CPU_] |149| 
TMS320C2000 Assembler PC v6.2.5 Tue Jun 27 16:56:14 2017

Tools Copyright (c) 1996-2014 Texas Instruments Incorporated
C:\Users\wmj\AppData\Local\Temp\1139610                              PAGE  104

    5329 000004d1 1EA6          MOVL      XAR6,ACC              ; [CPU_] |149| 
    5330 000004d2 5605          IMPYL     P,XT,XAR7             ; [CPU_] |149| 
         000004d3 00A7 
    5331 000004d4 5663          QMPYL     ACC,XT,XAR7           ; [CPU_] |149| 
         000004d5 00A7 
    5332 000004d6 56A7          LSL64     ACC:P,#8              ; [CPU_] |149| 
    5333 000004d7 07A6          ADDL      ACC,XAR6              ; [CPU_] |149| 
    5334 000004d8 1ED4          MOVL      *+XAR4[2],ACC         ; [CPU_] |149| 
    5335                      .dwpsn  file "C:/ti/motorware/motorware_1_01_00_18/sw/modules/svgen/src/32b/svgen.h",line 129,column 
    5336 000004d9 06C4          MOVL      ACC,*+XAR4[0]         ; [CPU_] |129| 
    5337                      .dwpsn  file "C:/ti/motorware/motorware_1_01_00_18/sw/modules/ipark/src/32b/ipark.h",line 149,column 
    5338 000004da C45A          MOVL      XAR6,*-SP[26]         ; [CPU_] |149| 
    5339                      .dwpsn  file "C:/ti/motorware/motorware_1_01_00_18/sw/modules/svgen/src/32b/svgen.h",line 129,column 
    5340 000004db FF40          SFR       ACC,1                 ; [CPU_] |129| 
    5341                      .dwpsn  file "C:/ti/motorware/motorware_1_01_00_18/sw/modules/svgen/src/32b/svgen.h",line 132,column 
    5342 000004dc 8EC4          MOVL      XAR0,*+XAR4[0]        ; [CPU_] |132| 
    5343                      .dwpsn  file "C:/ti/motorware/motorware_1_01_00_18/sw/modules/svgen/src/32b/svgen.h",line 129,column 
    5344 000004dd FF54          NEG       ACC                   ; [CPU_] |129| 
    5345 000004de 1EA7          MOVL      XAR7,ACC              ; [CPU_] |129| 
    5346                      .dwpsn  file "C:/ti/motorware/motorware_1_01_00_18/sw/modules/svgen/src/32b/svgen.h",line 130,column 
    5347 000004df 28A9          MOV       AL,#46039             ; [CPU_] |130| 
         000004e0 B3D7 
    5348 000004e1 9BDD          MOV       AH,#221               ; [CPU_] |130| 
    5349 000004e2 1EAC          MOVL      XT,ACC                ; [CPU_] |130| 
    5350 000004e3 5605          IMPYL     P,XT,*+XAR4[2]        ; [CPU_] |130| 
         000004e4 00D4 
    5351 000004e5 5663          QMPYL     ACC,XT,*+XAR4[2]      ; [CPU_] |130| 
         000004e6 00D4 
    5352 000004e7 56A7          LSL64     ACC:P,#8              ; [CPU_] |130| 
    5353                      .dwpsn  file "C:/ti/motorware/motorware_1_01_00_18/sw/modules/svgen/src/32b/svgen.h",line 133,column 
    5354 000004e8 FF5A          MOVL      P,ACC                 ; [CPU_] |133| 
    5355 000004e9 5657          ADDUL     P,XAR7                ; [CPU_] |133| 
         000004ea 00A7 
    5356                      .dwpsn  file "C:/ti/motorware/motorware_1_01_00_18/sw/modules/svgen/src/32b/svgen.h",line 134,column 
    5357 000004eb 5641          SUBL      XAR7,ACC              ; [CPU_] |134| 
         000004ec 00A7 
    5358                      .dwpsn  file "C:/ti/motorware/motorware_1_01_00_18/sw/modules/svgen/src/32b/svgen.h",line 133,column 
    5359 000004ed A9A5          MOVL      XAR5,P                ; [CPU_] |133| 
    5360                      .dwpsn  file "C:/ti/motorware/motorware_1_01_00_18/sw/modules/svgen/src/32b/svgen.h",line 134,column 
    5361 000004ee A0A9          MOVL      ACC,XAR5              ; [CPU_] |134| 
    5362                      .dwpsn  file "C:/ti/motorware/motorware_1_01_00_18/sw/modules/svgen/src/32b/svgen.h",line 140,column 
    5363 000004ef 0FA0          CMPL      ACC,XAR0              ; [CPU_] |140| 
    5364 000004f0 6403          B         $C$L72,LT             ; [CPU_] |140| 
    5365                      ; branchcc occurs ; [] |140| 
    5366                      .dwpsn  file "C:/ti/motorware/motorware_1_01_00_18/sw/modules/svgen/src/32b/svgen.h",line 148,column 
    5367 000004f1 3AAC          MOVL      XT,XAR0               ; [CPU_] |148| 
    5368 000004f2 6F03          B         $C$L73,UNC            ; [CPU_] |148| 
    5369                      ; branch occurs ; [] |148| 
    5370 000004f3       $C$L72:    
    5371                      .dwpsn  file "C:/ti/motorware/motorware_1_01_00_18/sw/modules/svgen/src/32b/svgen.h",line 142,column 
    5372 000004f3 3AAB          MOVL      P,XAR0                ; [CPU_] |142| 
    5373 000004f4 A0AC          MOVL      XT,XAR5               ; [CPU_] |142| 
    5374 000004f5       $C$L73:    
    5375 000004f5 A9A9          MOVL      ACC,P                 ; [CPU_] 
    5376                      .dwpsn  file "C:/ti/motorware/motorware_1_01_00_18/sw/modules/svgen/src/32b/svgen.h",line 151,column 
TMS320C2000 Assembler PC v6.2.5 Tue Jun 27 16:56:14 2017

Tools Copyright (c) 1996-2014 Texas Instruments Incorporated
C:\Users\wmj\AppData\Local\Temp\1139610                              PAGE  105

    5377 000004f6 0FA7          CMPL      ACC,XAR7              ; [CPU_] |151| 
    5378 000004f7 6406          B         $C$L75,LT             ; [CPU_] |151| 
    5379                      ; branchcc occurs ; [] |151| 
    5380 000004f8 ABA9          MOVL      ACC,XT                ; [CPU_] 
    5381                      .dwpsn  file "C:/ti/motorware/motorware_1_01_00_18/sw/modules/svgen/src/32b/svgen.h",line 155,column 
    5382 000004f9 0FA7          CMPL      ACC,XAR7              ; [CPU_] |155| 
    5383 000004fa 6504          B         $C$L76,LEQ            ; [CPU_] |155| 
    5384                      ; branchcc occurs ; [] |155| 
    5385 000004fb       $C$L74:    
    5386                      .dwpsn  file "C:/ti/motorware/motorware_1_01_00_18/sw/modules/svgen/src/32b/svgen.h",line 157,column 
    5387 000004fb 87A7          MOVL      XT,XAR7               ; [CPU_] |157| 
    5388 000004fc 6F02          B         $C$L76,UNC            ; [CPU_] |157| 
    5389                      ; branch occurs ; [] |157| 
    5390 000004fd       $C$L75:    
    5391                      .dwpsn  file "C:/ti/motorware/motorware_1_01_00_18/sw/modules/svgen/src/32b/svgen.h",line 153,column 
    5392 000004fd A3A7          MOVL      P,XAR7                ; [CPU_] |153| 
    5393 000004fe       $C$L76:    
    5394                      .dwpsn  file "C:/ti/motorware/motorware_1_01_00_18/sw/modules/svgen/src/32b/svgen.h",line 163,column 
    5395 000004fe A9A9          MOVL      ACC,P                 ; [CPU_] |163| 
    5396 000004ff 5601          ADDL      XT,ACC                ; [CPU_] |163| 
         00000500 00AC 
    5397 00000501 8AA6          MOVL      XAR4,XAR6             ; [CPU_] |163| 
    5398 00000502 9A00          MOV       AL,#0                 ; [CPU_] |163| 
    5399 00000503 9B80          MOV       AH,#128               ; [CPU_] |163| 
    5400 00000504 5605          IMPYL     P,XT,ACC              ; [CPU_] |163| 
         00000505 00A9 
    5401 00000506 5663          QMPYL     ACC,XT,ACC            ; [CPU_] |163| 
         00000507 00A9 
    5402 00000508 56A7          LSL64     ACC:P,#8              ; [CPU_] |163| 
    5403 00000509 5641          SUBL      XAR0,ACC              ; [CPU_] |163| 
         0000050a 00A0 
    5404                      .dwpsn  file "C:/ti/motorware/motorware_1_01_00_18/sw/modules/svgen/src/32b/svgen.h",line 164,column 
    5405 0000050b 5641          SUBL      XAR5,ACC              ; [CPU_] |164| 
         0000050c 00A5 
    5406                      .dwpsn  file "C:/ti/motorware/motorware_1_01_00_18/sw/modules/svgen/src/32b/svgen.h",line 165,column 
    5407 0000050d 5641          SUBL      XAR7,ACC              ; [CPU_] |165| 
         0000050e 00A7 
    5408                      .dwpsn  file "C:/ti/motorware/motorware_1_01_00_18/sw/modules/svgen/src/32b/svgen.h",line 163,column 
    5409 0000050f 3AC4          MOVL      *+XAR4[0],XAR0        ; [CPU_] |163| 
    5410                      .dwpsn  file "C:/ti/motorware/motorware_1_01_00_18/sw/modules/svgen/src/32b/svgen.h",line 164,column 
    5411 00000510 A0D4          MOVL      *+XAR4[2],XAR5        ; [CPU_] |164| 
    5412                      .dwpsn  file "C:/ti/motorware/motorware_1_01_00_18/sw/modules/svgen/src/32b/svgen.h",line 165,column 
    5413 00000511 C3E4          MOVL      *+XAR4[4],XAR7        ; [CPU_] |165| 
    5414                      .dwpsn  file "C:/ti/motorware/motorware_1_01_00_18/sw/modules/svgen/src/32b/svgen.h",line 167,column 
    5415 00000512 6F05          B         $C$L78,UNC            ; [CPU_] |167| 
    5416                      ; branch occurs ; [] |167| 
    5417 00000513       $C$L77:    
    5418                      .dwpsn  file "C:/ti/motorware/motorware_1_01_00_18/sw/modules/ctrl/src/32b/ctrl.h",line 977,column 3,
    5419 00000513 02ED          MOVB      ACC,#237              ; [CPU_] |977| 
    5420 00000514 07A3          ADDL      ACC,XAR3              ; [CPU_] |977| 
    5421 00000515 8AA9          MOVL      XAR4,ACC              ; [CPU_] |977| 
    5422 00000516 0AC4          INC       *+XAR4[0]             ; [CPU_] |977| 
    5423 00000517       $C$L78:    
    5424 00000517 FE9E          SUBB      SP,#30                ; [CPU_U] 
    5425                      .dwcfi  cfa_offset, -8
TMS320C2000 Assembler PC v6.2.5 Tue Jun 27 16:56:14 2017

Tools Copyright (c) 1996-2014 Texas Instruments Incorporated
C:\Users\wmj\AppData\Local\Temp\1139610                              PAGE  106

    5426 00000518 82BE          MOVL      XAR3,*--SP            ; [CPU_] 
    5427                      .dwcfi  cfa_offset, -6
    5428                      .dwcfi  restore_reg, 11
    5429 00000519 86BE          MOVL      XAR2,*--SP            ; [CPU_] 
    5430                      .dwcfi  cfa_offset, -4
    5431                      .dwcfi  restore_reg, 9
    5432 0000051a 8BBE          MOVL      XAR1,*--SP            ; [CPU_] 
    5433                      .dwcfi  cfa_offset, -2
    5434                      .dwcfi  restore_reg, 7
    5435              $C$DW$420       .dwtag  DW_TAG_TI_branch
    5436                      .dwattr $C$DW$420, DW_AT_low_pc(0x00)
    5437                      .dwattr $C$DW$420, DW_AT_TI_return
    5438 0000051b 0006          LRETR     ; [CPU_] 
    5439                      ; return occurs ; [] 
    5440                      .dwattr $C$DW$265, DW_AT_TI_end_file("C:/ti/motorware/motorware_1_01_00_18/sw/modules/ctrl/src/32b/ct
    5441                      .dwattr $C$DW$265, DW_AT_TI_end_line(0x103)
    5442                      .dwattr $C$DW$265, DW_AT_TI_end_column(0x01)
    5443                      .dwendentry
    5444                      .dwendtag $C$DW$265
    5445              
    5446 000003c8               .sect   ".text"
    5447                      .clink
    5448                      .global _CTRL_getWaitTimes
    5449              
    5450              $C$DW$421       .dwtag  DW_TAG_subprogram, DW_AT_name("CTRL_getWaitTimes")
    5451                      .dwattr $C$DW$421, DW_AT_low_pc(_CTRL_getWaitTimes)
    5452                      .dwattr $C$DW$421, DW_AT_high_pc(0x00)
    5453                      .dwattr $C$DW$421, DW_AT_TI_symbol_name("_CTRL_getWaitTimes")
    5454                      .dwattr $C$DW$421, DW_AT_external
    5455                      .dwattr $C$DW$421, DW_AT_TI_begin_file("C:/ti/motorware/motorware_1_01_00_18/sw/modules/ctrl/src/32b/
    5456                      .dwattr $C$DW$421, DW_AT_TI_begin_line(0xb5)
    5457                      .dwattr $C$DW$421, DW_AT_TI_begin_column(0x06)
    5458                      .dwattr $C$DW$421, DW_AT_TI_max_frame_size(-2)
    5459                      .dwpsn  file "C:/ti/motorware/motorware_1_01_00_18/sw/modules/ctrl/src/32b/ctrl.c",line 182,column 1,
    5460              
    5461                      .dwfde $C$DW$CIE, _CTRL_getWaitTimes
    5462              $C$DW$422       .dwtag  DW_TAG_formal_parameter, DW_AT_name("handle")
    5463                      .dwattr $C$DW$422, DW_AT_TI_symbol_name("_handle")
    5464                      .dwattr $C$DW$422, DW_AT_type(*$C$DW$T$161)
    5465                      .dwattr $C$DW$422, DW_AT_location[DW_OP_reg12]
    5466              $C$DW$423       .dwtag  DW_TAG_formal_parameter, DW_AT_name("pWaitTimes")
    5467                      .dwattr $C$DW$423, DW_AT_TI_symbol_name("_pWaitTimes")
    5468                      .dwattr $C$DW$423, DW_AT_type(*$C$DW$T$274)
    5469                      .dwattr $C$DW$423, DW_AT_location[DW_OP_reg14]
    5470              
    5471              ;***************************************************************
    5472              ;* FNAME: _CTRL_getWaitTimes            FR SIZE:   0           *
    5473              ;*                                                             *
    5474              ;* FUNCTION ENVIRONMENT                                        *
    5475              ;*                                                             *
    5476              ;* FUNCTION PROPERTIES                                         *
    5477              ;*                            0 Parameter,  0 Auto,  0 SOE     *
    5478              ;***************************************************************
    5479              
    5480              _CTRL_getWaitTimes:
TMS320C2000 Assembler PC v6.2.5 Tue Jun 27 16:56:14 2017

Tools Copyright (c) 1996-2014 Texas Instruments Incorporated
C:\Users\wmj\AppData\Local\Temp\1139610                              PAGE  107

    5481              ;* AR4   assigned to _handle
    5482              $C$DW$424       .dwtag  DW_TAG_variable, DW_AT_name("handle")
    5483                      .dwattr $C$DW$424, DW_AT_TI_symbol_name("_handle")
    5484                      .dwattr $C$DW$424, DW_AT_type(*$C$DW$T$175)
    5485                      .dwattr $C$DW$424, DW_AT_location[DW_OP_reg12]
    5486              ;* AR5   assigned to _pWaitTimes
    5487              $C$DW$425       .dwtag  DW_TAG_variable, DW_AT_name("pWaitTimes")
    5488                      .dwattr $C$DW$425, DW_AT_TI_symbol_name("_pWaitTimes")
    5489                      .dwattr $C$DW$425, DW_AT_type(*$C$DW$T$321)
    5490                      .dwattr $C$DW$425, DW_AT_location[DW_OP_reg14]
    5491              ;* AR6   assigned to $O$L1
    5492              ;* AL    assigned to $O$K9
    5493              ;* AR5   assigned to $O$U12
    5494              ;* AR4   assigned to $O$U10
    5495                      .dwcfi  cfa_offset, -2
    5496                      .dwcfi  save_reg_to_mem, 26, 0
    5497                      .dwcfi  save_reg_to_reg, 78, 26
    5498 000003c8 0292          MOVB      ACC,#146              ; [CPU_] 
    5499 000003c9 BE03          MOVB      XAR6,#3               ; [CPU_] 
    5500 000003ca 07A4          ADDL      ACC,XAR4              ; [CPU_] 
    5501 000003cb 8AA9          MOVL      XAR4,ACC              ; [CPU_] 
    5502 000003cc       $C$L79:    
    5503                      .dwpsn  file "C:/ti/motorware/motorware_1_01_00_18/sw/modules/ctrl/src/32b/ctrl.c",line 188,column 7,
    5504 000003cc 0684          MOVL      ACC,*XAR4++           ; [CPU_] |188| 
    5505 000003cd 1E85          MOVL      *XAR5++,ACC           ; [CPU_] |188| 
    5506                      .dwpsn  file "C:/ti/motorware/motorware_1_01_00_18/sw/modules/ctrl/src/32b/ctrl.c",line 186,column 18
    5507 000003ce 000E          BANZ      $C$L79,AR6--          ; [CPU_] |186| 
         000003cf FFFE 
    5508                      ; branchcc occurs ; [] |186| 
    5509              $C$DW$426       .dwtag  DW_TAG_TI_branch
    5510                      .dwattr $C$DW$426, DW_AT_low_pc(0x00)
    5511                      .dwattr $C$DW$426, DW_AT_TI_return
    5512 000003d0 0006          LRETR     ; [CPU_] 
    5513                      ; return occurs ; [] 
    5514                      .dwattr $C$DW$421, DW_AT_TI_end_file("C:/ti/motorware/motorware_1_01_00_18/sw/modules/ctrl/src/32b/ct
    5515                      .dwattr $C$DW$421, DW_AT_TI_end_line(0xc0)
    5516                      .dwattr $C$DW$421, DW_AT_TI_end_column(0x01)
    5517                      .dwendentry
    5518                      .dwendtag $C$DW$421
    5519              
    5520 000003d1               .sect   ".text"
    5521                      .clink
    5522                      .global _CTRL_getVdq_out_pu
    5523              
    5524              $C$DW$427       .dwtag  DW_TAG_subprogram, DW_AT_name("CTRL_getVdq_out_pu")
    5525                      .dwattr $C$DW$427, DW_AT_low_pc(_CTRL_getVdq_out_pu)
    5526                      .dwattr $C$DW$427, DW_AT_high_pc(0x00)
    5527                      .dwattr $C$DW$427, DW_AT_TI_symbol_name("_CTRL_getVdq_out_pu")
    5528                      .dwattr $C$DW$427, DW_AT_external
    5529                      .dwattr $C$DW$427, DW_AT_TI_begin_file("C:/ti/motorware/motorware_1_01_00_18/sw/modules/ctrl/src/32b/
    5530                      .dwattr $C$DW$427, DW_AT_TI_begin_line(0xaa)
    5531                      .dwattr $C$DW$427, DW_AT_TI_begin_column(0x06)
    5532                      .dwattr $C$DW$427, DW_AT_TI_max_frame_size(-2)
    5533                      .dwpsn  file "C:/ti/motorware/motorware_1_01_00_18/sw/modules/ctrl/src/32b/ctrl.c",line 171,column 1,
    5534              
TMS320C2000 Assembler PC v6.2.5 Tue Jun 27 16:56:14 2017

Tools Copyright (c) 1996-2014 Texas Instruments Incorporated
C:\Users\wmj\AppData\Local\Temp\1139610                              PAGE  108

    5535                      .dwfde $C$DW$CIE, _CTRL_getVdq_out_pu
    5536              $C$DW$428       .dwtag  DW_TAG_formal_parameter, DW_AT_name("handle")
    5537                      .dwattr $C$DW$428, DW_AT_TI_symbol_name("_handle")
    5538                      .dwattr $C$DW$428, DW_AT_type(*$C$DW$T$161)
    5539                      .dwattr $C$DW$428, DW_AT_location[DW_OP_reg12]
    5540              $C$DW$429       .dwtag  DW_TAG_formal_parameter, DW_AT_name("pVdq_out_pu")
    5541                      .dwattr $C$DW$429, DW_AT_TI_symbol_name("_pVdq_out_pu")
    5542                      .dwattr $C$DW$429, DW_AT_type(*$C$DW$T$200)
    5543                      .dwattr $C$DW$429, DW_AT_location[DW_OP_reg14]
    5544              
    5545              ;***************************************************************
    5546              ;* FNAME: _CTRL_getVdq_out_pu           FR SIZE:   0           *
    5547              ;*                                                             *
    5548              ;* FUNCTION ENVIRONMENT                                        *
    5549              ;*                                                             *
    5550              ;* FUNCTION PROPERTIES                                         *
    5551              ;*                            0 Parameter,  0 Auto,  0 SOE     *
    5552              ;***************************************************************
    5553              
    5554              _CTRL_getVdq_out_pu:
    5555              ;* AR5   assigned to $O$C1
    5556              ;* AR4   assigned to $O$C2
    5557              ;* AR4   assigned to _handle
    5558              $C$DW$430       .dwtag  DW_TAG_variable, DW_AT_name("handle")
    5559                      .dwattr $C$DW$430, DW_AT_TI_symbol_name("_handle")
    5560                      .dwattr $C$DW$430, DW_AT_type(*$C$DW$T$175)
    5561                      .dwattr $C$DW$430, DW_AT_location[DW_OP_reg12]
    5562              ;* AR5   assigned to _pVdq_out_pu
    5563              $C$DW$431       .dwtag  DW_TAG_variable, DW_AT_name("pVdq_out_pu")
    5564                      .dwattr $C$DW$431, DW_AT_TI_symbol_name("_pVdq_out_pu")
    5565                      .dwattr $C$DW$431, DW_AT_type(*$C$DW$T$202)
    5566                      .dwattr $C$DW$431, DW_AT_location[DW_OP_reg14]
    5567                      .dwcfi  cfa_offset, -2
    5568                      .dwcfi  save_reg_to_mem, 26, 0
    5569                      .dwcfi  save_reg_to_reg, 78, 26
    5570                      .dwpsn  file "C:/ti/motorware/motorware_1_01_00_18/sw/modules/ctrl/src/32b/ctrl.c",line 174,column 3,
    5571 000003d1 02C0          MOVB      ACC,#192              ; [CPU_] |174| 
    5572 000003d2 07A4          ADDL      ACC,XAR4              ; [CPU_] |174| 
    5573 000003d3 8AA9          MOVL      XAR4,ACC              ; [CPU_] |174| 
    5574 000003d4 06C4          MOVL      ACC,*+XAR4[0]         ; [CPU_] |174| 
    5575 000003d5 1EC5          MOVL      *+XAR5[0],ACC         ; [CPU_] |174| 
    5576                      .dwpsn  file "C:/ti/motorware/motorware_1_01_00_18/sw/modules/ctrl/src/32b/ctrl.c",line 175,column 3,
    5577 000003d6 06D4          MOVL      ACC,*+XAR4[2]         ; [CPU_] |175| 
    5578 000003d7 1ED5          MOVL      *+XAR5[2],ACC         ; [CPU_] |175| 
    5579              $C$DW$432       .dwtag  DW_TAG_TI_branch
    5580                      .dwattr $C$DW$432, DW_AT_low_pc(0x00)
    5581                      .dwattr $C$DW$432, DW_AT_TI_return
    5582 000003d8 0006          LRETR     ; [CPU_] 
    5583                      ; return occurs ; [] 
    5584                      .dwattr $C$DW$427, DW_AT_TI_end_file("C:/ti/motorware/motorware_1_01_00_18/sw/modules/ctrl/src/32b/ct
    5585                      .dwattr $C$DW$427, DW_AT_TI_end_line(0xb2)
    5586                      .dwattr $C$DW$427, DW_AT_TI_end_column(0x01)
    5587                      .dwendentry
    5588                      .dwendtag $C$DW$427
    5589              
TMS320C2000 Assembler PC v6.2.5 Tue Jun 27 16:56:14 2017

Tools Copyright (c) 1996-2014 Texas Instruments Incorporated
C:\Users\wmj\AppData\Local\Temp\1139610                              PAGE  109

    5590 000003d9               .sect   ".text"
    5591                      .clink
    5592                      .global _CTRL_getVab_out_pu
    5593              
    5594              $C$DW$433       .dwtag  DW_TAG_subprogram, DW_AT_name("CTRL_getVab_out_pu")
    5595                      .dwattr $C$DW$433, DW_AT_low_pc(_CTRL_getVab_out_pu)
    5596                      .dwattr $C$DW$433, DW_AT_high_pc(0x00)
    5597                      .dwattr $C$DW$433, DW_AT_TI_symbol_name("_CTRL_getVab_out_pu")
    5598                      .dwattr $C$DW$433, DW_AT_external
    5599                      .dwattr $C$DW$433, DW_AT_TI_begin_file("C:/ti/motorware/motorware_1_01_00_18/sw/modules/ctrl/src/32b/
    5600                      .dwattr $C$DW$433, DW_AT_TI_begin_line(0x9f)
    5601                      .dwattr $C$DW$433, DW_AT_TI_begin_column(0x06)
    5602                      .dwattr $C$DW$433, DW_AT_TI_max_frame_size(-2)
    5603                      .dwpsn  file "C:/ti/motorware/motorware_1_01_00_18/sw/modules/ctrl/src/32b/ctrl.c",line 160,column 1,
    5604              
    5605                      .dwfde $C$DW$CIE, _CTRL_getVab_out_pu
    5606              $C$DW$434       .dwtag  DW_TAG_formal_parameter, DW_AT_name("handle")
    5607                      .dwattr $C$DW$434, DW_AT_TI_symbol_name("_handle")
    5608                      .dwattr $C$DW$434, DW_AT_type(*$C$DW$T$161)
    5609                      .dwattr $C$DW$434, DW_AT_location[DW_OP_reg12]
    5610              $C$DW$435       .dwtag  DW_TAG_formal_parameter, DW_AT_name("pVab_out_pu")
    5611                      .dwattr $C$DW$435, DW_AT_TI_symbol_name("_pVab_out_pu")
    5612                      .dwattr $C$DW$435, DW_AT_type(*$C$DW$T$200)
    5613                      .dwattr $C$DW$435, DW_AT_location[DW_OP_reg14]
    5614              
    5615              ;***************************************************************
    5616              ;* FNAME: _CTRL_getVab_out_pu           FR SIZE:   0           *
    5617              ;*                                                             *
    5618              ;* FUNCTION ENVIRONMENT                                        *
    5619              ;*                                                             *
    5620              ;* FUNCTION PROPERTIES                                         *
    5621              ;*                            0 Parameter,  0 Auto,  0 SOE     *
    5622              ;***************************************************************
    5623              
    5624              _CTRL_getVab_out_pu:
    5625              ;* AR5   assigned to $O$C1
    5626              ;* AR4   assigned to $O$C2
    5627              ;* AR4   assigned to _handle
    5628              $C$DW$436       .dwtag  DW_TAG_variable, DW_AT_name("handle")
    5629                      .dwattr $C$DW$436, DW_AT_TI_symbol_name("_handle")
    5630                      .dwattr $C$DW$436, DW_AT_type(*$C$DW$T$175)
    5631                      .dwattr $C$DW$436, DW_AT_location[DW_OP_reg12]
    5632              ;* AR5   assigned to _pVab_out_pu
    5633              $C$DW$437       .dwtag  DW_TAG_variable, DW_AT_name("pVab_out_pu")
    5634                      .dwattr $C$DW$437, DW_AT_TI_symbol_name("_pVab_out_pu")
    5635                      .dwattr $C$DW$437, DW_AT_type(*$C$DW$T$202)
    5636                      .dwattr $C$DW$437, DW_AT_location[DW_OP_reg14]
    5637                      .dwcfi  cfa_offset, -2
    5638                      .dwcfi  save_reg_to_mem, 26, 0
    5639                      .dwcfi  save_reg_to_reg, 78, 26
    5640                      .dwpsn  file "C:/ti/motorware/motorware_1_01_00_18/sw/modules/ctrl/src/32b/ctrl.c",line 163,column 3,
    5641 000003d9 02BC          MOVB      ACC,#188              ; [CPU_] |163| 
    5642 000003da 07A4          ADDL      ACC,XAR4              ; [CPU_] |163| 
    5643 000003db 8AA9          MOVL      XAR4,ACC              ; [CPU_] |163| 
    5644 000003dc 06C4          MOVL      ACC,*+XAR4[0]         ; [CPU_] |163| 
TMS320C2000 Assembler PC v6.2.5 Tue Jun 27 16:56:14 2017

Tools Copyright (c) 1996-2014 Texas Instruments Incorporated
C:\Users\wmj\AppData\Local\Temp\1139610                              PAGE  110

    5645 000003dd 1EC5          MOVL      *+XAR5[0],ACC         ; [CPU_] |163| 
    5646                      .dwpsn  file "C:/ti/motorware/motorware_1_01_00_18/sw/modules/ctrl/src/32b/ctrl.c",line 164,column 3,
    5647 000003de 06D4          MOVL      ACC,*+XAR4[2]         ; [CPU_] |164| 
    5648 000003df 1ED5          MOVL      *+XAR5[2],ACC         ; [CPU_] |164| 
    5649              $C$DW$438       .dwtag  DW_TAG_TI_branch
    5650                      .dwattr $C$DW$438, DW_AT_low_pc(0x00)
    5651                      .dwattr $C$DW$438, DW_AT_TI_return
    5652 000003e0 0006          LRETR     ; [CPU_] 
    5653                      ; return occurs ; [] 
    5654                      .dwattr $C$DW$433, DW_AT_TI_end_file("C:/ti/motorware/motorware_1_01_00_18/sw/modules/ctrl/src/32b/ct
    5655                      .dwattr $C$DW$433, DW_AT_TI_end_line(0xa7)
    5656                      .dwattr $C$DW$433, DW_AT_TI_end_column(0x01)
    5657                      .dwendentry
    5658                      .dwendtag $C$DW$433
    5659              
    5660 000003e1               .sect   ".text"
    5661                      .clink
    5662                      .global _CTRL_getVab_in_pu
    5663              
    5664              $C$DW$439       .dwtag  DW_TAG_subprogram, DW_AT_name("CTRL_getVab_in_pu")
    5665                      .dwattr $C$DW$439, DW_AT_low_pc(_CTRL_getVab_in_pu)
    5666                      .dwattr $C$DW$439, DW_AT_high_pc(0x00)
    5667                      .dwattr $C$DW$439, DW_AT_TI_symbol_name("_CTRL_getVab_in_pu")
    5668                      .dwattr $C$DW$439, DW_AT_external
    5669                      .dwattr $C$DW$439, DW_AT_TI_begin_file("C:/ti/motorware/motorware_1_01_00_18/sw/modules/ctrl/src/32b/
    5670                      .dwattr $C$DW$439, DW_AT_TI_begin_line(0x94)
    5671                      .dwattr $C$DW$439, DW_AT_TI_begin_column(0x06)
    5672                      .dwattr $C$DW$439, DW_AT_TI_max_frame_size(-2)
    5673                      .dwpsn  file "C:/ti/motorware/motorware_1_01_00_18/sw/modules/ctrl/src/32b/ctrl.c",line 149,column 1,
    5674              
    5675                      .dwfde $C$DW$CIE, _CTRL_getVab_in_pu
    5676              $C$DW$440       .dwtag  DW_TAG_formal_parameter, DW_AT_name("handle")
    5677                      .dwattr $C$DW$440, DW_AT_TI_symbol_name("_handle")
    5678                      .dwattr $C$DW$440, DW_AT_type(*$C$DW$T$161)
    5679                      .dwattr $C$DW$440, DW_AT_location[DW_OP_reg12]
    5680              $C$DW$441       .dwtag  DW_TAG_formal_parameter, DW_AT_name("pVab_in_pu")
    5681                      .dwattr $C$DW$441, DW_AT_TI_symbol_name("_pVab_in_pu")
    5682                      .dwattr $C$DW$441, DW_AT_type(*$C$DW$T$200)
    5683                      .dwattr $C$DW$441, DW_AT_location[DW_OP_reg14]
    5684              
    5685              ;***************************************************************
    5686              ;* FNAME: _CTRL_getVab_in_pu            FR SIZE:   0           *
    5687              ;*                                                             *
    5688              ;* FUNCTION ENVIRONMENT                                        *
    5689              ;*                                                             *
    5690              ;* FUNCTION PROPERTIES                                         *
    5691              ;*                            0 Parameter,  0 Auto,  0 SOE     *
    5692              ;***************************************************************
    5693              
    5694              _CTRL_getVab_in_pu:
    5695              ;* AR5   assigned to $O$C1
    5696              ;* AR4   assigned to $O$C2
    5697              ;* AR4   assigned to _handle
    5698              $C$DW$442       .dwtag  DW_TAG_variable, DW_AT_name("handle")
    5699                      .dwattr $C$DW$442, DW_AT_TI_symbol_name("_handle")
TMS320C2000 Assembler PC v6.2.5 Tue Jun 27 16:56:14 2017

Tools Copyright (c) 1996-2014 Texas Instruments Incorporated
C:\Users\wmj\AppData\Local\Temp\1139610                              PAGE  111

    5700                      .dwattr $C$DW$442, DW_AT_type(*$C$DW$T$175)
    5701                      .dwattr $C$DW$442, DW_AT_location[DW_OP_reg12]
    5702              ;* AR5   assigned to _pVab_in_pu
    5703              $C$DW$443       .dwtag  DW_TAG_variable, DW_AT_name("pVab_in_pu")
    5704                      .dwattr $C$DW$443, DW_AT_TI_symbol_name("_pVab_in_pu")
    5705                      .dwattr $C$DW$443, DW_AT_type(*$C$DW$T$202)
    5706                      .dwattr $C$DW$443, DW_AT_location[DW_OP_reg14]
    5707                      .dwcfi  cfa_offset, -2
    5708                      .dwcfi  save_reg_to_mem, 26, 0
    5709                      .dwcfi  save_reg_to_reg, 78, 26
    5710                      .dwpsn  file "C:/ti/motorware/motorware_1_01_00_18/sw/modules/ctrl/src/32b/ctrl.c",line 152,column 3,
    5711 000003e1 02B6          MOVB      ACC,#182              ; [CPU_] |152| 
    5712 000003e2 07A4          ADDL      ACC,XAR4              ; [CPU_] |152| 
    5713 000003e3 8AA9          MOVL      XAR4,ACC              ; [CPU_] |152| 
    5714 000003e4 06C4          MOVL      ACC,*+XAR4[0]         ; [CPU_] |152| 
    5715 000003e5 1EC5          MOVL      *+XAR5[0],ACC         ; [CPU_] |152| 
    5716                      .dwpsn  file "C:/ti/motorware/motorware_1_01_00_18/sw/modules/ctrl/src/32b/ctrl.c",line 153,column 3,
    5717 000003e6 06D4          MOVL      ACC,*+XAR4[2]         ; [CPU_] |153| 
    5718 000003e7 1ED5          MOVL      *+XAR5[2],ACC         ; [CPU_] |153| 
    5719              $C$DW$444       .dwtag  DW_TAG_TI_branch
    5720                      .dwattr $C$DW$444, DW_AT_low_pc(0x00)
    5721                      .dwattr $C$DW$444, DW_AT_TI_return
    5722 000003e8 0006          LRETR     ; [CPU_] 
    5723                      ; return occurs ; [] 
    5724                      .dwattr $C$DW$439, DW_AT_TI_end_file("C:/ti/motorware/motorware_1_01_00_18/sw/modules/ctrl/src/32b/ct
    5725                      .dwattr $C$DW$439, DW_AT_TI_end_line(0x9c)
    5726                      .dwattr $C$DW$439, DW_AT_TI_end_column(0x01)
    5727                      .dwendentry
    5728                      .dwendtag $C$DW$439
    5729              
    5730 000003e9               .sect   ".text"
    5731                      .clink
    5732                      .global _CTRL_getIdq_ref_pu
    5733              
    5734              $C$DW$445       .dwtag  DW_TAG_subprogram, DW_AT_name("CTRL_getIdq_ref_pu")
    5735                      .dwattr $C$DW$445, DW_AT_low_pc(_CTRL_getIdq_ref_pu)
    5736                      .dwattr $C$DW$445, DW_AT_high_pc(0x00)
    5737                      .dwattr $C$DW$445, DW_AT_TI_symbol_name("_CTRL_getIdq_ref_pu")
    5738                      .dwattr $C$DW$445, DW_AT_external
    5739                      .dwattr $C$DW$445, DW_AT_TI_begin_file("C:/ti/motorware/motorware_1_01_00_18/sw/modules/ctrl/src/32b/
    5740                      .dwattr $C$DW$445, DW_AT_TI_begin_line(0x7b)
    5741                      .dwattr $C$DW$445, DW_AT_TI_begin_column(0x06)
    5742                      .dwattr $C$DW$445, DW_AT_TI_max_frame_size(-2)
    5743                      .dwpsn  file "C:/ti/motorware/motorware_1_01_00_18/sw/modules/ctrl/src/32b/ctrl.c",line 124,column 1,
    5744              
    5745                      .dwfde $C$DW$CIE, _CTRL_getIdq_ref_pu
    5746              $C$DW$446       .dwtag  DW_TAG_formal_parameter, DW_AT_name("handle")
    5747                      .dwattr $C$DW$446, DW_AT_TI_symbol_name("_handle")
    5748                      .dwattr $C$DW$446, DW_AT_type(*$C$DW$T$161)
    5749                      .dwattr $C$DW$446, DW_AT_location[DW_OP_reg12]
    5750              $C$DW$447       .dwtag  DW_TAG_formal_parameter, DW_AT_name("pIdq_ref_pu")
    5751                      .dwattr $C$DW$447, DW_AT_TI_symbol_name("_pIdq_ref_pu")
    5752                      .dwattr $C$DW$447, DW_AT_type(*$C$DW$T$200)
    5753                      .dwattr $C$DW$447, DW_AT_location[DW_OP_reg14]
    5754              
TMS320C2000 Assembler PC v6.2.5 Tue Jun 27 16:56:14 2017

Tools Copyright (c) 1996-2014 Texas Instruments Incorporated
C:\Users\wmj\AppData\Local\Temp\1139610                              PAGE  112

    5755              ;***************************************************************
    5756              ;* FNAME: _CTRL_getIdq_ref_pu           FR SIZE:   0           *
    5757              ;*                                                             *
    5758              ;* FUNCTION ENVIRONMENT                                        *
    5759              ;*                                                             *
    5760              ;* FUNCTION PROPERTIES                                         *
    5761              ;*                            0 Parameter,  0 Auto,  0 SOE     *
    5762              ;***************************************************************
    5763              
    5764              _CTRL_getIdq_ref_pu:
    5765              ;* AR5   assigned to $O$C1
    5766              ;* AR4   assigned to $O$C2
    5767              ;* AR4   assigned to _handle
    5768              $C$DW$448       .dwtag  DW_TAG_variable, DW_AT_name("handle")
    5769                      .dwattr $C$DW$448, DW_AT_TI_symbol_name("_handle")
    5770                      .dwattr $C$DW$448, DW_AT_type(*$C$DW$T$175)
    5771                      .dwattr $C$DW$448, DW_AT_location[DW_OP_reg12]
    5772              ;* AR5   assigned to _pIdq_ref_pu
    5773              $C$DW$449       .dwtag  DW_TAG_variable, DW_AT_name("pIdq_ref_pu")
    5774                      .dwattr $C$DW$449, DW_AT_TI_symbol_name("_pIdq_ref_pu")
    5775                      .dwattr $C$DW$449, DW_AT_type(*$C$DW$T$202)
    5776                      .dwattr $C$DW$449, DW_AT_location[DW_OP_reg14]
    5777                      .dwcfi  cfa_offset, -2
    5778                      .dwcfi  save_reg_to_mem, 26, 0
    5779                      .dwcfi  save_reg_to_reg, 78, 26
    5780                      .dwpsn  file "C:/ti/motorware/motorware_1_01_00_18/sw/modules/ctrl/src/32b/ctrl.c",line 127,column 3,
    5781 000003e9 02E2          MOVB      ACC,#226              ; [CPU_] |127| 
    5782 000003ea 07A4          ADDL      ACC,XAR4              ; [CPU_] |127| 
    5783 000003eb 8AA9          MOVL      XAR4,ACC              ; [CPU_] |127| 
    5784 000003ec 06C4          MOVL      ACC,*+XAR4[0]         ; [CPU_] |127| 
    5785 000003ed 1EC5          MOVL      *+XAR5[0],ACC         ; [CPU_] |127| 
    5786                      .dwpsn  file "C:/ti/motorware/motorware_1_01_00_18/sw/modules/ctrl/src/32b/ctrl.c",line 128,column 3,
    5787 000003ee 06D4          MOVL      ACC,*+XAR4[2]         ; [CPU_] |128| 
    5788 000003ef 1ED5          MOVL      *+XAR5[2],ACC         ; [CPU_] |128| 
    5789              $C$DW$450       .dwtag  DW_TAG_TI_branch
    5790                      .dwattr $C$DW$450, DW_AT_low_pc(0x00)
    5791                      .dwattr $C$DW$450, DW_AT_TI_return
    5792 000003f0 0006          LRETR     ; [CPU_] 
    5793                      ; return occurs ; [] 
    5794                      .dwattr $C$DW$445, DW_AT_TI_end_file("C:/ti/motorware/motorware_1_01_00_18/sw/modules/ctrl/src/32b/ct
    5795                      .dwattr $C$DW$445, DW_AT_TI_end_line(0x83)
    5796                      .dwattr $C$DW$445, DW_AT_TI_end_column(0x01)
    5797                      .dwendentry
    5798                      .dwendtag $C$DW$445
    5799              
    5800 000003f1               .sect   ".text"
    5801                      .clink
    5802                      .global _CTRL_getIdq_in_pu
    5803              
    5804              $C$DW$451       .dwtag  DW_TAG_subprogram, DW_AT_name("CTRL_getIdq_in_pu")
    5805                      .dwattr $C$DW$451, DW_AT_low_pc(_CTRL_getIdq_in_pu)
    5806                      .dwattr $C$DW$451, DW_AT_high_pc(0x00)
    5807                      .dwattr $C$DW$451, DW_AT_TI_symbol_name("_CTRL_getIdq_in_pu")
    5808                      .dwattr $C$DW$451, DW_AT_external
    5809                      .dwattr $C$DW$451, DW_AT_TI_begin_file("C:/ti/motorware/motorware_1_01_00_18/sw/modules/ctrl/src/32b/
TMS320C2000 Assembler PC v6.2.5 Tue Jun 27 16:56:14 2017

Tools Copyright (c) 1996-2014 Texas Instruments Incorporated
C:\Users\wmj\AppData\Local\Temp\1139610                              PAGE  113

    5810                      .dwattr $C$DW$451, DW_AT_TI_begin_line(0x70)
    5811                      .dwattr $C$DW$451, DW_AT_TI_begin_column(0x06)
    5812                      .dwattr $C$DW$451, DW_AT_TI_max_frame_size(-2)
    5813                      .dwpsn  file "C:/ti/motorware/motorware_1_01_00_18/sw/modules/ctrl/src/32b/ctrl.c",line 113,column 1,
    5814              
    5815                      .dwfde $C$DW$CIE, _CTRL_getIdq_in_pu
    5816              $C$DW$452       .dwtag  DW_TAG_formal_parameter, DW_AT_name("handle")
    5817                      .dwattr $C$DW$452, DW_AT_TI_symbol_name("_handle")
    5818                      .dwattr $C$DW$452, DW_AT_type(*$C$DW$T$161)
    5819                      .dwattr $C$DW$452, DW_AT_location[DW_OP_reg12]
    5820              $C$DW$453       .dwtag  DW_TAG_formal_parameter, DW_AT_name("pIdq_in_pu")
    5821                      .dwattr $C$DW$453, DW_AT_TI_symbol_name("_pIdq_in_pu")
    5822                      .dwattr $C$DW$453, DW_AT_type(*$C$DW$T$200)
    5823                      .dwattr $C$DW$453, DW_AT_location[DW_OP_reg14]
    5824              
    5825              ;***************************************************************
    5826              ;* FNAME: _CTRL_getIdq_in_pu            FR SIZE:   0           *
    5827              ;*                                                             *
    5828              ;* FUNCTION ENVIRONMENT                                        *
    5829              ;*                                                             *
    5830              ;* FUNCTION PROPERTIES                                         *
    5831              ;*                            0 Parameter,  0 Auto,  0 SOE     *
    5832              ;***************************************************************
    5833              
    5834              _CTRL_getIdq_in_pu:
    5835              ;* AR5   assigned to $O$C1
    5836              ;* AR4   assigned to $O$C2
    5837              ;* AR4   assigned to _handle
    5838              $C$DW$454       .dwtag  DW_TAG_variable, DW_AT_name("handle")
    5839                      .dwattr $C$DW$454, DW_AT_TI_symbol_name("_handle")
    5840                      .dwattr $C$DW$454, DW_AT_type(*$C$DW$T$175)
    5841                      .dwattr $C$DW$454, DW_AT_location[DW_OP_reg12]
    5842              ;* AR5   assigned to _pIdq_in_pu
    5843              $C$DW$455       .dwtag  DW_TAG_variable, DW_AT_name("pIdq_in_pu")
    5844                      .dwattr $C$DW$455, DW_AT_TI_symbol_name("_pIdq_in_pu")
    5845                      .dwattr $C$DW$455, DW_AT_type(*$C$DW$T$202)
    5846                      .dwattr $C$DW$455, DW_AT_location[DW_OP_reg14]
    5847                      .dwcfi  cfa_offset, -2
    5848                      .dwcfi  save_reg_to_mem, 26, 0
    5849                      .dwcfi  save_reg_to_reg, 78, 26
    5850                      .dwpsn  file "C:/ti/motorware/motorware_1_01_00_18/sw/modules/ctrl/src/32b/ctrl.c",line 116,column 3,
    5851 000003f1 02B2          MOVB      ACC,#178              ; [CPU_] |116| 
    5852 000003f2 07A4          ADDL      ACC,XAR4              ; [CPU_] |116| 
    5853 000003f3 8AA9          MOVL      XAR4,ACC              ; [CPU_] |116| 
    5854 000003f4 06C4          MOVL      ACC,*+XAR4[0]         ; [CPU_] |116| 
    5855 000003f5 1EC5          MOVL      *+XAR5[0],ACC         ; [CPU_] |116| 
    5856                      .dwpsn  file "C:/ti/motorware/motorware_1_01_00_18/sw/modules/ctrl/src/32b/ctrl.c",line 117,column 3,
    5857 000003f6 06D4          MOVL      ACC,*+XAR4[2]         ; [CPU_] |117| 
    5858 000003f7 1ED5          MOVL      *+XAR5[2],ACC         ; [CPU_] |117| 
    5859              $C$DW$456       .dwtag  DW_TAG_TI_branch
    5860                      .dwattr $C$DW$456, DW_AT_low_pc(0x00)
    5861                      .dwattr $C$DW$456, DW_AT_TI_return
    5862 000003f8 0006          LRETR     ; [CPU_] 
    5863                      ; return occurs ; [] 
    5864                      .dwattr $C$DW$451, DW_AT_TI_end_file("C:/ti/motorware/motorware_1_01_00_18/sw/modules/ctrl/src/32b/ct
TMS320C2000 Assembler PC v6.2.5 Tue Jun 27 16:56:14 2017

Tools Copyright (c) 1996-2014 Texas Instruments Incorporated
C:\Users\wmj\AppData\Local\Temp\1139610                              PAGE  114

    5865                      .dwattr $C$DW$451, DW_AT_TI_end_line(0x78)
    5866                      .dwattr $C$DW$451, DW_AT_TI_end_column(0x01)
    5867                      .dwendentry
    5868                      .dwendtag $C$DW$451
    5869              
    5870 000003f9               .sect   ".text"
    5871                      .clink
    5872                      .global _CTRL_getIab_in_pu
    5873              
    5874              $C$DW$457       .dwtag  DW_TAG_subprogram, DW_AT_name("CTRL_getIab_in_pu")
    5875                      .dwattr $C$DW$457, DW_AT_low_pc(_CTRL_getIab_in_pu)
    5876                      .dwattr $C$DW$457, DW_AT_high_pc(0x00)
    5877                      .dwattr $C$DW$457, DW_AT_TI_symbol_name("_CTRL_getIab_in_pu")
    5878                      .dwattr $C$DW$457, DW_AT_external
    5879                      .dwattr $C$DW$457, DW_AT_TI_begin_file("C:/ti/motorware/motorware_1_01_00_18/sw/modules/ctrl/src/32b/
    5880                      .dwattr $C$DW$457, DW_AT_TI_begin_line(0x65)
    5881                      .dwattr $C$DW$457, DW_AT_TI_begin_column(0x06)
    5882                      .dwattr $C$DW$457, DW_AT_TI_max_frame_size(-2)
    5883                      .dwpsn  file "C:/ti/motorware/motorware_1_01_00_18/sw/modules/ctrl/src/32b/ctrl.c",line 102,column 1,
    5884              
    5885                      .dwfde $C$DW$CIE, _CTRL_getIab_in_pu
    5886              $C$DW$458       .dwtag  DW_TAG_formal_parameter, DW_AT_name("handle")
    5887                      .dwattr $C$DW$458, DW_AT_TI_symbol_name("_handle")
    5888                      .dwattr $C$DW$458, DW_AT_type(*$C$DW$T$161)
    5889                      .dwattr $C$DW$458, DW_AT_location[DW_OP_reg12]
    5890              $C$DW$459       .dwtag  DW_TAG_formal_parameter, DW_AT_name("pIab_in_pu")
    5891                      .dwattr $C$DW$459, DW_AT_TI_symbol_name("_pIab_in_pu")
    5892                      .dwattr $C$DW$459, DW_AT_type(*$C$DW$T$200)
    5893                      .dwattr $C$DW$459, DW_AT_location[DW_OP_reg14]
    5894              
    5895              ;***************************************************************
    5896              ;* FNAME: _CTRL_getIab_in_pu            FR SIZE:   0           *
    5897              ;*                                                             *
    5898              ;* FUNCTION ENVIRONMENT                                        *
    5899              ;*                                                             *
    5900              ;* FUNCTION PROPERTIES                                         *
    5901              ;*                            0 Parameter,  0 Auto,  0 SOE     *
    5902              ;***************************************************************
    5903              
    5904              _CTRL_getIab_in_pu:
    5905              ;* AR5   assigned to $O$C1
    5906              ;* AR4   assigned to $O$C2
    5907              ;* AR4   assigned to _handle
    5908              $C$DW$460       .dwtag  DW_TAG_variable, DW_AT_name("handle")
    5909                      .dwattr $C$DW$460, DW_AT_TI_symbol_name("_handle")
    5910                      .dwattr $C$DW$460, DW_AT_type(*$C$DW$T$175)
    5911                      .dwattr $C$DW$460, DW_AT_location[DW_OP_reg12]
    5912              ;* AR5   assigned to _pIab_in_pu
    5913              $C$DW$461       .dwtag  DW_TAG_variable, DW_AT_name("pIab_in_pu")
    5914                      .dwattr $C$DW$461, DW_AT_TI_symbol_name("_pIab_in_pu")
    5915                      .dwattr $C$DW$461, DW_AT_type(*$C$DW$T$202)
    5916                      .dwattr $C$DW$461, DW_AT_location[DW_OP_reg14]
    5917                      .dwcfi  cfa_offset, -2
    5918                      .dwcfi  save_reg_to_mem, 26, 0
    5919                      .dwcfi  save_reg_to_reg, 78, 26
TMS320C2000 Assembler PC v6.2.5 Tue Jun 27 16:56:14 2017

Tools Copyright (c) 1996-2014 Texas Instruments Incorporated
C:\Users\wmj\AppData\Local\Temp\1139610                              PAGE  115

    5920                      .dwpsn  file "C:/ti/motorware/motorware_1_01_00_18/sw/modules/ctrl/src/32b/ctrl.c",line 105,column 3,
    5921 000003f9 02AA          MOVB      ACC,#170              ; [CPU_] |105| 
    5922 000003fa 07A4          ADDL      ACC,XAR4              ; [CPU_] |105| 
    5923 000003fb 8AA9          MOVL      XAR4,ACC              ; [CPU_] |105| 
    5924 000003fc 06C4          MOVL      ACC,*+XAR4[0]         ; [CPU_] |105| 
    5925 000003fd 1EC5          MOVL      *+XAR5[0],ACC         ; [CPU_] |105| 
    5926                      .dwpsn  file "C:/ti/motorware/motorware_1_01_00_18/sw/modules/ctrl/src/32b/ctrl.c",line 106,column 3,
    5927 000003fe 06D4          MOVL      ACC,*+XAR4[2]         ; [CPU_] |106| 
    5928 000003ff 1ED5          MOVL      *+XAR5[2],ACC         ; [CPU_] |106| 
    5929              $C$DW$462       .dwtag  DW_TAG_TI_branch
    5930                      .dwattr $C$DW$462, DW_AT_low_pc(0x00)
    5931                      .dwattr $C$DW$462, DW_AT_TI_return
    5932 00000400 0006          LRETR     ; [CPU_] 
    5933                      ; return occurs ; [] 
    5934                      .dwattr $C$DW$457, DW_AT_TI_end_file("C:/ti/motorware/motorware_1_01_00_18/sw/modules/ctrl/src/32b/ct
    5935                      .dwattr $C$DW$457, DW_AT_TI_end_line(0x6d)
    5936                      .dwattr $C$DW$457, DW_AT_TI_end_column(0x01)
    5937                      .dwendentry
    5938                      .dwendtag $C$DW$457
    5939              
    5940 00000401               .sect   ".text"
    5941                      .clink
    5942                      .global _CTRL_getIab_filt_pu
    5943              
    5944              $C$DW$463       .dwtag  DW_TAG_subprogram, DW_AT_name("CTRL_getIab_filt_pu")
    5945                      .dwattr $C$DW$463, DW_AT_low_pc(_CTRL_getIab_filt_pu)
    5946                      .dwattr $C$DW$463, DW_AT_high_pc(0x00)
    5947                      .dwattr $C$DW$463, DW_AT_TI_symbol_name("_CTRL_getIab_filt_pu")
    5948                      .dwattr $C$DW$463, DW_AT_external
    5949                      .dwattr $C$DW$463, DW_AT_TI_begin_file("C:/ti/motorware/motorware_1_01_00_18/sw/modules/ctrl/src/32b/
    5950                      .dwattr $C$DW$463, DW_AT_TI_begin_line(0x5a)
    5951                      .dwattr $C$DW$463, DW_AT_TI_begin_column(0x06)
    5952                      .dwattr $C$DW$463, DW_AT_TI_max_frame_size(-2)
    5953                      .dwpsn  file "C:/ti/motorware/motorware_1_01_00_18/sw/modules/ctrl/src/32b/ctrl.c",line 91,column 1,i
    5954              
    5955                      .dwfde $C$DW$CIE, _CTRL_getIab_filt_pu
    5956              $C$DW$464       .dwtag  DW_TAG_formal_parameter, DW_AT_name("handle")
    5957                      .dwattr $C$DW$464, DW_AT_TI_symbol_name("_handle")
    5958                      .dwattr $C$DW$464, DW_AT_type(*$C$DW$T$161)
    5959                      .dwattr $C$DW$464, DW_AT_location[DW_OP_reg12]
    5960              $C$DW$465       .dwtag  DW_TAG_formal_parameter, DW_AT_name("pIab_filt_pu")
    5961                      .dwattr $C$DW$465, DW_AT_TI_symbol_name("_pIab_filt_pu")
    5962                      .dwattr $C$DW$465, DW_AT_type(*$C$DW$T$200)
    5963                      .dwattr $C$DW$465, DW_AT_location[DW_OP_reg14]
    5964              
    5965              ;***************************************************************
    5966              ;* FNAME: _CTRL_getIab_filt_pu          FR SIZE:   0           *
    5967              ;*                                                             *
    5968              ;* FUNCTION ENVIRONMENT                                        *
    5969              ;*                                                             *
    5970              ;* FUNCTION PROPERTIES                                         *
    5971              ;*                            0 Parameter,  0 Auto,  0 SOE     *
    5972              ;***************************************************************
    5973              
    5974              _CTRL_getIab_filt_pu:
TMS320C2000 Assembler PC v6.2.5 Tue Jun 27 16:56:14 2017

Tools Copyright (c) 1996-2014 Texas Instruments Incorporated
C:\Users\wmj\AppData\Local\Temp\1139610                              PAGE  116

    5975              ;* AR5   assigned to $O$C1
    5976              ;* AR4   assigned to $O$C2
    5977              ;* AR4   assigned to _handle
    5978              $C$DW$466       .dwtag  DW_TAG_variable, DW_AT_name("handle")
    5979                      .dwattr $C$DW$466, DW_AT_TI_symbol_name("_handle")
    5980                      .dwattr $C$DW$466, DW_AT_type(*$C$DW$T$175)
    5981                      .dwattr $C$DW$466, DW_AT_location[DW_OP_reg12]
    5982              ;* AR5   assigned to _pIab_filt_pu
    5983              $C$DW$467       .dwtag  DW_TAG_variable, DW_AT_name("pIab_filt_pu")
    5984                      .dwattr $C$DW$467, DW_AT_TI_symbol_name("_pIab_filt_pu")
    5985                      .dwattr $C$DW$467, DW_AT_type(*$C$DW$T$202)
    5986                      .dwattr $C$DW$467, DW_AT_location[DW_OP_reg14]
    5987                      .dwcfi  cfa_offset, -2
    5988                      .dwcfi  save_reg_to_mem, 26, 0
    5989                      .dwcfi  save_reg_to_reg, 78, 26
    5990                      .dwpsn  file "C:/ti/motorware/motorware_1_01_00_18/sw/modules/ctrl/src/32b/ctrl.c",line 94,column 3,i
    5991 00000401 02AE          MOVB      ACC,#174              ; [CPU_] |94| 
    5992 00000402 07A4          ADDL      ACC,XAR4              ; [CPU_] |94| 
    5993 00000403 8AA9          MOVL      XAR4,ACC              ; [CPU_] |94| 
    5994 00000404 06C4          MOVL      ACC,*+XAR4[0]         ; [CPU_] |94| 
    5995 00000405 1EC5          MOVL      *+XAR5[0],ACC         ; [CPU_] |94| 
    5996                      .dwpsn  file "C:/ti/motorware/motorware_1_01_00_18/sw/modules/ctrl/src/32b/ctrl.c",line 95,column 3,i
    5997 00000406 06D4          MOVL      ACC,*+XAR4[2]         ; [CPU_] |95| 
    5998 00000407 1ED5          MOVL      *+XAR5[2],ACC         ; [CPU_] |95| 
    5999              $C$DW$468       .dwtag  DW_TAG_TI_branch
    6000                      .dwattr $C$DW$468, DW_AT_low_pc(0x00)
    6001                      .dwattr $C$DW$468, DW_AT_TI_return
    6002 00000408 0006          LRETR     ; [CPU_] 
    6003                      ; return occurs ; [] 
    6004                      .dwattr $C$DW$463, DW_AT_TI_end_file("C:/ti/motorware/motorware_1_01_00_18/sw/modules/ctrl/src/32b/ct
    6005                      .dwattr $C$DW$463, DW_AT_TI_end_line(0x62)
    6006                      .dwattr $C$DW$463, DW_AT_TI_end_column(0x01)
    6007                      .dwendentry
    6008                      .dwendtag $C$DW$463
    6009              
    6010 00000409               .sect   ".text"
    6011                      .clink
    6012                      .global _CTRL_getGains
    6013              
    6014              $C$DW$469       .dwtag  DW_TAG_subprogram, DW_AT_name("CTRL_getGains")
    6015                      .dwattr $C$DW$469, DW_AT_low_pc(_CTRL_getGains)
    6016                      .dwattr $C$DW$469, DW_AT_high_pc(0x00)
    6017                      .dwattr $C$DW$469, DW_AT_TI_symbol_name("_CTRL_getGains")
    6018                      .dwattr $C$DW$469, DW_AT_external
    6019                      .dwattr $C$DW$469, DW_AT_TI_begin_file("C:/ti/motorware/motorware_1_01_00_18/sw/modules/ctrl/src/32b/
    6020                      .dwattr $C$DW$469, DW_AT_TI_begin_line(0x4e)
    6021                      .dwattr $C$DW$469, DW_AT_TI_begin_column(0x06)
    6022                      .dwattr $C$DW$469, DW_AT_TI_max_frame_size(-2)
    6023                      .dwpsn  file "C:/ti/motorware/motorware_1_01_00_18/sw/modules/ctrl/src/32b/ctrl.c",line 80,column 1,i
    6024              
    6025                      .dwfde $C$DW$CIE, _CTRL_getGains
    6026              $C$DW$470       .dwtag  DW_TAG_formal_parameter, DW_AT_name("handle")
    6027                      .dwattr $C$DW$470, DW_AT_TI_symbol_name("_handle")
    6028                      .dwattr $C$DW$470, DW_AT_type(*$C$DW$T$161)
    6029                      .dwattr $C$DW$470, DW_AT_location[DW_OP_reg12]
TMS320C2000 Assembler PC v6.2.5 Tue Jun 27 16:56:14 2017

Tools Copyright (c) 1996-2014 Texas Instruments Incorporated
C:\Users\wmj\AppData\Local\Temp\1139610                              PAGE  117

    6030              $C$DW$471       .dwtag  DW_TAG_formal_parameter, DW_AT_name("ctrlType")
    6031                      .dwattr $C$DW$471, DW_AT_TI_symbol_name("_ctrlType")
    6032                      .dwattr $C$DW$471, DW_AT_type(*$C$DW$T$172)
    6033                      .dwattr $C$DW$471, DW_AT_location[DW_OP_reg0]
    6034              $C$DW$472       .dwtag  DW_TAG_formal_parameter, DW_AT_name("pKp")
    6035                      .dwattr $C$DW$472, DW_AT_TI_symbol_name("_pKp")
    6036                      .dwattr $C$DW$472, DW_AT_type(*$C$DW$T$233)
    6037                      .dwattr $C$DW$472, DW_AT_location[DW_OP_reg14]
    6038              $C$DW$473       .dwtag  DW_TAG_formal_parameter, DW_AT_name("pKi")
    6039                      .dwattr $C$DW$473, DW_AT_TI_symbol_name("_pKi")
    6040                      .dwattr $C$DW$473, DW_AT_type(*$C$DW$T$233)
    6041                      .dwattr $C$DW$473, DW_AT_location[DW_OP_breg20 -4]
    6042              $C$DW$474       .dwtag  DW_TAG_formal_parameter, DW_AT_name("pKd")
    6043                      .dwattr $C$DW$474, DW_AT_TI_symbol_name("_pKd")
    6044                      .dwattr $C$DW$474, DW_AT_type(*$C$DW$T$233)
    6045                      .dwattr $C$DW$474, DW_AT_location[DW_OP_breg20 -6]
    6046              
    6047              ;***************************************************************
    6048              ;* FNAME: _CTRL_getGains                FR SIZE:   0           *
    6049              ;*                                                             *
    6050              ;* FUNCTION ENVIRONMENT                                        *
    6051              ;*                                                             *
    6052              ;* FUNCTION PROPERTIES                                         *
    6053              ;*                            0 Parameter,  0 Auto,  0 SOE     *
    6054              ;***************************************************************
    6055              
    6056              _CTRL_getGains:
    6057              ;* PL    assigned to _Kp
    6058              $C$DW$475       .dwtag  DW_TAG_variable, DW_AT_name("Kp")
    6059                      .dwattr $C$DW$475, DW_AT_TI_symbol_name("_Kp")
    6060                      .dwattr $C$DW$475, DW_AT_type(*$C$DW$T$32)
    6061                      .dwattr $C$DW$475, DW_AT_location[DW_OP_reg2]
    6062              ;* PL    assigned to _Ki
    6063              $C$DW$476       .dwtag  DW_TAG_variable, DW_AT_name("Ki")
    6064                      .dwattr $C$DW$476, DW_AT_TI_symbol_name("_Ki")
    6065                      .dwattr $C$DW$476, DW_AT_type(*$C$DW$T$32)
    6066                      .dwattr $C$DW$476, DW_AT_location[DW_OP_reg2]
    6067              ;* AL    assigned to _Kd
    6068              $C$DW$477       .dwtag  DW_TAG_variable, DW_AT_name("Kd")
    6069                      .dwattr $C$DW$477, DW_AT_TI_symbol_name("_Kd")
    6070                      .dwattr $C$DW$477, DW_AT_type(*$C$DW$T$32)
    6071                      .dwattr $C$DW$477, DW_AT_location[DW_OP_reg0]
    6072              ;* AR6   assigned to _pKd
    6073              $C$DW$478       .dwtag  DW_TAG_variable, DW_AT_name("pKd")
    6074                      .dwattr $C$DW$478, DW_AT_TI_symbol_name("_pKd")
    6075                      .dwattr $C$DW$478, DW_AT_type(*$C$DW$T$309)
    6076                      .dwattr $C$DW$478, DW_AT_location[DW_OP_reg16]
    6077              ;* AR7   assigned to _pKi
    6078              $C$DW$479       .dwtag  DW_TAG_variable, DW_AT_name("pKi")
    6079                      .dwattr $C$DW$479, DW_AT_TI_symbol_name("_pKi")
    6080                      .dwattr $C$DW$479, DW_AT_type(*$C$DW$T$309)
    6081                      .dwattr $C$DW$479, DW_AT_location[DW_OP_reg18]
    6082              ;* AR5   assigned to _pKp
    6083              $C$DW$480       .dwtag  DW_TAG_variable, DW_AT_name("pKp")
    6084                      .dwattr $C$DW$480, DW_AT_TI_symbol_name("_pKp")
TMS320C2000 Assembler PC v6.2.5 Tue Jun 27 16:56:14 2017

Tools Copyright (c) 1996-2014 Texas Instruments Incorporated
C:\Users\wmj\AppData\Local\Temp\1139610                              PAGE  118

    6085                      .dwattr $C$DW$480, DW_AT_type(*$C$DW$T$309)
    6086                      .dwattr $C$DW$480, DW_AT_location[DW_OP_reg14]
    6087              ;* AL    assigned to _ctrlType
    6088              $C$DW$481       .dwtag  DW_TAG_variable, DW_AT_name("ctrlType")
    6089                      .dwattr $C$DW$481, DW_AT_TI_symbol_name("_ctrlType")
    6090                      .dwattr $C$DW$481, DW_AT_type(*$C$DW$T$172)
    6091                      .dwattr $C$DW$481, DW_AT_location[DW_OP_reg0]
    6092              ;* AR4   assigned to _handle
    6093              $C$DW$482       .dwtag  DW_TAG_variable, DW_AT_name("handle")
    6094                      .dwattr $C$DW$482, DW_AT_TI_symbol_name("_handle")
    6095                      .dwattr $C$DW$482, DW_AT_type(*$C$DW$T$175)
    6096                      .dwattr $C$DW$482, DW_AT_location[DW_OP_reg12]
    6097                      .dwcfi  cfa_offset, -2
    6098                      .dwcfi  save_reg_to_mem, 26, 0
    6099                      .dwcfi  save_reg_to_reg, 78, 26
    6100                      .dwpsn  file "C:/ti/motorware/motorware_1_01_00_18/sw/modules/ctrl/src/32b/ctrl.h",line 510,column 7,
    6101 00000409 5200          CMPB      AL,#0                 ; [CPU_] |510| 
    6102                      .dwpsn  file "C:/ti/motorware/motorware_1_01_00_18/sw/modules/ctrl/src/32b/ctrl.c",line 80,column 1,i
    6103 0000040a C446          MOVL      XAR6,*-SP[6]          ; [CPU_] |80| 
    6104 0000040b C544          MOVL      XAR7,*-SP[4]          ; [CPU_] |80| 
    6105                      .dwpsn  file "C:/ti/motorware/motorware_1_01_00_18/sw/modules/ctrl/src/32b/ctrl.h",line 510,column 7,
    6106 0000040c EC0B          BF        $C$L82,EQ             ; [CPU_] |510| 
    6107                      ; branchcc occurs ; [] |510| 
    6108 0000040d 5201          CMPB      AL,#1                 ; [CPU_] |510| 
    6109 0000040e ED03          BF        $C$L80,NEQ            ; [CPU_] |510| 
    6110                      ; branchcc occurs ; [] |510| 
    6111 0000040f D0CA          MOVB      XAR0,#202             ; [CPU_] |510| 
    6112 00000410 6F08          B         $C$L83,UNC            ; [CPU_] |510| 
    6113                      ; branch occurs ; [] |510| 
    6114 00000411       $C$L80:    
    6115 00000411 5202          CMPB      AL,#2                 ; [CPU_] |510| 
    6116 00000412 ED03          BF        $C$L81,NEQ            ; [CPU_] |510| 
    6117                      ; branchcc occurs ; [] |510| 
    6118 00000413 D0CC          MOVB      XAR0,#204             ; [CPU_] |510| 
    6119 00000414 6F04          B         $C$L83,UNC            ; [CPU_] |510| 
    6120                      ; branch occurs ; [] |510| 
    6121 00000415       $C$L81:    
    6122 00000415 3100          MOV       P,#0                  ; [CPU_] |510| 
    6123 00000416 6F03          B         $C$L84,UNC            ; [CPU_] |510| 
    6124                      ; branch occurs ; [] |510| 
    6125 00000417       $C$L82:    
    6126 00000417 D0CE          MOVB      XAR0,#206             ; [CPU_] |510| 
    6127 00000418       $C$L83:    
    6128 00000418 A394          MOVL      P,*+XAR4[AR0]         ; [CPU_] |510| 
    6129 00000419       $C$L84:    
    6130                      .dwpsn  file "C:/ti/motorware/motorware_1_01_00_18/sw/modules/ctrl/src/32b/ctrl.h",line 458,column 7,
    6131 00000419 5200          CMPB      AL,#0                 ; [CPU_] |458| 
    6132                      .dwpsn  file "C:/ti/motorware/motorware_1_01_00_18/sw/modules/ctrl/src/32b/ctrl.c",line 82,column 3,i
    6133 0000041a A9C5          MOVL      *+XAR5[0],P           ; [CPU_] |82| 
    6134                      .dwpsn  file "C:/ti/motorware/motorware_1_01_00_18/sw/modules/ctrl/src/32b/ctrl.h",line 458,column 7,
    6135 0000041b EC0B          BF        $C$L87,EQ             ; [CPU_] |458| 
    6136                      ; branchcc occurs ; [] |458| 
    6137 0000041c 5201          CMPB      AL,#1                 ; [CPU_] |458| 
    6138 0000041d ED03          BF        $C$L85,NEQ            ; [CPU_] |458| 
    6139                      ; branchcc occurs ; [] |458| 
TMS320C2000 Assembler PC v6.2.5 Tue Jun 27 16:56:14 2017

Tools Copyright (c) 1996-2014 Texas Instruments Incorporated
C:\Users\wmj\AppData\Local\Temp\1139610                              PAGE  119

    6140 0000041e D0D0          MOVB      XAR0,#208             ; [CPU_] |458| 
    6141 0000041f 6F08          B         $C$L88,UNC            ; [CPU_] |458| 
    6142                      ; branch occurs ; [] |458| 
    6143 00000420       $C$L85:    
    6144 00000420 5202          CMPB      AL,#2                 ; [CPU_] |458| 
    6145 00000421 ED03          BF        $C$L86,NEQ            ; [CPU_] |458| 
    6146                      ; branchcc occurs ; [] |458| 
    6147 00000422 D0D2          MOVB      XAR0,#210             ; [CPU_] |458| 
    6148 00000423 6F04          B         $C$L88,UNC            ; [CPU_] |458| 
    6149                      ; branch occurs ; [] |458| 
    6150 00000424       $C$L86:    
    6151 00000424 3100          MOV       P,#0                  ; [CPU_] |458| 
    6152 00000425 6F03          B         $C$L89,UNC            ; [CPU_] |458| 
    6153                      ; branch occurs ; [] |458| 
    6154 00000426       $C$L87:    
    6155 00000426 D0D4          MOVB      XAR0,#212             ; [CPU_] |458| 
    6156 00000427       $C$L88:    
    6157 00000427 A394          MOVL      P,*+XAR4[AR0]         ; [CPU_] |458| 
    6158 00000428       $C$L89:    
    6159                      .dwpsn  file "C:/ti/motorware/motorware_1_01_00_18/sw/modules/ctrl/src/32b/ctrl.h",line 484,column 7,
    6160 00000428 5200          CMPB      AL,#0                 ; [CPU_] |484| 
    6161                      .dwpsn  file "C:/ti/motorware/motorware_1_01_00_18/sw/modules/ctrl/src/32b/ctrl.c",line 83,column 3,i
    6162 00000429 A9C7          MOVL      *+XAR7[0],P           ; [CPU_] |83| 
    6163                      .dwpsn  file "C:/ti/motorware/motorware_1_01_00_18/sw/modules/ctrl/src/32b/ctrl.h",line 484,column 7,
    6164 0000042a EC0B          BF        $C$L92,EQ             ; [CPU_] |484| 
    6165                      ; branchcc occurs ; [] |484| 
    6166 0000042b 5201          CMPB      AL,#1                 ; [CPU_] |484| 
    6167 0000042c ED03          BF        $C$L90,NEQ            ; [CPU_] |484| 
    6168                      ; branchcc occurs ; [] |484| 
    6169 0000042d D0D6          MOVB      XAR0,#214             ; [CPU_] |484| 
    6170 0000042e 6F08          B         $C$L93,UNC            ; [CPU_] |484| 
    6171                      ; branch occurs ; [] |484| 
    6172 0000042f       $C$L90:    
    6173 0000042f 5202          CMPB      AL,#2                 ; [CPU_] |484| 
    6174 00000430 ED03          BF        $C$L91,NEQ            ; [CPU_] |484| 
    6175                      ; branchcc occurs ; [] |484| 
    6176 00000431 D0D8          MOVB      XAR0,#216             ; [CPU_] |484| 
    6177 00000432 6F04          B         $C$L93,UNC            ; [CPU_] |484| 
    6178                      ; branch occurs ; [] |484| 
    6179 00000433       $C$L91:    
    6180 00000433 0200          MOVB      ACC,#0                ; [CPU_] |484| 
    6181 00000434 6F03          B         $C$L94,UNC            ; [CPU_] |484| 
    6182                      ; branch occurs ; [] |484| 
    6183 00000435       $C$L92:    
    6184 00000435 D0DA          MOVB      XAR0,#218             ; [CPU_] |484| 
    6185 00000436       $C$L93:    
    6186 00000436 0694          MOVL      ACC,*+XAR4[AR0]       ; [CPU_] |484| 
    6187 00000437       $C$L94:    
    6188                      .dwpsn  file "C:/ti/motorware/motorware_1_01_00_18/sw/modules/ctrl/src/32b/ctrl.c",line 84,column 3,i
    6189 00000437 1EC6          MOVL      *+XAR6[0],ACC         ; [CPU_] |84| 
    6190              $C$DW$483       .dwtag  DW_TAG_TI_branch
    6191                      .dwattr $C$DW$483, DW_AT_low_pc(0x00)
    6192                      .dwattr $C$DW$483, DW_AT_TI_return
    6193 00000438 0006          LRETR     ; [CPU_] 
    6194                      ; return occurs ; [] 
TMS320C2000 Assembler PC v6.2.5 Tue Jun 27 16:56:14 2017

Tools Copyright (c) 1996-2014 Texas Instruments Incorporated
C:\Users\wmj\AppData\Local\Temp\1139610                              PAGE  120

    6195                      .dwattr $C$DW$469, DW_AT_TI_end_file("C:/ti/motorware/motorware_1_01_00_18/sw/modules/ctrl/src/32b/ct
    6196                      .dwattr $C$DW$469, DW_AT_TI_end_line(0x57)
    6197                      .dwattr $C$DW$469, DW_AT_TI_end_column(0x01)
    6198                      .dwendentry
    6199                      .dwendtag $C$DW$469
    6200              
    6201 00000439               .sect   ".text"
    6202                      .clink
    6203              
    6204              $C$DW$484       .dwtag  DW_TAG_subprogram, DW_AT_name("CTRL_setIdRated_pu")
    6205                      .dwattr $C$DW$484, DW_AT_low_pc(_CTRL_setIdRated_pu)
    6206                      .dwattr $C$DW$484, DW_AT_high_pc(0x00)
    6207                      .dwattr $C$DW$484, DW_AT_TI_symbol_name("_CTRL_setIdRated_pu")
    6208                      .dwattr $C$DW$484, DW_AT_TI_begin_file("C:/ti/motorware/motorware_1_01_00_18/sw/modules/ctrl/src/32b/
    6209                      .dwattr $C$DW$484, DW_AT_TI_begin_line(0x576)
    6210                      .dwattr $C$DW$484, DW_AT_TI_begin_column(0x0d)
    6211                      .dwattr $C$DW$484, DW_AT_TI_max_frame_size(-2)
    6212                      .dwpsn  file "C:/ti/motorware/motorware_1_01_00_18/sw/modules/ctrl/src/32b/ctrl.h",line 1399,column 1
    6213              
    6214                      .dwfde $C$DW$CIE, _CTRL_setIdRated_pu
    6215              $C$DW$485       .dwtag  DW_TAG_formal_parameter, DW_AT_name("handle")
    6216                      .dwattr $C$DW$485, DW_AT_TI_symbol_name("_handle")
    6217                      .dwattr $C$DW$485, DW_AT_type(*$C$DW$T$161)
    6218                      .dwattr $C$DW$485, DW_AT_location[DW_OP_reg12]
    6219              $C$DW$486       .dwtag  DW_TAG_formal_parameter, DW_AT_name("IdRated_pu")
    6220                      .dwattr $C$DW$486, DW_AT_TI_symbol_name("_IdRated_pu")
    6221                      .dwattr $C$DW$486, DW_AT_type(*$C$DW$T$226)
    6222                      .dwattr $C$DW$486, DW_AT_location[DW_OP_reg0]
    6223              
    6224              ;***************************************************************
    6225              ;* FNAME: _CTRL_setIdRated_pu           FR SIZE:   0           *
    6226              ;*                                                             *
    6227              ;* FUNCTION ENVIRONMENT                                        *
    6228              ;*                                                             *
    6229              ;* FUNCTION PROPERTIES                                         *
    6230              ;*                            0 Parameter,  0 Auto,  0 SOE     *
    6231              ;***************************************************************
    6232              
    6233              _CTRL_setIdRated_pu:
    6234              ;* AR4   assigned to _handle
    6235              $C$DW$487       .dwtag  DW_TAG_variable, DW_AT_name("handle")
    6236                      .dwattr $C$DW$487, DW_AT_TI_symbol_name("_handle")
    6237                      .dwattr $C$DW$487, DW_AT_type(*$C$DW$T$175)
    6238                      .dwattr $C$DW$487, DW_AT_location[DW_OP_reg12]
    6239              ;* AL    assigned to _IdRated_pu
    6240              $C$DW$488       .dwtag  DW_TAG_variable, DW_AT_name("IdRated_pu")
    6241                      .dwattr $C$DW$488, DW_AT_TI_symbol_name("_IdRated_pu")
    6242                      .dwattr $C$DW$488, DW_AT_type(*$C$DW$T$226)
    6243                      .dwattr $C$DW$488, DW_AT_location[DW_OP_reg0]
    6244                      .dwcfi  cfa_offset, -2
    6245                      .dwcfi  save_reg_to_mem, 26, 0
    6246                      .dwcfi  save_reg_to_reg, 78, 26
    6247                      .dwpsn  file "C:/ti/motorware/motorware_1_01_00_18/sw/modules/ctrl/src/32b/ctrl.h",line 1402,column 3
    6248 00000439 D0E6          MOVB      XAR0,#230             ; [CPU_] |1402| 
    6249 0000043a 1E94          MOVL      *+XAR4[AR0],ACC       ; [CPU_] |1402| 
TMS320C2000 Assembler PC v6.2.5 Tue Jun 27 16:56:14 2017

Tools Copyright (c) 1996-2014 Texas Instruments Incorporated
C:\Users\wmj\AppData\Local\Temp\1139610                              PAGE  121

    6250              $C$DW$489       .dwtag  DW_TAG_TI_branch
    6251                      .dwattr $C$DW$489, DW_AT_low_pc(0x00)
    6252                      .dwattr $C$DW$489, DW_AT_TI_return
    6253 0000043b 0006          LRETR     ; [CPU_] 
    6254                      ; return occurs ; [] 
    6255                      .dwattr $C$DW$484, DW_AT_TI_end_file("C:/ti/motorware/motorware_1_01_00_18/sw/modules/ctrl/src/32b/ct
    6256                      .dwattr $C$DW$484, DW_AT_TI_end_line(0x57d)
    6257                      .dwattr $C$DW$484, DW_AT_TI_end_column(0x01)
    6258                      .dwendentry
    6259                      .dwendtag $C$DW$484
    6260              
    6261 0000043c               .sect   ".text"
    6262                      .clink
    6263              
    6264              $C$DW$490       .dwtag  DW_TAG_subprogram, DW_AT_name("CTRL_setSpd_max_pu")
    6265                      .dwattr $C$DW$490, DW_AT_low_pc(_CTRL_setSpd_max_pu)
    6266                      .dwattr $C$DW$490, DW_AT_high_pc(0x00)
    6267                      .dwattr $C$DW$490, DW_AT_TI_symbol_name("_CTRL_setSpd_max_pu")
    6268                      .dwattr $C$DW$490, DW_AT_TI_begin_file("C:/ti/motorware/motorware_1_01_00_18/sw/modules/ctrl/src/32b/
    6269                      .dwattr $C$DW$490, DW_AT_TI_begin_line(0x6ae)
    6270                      .dwattr $C$DW$490, DW_AT_TI_begin_column(0x0d)
    6271                      .dwattr $C$DW$490, DW_AT_TI_max_frame_size(-2)
    6272                      .dwpsn  file "C:/ti/motorware/motorware_1_01_00_18/sw/modules/ctrl/src/32b/ctrl.h",line 1711,column 1
    6273              
    6274                      .dwfde $C$DW$CIE, _CTRL_setSpd_max_pu
    6275              $C$DW$491       .dwtag  DW_TAG_formal_parameter, DW_AT_name("handle")
    6276                      .dwattr $C$DW$491, DW_AT_TI_symbol_name("_handle")
    6277                      .dwattr $C$DW$491, DW_AT_type(*$C$DW$T$161)
    6278                      .dwattr $C$DW$491, DW_AT_location[DW_OP_reg12]
    6279              $C$DW$492       .dwtag  DW_TAG_formal_parameter, DW_AT_name("maxSpd_pu")
    6280                      .dwattr $C$DW$492, DW_AT_TI_symbol_name("_maxSpd_pu")
    6281                      .dwattr $C$DW$492, DW_AT_type(*$C$DW$T$226)
    6282                      .dwattr $C$DW$492, DW_AT_location[DW_OP_reg0]
    6283              
    6284              ;***************************************************************
    6285              ;* FNAME: _CTRL_setSpd_max_pu           FR SIZE:   0           *
    6286              ;*                                                             *
    6287              ;* FUNCTION ENVIRONMENT                                        *
    6288              ;*                                                             *
    6289              ;* FUNCTION PROPERTIES                                         *
    6290              ;*                            0 Parameter,  0 Auto,  0 SOE     *
    6291              ;***************************************************************
    6292              
    6293              _CTRL_setSpd_max_pu:
    6294              ;* AR4   assigned to _handle
    6295              $C$DW$493       .dwtag  DW_TAG_variable, DW_AT_name("handle")
    6296                      .dwattr $C$DW$493, DW_AT_TI_symbol_name("_handle")
    6297                      .dwattr $C$DW$493, DW_AT_type(*$C$DW$T$175)
    6298                      .dwattr $C$DW$493, DW_AT_location[DW_OP_reg12]
    6299              ;* AL    assigned to _maxSpd_pu
    6300              $C$DW$494       .dwtag  DW_TAG_variable, DW_AT_name("maxSpd_pu")
    6301                      .dwattr $C$DW$494, DW_AT_TI_symbol_name("_maxSpd_pu")
    6302                      .dwattr $C$DW$494, DW_AT_type(*$C$DW$T$226)
    6303                      .dwattr $C$DW$494, DW_AT_location[DW_OP_reg0]
    6304                      .dwcfi  cfa_offset, -2
TMS320C2000 Assembler PC v6.2.5 Tue Jun 27 16:56:14 2017

Tools Copyright (c) 1996-2014 Texas Instruments Incorporated
C:\Users\wmj\AppData\Local\Temp\1139610                              PAGE  122

    6305                      .dwcfi  save_reg_to_mem, 26, 0
    6306                      .dwcfi  save_reg_to_reg, 78, 26
    6307                      .dwpsn  file "C:/ti/motorware/motorware_1_01_00_18/sw/modules/ctrl/src/32b/ctrl.h",line 1714,column 3
    6308 0000043c D0EA          MOVB      XAR0,#234             ; [CPU_] |1714| 
    6309 0000043d 1E94          MOVL      *+XAR4[AR0],ACC       ; [CPU_] |1714| 
    6310              $C$DW$495       .dwtag  DW_TAG_TI_branch
    6311                      .dwattr $C$DW$495, DW_AT_low_pc(0x00)
    6312                      .dwattr $C$DW$495, DW_AT_TI_return
    6313 0000043e 0006          LRETR     ; [CPU_] 
    6314                      ; return occurs ; [] 
    6315                      .dwattr $C$DW$490, DW_AT_TI_end_file("C:/ti/motorware/motorware_1_01_00_18/sw/modules/ctrl/src/32b/ct
    6316                      .dwattr $C$DW$490, DW_AT_TI_end_line(0x6b5)
    6317                      .dwattr $C$DW$490, DW_AT_TI_end_column(0x01)
    6318                      .dwendentry
    6319                      .dwendtag $C$DW$490
    6320              
    6321 0000043f               .sect   ".text"
    6322                      .clink
    6323              
    6324              $C$DW$496       .dwtag  DW_TAG_subprogram, DW_AT_name("CTRL_getSpd_max_pu")
    6325                      .dwattr $C$DW$496, DW_AT_low_pc(_CTRL_getSpd_max_pu)
    6326                      .dwattr $C$DW$496, DW_AT_high_pc(0x00)
    6327                      .dwattr $C$DW$496, DW_AT_TI_symbol_name("_CTRL_getSpd_max_pu")
    6328                      .dwattr $C$DW$496, DW_AT_type(*$C$DW$T$32)
    6329                      .dwattr $C$DW$496, DW_AT_TI_begin_file("C:/ti/motorware/motorware_1_01_00_18/sw/modules/ctrl/src/32b/
    6330                      .dwattr $C$DW$496, DW_AT_TI_begin_line(0x2bd)
    6331                      .dwattr $C$DW$496, DW_AT_TI_begin_column(0x0c)
    6332                      .dwattr $C$DW$496, DW_AT_TI_max_frame_size(-2)
    6333                      .dwpsn  file "C:/ti/motorware/motorware_1_01_00_18/sw/modules/ctrl/src/32b/ctrl.h",line 702,column 1,
    6334              
    6335                      .dwfde $C$DW$CIE, _CTRL_getSpd_max_pu
    6336              $C$DW$497       .dwtag  DW_TAG_formal_parameter, DW_AT_name("handle")
    6337                      .dwattr $C$DW$497, DW_AT_TI_symbol_name("_handle")
    6338                      .dwattr $C$DW$497, DW_AT_type(*$C$DW$T$161)
    6339                      .dwattr $C$DW$497, DW_AT_location[DW_OP_reg12]
    6340              
    6341              ;***************************************************************
    6342              ;* FNAME: _CTRL_getSpd_max_pu           FR SIZE:   0           *
    6343              ;*                                                             *
    6344              ;* FUNCTION ENVIRONMENT                                        *
    6345              ;*                                                             *
    6346              ;* FUNCTION PROPERTIES                                         *
    6347              ;*                            0 Parameter,  0 Auto,  0 SOE     *
    6348              ;***************************************************************
    6349              
    6350              _CTRL_getSpd_max_pu:
    6351              ;* AR4   assigned to _handle
    6352              $C$DW$498       .dwtag  DW_TAG_variable, DW_AT_name("handle")
    6353                      .dwattr $C$DW$498, DW_AT_TI_symbol_name("_handle")
    6354                      .dwattr $C$DW$498, DW_AT_type(*$C$DW$T$175)
    6355                      .dwattr $C$DW$498, DW_AT_location[DW_OP_reg12]
    6356                      .dwcfi  cfa_offset, -2
    6357                      .dwcfi  save_reg_to_mem, 26, 0
    6358                      .dwcfi  save_reg_to_reg, 78, 26
    6359                      .dwpsn  file "C:/ti/motorware/motorware_1_01_00_18/sw/modules/ctrl/src/32b/ctrl.h",line 705,column 3,
TMS320C2000 Assembler PC v6.2.5 Tue Jun 27 16:56:14 2017

Tools Copyright (c) 1996-2014 Texas Instruments Incorporated
C:\Users\wmj\AppData\Local\Temp\1139610                              PAGE  123

    6360 0000043f D0EA          MOVB      XAR0,#234             ; [CPU_] |705| 
    6361 00000440 0694          MOVL      ACC,*+XAR4[AR0]       ; [CPU_] |705| 
    6362              $C$DW$499       .dwtag  DW_TAG_TI_branch
    6363                      .dwattr $C$DW$499, DW_AT_low_pc(0x00)
    6364                      .dwattr $C$DW$499, DW_AT_TI_return
    6365 00000441 0006          LRETR     ; [CPU_] 
    6366                      ; return occurs ; [] 
    6367                      .dwattr $C$DW$496, DW_AT_TI_end_file("C:/ti/motorware/motorware_1_01_00_18/sw/modules/ctrl/src/32b/ct
    6368                      .dwattr $C$DW$496, DW_AT_TI_end_line(0x2c2)
    6369                      .dwattr $C$DW$496, DW_AT_TI_end_column(0x01)
    6370                      .dwendentry
    6371                      .dwendtag $C$DW$496
    6372              
    6373 00000442               .sect   ".text"
    6374                      .clink
    6375              
    6376              $C$DW$500       .dwtag  DW_TAG_subprogram, DW_AT_name("CTRL_getIdRated_pu")
    6377                      .dwattr $C$DW$500, DW_AT_low_pc(_CTRL_getIdRated_pu)
    6378                      .dwattr $C$DW$500, DW_AT_high_pc(0x00)
    6379                      .dwattr $C$DW$500, DW_AT_TI_symbol_name("_CTRL_getIdRated_pu")
    6380                      .dwattr $C$DW$500, DW_AT_type(*$C$DW$T$32)
    6381                      .dwattr $C$DW$500, DW_AT_TI_begin_file("C:/ti/motorware/motorware_1_01_00_18/sw/modules/ctrl/src/32b/
    6382                      .dwattr $C$DW$500, DW_AT_TI_begin_line(0x17d)
    6383                      .dwattr $C$DW$500, DW_AT_TI_begin_column(0x0c)
    6384                      .dwattr $C$DW$500, DW_AT_TI_max_frame_size(-2)
    6385                      .dwpsn  file "C:/ti/motorware/motorware_1_01_00_18/sw/modules/ctrl/src/32b/ctrl.h",line 382,column 1,
    6386              
    6387                      .dwfde $C$DW$CIE, _CTRL_getIdRated_pu
    6388              $C$DW$501       .dwtag  DW_TAG_formal_parameter, DW_AT_name("handle")
    6389                      .dwattr $C$DW$501, DW_AT_TI_symbol_name("_handle")
    6390                      .dwattr $C$DW$501, DW_AT_type(*$C$DW$T$161)
    6391                      .dwattr $C$DW$501, DW_AT_location[DW_OP_reg12]
    6392              
    6393              ;***************************************************************
    6394              ;* FNAME: _CTRL_getIdRated_pu           FR SIZE:   0           *
    6395              ;*                                                             *
    6396              ;* FUNCTION ENVIRONMENT                                        *
    6397              ;*                                                             *
    6398              ;* FUNCTION PROPERTIES                                         *
    6399              ;*                            0 Parameter,  0 Auto,  0 SOE     *
    6400              ;***************************************************************
    6401              
    6402              _CTRL_getIdRated_pu:
    6403              ;* AR4   assigned to _handle
    6404              $C$DW$502       .dwtag  DW_TAG_variable, DW_AT_name("handle")
    6405                      .dwattr $C$DW$502, DW_AT_TI_symbol_name("_handle")
    6406                      .dwattr $C$DW$502, DW_AT_type(*$C$DW$T$175)
    6407                      .dwattr $C$DW$502, DW_AT_location[DW_OP_reg12]
    6408                      .dwcfi  cfa_offset, -2
    6409                      .dwcfi  save_reg_to_mem, 26, 0
    6410                      .dwcfi  save_reg_to_reg, 78, 26
    6411                      .dwpsn  file "C:/ti/motorware/motorware_1_01_00_18/sw/modules/ctrl/src/32b/ctrl.h",line 385,column 3,
    6412 00000442 D0E6          MOVB      XAR0,#230             ; [CPU_] |385| 
    6413 00000443 0694          MOVL      ACC,*+XAR4[AR0]       ; [CPU_] |385| 
    6414              $C$DW$503       .dwtag  DW_TAG_TI_branch
TMS320C2000 Assembler PC v6.2.5 Tue Jun 27 16:56:14 2017

Tools Copyright (c) 1996-2014 Texas Instruments Incorporated
C:\Users\wmj\AppData\Local\Temp\1139610                              PAGE  124

    6415                      .dwattr $C$DW$503, DW_AT_low_pc(0x00)
    6416                      .dwattr $C$DW$503, DW_AT_TI_return
    6417 00000444 0006          LRETR     ; [CPU_] 
    6418                      ; return occurs ; [] 
    6419                      .dwattr $C$DW$500, DW_AT_TI_end_file("C:/ti/motorware/motorware_1_01_00_18/sw/modules/ctrl/src/32b/ct
    6420                      .dwattr $C$DW$500, DW_AT_TI_end_line(0x182)
    6421                      .dwattr $C$DW$500, DW_AT_TI_end_column(0x01)
    6422                      .dwendentry
    6423                      .dwendtag $C$DW$500
    6424              
    6425              ;***************************************************************
    6426              ;* FLOATING-POINT CONSTANTS                                    *
    6427              ;***************************************************************
    6428 00000018               .sect   ".econst"
    6429                      .align  2
    6430 00000018 0000  $C$FL1: .xldouble       $strtod("0x1p+24")
         00000019 0000 
         0000001a 0000 
         0000001b 4170 
    6431              ;**************************************************************
    6432              ;* UNDEFINED EXTERNAL REFERENCES                              *
    6433              ;**************************************************************
    6434                      .global _CTRL_setEstParams
    6435                      .global _CTRL_runTraj
    6436                      .global _CTRL_setupEstIdleState
    6437                      .global _CTRL_setUserMotorParams
    6438                      .global _CTRL_setupEstOnLineState
    6439                      .global _CTRL_setupTraj
    6440                      .global _CTRL_setupCtrl
    6441                      .global _EST_setRs_pu
    6442                      .global _EST_setIq_ref_pu
    6443                      .global _EST_updateId_ref_pu
    6444                      .global _EST_setIdle
    6445                      .global _EST_run
    6446                      .global _EST_setId_ref_pu
    6447                      .global _EST_setIdle_all
    6448                      .global _EST_getState
    6449                      .global _EST_isError
    6450                      .global _EST_isMotorIdentified
    6451                      .global _EST_isOnLine
    6452                      .global _EST_isIdle
    6453                      .global _EST_isLockRotor
    6454                      .global _EST_doCurrentCtrl
    6455                      .global _EST_doSpeedCtrl
    6456                      .global _EST_updateState
    6457                      .global _EST_useZeroIq_ref
    6458                      .global __IQ24cosPU
    6459                      .global __IQ24sinPU
    6460                      .global __IQ24sqrt
    6461                      .global _EST_get_krpm_to_pu_sf
    6462                      .global _EST_getFm_pu
    6463                      .global _EST_getOneOverDcBus_pu
    6464                      .global _EST_getAngle_pu
    6465                      .global FD$$MPY
    6466                      .global FS$$TOFD
TMS320C2000 Assembler PC v6.2.5 Tue Jun 27 16:56:14 2017

Tools Copyright (c) 1996-2014 Texas Instruments Incorporated
C:\Users\wmj\AppData\Local\Temp\1139610                              PAGE  125

    6467                      .global UL$$TOFS
    6468                      .global FS$$DIV
    6469                      .global FS$$MPY
    6470                      .global FS$$ADD
    6471                      .global FD$$TOL
    6472              
    6473              ;***************************************************************
    6474              ;* TYPE INFORMATION                                            *
    6475              ;***************************************************************
    6476              
    6477              $C$DW$T$39      .dwtag  DW_TAG_enumeration_type
    6478                      .dwattr $C$DW$T$39, DW_AT_byte_size(0x01)
    6479              $C$DW$504       .dwtag  DW_TAG_enumerator, DW_AT_name("CTRL_State_Error"), DW_AT_const_value(0x00)
    6480              $C$DW$505       .dwtag  DW_TAG_enumerator, DW_AT_name("CTRL_State_Idle"), DW_AT_const_value(0x01)
    6481              $C$DW$506       .dwtag  DW_TAG_enumerator, DW_AT_name("CTRL_State_OffLine"), DW_AT_const_value(0x02)
    6482              $C$DW$507       .dwtag  DW_TAG_enumerator, DW_AT_name("CTRL_State_OnLine"), DW_AT_const_value(0x03)
    6483              $C$DW$508       .dwtag  DW_TAG_enumerator, DW_AT_name("CTRL_numStates"), DW_AT_const_value(0x04)
    6484                      .dwendtag $C$DW$T$39
    6485              
    6486              $C$DW$T$40      .dwtag  DW_TAG_typedef, DW_AT_name("CTRL_State_e")
    6487                      .dwattr $C$DW$T$40, DW_AT_type(*$C$DW$T$39)
    6488                      .dwattr $C$DW$T$40, DW_AT_language(DW_LANG_C)
    6489              
    6490              $C$DW$T$41      .dwtag  DW_TAG_enumeration_type
    6491                      .dwattr $C$DW$T$41, DW_AT_byte_size(0x01)
    6492              $C$DW$509       .dwtag  DW_TAG_enumerator, DW_AT_name("CTRL_ErrorCode_NoError"), DW_AT_const_value(0x00)
    6493              $C$DW$510       .dwtag  DW_TAG_enumerator, DW_AT_name("CTRL_ErrorCode_IdClip"), DW_AT_const_value(0x01)
    6494              $C$DW$511       .dwtag  DW_TAG_enumerator, DW_AT_name("CTRL_ErrorCode_EstError"), DW_AT_const_value(0x02)
    6495              $C$DW$512       .dwtag  DW_TAG_enumerator, DW_AT_name("CTRL_numErrorCodes"), DW_AT_const_value(0x03)
    6496                      .dwendtag $C$DW$T$41
    6497              
    6498              $C$DW$T$42      .dwtag  DW_TAG_typedef, DW_AT_name("CTRL_ErrorCode_e")
    6499                      .dwattr $C$DW$T$42, DW_AT_type(*$C$DW$T$41)
    6500                      .dwattr $C$DW$T$42, DW_AT_language(DW_LANG_C)
    6501              
    6502              $C$DW$T$72      .dwtag  DW_TAG_enumeration_type
    6503                      .dwattr $C$DW$T$72, DW_AT_byte_size(0x01)
    6504              $C$DW$513       .dwtag  DW_TAG_enumerator, DW_AT_name("CTRL_TargetProc_2806x"), DW_AT_const_value(0x00)
    6505              $C$DW$514       .dwtag  DW_TAG_enumerator, DW_AT_name("CTRL_TargetProc_2805x"), DW_AT_const_value(0x01)
    6506              $C$DW$515       .dwtag  DW_TAG_enumerator, DW_AT_name("CTRL_TargetProc_2803x"), DW_AT_const_value(0x02)
    6507              $C$DW$516       .dwtag  DW_TAG_enumerator, DW_AT_name("CTRL_TargetProc_2802x"), DW_AT_const_value(0x03)
    6508              $C$DW$517       .dwtag  DW_TAG_enumerator, DW_AT_name("CTRL_TargetProc_Unknown"), DW_AT_const_value(0x04)
    6509                      .dwendtag $C$DW$T$72
    6510              
    6511              $C$DW$T$73      .dwtag  DW_TAG_typedef, DW_AT_name("CTRL_TargetProc_e")
    6512                      .dwattr $C$DW$T$73, DW_AT_type(*$C$DW$T$72)
    6513                      .dwattr $C$DW$T$73, DW_AT_language(DW_LANG_C)
    6514              
    6515              $C$DW$T$124     .dwtag  DW_TAG_enumeration_type
    6516                      .dwattr $C$DW$T$124, DW_AT_byte_size(0x01)
    6517              $C$DW$518       .dwtag  DW_TAG_enumerator, DW_AT_name("MOTOR_Type_Induction"), DW_AT_const_value(0x00)
    6518              $C$DW$519       .dwtag  DW_TAG_enumerator, DW_AT_name("MOTOR_Type_Pm"), DW_AT_const_value(0x01)
    6519                      .dwendtag $C$DW$T$124
    6520              
    6521              $C$DW$T$125     .dwtag  DW_TAG_typedef, DW_AT_name("MOTOR_Type_e")
TMS320C2000 Assembler PC v6.2.5 Tue Jun 27 16:56:14 2017

Tools Copyright (c) 1996-2014 Texas Instruments Incorporated
C:\Users\wmj\AppData\Local\Temp\1139610                              PAGE  126

    6522                      .dwattr $C$DW$T$125, DW_AT_type(*$C$DW$T$124)
    6523                      .dwattr $C$DW$T$125, DW_AT_language(DW_LANG_C)
    6524              
    6525              $C$DW$T$155     .dwtag  DW_TAG_enumeration_type
    6526                      .dwattr $C$DW$T$155, DW_AT_byte_size(0x01)
    6527              $C$DW$520       .dwtag  DW_TAG_enumerator, DW_AT_name("USER_ErrorCode_NoError"), DW_AT_const_value(0x00)
    6528              $C$DW$521       .dwtag  DW_TAG_enumerator, DW_AT_name("USER_ErrorCode_iqFullScaleCurrent_A_High"), DW_AT_cons
    6529              $C$DW$522       .dwtag  DW_TAG_enumerator, DW_AT_name("USER_ErrorCode_iqFullScaleCurrent_A_Low"), DW_AT_const
    6530              $C$DW$523       .dwtag  DW_TAG_enumerator, DW_AT_name("USER_ErrorCode_iqFullScaleVoltage_V_High"), DW_AT_cons
    6531              $C$DW$524       .dwtag  DW_TAG_enumerator, DW_AT_name("USER_ErrorCode_iqFullScaleVoltage_V_Low"), DW_AT_const
    6532              $C$DW$525       .dwtag  DW_TAG_enumerator, DW_AT_name("USER_ErrorCode_iqFullScaleFreq_Hz_High"), DW_AT_const_
    6533              $C$DW$526       .dwtag  DW_TAG_enumerator, DW_AT_name("USER_ErrorCode_iqFullScaleFreq_Hz_Low"), DW_AT_const_v
    6534              $C$DW$527       .dwtag  DW_TAG_enumerator, DW_AT_name("USER_ErrorCode_numPwmTicksPerIsrTick_High"), DW_AT_con
    6535              $C$DW$528       .dwtag  DW_TAG_enumerator, DW_AT_name("USER_ErrorCode_numPwmTicksPerIsrTick_Low"), DW_AT_cons
    6536              $C$DW$529       .dwtag  DW_TAG_enumerator, DW_AT_name("USER_ErrorCode_numIsrTicksPerCtrlTick_High"), DW_AT_co
    6537              $C$DW$530       .dwtag  DW_TAG_enumerator, DW_AT_name("USER_ErrorCode_numIsrTicksPerCtrlTick_Low"), DW_AT_con
    6538              $C$DW$531       .dwtag  DW_TAG_enumerator, DW_AT_name("USER_ErrorCode_numCtrlTicksPerCurrentTick_High"), DW_A
    6539              $C$DW$532       .dwtag  DW_TAG_enumerator, DW_AT_name("USER_ErrorCode_numCtrlTicksPerCurrentTick_Low"), DW_AT
    6540              $C$DW$533       .dwtag  DW_TAG_enumerator, DW_AT_name("USER_ErrorCode_numCtrlTicksPerEstTick_High"), DW_AT_co
    6541              $C$DW$534       .dwtag  DW_TAG_enumerator, DW_AT_name("USER_ErrorCode_numCtrlTicksPerEstTick_Low"), DW_AT_con
    6542              $C$DW$535       .dwtag  DW_TAG_enumerator, DW_AT_name("USER_ErrorCode_numCtrlTicksPerSpeedTick_High"), DW_AT_
    6543              $C$DW$536       .dwtag  DW_TAG_enumerator, DW_AT_name("USER_ErrorCode_numCtrlTicksPerSpeedTick_Low"), DW_AT_c
    6544              $C$DW$537       .dwtag  DW_TAG_enumerator, DW_AT_name("USER_ErrorCode_numCtrlTicksPerTrajTick_High"), DW_AT_c
    6545              $C$DW$538       .dwtag  DW_TAG_enumerator, DW_AT_name("USER_ErrorCode_numCtrlTicksPerTrajTick_Low"), DW_AT_co
    6546              $C$DW$539       .dwtag  DW_TAG_enumerator, DW_AT_name("USER_ErrorCode_numCurrentSensors_High"), DW_AT_const_v
    6547              $C$DW$540       .dwtag  DW_TAG_enumerator, DW_AT_name("USER_ErrorCode_numCurrentSensors_Low"), DW_AT_const_va
    6548              $C$DW$541       .dwtag  DW_TAG_enumerator, DW_AT_name("USER_ErrorCode_numVoltageSensors_High"), DW_AT_const_v
    6549              $C$DW$542       .dwtag  DW_TAG_enumerator, DW_AT_name("USER_ErrorCode_numVoltageSensors_Low"), DW_AT_const_va
    6550              $C$DW$543       .dwtag  DW_TAG_enumerator, DW_AT_name("USER_ErrorCode_offsetPole_rps_High"), DW_AT_const_valu
    6551              $C$DW$544       .dwtag  DW_TAG_enumerator, DW_AT_name("USER_ErrorCode_offsetPole_rps_Low"), DW_AT_const_value
    6552              $C$DW$545       .dwtag  DW_TAG_enumerator, DW_AT_name("USER_ErrorCode_fluxPole_rps_High"), DW_AT_const_value(
    6553              $C$DW$546       .dwtag  DW_TAG_enumerator, DW_AT_name("USER_ErrorCode_fluxPole_rps_Low"), DW_AT_const_value(0
    6554              $C$DW$547       .dwtag  DW_TAG_enumerator, DW_AT_name("USER_ErrorCode_zeroSpeedLimit_High"), DW_AT_const_valu
    6555              $C$DW$548       .dwtag  DW_TAG_enumerator, DW_AT_name("USER_ErrorCode_zeroSpeedLimit_Low"), DW_AT_const_value
    6556              $C$DW$549       .dwtag  DW_TAG_enumerator, DW_AT_name("USER_ErrorCode_forceAngleFreq_Hz_High"), DW_AT_const_v
    6557              $C$DW$550       .dwtag  DW_TAG_enumerator, DW_AT_name("USER_ErrorCode_forceAngleFreq_Hz_Low"), DW_AT_const_va
    6558              $C$DW$551       .dwtag  DW_TAG_enumerator, DW_AT_name("USER_ErrorCode_maxAccel_Hzps_High"), DW_AT_const_value
    6559              $C$DW$552       .dwtag  DW_TAG_enumerator, DW_AT_name("USER_ErrorCode_maxAccel_Hzps_Low"), DW_AT_const_value(
    6560              $C$DW$553       .dwtag  DW_TAG_enumerator, DW_AT_name("USER_ErrorCode_maxAccel_est_Hzps_High"), DW_AT_const_v
    6561              $C$DW$554       .dwtag  DW_TAG_enumerator, DW_AT_name("USER_ErrorCode_maxAccel_est_Hzps_Low"), DW_AT_const_va
    6562              $C$DW$555       .dwtag  DW_TAG_enumerator, DW_AT_name("USER_ErrorCode_directionPole_rps_High"), DW_AT_const_v
    6563              $C$DW$556       .dwtag  DW_TAG_enumerator, DW_AT_name("USER_ErrorCode_directionPole_rps_Low"), DW_AT_const_va
    6564              $C$DW$557       .dwtag  DW_TAG_enumerator, DW_AT_name("USER_ErrorCode_speedPole_rps_High"), DW_AT_const_value
    6565              $C$DW$558       .dwtag  DW_TAG_enumerator, DW_AT_name("USER_ErrorCode_speedPole_rps_Low"), DW_AT_const_value(
    6566              $C$DW$559       .dwtag  DW_TAG_enumerator, DW_AT_name("USER_ErrorCode_dcBusPole_rps_High"), DW_AT_const_value
    6567              $C$DW$560       .dwtag  DW_TAG_enumerator, DW_AT_name("USER_ErrorCode_dcBusPole_rps_Low"), DW_AT_const_value(
    6568              $C$DW$561       .dwtag  DW_TAG_enumerator, DW_AT_name("USER_ErrorCode_fluxFraction_High"), DW_AT_const_value(
    6569              $C$DW$562       .dwtag  DW_TAG_enumerator, DW_AT_name("USER_ErrorCode_fluxFraction_Low"), DW_AT_const_value(0
    6570              $C$DW$563       .dwtag  DW_TAG_enumerator, DW_AT_name("USER_ErrorCode_indEst_speedMaxFraction_High"), DW_AT_c
    6571              $C$DW$564       .dwtag  DW_TAG_enumerator, DW_AT_name("USER_ErrorCode_indEst_speedMaxFraction_Low"), DW_AT_co
    6572              $C$DW$565       .dwtag  DW_TAG_enumerator, DW_AT_name("USER_ErrorCode_powerWarpGain_High"), DW_AT_const_value
    6573              $C$DW$566       .dwtag  DW_TAG_enumerator, DW_AT_name("USER_ErrorCode_powerWarpGain_Low"), DW_AT_const_value(
    6574              $C$DW$567       .dwtag  DW_TAG_enumerator, DW_AT_name("USER_ErrorCode_systemFreq_MHz_High"), DW_AT_const_valu
    6575              $C$DW$568       .dwtag  DW_TAG_enumerator, DW_AT_name("USER_ErrorCode_systemFreq_MHz_Low"), DW_AT_const_value
    6576              $C$DW$569       .dwtag  DW_TAG_enumerator, DW_AT_name("USER_ErrorCode_pwmFreq_kHz_High"), DW_AT_const_value(0
TMS320C2000 Assembler PC v6.2.5 Tue Jun 27 16:56:14 2017

Tools Copyright (c) 1996-2014 Texas Instruments Incorporated
C:\Users\wmj\AppData\Local\Temp\1139610                              PAGE  127

    6577              $C$DW$570       .dwtag  DW_TAG_enumerator, DW_AT_name("USER_ErrorCode_pwmFreq_kHz_Low"), DW_AT_const_value(0x
    6578              $C$DW$571       .dwtag  DW_TAG_enumerator, DW_AT_name("USER_ErrorCode_voltage_sf_High"), DW_AT_const_value(0x
    6579              $C$DW$572       .dwtag  DW_TAG_enumerator, DW_AT_name("USER_ErrorCode_voltage_sf_Low"), DW_AT_const_value(0x3
    6580              $C$DW$573       .dwtag  DW_TAG_enumerator, DW_AT_name("USER_ErrorCode_current_sf_High"), DW_AT_const_value(0x
    6581              $C$DW$574       .dwtag  DW_TAG_enumerator, DW_AT_name("USER_ErrorCode_current_sf_Low"), DW_AT_const_value(0x3
    6582              $C$DW$575       .dwtag  DW_TAG_enumerator, DW_AT_name("USER_ErrorCode_voltageFilterPole_Hz_High"), DW_AT_cons
    6583              $C$DW$576       .dwtag  DW_TAG_enumerator, DW_AT_name("USER_ErrorCode_voltageFilterPole_Hz_Low"), DW_AT_const
    6584              $C$DW$577       .dwtag  DW_TAG_enumerator, DW_AT_name("USER_ErrorCode_maxVsMag_pu_High"), DW_AT_const_value(0
    6585              $C$DW$578       .dwtag  DW_TAG_enumerator, DW_AT_name("USER_ErrorCode_maxVsMag_pu_Low"), DW_AT_const_value(0x
    6586              $C$DW$579       .dwtag  DW_TAG_enumerator, DW_AT_name("USER_ErrorCode_estKappa_High"), DW_AT_const_value(0x3b
    6587              $C$DW$580       .dwtag  DW_TAG_enumerator, DW_AT_name("USER_ErrorCode_estKappa_Low"), DW_AT_const_value(0x3c)
    6588              $C$DW$581       .dwtag  DW_TAG_enumerator, DW_AT_name("USER_ErrorCode_motor_type_Unknown"), DW_AT_const_value
    6589              $C$DW$582       .dwtag  DW_TAG_enumerator, DW_AT_name("USER_ErrorCode_motor_numPolePairs_High"), DW_AT_const_
    6590              $C$DW$583       .dwtag  DW_TAG_enumerator, DW_AT_name("USER_ErrorCode_motor_numPolePairs_Low"), DW_AT_const_v
    6591              $C$DW$584       .dwtag  DW_TAG_enumerator, DW_AT_name("USER_ErrorCode_motor_ratedFlux_High"), DW_AT_const_val
    6592              $C$DW$585       .dwtag  DW_TAG_enumerator, DW_AT_name("USER_ErrorCode_motor_ratedFlux_Low"), DW_AT_const_valu
    6593              $C$DW$586       .dwtag  DW_TAG_enumerator, DW_AT_name("USER_ErrorCode_motor_Rr_High"), DW_AT_const_value(0x42
    6594              $C$DW$587       .dwtag  DW_TAG_enumerator, DW_AT_name("USER_ErrorCode_motor_Rr_Low"), DW_AT_const_value(0x43)
    6595              $C$DW$588       .dwtag  DW_TAG_enumerator, DW_AT_name("USER_ErrorCode_motor_Rs_High"), DW_AT_const_value(0x44
    6596              $C$DW$589       .dwtag  DW_TAG_enumerator, DW_AT_name("USER_ErrorCode_motor_Rs_Low"), DW_AT_const_value(0x45)
    6597              $C$DW$590       .dwtag  DW_TAG_enumerator, DW_AT_name("USER_ErrorCode_motor_Ls_d_High"), DW_AT_const_value(0x
    6598              $C$DW$591       .dwtag  DW_TAG_enumerator, DW_AT_name("USER_ErrorCode_motor_Ls_d_Low"), DW_AT_const_value(0x4
    6599              $C$DW$592       .dwtag  DW_TAG_enumerator, DW_AT_name("USER_ErrorCode_motor_Ls_q_High"), DW_AT_const_value(0x
    6600              $C$DW$593       .dwtag  DW_TAG_enumerator, DW_AT_name("USER_ErrorCode_motor_Ls_q_Low"), DW_AT_const_value(0x4
    6601              $C$DW$594       .dwtag  DW_TAG_enumerator, DW_AT_name("USER_ErrorCode_maxCurrent_High"), DW_AT_const_value(0x
    6602              $C$DW$595       .dwtag  DW_TAG_enumerator, DW_AT_name("USER_ErrorCode_maxCurrent_Low"), DW_AT_const_value(0x4
    6603              $C$DW$596       .dwtag  DW_TAG_enumerator, DW_AT_name("USER_ErrorCode_maxCurrent_resEst_High"), DW_AT_const_v
    6604              $C$DW$597       .dwtag  DW_TAG_enumerator, DW_AT_name("USER_ErrorCode_maxCurrent_resEst_Low"), DW_AT_const_va
    6605              $C$DW$598       .dwtag  DW_TAG_enumerator, DW_AT_name("USER_ErrorCode_maxCurrent_indEst_High"), DW_AT_const_v
    6606              $C$DW$599       .dwtag  DW_TAG_enumerator, DW_AT_name("USER_ErrorCode_maxCurrent_indEst_Low"), DW_AT_const_va
    6607              $C$DW$600       .dwtag  DW_TAG_enumerator, DW_AT_name("USER_ErrorCode_maxCurrentSlope_High"), DW_AT_const_val
    6608              $C$DW$601       .dwtag  DW_TAG_enumerator, DW_AT_name("USER_ErrorCode_maxCurrentSlope_Low"), DW_AT_const_valu
    6609              $C$DW$602       .dwtag  DW_TAG_enumerator, DW_AT_name("USER_ErrorCode_maxCurrentSlope_powerWarp_High"), DW_AT
    6610              $C$DW$603       .dwtag  DW_TAG_enumerator, DW_AT_name("USER_ErrorCode_maxCurrentSlope_powerWarp_Low"), DW_AT_
    6611              $C$DW$604       .dwtag  DW_TAG_enumerator, DW_AT_name("USER_ErrorCode_IdRated_High"), DW_AT_const_value(0x54)
    6612              $C$DW$605       .dwtag  DW_TAG_enumerator, DW_AT_name("USER_ErrorCode_IdRated_Low"), DW_AT_const_value(0x55)
    6613              $C$DW$606       .dwtag  DW_TAG_enumerator, DW_AT_name("USER_ErrorCode_IdRatedFraction_indEst_High"), DW_AT_co
    6614              $C$DW$607       .dwtag  DW_TAG_enumerator, DW_AT_name("USER_ErrorCode_IdRatedFraction_indEst_Low"), DW_AT_con
    6615              $C$DW$608       .dwtag  DW_TAG_enumerator, DW_AT_name("USER_ErrorCode_IdRatedFraction_ratedFlux_High"), DW_AT
    6616              $C$DW$609       .dwtag  DW_TAG_enumerator, DW_AT_name("USER_ErrorCode_IdRatedFraction_ratedFlux_Low"), DW_AT_
    6617              $C$DW$610       .dwtag  DW_TAG_enumerator, DW_AT_name("USER_ErrorCode_IdRated_delta_High"), DW_AT_const_value
    6618              $C$DW$611       .dwtag  DW_TAG_enumerator, DW_AT_name("USER_ErrorCode_IdRated_delta_Low"), DW_AT_const_value(
    6619              $C$DW$612       .dwtag  DW_TAG_enumerator, DW_AT_name("USER_ErrorCode_fluxEstFreq_Hz_High"), DW_AT_const_valu
    6620              $C$DW$613       .dwtag  DW_TAG_enumerator, DW_AT_name("USER_ErrorCode_fluxEstFreq_Hz_Low"), DW_AT_const_value
    6621              $C$DW$614       .dwtag  DW_TAG_enumerator, DW_AT_name("USER_ErrorCode_ctrlFreq_Hz_High"), DW_AT_const_value(0
    6622              $C$DW$615       .dwtag  DW_TAG_enumerator, DW_AT_name("USER_ErrorCode_ctrlFreq_Hz_Low"), DW_AT_const_value(0x
    6623              $C$DW$616       .dwtag  DW_TAG_enumerator, DW_AT_name("USER_ErrorCode_estFreq_Hz_High"), DW_AT_const_value(0x
    6624              $C$DW$617       .dwtag  DW_TAG_enumerator, DW_AT_name("USER_ErrorCode_estFreq_Hz_Low"), DW_AT_const_value(0x6
    6625              $C$DW$618       .dwtag  DW_TAG_enumerator, DW_AT_name("USER_ErrorCode_RoverL_estFreq_Hz_High"), DW_AT_const_v
    6626              $C$DW$619       .dwtag  DW_TAG_enumerator, DW_AT_name("USER_ErrorCode_RoverL_estFreq_Hz_Low"), DW_AT_const_va
    6627              $C$DW$620       .dwtag  DW_TAG_enumerator, DW_AT_name("USER_ErrorCode_trajFreq_Hz_High"), DW_AT_const_value(0
    6628              $C$DW$621       .dwtag  DW_TAG_enumerator, DW_AT_name("USER_ErrorCode_trajFreq_Hz_Low"), DW_AT_const_value(0x
    6629              $C$DW$622       .dwtag  DW_TAG_enumerator, DW_AT_name("USER_ErrorCode_ctrlPeriod_sec_High"), DW_AT_const_valu
    6630              $C$DW$623       .dwtag  DW_TAG_enumerator, DW_AT_name("USER_ErrorCode_ctrlPeriod_sec_Low"), DW_AT_const_value
    6631              $C$DW$624       .dwtag  DW_TAG_enumerator, DW_AT_name("USER_ErrorCode_maxNegativeIdCurrent_a_High"), DW_AT_co
TMS320C2000 Assembler PC v6.2.5 Tue Jun 27 16:56:14 2017

Tools Copyright (c) 1996-2014 Texas Instruments Incorporated
C:\Users\wmj\AppData\Local\Temp\1139610                              PAGE  128

    6632              $C$DW$625       .dwtag  DW_TAG_enumerator, DW_AT_name("USER_ErrorCode_maxNegativeIdCurrent_a_Low"), DW_AT_con
    6633              $C$DW$626       .dwtag  DW_TAG_enumerator, DW_AT_name("USER_numErrorCodes"), DW_AT_const_value(0x6a)
    6634                      .dwendtag $C$DW$T$155
    6635              
    6636              $C$DW$T$156     .dwtag  DW_TAG_typedef, DW_AT_name("USER_ErrorCode_e")
    6637                      .dwattr $C$DW$T$156, DW_AT_type(*$C$DW$T$155)
    6638                      .dwattr $C$DW$T$156, DW_AT_language(DW_LANG_C)
    6639              
    6640              $C$DW$T$165     .dwtag  DW_TAG_enumeration_type
    6641                      .dwattr $C$DW$T$165, DW_AT_byte_size(0x01)
    6642              $C$DW$627       .dwtag  DW_TAG_enumerator, DW_AT_name("EST_State_Error"), DW_AT_const_value(0x00)
    6643              $C$DW$628       .dwtag  DW_TAG_enumerator, DW_AT_name("EST_State_Idle"), DW_AT_const_value(0x01)
    6644              $C$DW$629       .dwtag  DW_TAG_enumerator, DW_AT_name("EST_State_RoverL"), DW_AT_const_value(0x02)
    6645              $C$DW$630       .dwtag  DW_TAG_enumerator, DW_AT_name("EST_State_Rs"), DW_AT_const_value(0x03)
    6646              $C$DW$631       .dwtag  DW_TAG_enumerator, DW_AT_name("EST_State_RampUp"), DW_AT_const_value(0x04)
    6647              $C$DW$632       .dwtag  DW_TAG_enumerator, DW_AT_name("EST_State_IdRated"), DW_AT_const_value(0x05)
    6648              $C$DW$633       .dwtag  DW_TAG_enumerator, DW_AT_name("EST_State_RatedFlux_OL"), DW_AT_const_value(0x06)
    6649              $C$DW$634       .dwtag  DW_TAG_enumerator, DW_AT_name("EST_State_RatedFlux"), DW_AT_const_value(0x07)
    6650              $C$DW$635       .dwtag  DW_TAG_enumerator, DW_AT_name("EST_State_RampDown"), DW_AT_const_value(0x08)
    6651              $C$DW$636       .dwtag  DW_TAG_enumerator, DW_AT_name("EST_State_LockRotor"), DW_AT_const_value(0x09)
    6652              $C$DW$637       .dwtag  DW_TAG_enumerator, DW_AT_name("EST_State_Ls"), DW_AT_const_value(0x0a)
    6653              $C$DW$638       .dwtag  DW_TAG_enumerator, DW_AT_name("EST_State_Rr"), DW_AT_const_value(0x0b)
    6654              $C$DW$639       .dwtag  DW_TAG_enumerator, DW_AT_name("EST_State_MotorIdentified"), DW_AT_const_value(0x0c)
    6655              $C$DW$640       .dwtag  DW_TAG_enumerator, DW_AT_name("EST_State_OnLine"), DW_AT_const_value(0x0d)
    6656              $C$DW$641       .dwtag  DW_TAG_enumerator, DW_AT_name("EST_numStates"), DW_AT_const_value(0x0e)
    6657                      .dwendtag $C$DW$T$165
    6658              
    6659              $C$DW$T$166     .dwtag  DW_TAG_typedef, DW_AT_name("EST_State_e")
    6660                      .dwattr $C$DW$T$166, DW_AT_type(*$C$DW$T$165)
    6661                      .dwattr $C$DW$T$166, DW_AT_language(DW_LANG_C)
    6662              
    6663              $C$DW$T$170     .dwtag  DW_TAG_enumeration_type
    6664                      .dwattr $C$DW$T$170, DW_AT_byte_size(0x01)
    6665              $C$DW$642       .dwtag  DW_TAG_enumerator, DW_AT_name("CTRL_Type_PID_spd"), DW_AT_const_value(0x00)
    6666              $C$DW$643       .dwtag  DW_TAG_enumerator, DW_AT_name("CTRL_Type_PID_Id"), DW_AT_const_value(0x01)
    6667              $C$DW$644       .dwtag  DW_TAG_enumerator, DW_AT_name("CTRL_Type_PID_Iq"), DW_AT_const_value(0x02)
    6668                      .dwendtag $C$DW$T$170
    6669              
    6670              $C$DW$T$171     .dwtag  DW_TAG_typedef, DW_AT_name("CTRL_Type_e")
    6671                      .dwattr $C$DW$T$171, DW_AT_type(*$C$DW$T$170)
    6672                      .dwattr $C$DW$T$171, DW_AT_language(DW_LANG_C)
    6673              $C$DW$645       .dwtag  DW_TAG_TI_far_type
    6674                      .dwattr $C$DW$645, DW_AT_type(*$C$DW$T$171)
    6675              $C$DW$T$172     .dwtag  DW_TAG_const_type
    6676                      .dwattr $C$DW$T$172, DW_AT_type(*$C$DW$645)
    6677              
    6678              $C$DW$T$19      .dwtag  DW_TAG_structure_type
    6679                      .dwattr $C$DW$T$19, DW_AT_name("I2C_Obj")
    6680                      .dwattr $C$DW$T$19, DW_AT_declaration
    6681                      .dwendtag $C$DW$T$19
    6682              
    6683              $C$DW$T$112     .dwtag  DW_TAG_pointer_type
    6684                      .dwattr $C$DW$T$112, DW_AT_type(*$C$DW$T$19)
    6685                      .dwattr $C$DW$T$112, DW_AT_address_class(0x16)
    6686              $C$DW$T$113     .dwtag  DW_TAG_typedef, DW_AT_name("I2C_Handle")
TMS320C2000 Assembler PC v6.2.5 Tue Jun 27 16:56:14 2017

Tools Copyright (c) 1996-2014 Texas Instruments Incorporated
C:\Users\wmj\AppData\Local\Temp\1139610                              PAGE  129

    6687                      .dwattr $C$DW$T$113, DW_AT_type(*$C$DW$T$112)
    6688                      .dwattr $C$DW$T$113, DW_AT_language(DW_LANG_C)
    6689              
    6690              $C$DW$T$31      .dwtag  DW_TAG_structure_type
    6691                      .dwattr $C$DW$T$31, DW_AT_name("_ADC_Obj_")
    6692                      .dwattr $C$DW$T$31, DW_AT_byte_size(0x6650)
    6693              $C$DW$646       .dwtag  DW_TAG_member
    6694                      .dwattr $C$DW$646, DW_AT_type(*$C$DW$T$25)
    6695                      .dwattr $C$DW$646, DW_AT_name("ADCRESULT")
    6696                      .dwattr $C$DW$646, DW_AT_TI_symbol_name("_ADCRESULT")
    6697                      .dwattr $C$DW$646, DW_AT_data_member_location[DW_OP_plus_uconst 0x0]
    6698                      .dwattr $C$DW$646, DW_AT_accessibility(DW_ACCESS_public)
    6699              $C$DW$647       .dwtag  DW_TAG_member
    6700                      .dwattr $C$DW$647, DW_AT_type(*$C$DW$T$26)
    6701                      .dwattr $C$DW$647, DW_AT_name("resvd_1")
    6702                      .dwattr $C$DW$647, DW_AT_TI_symbol_name("_resvd_1")
    6703                      .dwattr $C$DW$647, DW_AT_data_member_location[DW_OP_plus_uconst 0x10]
    6704                      .dwattr $C$DW$647, DW_AT_accessibility(DW_ACCESS_public)
    6705              $C$DW$648       .dwtag  DW_TAG_member
    6706                      .dwattr $C$DW$648, DW_AT_type(*$C$DW$T$24)
    6707                      .dwattr $C$DW$648, DW_AT_name("ADCCTL1")
    6708                      .dwattr $C$DW$648, DW_AT_TI_symbol_name("_ADCCTL1")
    6709                      .dwattr $C$DW$648, DW_AT_data_member_location[DW_OP_plus_uconst 0x6600]
    6710                      .dwattr $C$DW$648, DW_AT_accessibility(DW_ACCESS_public)
    6711              $C$DW$649       .dwtag  DW_TAG_member
    6712                      .dwattr $C$DW$649, DW_AT_type(*$C$DW$T$24)
    6713                      .dwattr $C$DW$649, DW_AT_name("ADCCTL2")
    6714                      .dwattr $C$DW$649, DW_AT_TI_symbol_name("_ADCCTL2")
    6715                      .dwattr $C$DW$649, DW_AT_data_member_location[DW_OP_plus_uconst 0x6601]
    6716                      .dwattr $C$DW$649, DW_AT_accessibility(DW_ACCESS_public)
    6717              $C$DW$650       .dwtag  DW_TAG_member
    6718                      .dwattr $C$DW$650, DW_AT_type(*$C$DW$T$27)
    6719                      .dwattr $C$DW$650, DW_AT_name("rsvd_2")
    6720                      .dwattr $C$DW$650, DW_AT_TI_symbol_name("_rsvd_2")
    6721                      .dwattr $C$DW$650, DW_AT_data_member_location[DW_OP_plus_uconst 0x6602]
    6722                      .dwattr $C$DW$650, DW_AT_accessibility(DW_ACCESS_public)
    6723              $C$DW$651       .dwtag  DW_TAG_member
    6724                      .dwattr $C$DW$651, DW_AT_type(*$C$DW$T$24)
    6725                      .dwattr $C$DW$651, DW_AT_name("ADCINTFLG")
    6726                      .dwattr $C$DW$651, DW_AT_TI_symbol_name("_ADCINTFLG")
    6727                      .dwattr $C$DW$651, DW_AT_data_member_location[DW_OP_plus_uconst 0x6604]
    6728                      .dwattr $C$DW$651, DW_AT_accessibility(DW_ACCESS_public)
    6729              $C$DW$652       .dwtag  DW_TAG_member
    6730                      .dwattr $C$DW$652, DW_AT_type(*$C$DW$T$24)
    6731                      .dwattr $C$DW$652, DW_AT_name("ADCINTFLGCLR")
    6732                      .dwattr $C$DW$652, DW_AT_TI_symbol_name("_ADCINTFLGCLR")
    6733                      .dwattr $C$DW$652, DW_AT_data_member_location[DW_OP_plus_uconst 0x6605]
    6734                      .dwattr $C$DW$652, DW_AT_accessibility(DW_ACCESS_public)
    6735              $C$DW$653       .dwtag  DW_TAG_member
    6736                      .dwattr $C$DW$653, DW_AT_type(*$C$DW$T$24)
    6737                      .dwattr $C$DW$653, DW_AT_name("ADCINTOVF")
    6738                      .dwattr $C$DW$653, DW_AT_TI_symbol_name("_ADCINTOVF")
    6739                      .dwattr $C$DW$653, DW_AT_data_member_location[DW_OP_plus_uconst 0x6606]
    6740                      .dwattr $C$DW$653, DW_AT_accessibility(DW_ACCESS_public)
    6741              $C$DW$654       .dwtag  DW_TAG_member
TMS320C2000 Assembler PC v6.2.5 Tue Jun 27 16:56:14 2017

Tools Copyright (c) 1996-2014 Texas Instruments Incorporated
C:\Users\wmj\AppData\Local\Temp\1139610                              PAGE  130

    6742                      .dwattr $C$DW$654, DW_AT_type(*$C$DW$T$24)
    6743                      .dwattr $C$DW$654, DW_AT_name("ADCINTOVFCLR")
    6744                      .dwattr $C$DW$654, DW_AT_TI_symbol_name("_ADCINTOVFCLR")
    6745                      .dwattr $C$DW$654, DW_AT_data_member_location[DW_OP_plus_uconst 0x6607]
    6746                      .dwattr $C$DW$654, DW_AT_accessibility(DW_ACCESS_public)
    6747              $C$DW$655       .dwtag  DW_TAG_member
    6748                      .dwattr $C$DW$655, DW_AT_type(*$C$DW$T$28)
    6749                      .dwattr $C$DW$655, DW_AT_name("INTSELxNy")
    6750                      .dwattr $C$DW$655, DW_AT_TI_symbol_name("_INTSELxNy")
    6751                      .dwattr $C$DW$655, DW_AT_data_member_location[DW_OP_plus_uconst 0x6608]
    6752                      .dwattr $C$DW$655, DW_AT_accessibility(DW_ACCESS_public)
    6753              $C$DW$656       .dwtag  DW_TAG_member
    6754                      .dwattr $C$DW$656, DW_AT_type(*$C$DW$T$29)
    6755                      .dwattr $C$DW$656, DW_AT_name("rsvd_3")
    6756                      .dwattr $C$DW$656, DW_AT_TI_symbol_name("_rsvd_3")
    6757                      .dwattr $C$DW$656, DW_AT_data_member_location[DW_OP_plus_uconst 0x660d]
    6758                      .dwattr $C$DW$656, DW_AT_accessibility(DW_ACCESS_public)
    6759              $C$DW$657       .dwtag  DW_TAG_member
    6760                      .dwattr $C$DW$657, DW_AT_type(*$C$DW$T$24)
    6761                      .dwattr $C$DW$657, DW_AT_name("SOCPRICTRL")
    6762                      .dwattr $C$DW$657, DW_AT_TI_symbol_name("_SOCPRICTRL")
    6763                      .dwattr $C$DW$657, DW_AT_data_member_location[DW_OP_plus_uconst 0x6610]
    6764                      .dwattr $C$DW$657, DW_AT_accessibility(DW_ACCESS_public)
    6765              $C$DW$658       .dwtag  DW_TAG_member
    6766                      .dwattr $C$DW$658, DW_AT_type(*$C$DW$T$24)
    6767                      .dwattr $C$DW$658, DW_AT_name("rsvd_4")
    6768                      .dwattr $C$DW$658, DW_AT_TI_symbol_name("_rsvd_4")
    6769                      .dwattr $C$DW$658, DW_AT_data_member_location[DW_OP_plus_uconst 0x6611]
    6770                      .dwattr $C$DW$658, DW_AT_accessibility(DW_ACCESS_public)
    6771              $C$DW$659       .dwtag  DW_TAG_member
    6772                      .dwattr $C$DW$659, DW_AT_type(*$C$DW$T$24)
    6773                      .dwattr $C$DW$659, DW_AT_name("ADCSAMPLEMODE")
    6774                      .dwattr $C$DW$659, DW_AT_TI_symbol_name("_ADCSAMPLEMODE")
    6775                      .dwattr $C$DW$659, DW_AT_data_member_location[DW_OP_plus_uconst 0x6612]
    6776                      .dwattr $C$DW$659, DW_AT_accessibility(DW_ACCESS_public)
    6777              $C$DW$660       .dwtag  DW_TAG_member
    6778                      .dwattr $C$DW$660, DW_AT_type(*$C$DW$T$24)
    6779                      .dwattr $C$DW$660, DW_AT_name("rsvd_5")
    6780                      .dwattr $C$DW$660, DW_AT_TI_symbol_name("_rsvd_5")
    6781                      .dwattr $C$DW$660, DW_AT_data_member_location[DW_OP_plus_uconst 0x6613]
    6782                      .dwattr $C$DW$660, DW_AT_accessibility(DW_ACCESS_public)
    6783              $C$DW$661       .dwtag  DW_TAG_member
    6784                      .dwattr $C$DW$661, DW_AT_type(*$C$DW$T$24)
    6785                      .dwattr $C$DW$661, DW_AT_name("ADCINTSOCSEL1")
    6786                      .dwattr $C$DW$661, DW_AT_TI_symbol_name("_ADCINTSOCSEL1")
    6787                      .dwattr $C$DW$661, DW_AT_data_member_location[DW_OP_plus_uconst 0x6614]
    6788                      .dwattr $C$DW$661, DW_AT_accessibility(DW_ACCESS_public)
    6789              $C$DW$662       .dwtag  DW_TAG_member
    6790                      .dwattr $C$DW$662, DW_AT_type(*$C$DW$T$24)
    6791                      .dwattr $C$DW$662, DW_AT_name("ADCINTSOCSEL2")
    6792                      .dwattr $C$DW$662, DW_AT_TI_symbol_name("_ADCINTSOCSEL2")
    6793                      .dwattr $C$DW$662, DW_AT_data_member_location[DW_OP_plus_uconst 0x6615]
    6794                      .dwattr $C$DW$662, DW_AT_accessibility(DW_ACCESS_public)
    6795              $C$DW$663       .dwtag  DW_TAG_member
    6796                      .dwattr $C$DW$663, DW_AT_type(*$C$DW$T$27)
TMS320C2000 Assembler PC v6.2.5 Tue Jun 27 16:56:14 2017

Tools Copyright (c) 1996-2014 Texas Instruments Incorporated
C:\Users\wmj\AppData\Local\Temp\1139610                              PAGE  131

    6797                      .dwattr $C$DW$663, DW_AT_name("rsvd_6")
    6798                      .dwattr $C$DW$663, DW_AT_TI_symbol_name("_rsvd_6")
    6799                      .dwattr $C$DW$663, DW_AT_data_member_location[DW_OP_plus_uconst 0x6616]
    6800                      .dwattr $C$DW$663, DW_AT_accessibility(DW_ACCESS_public)
    6801              $C$DW$664       .dwtag  DW_TAG_member
    6802                      .dwattr $C$DW$664, DW_AT_type(*$C$DW$T$24)
    6803                      .dwattr $C$DW$664, DW_AT_name("ADCSOCFLG1")
    6804                      .dwattr $C$DW$664, DW_AT_TI_symbol_name("_ADCSOCFLG1")
    6805                      .dwattr $C$DW$664, DW_AT_data_member_location[DW_OP_plus_uconst 0x6618]
    6806                      .dwattr $C$DW$664, DW_AT_accessibility(DW_ACCESS_public)
    6807              $C$DW$665       .dwtag  DW_TAG_member
    6808                      .dwattr $C$DW$665, DW_AT_type(*$C$DW$T$24)
    6809                      .dwattr $C$DW$665, DW_AT_name("rsvd_7")
    6810                      .dwattr $C$DW$665, DW_AT_TI_symbol_name("_rsvd_7")
    6811                      .dwattr $C$DW$665, DW_AT_data_member_location[DW_OP_plus_uconst 0x6619]
    6812                      .dwattr $C$DW$665, DW_AT_accessibility(DW_ACCESS_public)
    6813              $C$DW$666       .dwtag  DW_TAG_member
    6814                      .dwattr $C$DW$666, DW_AT_type(*$C$DW$T$24)
    6815                      .dwattr $C$DW$666, DW_AT_name("ADCSOCFRC1")
    6816                      .dwattr $C$DW$666, DW_AT_TI_symbol_name("_ADCSOCFRC1")
    6817                      .dwattr $C$DW$666, DW_AT_data_member_location[DW_OP_plus_uconst 0x661a]
    6818                      .dwattr $C$DW$666, DW_AT_accessibility(DW_ACCESS_public)
    6819              $C$DW$667       .dwtag  DW_TAG_member
    6820                      .dwattr $C$DW$667, DW_AT_type(*$C$DW$T$24)
    6821                      .dwattr $C$DW$667, DW_AT_name("rsvd_8")
    6822                      .dwattr $C$DW$667, DW_AT_TI_symbol_name("_rsvd_8")
    6823                      .dwattr $C$DW$667, DW_AT_data_member_location[DW_OP_plus_uconst 0x661b]
    6824                      .dwattr $C$DW$667, DW_AT_accessibility(DW_ACCESS_public)
    6825              $C$DW$668       .dwtag  DW_TAG_member
    6826                      .dwattr $C$DW$668, DW_AT_type(*$C$DW$T$24)
    6827                      .dwattr $C$DW$668, DW_AT_name("ADCSOCOVF1")
    6828                      .dwattr $C$DW$668, DW_AT_TI_symbol_name("_ADCSOCOVF1")
    6829                      .dwattr $C$DW$668, DW_AT_data_member_location[DW_OP_plus_uconst 0x661c]
    6830                      .dwattr $C$DW$668, DW_AT_accessibility(DW_ACCESS_public)
    6831              $C$DW$669       .dwtag  DW_TAG_member
    6832                      .dwattr $C$DW$669, DW_AT_type(*$C$DW$T$24)
    6833                      .dwattr $C$DW$669, DW_AT_name("rsvd_9")
    6834                      .dwattr $C$DW$669, DW_AT_TI_symbol_name("_rsvd_9")
    6835                      .dwattr $C$DW$669, DW_AT_data_member_location[DW_OP_plus_uconst 0x661d]
    6836                      .dwattr $C$DW$669, DW_AT_accessibility(DW_ACCESS_public)
    6837              $C$DW$670       .dwtag  DW_TAG_member
    6838                      .dwattr $C$DW$670, DW_AT_type(*$C$DW$T$24)
    6839                      .dwattr $C$DW$670, DW_AT_name("ADCSOCOVFCLR1")
    6840                      .dwattr $C$DW$670, DW_AT_TI_symbol_name("_ADCSOCOVFCLR1")
    6841                      .dwattr $C$DW$670, DW_AT_data_member_location[DW_OP_plus_uconst 0x661e]
    6842                      .dwattr $C$DW$670, DW_AT_accessibility(DW_ACCESS_public)
    6843              $C$DW$671       .dwtag  DW_TAG_member
    6844                      .dwattr $C$DW$671, DW_AT_type(*$C$DW$T$24)
    6845                      .dwattr $C$DW$671, DW_AT_name("rsvd_10")
    6846                      .dwattr $C$DW$671, DW_AT_TI_symbol_name("_rsvd_10")
    6847                      .dwattr $C$DW$671, DW_AT_data_member_location[DW_OP_plus_uconst 0x661f]
    6848                      .dwattr $C$DW$671, DW_AT_accessibility(DW_ACCESS_public)
    6849              $C$DW$672       .dwtag  DW_TAG_member
    6850                      .dwattr $C$DW$672, DW_AT_type(*$C$DW$T$25)
    6851                      .dwattr $C$DW$672, DW_AT_name("ADCSOCxCTL")
TMS320C2000 Assembler PC v6.2.5 Tue Jun 27 16:56:14 2017

Tools Copyright (c) 1996-2014 Texas Instruments Incorporated
C:\Users\wmj\AppData\Local\Temp\1139610                              PAGE  132

    6852                      .dwattr $C$DW$672, DW_AT_TI_symbol_name("_ADCSOCxCTL")
    6853                      .dwattr $C$DW$672, DW_AT_data_member_location[DW_OP_plus_uconst 0x6620]
    6854                      .dwattr $C$DW$672, DW_AT_accessibility(DW_ACCESS_public)
    6855              $C$DW$673       .dwtag  DW_TAG_member
    6856                      .dwattr $C$DW$673, DW_AT_type(*$C$DW$T$25)
    6857                      .dwattr $C$DW$673, DW_AT_name("rsvd_11")
    6858                      .dwattr $C$DW$673, DW_AT_TI_symbol_name("_rsvd_11")
    6859                      .dwattr $C$DW$673, DW_AT_data_member_location[DW_OP_plus_uconst 0x6630]
    6860                      .dwattr $C$DW$673, DW_AT_accessibility(DW_ACCESS_public)
    6861              $C$DW$674       .dwtag  DW_TAG_member
    6862                      .dwattr $C$DW$674, DW_AT_type(*$C$DW$T$24)
    6863                      .dwattr $C$DW$674, DW_AT_name("ADCREFTRIM")
    6864                      .dwattr $C$DW$674, DW_AT_TI_symbol_name("_ADCREFTRIM")
    6865                      .dwattr $C$DW$674, DW_AT_data_member_location[DW_OP_plus_uconst 0x6640]
    6866                      .dwattr $C$DW$674, DW_AT_accessibility(DW_ACCESS_public)
    6867              $C$DW$675       .dwtag  DW_TAG_member
    6868                      .dwattr $C$DW$675, DW_AT_type(*$C$DW$T$24)
    6869                      .dwattr $C$DW$675, DW_AT_name("ADCOFFTRIM")
    6870                      .dwattr $C$DW$675, DW_AT_TI_symbol_name("_ADCOFFTRIM")
    6871                      .dwattr $C$DW$675, DW_AT_data_member_location[DW_OP_plus_uconst 0x6641]
    6872                      .dwattr $C$DW$675, DW_AT_accessibility(DW_ACCESS_public)
    6873              $C$DW$676       .dwtag  DW_TAG_member
    6874                      .dwattr $C$DW$676, DW_AT_type(*$C$DW$T$30)
    6875                      .dwattr $C$DW$676, DW_AT_name("resvd_12")
    6876                      .dwattr $C$DW$676, DW_AT_TI_symbol_name("_resvd_12")
    6877                      .dwattr $C$DW$676, DW_AT_data_member_location[DW_OP_plus_uconst 0x6642]
    6878                      .dwattr $C$DW$676, DW_AT_accessibility(DW_ACCESS_public)
    6879              $C$DW$677       .dwtag  DW_TAG_member
    6880                      .dwattr $C$DW$677, DW_AT_type(*$C$DW$T$24)
    6881                      .dwattr $C$DW$677, DW_AT_name("ADCREV")
    6882                      .dwattr $C$DW$677, DW_AT_TI_symbol_name("_ADCREV")
    6883                      .dwattr $C$DW$677, DW_AT_data_member_location[DW_OP_plus_uconst 0x664f]
    6884                      .dwattr $C$DW$677, DW_AT_accessibility(DW_ACCESS_public)
    6885                      .dwendtag $C$DW$T$31
    6886              
    6887              $C$DW$T$83      .dwtag  DW_TAG_pointer_type
    6888                      .dwattr $C$DW$T$83, DW_AT_type(*$C$DW$T$31)
    6889                      .dwattr $C$DW$T$83, DW_AT_address_class(0x16)
    6890              $C$DW$T$84      .dwtag  DW_TAG_typedef, DW_AT_name("ADC_Handle")
    6891                      .dwattr $C$DW$T$84, DW_AT_type(*$C$DW$T$83)
    6892                      .dwattr $C$DW$T$84, DW_AT_language(DW_LANG_C)
    6893              
    6894              $C$DW$T$34      .dwtag  DW_TAG_structure_type
    6895                      .dwattr $C$DW$T$34, DW_AT_name("_CLARKE_Obj_")
    6896                      .dwattr $C$DW$T$34, DW_AT_byte_size(0x06)
    6897              $C$DW$678       .dwtag  DW_TAG_member
    6898                      .dwattr $C$DW$678, DW_AT_type(*$C$DW$T$32)
    6899                      .dwattr $C$DW$678, DW_AT_name("alpha_sf")
    6900                      .dwattr $C$DW$678, DW_AT_TI_symbol_name("_alpha_sf")
    6901                      .dwattr $C$DW$678, DW_AT_data_member_location[DW_OP_plus_uconst 0x0]
    6902                      .dwattr $C$DW$678, DW_AT_accessibility(DW_ACCESS_public)
    6903              $C$DW$679       .dwtag  DW_TAG_member
    6904                      .dwattr $C$DW$679, DW_AT_type(*$C$DW$T$32)
    6905                      .dwattr $C$DW$679, DW_AT_name("beta_sf")
    6906                      .dwattr $C$DW$679, DW_AT_TI_symbol_name("_beta_sf")
TMS320C2000 Assembler PC v6.2.5 Tue Jun 27 16:56:14 2017

Tools Copyright (c) 1996-2014 Texas Instruments Incorporated
C:\Users\wmj\AppData\Local\Temp\1139610                              PAGE  133

    6907                      .dwattr $C$DW$679, DW_AT_data_member_location[DW_OP_plus_uconst 0x2]
    6908                      .dwattr $C$DW$679, DW_AT_accessibility(DW_ACCESS_public)
    6909              $C$DW$680       .dwtag  DW_TAG_member
    6910                      .dwattr $C$DW$680, DW_AT_type(*$C$DW$T$33)
    6911                      .dwattr $C$DW$680, DW_AT_name("numSensors")
    6912                      .dwattr $C$DW$680, DW_AT_TI_symbol_name("_numSensors")
    6913                      .dwattr $C$DW$680, DW_AT_data_member_location[DW_OP_plus_uconst 0x4]
    6914                      .dwattr $C$DW$680, DW_AT_accessibility(DW_ACCESS_public)
    6915                      .dwendtag $C$DW$T$34
    6916              
    6917              $C$DW$T$45      .dwtag  DW_TAG_typedef, DW_AT_name("CLARKE_Obj")
    6918                      .dwattr $C$DW$T$45, DW_AT_type(*$C$DW$T$34)
    6919                      .dwattr $C$DW$T$45, DW_AT_language(DW_LANG_C)
    6920              $C$DW$T$173     .dwtag  DW_TAG_pointer_type
    6921                      .dwattr $C$DW$T$173, DW_AT_type(*$C$DW$T$45)
    6922                      .dwattr $C$DW$T$173, DW_AT_address_class(0x16)
    6923              $C$DW$T$43      .dwtag  DW_TAG_pointer_type
    6924                      .dwattr $C$DW$T$43, DW_AT_type(*$C$DW$T$34)
    6925                      .dwattr $C$DW$T$43, DW_AT_address_class(0x16)
    6926              $C$DW$T$44      .dwtag  DW_TAG_typedef, DW_AT_name("CLARKE_Handle")
    6927                      .dwattr $C$DW$T$44, DW_AT_type(*$C$DW$T$43)
    6928                      .dwattr $C$DW$T$44, DW_AT_language(DW_LANG_C)
    6929              
    6930              $C$DW$T$36      .dwtag  DW_TAG_structure_type
    6931                      .dwattr $C$DW$T$36, DW_AT_name("_CLK_Obj_")
    6932                      .dwattr $C$DW$T$36, DW_AT_byte_size(0x11)
    6933              $C$DW$681       .dwtag  DW_TAG_member
    6934                      .dwattr $C$DW$681, DW_AT_type(*$C$DW$T$24)
    6935                      .dwattr $C$DW$681, DW_AT_name("XCLK")
    6936                      .dwattr $C$DW$681, DW_AT_TI_symbol_name("_XCLK")
    6937                      .dwattr $C$DW$681, DW_AT_data_member_location[DW_OP_plus_uconst 0x0]
    6938                      .dwattr $C$DW$681, DW_AT_accessibility(DW_ACCESS_public)
    6939              $C$DW$682       .dwtag  DW_TAG_member
    6940                      .dwattr $C$DW$682, DW_AT_type(*$C$DW$T$24)
    6941                      .dwattr $C$DW$682, DW_AT_name("rsvd_1")
    6942                      .dwattr $C$DW$682, DW_AT_TI_symbol_name("_rsvd_1")
    6943                      .dwattr $C$DW$682, DW_AT_data_member_location[DW_OP_plus_uconst 0x1]
    6944                      .dwattr $C$DW$682, DW_AT_accessibility(DW_ACCESS_public)
    6945              $C$DW$683       .dwtag  DW_TAG_member
    6946                      .dwattr $C$DW$683, DW_AT_type(*$C$DW$T$24)
    6947                      .dwattr $C$DW$683, DW_AT_name("CLKCTL")
    6948                      .dwattr $C$DW$683, DW_AT_TI_symbol_name("_CLKCTL")
    6949                      .dwattr $C$DW$683, DW_AT_data_member_location[DW_OP_plus_uconst 0x2]
    6950                      .dwattr $C$DW$683, DW_AT_accessibility(DW_ACCESS_public)
    6951              $C$DW$684       .dwtag  DW_TAG_member
    6952                      .dwattr $C$DW$684, DW_AT_type(*$C$DW$T$35)
    6953                      .dwattr $C$DW$684, DW_AT_name("rsvd_2")
    6954                      .dwattr $C$DW$684, DW_AT_TI_symbol_name("_rsvd_2")
    6955                      .dwattr $C$DW$684, DW_AT_data_member_location[DW_OP_plus_uconst 0x3]
    6956                      .dwattr $C$DW$684, DW_AT_accessibility(DW_ACCESS_public)
    6957              $C$DW$685       .dwtag  DW_TAG_member
    6958                      .dwattr $C$DW$685, DW_AT_type(*$C$DW$T$24)
    6959                      .dwattr $C$DW$685, DW_AT_name("LOSPCP")
    6960                      .dwattr $C$DW$685, DW_AT_TI_symbol_name("_LOSPCP")
    6961                      .dwattr $C$DW$685, DW_AT_data_member_location[DW_OP_plus_uconst 0xb]
TMS320C2000 Assembler PC v6.2.5 Tue Jun 27 16:56:14 2017

Tools Copyright (c) 1996-2014 Texas Instruments Incorporated
C:\Users\wmj\AppData\Local\Temp\1139610                              PAGE  134

    6962                      .dwattr $C$DW$685, DW_AT_accessibility(DW_ACCESS_public)
    6963              $C$DW$686       .dwtag  DW_TAG_member
    6964                      .dwattr $C$DW$686, DW_AT_type(*$C$DW$T$24)
    6965                      .dwattr $C$DW$686, DW_AT_name("PCLKCR0")
    6966                      .dwattr $C$DW$686, DW_AT_TI_symbol_name("_PCLKCR0")
    6967                      .dwattr $C$DW$686, DW_AT_data_member_location[DW_OP_plus_uconst 0xc]
    6968                      .dwattr $C$DW$686, DW_AT_accessibility(DW_ACCESS_public)
    6969              $C$DW$687       .dwtag  DW_TAG_member
    6970                      .dwattr $C$DW$687, DW_AT_type(*$C$DW$T$24)
    6971                      .dwattr $C$DW$687, DW_AT_name("PCLKCR1")
    6972                      .dwattr $C$DW$687, DW_AT_TI_symbol_name("_PCLKCR1")
    6973                      .dwattr $C$DW$687, DW_AT_data_member_location[DW_OP_plus_uconst 0xd]
    6974                      .dwattr $C$DW$687, DW_AT_accessibility(DW_ACCESS_public)
    6975              $C$DW$688       .dwtag  DW_TAG_member
    6976                      .dwattr $C$DW$688, DW_AT_type(*$C$DW$T$27)
    6977                      .dwattr $C$DW$688, DW_AT_name("rsvd_3")
    6978                      .dwattr $C$DW$688, DW_AT_TI_symbol_name("_rsvd_3")
    6979                      .dwattr $C$DW$688, DW_AT_data_member_location[DW_OP_plus_uconst 0xe]
    6980                      .dwattr $C$DW$688, DW_AT_accessibility(DW_ACCESS_public)
    6981              $C$DW$689       .dwtag  DW_TAG_member
    6982                      .dwattr $C$DW$689, DW_AT_type(*$C$DW$T$24)
    6983                      .dwattr $C$DW$689, DW_AT_name("PCLKCR3")
    6984                      .dwattr $C$DW$689, DW_AT_TI_symbol_name("_PCLKCR3")
    6985                      .dwattr $C$DW$689, DW_AT_data_member_location[DW_OP_plus_uconst 0x10]
    6986                      .dwattr $C$DW$689, DW_AT_accessibility(DW_ACCESS_public)
    6987                      .dwendtag $C$DW$T$36
    6988              
    6989              $C$DW$T$85      .dwtag  DW_TAG_pointer_type
    6990                      .dwattr $C$DW$T$85, DW_AT_type(*$C$DW$T$36)
    6991                      .dwattr $C$DW$T$85, DW_AT_address_class(0x16)
    6992              $C$DW$T$86      .dwtag  DW_TAG_typedef, DW_AT_name("CLK_Handle")
    6993                      .dwattr $C$DW$T$86, DW_AT_type(*$C$DW$T$85)
    6994                      .dwattr $C$DW$T$86, DW_AT_language(DW_LANG_C)
    6995              
    6996              $C$DW$T$37      .dwtag  DW_TAG_structure_type
    6997                      .dwattr $C$DW$T$37, DW_AT_name("_CPU_Obj_")
    6998                      .dwattr $C$DW$T$37, DW_AT_byte_size(0x01)
    6999              $C$DW$690       .dwtag  DW_TAG_member
    7000                      .dwattr $C$DW$690, DW_AT_type(*$C$DW$T$33)
    7001                      .dwattr $C$DW$690, DW_AT_name("tmp")
    7002                      .dwattr $C$DW$690, DW_AT_TI_symbol_name("_tmp")
    7003                      .dwattr $C$DW$690, DW_AT_data_member_location[DW_OP_plus_uconst 0x0]
    7004                      .dwattr $C$DW$690, DW_AT_accessibility(DW_ACCESS_public)
    7005                      .dwendtag $C$DW$T$37
    7006              
    7007              $C$DW$T$87      .dwtag  DW_TAG_pointer_type
    7008                      .dwattr $C$DW$T$87, DW_AT_type(*$C$DW$T$37)
    7009                      .dwattr $C$DW$T$87, DW_AT_address_class(0x16)
    7010              $C$DW$T$88      .dwtag  DW_TAG_typedef, DW_AT_name("CPU_Handle")
    7011                      .dwattr $C$DW$T$88, DW_AT_type(*$C$DW$T$87)
    7012                      .dwattr $C$DW$T$88, DW_AT_language(DW_LANG_C)
    7013              
    7014              $C$DW$T$71      .dwtag  DW_TAG_structure_type
    7015                      .dwattr $C$DW$T$71, DW_AT_name("_CTRL_Obj_")
    7016                      .dwattr $C$DW$T$71, DW_AT_byte_size(0x108)
TMS320C2000 Assembler PC v6.2.5 Tue Jun 27 16:56:14 2017

Tools Copyright (c) 1996-2014 Texas Instruments Incorporated
C:\Users\wmj\AppData\Local\Temp\1139610                              PAGE  135

    7017              $C$DW$691       .dwtag  DW_TAG_member
    7018                      .dwattr $C$DW$691, DW_AT_type(*$C$DW$T$38)
    7019                      .dwattr $C$DW$691, DW_AT_name("version")
    7020                      .dwattr $C$DW$691, DW_AT_TI_symbol_name("_version")
    7021                      .dwattr $C$DW$691, DW_AT_data_member_location[DW_OP_plus_uconst 0x0]
    7022                      .dwattr $C$DW$691, DW_AT_accessibility(DW_ACCESS_public)
    7023              $C$DW$692       .dwtag  DW_TAG_member
    7024                      .dwattr $C$DW$692, DW_AT_type(*$C$DW$T$40)
    7025                      .dwattr $C$DW$692, DW_AT_name("state")
    7026                      .dwattr $C$DW$692, DW_AT_TI_symbol_name("_state")
    7027                      .dwattr $C$DW$692, DW_AT_data_member_location[DW_OP_plus_uconst 0x4]
    7028                      .dwattr $C$DW$692, DW_AT_accessibility(DW_ACCESS_public)
    7029              $C$DW$693       .dwtag  DW_TAG_member
    7030                      .dwattr $C$DW$693, DW_AT_type(*$C$DW$T$40)
    7031                      .dwattr $C$DW$693, DW_AT_name("prevState")
    7032                      .dwattr $C$DW$693, DW_AT_TI_symbol_name("_prevState")
    7033                      .dwattr $C$DW$693, DW_AT_data_member_location[DW_OP_plus_uconst 0x5]
    7034                      .dwattr $C$DW$693, DW_AT_accessibility(DW_ACCESS_public)
    7035              $C$DW$694       .dwtag  DW_TAG_member
    7036                      .dwattr $C$DW$694, DW_AT_type(*$C$DW$T$42)
    7037                      .dwattr $C$DW$694, DW_AT_name("errorCode")
    7038                      .dwattr $C$DW$694, DW_AT_TI_symbol_name("_errorCode")
    7039                      .dwattr $C$DW$694, DW_AT_data_member_location[DW_OP_plus_uconst 0x6]
    7040                      .dwattr $C$DW$694, DW_AT_accessibility(DW_ACCESS_public)
    7041              $C$DW$695       .dwtag  DW_TAG_member
    7042                      .dwattr $C$DW$695, DW_AT_type(*$C$DW$T$44)
    7043                      .dwattr $C$DW$695, DW_AT_name("clarkeHandle_I")
    7044                      .dwattr $C$DW$695, DW_AT_TI_symbol_name("_clarkeHandle_I")
    7045                      .dwattr $C$DW$695, DW_AT_data_member_location[DW_OP_plus_uconst 0x8]
    7046                      .dwattr $C$DW$695, DW_AT_accessibility(DW_ACCESS_public)
    7047              $C$DW$696       .dwtag  DW_TAG_member
    7048                      .dwattr $C$DW$696, DW_AT_type(*$C$DW$T$45)
    7049                      .dwattr $C$DW$696, DW_AT_name("clarke_I")
    7050                      .dwattr $C$DW$696, DW_AT_TI_symbol_name("_clarke_I")
    7051                      .dwattr $C$DW$696, DW_AT_data_member_location[DW_OP_plus_uconst 0xa]
    7052                      .dwattr $C$DW$696, DW_AT_accessibility(DW_ACCESS_public)
    7053              $C$DW$697       .dwtag  DW_TAG_member
    7054                      .dwattr $C$DW$697, DW_AT_type(*$C$DW$T$44)
    7055                      .dwattr $C$DW$697, DW_AT_name("clarkeHandle_V")
    7056                      .dwattr $C$DW$697, DW_AT_TI_symbol_name("_clarkeHandle_V")
    7057                      .dwattr $C$DW$697, DW_AT_data_member_location[DW_OP_plus_uconst 0x10]
    7058                      .dwattr $C$DW$697, DW_AT_accessibility(DW_ACCESS_public)
    7059              $C$DW$698       .dwtag  DW_TAG_member
    7060                      .dwattr $C$DW$698, DW_AT_type(*$C$DW$T$45)
    7061                      .dwattr $C$DW$698, DW_AT_name("clarke_V")
    7062                      .dwattr $C$DW$698, DW_AT_TI_symbol_name("_clarke_V")
    7063                      .dwattr $C$DW$698, DW_AT_data_member_location[DW_OP_plus_uconst 0x12]
    7064                      .dwattr $C$DW$698, DW_AT_accessibility(DW_ACCESS_public)
    7065              $C$DW$699       .dwtag  DW_TAG_member
    7066                      .dwattr $C$DW$699, DW_AT_type(*$C$DW$T$47)
    7067                      .dwattr $C$DW$699, DW_AT_name("estHandle")
    7068                      .dwattr $C$DW$699, DW_AT_TI_symbol_name("_estHandle")
    7069                      .dwattr $C$DW$699, DW_AT_data_member_location[DW_OP_plus_uconst 0x18]
    7070                      .dwattr $C$DW$699, DW_AT_accessibility(DW_ACCESS_public)
    7071              $C$DW$700       .dwtag  DW_TAG_member
TMS320C2000 Assembler PC v6.2.5 Tue Jun 27 16:56:14 2017

Tools Copyright (c) 1996-2014 Texas Instruments Incorporated
C:\Users\wmj\AppData\Local\Temp\1139610                              PAGE  136

    7072                      .dwattr $C$DW$700, DW_AT_type(*$C$DW$T$49)
    7073                      .dwattr $C$DW$700, DW_AT_name("parkHandle")
    7074                      .dwattr $C$DW$700, DW_AT_TI_symbol_name("_parkHandle")
    7075                      .dwattr $C$DW$700, DW_AT_data_member_location[DW_OP_plus_uconst 0x1a]
    7076                      .dwattr $C$DW$700, DW_AT_accessibility(DW_ACCESS_public)
    7077              $C$DW$701       .dwtag  DW_TAG_member
    7078                      .dwattr $C$DW$701, DW_AT_type(*$C$DW$T$50)
    7079                      .dwattr $C$DW$701, DW_AT_name("park")
    7080                      .dwattr $C$DW$701, DW_AT_TI_symbol_name("_park")
    7081                      .dwattr $C$DW$701, DW_AT_data_member_location[DW_OP_plus_uconst 0x1c]
    7082                      .dwattr $C$DW$701, DW_AT_accessibility(DW_ACCESS_public)
    7083              $C$DW$702       .dwtag  DW_TAG_member
    7084                      .dwattr $C$DW$702, DW_AT_type(*$C$DW$T$52)
    7085                      .dwattr $C$DW$702, DW_AT_name("pidHandle_Id")
    7086                      .dwattr $C$DW$702, DW_AT_TI_symbol_name("_pidHandle_Id")
    7087                      .dwattr $C$DW$702, DW_AT_data_member_location[DW_OP_plus_uconst 0x20]
    7088                      .dwattr $C$DW$702, DW_AT_accessibility(DW_ACCESS_public)
    7089              $C$DW$703       .dwtag  DW_TAG_member
    7090                      .dwattr $C$DW$703, DW_AT_type(*$C$DW$T$53)
    7091                      .dwattr $C$DW$703, DW_AT_name("pid_Id")
    7092                      .dwattr $C$DW$703, DW_AT_TI_symbol_name("_pid_Id")
    7093                      .dwattr $C$DW$703, DW_AT_data_member_location[DW_OP_plus_uconst 0x22]
    7094                      .dwattr $C$DW$703, DW_AT_accessibility(DW_ACCESS_public)
    7095              $C$DW$704       .dwtag  DW_TAG_member
    7096                      .dwattr $C$DW$704, DW_AT_type(*$C$DW$T$52)
    7097                      .dwattr $C$DW$704, DW_AT_name("pidHandle_Iq")
    7098                      .dwattr $C$DW$704, DW_AT_TI_symbol_name("_pidHandle_Iq")
    7099                      .dwattr $C$DW$704, DW_AT_data_member_location[DW_OP_plus_uconst 0x32]
    7100                      .dwattr $C$DW$704, DW_AT_accessibility(DW_ACCESS_public)
    7101              $C$DW$705       .dwtag  DW_TAG_member
    7102                      .dwattr $C$DW$705, DW_AT_type(*$C$DW$T$53)
    7103                      .dwattr $C$DW$705, DW_AT_name("pid_Iq")
    7104                      .dwattr $C$DW$705, DW_AT_TI_symbol_name("_pid_Iq")
    7105                      .dwattr $C$DW$705, DW_AT_data_member_location[DW_OP_plus_uconst 0x34]
    7106                      .dwattr $C$DW$705, DW_AT_accessibility(DW_ACCESS_public)
    7107              $C$DW$706       .dwtag  DW_TAG_member
    7108                      .dwattr $C$DW$706, DW_AT_type(*$C$DW$T$52)
    7109                      .dwattr $C$DW$706, DW_AT_name("pidHandle_spd")
    7110                      .dwattr $C$DW$706, DW_AT_TI_symbol_name("_pidHandle_spd")
    7111                      .dwattr $C$DW$706, DW_AT_data_member_location[DW_OP_plus_uconst 0x44]
    7112                      .dwattr $C$DW$706, DW_AT_accessibility(DW_ACCESS_public)
    7113              $C$DW$707       .dwtag  DW_TAG_member
    7114                      .dwattr $C$DW$707, DW_AT_type(*$C$DW$T$53)
    7115                      .dwattr $C$DW$707, DW_AT_name("pid_spd")
    7116                      .dwattr $C$DW$707, DW_AT_TI_symbol_name("_pid_spd")
    7117                      .dwattr $C$DW$707, DW_AT_data_member_location[DW_OP_plus_uconst 0x46]
    7118                      .dwattr $C$DW$707, DW_AT_accessibility(DW_ACCESS_public)
    7119              $C$DW$708       .dwtag  DW_TAG_member
    7120                      .dwattr $C$DW$708, DW_AT_type(*$C$DW$T$55)
    7121                      .dwattr $C$DW$708, DW_AT_name("iparkHandle")
    7122                      .dwattr $C$DW$708, DW_AT_TI_symbol_name("_iparkHandle")
    7123                      .dwattr $C$DW$708, DW_AT_data_member_location[DW_OP_plus_uconst 0x56]
    7124                      .dwattr $C$DW$708, DW_AT_accessibility(DW_ACCESS_public)
    7125              $C$DW$709       .dwtag  DW_TAG_member
    7126                      .dwattr $C$DW$709, DW_AT_type(*$C$DW$T$56)
TMS320C2000 Assembler PC v6.2.5 Tue Jun 27 16:56:14 2017

Tools Copyright (c) 1996-2014 Texas Instruments Incorporated
C:\Users\wmj\AppData\Local\Temp\1139610                              PAGE  137

    7127                      .dwattr $C$DW$709, DW_AT_name("ipark")
    7128                      .dwattr $C$DW$709, DW_AT_TI_symbol_name("_ipark")
    7129                      .dwattr $C$DW$709, DW_AT_data_member_location[DW_OP_plus_uconst 0x58]
    7130                      .dwattr $C$DW$709, DW_AT_accessibility(DW_ACCESS_public)
    7131              $C$DW$710       .dwtag  DW_TAG_member
    7132                      .dwattr $C$DW$710, DW_AT_type(*$C$DW$T$58)
    7133                      .dwattr $C$DW$710, DW_AT_name("svgenHandle")
    7134                      .dwattr $C$DW$710, DW_AT_TI_symbol_name("_svgenHandle")
    7135                      .dwattr $C$DW$710, DW_AT_data_member_location[DW_OP_plus_uconst 0x5c]
    7136                      .dwattr $C$DW$710, DW_AT_accessibility(DW_ACCESS_public)
    7137              $C$DW$711       .dwtag  DW_TAG_member
    7138                      .dwattr $C$DW$711, DW_AT_type(*$C$DW$T$59)
    7139                      .dwattr $C$DW$711, DW_AT_name("svgen")
    7140                      .dwattr $C$DW$711, DW_AT_TI_symbol_name("_svgen")
    7141                      .dwattr $C$DW$711, DW_AT_data_member_location[DW_OP_plus_uconst 0x5e]
    7142                      .dwattr $C$DW$711, DW_AT_accessibility(DW_ACCESS_public)
    7143              $C$DW$712       .dwtag  DW_TAG_member
    7144                      .dwattr $C$DW$712, DW_AT_type(*$C$DW$T$61)
    7145                      .dwattr $C$DW$712, DW_AT_name("trajHandle_Id")
    7146                      .dwattr $C$DW$712, DW_AT_TI_symbol_name("_trajHandle_Id")
    7147                      .dwattr $C$DW$712, DW_AT_data_member_location[DW_OP_plus_uconst 0x60]
    7148                      .dwattr $C$DW$712, DW_AT_accessibility(DW_ACCESS_public)
    7149              $C$DW$713       .dwtag  DW_TAG_member
    7150                      .dwattr $C$DW$713, DW_AT_type(*$C$DW$T$62)
    7151                      .dwattr $C$DW$713, DW_AT_name("traj_Id")
    7152                      .dwattr $C$DW$713, DW_AT_TI_symbol_name("_traj_Id")
    7153                      .dwattr $C$DW$713, DW_AT_data_member_location[DW_OP_plus_uconst 0x62]
    7154                      .dwattr $C$DW$713, DW_AT_accessibility(DW_ACCESS_public)
    7155              $C$DW$714       .dwtag  DW_TAG_member
    7156                      .dwattr $C$DW$714, DW_AT_type(*$C$DW$T$61)
    7157                      .dwattr $C$DW$714, DW_AT_name("trajHandle_spd")
    7158                      .dwattr $C$DW$714, DW_AT_TI_symbol_name("_trajHandle_spd")
    7159                      .dwattr $C$DW$714, DW_AT_data_member_location[DW_OP_plus_uconst 0x6c]
    7160                      .dwattr $C$DW$714, DW_AT_accessibility(DW_ACCESS_public)
    7161              $C$DW$715       .dwtag  DW_TAG_member
    7162                      .dwattr $C$DW$715, DW_AT_type(*$C$DW$T$62)
    7163                      .dwattr $C$DW$715, DW_AT_name("traj_spd")
    7164                      .dwattr $C$DW$715, DW_AT_TI_symbol_name("_traj_spd")
    7165                      .dwattr $C$DW$715, DW_AT_data_member_location[DW_OP_plus_uconst 0x6e]
    7166                      .dwattr $C$DW$715, DW_AT_accessibility(DW_ACCESS_public)
    7167              $C$DW$716       .dwtag  DW_TAG_member
    7168                      .dwattr $C$DW$716, DW_AT_type(*$C$DW$T$61)
    7169                      .dwattr $C$DW$716, DW_AT_name("trajHandle_spdMax")
    7170                      .dwattr $C$DW$716, DW_AT_TI_symbol_name("_trajHandle_spdMax")
    7171                      .dwattr $C$DW$716, DW_AT_data_member_location[DW_OP_plus_uconst 0x78]
    7172                      .dwattr $C$DW$716, DW_AT_accessibility(DW_ACCESS_public)
    7173              $C$DW$717       .dwtag  DW_TAG_member
    7174                      .dwattr $C$DW$717, DW_AT_type(*$C$DW$T$62)
    7175                      .dwattr $C$DW$717, DW_AT_name("traj_spdMax")
    7176                      .dwattr $C$DW$717, DW_AT_TI_symbol_name("_traj_spdMax")
    7177                      .dwattr $C$DW$717, DW_AT_data_member_location[DW_OP_plus_uconst 0x7a]
    7178                      .dwattr $C$DW$717, DW_AT_accessibility(DW_ACCESS_public)
    7179              $C$DW$718       .dwtag  DW_TAG_member
    7180                      .dwattr $C$DW$718, DW_AT_type(*$C$DW$T$63)
    7181                      .dwattr $C$DW$718, DW_AT_name("motorParams")
TMS320C2000 Assembler PC v6.2.5 Tue Jun 27 16:56:14 2017

Tools Copyright (c) 1996-2014 Texas Instruments Incorporated
C:\Users\wmj\AppData\Local\Temp\1139610                              PAGE  138

    7182                      .dwattr $C$DW$718, DW_AT_TI_symbol_name("_motorParams")
    7183                      .dwattr $C$DW$718, DW_AT_data_member_location[DW_OP_plus_uconst 0x84]
    7184                      .dwattr $C$DW$718, DW_AT_accessibility(DW_ACCESS_public)
    7185              $C$DW$719       .dwtag  DW_TAG_member
    7186                      .dwattr $C$DW$719, DW_AT_type(*$C$DW$T$66)
    7187                      .dwattr $C$DW$719, DW_AT_name("waitTimes")
    7188                      .dwattr $C$DW$719, DW_AT_TI_symbol_name("_waitTimes")
    7189                      .dwattr $C$DW$719, DW_AT_data_member_location[DW_OP_plus_uconst 0x92]
    7190                      .dwattr $C$DW$719, DW_AT_accessibility(DW_ACCESS_public)
    7191              $C$DW$720       .dwtag  DW_TAG_member
    7192                      .dwattr $C$DW$720, DW_AT_type(*$C$DW$T$65)
    7193                      .dwattr $C$DW$720, DW_AT_name("counter_state")
    7194                      .dwattr $C$DW$720, DW_AT_TI_symbol_name("_counter_state")
    7195                      .dwattr $C$DW$720, DW_AT_data_member_location[DW_OP_plus_uconst 0x9a]
    7196                      .dwattr $C$DW$720, DW_AT_accessibility(DW_ACCESS_public)
    7197              $C$DW$721       .dwtag  DW_TAG_member
    7198                      .dwattr $C$DW$721, DW_AT_type(*$C$DW$T$67)
    7199                      .dwattr $C$DW$721, DW_AT_name("numIsrTicksPerCtrlTick")
    7200                      .dwattr $C$DW$721, DW_AT_TI_symbol_name("_numIsrTicksPerCtrlTick")
    7201                      .dwattr $C$DW$721, DW_AT_data_member_location[DW_OP_plus_uconst 0x9c]
    7202                      .dwattr $C$DW$721, DW_AT_accessibility(DW_ACCESS_public)
    7203              $C$DW$722       .dwtag  DW_TAG_member
    7204                      .dwattr $C$DW$722, DW_AT_type(*$C$DW$T$67)
    7205                      .dwattr $C$DW$722, DW_AT_name("numCtrlTicksPerCurrentTick")
    7206                      .dwattr $C$DW$722, DW_AT_TI_symbol_name("_numCtrlTicksPerCurrentTick")
    7207                      .dwattr $C$DW$722, DW_AT_data_member_location[DW_OP_plus_uconst 0x9d]
    7208                      .dwattr $C$DW$722, DW_AT_accessibility(DW_ACCESS_public)
    7209              $C$DW$723       .dwtag  DW_TAG_member
    7210                      .dwattr $C$DW$723, DW_AT_type(*$C$DW$T$67)
    7211                      .dwattr $C$DW$723, DW_AT_name("numCtrlTicksPerSpeedTick")
    7212                      .dwattr $C$DW$723, DW_AT_TI_symbol_name("_numCtrlTicksPerSpeedTick")
    7213                      .dwattr $C$DW$723, DW_AT_data_member_location[DW_OP_plus_uconst 0x9e]
    7214                      .dwattr $C$DW$723, DW_AT_accessibility(DW_ACCESS_public)
    7215              $C$DW$724       .dwtag  DW_TAG_member
    7216                      .dwattr $C$DW$724, DW_AT_type(*$C$DW$T$67)
    7217                      .dwattr $C$DW$724, DW_AT_name("numCtrlTicksPerTrajTick")
    7218                      .dwattr $C$DW$724, DW_AT_TI_symbol_name("_numCtrlTicksPerTrajTick")
    7219                      .dwattr $C$DW$724, DW_AT_data_member_location[DW_OP_plus_uconst 0x9f]
    7220                      .dwattr $C$DW$724, DW_AT_accessibility(DW_ACCESS_public)
    7221              $C$DW$725       .dwtag  DW_TAG_member
    7222                      .dwattr $C$DW$725, DW_AT_type(*$C$DW$T$65)
    7223                      .dwattr $C$DW$725, DW_AT_name("ctrlFreq_Hz")
    7224                      .dwattr $C$DW$725, DW_AT_TI_symbol_name("_ctrlFreq_Hz")
    7225                      .dwattr $C$DW$725, DW_AT_data_member_location[DW_OP_plus_uconst 0xa0]
    7226                      .dwattr $C$DW$725, DW_AT_accessibility(DW_ACCESS_public)
    7227              $C$DW$726       .dwtag  DW_TAG_member
    7228                      .dwattr $C$DW$726, DW_AT_type(*$C$DW$T$65)
    7229                      .dwattr $C$DW$726, DW_AT_name("trajFreq_Hz")
    7230                      .dwattr $C$DW$726, DW_AT_TI_symbol_name("_trajFreq_Hz")
    7231                      .dwattr $C$DW$726, DW_AT_data_member_location[DW_OP_plus_uconst 0xa2]
    7232                      .dwattr $C$DW$726, DW_AT_accessibility(DW_ACCESS_public)
    7233              $C$DW$727       .dwtag  DW_TAG_member
    7234                      .dwattr $C$DW$727, DW_AT_type(*$C$DW$T$32)
    7235                      .dwattr $C$DW$727, DW_AT_name("trajPeriod_sec")
    7236                      .dwattr $C$DW$727, DW_AT_TI_symbol_name("_trajPeriod_sec")
TMS320C2000 Assembler PC v6.2.5 Tue Jun 27 16:56:14 2017

Tools Copyright (c) 1996-2014 Texas Instruments Incorporated
C:\Users\wmj\AppData\Local\Temp\1139610                              PAGE  139

    7237                      .dwattr $C$DW$727, DW_AT_data_member_location[DW_OP_plus_uconst 0xa4]
    7238                      .dwattr $C$DW$727, DW_AT_accessibility(DW_ACCESS_public)
    7239              $C$DW$728       .dwtag  DW_TAG_member
    7240                      .dwattr $C$DW$728, DW_AT_type(*$C$DW$T$68)
    7241                      .dwattr $C$DW$728, DW_AT_name("ctrlPeriod_sec")
    7242                      .dwattr $C$DW$728, DW_AT_TI_symbol_name("_ctrlPeriod_sec")
    7243                      .dwattr $C$DW$728, DW_AT_data_member_location[DW_OP_plus_uconst 0xa6]
    7244                      .dwattr $C$DW$728, DW_AT_accessibility(DW_ACCESS_public)
    7245              $C$DW$729       .dwtag  DW_TAG_member
    7246                      .dwattr $C$DW$729, DW_AT_type(*$C$DW$T$32)
    7247                      .dwattr $C$DW$729, DW_AT_name("maxVsMag_pu")
    7248                      .dwattr $C$DW$729, DW_AT_TI_symbol_name("_maxVsMag_pu")
    7249                      .dwattr $C$DW$729, DW_AT_data_member_location[DW_OP_plus_uconst 0xa8]
    7250                      .dwattr $C$DW$729, DW_AT_accessibility(DW_ACCESS_public)
    7251              $C$DW$730       .dwtag  DW_TAG_member
    7252                      .dwattr $C$DW$730, DW_AT_type(*$C$DW$T$69)
    7253                      .dwattr $C$DW$730, DW_AT_name("Iab_in")
    7254                      .dwattr $C$DW$730, DW_AT_TI_symbol_name("_Iab_in")
    7255                      .dwattr $C$DW$730, DW_AT_data_member_location[DW_OP_plus_uconst 0xaa]
    7256                      .dwattr $C$DW$730, DW_AT_accessibility(DW_ACCESS_public)
    7257              $C$DW$731       .dwtag  DW_TAG_member
    7258                      .dwattr $C$DW$731, DW_AT_type(*$C$DW$T$69)
    7259                      .dwattr $C$DW$731, DW_AT_name("Iab_filt")
    7260                      .dwattr $C$DW$731, DW_AT_TI_symbol_name("_Iab_filt")
    7261                      .dwattr $C$DW$731, DW_AT_data_member_location[DW_OP_plus_uconst 0xae]
    7262                      .dwattr $C$DW$731, DW_AT_accessibility(DW_ACCESS_public)
    7263              $C$DW$732       .dwtag  DW_TAG_member
    7264                      .dwattr $C$DW$732, DW_AT_type(*$C$DW$T$69)
    7265                      .dwattr $C$DW$732, DW_AT_name("Idq_in")
    7266                      .dwattr $C$DW$732, DW_AT_TI_symbol_name("_Idq_in")
    7267                      .dwattr $C$DW$732, DW_AT_data_member_location[DW_OP_plus_uconst 0xb2]
    7268                      .dwattr $C$DW$732, DW_AT_accessibility(DW_ACCESS_public)
    7269              $C$DW$733       .dwtag  DW_TAG_member
    7270                      .dwattr $C$DW$733, DW_AT_type(*$C$DW$T$69)
    7271                      .dwattr $C$DW$733, DW_AT_name("Vab_in")
    7272                      .dwattr $C$DW$733, DW_AT_TI_symbol_name("_Vab_in")
    7273                      .dwattr $C$DW$733, DW_AT_data_member_location[DW_OP_plus_uconst 0xb6]
    7274                      .dwattr $C$DW$733, DW_AT_accessibility(DW_ACCESS_public)
    7275              $C$DW$734       .dwtag  DW_TAG_member
    7276                      .dwattr $C$DW$734, DW_AT_type(*$C$DW$T$32)
    7277                      .dwattr $C$DW$734, DW_AT_name("spd_out")
    7278                      .dwattr $C$DW$734, DW_AT_TI_symbol_name("_spd_out")
    7279                      .dwattr $C$DW$734, DW_AT_data_member_location[DW_OP_plus_uconst 0xba]
    7280                      .dwattr $C$DW$734, DW_AT_accessibility(DW_ACCESS_public)
    7281              $C$DW$735       .dwtag  DW_TAG_member
    7282                      .dwattr $C$DW$735, DW_AT_type(*$C$DW$T$69)
    7283                      .dwattr $C$DW$735, DW_AT_name("Vab_out")
    7284                      .dwattr $C$DW$735, DW_AT_TI_symbol_name("_Vab_out")
    7285                      .dwattr $C$DW$735, DW_AT_data_member_location[DW_OP_plus_uconst 0xbc]
    7286                      .dwattr $C$DW$735, DW_AT_accessibility(DW_ACCESS_public)
    7287              $C$DW$736       .dwtag  DW_TAG_member
    7288                      .dwattr $C$DW$736, DW_AT_type(*$C$DW$T$69)
    7289                      .dwattr $C$DW$736, DW_AT_name("Vdq_out")
    7290                      .dwattr $C$DW$736, DW_AT_TI_symbol_name("_Vdq_out")
    7291                      .dwattr $C$DW$736, DW_AT_data_member_location[DW_OP_plus_uconst 0xc0]
TMS320C2000 Assembler PC v6.2.5 Tue Jun 27 16:56:14 2017

Tools Copyright (c) 1996-2014 Texas Instruments Incorporated
C:\Users\wmj\AppData\Local\Temp\1139610                              PAGE  140

    7292                      .dwattr $C$DW$736, DW_AT_accessibility(DW_ACCESS_public)
    7293              $C$DW$737       .dwtag  DW_TAG_member
    7294                      .dwattr $C$DW$737, DW_AT_type(*$C$DW$T$68)
    7295                      .dwattr $C$DW$737, DW_AT_name("Rhf")
    7296                      .dwattr $C$DW$737, DW_AT_TI_symbol_name("_Rhf")
    7297                      .dwattr $C$DW$737, DW_AT_data_member_location[DW_OP_plus_uconst 0xc4]
    7298                      .dwattr $C$DW$737, DW_AT_accessibility(DW_ACCESS_public)
    7299              $C$DW$738       .dwtag  DW_TAG_member
    7300                      .dwattr $C$DW$738, DW_AT_type(*$C$DW$T$68)
    7301                      .dwattr $C$DW$738, DW_AT_name("Lhf")
    7302                      .dwattr $C$DW$738, DW_AT_TI_symbol_name("_Lhf")
    7303                      .dwattr $C$DW$738, DW_AT_data_member_location[DW_OP_plus_uconst 0xc6]
    7304                      .dwattr $C$DW$738, DW_AT_accessibility(DW_ACCESS_public)
    7305              $C$DW$739       .dwtag  DW_TAG_member
    7306                      .dwattr $C$DW$739, DW_AT_type(*$C$DW$T$68)
    7307                      .dwattr $C$DW$739, DW_AT_name("RoverL")
    7308                      .dwattr $C$DW$739, DW_AT_TI_symbol_name("_RoverL")
    7309                      .dwattr $C$DW$739, DW_AT_data_member_location[DW_OP_plus_uconst 0xc8]
    7310                      .dwattr $C$DW$739, DW_AT_accessibility(DW_ACCESS_public)
    7311              $C$DW$740       .dwtag  DW_TAG_member
    7312                      .dwattr $C$DW$740, DW_AT_type(*$C$DW$T$32)
    7313                      .dwattr $C$DW$740, DW_AT_name("Kp_Id")
    7314                      .dwattr $C$DW$740, DW_AT_TI_symbol_name("_Kp_Id")
    7315                      .dwattr $C$DW$740, DW_AT_data_member_location[DW_OP_plus_uconst 0xca]
    7316                      .dwattr $C$DW$740, DW_AT_accessibility(DW_ACCESS_public)
    7317              $C$DW$741       .dwtag  DW_TAG_member
    7318                      .dwattr $C$DW$741, DW_AT_type(*$C$DW$T$32)
    7319                      .dwattr $C$DW$741, DW_AT_name("Kp_Iq")
    7320                      .dwattr $C$DW$741, DW_AT_TI_symbol_name("_Kp_Iq")
    7321                      .dwattr $C$DW$741, DW_AT_data_member_location[DW_OP_plus_uconst 0xcc]
    7322                      .dwattr $C$DW$741, DW_AT_accessibility(DW_ACCESS_public)
    7323              $C$DW$742       .dwtag  DW_TAG_member
    7324                      .dwattr $C$DW$742, DW_AT_type(*$C$DW$T$32)
    7325                      .dwattr $C$DW$742, DW_AT_name("Kp_spd")
    7326                      .dwattr $C$DW$742, DW_AT_TI_symbol_name("_Kp_spd")
    7327                      .dwattr $C$DW$742, DW_AT_data_member_location[DW_OP_plus_uconst 0xce]
    7328                      .dwattr $C$DW$742, DW_AT_accessibility(DW_ACCESS_public)
    7329              $C$DW$743       .dwtag  DW_TAG_member
    7330                      .dwattr $C$DW$743, DW_AT_type(*$C$DW$T$32)
    7331                      .dwattr $C$DW$743, DW_AT_name("Ki_Id")
    7332                      .dwattr $C$DW$743, DW_AT_TI_symbol_name("_Ki_Id")
    7333                      .dwattr $C$DW$743, DW_AT_data_member_location[DW_OP_plus_uconst 0xd0]
    7334                      .dwattr $C$DW$743, DW_AT_accessibility(DW_ACCESS_public)
    7335              $C$DW$744       .dwtag  DW_TAG_member
    7336                      .dwattr $C$DW$744, DW_AT_type(*$C$DW$T$32)
    7337                      .dwattr $C$DW$744, DW_AT_name("Ki_Iq")
    7338                      .dwattr $C$DW$744, DW_AT_TI_symbol_name("_Ki_Iq")
    7339                      .dwattr $C$DW$744, DW_AT_data_member_location[DW_OP_plus_uconst 0xd2]
    7340                      .dwattr $C$DW$744, DW_AT_accessibility(DW_ACCESS_public)
    7341              $C$DW$745       .dwtag  DW_TAG_member
    7342                      .dwattr $C$DW$745, DW_AT_type(*$C$DW$T$32)
    7343                      .dwattr $C$DW$745, DW_AT_name("Ki_spd")
    7344                      .dwattr $C$DW$745, DW_AT_TI_symbol_name("_Ki_spd")
    7345                      .dwattr $C$DW$745, DW_AT_data_member_location[DW_OP_plus_uconst 0xd4]
    7346                      .dwattr $C$DW$745, DW_AT_accessibility(DW_ACCESS_public)
TMS320C2000 Assembler PC v6.2.5 Tue Jun 27 16:56:14 2017

Tools Copyright (c) 1996-2014 Texas Instruments Incorporated
C:\Users\wmj\AppData\Local\Temp\1139610                              PAGE  141

    7347              $C$DW$746       .dwtag  DW_TAG_member
    7348                      .dwattr $C$DW$746, DW_AT_type(*$C$DW$T$32)
    7349                      .dwattr $C$DW$746, DW_AT_name("Kd_Id")
    7350                      .dwattr $C$DW$746, DW_AT_TI_symbol_name("_Kd_Id")
    7351                      .dwattr $C$DW$746, DW_AT_data_member_location[DW_OP_plus_uconst 0xd6]
    7352                      .dwattr $C$DW$746, DW_AT_accessibility(DW_ACCESS_public)
    7353              $C$DW$747       .dwtag  DW_TAG_member
    7354                      .dwattr $C$DW$747, DW_AT_type(*$C$DW$T$32)
    7355                      .dwattr $C$DW$747, DW_AT_name("Kd_Iq")
    7356                      .dwattr $C$DW$747, DW_AT_TI_symbol_name("_Kd_Iq")
    7357                      .dwattr $C$DW$747, DW_AT_data_member_location[DW_OP_plus_uconst 0xd8]
    7358                      .dwattr $C$DW$747, DW_AT_accessibility(DW_ACCESS_public)
    7359              $C$DW$748       .dwtag  DW_TAG_member
    7360                      .dwattr $C$DW$748, DW_AT_type(*$C$DW$T$32)
    7361                      .dwattr $C$DW$748, DW_AT_name("Kd_spd")
    7362                      .dwattr $C$DW$748, DW_AT_TI_symbol_name("_Kd_spd")
    7363                      .dwattr $C$DW$748, DW_AT_data_member_location[DW_OP_plus_uconst 0xda]
    7364                      .dwattr $C$DW$748, DW_AT_accessibility(DW_ACCESS_public)
    7365              $C$DW$749       .dwtag  DW_TAG_member
    7366                      .dwattr $C$DW$749, DW_AT_type(*$C$DW$T$32)
    7367                      .dwattr $C$DW$749, DW_AT_name("Ui_Id")
    7368                      .dwattr $C$DW$749, DW_AT_TI_symbol_name("_Ui_Id")
    7369                      .dwattr $C$DW$749, DW_AT_data_member_location[DW_OP_plus_uconst 0xdc]
    7370                      .dwattr $C$DW$749, DW_AT_accessibility(DW_ACCESS_public)
    7371              $C$DW$750       .dwtag  DW_TAG_member
    7372                      .dwattr $C$DW$750, DW_AT_type(*$C$DW$T$32)
    7373                      .dwattr $C$DW$750, DW_AT_name("Ui_Iq")
    7374                      .dwattr $C$DW$750, DW_AT_TI_symbol_name("_Ui_Iq")
    7375                      .dwattr $C$DW$750, DW_AT_data_member_location[DW_OP_plus_uconst 0xde]
    7376                      .dwattr $C$DW$750, DW_AT_accessibility(DW_ACCESS_public)
    7377              $C$DW$751       .dwtag  DW_TAG_member
    7378                      .dwattr $C$DW$751, DW_AT_type(*$C$DW$T$32)
    7379                      .dwattr $C$DW$751, DW_AT_name("Ui_spd")
    7380                      .dwattr $C$DW$751, DW_AT_TI_symbol_name("_Ui_spd")
    7381                      .dwattr $C$DW$751, DW_AT_data_member_location[DW_OP_plus_uconst 0xe0]
    7382                      .dwattr $C$DW$751, DW_AT_accessibility(DW_ACCESS_public)
    7383              $C$DW$752       .dwtag  DW_TAG_member
    7384                      .dwattr $C$DW$752, DW_AT_type(*$C$DW$T$69)
    7385                      .dwattr $C$DW$752, DW_AT_name("Idq_ref")
    7386                      .dwattr $C$DW$752, DW_AT_TI_symbol_name("_Idq_ref")
    7387                      .dwattr $C$DW$752, DW_AT_data_member_location[DW_OP_plus_uconst 0xe2]
    7388                      .dwattr $C$DW$752, DW_AT_accessibility(DW_ACCESS_public)
    7389              $C$DW$753       .dwtag  DW_TAG_member
    7390                      .dwattr $C$DW$753, DW_AT_type(*$C$DW$T$32)
    7391                      .dwattr $C$DW$753, DW_AT_name("IdRated")
    7392                      .dwattr $C$DW$753, DW_AT_TI_symbol_name("_IdRated")
    7393                      .dwattr $C$DW$753, DW_AT_data_member_location[DW_OP_plus_uconst 0xe6]
    7394                      .dwattr $C$DW$753, DW_AT_accessibility(DW_ACCESS_public)
    7395              $C$DW$754       .dwtag  DW_TAG_member
    7396                      .dwattr $C$DW$754, DW_AT_type(*$C$DW$T$32)
    7397                      .dwattr $C$DW$754, DW_AT_name("spd_ref")
    7398                      .dwattr $C$DW$754, DW_AT_TI_symbol_name("_spd_ref")
    7399                      .dwattr $C$DW$754, DW_AT_data_member_location[DW_OP_plus_uconst 0xe8]
    7400                      .dwattr $C$DW$754, DW_AT_accessibility(DW_ACCESS_public)
    7401              $C$DW$755       .dwtag  DW_TAG_member
TMS320C2000 Assembler PC v6.2.5 Tue Jun 27 16:56:14 2017

Tools Copyright (c) 1996-2014 Texas Instruments Incorporated
C:\Users\wmj\AppData\Local\Temp\1139610                              PAGE  142

    7402                      .dwattr $C$DW$755, DW_AT_type(*$C$DW$T$32)
    7403                      .dwattr $C$DW$755, DW_AT_name("spd_max")
    7404                      .dwattr $C$DW$755, DW_AT_TI_symbol_name("_spd_max")
    7405                      .dwattr $C$DW$755, DW_AT_data_member_location[DW_OP_plus_uconst 0xea]
    7406                      .dwattr $C$DW$755, DW_AT_accessibility(DW_ACCESS_public)
    7407              $C$DW$756       .dwtag  DW_TAG_member
    7408                      .dwattr $C$DW$756, DW_AT_type(*$C$DW$T$67)
    7409                      .dwattr $C$DW$756, DW_AT_name("counter_current")
    7410                      .dwattr $C$DW$756, DW_AT_TI_symbol_name("_counter_current")
    7411                      .dwattr $C$DW$756, DW_AT_data_member_location[DW_OP_plus_uconst 0xec]
    7412                      .dwattr $C$DW$756, DW_AT_accessibility(DW_ACCESS_public)
    7413              $C$DW$757       .dwtag  DW_TAG_member
    7414                      .dwattr $C$DW$757, DW_AT_type(*$C$DW$T$67)
    7415                      .dwattr $C$DW$757, DW_AT_name("counter_isr")
    7416                      .dwattr $C$DW$757, DW_AT_TI_symbol_name("_counter_isr")
    7417                      .dwattr $C$DW$757, DW_AT_data_member_location[DW_OP_plus_uconst 0xed]
    7418                      .dwattr $C$DW$757, DW_AT_accessibility(DW_ACCESS_public)
    7419              $C$DW$758       .dwtag  DW_TAG_member
    7420                      .dwattr $C$DW$758, DW_AT_type(*$C$DW$T$67)
    7421                      .dwattr $C$DW$758, DW_AT_name("counter_speed")
    7422                      .dwattr $C$DW$758, DW_AT_TI_symbol_name("_counter_speed")
    7423                      .dwattr $C$DW$758, DW_AT_data_member_location[DW_OP_plus_uconst 0xee]
    7424                      .dwattr $C$DW$758, DW_AT_accessibility(DW_ACCESS_public)
    7425              $C$DW$759       .dwtag  DW_TAG_member
    7426                      .dwattr $C$DW$759, DW_AT_type(*$C$DW$T$67)
    7427                      .dwattr $C$DW$759, DW_AT_name("counter_traj")
    7428                      .dwattr $C$DW$759, DW_AT_TI_symbol_name("_counter_traj")
    7429                      .dwattr $C$DW$759, DW_AT_data_member_location[DW_OP_plus_uconst 0xef]
    7430                      .dwattr $C$DW$759, DW_AT_accessibility(DW_ACCESS_public)
    7431              $C$DW$760       .dwtag  DW_TAG_member
    7432                      .dwattr $C$DW$760, DW_AT_type(*$C$DW$T$70)
    7433                      .dwattr $C$DW$760, DW_AT_name("flag_enableCtrl")
    7434                      .dwattr $C$DW$760, DW_AT_TI_symbol_name("_flag_enableCtrl")
    7435                      .dwattr $C$DW$760, DW_AT_data_member_location[DW_OP_plus_uconst 0xf0]
    7436                      .dwattr $C$DW$760, DW_AT_accessibility(DW_ACCESS_public)
    7437              $C$DW$761       .dwtag  DW_TAG_member
    7438                      .dwattr $C$DW$761, DW_AT_type(*$C$DW$T$70)
    7439                      .dwattr $C$DW$761, DW_AT_name("flag_enableDcBusComp")
    7440                      .dwattr $C$DW$761, DW_AT_TI_symbol_name("_flag_enableDcBusComp")
    7441                      .dwattr $C$DW$761, DW_AT_data_member_location[DW_OP_plus_uconst 0xf1]
    7442                      .dwattr $C$DW$761, DW_AT_accessibility(DW_ACCESS_public)
    7443              $C$DW$762       .dwtag  DW_TAG_member
    7444                      .dwattr $C$DW$762, DW_AT_type(*$C$DW$T$70)
    7445                      .dwattr $C$DW$762, DW_AT_name("flag_enablePowerWarp")
    7446                      .dwattr $C$DW$762, DW_AT_TI_symbol_name("_flag_enablePowerWarp")
    7447                      .dwattr $C$DW$762, DW_AT_data_member_location[DW_OP_plus_uconst 0xf2]
    7448                      .dwattr $C$DW$762, DW_AT_accessibility(DW_ACCESS_public)
    7449              $C$DW$763       .dwtag  DW_TAG_member
    7450                      .dwattr $C$DW$763, DW_AT_type(*$C$DW$T$70)
    7451                      .dwattr $C$DW$763, DW_AT_name("flag_enableOffset")
    7452                      .dwattr $C$DW$763, DW_AT_TI_symbol_name("_flag_enableOffset")
    7453                      .dwattr $C$DW$763, DW_AT_data_member_location[DW_OP_plus_uconst 0xf3]
    7454                      .dwattr $C$DW$763, DW_AT_accessibility(DW_ACCESS_public)
    7455              $C$DW$764       .dwtag  DW_TAG_member
    7456                      .dwattr $C$DW$764, DW_AT_type(*$C$DW$T$70)
TMS320C2000 Assembler PC v6.2.5 Tue Jun 27 16:56:14 2017

Tools Copyright (c) 1996-2014 Texas Instruments Incorporated
C:\Users\wmj\AppData\Local\Temp\1139610                              PAGE  143

    7457                      .dwattr $C$DW$764, DW_AT_name("flag_enableSpeedCtrl")
    7458                      .dwattr $C$DW$764, DW_AT_TI_symbol_name("_flag_enableSpeedCtrl")
    7459                      .dwattr $C$DW$764, DW_AT_data_member_location[DW_OP_plus_uconst 0xf4]
    7460                      .dwattr $C$DW$764, DW_AT_accessibility(DW_ACCESS_public)
    7461              $C$DW$765       .dwtag  DW_TAG_member
    7462                      .dwattr $C$DW$765, DW_AT_type(*$C$DW$T$70)
    7463                      .dwattr $C$DW$765, DW_AT_name("flag_enableUserMotorParams")
    7464                      .dwattr $C$DW$765, DW_AT_TI_symbol_name("_flag_enableUserMotorParams")
    7465                      .dwattr $C$DW$765, DW_AT_data_member_location[DW_OP_plus_uconst 0xf5]
    7466                      .dwattr $C$DW$765, DW_AT_accessibility(DW_ACCESS_public)
    7467              $C$DW$766       .dwtag  DW_TAG_member
    7468                      .dwattr $C$DW$766, DW_AT_type(*$C$DW$T$69)
    7469                      .dwattr $C$DW$766, DW_AT_name("Idq_offset_pu")
    7470                      .dwattr $C$DW$766, DW_AT_TI_symbol_name("_Idq_offset_pu")
    7471                      .dwattr $C$DW$766, DW_AT_data_member_location[DW_OP_plus_uconst 0xf6]
    7472                      .dwattr $C$DW$766, DW_AT_accessibility(DW_ACCESS_public)
    7473              $C$DW$767       .dwtag  DW_TAG_member
    7474                      .dwattr $C$DW$767, DW_AT_type(*$C$DW$T$69)
    7475                      .dwattr $C$DW$767, DW_AT_name("Vdq_offset_pu")
    7476                      .dwattr $C$DW$767, DW_AT_TI_symbol_name("_Vdq_offset_pu")
    7477                      .dwattr $C$DW$767, DW_AT_data_member_location[DW_OP_plus_uconst 0xfa]
    7478                      .dwattr $C$DW$767, DW_AT_accessibility(DW_ACCESS_public)
    7479              $C$DW$768       .dwtag  DW_TAG_member
    7480                      .dwattr $C$DW$768, DW_AT_type(*$C$DW$T$32)
    7481                      .dwattr $C$DW$768, DW_AT_name("angle_pu")
    7482                      .dwattr $C$DW$768, DW_AT_TI_symbol_name("_angle_pu")
    7483                      .dwattr $C$DW$768, DW_AT_data_member_location[DW_OP_plus_uconst 0xfe]
    7484                      .dwattr $C$DW$768, DW_AT_accessibility(DW_ACCESS_public)
    7485              $C$DW$769       .dwtag  DW_TAG_member
    7486                      .dwattr $C$DW$769, DW_AT_type(*$C$DW$T$32)
    7487                      .dwattr $C$DW$769, DW_AT_name("speed_ref_pu")
    7488                      .dwattr $C$DW$769, DW_AT_TI_symbol_name("_speed_ref_pu")
    7489                      .dwattr $C$DW$769, DW_AT_data_member_location[DW_OP_plus_uconst 0x100]
    7490                      .dwattr $C$DW$769, DW_AT_accessibility(DW_ACCESS_public)
    7491              $C$DW$770       .dwtag  DW_TAG_member
    7492                      .dwattr $C$DW$770, DW_AT_type(*$C$DW$T$32)
    7493                      .dwattr $C$DW$770, DW_AT_name("speed_fb_pu")
    7494                      .dwattr $C$DW$770, DW_AT_TI_symbol_name("_speed_fb_pu")
    7495                      .dwattr $C$DW$770, DW_AT_data_member_location[DW_OP_plus_uconst 0x102]
    7496                      .dwattr $C$DW$770, DW_AT_accessibility(DW_ACCESS_public)
    7497              $C$DW$771       .dwtag  DW_TAG_member
    7498                      .dwattr $C$DW$771, DW_AT_type(*$C$DW$T$32)
    7499                      .dwattr $C$DW$771, DW_AT_name("speed_outMax_pu")
    7500                      .dwattr $C$DW$771, DW_AT_TI_symbol_name("_speed_outMax_pu")
    7501                      .dwattr $C$DW$771, DW_AT_data_member_location[DW_OP_plus_uconst 0x104]
    7502                      .dwattr $C$DW$771, DW_AT_accessibility(DW_ACCESS_public)
    7503              $C$DW$772       .dwtag  DW_TAG_member
    7504                      .dwattr $C$DW$772, DW_AT_type(*$C$DW$T$70)
    7505                      .dwattr $C$DW$772, DW_AT_name("flag_enableCurrentCtrl")
    7506                      .dwattr $C$DW$772, DW_AT_TI_symbol_name("_flag_enableCurrentCtrl")
    7507                      .dwattr $C$DW$772, DW_AT_data_member_location[DW_OP_plus_uconst 0x106]
    7508                      .dwattr $C$DW$772, DW_AT_accessibility(DW_ACCESS_public)
    7509                      .dwendtag $C$DW$T$71
    7510              
    7511              $C$DW$T$174     .dwtag  DW_TAG_typedef, DW_AT_name("CTRL_Obj")
TMS320C2000 Assembler PC v6.2.5 Tue Jun 27 16:56:14 2017

Tools Copyright (c) 1996-2014 Texas Instruments Incorporated
C:\Users\wmj\AppData\Local\Temp\1139610                              PAGE  144

    7512                      .dwattr $C$DW$T$174, DW_AT_type(*$C$DW$T$71)
    7513                      .dwattr $C$DW$T$174, DW_AT_language(DW_LANG_C)
    7514              $C$DW$T$160     .dwtag  DW_TAG_pointer_type
    7515                      .dwattr $C$DW$T$160, DW_AT_type(*$C$DW$T$71)
    7516                      .dwattr $C$DW$T$160, DW_AT_address_class(0x16)
    7517              $C$DW$T$161     .dwtag  DW_TAG_typedef, DW_AT_name("CTRL_Handle")
    7518                      .dwattr $C$DW$T$161, DW_AT_type(*$C$DW$T$160)
    7519                      .dwattr $C$DW$T$161, DW_AT_language(DW_LANG_C)
    7520              $C$DW$773       .dwtag  DW_TAG_TI_far_type
    7521                      .dwattr $C$DW$773, DW_AT_type(*$C$DW$T$161)
    7522              $C$DW$T$175     .dwtag  DW_TAG_const_type
    7523                      .dwattr $C$DW$T$175, DW_AT_type(*$C$DW$773)
    7524              
    7525              $C$DW$T$74      .dwtag  DW_TAG_structure_type
    7526                      .dwattr $C$DW$T$74, DW_AT_name("_CTRL_Version_")
    7527                      .dwattr $C$DW$T$74, DW_AT_byte_size(0x04)
    7528              $C$DW$774       .dwtag  DW_TAG_member
    7529                      .dwattr $C$DW$774, DW_AT_type(*$C$DW$T$23)
    7530                      .dwattr $C$DW$774, DW_AT_name("rsvd")
    7531                      .dwattr $C$DW$774, DW_AT_TI_symbol_name("_rsvd")
    7532                      .dwattr $C$DW$774, DW_AT_data_member_location[DW_OP_plus_uconst 0x0]
    7533                      .dwattr $C$DW$774, DW_AT_accessibility(DW_ACCESS_public)
    7534              $C$DW$775       .dwtag  DW_TAG_member
    7535                      .dwattr $C$DW$775, DW_AT_type(*$C$DW$T$73)
    7536                      .dwattr $C$DW$775, DW_AT_name("targetProc")
    7537                      .dwattr $C$DW$775, DW_AT_TI_symbol_name("_targetProc")
    7538                      .dwattr $C$DW$775, DW_AT_data_member_location[DW_OP_plus_uconst 0x1]
    7539                      .dwattr $C$DW$775, DW_AT_accessibility(DW_ACCESS_public)
    7540              $C$DW$776       .dwtag  DW_TAG_member
    7541                      .dwattr $C$DW$776, DW_AT_type(*$C$DW$T$23)
    7542                      .dwattr $C$DW$776, DW_AT_name("major")
    7543                      .dwattr $C$DW$776, DW_AT_TI_symbol_name("_major")
    7544                      .dwattr $C$DW$776, DW_AT_data_member_location[DW_OP_plus_uconst 0x2]
    7545                      .dwattr $C$DW$776, DW_AT_accessibility(DW_ACCESS_public)
    7546              $C$DW$777       .dwtag  DW_TAG_member
    7547                      .dwattr $C$DW$777, DW_AT_type(*$C$DW$T$23)
    7548                      .dwattr $C$DW$777, DW_AT_name("minor")
    7549                      .dwattr $C$DW$777, DW_AT_TI_symbol_name("_minor")
    7550                      .dwattr $C$DW$777, DW_AT_data_member_location[DW_OP_plus_uconst 0x3]
    7551                      .dwattr $C$DW$777, DW_AT_accessibility(DW_ACCESS_public)
    7552                      .dwendtag $C$DW$T$74
    7553              
    7554              $C$DW$T$38      .dwtag  DW_TAG_typedef, DW_AT_name("CTRL_Version")
    7555                      .dwattr $C$DW$T$38, DW_AT_type(*$C$DW$T$74)
    7556                      .dwattr $C$DW$T$38, DW_AT_language(DW_LANG_C)
    7557              
    7558              $C$DW$T$20      .dwtag  DW_TAG_structure_type
    7559                      .dwattr $C$DW$T$20, DW_AT_name("_EST_Obj_")
    7560                      .dwattr $C$DW$T$20, DW_AT_declaration
    7561                      .dwendtag $C$DW$T$20
    7562              
    7563              $C$DW$T$46      .dwtag  DW_TAG_pointer_type
    7564                      .dwattr $C$DW$T$46, DW_AT_type(*$C$DW$T$20)
    7565                      .dwattr $C$DW$T$46, DW_AT_address_class(0x16)
    7566              $C$DW$T$47      .dwtag  DW_TAG_typedef, DW_AT_name("EST_Handle")
TMS320C2000 Assembler PC v6.2.5 Tue Jun 27 16:56:14 2017

Tools Copyright (c) 1996-2014 Texas Instruments Incorporated
C:\Users\wmj\AppData\Local\Temp\1139610                              PAGE  145

    7567                      .dwattr $C$DW$T$47, DW_AT_type(*$C$DW$T$46)
    7568                      .dwattr $C$DW$T$47, DW_AT_language(DW_LANG_C)
    7569              
    7570              $C$DW$T$75      .dwtag  DW_TAG_structure_type
    7571                      .dwattr $C$DW$T$75, DW_AT_name("_FILTER_FO_")
    7572                      .dwattr $C$DW$T$75, DW_AT_byte_size(0x0a)
    7573              $C$DW$778       .dwtag  DW_TAG_member
    7574                      .dwattr $C$DW$778, DW_AT_type(*$C$DW$T$32)
    7575                      .dwattr $C$DW$778, DW_AT_name("a1")
    7576                      .dwattr $C$DW$778, DW_AT_TI_symbol_name("_a1")
    7577                      .dwattr $C$DW$778, DW_AT_data_member_location[DW_OP_plus_uconst 0x0]
    7578                      .dwattr $C$DW$778, DW_AT_accessibility(DW_ACCESS_public)
    7579              $C$DW$779       .dwtag  DW_TAG_member
    7580                      .dwattr $C$DW$779, DW_AT_type(*$C$DW$T$32)
    7581                      .dwattr $C$DW$779, DW_AT_name("b0")
    7582                      .dwattr $C$DW$779, DW_AT_TI_symbol_name("_b0")
    7583                      .dwattr $C$DW$779, DW_AT_data_member_location[DW_OP_plus_uconst 0x2]
    7584                      .dwattr $C$DW$779, DW_AT_accessibility(DW_ACCESS_public)
    7585              $C$DW$780       .dwtag  DW_TAG_member
    7586                      .dwattr $C$DW$780, DW_AT_type(*$C$DW$T$32)
    7587                      .dwattr $C$DW$780, DW_AT_name("b1")
    7588                      .dwattr $C$DW$780, DW_AT_TI_symbol_name("_b1")
    7589                      .dwattr $C$DW$780, DW_AT_data_member_location[DW_OP_plus_uconst 0x4]
    7590                      .dwattr $C$DW$780, DW_AT_accessibility(DW_ACCESS_public)
    7591              $C$DW$781       .dwtag  DW_TAG_member
    7592                      .dwattr $C$DW$781, DW_AT_type(*$C$DW$T$32)
    7593                      .dwattr $C$DW$781, DW_AT_name("x1")
    7594                      .dwattr $C$DW$781, DW_AT_TI_symbol_name("_x1")
    7595                      .dwattr $C$DW$781, DW_AT_data_member_location[DW_OP_plus_uconst 0x6]
    7596                      .dwattr $C$DW$781, DW_AT_accessibility(DW_ACCESS_public)
    7597              $C$DW$782       .dwtag  DW_TAG_member
    7598                      .dwattr $C$DW$782, DW_AT_type(*$C$DW$T$32)
    7599                      .dwattr $C$DW$782, DW_AT_name("y1")
    7600                      .dwattr $C$DW$782, DW_AT_TI_symbol_name("_y1")
    7601                      .dwattr $C$DW$782, DW_AT_data_member_location[DW_OP_plus_uconst 0x8]
    7602                      .dwattr $C$DW$782, DW_AT_accessibility(DW_ACCESS_public)
    7603                      .dwendtag $C$DW$T$75
    7604              
    7605              $C$DW$T$127     .dwtag  DW_TAG_typedef, DW_AT_name("FILTER_FO_Obj")
    7606                      .dwattr $C$DW$T$127, DW_AT_type(*$C$DW$T$75)
    7607                      .dwattr $C$DW$T$127, DW_AT_language(DW_LANG_C)
    7608              $C$DW$T$177     .dwtag  DW_TAG_pointer_type
    7609                      .dwattr $C$DW$T$177, DW_AT_type(*$C$DW$T$127)
    7610                      .dwattr $C$DW$T$177, DW_AT_address_class(0x16)
    7611              
    7612              $C$DW$T$21      .dwtag  DW_TAG_structure_type
    7613                      .dwattr $C$DW$T$21, DW_AT_name("_FILTER_FO_Obj_")
    7614                      .dwattr $C$DW$T$21, DW_AT_declaration
    7615                      .dwendtag $C$DW$T$21
    7616              
    7617              $C$DW$T$128     .dwtag  DW_TAG_pointer_type
    7618                      .dwattr $C$DW$T$128, DW_AT_type(*$C$DW$T$21)
    7619                      .dwattr $C$DW$T$128, DW_AT_address_class(0x16)
    7620              $C$DW$T$129     .dwtag  DW_TAG_typedef, DW_AT_name("FILTER_FO_Handle")
    7621                      .dwattr $C$DW$T$129, DW_AT_type(*$C$DW$T$128)
TMS320C2000 Assembler PC v6.2.5 Tue Jun 27 16:56:14 2017

Tools Copyright (c) 1996-2014 Texas Instruments Incorporated
C:\Users\wmj\AppData\Local\Temp\1139610                              PAGE  146

    7622                      .dwattr $C$DW$T$129, DW_AT_language(DW_LANG_C)
    7623              
    7624              $C$DW$T$76      .dwtag  DW_TAG_structure_type
    7625                      .dwattr $C$DW$T$76, DW_AT_name("_FLASH_Obj_")
    7626                      .dwattr $C$DW$T$76, DW_AT_byte_size(0x08)
    7627              $C$DW$783       .dwtag  DW_TAG_member
    7628                      .dwattr $C$DW$783, DW_AT_type(*$C$DW$T$24)
    7629                      .dwattr $C$DW$783, DW_AT_name("FOPT")
    7630                      .dwattr $C$DW$783, DW_AT_TI_symbol_name("_FOPT")
    7631                      .dwattr $C$DW$783, DW_AT_data_member_location[DW_OP_plus_uconst 0x0]
    7632                      .dwattr $C$DW$783, DW_AT_accessibility(DW_ACCESS_public)
    7633              $C$DW$784       .dwtag  DW_TAG_member
    7634                      .dwattr $C$DW$784, DW_AT_type(*$C$DW$T$24)
    7635                      .dwattr $C$DW$784, DW_AT_name("rsvd_1")
    7636                      .dwattr $C$DW$784, DW_AT_TI_symbol_name("_rsvd_1")
    7637                      .dwattr $C$DW$784, DW_AT_data_member_location[DW_OP_plus_uconst 0x1]
    7638                      .dwattr $C$DW$784, DW_AT_accessibility(DW_ACCESS_public)
    7639              $C$DW$785       .dwtag  DW_TAG_member
    7640                      .dwattr $C$DW$785, DW_AT_type(*$C$DW$T$24)
    7641                      .dwattr $C$DW$785, DW_AT_name("FPWR")
    7642                      .dwattr $C$DW$785, DW_AT_TI_symbol_name("_FPWR")
    7643                      .dwattr $C$DW$785, DW_AT_data_member_location[DW_OP_plus_uconst 0x2]
    7644                      .dwattr $C$DW$785, DW_AT_accessibility(DW_ACCESS_public)
    7645              $C$DW$786       .dwtag  DW_TAG_member
    7646                      .dwattr $C$DW$786, DW_AT_type(*$C$DW$T$24)
    7647                      .dwattr $C$DW$786, DW_AT_name("FSTATUS")
    7648                      .dwattr $C$DW$786, DW_AT_TI_symbol_name("_FSTATUS")
    7649                      .dwattr $C$DW$786, DW_AT_data_member_location[DW_OP_plus_uconst 0x3]
    7650                      .dwattr $C$DW$786, DW_AT_accessibility(DW_ACCESS_public)
    7651              $C$DW$787       .dwtag  DW_TAG_member
    7652                      .dwattr $C$DW$787, DW_AT_type(*$C$DW$T$24)
    7653                      .dwattr $C$DW$787, DW_AT_name("FSTDBYWAIT")
    7654                      .dwattr $C$DW$787, DW_AT_TI_symbol_name("_FSTDBYWAIT")
    7655                      .dwattr $C$DW$787, DW_AT_data_member_location[DW_OP_plus_uconst 0x4]
    7656                      .dwattr $C$DW$787, DW_AT_accessibility(DW_ACCESS_public)
    7657              $C$DW$788       .dwtag  DW_TAG_member
    7658                      .dwattr $C$DW$788, DW_AT_type(*$C$DW$T$24)
    7659                      .dwattr $C$DW$788, DW_AT_name("FACTIVEWAIT")
    7660                      .dwattr $C$DW$788, DW_AT_TI_symbol_name("_FACTIVEWAIT")
    7661                      .dwattr $C$DW$788, DW_AT_data_member_location[DW_OP_plus_uconst 0x5]
    7662                      .dwattr $C$DW$788, DW_AT_accessibility(DW_ACCESS_public)
    7663              $C$DW$789       .dwtag  DW_TAG_member
    7664                      .dwattr $C$DW$789, DW_AT_type(*$C$DW$T$24)
    7665                      .dwattr $C$DW$789, DW_AT_name("FBANKWAIT")
    7666                      .dwattr $C$DW$789, DW_AT_TI_symbol_name("_FBANKWAIT")
    7667                      .dwattr $C$DW$789, DW_AT_data_member_location[DW_OP_plus_uconst 0x6]
    7668                      .dwattr $C$DW$789, DW_AT_accessibility(DW_ACCESS_public)
    7669              $C$DW$790       .dwtag  DW_TAG_member
    7670                      .dwattr $C$DW$790, DW_AT_type(*$C$DW$T$24)
    7671                      .dwattr $C$DW$790, DW_AT_name("FOTPWAIT")
    7672                      .dwattr $C$DW$790, DW_AT_TI_symbol_name("_FOTPWAIT")
    7673                      .dwattr $C$DW$790, DW_AT_data_member_location[DW_OP_plus_uconst 0x7]
    7674                      .dwattr $C$DW$790, DW_AT_accessibility(DW_ACCESS_public)
    7675                      .dwendtag $C$DW$T$76
    7676              
TMS320C2000 Assembler PC v6.2.5 Tue Jun 27 16:56:14 2017

Tools Copyright (c) 1996-2014 Texas Instruments Incorporated
C:\Users\wmj\AppData\Local\Temp\1139610                              PAGE  147

    7677              $C$DW$T$89      .dwtag  DW_TAG_pointer_type
    7678                      .dwattr $C$DW$T$89, DW_AT_type(*$C$DW$T$76)
    7679                      .dwattr $C$DW$T$89, DW_AT_address_class(0x16)
    7680              $C$DW$T$90      .dwtag  DW_TAG_typedef, DW_AT_name("FLASH_Handle")
    7681                      .dwattr $C$DW$T$90, DW_AT_type(*$C$DW$T$89)
    7682                      .dwattr $C$DW$T$90, DW_AT_language(DW_LANG_C)
    7683              
    7684              $C$DW$T$80      .dwtag  DW_TAG_structure_type
    7685                      .dwattr $C$DW$T$80, DW_AT_name("_GPIO_Obj_")
    7686                      .dwattr $C$DW$T$80, DW_AT_byte_size(0x6a)
    7687              $C$DW$791       .dwtag  DW_TAG_member
    7688                      .dwattr $C$DW$791, DW_AT_type(*$C$DW$T$77)
    7689                      .dwattr $C$DW$791, DW_AT_name("GPACTRL")
    7690                      .dwattr $C$DW$791, DW_AT_TI_symbol_name("_GPACTRL")
    7691                      .dwattr $C$DW$791, DW_AT_data_member_location[DW_OP_plus_uconst 0x0]
    7692                      .dwattr $C$DW$791, DW_AT_accessibility(DW_ACCESS_public)
    7693              $C$DW$792       .dwtag  DW_TAG_member
    7694                      .dwattr $C$DW$792, DW_AT_type(*$C$DW$T$77)
    7695                      .dwattr $C$DW$792, DW_AT_name("GPAQSEL1")
    7696                      .dwattr $C$DW$792, DW_AT_TI_symbol_name("_GPAQSEL1")
    7697                      .dwattr $C$DW$792, DW_AT_data_member_location[DW_OP_plus_uconst 0x2]
    7698                      .dwattr $C$DW$792, DW_AT_accessibility(DW_ACCESS_public)
    7699              $C$DW$793       .dwtag  DW_TAG_member
    7700                      .dwattr $C$DW$793, DW_AT_type(*$C$DW$T$77)
    7701                      .dwattr $C$DW$793, DW_AT_name("GPAQSEL2")
    7702                      .dwattr $C$DW$793, DW_AT_TI_symbol_name("_GPAQSEL2")
    7703                      .dwattr $C$DW$793, DW_AT_data_member_location[DW_OP_plus_uconst 0x4]
    7704                      .dwattr $C$DW$793, DW_AT_accessibility(DW_ACCESS_public)
    7705              $C$DW$794       .dwtag  DW_TAG_member
    7706                      .dwattr $C$DW$794, DW_AT_type(*$C$DW$T$77)
    7707                      .dwattr $C$DW$794, DW_AT_name("GPAMUX1")
    7708                      .dwattr $C$DW$794, DW_AT_TI_symbol_name("_GPAMUX1")
    7709                      .dwattr $C$DW$794, DW_AT_data_member_location[DW_OP_plus_uconst 0x6]
    7710                      .dwattr $C$DW$794, DW_AT_accessibility(DW_ACCESS_public)
    7711              $C$DW$795       .dwtag  DW_TAG_member
    7712                      .dwattr $C$DW$795, DW_AT_type(*$C$DW$T$77)
    7713                      .dwattr $C$DW$795, DW_AT_name("GPAMUX2")
    7714                      .dwattr $C$DW$795, DW_AT_TI_symbol_name("_GPAMUX2")
    7715                      .dwattr $C$DW$795, DW_AT_data_member_location[DW_OP_plus_uconst 0x8]
    7716                      .dwattr $C$DW$795, DW_AT_accessibility(DW_ACCESS_public)
    7717              $C$DW$796       .dwtag  DW_TAG_member
    7718                      .dwattr $C$DW$796, DW_AT_type(*$C$DW$T$77)
    7719                      .dwattr $C$DW$796, DW_AT_name("GPADIR")
    7720                      .dwattr $C$DW$796, DW_AT_TI_symbol_name("_GPADIR")
    7721                      .dwattr $C$DW$796, DW_AT_data_member_location[DW_OP_plus_uconst 0xa]
    7722                      .dwattr $C$DW$796, DW_AT_accessibility(DW_ACCESS_public)
    7723              $C$DW$797       .dwtag  DW_TAG_member
    7724                      .dwattr $C$DW$797, DW_AT_type(*$C$DW$T$77)
    7725                      .dwattr $C$DW$797, DW_AT_name("GPAPUD")
    7726                      .dwattr $C$DW$797, DW_AT_TI_symbol_name("_GPAPUD")
    7727                      .dwattr $C$DW$797, DW_AT_data_member_location[DW_OP_plus_uconst 0xc]
    7728                      .dwattr $C$DW$797, DW_AT_accessibility(DW_ACCESS_public)
    7729              $C$DW$798       .dwtag  DW_TAG_member
    7730                      .dwattr $C$DW$798, DW_AT_type(*$C$DW$T$27)
    7731                      .dwattr $C$DW$798, DW_AT_name("rsvd_1")
TMS320C2000 Assembler PC v6.2.5 Tue Jun 27 16:56:14 2017

Tools Copyright (c) 1996-2014 Texas Instruments Incorporated
C:\Users\wmj\AppData\Local\Temp\1139610                              PAGE  148

    7732                      .dwattr $C$DW$798, DW_AT_TI_symbol_name("_rsvd_1")
    7733                      .dwattr $C$DW$798, DW_AT_data_member_location[DW_OP_plus_uconst 0xe]
    7734                      .dwattr $C$DW$798, DW_AT_accessibility(DW_ACCESS_public)
    7735              $C$DW$799       .dwtag  DW_TAG_member
    7736                      .dwattr $C$DW$799, DW_AT_type(*$C$DW$T$77)
    7737                      .dwattr $C$DW$799, DW_AT_name("GPBCTRL")
    7738                      .dwattr $C$DW$799, DW_AT_TI_symbol_name("_GPBCTRL")
    7739                      .dwattr $C$DW$799, DW_AT_data_member_location[DW_OP_plus_uconst 0x10]
    7740                      .dwattr $C$DW$799, DW_AT_accessibility(DW_ACCESS_public)
    7741              $C$DW$800       .dwtag  DW_TAG_member
    7742                      .dwattr $C$DW$800, DW_AT_type(*$C$DW$T$77)
    7743                      .dwattr $C$DW$800, DW_AT_name("GPBQSEL1")
    7744                      .dwattr $C$DW$800, DW_AT_TI_symbol_name("_GPBQSEL1")
    7745                      .dwattr $C$DW$800, DW_AT_data_member_location[DW_OP_plus_uconst 0x12]
    7746                      .dwattr $C$DW$800, DW_AT_accessibility(DW_ACCESS_public)
    7747              $C$DW$801       .dwtag  DW_TAG_member
    7748                      .dwattr $C$DW$801, DW_AT_type(*$C$DW$T$27)
    7749                      .dwattr $C$DW$801, DW_AT_name("rsvd_2")
    7750                      .dwattr $C$DW$801, DW_AT_TI_symbol_name("_rsvd_2")
    7751                      .dwattr $C$DW$801, DW_AT_data_member_location[DW_OP_plus_uconst 0x14]
    7752                      .dwattr $C$DW$801, DW_AT_accessibility(DW_ACCESS_public)
    7753              $C$DW$802       .dwtag  DW_TAG_member
    7754                      .dwattr $C$DW$802, DW_AT_type(*$C$DW$T$77)
    7755                      .dwattr $C$DW$802, DW_AT_name("GPBMUX1")
    7756                      .dwattr $C$DW$802, DW_AT_TI_symbol_name("_GPBMUX1")
    7757                      .dwattr $C$DW$802, DW_AT_data_member_location[DW_OP_plus_uconst 0x16]
    7758                      .dwattr $C$DW$802, DW_AT_accessibility(DW_ACCESS_public)
    7759              $C$DW$803       .dwtag  DW_TAG_member
    7760                      .dwattr $C$DW$803, DW_AT_type(*$C$DW$T$27)
    7761                      .dwattr $C$DW$803, DW_AT_name("rsvd_3")
    7762                      .dwattr $C$DW$803, DW_AT_TI_symbol_name("_rsvd_3")
    7763                      .dwattr $C$DW$803, DW_AT_data_member_location[DW_OP_plus_uconst 0x18]
    7764                      .dwattr $C$DW$803, DW_AT_accessibility(DW_ACCESS_public)
    7765              $C$DW$804       .dwtag  DW_TAG_member
    7766                      .dwattr $C$DW$804, DW_AT_type(*$C$DW$T$77)
    7767                      .dwattr $C$DW$804, DW_AT_name("GPBDIR")
    7768                      .dwattr $C$DW$804, DW_AT_TI_symbol_name("_GPBDIR")
    7769                      .dwattr $C$DW$804, DW_AT_data_member_location[DW_OP_plus_uconst 0x1a]
    7770                      .dwattr $C$DW$804, DW_AT_accessibility(DW_ACCESS_public)
    7771              $C$DW$805       .dwtag  DW_TAG_member
    7772                      .dwattr $C$DW$805, DW_AT_type(*$C$DW$T$77)
    7773                      .dwattr $C$DW$805, DW_AT_name("GPBPUD")
    7774                      .dwattr $C$DW$805, DW_AT_TI_symbol_name("_GPBPUD")
    7775                      .dwattr $C$DW$805, DW_AT_data_member_location[DW_OP_plus_uconst 0x1c]
    7776                      .dwattr $C$DW$805, DW_AT_accessibility(DW_ACCESS_public)
    7777              $C$DW$806       .dwtag  DW_TAG_member
    7778                      .dwattr $C$DW$806, DW_AT_type(*$C$DW$T$78)
    7779                      .dwattr $C$DW$806, DW_AT_name("rsvd_4")
    7780                      .dwattr $C$DW$806, DW_AT_TI_symbol_name("_rsvd_4")
    7781                      .dwattr $C$DW$806, DW_AT_data_member_location[DW_OP_plus_uconst 0x1e]
    7782                      .dwattr $C$DW$806, DW_AT_accessibility(DW_ACCESS_public)
    7783              $C$DW$807       .dwtag  DW_TAG_member
    7784                      .dwattr $C$DW$807, DW_AT_type(*$C$DW$T$77)
    7785                      .dwattr $C$DW$807, DW_AT_name("AIOMUX1")
    7786                      .dwattr $C$DW$807, DW_AT_TI_symbol_name("_AIOMUX1")
TMS320C2000 Assembler PC v6.2.5 Tue Jun 27 16:56:14 2017

Tools Copyright (c) 1996-2014 Texas Instruments Incorporated
C:\Users\wmj\AppData\Local\Temp\1139610                              PAGE  149

    7787                      .dwattr $C$DW$807, DW_AT_data_member_location[DW_OP_plus_uconst 0x36]
    7788                      .dwattr $C$DW$807, DW_AT_accessibility(DW_ACCESS_public)
    7789              $C$DW$808       .dwtag  DW_TAG_member
    7790                      .dwattr $C$DW$808, DW_AT_type(*$C$DW$T$27)
    7791                      .dwattr $C$DW$808, DW_AT_name("rsvd_5")
    7792                      .dwattr $C$DW$808, DW_AT_TI_symbol_name("_rsvd_5")
    7793                      .dwattr $C$DW$808, DW_AT_data_member_location[DW_OP_plus_uconst 0x38]
    7794                      .dwattr $C$DW$808, DW_AT_accessibility(DW_ACCESS_public)
    7795              $C$DW$809       .dwtag  DW_TAG_member
    7796                      .dwattr $C$DW$809, DW_AT_type(*$C$DW$T$77)
    7797                      .dwattr $C$DW$809, DW_AT_name("AIODIR")
    7798                      .dwattr $C$DW$809, DW_AT_TI_symbol_name("_AIODIR")
    7799                      .dwattr $C$DW$809, DW_AT_data_member_location[DW_OP_plus_uconst 0x3a]
    7800                      .dwattr $C$DW$809, DW_AT_accessibility(DW_ACCESS_public)
    7801              $C$DW$810       .dwtag  DW_TAG_member
    7802                      .dwattr $C$DW$810, DW_AT_type(*$C$DW$T$79)
    7803                      .dwattr $C$DW$810, DW_AT_name("rsvd_6")
    7804                      .dwattr $C$DW$810, DW_AT_TI_symbol_name("_rsvd_6")
    7805                      .dwattr $C$DW$810, DW_AT_data_member_location[DW_OP_plus_uconst 0x3c]
    7806                      .dwattr $C$DW$810, DW_AT_accessibility(DW_ACCESS_public)
    7807              $C$DW$811       .dwtag  DW_TAG_member
    7808                      .dwattr $C$DW$811, DW_AT_type(*$C$DW$T$77)
    7809                      .dwattr $C$DW$811, DW_AT_name("GPADAT")
    7810                      .dwattr $C$DW$811, DW_AT_TI_symbol_name("_GPADAT")
    7811                      .dwattr $C$DW$811, DW_AT_data_member_location[DW_OP_plus_uconst 0x40]
    7812                      .dwattr $C$DW$811, DW_AT_accessibility(DW_ACCESS_public)
    7813              $C$DW$812       .dwtag  DW_TAG_member
    7814                      .dwattr $C$DW$812, DW_AT_type(*$C$DW$T$77)
    7815                      .dwattr $C$DW$812, DW_AT_name("GPASET")
    7816                      .dwattr $C$DW$812, DW_AT_TI_symbol_name("_GPASET")
    7817                      .dwattr $C$DW$812, DW_AT_data_member_location[DW_OP_plus_uconst 0x42]
    7818                      .dwattr $C$DW$812, DW_AT_accessibility(DW_ACCESS_public)
    7819              $C$DW$813       .dwtag  DW_TAG_member
    7820                      .dwattr $C$DW$813, DW_AT_type(*$C$DW$T$77)
    7821                      .dwattr $C$DW$813, DW_AT_name("GPACLEAR")
    7822                      .dwattr $C$DW$813, DW_AT_TI_symbol_name("_GPACLEAR")
    7823                      .dwattr $C$DW$813, DW_AT_data_member_location[DW_OP_plus_uconst 0x44]
    7824                      .dwattr $C$DW$813, DW_AT_accessibility(DW_ACCESS_public)
    7825              $C$DW$814       .dwtag  DW_TAG_member
    7826                      .dwattr $C$DW$814, DW_AT_type(*$C$DW$T$77)
    7827                      .dwattr $C$DW$814, DW_AT_name("GPATOGGLE")
    7828                      .dwattr $C$DW$814, DW_AT_TI_symbol_name("_GPATOGGLE")
    7829                      .dwattr $C$DW$814, DW_AT_data_member_location[DW_OP_plus_uconst 0x46]
    7830                      .dwattr $C$DW$814, DW_AT_accessibility(DW_ACCESS_public)
    7831              $C$DW$815       .dwtag  DW_TAG_member
    7832                      .dwattr $C$DW$815, DW_AT_type(*$C$DW$T$77)
    7833                      .dwattr $C$DW$815, DW_AT_name("GPBDAT")
    7834                      .dwattr $C$DW$815, DW_AT_TI_symbol_name("_GPBDAT")
    7835                      .dwattr $C$DW$815, DW_AT_data_member_location[DW_OP_plus_uconst 0x48]
    7836                      .dwattr $C$DW$815, DW_AT_accessibility(DW_ACCESS_public)
    7837              $C$DW$816       .dwtag  DW_TAG_member
    7838                      .dwattr $C$DW$816, DW_AT_type(*$C$DW$T$77)
    7839                      .dwattr $C$DW$816, DW_AT_name("GPBSET")
    7840                      .dwattr $C$DW$816, DW_AT_TI_symbol_name("_GPBSET")
    7841                      .dwattr $C$DW$816, DW_AT_data_member_location[DW_OP_plus_uconst 0x4a]
TMS320C2000 Assembler PC v6.2.5 Tue Jun 27 16:56:14 2017

Tools Copyright (c) 1996-2014 Texas Instruments Incorporated
C:\Users\wmj\AppData\Local\Temp\1139610                              PAGE  150

    7842                      .dwattr $C$DW$816, DW_AT_accessibility(DW_ACCESS_public)
    7843              $C$DW$817       .dwtag  DW_TAG_member
    7844                      .dwattr $C$DW$817, DW_AT_type(*$C$DW$T$77)
    7845                      .dwattr $C$DW$817, DW_AT_name("GPBCLEAR")
    7846                      .dwattr $C$DW$817, DW_AT_TI_symbol_name("_GPBCLEAR")
    7847                      .dwattr $C$DW$817, DW_AT_data_member_location[DW_OP_plus_uconst 0x4c]
    7848                      .dwattr $C$DW$817, DW_AT_accessibility(DW_ACCESS_public)
    7849              $C$DW$818       .dwtag  DW_TAG_member
    7850                      .dwattr $C$DW$818, DW_AT_type(*$C$DW$T$77)
    7851                      .dwattr $C$DW$818, DW_AT_name("GPBTOGGLE")
    7852                      .dwattr $C$DW$818, DW_AT_TI_symbol_name("_GPBTOGGLE")
    7853                      .dwattr $C$DW$818, DW_AT_data_member_location[DW_OP_plus_uconst 0x4e]
    7854                      .dwattr $C$DW$818, DW_AT_accessibility(DW_ACCESS_public)
    7855              $C$DW$819       .dwtag  DW_TAG_member
    7856                      .dwattr $C$DW$819, DW_AT_type(*$C$DW$T$35)
    7857                      .dwattr $C$DW$819, DW_AT_name("rsvd_7")
    7858                      .dwattr $C$DW$819, DW_AT_TI_symbol_name("_rsvd_7")
    7859                      .dwattr $C$DW$819, DW_AT_data_member_location[DW_OP_plus_uconst 0x50]
    7860                      .dwattr $C$DW$819, DW_AT_accessibility(DW_ACCESS_public)
    7861              $C$DW$820       .dwtag  DW_TAG_member
    7862                      .dwattr $C$DW$820, DW_AT_type(*$C$DW$T$77)
    7863                      .dwattr $C$DW$820, DW_AT_name("AIODAT")
    7864                      .dwattr $C$DW$820, DW_AT_TI_symbol_name("_AIODAT")
    7865                      .dwattr $C$DW$820, DW_AT_data_member_location[DW_OP_plus_uconst 0x58]
    7866                      .dwattr $C$DW$820, DW_AT_accessibility(DW_ACCESS_public)
    7867              $C$DW$821       .dwtag  DW_TAG_member
    7868                      .dwattr $C$DW$821, DW_AT_type(*$C$DW$T$77)
    7869                      .dwattr $C$DW$821, DW_AT_name("AIOSET")
    7870                      .dwattr $C$DW$821, DW_AT_TI_symbol_name("_AIOSET")
    7871                      .dwattr $C$DW$821, DW_AT_data_member_location[DW_OP_plus_uconst 0x5a]
    7872                      .dwattr $C$DW$821, DW_AT_accessibility(DW_ACCESS_public)
    7873              $C$DW$822       .dwtag  DW_TAG_member
    7874                      .dwattr $C$DW$822, DW_AT_type(*$C$DW$T$77)
    7875                      .dwattr $C$DW$822, DW_AT_name("AIOCLEAR")
    7876                      .dwattr $C$DW$822, DW_AT_TI_symbol_name("_AIOCLEAR")
    7877                      .dwattr $C$DW$822, DW_AT_data_member_location[DW_OP_plus_uconst 0x5c]
    7878                      .dwattr $C$DW$822, DW_AT_accessibility(DW_ACCESS_public)
    7879              $C$DW$823       .dwtag  DW_TAG_member
    7880                      .dwattr $C$DW$823, DW_AT_type(*$C$DW$T$77)
    7881                      .dwattr $C$DW$823, DW_AT_name("AIOTOGGLE")
    7882                      .dwattr $C$DW$823, DW_AT_TI_symbol_name("_AIOTOGGLE")
    7883                      .dwattr $C$DW$823, DW_AT_data_member_location[DW_OP_plus_uconst 0x5e]
    7884                      .dwattr $C$DW$823, DW_AT_accessibility(DW_ACCESS_public)
    7885              $C$DW$824       .dwtag  DW_TAG_member
    7886                      .dwattr $C$DW$824, DW_AT_type(*$C$DW$T$29)
    7887                      .dwattr $C$DW$824, DW_AT_name("GPIOXINTnSEL")
    7888                      .dwattr $C$DW$824, DW_AT_TI_symbol_name("_GPIOXINTnSEL")
    7889                      .dwattr $C$DW$824, DW_AT_data_member_location[DW_OP_plus_uconst 0x60]
    7890                      .dwattr $C$DW$824, DW_AT_accessibility(DW_ACCESS_public)
    7891              $C$DW$825       .dwtag  DW_TAG_member
    7892                      .dwattr $C$DW$825, DW_AT_type(*$C$DW$T$28)
    7893                      .dwattr $C$DW$825, DW_AT_name("rsvd_8")
    7894                      .dwattr $C$DW$825, DW_AT_TI_symbol_name("_rsvd_8")
    7895                      .dwattr $C$DW$825, DW_AT_data_member_location[DW_OP_plus_uconst 0x63]
    7896                      .dwattr $C$DW$825, DW_AT_accessibility(DW_ACCESS_public)
TMS320C2000 Assembler PC v6.2.5 Tue Jun 27 16:56:14 2017

Tools Copyright (c) 1996-2014 Texas Instruments Incorporated
C:\Users\wmj\AppData\Local\Temp\1139610                              PAGE  151

    7897              $C$DW$826       .dwtag  DW_TAG_member
    7898                      .dwattr $C$DW$826, DW_AT_type(*$C$DW$T$77)
    7899                      .dwattr $C$DW$826, DW_AT_name("GPIOLPMSEL")
    7900                      .dwattr $C$DW$826, DW_AT_TI_symbol_name("_GPIOLPMSEL")
    7901                      .dwattr $C$DW$826, DW_AT_data_member_location[DW_OP_plus_uconst 0x68]
    7902                      .dwattr $C$DW$826, DW_AT_accessibility(DW_ACCESS_public)
    7903                      .dwendtag $C$DW$T$80
    7904              
    7905              $C$DW$T$91      .dwtag  DW_TAG_pointer_type
    7906                      .dwattr $C$DW$T$91, DW_AT_type(*$C$DW$T$80)
    7907                      .dwattr $C$DW$T$91, DW_AT_address_class(0x16)
    7908              $C$DW$T$92      .dwtag  DW_TAG_typedef, DW_AT_name("GPIO_Handle")
    7909                      .dwattr $C$DW$T$92, DW_AT_type(*$C$DW$T$91)
    7910                      .dwattr $C$DW$T$92, DW_AT_language(DW_LANG_C)
    7911              
    7912              $C$DW$T$82      .dwtag  DW_TAG_structure_type
    7913                      .dwattr $C$DW$T$82, DW_AT_name("_HAL_AdcData_t_")
    7914                      .dwattr $C$DW$T$82, DW_AT_byte_size(0x0e)
    7915              $C$DW$827       .dwtag  DW_TAG_member
    7916                      .dwattr $C$DW$827, DW_AT_type(*$C$DW$T$81)
    7917                      .dwattr $C$DW$827, DW_AT_name("I")
    7918                      .dwattr $C$DW$827, DW_AT_TI_symbol_name("_I")
    7919                      .dwattr $C$DW$827, DW_AT_data_member_location[DW_OP_plus_uconst 0x0]
    7920                      .dwattr $C$DW$827, DW_AT_accessibility(DW_ACCESS_public)
    7921              $C$DW$828       .dwtag  DW_TAG_member
    7922                      .dwattr $C$DW$828, DW_AT_type(*$C$DW$T$81)
    7923                      .dwattr $C$DW$828, DW_AT_name("V")
    7924                      .dwattr $C$DW$828, DW_AT_TI_symbol_name("_V")
    7925                      .dwattr $C$DW$828, DW_AT_data_member_location[DW_OP_plus_uconst 0x6]
    7926                      .dwattr $C$DW$828, DW_AT_accessibility(DW_ACCESS_public)
    7927              $C$DW$829       .dwtag  DW_TAG_member
    7928                      .dwattr $C$DW$829, DW_AT_type(*$C$DW$T$32)
    7929                      .dwattr $C$DW$829, DW_AT_name("dcBus")
    7930                      .dwattr $C$DW$829, DW_AT_TI_symbol_name("_dcBus")
    7931                      .dwattr $C$DW$829, DW_AT_data_member_location[DW_OP_plus_uconst 0xc]
    7932                      .dwattr $C$DW$829, DW_AT_accessibility(DW_ACCESS_public)
    7933                      .dwendtag $C$DW$T$82
    7934              
    7935              $C$DW$T$116     .dwtag  DW_TAG_typedef, DW_AT_name("HAL_AdcData_t")
    7936                      .dwattr $C$DW$T$116, DW_AT_type(*$C$DW$T$82)
    7937                      .dwattr $C$DW$T$116, DW_AT_language(DW_LANG_C)
    7938              $C$DW$830       .dwtag  DW_TAG_TI_far_type
    7939                      .dwattr $C$DW$830, DW_AT_type(*$C$DW$T$116)
    7940              $C$DW$T$179     .dwtag  DW_TAG_const_type
    7941                      .dwattr $C$DW$T$179, DW_AT_type(*$C$DW$830)
    7942              $C$DW$T$180     .dwtag  DW_TAG_pointer_type
    7943                      .dwattr $C$DW$T$180, DW_AT_type(*$C$DW$T$179)
    7944                      .dwattr $C$DW$T$180, DW_AT_address_class(0x16)
    7945              $C$DW$831       .dwtag  DW_TAG_TI_far_type
    7946                      .dwattr $C$DW$831, DW_AT_type(*$C$DW$T$180)
    7947              $C$DW$T$181     .dwtag  DW_TAG_const_type
    7948                      .dwattr $C$DW$T$181, DW_AT_type(*$C$DW$831)
    7949              
    7950              $C$DW$T$117     .dwtag  DW_TAG_structure_type
    7951                      .dwattr $C$DW$T$117, DW_AT_name("_HAL_Obj_")
TMS320C2000 Assembler PC v6.2.5 Tue Jun 27 16:56:14 2017

Tools Copyright (c) 1996-2014 Texas Instruments Incorporated
C:\Users\wmj\AppData\Local\Temp\1139610                              PAGE  152

    7952                      .dwattr $C$DW$T$117, DW_AT_byte_size(0xa8)
    7953              $C$DW$832       .dwtag  DW_TAG_member
    7954                      .dwattr $C$DW$832, DW_AT_type(*$C$DW$T$84)
    7955                      .dwattr $C$DW$832, DW_AT_name("adcHandle")
    7956                      .dwattr $C$DW$832, DW_AT_TI_symbol_name("_adcHandle")
    7957                      .dwattr $C$DW$832, DW_AT_data_member_location[DW_OP_plus_uconst 0x0]
    7958                      .dwattr $C$DW$832, DW_AT_accessibility(DW_ACCESS_public)
    7959              $C$DW$833       .dwtag  DW_TAG_member
    7960                      .dwattr $C$DW$833, DW_AT_type(*$C$DW$T$86)
    7961                      .dwattr $C$DW$833, DW_AT_name("clkHandle")
    7962                      .dwattr $C$DW$833, DW_AT_TI_symbol_name("_clkHandle")
    7963                      .dwattr $C$DW$833, DW_AT_data_member_location[DW_OP_plus_uconst 0x2]
    7964                      .dwattr $C$DW$833, DW_AT_accessibility(DW_ACCESS_public)
    7965              $C$DW$834       .dwtag  DW_TAG_member
    7966                      .dwattr $C$DW$834, DW_AT_type(*$C$DW$T$88)
    7967                      .dwattr $C$DW$834, DW_AT_name("cpuHandle")
    7968                      .dwattr $C$DW$834, DW_AT_TI_symbol_name("_cpuHandle")
    7969                      .dwattr $C$DW$834, DW_AT_data_member_location[DW_OP_plus_uconst 0x4]
    7970                      .dwattr $C$DW$834, DW_AT_accessibility(DW_ACCESS_public)
    7971              $C$DW$835       .dwtag  DW_TAG_member
    7972                      .dwattr $C$DW$835, DW_AT_type(*$C$DW$T$90)
    7973                      .dwattr $C$DW$835, DW_AT_name("flashHandle")
    7974                      .dwattr $C$DW$835, DW_AT_TI_symbol_name("_flashHandle")
    7975                      .dwattr $C$DW$835, DW_AT_data_member_location[DW_OP_plus_uconst 0x6]
    7976                      .dwattr $C$DW$835, DW_AT_accessibility(DW_ACCESS_public)
    7977              $C$DW$836       .dwtag  DW_TAG_member
    7978                      .dwattr $C$DW$836, DW_AT_type(*$C$DW$T$92)
    7979                      .dwattr $C$DW$836, DW_AT_name("gpioHandle")
    7980                      .dwattr $C$DW$836, DW_AT_TI_symbol_name("_gpioHandle")
    7981                      .dwattr $C$DW$836, DW_AT_data_member_location[DW_OP_plus_uconst 0x8]
    7982                      .dwattr $C$DW$836, DW_AT_accessibility(DW_ACCESS_public)
    7983              $C$DW$837       .dwtag  DW_TAG_member
    7984                      .dwattr $C$DW$837, DW_AT_type(*$C$DW$T$95)
    7985                      .dwattr $C$DW$837, DW_AT_name("offsetHandle_I")
    7986                      .dwattr $C$DW$837, DW_AT_TI_symbol_name("_offsetHandle_I")
    7987                      .dwattr $C$DW$837, DW_AT_data_member_location[DW_OP_plus_uconst 0xa]
    7988                      .dwattr $C$DW$837, DW_AT_accessibility(DW_ACCESS_public)
    7989              $C$DW$838       .dwtag  DW_TAG_member
    7990                      .dwattr $C$DW$838, DW_AT_type(*$C$DW$T$97)
    7991                      .dwattr $C$DW$838, DW_AT_name("offset_I")
    7992                      .dwattr $C$DW$838, DW_AT_TI_symbol_name("_offset_I")
    7993                      .dwattr $C$DW$838, DW_AT_data_member_location[DW_OP_plus_uconst 0x10]
    7994                      .dwattr $C$DW$838, DW_AT_accessibility(DW_ACCESS_public)
    7995              $C$DW$839       .dwtag  DW_TAG_member
    7996                      .dwattr $C$DW$839, DW_AT_type(*$C$DW$T$95)
    7997                      .dwattr $C$DW$839, DW_AT_name("offsetHandle_V")
    7998                      .dwattr $C$DW$839, DW_AT_TI_symbol_name("_offsetHandle_V")
    7999                      .dwattr $C$DW$839, DW_AT_data_member_location[DW_OP_plus_uconst 0x40]
    8000                      .dwattr $C$DW$839, DW_AT_accessibility(DW_ACCESS_public)
    8001              $C$DW$840       .dwtag  DW_TAG_member
    8002                      .dwattr $C$DW$840, DW_AT_type(*$C$DW$T$97)
    8003                      .dwattr $C$DW$840, DW_AT_name("offset_V")
    8004                      .dwattr $C$DW$840, DW_AT_TI_symbol_name("_offset_V")
    8005                      .dwattr $C$DW$840, DW_AT_data_member_location[DW_OP_plus_uconst 0x46]
    8006                      .dwattr $C$DW$840, DW_AT_accessibility(DW_ACCESS_public)
TMS320C2000 Assembler PC v6.2.5 Tue Jun 27 16:56:14 2017

Tools Copyright (c) 1996-2014 Texas Instruments Incorporated
C:\Users\wmj\AppData\Local\Temp\1139610                              PAGE  153

    8007              $C$DW$841       .dwtag  DW_TAG_member
    8008                      .dwattr $C$DW$841, DW_AT_type(*$C$DW$T$99)
    8009                      .dwattr $C$DW$841, DW_AT_name("oscHandle")
    8010                      .dwattr $C$DW$841, DW_AT_TI_symbol_name("_oscHandle")
    8011                      .dwattr $C$DW$841, DW_AT_data_member_location[DW_OP_plus_uconst 0x76]
    8012                      .dwattr $C$DW$841, DW_AT_accessibility(DW_ACCESS_public)
    8013              $C$DW$842       .dwtag  DW_TAG_member
    8014                      .dwattr $C$DW$842, DW_AT_type(*$C$DW$T$101)
    8015                      .dwattr $C$DW$842, DW_AT_name("pieHandle")
    8016                      .dwattr $C$DW$842, DW_AT_TI_symbol_name("_pieHandle")
    8017                      .dwattr $C$DW$842, DW_AT_data_member_location[DW_OP_plus_uconst 0x78]
    8018                      .dwattr $C$DW$842, DW_AT_accessibility(DW_ACCESS_public)
    8019              $C$DW$843       .dwtag  DW_TAG_member
    8020                      .dwattr $C$DW$843, DW_AT_type(*$C$DW$T$103)
    8021                      .dwattr $C$DW$843, DW_AT_name("pllHandle")
    8022                      .dwattr $C$DW$843, DW_AT_TI_symbol_name("_pllHandle")
    8023                      .dwattr $C$DW$843, DW_AT_data_member_location[DW_OP_plus_uconst 0x7a]
    8024                      .dwattr $C$DW$843, DW_AT_accessibility(DW_ACCESS_public)
    8025              $C$DW$844       .dwtag  DW_TAG_member
    8026                      .dwattr $C$DW$844, DW_AT_type(*$C$DW$T$106)
    8027                      .dwattr $C$DW$844, DW_AT_name("pwmHandle")
    8028                      .dwattr $C$DW$844, DW_AT_TI_symbol_name("_pwmHandle")
    8029                      .dwattr $C$DW$844, DW_AT_data_member_location[DW_OP_plus_uconst 0x7c]
    8030                      .dwattr $C$DW$844, DW_AT_accessibility(DW_ACCESS_public)
    8031              $C$DW$845       .dwtag  DW_TAG_member
    8032                      .dwattr $C$DW$845, DW_AT_type(*$C$DW$T$106)
    8033                      .dwattr $C$DW$845, DW_AT_name("pwmDacHandle")
    8034                      .dwattr $C$DW$845, DW_AT_TI_symbol_name("_pwmDacHandle")
    8035                      .dwattr $C$DW$845, DW_AT_data_member_location[DW_OP_plus_uconst 0x82]
    8036                      .dwattr $C$DW$845, DW_AT_accessibility(DW_ACCESS_public)
    8037              $C$DW$846       .dwtag  DW_TAG_member
    8038                      .dwattr $C$DW$846, DW_AT_type(*$C$DW$T$108)
    8039                      .dwattr $C$DW$846, DW_AT_name("pwrHandle")
    8040                      .dwattr $C$DW$846, DW_AT_TI_symbol_name("_pwrHandle")
    8041                      .dwattr $C$DW$846, DW_AT_data_member_location[DW_OP_plus_uconst 0x88]
    8042                      .dwattr $C$DW$846, DW_AT_accessibility(DW_ACCESS_public)
    8043              $C$DW$847       .dwtag  DW_TAG_member
    8044                      .dwattr $C$DW$847, DW_AT_type(*$C$DW$T$111)
    8045                      .dwattr $C$DW$847, DW_AT_name("timerHandle")
    8046                      .dwattr $C$DW$847, DW_AT_TI_symbol_name("_timerHandle")
    8047                      .dwattr $C$DW$847, DW_AT_data_member_location[DW_OP_plus_uconst 0x8a]
    8048                      .dwattr $C$DW$847, DW_AT_accessibility(DW_ACCESS_public)
    8049              $C$DW$848       .dwtag  DW_TAG_member
    8050                      .dwattr $C$DW$848, DW_AT_type(*$C$DW$T$113)
    8051                      .dwattr $C$DW$848, DW_AT_name("i2cHandle")
    8052                      .dwattr $C$DW$848, DW_AT_TI_symbol_name("_i2cHandle")
    8053                      .dwattr $C$DW$848, DW_AT_data_member_location[DW_OP_plus_uconst 0x90]
    8054                      .dwattr $C$DW$848, DW_AT_accessibility(DW_ACCESS_public)
    8055              $C$DW$849       .dwtag  DW_TAG_member
    8056                      .dwattr $C$DW$849, DW_AT_type(*$C$DW$T$115)
    8057                      .dwattr $C$DW$849, DW_AT_name("wdogHandle")
    8058                      .dwattr $C$DW$849, DW_AT_TI_symbol_name("_wdogHandle")
    8059                      .dwattr $C$DW$849, DW_AT_data_member_location[DW_OP_plus_uconst 0x92]
    8060                      .dwattr $C$DW$849, DW_AT_accessibility(DW_ACCESS_public)
    8061              $C$DW$850       .dwtag  DW_TAG_member
TMS320C2000 Assembler PC v6.2.5 Tue Jun 27 16:56:14 2017

Tools Copyright (c) 1996-2014 Texas Instruments Incorporated
C:\Users\wmj\AppData\Local\Temp\1139610                              PAGE  154

    8062                      .dwattr $C$DW$850, DW_AT_type(*$C$DW$T$116)
    8063                      .dwattr $C$DW$850, DW_AT_name("adcBias")
    8064                      .dwattr $C$DW$850, DW_AT_TI_symbol_name("_adcBias")
    8065                      .dwattr $C$DW$850, DW_AT_data_member_location[DW_OP_plus_uconst 0x94]
    8066                      .dwattr $C$DW$850, DW_AT_accessibility(DW_ACCESS_public)
    8067              $C$DW$851       .dwtag  DW_TAG_member
    8068                      .dwattr $C$DW$851, DW_AT_type(*$C$DW$T$32)
    8069                      .dwattr $C$DW$851, DW_AT_name("current_sf")
    8070                      .dwattr $C$DW$851, DW_AT_TI_symbol_name("_current_sf")
    8071                      .dwattr $C$DW$851, DW_AT_data_member_location[DW_OP_plus_uconst 0xa2]
    8072                      .dwattr $C$DW$851, DW_AT_accessibility(DW_ACCESS_public)
    8073              $C$DW$852       .dwtag  DW_TAG_member
    8074                      .dwattr $C$DW$852, DW_AT_type(*$C$DW$T$32)
    8075                      .dwattr $C$DW$852, DW_AT_name("voltage_sf")
    8076                      .dwattr $C$DW$852, DW_AT_TI_symbol_name("_voltage_sf")
    8077                      .dwattr $C$DW$852, DW_AT_data_member_location[DW_OP_plus_uconst 0xa4]
    8078                      .dwattr $C$DW$852, DW_AT_accessibility(DW_ACCESS_public)
    8079              $C$DW$853       .dwtag  DW_TAG_member
    8080                      .dwattr $C$DW$853, DW_AT_type(*$C$DW$T$33)
    8081                      .dwattr $C$DW$853, DW_AT_name("numCurrentSensors")
    8082                      .dwattr $C$DW$853, DW_AT_TI_symbol_name("_numCurrentSensors")
    8083                      .dwattr $C$DW$853, DW_AT_data_member_location[DW_OP_plus_uconst 0xa6]
    8084                      .dwattr $C$DW$853, DW_AT_accessibility(DW_ACCESS_public)
    8085              $C$DW$854       .dwtag  DW_TAG_member
    8086                      .dwattr $C$DW$854, DW_AT_type(*$C$DW$T$33)
    8087                      .dwattr $C$DW$854, DW_AT_name("numVoltageSensors")
    8088                      .dwattr $C$DW$854, DW_AT_TI_symbol_name("_numVoltageSensors")
    8089                      .dwattr $C$DW$854, DW_AT_data_member_location[DW_OP_plus_uconst 0xa7]
    8090                      .dwattr $C$DW$854, DW_AT_accessibility(DW_ACCESS_public)
    8091                      .dwendtag $C$DW$T$117
    8092              
    8093              $C$DW$T$186     .dwtag  DW_TAG_typedef, DW_AT_name("HAL_Obj")
    8094                      .dwattr $C$DW$T$186, DW_AT_type(*$C$DW$T$117)
    8095                      .dwattr $C$DW$T$186, DW_AT_language(DW_LANG_C)
    8096              $C$DW$T$187     .dwtag  DW_TAG_pointer_type
    8097                      .dwattr $C$DW$T$187, DW_AT_type(*$C$DW$T$117)
    8098                      .dwattr $C$DW$T$187, DW_AT_address_class(0x16)
    8099              $C$DW$T$188     .dwtag  DW_TAG_typedef, DW_AT_name("HAL_Handle")
    8100                      .dwattr $C$DW$T$188, DW_AT_type(*$C$DW$T$187)
    8101                      .dwattr $C$DW$T$188, DW_AT_language(DW_LANG_C)
    8102              $C$DW$855       .dwtag  DW_TAG_TI_far_type
    8103                      .dwattr $C$DW$855, DW_AT_type(*$C$DW$T$188)
    8104              $C$DW$T$189     .dwtag  DW_TAG_const_type
    8105                      .dwattr $C$DW$T$189, DW_AT_type(*$C$DW$855)
    8106              
    8107              $C$DW$T$118     .dwtag  DW_TAG_structure_type
    8108                      .dwattr $C$DW$T$118, DW_AT_name("_HAL_PwmData_t_")
    8109                      .dwattr $C$DW$T$118, DW_AT_byte_size(0x06)
    8110              $C$DW$856       .dwtag  DW_TAG_member
    8111                      .dwattr $C$DW$856, DW_AT_type(*$C$DW$T$81)
    8112                      .dwattr $C$DW$856, DW_AT_name("Tabc")
    8113                      .dwattr $C$DW$856, DW_AT_TI_symbol_name("_Tabc")
    8114                      .dwattr $C$DW$856, DW_AT_data_member_location[DW_OP_plus_uconst 0x0]
    8115                      .dwattr $C$DW$856, DW_AT_accessibility(DW_ACCESS_public)
    8116                      .dwendtag $C$DW$T$118
TMS320C2000 Assembler PC v6.2.5 Tue Jun 27 16:56:14 2017

Tools Copyright (c) 1996-2014 Texas Instruments Incorporated
C:\Users\wmj\AppData\Local\Temp\1139610                              PAGE  155

    8117              
    8118              $C$DW$T$191     .dwtag  DW_TAG_typedef, DW_AT_name("HAL_PwmData_t")
    8119                      .dwattr $C$DW$T$191, DW_AT_type(*$C$DW$T$118)
    8120                      .dwattr $C$DW$T$191, DW_AT_language(DW_LANG_C)
    8121              $C$DW$T$192     .dwtag  DW_TAG_pointer_type
    8122                      .dwattr $C$DW$T$192, DW_AT_type(*$C$DW$T$191)
    8123                      .dwattr $C$DW$T$192, DW_AT_address_class(0x16)
    8124              $C$DW$857       .dwtag  DW_TAG_TI_far_type
    8125                      .dwattr $C$DW$857, DW_AT_type(*$C$DW$T$192)
    8126              $C$DW$T$193     .dwtag  DW_TAG_const_type
    8127                      .dwattr $C$DW$T$193, DW_AT_type(*$C$DW$857)
    8128              
    8129              $C$DW$T$119     .dwtag  DW_TAG_structure_type
    8130                      .dwattr $C$DW$T$119, DW_AT_name("_IPARK_Obj_")
    8131                      .dwattr $C$DW$T$119, DW_AT_byte_size(0x04)
    8132              $C$DW$858       .dwtag  DW_TAG_member
    8133                      .dwattr $C$DW$858, DW_AT_type(*$C$DW$T$32)
    8134                      .dwattr $C$DW$858, DW_AT_name("sinTh")
    8135                      .dwattr $C$DW$858, DW_AT_TI_symbol_name("_sinTh")
    8136                      .dwattr $C$DW$858, DW_AT_data_member_location[DW_OP_plus_uconst 0x0]
    8137                      .dwattr $C$DW$858, DW_AT_accessibility(DW_ACCESS_public)
    8138              $C$DW$859       .dwtag  DW_TAG_member
    8139                      .dwattr $C$DW$859, DW_AT_type(*$C$DW$T$32)
    8140                      .dwattr $C$DW$859, DW_AT_name("cosTh")
    8141                      .dwattr $C$DW$859, DW_AT_TI_symbol_name("_cosTh")
    8142                      .dwattr $C$DW$859, DW_AT_data_member_location[DW_OP_plus_uconst 0x2]
    8143                      .dwattr $C$DW$859, DW_AT_accessibility(DW_ACCESS_public)
    8144                      .dwendtag $C$DW$T$119
    8145              
    8146              $C$DW$T$56      .dwtag  DW_TAG_typedef, DW_AT_name("IPARK_Obj")
    8147                      .dwattr $C$DW$T$56, DW_AT_type(*$C$DW$T$119)
    8148                      .dwattr $C$DW$T$56, DW_AT_language(DW_LANG_C)
    8149              $C$DW$T$196     .dwtag  DW_TAG_pointer_type
    8150                      .dwattr $C$DW$T$196, DW_AT_type(*$C$DW$T$56)
    8151                      .dwattr $C$DW$T$196, DW_AT_address_class(0x16)
    8152              $C$DW$T$54      .dwtag  DW_TAG_pointer_type
    8153                      .dwattr $C$DW$T$54, DW_AT_type(*$C$DW$T$119)
    8154                      .dwattr $C$DW$T$54, DW_AT_address_class(0x16)
    8155              $C$DW$T$55      .dwtag  DW_TAG_typedef, DW_AT_name("IPARK_Handle")
    8156                      .dwattr $C$DW$T$55, DW_AT_type(*$C$DW$T$54)
    8157                      .dwattr $C$DW$T$55, DW_AT_language(DW_LANG_C)
    8158              
    8159              $C$DW$T$121     .dwtag  DW_TAG_structure_type
    8160                      .dwattr $C$DW$T$121, DW_AT_name("_MATH_vec2_")
    8161                      .dwattr $C$DW$T$121, DW_AT_byte_size(0x04)
    8162              $C$DW$860       .dwtag  DW_TAG_member
    8163                      .dwattr $C$DW$860, DW_AT_type(*$C$DW$T$120)
    8164                      .dwattr $C$DW$860, DW_AT_name("value")
    8165                      .dwattr $C$DW$860, DW_AT_TI_symbol_name("_value")
    8166                      .dwattr $C$DW$860, DW_AT_data_member_location[DW_OP_plus_uconst 0x0]
    8167                      .dwattr $C$DW$860, DW_AT_accessibility(DW_ACCESS_public)
    8168                      .dwendtag $C$DW$T$121
    8169              
    8170              $C$DW$T$69      .dwtag  DW_TAG_typedef, DW_AT_name("MATH_vec2")
    8171                      .dwattr $C$DW$T$69, DW_AT_type(*$C$DW$T$121)
TMS320C2000 Assembler PC v6.2.5 Tue Jun 27 16:56:14 2017

Tools Copyright (c) 1996-2014 Texas Instruments Incorporated
C:\Users\wmj\AppData\Local\Temp\1139610                              PAGE  156

    8172                      .dwattr $C$DW$T$69, DW_AT_language(DW_LANG_C)
    8173              $C$DW$861       .dwtag  DW_TAG_TI_far_type
    8174                      .dwattr $C$DW$861, DW_AT_type(*$C$DW$T$69)
    8175              $C$DW$T$197     .dwtag  DW_TAG_const_type
    8176                      .dwattr $C$DW$T$197, DW_AT_type(*$C$DW$861)
    8177              $C$DW$T$198     .dwtag  DW_TAG_pointer_type
    8178                      .dwattr $C$DW$T$198, DW_AT_type(*$C$DW$T$197)
    8179                      .dwattr $C$DW$T$198, DW_AT_address_class(0x16)
    8180              $C$DW$862       .dwtag  DW_TAG_TI_far_type
    8181                      .dwattr $C$DW$862, DW_AT_type(*$C$DW$T$198)
    8182              $C$DW$T$199     .dwtag  DW_TAG_const_type
    8183                      .dwattr $C$DW$T$199, DW_AT_type(*$C$DW$862)
    8184              $C$DW$T$200     .dwtag  DW_TAG_pointer_type
    8185                      .dwattr $C$DW$T$200, DW_AT_type(*$C$DW$T$69)
    8186                      .dwattr $C$DW$T$200, DW_AT_address_class(0x16)
    8187              $C$DW$863       .dwtag  DW_TAG_TI_far_type
    8188                      .dwattr $C$DW$863, DW_AT_type(*$C$DW$T$200)
    8189              $C$DW$T$202     .dwtag  DW_TAG_const_type
    8190                      .dwattr $C$DW$T$202, DW_AT_type(*$C$DW$863)
    8191              
    8192              $C$DW$T$123     .dwtag  DW_TAG_structure_type
    8193                      .dwattr $C$DW$T$123, DW_AT_name("_MATH_vec3_")
    8194                      .dwattr $C$DW$T$123, DW_AT_byte_size(0x06)
    8195              $C$DW$864       .dwtag  DW_TAG_member
    8196                      .dwattr $C$DW$864, DW_AT_type(*$C$DW$T$122)
    8197                      .dwattr $C$DW$864, DW_AT_name("value")
    8198                      .dwattr $C$DW$864, DW_AT_TI_symbol_name("_value")
    8199                      .dwattr $C$DW$864, DW_AT_data_member_location[DW_OP_plus_uconst 0x0]
    8200                      .dwattr $C$DW$864, DW_AT_accessibility(DW_ACCESS_public)
    8201                      .dwendtag $C$DW$T$123
    8202              
    8203              $C$DW$T$81      .dwtag  DW_TAG_typedef, DW_AT_name("MATH_vec3")
    8204                      .dwattr $C$DW$T$81, DW_AT_type(*$C$DW$T$123)
    8205                      .dwattr $C$DW$T$81, DW_AT_language(DW_LANG_C)
    8206              $C$DW$865       .dwtag  DW_TAG_TI_far_type
    8207                      .dwattr $C$DW$865, DW_AT_type(*$C$DW$T$81)
    8208              $C$DW$T$208     .dwtag  DW_TAG_const_type
    8209                      .dwattr $C$DW$T$208, DW_AT_type(*$C$DW$865)
    8210              $C$DW$T$209     .dwtag  DW_TAG_pointer_type
    8211                      .dwattr $C$DW$T$209, DW_AT_type(*$C$DW$T$208)
    8212                      .dwattr $C$DW$T$209, DW_AT_address_class(0x16)
    8213              $C$DW$T$210     .dwtag  DW_TAG_pointer_type
    8214                      .dwattr $C$DW$T$210, DW_AT_type(*$C$DW$T$81)
    8215                      .dwattr $C$DW$T$210, DW_AT_address_class(0x16)
    8216              
    8217              $C$DW$T$126     .dwtag  DW_TAG_structure_type
    8218                      .dwattr $C$DW$T$126, DW_AT_name("_MOTOR_Params_")
    8219                      .dwattr $C$DW$T$126, DW_AT_byte_size(0x0e)
    8220              $C$DW$866       .dwtag  DW_TAG_member
    8221                      .dwattr $C$DW$866, DW_AT_type(*$C$DW$T$125)
    8222                      .dwattr $C$DW$866, DW_AT_name("type")
    8223                      .dwattr $C$DW$866, DW_AT_TI_symbol_name("_type")
    8224                      .dwattr $C$DW$866, DW_AT_data_member_location[DW_OP_plus_uconst 0x0]
    8225                      .dwattr $C$DW$866, DW_AT_accessibility(DW_ACCESS_public)
    8226              $C$DW$867       .dwtag  DW_TAG_member
TMS320C2000 Assembler PC v6.2.5 Tue Jun 27 16:56:14 2017

Tools Copyright (c) 1996-2014 Texas Instruments Incorporated
C:\Users\wmj\AppData\Local\Temp\1139610                              PAGE  157

    8227                      .dwattr $C$DW$867, DW_AT_type(*$C$DW$T$67)
    8228                      .dwattr $C$DW$867, DW_AT_name("numPolePairs")
    8229                      .dwattr $C$DW$867, DW_AT_TI_symbol_name("_numPolePairs")
    8230                      .dwattr $C$DW$867, DW_AT_data_member_location[DW_OP_plus_uconst 0x1]
    8231                      .dwattr $C$DW$867, DW_AT_accessibility(DW_ACCESS_public)
    8232              $C$DW$868       .dwtag  DW_TAG_member
    8233                      .dwattr $C$DW$868, DW_AT_type(*$C$DW$T$68)
    8234                      .dwattr $C$DW$868, DW_AT_name("Lr_H")
    8235                      .dwattr $C$DW$868, DW_AT_TI_symbol_name("_Lr_H")
    8236                      .dwattr $C$DW$868, DW_AT_data_member_location[DW_OP_plus_uconst 0x2]
    8237                      .dwattr $C$DW$868, DW_AT_accessibility(DW_ACCESS_public)
    8238              $C$DW$869       .dwtag  DW_TAG_member
    8239                      .dwattr $C$DW$869, DW_AT_type(*$C$DW$T$68)
    8240                      .dwattr $C$DW$869, DW_AT_name("Ls_d_H")
    8241                      .dwattr $C$DW$869, DW_AT_TI_symbol_name("_Ls_d_H")
    8242                      .dwattr $C$DW$869, DW_AT_data_member_location[DW_OP_plus_uconst 0x4]
    8243                      .dwattr $C$DW$869, DW_AT_accessibility(DW_ACCESS_public)
    8244              $C$DW$870       .dwtag  DW_TAG_member
    8245                      .dwattr $C$DW$870, DW_AT_type(*$C$DW$T$68)
    8246                      .dwattr $C$DW$870, DW_AT_name("Ls_q_H")
    8247                      .dwattr $C$DW$870, DW_AT_TI_symbol_name("_Ls_q_H")
    8248                      .dwattr $C$DW$870, DW_AT_data_member_location[DW_OP_plus_uconst 0x6]
    8249                      .dwattr $C$DW$870, DW_AT_accessibility(DW_ACCESS_public)
    8250              $C$DW$871       .dwtag  DW_TAG_member
    8251                      .dwattr $C$DW$871, DW_AT_type(*$C$DW$T$68)
    8252                      .dwattr $C$DW$871, DW_AT_name("Rr_Ohm")
    8253                      .dwattr $C$DW$871, DW_AT_TI_symbol_name("_Rr_Ohm")
    8254                      .dwattr $C$DW$871, DW_AT_data_member_location[DW_OP_plus_uconst 0x8]
    8255                      .dwattr $C$DW$871, DW_AT_accessibility(DW_ACCESS_public)
    8256              $C$DW$872       .dwtag  DW_TAG_member
    8257                      .dwattr $C$DW$872, DW_AT_type(*$C$DW$T$68)
    8258                      .dwattr $C$DW$872, DW_AT_name("Rs_Ohm")
    8259                      .dwattr $C$DW$872, DW_AT_TI_symbol_name("_Rs_Ohm")
    8260                      .dwattr $C$DW$872, DW_AT_data_member_location[DW_OP_plus_uconst 0xa]
    8261                      .dwattr $C$DW$872, DW_AT_accessibility(DW_ACCESS_public)
    8262              $C$DW$873       .dwtag  DW_TAG_member
    8263                      .dwattr $C$DW$873, DW_AT_type(*$C$DW$T$68)
    8264                      .dwattr $C$DW$873, DW_AT_name("ratedFlux_VpHz")
    8265                      .dwattr $C$DW$873, DW_AT_TI_symbol_name("_ratedFlux_VpHz")
    8266                      .dwattr $C$DW$873, DW_AT_data_member_location[DW_OP_plus_uconst 0xc]
    8267                      .dwattr $C$DW$873, DW_AT_accessibility(DW_ACCESS_public)
    8268                      .dwendtag $C$DW$T$126
    8269              
    8270              $C$DW$T$63      .dwtag  DW_TAG_typedef, DW_AT_name("MOTOR_Params")
    8271                      .dwattr $C$DW$T$63, DW_AT_type(*$C$DW$T$126)
    8272                      .dwattr $C$DW$T$63, DW_AT_language(DW_LANG_C)
    8273              
    8274              $C$DW$T$130     .dwtag  DW_TAG_structure_type
    8275                      .dwattr $C$DW$T$130, DW_AT_name("_OFFSET_")
    8276                      .dwattr $C$DW$T$130, DW_AT_byte_size(0x10)
    8277              $C$DW$874       .dwtag  DW_TAG_member
    8278                      .dwattr $C$DW$874, DW_AT_type(*$C$DW$T$32)
    8279                      .dwattr $C$DW$874, DW_AT_name("value")
    8280                      .dwattr $C$DW$874, DW_AT_TI_symbol_name("_value")
    8281                      .dwattr $C$DW$874, DW_AT_data_member_location[DW_OP_plus_uconst 0x0]
TMS320C2000 Assembler PC v6.2.5 Tue Jun 27 16:56:14 2017

Tools Copyright (c) 1996-2014 Texas Instruments Incorporated
C:\Users\wmj\AppData\Local\Temp\1139610                              PAGE  158

    8282                      .dwattr $C$DW$874, DW_AT_accessibility(DW_ACCESS_public)
    8283              $C$DW$875       .dwtag  DW_TAG_member
    8284                      .dwattr $C$DW$875, DW_AT_type(*$C$DW$T$32)
    8285                      .dwattr $C$DW$875, DW_AT_name("bias")
    8286                      .dwattr $C$DW$875, DW_AT_TI_symbol_name("_bias")
    8287                      .dwattr $C$DW$875, DW_AT_data_member_location[DW_OP_plus_uconst 0x2]
    8288                      .dwattr $C$DW$875, DW_AT_accessibility(DW_ACCESS_public)
    8289              $C$DW$876       .dwtag  DW_TAG_member
    8290                      .dwattr $C$DW$876, DW_AT_type(*$C$DW$T$127)
    8291                      .dwattr $C$DW$876, DW_AT_name("filter")
    8292                      .dwattr $C$DW$876, DW_AT_TI_symbol_name("_filter")
    8293                      .dwattr $C$DW$876, DW_AT_data_member_location[DW_OP_plus_uconst 0x4]
    8294                      .dwattr $C$DW$876, DW_AT_accessibility(DW_ACCESS_public)
    8295              $C$DW$877       .dwtag  DW_TAG_member
    8296                      .dwattr $C$DW$877, DW_AT_type(*$C$DW$T$129)
    8297                      .dwattr $C$DW$877, DW_AT_name("filterHandle")
    8298                      .dwattr $C$DW$877, DW_AT_TI_symbol_name("_filterHandle")
    8299                      .dwattr $C$DW$877, DW_AT_data_member_location[DW_OP_plus_uconst 0xe]
    8300                      .dwattr $C$DW$877, DW_AT_accessibility(DW_ACCESS_public)
    8301                      .dwendtag $C$DW$T$130
    8302              
    8303              $C$DW$T$96      .dwtag  DW_TAG_typedef, DW_AT_name("OFFSET_Obj")
    8304                      .dwattr $C$DW$T$96, DW_AT_type(*$C$DW$T$130)
    8305                      .dwattr $C$DW$T$96, DW_AT_language(DW_LANG_C)
    8306              
    8307              $C$DW$T$97      .dwtag  DW_TAG_array_type
    8308                      .dwattr $C$DW$T$97, DW_AT_type(*$C$DW$T$96)
    8309                      .dwattr $C$DW$T$97, DW_AT_language(DW_LANG_C)
    8310                      .dwattr $C$DW$T$97, DW_AT_byte_size(0x30)
    8311              $C$DW$878       .dwtag  DW_TAG_subrange_type
    8312                      .dwattr $C$DW$878, DW_AT_upper_bound(0x02)
    8313                      .dwendtag $C$DW$T$97
    8314              
    8315              
    8316              $C$DW$T$22      .dwtag  DW_TAG_structure_type
    8317                      .dwattr $C$DW$T$22, DW_AT_name("_OFFSET_Obj_")
    8318                      .dwattr $C$DW$T$22, DW_AT_declaration
    8319                      .dwendtag $C$DW$T$22
    8320              
    8321              $C$DW$T$93      .dwtag  DW_TAG_pointer_type
    8322                      .dwattr $C$DW$T$93, DW_AT_type(*$C$DW$T$22)
    8323                      .dwattr $C$DW$T$93, DW_AT_address_class(0x16)
    8324              $C$DW$T$94      .dwtag  DW_TAG_typedef, DW_AT_name("OFFSET_Handle")
    8325                      .dwattr $C$DW$T$94, DW_AT_type(*$C$DW$T$93)
    8326                      .dwattr $C$DW$T$94, DW_AT_language(DW_LANG_C)
    8327              
    8328              $C$DW$T$95      .dwtag  DW_TAG_array_type
    8329                      .dwattr $C$DW$T$95, DW_AT_type(*$C$DW$T$94)
    8330                      .dwattr $C$DW$T$95, DW_AT_language(DW_LANG_C)
    8331                      .dwattr $C$DW$T$95, DW_AT_byte_size(0x06)
    8332              $C$DW$879       .dwtag  DW_TAG_subrange_type
    8333                      .dwattr $C$DW$879, DW_AT_upper_bound(0x02)
    8334                      .dwendtag $C$DW$T$95
    8335              
    8336              
TMS320C2000 Assembler PC v6.2.5 Tue Jun 27 16:56:14 2017

Tools Copyright (c) 1996-2014 Texas Instruments Incorporated
C:\Users\wmj\AppData\Local\Temp\1139610                              PAGE  159

    8337              $C$DW$T$131     .dwtag  DW_TAG_structure_type
    8338                      .dwattr $C$DW$T$131, DW_AT_name("_OSC_Obj_")
    8339                      .dwattr $C$DW$T$131, DW_AT_byte_size(0x03)
    8340              $C$DW$880       .dwtag  DW_TAG_member
    8341                      .dwattr $C$DW$880, DW_AT_type(*$C$DW$T$24)
    8342                      .dwattr $C$DW$880, DW_AT_name("INTOSC1TRIM")
    8343                      .dwattr $C$DW$880, DW_AT_TI_symbol_name("_INTOSC1TRIM")
    8344                      .dwattr $C$DW$880, DW_AT_data_member_location[DW_OP_plus_uconst 0x0]
    8345                      .dwattr $C$DW$880, DW_AT_accessibility(DW_ACCESS_public)
    8346              $C$DW$881       .dwtag  DW_TAG_member
    8347                      .dwattr $C$DW$881, DW_AT_type(*$C$DW$T$24)
    8348                      .dwattr $C$DW$881, DW_AT_name("rsvd_1")
    8349                      .dwattr $C$DW$881, DW_AT_TI_symbol_name("_rsvd_1")
    8350                      .dwattr $C$DW$881, DW_AT_data_member_location[DW_OP_plus_uconst 0x1]
    8351                      .dwattr $C$DW$881, DW_AT_accessibility(DW_ACCESS_public)
    8352              $C$DW$882       .dwtag  DW_TAG_member
    8353                      .dwattr $C$DW$882, DW_AT_type(*$C$DW$T$24)
    8354                      .dwattr $C$DW$882, DW_AT_name("INTOSC2TRIM")
    8355                      .dwattr $C$DW$882, DW_AT_TI_symbol_name("_INTOSC2TRIM")
    8356                      .dwattr $C$DW$882, DW_AT_data_member_location[DW_OP_plus_uconst 0x2]
    8357                      .dwattr $C$DW$882, DW_AT_accessibility(DW_ACCESS_public)
    8358                      .dwendtag $C$DW$T$131
    8359              
    8360              $C$DW$T$98      .dwtag  DW_TAG_pointer_type
    8361                      .dwattr $C$DW$T$98, DW_AT_type(*$C$DW$T$131)
    8362                      .dwattr $C$DW$T$98, DW_AT_address_class(0x16)
    8363              $C$DW$T$99      .dwtag  DW_TAG_typedef, DW_AT_name("OSC_Handle")
    8364                      .dwattr $C$DW$T$99, DW_AT_type(*$C$DW$T$98)
    8365                      .dwattr $C$DW$T$99, DW_AT_language(DW_LANG_C)
    8366              
    8367              $C$DW$T$132     .dwtag  DW_TAG_structure_type
    8368                      .dwattr $C$DW$T$132, DW_AT_name("_PARK_Obj_")
    8369                      .dwattr $C$DW$T$132, DW_AT_byte_size(0x04)
    8370              $C$DW$883       .dwtag  DW_TAG_member
    8371                      .dwattr $C$DW$883, DW_AT_type(*$C$DW$T$32)
    8372                      .dwattr $C$DW$883, DW_AT_name("sinTh")
    8373                      .dwattr $C$DW$883, DW_AT_TI_symbol_name("_sinTh")
    8374                      .dwattr $C$DW$883, DW_AT_data_member_location[DW_OP_plus_uconst 0x0]
    8375                      .dwattr $C$DW$883, DW_AT_accessibility(DW_ACCESS_public)
    8376              $C$DW$884       .dwtag  DW_TAG_member
    8377                      .dwattr $C$DW$884, DW_AT_type(*$C$DW$T$32)
    8378                      .dwattr $C$DW$884, DW_AT_name("cosTh")
    8379                      .dwattr $C$DW$884, DW_AT_TI_symbol_name("_cosTh")
    8380                      .dwattr $C$DW$884, DW_AT_data_member_location[DW_OP_plus_uconst 0x2]
    8381                      .dwattr $C$DW$884, DW_AT_accessibility(DW_ACCESS_public)
    8382                      .dwendtag $C$DW$T$132
    8383              
    8384              $C$DW$T$50      .dwtag  DW_TAG_typedef, DW_AT_name("PARK_Obj")
    8385                      .dwattr $C$DW$T$50, DW_AT_type(*$C$DW$T$132)
    8386                      .dwattr $C$DW$T$50, DW_AT_language(DW_LANG_C)
    8387              $C$DW$T$216     .dwtag  DW_TAG_pointer_type
    8388                      .dwattr $C$DW$T$216, DW_AT_type(*$C$DW$T$50)
    8389                      .dwattr $C$DW$T$216, DW_AT_address_class(0x16)
    8390              $C$DW$T$48      .dwtag  DW_TAG_pointer_type
    8391                      .dwattr $C$DW$T$48, DW_AT_type(*$C$DW$T$132)
TMS320C2000 Assembler PC v6.2.5 Tue Jun 27 16:56:14 2017

Tools Copyright (c) 1996-2014 Texas Instruments Incorporated
C:\Users\wmj\AppData\Local\Temp\1139610                              PAGE  160

    8392                      .dwattr $C$DW$T$48, DW_AT_address_class(0x16)
    8393              $C$DW$T$49      .dwtag  DW_TAG_typedef, DW_AT_name("PARK_Handle")
    8394                      .dwattr $C$DW$T$49, DW_AT_type(*$C$DW$T$48)
    8395                      .dwattr $C$DW$T$49, DW_AT_language(DW_LANG_C)
    8396              
    8397              $C$DW$T$133     .dwtag  DW_TAG_structure_type
    8398                      .dwattr $C$DW$T$133, DW_AT_name("_PID_Obj_")
    8399                      .dwattr $C$DW$T$133, DW_AT_byte_size(0x10)
    8400              $C$DW$885       .dwtag  DW_TAG_member
    8401                      .dwattr $C$DW$885, DW_AT_type(*$C$DW$T$32)
    8402                      .dwattr $C$DW$885, DW_AT_name("Kp")
    8403                      .dwattr $C$DW$885, DW_AT_TI_symbol_name("_Kp")
    8404                      .dwattr $C$DW$885, DW_AT_data_member_location[DW_OP_plus_uconst 0x0]
    8405                      .dwattr $C$DW$885, DW_AT_accessibility(DW_ACCESS_public)
    8406              $C$DW$886       .dwtag  DW_TAG_member
    8407                      .dwattr $C$DW$886, DW_AT_type(*$C$DW$T$32)
    8408                      .dwattr $C$DW$886, DW_AT_name("Ki")
    8409                      .dwattr $C$DW$886, DW_AT_TI_symbol_name("_Ki")
    8410                      .dwattr $C$DW$886, DW_AT_data_member_location[DW_OP_plus_uconst 0x2]
    8411                      .dwattr $C$DW$886, DW_AT_accessibility(DW_ACCESS_public)
    8412              $C$DW$887       .dwtag  DW_TAG_member
    8413                      .dwattr $C$DW$887, DW_AT_type(*$C$DW$T$32)
    8414                      .dwattr $C$DW$887, DW_AT_name("Kd")
    8415                      .dwattr $C$DW$887, DW_AT_TI_symbol_name("_Kd")
    8416                      .dwattr $C$DW$887, DW_AT_data_member_location[DW_OP_plus_uconst 0x4]
    8417                      .dwattr $C$DW$887, DW_AT_accessibility(DW_ACCESS_public)
    8418              $C$DW$888       .dwtag  DW_TAG_member
    8419                      .dwattr $C$DW$888, DW_AT_type(*$C$DW$T$32)
    8420                      .dwattr $C$DW$888, DW_AT_name("Ui")
    8421                      .dwattr $C$DW$888, DW_AT_TI_symbol_name("_Ui")
    8422                      .dwattr $C$DW$888, DW_AT_data_member_location[DW_OP_plus_uconst 0x6]
    8423                      .dwattr $C$DW$888, DW_AT_accessibility(DW_ACCESS_public)
    8424              $C$DW$889       .dwtag  DW_TAG_member
    8425                      .dwattr $C$DW$889, DW_AT_type(*$C$DW$T$32)
    8426                      .dwattr $C$DW$889, DW_AT_name("refValue")
    8427                      .dwattr $C$DW$889, DW_AT_TI_symbol_name("_refValue")
    8428                      .dwattr $C$DW$889, DW_AT_data_member_location[DW_OP_plus_uconst 0x8]
    8429                      .dwattr $C$DW$889, DW_AT_accessibility(DW_ACCESS_public)
    8430              $C$DW$890       .dwtag  DW_TAG_member
    8431                      .dwattr $C$DW$890, DW_AT_type(*$C$DW$T$32)
    8432                      .dwattr $C$DW$890, DW_AT_name("fbackValue")
    8433                      .dwattr $C$DW$890, DW_AT_TI_symbol_name("_fbackValue")
    8434                      .dwattr $C$DW$890, DW_AT_data_member_location[DW_OP_plus_uconst 0xa]
    8435                      .dwattr $C$DW$890, DW_AT_accessibility(DW_ACCESS_public)
    8436              $C$DW$891       .dwtag  DW_TAG_member
    8437                      .dwattr $C$DW$891, DW_AT_type(*$C$DW$T$32)
    8438                      .dwattr $C$DW$891, DW_AT_name("outMin")
    8439                      .dwattr $C$DW$891, DW_AT_TI_symbol_name("_outMin")
    8440                      .dwattr $C$DW$891, DW_AT_data_member_location[DW_OP_plus_uconst 0xc]
    8441                      .dwattr $C$DW$891, DW_AT_accessibility(DW_ACCESS_public)
    8442              $C$DW$892       .dwtag  DW_TAG_member
    8443                      .dwattr $C$DW$892, DW_AT_type(*$C$DW$T$32)
    8444                      .dwattr $C$DW$892, DW_AT_name("outMax")
    8445                      .dwattr $C$DW$892, DW_AT_TI_symbol_name("_outMax")
    8446                      .dwattr $C$DW$892, DW_AT_data_member_location[DW_OP_plus_uconst 0xe]
TMS320C2000 Assembler PC v6.2.5 Tue Jun 27 16:56:14 2017

Tools Copyright (c) 1996-2014 Texas Instruments Incorporated
C:\Users\wmj\AppData\Local\Temp\1139610                              PAGE  161

    8447                      .dwattr $C$DW$892, DW_AT_accessibility(DW_ACCESS_public)
    8448                      .dwendtag $C$DW$T$133
    8449              
    8450              $C$DW$T$53      .dwtag  DW_TAG_typedef, DW_AT_name("PID_Obj")
    8451                      .dwattr $C$DW$T$53, DW_AT_type(*$C$DW$T$133)
    8452                      .dwattr $C$DW$T$53, DW_AT_language(DW_LANG_C)
    8453              $C$DW$T$217     .dwtag  DW_TAG_pointer_type
    8454                      .dwattr $C$DW$T$217, DW_AT_type(*$C$DW$T$53)
    8455                      .dwattr $C$DW$T$217, DW_AT_address_class(0x16)
    8456              $C$DW$T$51      .dwtag  DW_TAG_pointer_type
    8457                      .dwattr $C$DW$T$51, DW_AT_type(*$C$DW$T$133)
    8458                      .dwattr $C$DW$T$51, DW_AT_address_class(0x16)
    8459              $C$DW$T$52      .dwtag  DW_TAG_typedef, DW_AT_name("PID_Handle")
    8460                      .dwattr $C$DW$T$52, DW_AT_type(*$C$DW$T$51)
    8461                      .dwattr $C$DW$T$52, DW_AT_language(DW_LANG_C)
    8462              
    8463              $C$DW$T$134     .dwtag  DW_TAG_structure_type
    8464                      .dwattr $C$DW$T$134, DW_AT_name("_PIE_IERIFR_t")
    8465                      .dwattr $C$DW$T$134, DW_AT_byte_size(0x02)
    8466              $C$DW$893       .dwtag  DW_TAG_member
    8467                      .dwattr $C$DW$893, DW_AT_type(*$C$DW$T$24)
    8468                      .dwattr $C$DW$893, DW_AT_name("IER")
    8469                      .dwattr $C$DW$893, DW_AT_TI_symbol_name("_IER")
    8470                      .dwattr $C$DW$893, DW_AT_data_member_location[DW_OP_plus_uconst 0x0]
    8471                      .dwattr $C$DW$893, DW_AT_accessibility(DW_ACCESS_public)
    8472              $C$DW$894       .dwtag  DW_TAG_member
    8473                      .dwattr $C$DW$894, DW_AT_type(*$C$DW$T$24)
    8474                      .dwattr $C$DW$894, DW_AT_name("IFR")
    8475                      .dwattr $C$DW$894, DW_AT_TI_symbol_name("_IFR")
    8476                      .dwattr $C$DW$894, DW_AT_data_member_location[DW_OP_plus_uconst 0x1]
    8477                      .dwattr $C$DW$894, DW_AT_accessibility(DW_ACCESS_public)
    8478                      .dwendtag $C$DW$T$134
    8479              
    8480              $C$DW$T$135     .dwtag  DW_TAG_typedef, DW_AT_name("PIE_IERIFR_t")
    8481                      .dwattr $C$DW$T$135, DW_AT_type(*$C$DW$T$134)
    8482                      .dwattr $C$DW$T$135, DW_AT_language(DW_LANG_C)
    8483              $C$DW$895       .dwtag  DW_TAG_TI_far_type
    8484                      .dwattr $C$DW$895, DW_AT_type(*$C$DW$T$135)
    8485              $C$DW$T$136     .dwtag  DW_TAG_volatile_type
    8486                      .dwattr $C$DW$T$136, DW_AT_type(*$C$DW$895)
    8487              
    8488              $C$DW$T$137     .dwtag  DW_TAG_array_type
    8489                      .dwattr $C$DW$T$137, DW_AT_type(*$C$DW$T$136)
    8490                      .dwattr $C$DW$T$137, DW_AT_language(DW_LANG_C)
    8491                      .dwattr $C$DW$T$137, DW_AT_byte_size(0x18)
    8492              $C$DW$896       .dwtag  DW_TAG_subrange_type
    8493                      .dwattr $C$DW$896, DW_AT_upper_bound(0x0b)
    8494                      .dwendtag $C$DW$T$137
    8495              
    8496              
    8497              $C$DW$T$144     .dwtag  DW_TAG_structure_type
    8498                      .dwattr $C$DW$T$144, DW_AT_name("_PIE_Obj_")
    8499                      .dwattr $C$DW$T$144, DW_AT_byte_size(0x639c)
    8500              $C$DW$897       .dwtag  DW_TAG_member
    8501                      .dwattr $C$DW$897, DW_AT_type(*$C$DW$T$24)
TMS320C2000 Assembler PC v6.2.5 Tue Jun 27 16:56:14 2017

Tools Copyright (c) 1996-2014 Texas Instruments Incorporated
C:\Users\wmj\AppData\Local\Temp\1139610                              PAGE  162

    8502                      .dwattr $C$DW$897, DW_AT_name("PIECTRL")
    8503                      .dwattr $C$DW$897, DW_AT_TI_symbol_name("_PIECTRL")
    8504                      .dwattr $C$DW$897, DW_AT_data_member_location[DW_OP_plus_uconst 0x0]
    8505                      .dwattr $C$DW$897, DW_AT_accessibility(DW_ACCESS_public)
    8506              $C$DW$898       .dwtag  DW_TAG_member
    8507                      .dwattr $C$DW$898, DW_AT_type(*$C$DW$T$24)
    8508                      .dwattr $C$DW$898, DW_AT_name("PIEACK")
    8509                      .dwattr $C$DW$898, DW_AT_TI_symbol_name("_PIEACK")
    8510                      .dwattr $C$DW$898, DW_AT_data_member_location[DW_OP_plus_uconst 0x1]
    8511                      .dwattr $C$DW$898, DW_AT_accessibility(DW_ACCESS_public)
    8512              $C$DW$899       .dwtag  DW_TAG_member
    8513                      .dwattr $C$DW$899, DW_AT_type(*$C$DW$T$137)
    8514                      .dwattr $C$DW$899, DW_AT_name("PIEIER_PIEIFR")
    8515                      .dwattr $C$DW$899, DW_AT_TI_symbol_name("_PIEIER_PIEIFR")
    8516                      .dwattr $C$DW$899, DW_AT_data_member_location[DW_OP_plus_uconst 0x2]
    8517                      .dwattr $C$DW$899, DW_AT_accessibility(DW_ACCESS_public)
    8518              $C$DW$900       .dwtag  DW_TAG_member
    8519                      .dwattr $C$DW$900, DW_AT_type(*$C$DW$T$138)
    8520                      .dwattr $C$DW$900, DW_AT_name("rsvd_1")
    8521                      .dwattr $C$DW$900, DW_AT_TI_symbol_name("_rsvd_1")
    8522                      .dwattr $C$DW$900, DW_AT_data_member_location[DW_OP_plus_uconst 0x1a]
    8523                      .dwattr $C$DW$900, DW_AT_accessibility(DW_ACCESS_public)
    8524              $C$DW$901       .dwtag  DW_TAG_member
    8525                      .dwattr $C$DW$901, DW_AT_type(*$C$DW$T$142)
    8526                      .dwattr $C$DW$901, DW_AT_name("Reset")
    8527                      .dwattr $C$DW$901, DW_AT_TI_symbol_name("_Reset")
    8528                      .dwattr $C$DW$901, DW_AT_data_member_location[DW_OP_plus_uconst 0x20]
    8529                      .dwattr $C$DW$901, DW_AT_accessibility(DW_ACCESS_public)
    8530              $C$DW$902       .dwtag  DW_TAG_member
    8531                      .dwattr $C$DW$902, DW_AT_type(*$C$DW$T$142)
    8532                      .dwattr $C$DW$902, DW_AT_name("INT1")
    8533                      .dwattr $C$DW$902, DW_AT_TI_symbol_name("_INT1")
    8534                      .dwattr $C$DW$902, DW_AT_data_member_location[DW_OP_plus_uconst 0x22]
    8535                      .dwattr $C$DW$902, DW_AT_accessibility(DW_ACCESS_public)
    8536              $C$DW$903       .dwtag  DW_TAG_member
    8537                      .dwattr $C$DW$903, DW_AT_type(*$C$DW$T$142)
    8538                      .dwattr $C$DW$903, DW_AT_name("INT2")
    8539                      .dwattr $C$DW$903, DW_AT_TI_symbol_name("_INT2")
    8540                      .dwattr $C$DW$903, DW_AT_data_member_location[DW_OP_plus_uconst 0x24]
    8541                      .dwattr $C$DW$903, DW_AT_accessibility(DW_ACCESS_public)
    8542              $C$DW$904       .dwtag  DW_TAG_member
    8543                      .dwattr $C$DW$904, DW_AT_type(*$C$DW$T$142)
    8544                      .dwattr $C$DW$904, DW_AT_name("INT3")
    8545                      .dwattr $C$DW$904, DW_AT_TI_symbol_name("_INT3")
    8546                      .dwattr $C$DW$904, DW_AT_data_member_location[DW_OP_plus_uconst 0x26]
    8547                      .dwattr $C$DW$904, DW_AT_accessibility(DW_ACCESS_public)
    8548              $C$DW$905       .dwtag  DW_TAG_member
    8549                      .dwattr $C$DW$905, DW_AT_type(*$C$DW$T$142)
    8550                      .dwattr $C$DW$905, DW_AT_name("INT4")
    8551                      .dwattr $C$DW$905, DW_AT_TI_symbol_name("_INT4")
    8552                      .dwattr $C$DW$905, DW_AT_data_member_location[DW_OP_plus_uconst 0x28]
    8553                      .dwattr $C$DW$905, DW_AT_accessibility(DW_ACCESS_public)
    8554              $C$DW$906       .dwtag  DW_TAG_member
    8555                      .dwattr $C$DW$906, DW_AT_type(*$C$DW$T$142)
    8556                      .dwattr $C$DW$906, DW_AT_name("INT5")
TMS320C2000 Assembler PC v6.2.5 Tue Jun 27 16:56:14 2017

Tools Copyright (c) 1996-2014 Texas Instruments Incorporated
C:\Users\wmj\AppData\Local\Temp\1139610                              PAGE  163

    8557                      .dwattr $C$DW$906, DW_AT_TI_symbol_name("_INT5")
    8558                      .dwattr $C$DW$906, DW_AT_data_member_location[DW_OP_plus_uconst 0x2a]
    8559                      .dwattr $C$DW$906, DW_AT_accessibility(DW_ACCESS_public)
    8560              $C$DW$907       .dwtag  DW_TAG_member
    8561                      .dwattr $C$DW$907, DW_AT_type(*$C$DW$T$142)
    8562                      .dwattr $C$DW$907, DW_AT_name("INT6")
    8563                      .dwattr $C$DW$907, DW_AT_TI_symbol_name("_INT6")
    8564                      .dwattr $C$DW$907, DW_AT_data_member_location[DW_OP_plus_uconst 0x2c]
    8565                      .dwattr $C$DW$907, DW_AT_accessibility(DW_ACCESS_public)
    8566              $C$DW$908       .dwtag  DW_TAG_member
    8567                      .dwattr $C$DW$908, DW_AT_type(*$C$DW$T$142)
    8568                      .dwattr $C$DW$908, DW_AT_name("INT7")
    8569                      .dwattr $C$DW$908, DW_AT_TI_symbol_name("_INT7")
    8570                      .dwattr $C$DW$908, DW_AT_data_member_location[DW_OP_plus_uconst 0x2e]
    8571                      .dwattr $C$DW$908, DW_AT_accessibility(DW_ACCESS_public)
    8572              $C$DW$909       .dwtag  DW_TAG_member
    8573                      .dwattr $C$DW$909, DW_AT_type(*$C$DW$T$142)
    8574                      .dwattr $C$DW$909, DW_AT_name("INT8")
    8575                      .dwattr $C$DW$909, DW_AT_TI_symbol_name("_INT8")
    8576                      .dwattr $C$DW$909, DW_AT_data_member_location[DW_OP_plus_uconst 0x30]
    8577                      .dwattr $C$DW$909, DW_AT_accessibility(DW_ACCESS_public)
    8578              $C$DW$910       .dwtag  DW_TAG_member
    8579                      .dwattr $C$DW$910, DW_AT_type(*$C$DW$T$142)
    8580                      .dwattr $C$DW$910, DW_AT_name("INT9")
    8581                      .dwattr $C$DW$910, DW_AT_TI_symbol_name("_INT9")
    8582                      .dwattr $C$DW$910, DW_AT_data_member_location[DW_OP_plus_uconst 0x32]
    8583                      .dwattr $C$DW$910, DW_AT_accessibility(DW_ACCESS_public)
    8584              $C$DW$911       .dwtag  DW_TAG_member
    8585                      .dwattr $C$DW$911, DW_AT_type(*$C$DW$T$142)
    8586                      .dwattr $C$DW$911, DW_AT_name("INT10")
    8587                      .dwattr $C$DW$911, DW_AT_TI_symbol_name("_INT10")
    8588                      .dwattr $C$DW$911, DW_AT_data_member_location[DW_OP_plus_uconst 0x34]
    8589                      .dwattr $C$DW$911, DW_AT_accessibility(DW_ACCESS_public)
    8590              $C$DW$912       .dwtag  DW_TAG_member
    8591                      .dwattr $C$DW$912, DW_AT_type(*$C$DW$T$142)
    8592                      .dwattr $C$DW$912, DW_AT_name("INT11")
    8593                      .dwattr $C$DW$912, DW_AT_TI_symbol_name("_INT11")
    8594                      .dwattr $C$DW$912, DW_AT_data_member_location[DW_OP_plus_uconst 0x36]
    8595                      .dwattr $C$DW$912, DW_AT_accessibility(DW_ACCESS_public)
    8596              $C$DW$913       .dwtag  DW_TAG_member
    8597                      .dwattr $C$DW$913, DW_AT_type(*$C$DW$T$142)
    8598                      .dwattr $C$DW$913, DW_AT_name("INT12")
    8599                      .dwattr $C$DW$913, DW_AT_TI_symbol_name("_INT12")
    8600                      .dwattr $C$DW$913, DW_AT_data_member_location[DW_OP_plus_uconst 0x38]
    8601                      .dwattr $C$DW$913, DW_AT_accessibility(DW_ACCESS_public)
    8602              $C$DW$914       .dwtag  DW_TAG_member
    8603                      .dwattr $C$DW$914, DW_AT_type(*$C$DW$T$142)
    8604                      .dwattr $C$DW$914, DW_AT_name("TINT1")
    8605                      .dwattr $C$DW$914, DW_AT_TI_symbol_name("_TINT1")
    8606                      .dwattr $C$DW$914, DW_AT_data_member_location[DW_OP_plus_uconst 0x3a]
    8607                      .dwattr $C$DW$914, DW_AT_accessibility(DW_ACCESS_public)
    8608              $C$DW$915       .dwtag  DW_TAG_member
    8609                      .dwattr $C$DW$915, DW_AT_type(*$C$DW$T$142)
    8610                      .dwattr $C$DW$915, DW_AT_name("TINT2")
    8611                      .dwattr $C$DW$915, DW_AT_TI_symbol_name("_TINT2")
TMS320C2000 Assembler PC v6.2.5 Tue Jun 27 16:56:14 2017

Tools Copyright (c) 1996-2014 Texas Instruments Incorporated
C:\Users\wmj\AppData\Local\Temp\1139610                              PAGE  164

    8612                      .dwattr $C$DW$915, DW_AT_data_member_location[DW_OP_plus_uconst 0x3c]
    8613                      .dwattr $C$DW$915, DW_AT_accessibility(DW_ACCESS_public)
    8614              $C$DW$916       .dwtag  DW_TAG_member
    8615                      .dwattr $C$DW$916, DW_AT_type(*$C$DW$T$142)
    8616                      .dwattr $C$DW$916, DW_AT_name("DATALOG")
    8617                      .dwattr $C$DW$916, DW_AT_TI_symbol_name("_DATALOG")
    8618                      .dwattr $C$DW$916, DW_AT_data_member_location[DW_OP_plus_uconst 0x3e]
    8619                      .dwattr $C$DW$916, DW_AT_accessibility(DW_ACCESS_public)
    8620              $C$DW$917       .dwtag  DW_TAG_member
    8621                      .dwattr $C$DW$917, DW_AT_type(*$C$DW$T$142)
    8622                      .dwattr $C$DW$917, DW_AT_name("RTOSINT")
    8623                      .dwattr $C$DW$917, DW_AT_TI_symbol_name("_RTOSINT")
    8624                      .dwattr $C$DW$917, DW_AT_data_member_location[DW_OP_plus_uconst 0x40]
    8625                      .dwattr $C$DW$917, DW_AT_accessibility(DW_ACCESS_public)
    8626              $C$DW$918       .dwtag  DW_TAG_member
    8627                      .dwattr $C$DW$918, DW_AT_type(*$C$DW$T$142)
    8628                      .dwattr $C$DW$918, DW_AT_name("EMUINT")
    8629                      .dwattr $C$DW$918, DW_AT_TI_symbol_name("_EMUINT")
    8630                      .dwattr $C$DW$918, DW_AT_data_member_location[DW_OP_plus_uconst 0x42]
    8631                      .dwattr $C$DW$918, DW_AT_accessibility(DW_ACCESS_public)
    8632              $C$DW$919       .dwtag  DW_TAG_member
    8633                      .dwattr $C$DW$919, DW_AT_type(*$C$DW$T$142)
    8634                      .dwattr $C$DW$919, DW_AT_name("NMI")
    8635                      .dwattr $C$DW$919, DW_AT_TI_symbol_name("_NMI")
    8636                      .dwattr $C$DW$919, DW_AT_data_member_location[DW_OP_plus_uconst 0x44]
    8637                      .dwattr $C$DW$919, DW_AT_accessibility(DW_ACCESS_public)
    8638              $C$DW$920       .dwtag  DW_TAG_member
    8639                      .dwattr $C$DW$920, DW_AT_type(*$C$DW$T$142)
    8640                      .dwattr $C$DW$920, DW_AT_name("ILLEGAL")
    8641                      .dwattr $C$DW$920, DW_AT_TI_symbol_name("_ILLEGAL")
    8642                      .dwattr $C$DW$920, DW_AT_data_member_location[DW_OP_plus_uconst 0x46]
    8643                      .dwattr $C$DW$920, DW_AT_accessibility(DW_ACCESS_public)
    8644              $C$DW$921       .dwtag  DW_TAG_member
    8645                      .dwattr $C$DW$921, DW_AT_type(*$C$DW$T$142)
    8646                      .dwattr $C$DW$921, DW_AT_name("USER1")
    8647                      .dwattr $C$DW$921, DW_AT_TI_symbol_name("_USER1")
    8648                      .dwattr $C$DW$921, DW_AT_data_member_location[DW_OP_plus_uconst 0x48]
    8649                      .dwattr $C$DW$921, DW_AT_accessibility(DW_ACCESS_public)
    8650              $C$DW$922       .dwtag  DW_TAG_member
    8651                      .dwattr $C$DW$922, DW_AT_type(*$C$DW$T$142)
    8652                      .dwattr $C$DW$922, DW_AT_name("USER2")
    8653                      .dwattr $C$DW$922, DW_AT_TI_symbol_name("_USER2")
    8654                      .dwattr $C$DW$922, DW_AT_data_member_location[DW_OP_plus_uconst 0x4a]
    8655                      .dwattr $C$DW$922, DW_AT_accessibility(DW_ACCESS_public)
    8656              $C$DW$923       .dwtag  DW_TAG_member
    8657                      .dwattr $C$DW$923, DW_AT_type(*$C$DW$T$142)
    8658                      .dwattr $C$DW$923, DW_AT_name("USER3")
    8659                      .dwattr $C$DW$923, DW_AT_TI_symbol_name("_USER3")
    8660                      .dwattr $C$DW$923, DW_AT_data_member_location[DW_OP_plus_uconst 0x4c]
    8661                      .dwattr $C$DW$923, DW_AT_accessibility(DW_ACCESS_public)
    8662              $C$DW$924       .dwtag  DW_TAG_member
    8663                      .dwattr $C$DW$924, DW_AT_type(*$C$DW$T$142)
    8664                      .dwattr $C$DW$924, DW_AT_name("USER4")
    8665                      .dwattr $C$DW$924, DW_AT_TI_symbol_name("_USER4")
    8666                      .dwattr $C$DW$924, DW_AT_data_member_location[DW_OP_plus_uconst 0x4e]
TMS320C2000 Assembler PC v6.2.5 Tue Jun 27 16:56:14 2017

Tools Copyright (c) 1996-2014 Texas Instruments Incorporated
C:\Users\wmj\AppData\Local\Temp\1139610                              PAGE  165

    8667                      .dwattr $C$DW$924, DW_AT_accessibility(DW_ACCESS_public)
    8668              $C$DW$925       .dwtag  DW_TAG_member
    8669                      .dwattr $C$DW$925, DW_AT_type(*$C$DW$T$142)
    8670                      .dwattr $C$DW$925, DW_AT_name("USER5")
    8671                      .dwattr $C$DW$925, DW_AT_TI_symbol_name("_USER5")
    8672                      .dwattr $C$DW$925, DW_AT_data_member_location[DW_OP_plus_uconst 0x50]
    8673                      .dwattr $C$DW$925, DW_AT_accessibility(DW_ACCESS_public)
    8674              $C$DW$926       .dwtag  DW_TAG_member
    8675                      .dwattr $C$DW$926, DW_AT_type(*$C$DW$T$142)
    8676                      .dwattr $C$DW$926, DW_AT_name("USER6")
    8677                      .dwattr $C$DW$926, DW_AT_TI_symbol_name("_USER6")
    8678                      .dwattr $C$DW$926, DW_AT_data_member_location[DW_OP_plus_uconst 0x52]
    8679                      .dwattr $C$DW$926, DW_AT_accessibility(DW_ACCESS_public)
    8680              $C$DW$927       .dwtag  DW_TAG_member
    8681                      .dwattr $C$DW$927, DW_AT_type(*$C$DW$T$142)
    8682                      .dwattr $C$DW$927, DW_AT_name("USER7")
    8683                      .dwattr $C$DW$927, DW_AT_TI_symbol_name("_USER7")
    8684                      .dwattr $C$DW$927, DW_AT_data_member_location[DW_OP_plus_uconst 0x54]
    8685                      .dwattr $C$DW$927, DW_AT_accessibility(DW_ACCESS_public)
    8686              $C$DW$928       .dwtag  DW_TAG_member
    8687                      .dwattr $C$DW$928, DW_AT_type(*$C$DW$T$142)
    8688                      .dwattr $C$DW$928, DW_AT_name("USER8")
    8689                      .dwattr $C$DW$928, DW_AT_TI_symbol_name("_USER8")
    8690                      .dwattr $C$DW$928, DW_AT_data_member_location[DW_OP_plus_uconst 0x56]
    8691                      .dwattr $C$DW$928, DW_AT_accessibility(DW_ACCESS_public)
    8692              $C$DW$929       .dwtag  DW_TAG_member
    8693                      .dwattr $C$DW$929, DW_AT_type(*$C$DW$T$142)
    8694                      .dwattr $C$DW$929, DW_AT_name("USER9")
    8695                      .dwattr $C$DW$929, DW_AT_TI_symbol_name("_USER9")
    8696                      .dwattr $C$DW$929, DW_AT_data_member_location[DW_OP_plus_uconst 0x58]
    8697                      .dwattr $C$DW$929, DW_AT_accessibility(DW_ACCESS_public)
    8698              $C$DW$930       .dwtag  DW_TAG_member
    8699                      .dwattr $C$DW$930, DW_AT_type(*$C$DW$T$142)
    8700                      .dwattr $C$DW$930, DW_AT_name("USER10")
    8701                      .dwattr $C$DW$930, DW_AT_TI_symbol_name("_USER10")
    8702                      .dwattr $C$DW$930, DW_AT_data_member_location[DW_OP_plus_uconst 0x5a]
    8703                      .dwattr $C$DW$930, DW_AT_accessibility(DW_ACCESS_public)
    8704              $C$DW$931       .dwtag  DW_TAG_member
    8705                      .dwattr $C$DW$931, DW_AT_type(*$C$DW$T$142)
    8706                      .dwattr $C$DW$931, DW_AT_name("USER11")
    8707                      .dwattr $C$DW$931, DW_AT_TI_symbol_name("_USER11")
    8708                      .dwattr $C$DW$931, DW_AT_data_member_location[DW_OP_plus_uconst 0x5c]
    8709                      .dwattr $C$DW$931, DW_AT_accessibility(DW_ACCESS_public)
    8710              $C$DW$932       .dwtag  DW_TAG_member
    8711                      .dwattr $C$DW$932, DW_AT_type(*$C$DW$T$142)
    8712                      .dwattr $C$DW$932, DW_AT_name("USER12")
    8713                      .dwattr $C$DW$932, DW_AT_TI_symbol_name("_USER12")
    8714                      .dwattr $C$DW$932, DW_AT_data_member_location[DW_OP_plus_uconst 0x5e]
    8715                      .dwattr $C$DW$932, DW_AT_accessibility(DW_ACCESS_public)
    8716              $C$DW$933       .dwtag  DW_TAG_member
    8717                      .dwattr $C$DW$933, DW_AT_type(*$C$DW$T$142)
    8718                      .dwattr $C$DW$933, DW_AT_name("ADCINT1_HP")
    8719                      .dwattr $C$DW$933, DW_AT_TI_symbol_name("_ADCINT1_HP")
    8720                      .dwattr $C$DW$933, DW_AT_data_member_location[DW_OP_plus_uconst 0x60]
    8721                      .dwattr $C$DW$933, DW_AT_accessibility(DW_ACCESS_public)
TMS320C2000 Assembler PC v6.2.5 Tue Jun 27 16:56:14 2017

Tools Copyright (c) 1996-2014 Texas Instruments Incorporated
C:\Users\wmj\AppData\Local\Temp\1139610                              PAGE  166

    8722              $C$DW$934       .dwtag  DW_TAG_member
    8723                      .dwattr $C$DW$934, DW_AT_type(*$C$DW$T$142)
    8724                      .dwattr $C$DW$934, DW_AT_name("ADCINT2_HP")
    8725                      .dwattr $C$DW$934, DW_AT_TI_symbol_name("_ADCINT2_HP")
    8726                      .dwattr $C$DW$934, DW_AT_data_member_location[DW_OP_plus_uconst 0x62]
    8727                      .dwattr $C$DW$934, DW_AT_accessibility(DW_ACCESS_public)
    8728              $C$DW$935       .dwtag  DW_TAG_member
    8729                      .dwattr $C$DW$935, DW_AT_type(*$C$DW$T$142)
    8730                      .dwattr $C$DW$935, DW_AT_name("rsvd1_3")
    8731                      .dwattr $C$DW$935, DW_AT_TI_symbol_name("_rsvd1_3")
    8732                      .dwattr $C$DW$935, DW_AT_data_member_location[DW_OP_plus_uconst 0x64]
    8733                      .dwattr $C$DW$935, DW_AT_accessibility(DW_ACCESS_public)
    8734              $C$DW$936       .dwtag  DW_TAG_member
    8735                      .dwattr $C$DW$936, DW_AT_type(*$C$DW$T$142)
    8736                      .dwattr $C$DW$936, DW_AT_name("XINT1")
    8737                      .dwattr $C$DW$936, DW_AT_TI_symbol_name("_XINT1")
    8738                      .dwattr $C$DW$936, DW_AT_data_member_location[DW_OP_plus_uconst 0x66]
    8739                      .dwattr $C$DW$936, DW_AT_accessibility(DW_ACCESS_public)
    8740              $C$DW$937       .dwtag  DW_TAG_member
    8741                      .dwattr $C$DW$937, DW_AT_type(*$C$DW$T$142)
    8742                      .dwattr $C$DW$937, DW_AT_name("XINT2")
    8743                      .dwattr $C$DW$937, DW_AT_TI_symbol_name("_XINT2")
    8744                      .dwattr $C$DW$937, DW_AT_data_member_location[DW_OP_plus_uconst 0x68]
    8745                      .dwattr $C$DW$937, DW_AT_accessibility(DW_ACCESS_public)
    8746              $C$DW$938       .dwtag  DW_TAG_member
    8747                      .dwattr $C$DW$938, DW_AT_type(*$C$DW$T$142)
    8748                      .dwattr $C$DW$938, DW_AT_name("ADCINT9")
    8749                      .dwattr $C$DW$938, DW_AT_TI_symbol_name("_ADCINT9")
    8750                      .dwattr $C$DW$938, DW_AT_data_member_location[DW_OP_plus_uconst 0x6a]
    8751                      .dwattr $C$DW$938, DW_AT_accessibility(DW_ACCESS_public)
    8752              $C$DW$939       .dwtag  DW_TAG_member
    8753                      .dwattr $C$DW$939, DW_AT_type(*$C$DW$T$142)
    8754                      .dwattr $C$DW$939, DW_AT_name("TINT0")
    8755                      .dwattr $C$DW$939, DW_AT_TI_symbol_name("_TINT0")
    8756                      .dwattr $C$DW$939, DW_AT_data_member_location[DW_OP_plus_uconst 0x6c]
    8757                      .dwattr $C$DW$939, DW_AT_accessibility(DW_ACCESS_public)
    8758              $C$DW$940       .dwtag  DW_TAG_member
    8759                      .dwattr $C$DW$940, DW_AT_type(*$C$DW$T$142)
    8760                      .dwattr $C$DW$940, DW_AT_name("WAKEINT")
    8761                      .dwattr $C$DW$940, DW_AT_TI_symbol_name("_WAKEINT")
    8762                      .dwattr $C$DW$940, DW_AT_data_member_location[DW_OP_plus_uconst 0x6e]
    8763                      .dwattr $C$DW$940, DW_AT_accessibility(DW_ACCESS_public)
    8764              $C$DW$941       .dwtag  DW_TAG_member
    8765                      .dwattr $C$DW$941, DW_AT_type(*$C$DW$T$142)
    8766                      .dwattr $C$DW$941, DW_AT_name("EPWM1_TZINT")
    8767                      .dwattr $C$DW$941, DW_AT_TI_symbol_name("_EPWM1_TZINT")
    8768                      .dwattr $C$DW$941, DW_AT_data_member_location[DW_OP_plus_uconst 0x70]
    8769                      .dwattr $C$DW$941, DW_AT_accessibility(DW_ACCESS_public)
    8770              $C$DW$942       .dwtag  DW_TAG_member
    8771                      .dwattr $C$DW$942, DW_AT_type(*$C$DW$T$142)
    8772                      .dwattr $C$DW$942, DW_AT_name("EPWM2_TZINT")
    8773                      .dwattr $C$DW$942, DW_AT_TI_symbol_name("_EPWM2_TZINT")
    8774                      .dwattr $C$DW$942, DW_AT_data_member_location[DW_OP_plus_uconst 0x72]
    8775                      .dwattr $C$DW$942, DW_AT_accessibility(DW_ACCESS_public)
    8776              $C$DW$943       .dwtag  DW_TAG_member
TMS320C2000 Assembler PC v6.2.5 Tue Jun 27 16:56:14 2017

Tools Copyright (c) 1996-2014 Texas Instruments Incorporated
C:\Users\wmj\AppData\Local\Temp\1139610                              PAGE  167

    8777                      .dwattr $C$DW$943, DW_AT_type(*$C$DW$T$142)
    8778                      .dwattr $C$DW$943, DW_AT_name("EPWM3_TZINT")
    8779                      .dwattr $C$DW$943, DW_AT_TI_symbol_name("_EPWM3_TZINT")
    8780                      .dwattr $C$DW$943, DW_AT_data_member_location[DW_OP_plus_uconst 0x74]
    8781                      .dwattr $C$DW$943, DW_AT_accessibility(DW_ACCESS_public)
    8782              $C$DW$944       .dwtag  DW_TAG_member
    8783                      .dwattr $C$DW$944, DW_AT_type(*$C$DW$T$142)
    8784                      .dwattr $C$DW$944, DW_AT_name("EPWM4_TZINT")
    8785                      .dwattr $C$DW$944, DW_AT_TI_symbol_name("_EPWM4_TZINT")
    8786                      .dwattr $C$DW$944, DW_AT_data_member_location[DW_OP_plus_uconst 0x76]
    8787                      .dwattr $C$DW$944, DW_AT_accessibility(DW_ACCESS_public)
    8788              $C$DW$945       .dwtag  DW_TAG_member
    8789                      .dwattr $C$DW$945, DW_AT_type(*$C$DW$T$142)
    8790                      .dwattr $C$DW$945, DW_AT_name("rsvd2_5")
    8791                      .dwattr $C$DW$945, DW_AT_TI_symbol_name("_rsvd2_5")
    8792                      .dwattr $C$DW$945, DW_AT_data_member_location[DW_OP_plus_uconst 0x78]
    8793                      .dwattr $C$DW$945, DW_AT_accessibility(DW_ACCESS_public)
    8794              $C$DW$946       .dwtag  DW_TAG_member
    8795                      .dwattr $C$DW$946, DW_AT_type(*$C$DW$T$142)
    8796                      .dwattr $C$DW$946, DW_AT_name("rsvd2_6")
    8797                      .dwattr $C$DW$946, DW_AT_TI_symbol_name("_rsvd2_6")
    8798                      .dwattr $C$DW$946, DW_AT_data_member_location[DW_OP_plus_uconst 0x7a]
    8799                      .dwattr $C$DW$946, DW_AT_accessibility(DW_ACCESS_public)
    8800              $C$DW$947       .dwtag  DW_TAG_member
    8801                      .dwattr $C$DW$947, DW_AT_type(*$C$DW$T$142)
    8802                      .dwattr $C$DW$947, DW_AT_name("rsvd2_7")
    8803                      .dwattr $C$DW$947, DW_AT_TI_symbol_name("_rsvd2_7")
    8804                      .dwattr $C$DW$947, DW_AT_data_member_location[DW_OP_plus_uconst 0x7c]
    8805                      .dwattr $C$DW$947, DW_AT_accessibility(DW_ACCESS_public)
    8806              $C$DW$948       .dwtag  DW_TAG_member
    8807                      .dwattr $C$DW$948, DW_AT_type(*$C$DW$T$142)
    8808                      .dwattr $C$DW$948, DW_AT_name("rsvd2_8")
    8809                      .dwattr $C$DW$948, DW_AT_TI_symbol_name("_rsvd2_8")
    8810                      .dwattr $C$DW$948, DW_AT_data_member_location[DW_OP_plus_uconst 0x7e]
    8811                      .dwattr $C$DW$948, DW_AT_accessibility(DW_ACCESS_public)
    8812              $C$DW$949       .dwtag  DW_TAG_member
    8813                      .dwattr $C$DW$949, DW_AT_type(*$C$DW$T$142)
    8814                      .dwattr $C$DW$949, DW_AT_name("EPWM1_INT")
    8815                      .dwattr $C$DW$949, DW_AT_TI_symbol_name("_EPWM1_INT")
    8816                      .dwattr $C$DW$949, DW_AT_data_member_location[DW_OP_plus_uconst 0x80]
    8817                      .dwattr $C$DW$949, DW_AT_accessibility(DW_ACCESS_public)
    8818              $C$DW$950       .dwtag  DW_TAG_member
    8819                      .dwattr $C$DW$950, DW_AT_type(*$C$DW$T$142)
    8820                      .dwattr $C$DW$950, DW_AT_name("EPWM2_INT")
    8821                      .dwattr $C$DW$950, DW_AT_TI_symbol_name("_EPWM2_INT")
    8822                      .dwattr $C$DW$950, DW_AT_data_member_location[DW_OP_plus_uconst 0x82]
    8823                      .dwattr $C$DW$950, DW_AT_accessibility(DW_ACCESS_public)
    8824              $C$DW$951       .dwtag  DW_TAG_member
    8825                      .dwattr $C$DW$951, DW_AT_type(*$C$DW$T$142)
    8826                      .dwattr $C$DW$951, DW_AT_name("EPWM3_INT")
    8827                      .dwattr $C$DW$951, DW_AT_TI_symbol_name("_EPWM3_INT")
    8828                      .dwattr $C$DW$951, DW_AT_data_member_location[DW_OP_plus_uconst 0x84]
    8829                      .dwattr $C$DW$951, DW_AT_accessibility(DW_ACCESS_public)
    8830              $C$DW$952       .dwtag  DW_TAG_member
    8831                      .dwattr $C$DW$952, DW_AT_type(*$C$DW$T$142)
TMS320C2000 Assembler PC v6.2.5 Tue Jun 27 16:56:14 2017

Tools Copyright (c) 1996-2014 Texas Instruments Incorporated
C:\Users\wmj\AppData\Local\Temp\1139610                              PAGE  168

    8832                      .dwattr $C$DW$952, DW_AT_name("EPWM4_INT")
    8833                      .dwattr $C$DW$952, DW_AT_TI_symbol_name("_EPWM4_INT")
    8834                      .dwattr $C$DW$952, DW_AT_data_member_location[DW_OP_plus_uconst 0x86]
    8835                      .dwattr $C$DW$952, DW_AT_accessibility(DW_ACCESS_public)
    8836              $C$DW$953       .dwtag  DW_TAG_member
    8837                      .dwattr $C$DW$953, DW_AT_type(*$C$DW$T$142)
    8838                      .dwattr $C$DW$953, DW_AT_name("rsvd3_5")
    8839                      .dwattr $C$DW$953, DW_AT_TI_symbol_name("_rsvd3_5")
    8840                      .dwattr $C$DW$953, DW_AT_data_member_location[DW_OP_plus_uconst 0x88]
    8841                      .dwattr $C$DW$953, DW_AT_accessibility(DW_ACCESS_public)
    8842              $C$DW$954       .dwtag  DW_TAG_member
    8843                      .dwattr $C$DW$954, DW_AT_type(*$C$DW$T$142)
    8844                      .dwattr $C$DW$954, DW_AT_name("rsvd3_6")
    8845                      .dwattr $C$DW$954, DW_AT_TI_symbol_name("_rsvd3_6")
    8846                      .dwattr $C$DW$954, DW_AT_data_member_location[DW_OP_plus_uconst 0x8a]
    8847                      .dwattr $C$DW$954, DW_AT_accessibility(DW_ACCESS_public)
    8848              $C$DW$955       .dwtag  DW_TAG_member
    8849                      .dwattr $C$DW$955, DW_AT_type(*$C$DW$T$142)
    8850                      .dwattr $C$DW$955, DW_AT_name("rsvd3_7")
    8851                      .dwattr $C$DW$955, DW_AT_TI_symbol_name("_rsvd3_7")
    8852                      .dwattr $C$DW$955, DW_AT_data_member_location[DW_OP_plus_uconst 0x8c]
    8853                      .dwattr $C$DW$955, DW_AT_accessibility(DW_ACCESS_public)
    8854              $C$DW$956       .dwtag  DW_TAG_member
    8855                      .dwattr $C$DW$956, DW_AT_type(*$C$DW$T$142)
    8856                      .dwattr $C$DW$956, DW_AT_name("rsvd3_8")
    8857                      .dwattr $C$DW$956, DW_AT_TI_symbol_name("_rsvd3_8")
    8858                      .dwattr $C$DW$956, DW_AT_data_member_location[DW_OP_plus_uconst 0x8e]
    8859                      .dwattr $C$DW$956, DW_AT_accessibility(DW_ACCESS_public)
    8860              $C$DW$957       .dwtag  DW_TAG_member
    8861                      .dwattr $C$DW$957, DW_AT_type(*$C$DW$T$142)
    8862                      .dwattr $C$DW$957, DW_AT_name("ECAP1_INT")
    8863                      .dwattr $C$DW$957, DW_AT_TI_symbol_name("_ECAP1_INT")
    8864                      .dwattr $C$DW$957, DW_AT_data_member_location[DW_OP_plus_uconst 0x90]
    8865                      .dwattr $C$DW$957, DW_AT_accessibility(DW_ACCESS_public)
    8866              $C$DW$958       .dwtag  DW_TAG_member
    8867                      .dwattr $C$DW$958, DW_AT_type(*$C$DW$T$142)
    8868                      .dwattr $C$DW$958, DW_AT_name("rsvd4_2")
    8869                      .dwattr $C$DW$958, DW_AT_TI_symbol_name("_rsvd4_2")
    8870                      .dwattr $C$DW$958, DW_AT_data_member_location[DW_OP_plus_uconst 0x92]
    8871                      .dwattr $C$DW$958, DW_AT_accessibility(DW_ACCESS_public)
    8872              $C$DW$959       .dwtag  DW_TAG_member
    8873                      .dwattr $C$DW$959, DW_AT_type(*$C$DW$T$142)
    8874                      .dwattr $C$DW$959, DW_AT_name("rsvd4_3")
    8875                      .dwattr $C$DW$959, DW_AT_TI_symbol_name("_rsvd4_3")
    8876                      .dwattr $C$DW$959, DW_AT_data_member_location[DW_OP_plus_uconst 0x94]
    8877                      .dwattr $C$DW$959, DW_AT_accessibility(DW_ACCESS_public)
    8878              $C$DW$960       .dwtag  DW_TAG_member
    8879                      .dwattr $C$DW$960, DW_AT_type(*$C$DW$T$142)
    8880                      .dwattr $C$DW$960, DW_AT_name("rsvd4_4")
    8881                      .dwattr $C$DW$960, DW_AT_TI_symbol_name("_rsvd4_4")
    8882                      .dwattr $C$DW$960, DW_AT_data_member_location[DW_OP_plus_uconst 0x96]
    8883                      .dwattr $C$DW$960, DW_AT_accessibility(DW_ACCESS_public)
    8884              $C$DW$961       .dwtag  DW_TAG_member
    8885                      .dwattr $C$DW$961, DW_AT_type(*$C$DW$T$142)
    8886                      .dwattr $C$DW$961, DW_AT_name("rsvd4_5")
TMS320C2000 Assembler PC v6.2.5 Tue Jun 27 16:56:14 2017

Tools Copyright (c) 1996-2014 Texas Instruments Incorporated
C:\Users\wmj\AppData\Local\Temp\1139610                              PAGE  169

    8887                      .dwattr $C$DW$961, DW_AT_TI_symbol_name("_rsvd4_5")
    8888                      .dwattr $C$DW$961, DW_AT_data_member_location[DW_OP_plus_uconst 0x98]
    8889                      .dwattr $C$DW$961, DW_AT_accessibility(DW_ACCESS_public)
    8890              $C$DW$962       .dwtag  DW_TAG_member
    8891                      .dwattr $C$DW$962, DW_AT_type(*$C$DW$T$142)
    8892                      .dwattr $C$DW$962, DW_AT_name("rsvd4_6")
    8893                      .dwattr $C$DW$962, DW_AT_TI_symbol_name("_rsvd4_6")
    8894                      .dwattr $C$DW$962, DW_AT_data_member_location[DW_OP_plus_uconst 0x9a]
    8895                      .dwattr $C$DW$962, DW_AT_accessibility(DW_ACCESS_public)
    8896              $C$DW$963       .dwtag  DW_TAG_member
    8897                      .dwattr $C$DW$963, DW_AT_type(*$C$DW$T$142)
    8898                      .dwattr $C$DW$963, DW_AT_name("rsvd4_7")
    8899                      .dwattr $C$DW$963, DW_AT_TI_symbol_name("_rsvd4_7")
    8900                      .dwattr $C$DW$963, DW_AT_data_member_location[DW_OP_plus_uconst 0x9c]
    8901                      .dwattr $C$DW$963, DW_AT_accessibility(DW_ACCESS_public)
    8902              $C$DW$964       .dwtag  DW_TAG_member
    8903                      .dwattr $C$DW$964, DW_AT_type(*$C$DW$T$142)
    8904                      .dwattr $C$DW$964, DW_AT_name("rsvd4_8")
    8905                      .dwattr $C$DW$964, DW_AT_TI_symbol_name("_rsvd4_8")
    8906                      .dwattr $C$DW$964, DW_AT_data_member_location[DW_OP_plus_uconst 0x9e]
    8907                      .dwattr $C$DW$964, DW_AT_accessibility(DW_ACCESS_public)
    8908              $C$DW$965       .dwtag  DW_TAG_member
    8909                      .dwattr $C$DW$965, DW_AT_type(*$C$DW$T$142)
    8910                      .dwattr $C$DW$965, DW_AT_name("rsvd5_1")
    8911                      .dwattr $C$DW$965, DW_AT_TI_symbol_name("_rsvd5_1")
    8912                      .dwattr $C$DW$965, DW_AT_data_member_location[DW_OP_plus_uconst 0xa0]
    8913                      .dwattr $C$DW$965, DW_AT_accessibility(DW_ACCESS_public)
    8914              $C$DW$966       .dwtag  DW_TAG_member
    8915                      .dwattr $C$DW$966, DW_AT_type(*$C$DW$T$142)
    8916                      .dwattr $C$DW$966, DW_AT_name("rsvd5_2")
    8917                      .dwattr $C$DW$966, DW_AT_TI_symbol_name("_rsvd5_2")
    8918                      .dwattr $C$DW$966, DW_AT_data_member_location[DW_OP_plus_uconst 0xa2]
    8919                      .dwattr $C$DW$966, DW_AT_accessibility(DW_ACCESS_public)
    8920              $C$DW$967       .dwtag  DW_TAG_member
    8921                      .dwattr $C$DW$967, DW_AT_type(*$C$DW$T$142)
    8922                      .dwattr $C$DW$967, DW_AT_name("rsvd5_3")
    8923                      .dwattr $C$DW$967, DW_AT_TI_symbol_name("_rsvd5_3")
    8924                      .dwattr $C$DW$967, DW_AT_data_member_location[DW_OP_plus_uconst 0xa4]
    8925                      .dwattr $C$DW$967, DW_AT_accessibility(DW_ACCESS_public)
    8926              $C$DW$968       .dwtag  DW_TAG_member
    8927                      .dwattr $C$DW$968, DW_AT_type(*$C$DW$T$142)
    8928                      .dwattr $C$DW$968, DW_AT_name("rsvd5_4")
    8929                      .dwattr $C$DW$968, DW_AT_TI_symbol_name("_rsvd5_4")
    8930                      .dwattr $C$DW$968, DW_AT_data_member_location[DW_OP_plus_uconst 0xa6]
    8931                      .dwattr $C$DW$968, DW_AT_accessibility(DW_ACCESS_public)
    8932              $C$DW$969       .dwtag  DW_TAG_member
    8933                      .dwattr $C$DW$969, DW_AT_type(*$C$DW$T$142)
    8934                      .dwattr $C$DW$969, DW_AT_name("rsvd5_5")
    8935                      .dwattr $C$DW$969, DW_AT_TI_symbol_name("_rsvd5_5")
    8936                      .dwattr $C$DW$969, DW_AT_data_member_location[DW_OP_plus_uconst 0xa8]
    8937                      .dwattr $C$DW$969, DW_AT_accessibility(DW_ACCESS_public)
    8938              $C$DW$970       .dwtag  DW_TAG_member
    8939                      .dwattr $C$DW$970, DW_AT_type(*$C$DW$T$142)
    8940                      .dwattr $C$DW$970, DW_AT_name("rsvd5_6")
    8941                      .dwattr $C$DW$970, DW_AT_TI_symbol_name("_rsvd5_6")
TMS320C2000 Assembler PC v6.2.5 Tue Jun 27 16:56:14 2017

Tools Copyright (c) 1996-2014 Texas Instruments Incorporated
C:\Users\wmj\AppData\Local\Temp\1139610                              PAGE  170

    8942                      .dwattr $C$DW$970, DW_AT_data_member_location[DW_OP_plus_uconst 0xaa]
    8943                      .dwattr $C$DW$970, DW_AT_accessibility(DW_ACCESS_public)
    8944              $C$DW$971       .dwtag  DW_TAG_member
    8945                      .dwattr $C$DW$971, DW_AT_type(*$C$DW$T$142)
    8946                      .dwattr $C$DW$971, DW_AT_name("rsvd5_7")
    8947                      .dwattr $C$DW$971, DW_AT_TI_symbol_name("_rsvd5_7")
    8948                      .dwattr $C$DW$971, DW_AT_data_member_location[DW_OP_plus_uconst 0xac]
    8949                      .dwattr $C$DW$971, DW_AT_accessibility(DW_ACCESS_public)
    8950              $C$DW$972       .dwtag  DW_TAG_member
    8951                      .dwattr $C$DW$972, DW_AT_type(*$C$DW$T$142)
    8952                      .dwattr $C$DW$972, DW_AT_name("rsvd5_8")
    8953                      .dwattr $C$DW$972, DW_AT_TI_symbol_name("_rsvd5_8")
    8954                      .dwattr $C$DW$972, DW_AT_data_member_location[DW_OP_plus_uconst 0xae]
    8955                      .dwattr $C$DW$972, DW_AT_accessibility(DW_ACCESS_public)
    8956              $C$DW$973       .dwtag  DW_TAG_member
    8957                      .dwattr $C$DW$973, DW_AT_type(*$C$DW$T$142)
    8958                      .dwattr $C$DW$973, DW_AT_name("SPIRXINTA")
    8959                      .dwattr $C$DW$973, DW_AT_TI_symbol_name("_SPIRXINTA")
    8960                      .dwattr $C$DW$973, DW_AT_data_member_location[DW_OP_plus_uconst 0xb0]
    8961                      .dwattr $C$DW$973, DW_AT_accessibility(DW_ACCESS_public)
    8962              $C$DW$974       .dwtag  DW_TAG_member
    8963                      .dwattr $C$DW$974, DW_AT_type(*$C$DW$T$142)
    8964                      .dwattr $C$DW$974, DW_AT_name("SPITXINTA")
    8965                      .dwattr $C$DW$974, DW_AT_TI_symbol_name("_SPITXINTA")
    8966                      .dwattr $C$DW$974, DW_AT_data_member_location[DW_OP_plus_uconst 0xb2]
    8967                      .dwattr $C$DW$974, DW_AT_accessibility(DW_ACCESS_public)
    8968              $C$DW$975       .dwtag  DW_TAG_member
    8969                      .dwattr $C$DW$975, DW_AT_type(*$C$DW$T$142)
    8970                      .dwattr $C$DW$975, DW_AT_name("rsvd6_3")
    8971                      .dwattr $C$DW$975, DW_AT_TI_symbol_name("_rsvd6_3")
    8972                      .dwattr $C$DW$975, DW_AT_data_member_location[DW_OP_plus_uconst 0xb4]
    8973                      .dwattr $C$DW$975, DW_AT_accessibility(DW_ACCESS_public)
    8974              $C$DW$976       .dwtag  DW_TAG_member
    8975                      .dwattr $C$DW$976, DW_AT_type(*$C$DW$T$142)
    8976                      .dwattr $C$DW$976, DW_AT_name("rsvd6_4")
    8977                      .dwattr $C$DW$976, DW_AT_TI_symbol_name("_rsvd6_4")
    8978                      .dwattr $C$DW$976, DW_AT_data_member_location[DW_OP_plus_uconst 0xb6]
    8979                      .dwattr $C$DW$976, DW_AT_accessibility(DW_ACCESS_public)
    8980              $C$DW$977       .dwtag  DW_TAG_member
    8981                      .dwattr $C$DW$977, DW_AT_type(*$C$DW$T$142)
    8982                      .dwattr $C$DW$977, DW_AT_name("rsvd6_5")
    8983                      .dwattr $C$DW$977, DW_AT_TI_symbol_name("_rsvd6_5")
    8984                      .dwattr $C$DW$977, DW_AT_data_member_location[DW_OP_plus_uconst 0xb8]
    8985                      .dwattr $C$DW$977, DW_AT_accessibility(DW_ACCESS_public)
    8986              $C$DW$978       .dwtag  DW_TAG_member
    8987                      .dwattr $C$DW$978, DW_AT_type(*$C$DW$T$142)
    8988                      .dwattr $C$DW$978, DW_AT_name("rsvd6_6")
    8989                      .dwattr $C$DW$978, DW_AT_TI_symbol_name("_rsvd6_6")
    8990                      .dwattr $C$DW$978, DW_AT_data_member_location[DW_OP_plus_uconst 0xba]
    8991                      .dwattr $C$DW$978, DW_AT_accessibility(DW_ACCESS_public)
    8992              $C$DW$979       .dwtag  DW_TAG_member
    8993                      .dwattr $C$DW$979, DW_AT_type(*$C$DW$T$142)
    8994                      .dwattr $C$DW$979, DW_AT_name("rsvd6_7")
    8995                      .dwattr $C$DW$979, DW_AT_TI_symbol_name("_rsvd6_7")
    8996                      .dwattr $C$DW$979, DW_AT_data_member_location[DW_OP_plus_uconst 0xbc]
TMS320C2000 Assembler PC v6.2.5 Tue Jun 27 16:56:14 2017

Tools Copyright (c) 1996-2014 Texas Instruments Incorporated
C:\Users\wmj\AppData\Local\Temp\1139610                              PAGE  171

    8997                      .dwattr $C$DW$979, DW_AT_accessibility(DW_ACCESS_public)
    8998              $C$DW$980       .dwtag  DW_TAG_member
    8999                      .dwattr $C$DW$980, DW_AT_type(*$C$DW$T$142)
    9000                      .dwattr $C$DW$980, DW_AT_name("rsvd6_8")
    9001                      .dwattr $C$DW$980, DW_AT_TI_symbol_name("_rsvd6_8")
    9002                      .dwattr $C$DW$980, DW_AT_data_member_location[DW_OP_plus_uconst 0xbe]
    9003                      .dwattr $C$DW$980, DW_AT_accessibility(DW_ACCESS_public)
    9004              $C$DW$981       .dwtag  DW_TAG_member
    9005                      .dwattr $C$DW$981, DW_AT_type(*$C$DW$T$142)
    9006                      .dwattr $C$DW$981, DW_AT_name("rsvd7_1")
    9007                      .dwattr $C$DW$981, DW_AT_TI_symbol_name("_rsvd7_1")
    9008                      .dwattr $C$DW$981, DW_AT_data_member_location[DW_OP_plus_uconst 0xc0]
    9009                      .dwattr $C$DW$981, DW_AT_accessibility(DW_ACCESS_public)
    9010              $C$DW$982       .dwtag  DW_TAG_member
    9011                      .dwattr $C$DW$982, DW_AT_type(*$C$DW$T$142)
    9012                      .dwattr $C$DW$982, DW_AT_name("rsvd7_2")
    9013                      .dwattr $C$DW$982, DW_AT_TI_symbol_name("_rsvd7_2")
    9014                      .dwattr $C$DW$982, DW_AT_data_member_location[DW_OP_plus_uconst 0xc2]
    9015                      .dwattr $C$DW$982, DW_AT_accessibility(DW_ACCESS_public)
    9016              $C$DW$983       .dwtag  DW_TAG_member
    9017                      .dwattr $C$DW$983, DW_AT_type(*$C$DW$T$142)
    9018                      .dwattr $C$DW$983, DW_AT_name("rsvd7_3")
    9019                      .dwattr $C$DW$983, DW_AT_TI_symbol_name("_rsvd7_3")
    9020                      .dwattr $C$DW$983, DW_AT_data_member_location[DW_OP_plus_uconst 0xc4]
    9021                      .dwattr $C$DW$983, DW_AT_accessibility(DW_ACCESS_public)
    9022              $C$DW$984       .dwtag  DW_TAG_member
    9023                      .dwattr $C$DW$984, DW_AT_type(*$C$DW$T$142)
    9024                      .dwattr $C$DW$984, DW_AT_name("rsvd7_4")
    9025                      .dwattr $C$DW$984, DW_AT_TI_symbol_name("_rsvd7_4")
    9026                      .dwattr $C$DW$984, DW_AT_data_member_location[DW_OP_plus_uconst 0xc6]
    9027                      .dwattr $C$DW$984, DW_AT_accessibility(DW_ACCESS_public)
    9028              $C$DW$985       .dwtag  DW_TAG_member
    9029                      .dwattr $C$DW$985, DW_AT_type(*$C$DW$T$142)
    9030                      .dwattr $C$DW$985, DW_AT_name("rsvd7_5")
    9031                      .dwattr $C$DW$985, DW_AT_TI_symbol_name("_rsvd7_5")
    9032                      .dwattr $C$DW$985, DW_AT_data_member_location[DW_OP_plus_uconst 0xc8]
    9033                      .dwattr $C$DW$985, DW_AT_accessibility(DW_ACCESS_public)
    9034              $C$DW$986       .dwtag  DW_TAG_member
    9035                      .dwattr $C$DW$986, DW_AT_type(*$C$DW$T$142)
    9036                      .dwattr $C$DW$986, DW_AT_name("rsvd7_6")
    9037                      .dwattr $C$DW$986, DW_AT_TI_symbol_name("_rsvd7_6")
    9038                      .dwattr $C$DW$986, DW_AT_data_member_location[DW_OP_plus_uconst 0xca]
    9039                      .dwattr $C$DW$986, DW_AT_accessibility(DW_ACCESS_public)
    9040              $C$DW$987       .dwtag  DW_TAG_member
    9041                      .dwattr $C$DW$987, DW_AT_type(*$C$DW$T$142)
    9042                      .dwattr $C$DW$987, DW_AT_name("rsvd7_7")
    9043                      .dwattr $C$DW$987, DW_AT_TI_symbol_name("_rsvd7_7")
    9044                      .dwattr $C$DW$987, DW_AT_data_member_location[DW_OP_plus_uconst 0xcc]
    9045                      .dwattr $C$DW$987, DW_AT_accessibility(DW_ACCESS_public)
    9046              $C$DW$988       .dwtag  DW_TAG_member
    9047                      .dwattr $C$DW$988, DW_AT_type(*$C$DW$T$142)
    9048                      .dwattr $C$DW$988, DW_AT_name("rsvd7_8")
    9049                      .dwattr $C$DW$988, DW_AT_TI_symbol_name("_rsvd7_8")
    9050                      .dwattr $C$DW$988, DW_AT_data_member_location[DW_OP_plus_uconst 0xce]
    9051                      .dwattr $C$DW$988, DW_AT_accessibility(DW_ACCESS_public)
TMS320C2000 Assembler PC v6.2.5 Tue Jun 27 16:56:14 2017

Tools Copyright (c) 1996-2014 Texas Instruments Incorporated
C:\Users\wmj\AppData\Local\Temp\1139610                              PAGE  172

    9052              $C$DW$989       .dwtag  DW_TAG_member
    9053                      .dwattr $C$DW$989, DW_AT_type(*$C$DW$T$142)
    9054                      .dwattr $C$DW$989, DW_AT_name("I2CINT1A")
    9055                      .dwattr $C$DW$989, DW_AT_TI_symbol_name("_I2CINT1A")
    9056                      .dwattr $C$DW$989, DW_AT_data_member_location[DW_OP_plus_uconst 0xd0]
    9057                      .dwattr $C$DW$989, DW_AT_accessibility(DW_ACCESS_public)
    9058              $C$DW$990       .dwtag  DW_TAG_member
    9059                      .dwattr $C$DW$990, DW_AT_type(*$C$DW$T$142)
    9060                      .dwattr $C$DW$990, DW_AT_name("I2CINT2A")
    9061                      .dwattr $C$DW$990, DW_AT_TI_symbol_name("_I2CINT2A")
    9062                      .dwattr $C$DW$990, DW_AT_data_member_location[DW_OP_plus_uconst 0xd2]
    9063                      .dwattr $C$DW$990, DW_AT_accessibility(DW_ACCESS_public)
    9064              $C$DW$991       .dwtag  DW_TAG_member
    9065                      .dwattr $C$DW$991, DW_AT_type(*$C$DW$T$142)
    9066                      .dwattr $C$DW$991, DW_AT_name("rsvd8_3")
    9067                      .dwattr $C$DW$991, DW_AT_TI_symbol_name("_rsvd8_3")
    9068                      .dwattr $C$DW$991, DW_AT_data_member_location[DW_OP_plus_uconst 0xd4]
    9069                      .dwattr $C$DW$991, DW_AT_accessibility(DW_ACCESS_public)
    9070              $C$DW$992       .dwtag  DW_TAG_member
    9071                      .dwattr $C$DW$992, DW_AT_type(*$C$DW$T$142)
    9072                      .dwattr $C$DW$992, DW_AT_name("rsvd8_4")
    9073                      .dwattr $C$DW$992, DW_AT_TI_symbol_name("_rsvd8_4")
    9074                      .dwattr $C$DW$992, DW_AT_data_member_location[DW_OP_plus_uconst 0xd6]
    9075                      .dwattr $C$DW$992, DW_AT_accessibility(DW_ACCESS_public)
    9076              $C$DW$993       .dwtag  DW_TAG_member
    9077                      .dwattr $C$DW$993, DW_AT_type(*$C$DW$T$142)
    9078                      .dwattr $C$DW$993, DW_AT_name("rsvd8_5")
    9079                      .dwattr $C$DW$993, DW_AT_TI_symbol_name("_rsvd8_5")
    9080                      .dwattr $C$DW$993, DW_AT_data_member_location[DW_OP_plus_uconst 0xd8]
    9081                      .dwattr $C$DW$993, DW_AT_accessibility(DW_ACCESS_public)
    9082              $C$DW$994       .dwtag  DW_TAG_member
    9083                      .dwattr $C$DW$994, DW_AT_type(*$C$DW$T$142)
    9084                      .dwattr $C$DW$994, DW_AT_name("rsvd8_6")
    9085                      .dwattr $C$DW$994, DW_AT_TI_symbol_name("_rsvd8_6")
    9086                      .dwattr $C$DW$994, DW_AT_data_member_location[DW_OP_plus_uconst 0xda]
    9087                      .dwattr $C$DW$994, DW_AT_accessibility(DW_ACCESS_public)
    9088              $C$DW$995       .dwtag  DW_TAG_member
    9089                      .dwattr $C$DW$995, DW_AT_type(*$C$DW$T$142)
    9090                      .dwattr $C$DW$995, DW_AT_name("rsvd8_7")
    9091                      .dwattr $C$DW$995, DW_AT_TI_symbol_name("_rsvd8_7")
    9092                      .dwattr $C$DW$995, DW_AT_data_member_location[DW_OP_plus_uconst 0xdc]
    9093                      .dwattr $C$DW$995, DW_AT_accessibility(DW_ACCESS_public)
    9094              $C$DW$996       .dwtag  DW_TAG_member
    9095                      .dwattr $C$DW$996, DW_AT_type(*$C$DW$T$142)
    9096                      .dwattr $C$DW$996, DW_AT_name("rsvd8_8")
    9097                      .dwattr $C$DW$996, DW_AT_TI_symbol_name("_rsvd8_8")
    9098                      .dwattr $C$DW$996, DW_AT_data_member_location[DW_OP_plus_uconst 0xde]
    9099                      .dwattr $C$DW$996, DW_AT_accessibility(DW_ACCESS_public)
    9100              $C$DW$997       .dwtag  DW_TAG_member
    9101                      .dwattr $C$DW$997, DW_AT_type(*$C$DW$T$142)
    9102                      .dwattr $C$DW$997, DW_AT_name("SCIRXINTA")
    9103                      .dwattr $C$DW$997, DW_AT_TI_symbol_name("_SCIRXINTA")
    9104                      .dwattr $C$DW$997, DW_AT_data_member_location[DW_OP_plus_uconst 0xe0]
    9105                      .dwattr $C$DW$997, DW_AT_accessibility(DW_ACCESS_public)
    9106              $C$DW$998       .dwtag  DW_TAG_member
TMS320C2000 Assembler PC v6.2.5 Tue Jun 27 16:56:14 2017

Tools Copyright (c) 1996-2014 Texas Instruments Incorporated
C:\Users\wmj\AppData\Local\Temp\1139610                              PAGE  173

    9107                      .dwattr $C$DW$998, DW_AT_type(*$C$DW$T$142)
    9108                      .dwattr $C$DW$998, DW_AT_name("SCITXINTA")
    9109                      .dwattr $C$DW$998, DW_AT_TI_symbol_name("_SCITXINTA")
    9110                      .dwattr $C$DW$998, DW_AT_data_member_location[DW_OP_plus_uconst 0xe2]
    9111                      .dwattr $C$DW$998, DW_AT_accessibility(DW_ACCESS_public)
    9112              $C$DW$999       .dwtag  DW_TAG_member
    9113                      .dwattr $C$DW$999, DW_AT_type(*$C$DW$T$142)
    9114                      .dwattr $C$DW$999, DW_AT_name("rsvd9_3")
    9115                      .dwattr $C$DW$999, DW_AT_TI_symbol_name("_rsvd9_3")
    9116                      .dwattr $C$DW$999, DW_AT_data_member_location[DW_OP_plus_uconst 0xe4]
    9117                      .dwattr $C$DW$999, DW_AT_accessibility(DW_ACCESS_public)
    9118              $C$DW$1000      .dwtag  DW_TAG_member
    9119                      .dwattr $C$DW$1000, DW_AT_type(*$C$DW$T$142)
    9120                      .dwattr $C$DW$1000, DW_AT_name("rsvd9_4")
    9121                      .dwattr $C$DW$1000, DW_AT_TI_symbol_name("_rsvd9_4")
    9122                      .dwattr $C$DW$1000, DW_AT_data_member_location[DW_OP_plus_uconst 0xe6]
    9123                      .dwattr $C$DW$1000, DW_AT_accessibility(DW_ACCESS_public)
    9124              $C$DW$1001      .dwtag  DW_TAG_member
    9125                      .dwattr $C$DW$1001, DW_AT_type(*$C$DW$T$142)
    9126                      .dwattr $C$DW$1001, DW_AT_name("rsvd9_5")
    9127                      .dwattr $C$DW$1001, DW_AT_TI_symbol_name("_rsvd9_5")
    9128                      .dwattr $C$DW$1001, DW_AT_data_member_location[DW_OP_plus_uconst 0xe8]
    9129                      .dwattr $C$DW$1001, DW_AT_accessibility(DW_ACCESS_public)
    9130              $C$DW$1002      .dwtag  DW_TAG_member
    9131                      .dwattr $C$DW$1002, DW_AT_type(*$C$DW$T$142)
    9132                      .dwattr $C$DW$1002, DW_AT_name("rsvd9_6")
    9133                      .dwattr $C$DW$1002, DW_AT_TI_symbol_name("_rsvd9_6")
    9134                      .dwattr $C$DW$1002, DW_AT_data_member_location[DW_OP_plus_uconst 0xea]
    9135                      .dwattr $C$DW$1002, DW_AT_accessibility(DW_ACCESS_public)
    9136              $C$DW$1003      .dwtag  DW_TAG_member
    9137                      .dwattr $C$DW$1003, DW_AT_type(*$C$DW$T$142)
    9138                      .dwattr $C$DW$1003, DW_AT_name("rsvd9_7")
    9139                      .dwattr $C$DW$1003, DW_AT_TI_symbol_name("_rsvd9_7")
    9140                      .dwattr $C$DW$1003, DW_AT_data_member_location[DW_OP_plus_uconst 0xec]
    9141                      .dwattr $C$DW$1003, DW_AT_accessibility(DW_ACCESS_public)
    9142              $C$DW$1004      .dwtag  DW_TAG_member
    9143                      .dwattr $C$DW$1004, DW_AT_type(*$C$DW$T$142)
    9144                      .dwattr $C$DW$1004, DW_AT_name("rsvd9_8")
    9145                      .dwattr $C$DW$1004, DW_AT_TI_symbol_name("_rsvd9_8")
    9146                      .dwattr $C$DW$1004, DW_AT_data_member_location[DW_OP_plus_uconst 0xee]
    9147                      .dwattr $C$DW$1004, DW_AT_accessibility(DW_ACCESS_public)
    9148              $C$DW$1005      .dwtag  DW_TAG_member
    9149                      .dwattr $C$DW$1005, DW_AT_type(*$C$DW$T$142)
    9150                      .dwattr $C$DW$1005, DW_AT_name("ADCINT1")
    9151                      .dwattr $C$DW$1005, DW_AT_TI_symbol_name("_ADCINT1")
    9152                      .dwattr $C$DW$1005, DW_AT_data_member_location[DW_OP_plus_uconst 0xf0]
    9153                      .dwattr $C$DW$1005, DW_AT_accessibility(DW_ACCESS_public)
    9154              $C$DW$1006      .dwtag  DW_TAG_member
    9155                      .dwattr $C$DW$1006, DW_AT_type(*$C$DW$T$142)
    9156                      .dwattr $C$DW$1006, DW_AT_name("ADCINT2")
    9157                      .dwattr $C$DW$1006, DW_AT_TI_symbol_name("_ADCINT2")
    9158                      .dwattr $C$DW$1006, DW_AT_data_member_location[DW_OP_plus_uconst 0xf2]
    9159                      .dwattr $C$DW$1006, DW_AT_accessibility(DW_ACCESS_public)
    9160              $C$DW$1007      .dwtag  DW_TAG_member
    9161                      .dwattr $C$DW$1007, DW_AT_type(*$C$DW$T$142)
TMS320C2000 Assembler PC v6.2.5 Tue Jun 27 16:56:14 2017

Tools Copyright (c) 1996-2014 Texas Instruments Incorporated
C:\Users\wmj\AppData\Local\Temp\1139610                              PAGE  174

    9162                      .dwattr $C$DW$1007, DW_AT_name("ADCINT3")
    9163                      .dwattr $C$DW$1007, DW_AT_TI_symbol_name("_ADCINT3")
    9164                      .dwattr $C$DW$1007, DW_AT_data_member_location[DW_OP_plus_uconst 0xf4]
    9165                      .dwattr $C$DW$1007, DW_AT_accessibility(DW_ACCESS_public)
    9166              $C$DW$1008      .dwtag  DW_TAG_member
    9167                      .dwattr $C$DW$1008, DW_AT_type(*$C$DW$T$142)
    9168                      .dwattr $C$DW$1008, DW_AT_name("ADCINT4")
    9169                      .dwattr $C$DW$1008, DW_AT_TI_symbol_name("_ADCINT4")
    9170                      .dwattr $C$DW$1008, DW_AT_data_member_location[DW_OP_plus_uconst 0xf6]
    9171                      .dwattr $C$DW$1008, DW_AT_accessibility(DW_ACCESS_public)
    9172              $C$DW$1009      .dwtag  DW_TAG_member
    9173                      .dwattr $C$DW$1009, DW_AT_type(*$C$DW$T$142)
    9174                      .dwattr $C$DW$1009, DW_AT_name("ADCINT5")
    9175                      .dwattr $C$DW$1009, DW_AT_TI_symbol_name("_ADCINT5")
    9176                      .dwattr $C$DW$1009, DW_AT_data_member_location[DW_OP_plus_uconst 0xf8]
    9177                      .dwattr $C$DW$1009, DW_AT_accessibility(DW_ACCESS_public)
    9178              $C$DW$1010      .dwtag  DW_TAG_member
    9179                      .dwattr $C$DW$1010, DW_AT_type(*$C$DW$T$142)
    9180                      .dwattr $C$DW$1010, DW_AT_name("ADCINT6")
    9181                      .dwattr $C$DW$1010, DW_AT_TI_symbol_name("_ADCINT6")
    9182                      .dwattr $C$DW$1010, DW_AT_data_member_location[DW_OP_plus_uconst 0xfa]
    9183                      .dwattr $C$DW$1010, DW_AT_accessibility(DW_ACCESS_public)
    9184              $C$DW$1011      .dwtag  DW_TAG_member
    9185                      .dwattr $C$DW$1011, DW_AT_type(*$C$DW$T$142)
    9186                      .dwattr $C$DW$1011, DW_AT_name("ADCINT7")
    9187                      .dwattr $C$DW$1011, DW_AT_TI_symbol_name("_ADCINT7")
    9188                      .dwattr $C$DW$1011, DW_AT_data_member_location[DW_OP_plus_uconst 0xfc]
    9189                      .dwattr $C$DW$1011, DW_AT_accessibility(DW_ACCESS_public)
    9190              $C$DW$1012      .dwtag  DW_TAG_member
    9191                      .dwattr $C$DW$1012, DW_AT_type(*$C$DW$T$142)
    9192                      .dwattr $C$DW$1012, DW_AT_name("ADCINT8")
    9193                      .dwattr $C$DW$1012, DW_AT_TI_symbol_name("_ADCINT8")
    9194                      .dwattr $C$DW$1012, DW_AT_data_member_location[DW_OP_plus_uconst 0xfe]
    9195                      .dwattr $C$DW$1012, DW_AT_accessibility(DW_ACCESS_public)
    9196              $C$DW$1013      .dwtag  DW_TAG_member
    9197                      .dwattr $C$DW$1013, DW_AT_type(*$C$DW$T$142)
    9198                      .dwattr $C$DW$1013, DW_AT_name("rsvd11_1")
    9199                      .dwattr $C$DW$1013, DW_AT_TI_symbol_name("_rsvd11_1")
    9200                      .dwattr $C$DW$1013, DW_AT_data_member_location[DW_OP_plus_uconst 0x100]
    9201                      .dwattr $C$DW$1013, DW_AT_accessibility(DW_ACCESS_public)
    9202              $C$DW$1014      .dwtag  DW_TAG_member
    9203                      .dwattr $C$DW$1014, DW_AT_type(*$C$DW$T$142)
    9204                      .dwattr $C$DW$1014, DW_AT_name("rsvd11_2")
    9205                      .dwattr $C$DW$1014, DW_AT_TI_symbol_name("_rsvd11_2")
    9206                      .dwattr $C$DW$1014, DW_AT_data_member_location[DW_OP_plus_uconst 0x102]
    9207                      .dwattr $C$DW$1014, DW_AT_accessibility(DW_ACCESS_public)
    9208              $C$DW$1015      .dwtag  DW_TAG_member
    9209                      .dwattr $C$DW$1015, DW_AT_type(*$C$DW$T$142)
    9210                      .dwattr $C$DW$1015, DW_AT_name("rsvd11_3")
    9211                      .dwattr $C$DW$1015, DW_AT_TI_symbol_name("_rsvd11_3")
    9212                      .dwattr $C$DW$1015, DW_AT_data_member_location[DW_OP_plus_uconst 0x104]
    9213                      .dwattr $C$DW$1015, DW_AT_accessibility(DW_ACCESS_public)
    9214              $C$DW$1016      .dwtag  DW_TAG_member
    9215                      .dwattr $C$DW$1016, DW_AT_type(*$C$DW$T$142)
    9216                      .dwattr $C$DW$1016, DW_AT_name("rsvd11_4")
TMS320C2000 Assembler PC v6.2.5 Tue Jun 27 16:56:14 2017

Tools Copyright (c) 1996-2014 Texas Instruments Incorporated
C:\Users\wmj\AppData\Local\Temp\1139610                              PAGE  175

    9217                      .dwattr $C$DW$1016, DW_AT_TI_symbol_name("_rsvd11_4")
    9218                      .dwattr $C$DW$1016, DW_AT_data_member_location[DW_OP_plus_uconst 0x106]
    9219                      .dwattr $C$DW$1016, DW_AT_accessibility(DW_ACCESS_public)
    9220              $C$DW$1017      .dwtag  DW_TAG_member
    9221                      .dwattr $C$DW$1017, DW_AT_type(*$C$DW$T$142)
    9222                      .dwattr $C$DW$1017, DW_AT_name("rsvd11_5")
    9223                      .dwattr $C$DW$1017, DW_AT_TI_symbol_name("_rsvd11_5")
    9224                      .dwattr $C$DW$1017, DW_AT_data_member_location[DW_OP_plus_uconst 0x108]
    9225                      .dwattr $C$DW$1017, DW_AT_accessibility(DW_ACCESS_public)
    9226              $C$DW$1018      .dwtag  DW_TAG_member
    9227                      .dwattr $C$DW$1018, DW_AT_type(*$C$DW$T$142)
    9228                      .dwattr $C$DW$1018, DW_AT_name("rsvd11_6")
    9229                      .dwattr $C$DW$1018, DW_AT_TI_symbol_name("_rsvd11_6")
    9230                      .dwattr $C$DW$1018, DW_AT_data_member_location[DW_OP_plus_uconst 0x10a]
    9231                      .dwattr $C$DW$1018, DW_AT_accessibility(DW_ACCESS_public)
    9232              $C$DW$1019      .dwtag  DW_TAG_member
    9233                      .dwattr $C$DW$1019, DW_AT_type(*$C$DW$T$142)
    9234                      .dwattr $C$DW$1019, DW_AT_name("rsvd11_7")
    9235                      .dwattr $C$DW$1019, DW_AT_TI_symbol_name("_rsvd11_7")
    9236                      .dwattr $C$DW$1019, DW_AT_data_member_location[DW_OP_plus_uconst 0x10c]
    9237                      .dwattr $C$DW$1019, DW_AT_accessibility(DW_ACCESS_public)
    9238              $C$DW$1020      .dwtag  DW_TAG_member
    9239                      .dwattr $C$DW$1020, DW_AT_type(*$C$DW$T$142)
    9240                      .dwattr $C$DW$1020, DW_AT_name("rsvd11_8")
    9241                      .dwattr $C$DW$1020, DW_AT_TI_symbol_name("_rsvd11_8")
    9242                      .dwattr $C$DW$1020, DW_AT_data_member_location[DW_OP_plus_uconst 0x10e]
    9243                      .dwattr $C$DW$1020, DW_AT_accessibility(DW_ACCESS_public)
    9244              $C$DW$1021      .dwtag  DW_TAG_member
    9245                      .dwattr $C$DW$1021, DW_AT_type(*$C$DW$T$142)
    9246                      .dwattr $C$DW$1021, DW_AT_name("XINT3")
    9247                      .dwattr $C$DW$1021, DW_AT_TI_symbol_name("_XINT3")
    9248                      .dwattr $C$DW$1021, DW_AT_data_member_location[DW_OP_plus_uconst 0x110]
    9249                      .dwattr $C$DW$1021, DW_AT_accessibility(DW_ACCESS_public)
    9250              $C$DW$1022      .dwtag  DW_TAG_member
    9251                      .dwattr $C$DW$1022, DW_AT_type(*$C$DW$T$142)
    9252                      .dwattr $C$DW$1022, DW_AT_name("rsvd12_2")
    9253                      .dwattr $C$DW$1022, DW_AT_TI_symbol_name("_rsvd12_2")
    9254                      .dwattr $C$DW$1022, DW_AT_data_member_location[DW_OP_plus_uconst 0x112]
    9255                      .dwattr $C$DW$1022, DW_AT_accessibility(DW_ACCESS_public)
    9256              $C$DW$1023      .dwtag  DW_TAG_member
    9257                      .dwattr $C$DW$1023, DW_AT_type(*$C$DW$T$142)
    9258                      .dwattr $C$DW$1023, DW_AT_name("rsvd12_3")
    9259                      .dwattr $C$DW$1023, DW_AT_TI_symbol_name("_rsvd12_3")
    9260                      .dwattr $C$DW$1023, DW_AT_data_member_location[DW_OP_plus_uconst 0x114]
    9261                      .dwattr $C$DW$1023, DW_AT_accessibility(DW_ACCESS_public)
    9262              $C$DW$1024      .dwtag  DW_TAG_member
    9263                      .dwattr $C$DW$1024, DW_AT_type(*$C$DW$T$142)
    9264                      .dwattr $C$DW$1024, DW_AT_name("rsvd12_4")
    9265                      .dwattr $C$DW$1024, DW_AT_TI_symbol_name("_rsvd12_4")
    9266                      .dwattr $C$DW$1024, DW_AT_data_member_location[DW_OP_plus_uconst 0x116]
    9267                      .dwattr $C$DW$1024, DW_AT_accessibility(DW_ACCESS_public)
    9268              $C$DW$1025      .dwtag  DW_TAG_member
    9269                      .dwattr $C$DW$1025, DW_AT_type(*$C$DW$T$142)
    9270                      .dwattr $C$DW$1025, DW_AT_name("rsvd12_5")
    9271                      .dwattr $C$DW$1025, DW_AT_TI_symbol_name("_rsvd12_5")
TMS320C2000 Assembler PC v6.2.5 Tue Jun 27 16:56:14 2017

Tools Copyright (c) 1996-2014 Texas Instruments Incorporated
C:\Users\wmj\AppData\Local\Temp\1139610                              PAGE  176

    9272                      .dwattr $C$DW$1025, DW_AT_data_member_location[DW_OP_plus_uconst 0x118]
    9273                      .dwattr $C$DW$1025, DW_AT_accessibility(DW_ACCESS_public)
    9274              $C$DW$1026      .dwtag  DW_TAG_member
    9275                      .dwattr $C$DW$1026, DW_AT_type(*$C$DW$T$142)
    9276                      .dwattr $C$DW$1026, DW_AT_name("rsvd12_6")
    9277                      .dwattr $C$DW$1026, DW_AT_TI_symbol_name("_rsvd12_6")
    9278                      .dwattr $C$DW$1026, DW_AT_data_member_location[DW_OP_plus_uconst 0x11a]
    9279                      .dwattr $C$DW$1026, DW_AT_accessibility(DW_ACCESS_public)
    9280              $C$DW$1027      .dwtag  DW_TAG_member
    9281                      .dwattr $C$DW$1027, DW_AT_type(*$C$DW$T$142)
    9282                      .dwattr $C$DW$1027, DW_AT_name("rsvd12_7")
    9283                      .dwattr $C$DW$1027, DW_AT_TI_symbol_name("_rsvd12_7")
    9284                      .dwattr $C$DW$1027, DW_AT_data_member_location[DW_OP_plus_uconst 0x11c]
    9285                      .dwattr $C$DW$1027, DW_AT_accessibility(DW_ACCESS_public)
    9286              $C$DW$1028      .dwtag  DW_TAG_member
    9287                      .dwattr $C$DW$1028, DW_AT_type(*$C$DW$T$142)
    9288                      .dwattr $C$DW$1028, DW_AT_name("rsvd12_8")
    9289                      .dwattr $C$DW$1028, DW_AT_TI_symbol_name("_rsvd12_8")
    9290                      .dwattr $C$DW$1028, DW_AT_data_member_location[DW_OP_plus_uconst 0x11e]
    9291                      .dwattr $C$DW$1028, DW_AT_accessibility(DW_ACCESS_public)
    9292              $C$DW$1029      .dwtag  DW_TAG_member
    9293                      .dwattr $C$DW$1029, DW_AT_type(*$C$DW$T$143)
    9294                      .dwattr $C$DW$1029, DW_AT_name("rsvd13")
    9295                      .dwattr $C$DW$1029, DW_AT_TI_symbol_name("_rsvd13")
    9296                      .dwattr $C$DW$1029, DW_AT_data_member_location[DW_OP_plus_uconst 0x120]
    9297                      .dwattr $C$DW$1029, DW_AT_accessibility(DW_ACCESS_public)
    9298              $C$DW$1030      .dwtag  DW_TAG_member
    9299                      .dwattr $C$DW$1030, DW_AT_type(*$C$DW$T$29)
    9300                      .dwattr $C$DW$1030, DW_AT_name("XINTnCR")
    9301                      .dwattr $C$DW$1030, DW_AT_TI_symbol_name("_XINTnCR")
    9302                      .dwattr $C$DW$1030, DW_AT_data_member_location[DW_OP_plus_uconst 0x6390]
    9303                      .dwattr $C$DW$1030, DW_AT_accessibility(DW_ACCESS_public)
    9304              $C$DW$1031      .dwtag  DW_TAG_member
    9305                      .dwattr $C$DW$1031, DW_AT_type(*$C$DW$T$28)
    9306                      .dwattr $C$DW$1031, DW_AT_name("rsvd14")
    9307                      .dwattr $C$DW$1031, DW_AT_TI_symbol_name("_rsvd14")
    9308                      .dwattr $C$DW$1031, DW_AT_data_member_location[DW_OP_plus_uconst 0x6393]
    9309                      .dwattr $C$DW$1031, DW_AT_accessibility(DW_ACCESS_public)
    9310              $C$DW$1032      .dwtag  DW_TAG_member
    9311                      .dwattr $C$DW$1032, DW_AT_type(*$C$DW$T$29)
    9312                      .dwattr $C$DW$1032, DW_AT_name("XINTnCTR")
    9313                      .dwattr $C$DW$1032, DW_AT_TI_symbol_name("_XINTnCTR")
    9314                      .dwattr $C$DW$1032, DW_AT_data_member_location[DW_OP_plus_uconst 0x6398]
    9315                      .dwattr $C$DW$1032, DW_AT_accessibility(DW_ACCESS_public)
    9316                      .dwendtag $C$DW$T$144
    9317              
    9318              $C$DW$T$100     .dwtag  DW_TAG_pointer_type
    9319                      .dwattr $C$DW$T$100, DW_AT_type(*$C$DW$T$144)
    9320                      .dwattr $C$DW$T$100, DW_AT_address_class(0x16)
    9321              $C$DW$T$101     .dwtag  DW_TAG_typedef, DW_AT_name("PIE_Handle")
    9322                      .dwattr $C$DW$T$101, DW_AT_type(*$C$DW$T$100)
    9323                      .dwattr $C$DW$T$101, DW_AT_language(DW_LANG_C)
    9324              
    9325              $C$DW$T$145     .dwtag  DW_TAG_structure_type
    9326                      .dwattr $C$DW$T$145, DW_AT_name("_PLL_Obj_")
TMS320C2000 Assembler PC v6.2.5 Tue Jun 27 16:56:14 2017

Tools Copyright (c) 1996-2014 Texas Instruments Incorporated
C:\Users\wmj\AppData\Local\Temp\1139610                              PAGE  177

    9327                      .dwattr $C$DW$T$145, DW_AT_byte_size(0x11)
    9328              $C$DW$1033      .dwtag  DW_TAG_member
    9329                      .dwattr $C$DW$1033, DW_AT_type(*$C$DW$T$24)
    9330                      .dwattr $C$DW$1033, DW_AT_name("PLLSTS")
    9331                      .dwattr $C$DW$1033, DW_AT_TI_symbol_name("_PLLSTS")
    9332                      .dwattr $C$DW$1033, DW_AT_data_member_location[DW_OP_plus_uconst 0x0]
    9333                      .dwattr $C$DW$1033, DW_AT_accessibility(DW_ACCESS_public)
    9334              $C$DW$1034      .dwtag  DW_TAG_member
    9335                      .dwattr $C$DW$1034, DW_AT_type(*$C$DW$T$24)
    9336                      .dwattr $C$DW$1034, DW_AT_name("rsvd_1")
    9337                      .dwattr $C$DW$1034, DW_AT_TI_symbol_name("_rsvd_1")
    9338                      .dwattr $C$DW$1034, DW_AT_data_member_location[DW_OP_plus_uconst 0x1]
    9339                      .dwattr $C$DW$1034, DW_AT_accessibility(DW_ACCESS_public)
    9340              $C$DW$1035      .dwtag  DW_TAG_member
    9341                      .dwattr $C$DW$1035, DW_AT_type(*$C$DW$T$24)
    9342                      .dwattr $C$DW$1035, DW_AT_name("PLLLOCKPRD")
    9343                      .dwattr $C$DW$1035, DW_AT_TI_symbol_name("_PLLLOCKPRD")
    9344                      .dwattr $C$DW$1035, DW_AT_data_member_location[DW_OP_plus_uconst 0x2]
    9345                      .dwattr $C$DW$1035, DW_AT_accessibility(DW_ACCESS_public)
    9346              $C$DW$1036      .dwtag  DW_TAG_member
    9347                      .dwattr $C$DW$1036, DW_AT_type(*$C$DW$T$30)
    9348                      .dwattr $C$DW$1036, DW_AT_name("rsvd_2")
    9349                      .dwattr $C$DW$1036, DW_AT_TI_symbol_name("_rsvd_2")
    9350                      .dwattr $C$DW$1036, DW_AT_data_member_location[DW_OP_plus_uconst 0x3]
    9351                      .dwattr $C$DW$1036, DW_AT_accessibility(DW_ACCESS_public)
    9352              $C$DW$1037      .dwtag  DW_TAG_member
    9353                      .dwattr $C$DW$1037, DW_AT_type(*$C$DW$T$24)
    9354                      .dwattr $C$DW$1037, DW_AT_name("PLLCR")
    9355                      .dwattr $C$DW$1037, DW_AT_TI_symbol_name("_PLLCR")
    9356                      .dwattr $C$DW$1037, DW_AT_data_member_location[DW_OP_plus_uconst 0x10]
    9357                      .dwattr $C$DW$1037, DW_AT_accessibility(DW_ACCESS_public)
    9358                      .dwendtag $C$DW$T$145
    9359              
    9360              $C$DW$T$102     .dwtag  DW_TAG_pointer_type
    9361                      .dwattr $C$DW$T$102, DW_AT_type(*$C$DW$T$145)
    9362                      .dwattr $C$DW$T$102, DW_AT_address_class(0x16)
    9363              $C$DW$T$103     .dwtag  DW_TAG_typedef, DW_AT_name("PLL_Handle")
    9364                      .dwattr $C$DW$T$103, DW_AT_type(*$C$DW$T$102)
    9365                      .dwattr $C$DW$T$103, DW_AT_language(DW_LANG_C)
    9366              
    9367              $C$DW$T$146     .dwtag  DW_TAG_structure_type
    9368                      .dwattr $C$DW$T$146, DW_AT_name("_PWM_Obj_")
    9369                      .dwattr $C$DW$T$146, DW_AT_byte_size(0x3a)
    9370              $C$DW$1038      .dwtag  DW_TAG_member
    9371                      .dwattr $C$DW$1038, DW_AT_type(*$C$DW$T$24)
    9372                      .dwattr $C$DW$1038, DW_AT_name("TBCTL")
    9373                      .dwattr $C$DW$1038, DW_AT_TI_symbol_name("_TBCTL")
    9374                      .dwattr $C$DW$1038, DW_AT_data_member_location[DW_OP_plus_uconst 0x0]
    9375                      .dwattr $C$DW$1038, DW_AT_accessibility(DW_ACCESS_public)
    9376              $C$DW$1039      .dwtag  DW_TAG_member
    9377                      .dwattr $C$DW$1039, DW_AT_type(*$C$DW$T$24)
    9378                      .dwattr $C$DW$1039, DW_AT_name("TBSTS")
    9379                      .dwattr $C$DW$1039, DW_AT_TI_symbol_name("_TBSTS")
    9380                      .dwattr $C$DW$1039, DW_AT_data_member_location[DW_OP_plus_uconst 0x1]
    9381                      .dwattr $C$DW$1039, DW_AT_accessibility(DW_ACCESS_public)
TMS320C2000 Assembler PC v6.2.5 Tue Jun 27 16:56:14 2017

Tools Copyright (c) 1996-2014 Texas Instruments Incorporated
C:\Users\wmj\AppData\Local\Temp\1139610                              PAGE  178

    9382              $C$DW$1040      .dwtag  DW_TAG_member
    9383                      .dwattr $C$DW$1040, DW_AT_type(*$C$DW$T$24)
    9384                      .dwattr $C$DW$1040, DW_AT_name("TBPHSHR")
    9385                      .dwattr $C$DW$1040, DW_AT_TI_symbol_name("_TBPHSHR")
    9386                      .dwattr $C$DW$1040, DW_AT_data_member_location[DW_OP_plus_uconst 0x2]
    9387                      .dwattr $C$DW$1040, DW_AT_accessibility(DW_ACCESS_public)
    9388              $C$DW$1041      .dwtag  DW_TAG_member
    9389                      .dwattr $C$DW$1041, DW_AT_type(*$C$DW$T$24)
    9390                      .dwattr $C$DW$1041, DW_AT_name("TBPHS")
    9391                      .dwattr $C$DW$1041, DW_AT_TI_symbol_name("_TBPHS")
    9392                      .dwattr $C$DW$1041, DW_AT_data_member_location[DW_OP_plus_uconst 0x3]
    9393                      .dwattr $C$DW$1041, DW_AT_accessibility(DW_ACCESS_public)
    9394              $C$DW$1042      .dwtag  DW_TAG_member
    9395                      .dwattr $C$DW$1042, DW_AT_type(*$C$DW$T$24)
    9396                      .dwattr $C$DW$1042, DW_AT_name("TBCTR")
    9397                      .dwattr $C$DW$1042, DW_AT_TI_symbol_name("_TBCTR")
    9398                      .dwattr $C$DW$1042, DW_AT_data_member_location[DW_OP_plus_uconst 0x4]
    9399                      .dwattr $C$DW$1042, DW_AT_accessibility(DW_ACCESS_public)
    9400              $C$DW$1043      .dwtag  DW_TAG_member
    9401                      .dwattr $C$DW$1043, DW_AT_type(*$C$DW$T$24)
    9402                      .dwattr $C$DW$1043, DW_AT_name("TBPRD")
    9403                      .dwattr $C$DW$1043, DW_AT_TI_symbol_name("_TBPRD")
    9404                      .dwattr $C$DW$1043, DW_AT_data_member_location[DW_OP_plus_uconst 0x5]
    9405                      .dwattr $C$DW$1043, DW_AT_accessibility(DW_ACCESS_public)
    9406              $C$DW$1044      .dwtag  DW_TAG_member
    9407                      .dwattr $C$DW$1044, DW_AT_type(*$C$DW$T$24)
    9408                      .dwattr $C$DW$1044, DW_AT_name("TBPRDHR")
    9409                      .dwattr $C$DW$1044, DW_AT_TI_symbol_name("_TBPRDHR")
    9410                      .dwattr $C$DW$1044, DW_AT_data_member_location[DW_OP_plus_uconst 0x6]
    9411                      .dwattr $C$DW$1044, DW_AT_accessibility(DW_ACCESS_public)
    9412              $C$DW$1045      .dwtag  DW_TAG_member
    9413                      .dwattr $C$DW$1045, DW_AT_type(*$C$DW$T$24)
    9414                      .dwattr $C$DW$1045, DW_AT_name("CMPCTL")
    9415                      .dwattr $C$DW$1045, DW_AT_TI_symbol_name("_CMPCTL")
    9416                      .dwattr $C$DW$1045, DW_AT_data_member_location[DW_OP_plus_uconst 0x7]
    9417                      .dwattr $C$DW$1045, DW_AT_accessibility(DW_ACCESS_public)
    9418              $C$DW$1046      .dwtag  DW_TAG_member
    9419                      .dwattr $C$DW$1046, DW_AT_type(*$C$DW$T$24)
    9420                      .dwattr $C$DW$1046, DW_AT_name("CMPAHR")
    9421                      .dwattr $C$DW$1046, DW_AT_TI_symbol_name("_CMPAHR")
    9422                      .dwattr $C$DW$1046, DW_AT_data_member_location[DW_OP_plus_uconst 0x8]
    9423                      .dwattr $C$DW$1046, DW_AT_accessibility(DW_ACCESS_public)
    9424              $C$DW$1047      .dwtag  DW_TAG_member
    9425                      .dwattr $C$DW$1047, DW_AT_type(*$C$DW$T$24)
    9426                      .dwattr $C$DW$1047, DW_AT_name("CMPA")
    9427                      .dwattr $C$DW$1047, DW_AT_TI_symbol_name("_CMPA")
    9428                      .dwattr $C$DW$1047, DW_AT_data_member_location[DW_OP_plus_uconst 0x9]
    9429                      .dwattr $C$DW$1047, DW_AT_accessibility(DW_ACCESS_public)
    9430              $C$DW$1048      .dwtag  DW_TAG_member
    9431                      .dwattr $C$DW$1048, DW_AT_type(*$C$DW$T$24)
    9432                      .dwattr $C$DW$1048, DW_AT_name("CMPB")
    9433                      .dwattr $C$DW$1048, DW_AT_TI_symbol_name("_CMPB")
    9434                      .dwattr $C$DW$1048, DW_AT_data_member_location[DW_OP_plus_uconst 0xa]
    9435                      .dwattr $C$DW$1048, DW_AT_accessibility(DW_ACCESS_public)
    9436              $C$DW$1049      .dwtag  DW_TAG_member
TMS320C2000 Assembler PC v6.2.5 Tue Jun 27 16:56:14 2017

Tools Copyright (c) 1996-2014 Texas Instruments Incorporated
C:\Users\wmj\AppData\Local\Temp\1139610                              PAGE  179

    9437                      .dwattr $C$DW$1049, DW_AT_type(*$C$DW$T$24)
    9438                      .dwattr $C$DW$1049, DW_AT_name("AQCTLA")
    9439                      .dwattr $C$DW$1049, DW_AT_TI_symbol_name("_AQCTLA")
    9440                      .dwattr $C$DW$1049, DW_AT_data_member_location[DW_OP_plus_uconst 0xb]
    9441                      .dwattr $C$DW$1049, DW_AT_accessibility(DW_ACCESS_public)
    9442              $C$DW$1050      .dwtag  DW_TAG_member
    9443                      .dwattr $C$DW$1050, DW_AT_type(*$C$DW$T$24)
    9444                      .dwattr $C$DW$1050, DW_AT_name("AQCTLB")
    9445                      .dwattr $C$DW$1050, DW_AT_TI_symbol_name("_AQCTLB")
    9446                      .dwattr $C$DW$1050, DW_AT_data_member_location[DW_OP_plus_uconst 0xc]
    9447                      .dwattr $C$DW$1050, DW_AT_accessibility(DW_ACCESS_public)
    9448              $C$DW$1051      .dwtag  DW_TAG_member
    9449                      .dwattr $C$DW$1051, DW_AT_type(*$C$DW$T$24)
    9450                      .dwattr $C$DW$1051, DW_AT_name("AQSFRC")
    9451                      .dwattr $C$DW$1051, DW_AT_TI_symbol_name("_AQSFRC")
    9452                      .dwattr $C$DW$1051, DW_AT_data_member_location[DW_OP_plus_uconst 0xd]
    9453                      .dwattr $C$DW$1051, DW_AT_accessibility(DW_ACCESS_public)
    9454              $C$DW$1052      .dwtag  DW_TAG_member
    9455                      .dwattr $C$DW$1052, DW_AT_type(*$C$DW$T$24)
    9456                      .dwattr $C$DW$1052, DW_AT_name("AQCSFRC")
    9457                      .dwattr $C$DW$1052, DW_AT_TI_symbol_name("_AQCSFRC")
    9458                      .dwattr $C$DW$1052, DW_AT_data_member_location[DW_OP_plus_uconst 0xe]
    9459                      .dwattr $C$DW$1052, DW_AT_accessibility(DW_ACCESS_public)
    9460              $C$DW$1053      .dwtag  DW_TAG_member
    9461                      .dwattr $C$DW$1053, DW_AT_type(*$C$DW$T$24)
    9462                      .dwattr $C$DW$1053, DW_AT_name("DBCTL")
    9463                      .dwattr $C$DW$1053, DW_AT_TI_symbol_name("_DBCTL")
    9464                      .dwattr $C$DW$1053, DW_AT_data_member_location[DW_OP_plus_uconst 0xf]
    9465                      .dwattr $C$DW$1053, DW_AT_accessibility(DW_ACCESS_public)
    9466              $C$DW$1054      .dwtag  DW_TAG_member
    9467                      .dwattr $C$DW$1054, DW_AT_type(*$C$DW$T$24)
    9468                      .dwattr $C$DW$1054, DW_AT_name("DBRED")
    9469                      .dwattr $C$DW$1054, DW_AT_TI_symbol_name("_DBRED")
    9470                      .dwattr $C$DW$1054, DW_AT_data_member_location[DW_OP_plus_uconst 0x10]
    9471                      .dwattr $C$DW$1054, DW_AT_accessibility(DW_ACCESS_public)
    9472              $C$DW$1055      .dwtag  DW_TAG_member
    9473                      .dwattr $C$DW$1055, DW_AT_type(*$C$DW$T$24)
    9474                      .dwattr $C$DW$1055, DW_AT_name("DBFED")
    9475                      .dwattr $C$DW$1055, DW_AT_TI_symbol_name("_DBFED")
    9476                      .dwattr $C$DW$1055, DW_AT_data_member_location[DW_OP_plus_uconst 0x11]
    9477                      .dwattr $C$DW$1055, DW_AT_accessibility(DW_ACCESS_public)
    9478              $C$DW$1056      .dwtag  DW_TAG_member
    9479                      .dwattr $C$DW$1056, DW_AT_type(*$C$DW$T$24)
    9480                      .dwattr $C$DW$1056, DW_AT_name("TZSEL")
    9481                      .dwattr $C$DW$1056, DW_AT_TI_symbol_name("_TZSEL")
    9482                      .dwattr $C$DW$1056, DW_AT_data_member_location[DW_OP_plus_uconst 0x12]
    9483                      .dwattr $C$DW$1056, DW_AT_accessibility(DW_ACCESS_public)
    9484              $C$DW$1057      .dwtag  DW_TAG_member
    9485                      .dwattr $C$DW$1057, DW_AT_type(*$C$DW$T$24)
    9486                      .dwattr $C$DW$1057, DW_AT_name("TZDCSEL")
    9487                      .dwattr $C$DW$1057, DW_AT_TI_symbol_name("_TZDCSEL")
    9488                      .dwattr $C$DW$1057, DW_AT_data_member_location[DW_OP_plus_uconst 0x13]
    9489                      .dwattr $C$DW$1057, DW_AT_accessibility(DW_ACCESS_public)
    9490              $C$DW$1058      .dwtag  DW_TAG_member
    9491                      .dwattr $C$DW$1058, DW_AT_type(*$C$DW$T$24)
TMS320C2000 Assembler PC v6.2.5 Tue Jun 27 16:56:14 2017

Tools Copyright (c) 1996-2014 Texas Instruments Incorporated
C:\Users\wmj\AppData\Local\Temp\1139610                              PAGE  180

    9492                      .dwattr $C$DW$1058, DW_AT_name("TZCTL")
    9493                      .dwattr $C$DW$1058, DW_AT_TI_symbol_name("_TZCTL")
    9494                      .dwattr $C$DW$1058, DW_AT_data_member_location[DW_OP_plus_uconst 0x14]
    9495                      .dwattr $C$DW$1058, DW_AT_accessibility(DW_ACCESS_public)
    9496              $C$DW$1059      .dwtag  DW_TAG_member
    9497                      .dwattr $C$DW$1059, DW_AT_type(*$C$DW$T$24)
    9498                      .dwattr $C$DW$1059, DW_AT_name("TZEINT")
    9499                      .dwattr $C$DW$1059, DW_AT_TI_symbol_name("_TZEINT")
    9500                      .dwattr $C$DW$1059, DW_AT_data_member_location[DW_OP_plus_uconst 0x15]
    9501                      .dwattr $C$DW$1059, DW_AT_accessibility(DW_ACCESS_public)
    9502              $C$DW$1060      .dwtag  DW_TAG_member
    9503                      .dwattr $C$DW$1060, DW_AT_type(*$C$DW$T$24)
    9504                      .dwattr $C$DW$1060, DW_AT_name("TZFLG")
    9505                      .dwattr $C$DW$1060, DW_AT_TI_symbol_name("_TZFLG")
    9506                      .dwattr $C$DW$1060, DW_AT_data_member_location[DW_OP_plus_uconst 0x16]
    9507                      .dwattr $C$DW$1060, DW_AT_accessibility(DW_ACCESS_public)
    9508              $C$DW$1061      .dwtag  DW_TAG_member
    9509                      .dwattr $C$DW$1061, DW_AT_type(*$C$DW$T$24)
    9510                      .dwattr $C$DW$1061, DW_AT_name("TZCLR")
    9511                      .dwattr $C$DW$1061, DW_AT_TI_symbol_name("_TZCLR")
    9512                      .dwattr $C$DW$1061, DW_AT_data_member_location[DW_OP_plus_uconst 0x17]
    9513                      .dwattr $C$DW$1061, DW_AT_accessibility(DW_ACCESS_public)
    9514              $C$DW$1062      .dwtag  DW_TAG_member
    9515                      .dwattr $C$DW$1062, DW_AT_type(*$C$DW$T$24)
    9516                      .dwattr $C$DW$1062, DW_AT_name("TZFRC")
    9517                      .dwattr $C$DW$1062, DW_AT_TI_symbol_name("_TZFRC")
    9518                      .dwattr $C$DW$1062, DW_AT_data_member_location[DW_OP_plus_uconst 0x18]
    9519                      .dwattr $C$DW$1062, DW_AT_accessibility(DW_ACCESS_public)
    9520              $C$DW$1063      .dwtag  DW_TAG_member
    9521                      .dwattr $C$DW$1063, DW_AT_type(*$C$DW$T$24)
    9522                      .dwattr $C$DW$1063, DW_AT_name("ETSEL")
    9523                      .dwattr $C$DW$1063, DW_AT_TI_symbol_name("_ETSEL")
    9524                      .dwattr $C$DW$1063, DW_AT_data_member_location[DW_OP_plus_uconst 0x19]
    9525                      .dwattr $C$DW$1063, DW_AT_accessibility(DW_ACCESS_public)
    9526              $C$DW$1064      .dwtag  DW_TAG_member
    9527                      .dwattr $C$DW$1064, DW_AT_type(*$C$DW$T$24)
    9528                      .dwattr $C$DW$1064, DW_AT_name("ETPS")
    9529                      .dwattr $C$DW$1064, DW_AT_TI_symbol_name("_ETPS")
    9530                      .dwattr $C$DW$1064, DW_AT_data_member_location[DW_OP_plus_uconst 0x1a]
    9531                      .dwattr $C$DW$1064, DW_AT_accessibility(DW_ACCESS_public)
    9532              $C$DW$1065      .dwtag  DW_TAG_member
    9533                      .dwattr $C$DW$1065, DW_AT_type(*$C$DW$T$24)
    9534                      .dwattr $C$DW$1065, DW_AT_name("ETFLG")
    9535                      .dwattr $C$DW$1065, DW_AT_TI_symbol_name("_ETFLG")
    9536                      .dwattr $C$DW$1065, DW_AT_data_member_location[DW_OP_plus_uconst 0x1b]
    9537                      .dwattr $C$DW$1065, DW_AT_accessibility(DW_ACCESS_public)
    9538              $C$DW$1066      .dwtag  DW_TAG_member
    9539                      .dwattr $C$DW$1066, DW_AT_type(*$C$DW$T$24)
    9540                      .dwattr $C$DW$1066, DW_AT_name("ETCLR")
    9541                      .dwattr $C$DW$1066, DW_AT_TI_symbol_name("_ETCLR")
    9542                      .dwattr $C$DW$1066, DW_AT_data_member_location[DW_OP_plus_uconst 0x1c]
    9543                      .dwattr $C$DW$1066, DW_AT_accessibility(DW_ACCESS_public)
    9544              $C$DW$1067      .dwtag  DW_TAG_member
    9545                      .dwattr $C$DW$1067, DW_AT_type(*$C$DW$T$24)
    9546                      .dwattr $C$DW$1067, DW_AT_name("ETFRC")
TMS320C2000 Assembler PC v6.2.5 Tue Jun 27 16:56:14 2017

Tools Copyright (c) 1996-2014 Texas Instruments Incorporated
C:\Users\wmj\AppData\Local\Temp\1139610                              PAGE  181

    9547                      .dwattr $C$DW$1067, DW_AT_TI_symbol_name("_ETFRC")
    9548                      .dwattr $C$DW$1067, DW_AT_data_member_location[DW_OP_plus_uconst 0x1d]
    9549                      .dwattr $C$DW$1067, DW_AT_accessibility(DW_ACCESS_public)
    9550              $C$DW$1068      .dwtag  DW_TAG_member
    9551                      .dwattr $C$DW$1068, DW_AT_type(*$C$DW$T$24)
    9552                      .dwattr $C$DW$1068, DW_AT_name("PCCTL")
    9553                      .dwattr $C$DW$1068, DW_AT_TI_symbol_name("_PCCTL")
    9554                      .dwattr $C$DW$1068, DW_AT_data_member_location[DW_OP_plus_uconst 0x1e]
    9555                      .dwattr $C$DW$1068, DW_AT_accessibility(DW_ACCESS_public)
    9556              $C$DW$1069      .dwtag  DW_TAG_member
    9557                      .dwattr $C$DW$1069, DW_AT_type(*$C$DW$T$24)
    9558                      .dwattr $C$DW$1069, DW_AT_name("rsvd_1")
    9559                      .dwattr $C$DW$1069, DW_AT_TI_symbol_name("_rsvd_1")
    9560                      .dwattr $C$DW$1069, DW_AT_data_member_location[DW_OP_plus_uconst 0x1f]
    9561                      .dwattr $C$DW$1069, DW_AT_accessibility(DW_ACCESS_public)
    9562              $C$DW$1070      .dwtag  DW_TAG_member
    9563                      .dwattr $C$DW$1070, DW_AT_type(*$C$DW$T$24)
    9564                      .dwattr $C$DW$1070, DW_AT_name("HRCNFG")
    9565                      .dwattr $C$DW$1070, DW_AT_TI_symbol_name("_HRCNFG")
    9566                      .dwattr $C$DW$1070, DW_AT_data_member_location[DW_OP_plus_uconst 0x20]
    9567                      .dwattr $C$DW$1070, DW_AT_accessibility(DW_ACCESS_public)
    9568              $C$DW$1071      .dwtag  DW_TAG_member
    9569                      .dwattr $C$DW$1071, DW_AT_type(*$C$DW$T$24)
    9570                      .dwattr $C$DW$1071, DW_AT_name("HRPWR")
    9571                      .dwattr $C$DW$1071, DW_AT_TI_symbol_name("_HRPWR")
    9572                      .dwattr $C$DW$1071, DW_AT_data_member_location[DW_OP_plus_uconst 0x21]
    9573                      .dwattr $C$DW$1071, DW_AT_accessibility(DW_ACCESS_public)
    9574              $C$DW$1072      .dwtag  DW_TAG_member
    9575                      .dwattr $C$DW$1072, DW_AT_type(*$C$DW$T$79)
    9576                      .dwattr $C$DW$1072, DW_AT_name("rsvd_2")
    9577                      .dwattr $C$DW$1072, DW_AT_TI_symbol_name("_rsvd_2")
    9578                      .dwattr $C$DW$1072, DW_AT_data_member_location[DW_OP_plus_uconst 0x22]
    9579                      .dwattr $C$DW$1072, DW_AT_accessibility(DW_ACCESS_public)
    9580              $C$DW$1073      .dwtag  DW_TAG_member
    9581                      .dwattr $C$DW$1073, DW_AT_type(*$C$DW$T$24)
    9582                      .dwattr $C$DW$1073, DW_AT_name("HRMSTEP")
    9583                      .dwattr $C$DW$1073, DW_AT_TI_symbol_name("_HRMSTEP")
    9584                      .dwattr $C$DW$1073, DW_AT_data_member_location[DW_OP_plus_uconst 0x26]
    9585                      .dwattr $C$DW$1073, DW_AT_accessibility(DW_ACCESS_public)
    9586              $C$DW$1074      .dwtag  DW_TAG_member
    9587                      .dwattr $C$DW$1074, DW_AT_type(*$C$DW$T$24)
    9588                      .dwattr $C$DW$1074, DW_AT_name("rsvd_3")
    9589                      .dwattr $C$DW$1074, DW_AT_TI_symbol_name("_rsvd_3")
    9590                      .dwattr $C$DW$1074, DW_AT_data_member_location[DW_OP_plus_uconst 0x27]
    9591                      .dwattr $C$DW$1074, DW_AT_accessibility(DW_ACCESS_public)
    9592              $C$DW$1075      .dwtag  DW_TAG_member
    9593                      .dwattr $C$DW$1075, DW_AT_type(*$C$DW$T$24)
    9594                      .dwattr $C$DW$1075, DW_AT_name("HRPCTL")
    9595                      .dwattr $C$DW$1075, DW_AT_TI_symbol_name("_HRPCTL")
    9596                      .dwattr $C$DW$1075, DW_AT_data_member_location[DW_OP_plus_uconst 0x28]
    9597                      .dwattr $C$DW$1075, DW_AT_accessibility(DW_ACCESS_public)
    9598              $C$DW$1076      .dwtag  DW_TAG_member
    9599                      .dwattr $C$DW$1076, DW_AT_type(*$C$DW$T$24)
    9600                      .dwattr $C$DW$1076, DW_AT_name("rsvd_4")
    9601                      .dwattr $C$DW$1076, DW_AT_TI_symbol_name("_rsvd_4")
TMS320C2000 Assembler PC v6.2.5 Tue Jun 27 16:56:14 2017

Tools Copyright (c) 1996-2014 Texas Instruments Incorporated
C:\Users\wmj\AppData\Local\Temp\1139610                              PAGE  182

    9602                      .dwattr $C$DW$1076, DW_AT_data_member_location[DW_OP_plus_uconst 0x29]
    9603                      .dwattr $C$DW$1076, DW_AT_accessibility(DW_ACCESS_public)
    9604              $C$DW$1077      .dwtag  DW_TAG_member
    9605                      .dwattr $C$DW$1077, DW_AT_type(*$C$DW$T$24)
    9606                      .dwattr $C$DW$1077, DW_AT_name("TBPRDHRM")
    9607                      .dwattr $C$DW$1077, DW_AT_TI_symbol_name("_TBPRDHRM")
    9608                      .dwattr $C$DW$1077, DW_AT_data_member_location[DW_OP_plus_uconst 0x2a]
    9609                      .dwattr $C$DW$1077, DW_AT_accessibility(DW_ACCESS_public)
    9610              $C$DW$1078      .dwtag  DW_TAG_member
    9611                      .dwattr $C$DW$1078, DW_AT_type(*$C$DW$T$24)
    9612                      .dwattr $C$DW$1078, DW_AT_name("TBPRDM")
    9613                      .dwattr $C$DW$1078, DW_AT_TI_symbol_name("_TBPRDM")
    9614                      .dwattr $C$DW$1078, DW_AT_data_member_location[DW_OP_plus_uconst 0x2b]
    9615                      .dwattr $C$DW$1078, DW_AT_accessibility(DW_ACCESS_public)
    9616              $C$DW$1079      .dwtag  DW_TAG_member
    9617                      .dwattr $C$DW$1079, DW_AT_type(*$C$DW$T$24)
    9618                      .dwattr $C$DW$1079, DW_AT_name("CMPAHRM")
    9619                      .dwattr $C$DW$1079, DW_AT_TI_symbol_name("_CMPAHRM")
    9620                      .dwattr $C$DW$1079, DW_AT_data_member_location[DW_OP_plus_uconst 0x2c]
    9621                      .dwattr $C$DW$1079, DW_AT_accessibility(DW_ACCESS_public)
    9622              $C$DW$1080      .dwtag  DW_TAG_member
    9623                      .dwattr $C$DW$1080, DW_AT_type(*$C$DW$T$24)
    9624                      .dwattr $C$DW$1080, DW_AT_name("CMPAM")
    9625                      .dwattr $C$DW$1080, DW_AT_TI_symbol_name("_CMPAM")
    9626                      .dwattr $C$DW$1080, DW_AT_data_member_location[DW_OP_plus_uconst 0x2d]
    9627                      .dwattr $C$DW$1080, DW_AT_accessibility(DW_ACCESS_public)
    9628              $C$DW$1081      .dwtag  DW_TAG_member
    9629                      .dwattr $C$DW$1081, DW_AT_type(*$C$DW$T$27)
    9630                      .dwattr $C$DW$1081, DW_AT_name("rsvd_5")
    9631                      .dwattr $C$DW$1081, DW_AT_TI_symbol_name("_rsvd_5")
    9632                      .dwattr $C$DW$1081, DW_AT_data_member_location[DW_OP_plus_uconst 0x2e]
    9633                      .dwattr $C$DW$1081, DW_AT_accessibility(DW_ACCESS_public)
    9634              $C$DW$1082      .dwtag  DW_TAG_member
    9635                      .dwattr $C$DW$1082, DW_AT_type(*$C$DW$T$24)
    9636                      .dwattr $C$DW$1082, DW_AT_name("DCTRIPSEL")
    9637                      .dwattr $C$DW$1082, DW_AT_TI_symbol_name("_DCTRIPSEL")
    9638                      .dwattr $C$DW$1082, DW_AT_data_member_location[DW_OP_plus_uconst 0x30]
    9639                      .dwattr $C$DW$1082, DW_AT_accessibility(DW_ACCESS_public)
    9640              $C$DW$1083      .dwtag  DW_TAG_member
    9641                      .dwattr $C$DW$1083, DW_AT_type(*$C$DW$T$24)
    9642                      .dwattr $C$DW$1083, DW_AT_name("DCACTL")
    9643                      .dwattr $C$DW$1083, DW_AT_TI_symbol_name("_DCACTL")
    9644                      .dwattr $C$DW$1083, DW_AT_data_member_location[DW_OP_plus_uconst 0x31]
    9645                      .dwattr $C$DW$1083, DW_AT_accessibility(DW_ACCESS_public)
    9646              $C$DW$1084      .dwtag  DW_TAG_member
    9647                      .dwattr $C$DW$1084, DW_AT_type(*$C$DW$T$24)
    9648                      .dwattr $C$DW$1084, DW_AT_name("DCBCTL")
    9649                      .dwattr $C$DW$1084, DW_AT_TI_symbol_name("_DCBCTL")
    9650                      .dwattr $C$DW$1084, DW_AT_data_member_location[DW_OP_plus_uconst 0x32]
    9651                      .dwattr $C$DW$1084, DW_AT_accessibility(DW_ACCESS_public)
    9652              $C$DW$1085      .dwtag  DW_TAG_member
    9653                      .dwattr $C$DW$1085, DW_AT_type(*$C$DW$T$24)
    9654                      .dwattr $C$DW$1085, DW_AT_name("DCFCTL")
    9655                      .dwattr $C$DW$1085, DW_AT_TI_symbol_name("_DCFCTL")
    9656                      .dwattr $C$DW$1085, DW_AT_data_member_location[DW_OP_plus_uconst 0x33]
TMS320C2000 Assembler PC v6.2.5 Tue Jun 27 16:56:14 2017

Tools Copyright (c) 1996-2014 Texas Instruments Incorporated
C:\Users\wmj\AppData\Local\Temp\1139610                              PAGE  183

    9657                      .dwattr $C$DW$1085, DW_AT_accessibility(DW_ACCESS_public)
    9658              $C$DW$1086      .dwtag  DW_TAG_member
    9659                      .dwattr $C$DW$1086, DW_AT_type(*$C$DW$T$24)
    9660                      .dwattr $C$DW$1086, DW_AT_name("DCCAPCTL")
    9661                      .dwattr $C$DW$1086, DW_AT_TI_symbol_name("_DCCAPCTL")
    9662                      .dwattr $C$DW$1086, DW_AT_data_member_location[DW_OP_plus_uconst 0x34]
    9663                      .dwattr $C$DW$1086, DW_AT_accessibility(DW_ACCESS_public)
    9664              $C$DW$1087      .dwtag  DW_TAG_member
    9665                      .dwattr $C$DW$1087, DW_AT_type(*$C$DW$T$24)
    9666                      .dwattr $C$DW$1087, DW_AT_name("DCFOFFSET")
    9667                      .dwattr $C$DW$1087, DW_AT_TI_symbol_name("_DCFOFFSET")
    9668                      .dwattr $C$DW$1087, DW_AT_data_member_location[DW_OP_plus_uconst 0x35]
    9669                      .dwattr $C$DW$1087, DW_AT_accessibility(DW_ACCESS_public)
    9670              $C$DW$1088      .dwtag  DW_TAG_member
    9671                      .dwattr $C$DW$1088, DW_AT_type(*$C$DW$T$24)
    9672                      .dwattr $C$DW$1088, DW_AT_name("DCFOFFSETCNT")
    9673                      .dwattr $C$DW$1088, DW_AT_TI_symbol_name("_DCFOFFSETCNT")
    9674                      .dwattr $C$DW$1088, DW_AT_data_member_location[DW_OP_plus_uconst 0x36]
    9675                      .dwattr $C$DW$1088, DW_AT_accessibility(DW_ACCESS_public)
    9676              $C$DW$1089      .dwtag  DW_TAG_member
    9677                      .dwattr $C$DW$1089, DW_AT_type(*$C$DW$T$24)
    9678                      .dwattr $C$DW$1089, DW_AT_name("DCFWINDOW")
    9679                      .dwattr $C$DW$1089, DW_AT_TI_symbol_name("_DCFWINDOW")
    9680                      .dwattr $C$DW$1089, DW_AT_data_member_location[DW_OP_plus_uconst 0x37]
    9681                      .dwattr $C$DW$1089, DW_AT_accessibility(DW_ACCESS_public)
    9682              $C$DW$1090      .dwtag  DW_TAG_member
    9683                      .dwattr $C$DW$1090, DW_AT_type(*$C$DW$T$24)
    9684                      .dwattr $C$DW$1090, DW_AT_name("DCFWINDOWCNT")
    9685                      .dwattr $C$DW$1090, DW_AT_TI_symbol_name("_DCFWINDOWCNT")
    9686                      .dwattr $C$DW$1090, DW_AT_data_member_location[DW_OP_plus_uconst 0x38]
    9687                      .dwattr $C$DW$1090, DW_AT_accessibility(DW_ACCESS_public)
    9688              $C$DW$1091      .dwtag  DW_TAG_member
    9689                      .dwattr $C$DW$1091, DW_AT_type(*$C$DW$T$24)
    9690                      .dwattr $C$DW$1091, DW_AT_name("DCCAP")
    9691                      .dwattr $C$DW$1091, DW_AT_TI_symbol_name("_DCCAP")
    9692                      .dwattr $C$DW$1091, DW_AT_data_member_location[DW_OP_plus_uconst 0x39]
    9693                      .dwattr $C$DW$1091, DW_AT_accessibility(DW_ACCESS_public)
    9694                      .dwendtag $C$DW$T$146
    9695              
    9696              $C$DW$T$104     .dwtag  DW_TAG_pointer_type
    9697                      .dwattr $C$DW$T$104, DW_AT_type(*$C$DW$T$146)
    9698                      .dwattr $C$DW$T$104, DW_AT_address_class(0x16)
    9699              $C$DW$T$105     .dwtag  DW_TAG_typedef, DW_AT_name("PWM_Handle")
    9700                      .dwattr $C$DW$T$105, DW_AT_type(*$C$DW$T$104)
    9701                      .dwattr $C$DW$T$105, DW_AT_language(DW_LANG_C)
    9702              
    9703              $C$DW$T$106     .dwtag  DW_TAG_array_type
    9704                      .dwattr $C$DW$T$106, DW_AT_type(*$C$DW$T$105)
    9705                      .dwattr $C$DW$T$106, DW_AT_language(DW_LANG_C)
    9706                      .dwattr $C$DW$T$106, DW_AT_byte_size(0x06)
    9707              $C$DW$1092      .dwtag  DW_TAG_subrange_type
    9708                      .dwattr $C$DW$1092, DW_AT_upper_bound(0x02)
    9709                      .dwendtag $C$DW$T$106
    9710              
    9711              
TMS320C2000 Assembler PC v6.2.5 Tue Jun 27 16:56:14 2017

Tools Copyright (c) 1996-2014 Texas Instruments Incorporated
C:\Users\wmj\AppData\Local\Temp\1139610                              PAGE  184

    9712              $C$DW$T$148     .dwtag  DW_TAG_structure_type
    9713                      .dwattr $C$DW$T$148, DW_AT_name("_PWR_Obj_")
    9714                      .dwattr $C$DW$T$148, DW_AT_byte_size(0x669a)
    9715              $C$DW$1093      .dwtag  DW_TAG_member
    9716                      .dwattr $C$DW$1093, DW_AT_type(*$C$DW$T$24)
    9717                      .dwattr $C$DW$1093, DW_AT_name("BORCFG")
    9718                      .dwattr $C$DW$1093, DW_AT_TI_symbol_name("_BORCFG")
    9719                      .dwattr $C$DW$1093, DW_AT_data_member_location[DW_OP_plus_uconst 0x0]
    9720                      .dwattr $C$DW$1093, DW_AT_accessibility(DW_ACCESS_public)
    9721              $C$DW$1094      .dwtag  DW_TAG_member
    9722                      .dwattr $C$DW$1094, DW_AT_type(*$C$DW$T$147)
    9723                      .dwattr $C$DW$1094, DW_AT_name("rsvd_1")
    9724                      .dwattr $C$DW$1094, DW_AT_TI_symbol_name("_rsvd_1")
    9725                      .dwattr $C$DW$1094, DW_AT_data_member_location[DW_OP_plus_uconst 0x1]
    9726                      .dwattr $C$DW$1094, DW_AT_accessibility(DW_ACCESS_public)
    9727              $C$DW$1095      .dwtag  DW_TAG_member
    9728                      .dwattr $C$DW$1095, DW_AT_type(*$C$DW$T$24)
    9729                      .dwattr $C$DW$1095, DW_AT_name("LPMCR0")
    9730                      .dwattr $C$DW$1095, DW_AT_TI_symbol_name("_LPMCR0")
    9731                      .dwattr $C$DW$1095, DW_AT_data_member_location[DW_OP_plus_uconst 0x6699]
    9732                      .dwattr $C$DW$1095, DW_AT_accessibility(DW_ACCESS_public)
    9733                      .dwendtag $C$DW$T$148
    9734              
    9735              $C$DW$T$107     .dwtag  DW_TAG_pointer_type
    9736                      .dwattr $C$DW$T$107, DW_AT_type(*$C$DW$T$148)
    9737                      .dwattr $C$DW$T$107, DW_AT_address_class(0x16)
    9738              $C$DW$T$108     .dwtag  DW_TAG_typedef, DW_AT_name("PWR_Handle")
    9739                      .dwattr $C$DW$T$108, DW_AT_type(*$C$DW$T$107)
    9740                      .dwattr $C$DW$T$108, DW_AT_language(DW_LANG_C)
    9741              
    9742              $C$DW$T$149     .dwtag  DW_TAG_structure_type
    9743                      .dwattr $C$DW$T$149, DW_AT_name("_SVGEN_Obj_")
    9744                      .dwattr $C$DW$T$149, DW_AT_byte_size(0x02)
    9745              $C$DW$1096      .dwtag  DW_TAG_member
    9746                      .dwattr $C$DW$1096, DW_AT_type(*$C$DW$T$32)
    9747                      .dwattr $C$DW$1096, DW_AT_name("maxModulation")
    9748                      .dwattr $C$DW$1096, DW_AT_TI_symbol_name("_maxModulation")
    9749                      .dwattr $C$DW$1096, DW_AT_data_member_location[DW_OP_plus_uconst 0x0]
    9750                      .dwattr $C$DW$1096, DW_AT_accessibility(DW_ACCESS_public)
    9751                      .dwendtag $C$DW$T$149
    9752              
    9753              $C$DW$T$59      .dwtag  DW_TAG_typedef, DW_AT_name("SVGEN_Obj")
    9754                      .dwattr $C$DW$T$59, DW_AT_type(*$C$DW$T$149)
    9755                      .dwattr $C$DW$T$59, DW_AT_language(DW_LANG_C)
    9756              $C$DW$T$57      .dwtag  DW_TAG_pointer_type
    9757                      .dwattr $C$DW$T$57, DW_AT_type(*$C$DW$T$149)
    9758                      .dwattr $C$DW$T$57, DW_AT_address_class(0x16)
    9759              $C$DW$T$58      .dwtag  DW_TAG_typedef, DW_AT_name("SVGEN_Handle")
    9760                      .dwattr $C$DW$T$58, DW_AT_type(*$C$DW$T$57)
    9761                      .dwattr $C$DW$T$58, DW_AT_language(DW_LANG_C)
    9762              
    9763              $C$DW$T$150     .dwtag  DW_TAG_structure_type
    9764                      .dwattr $C$DW$T$150, DW_AT_name("_TIMER_Obj_")
    9765                      .dwattr $C$DW$T$150, DW_AT_byte_size(0x08)
    9766              $C$DW$1097      .dwtag  DW_TAG_member
TMS320C2000 Assembler PC v6.2.5 Tue Jun 27 16:56:14 2017

Tools Copyright (c) 1996-2014 Texas Instruments Incorporated
C:\Users\wmj\AppData\Local\Temp\1139610                              PAGE  185

    9767                      .dwattr $C$DW$1097, DW_AT_type(*$C$DW$T$77)
    9768                      .dwattr $C$DW$1097, DW_AT_name("TIM")
    9769                      .dwattr $C$DW$1097, DW_AT_TI_symbol_name("_TIM")
    9770                      .dwattr $C$DW$1097, DW_AT_data_member_location[DW_OP_plus_uconst 0x0]
    9771                      .dwattr $C$DW$1097, DW_AT_accessibility(DW_ACCESS_public)
    9772              $C$DW$1098      .dwtag  DW_TAG_member
    9773                      .dwattr $C$DW$1098, DW_AT_type(*$C$DW$T$77)
    9774                      .dwattr $C$DW$1098, DW_AT_name("PRD")
    9775                      .dwattr $C$DW$1098, DW_AT_TI_symbol_name("_PRD")
    9776                      .dwattr $C$DW$1098, DW_AT_data_member_location[DW_OP_plus_uconst 0x2]
    9777                      .dwattr $C$DW$1098, DW_AT_accessibility(DW_ACCESS_public)
    9778              $C$DW$1099      .dwtag  DW_TAG_member
    9779                      .dwattr $C$DW$1099, DW_AT_type(*$C$DW$T$24)
    9780                      .dwattr $C$DW$1099, DW_AT_name("TCR")
    9781                      .dwattr $C$DW$1099, DW_AT_TI_symbol_name("_TCR")
    9782                      .dwattr $C$DW$1099, DW_AT_data_member_location[DW_OP_plus_uconst 0x4]
    9783                      .dwattr $C$DW$1099, DW_AT_accessibility(DW_ACCESS_public)
    9784              $C$DW$1100      .dwtag  DW_TAG_member
    9785                      .dwattr $C$DW$1100, DW_AT_type(*$C$DW$T$24)
    9786                      .dwattr $C$DW$1100, DW_AT_name("resvd_1")
    9787                      .dwattr $C$DW$1100, DW_AT_TI_symbol_name("_resvd_1")
    9788                      .dwattr $C$DW$1100, DW_AT_data_member_location[DW_OP_plus_uconst 0x5]
    9789                      .dwattr $C$DW$1100, DW_AT_accessibility(DW_ACCESS_public)
    9790              $C$DW$1101      .dwtag  DW_TAG_member
    9791                      .dwattr $C$DW$1101, DW_AT_type(*$C$DW$T$77)
    9792                      .dwattr $C$DW$1101, DW_AT_name("TPR")
    9793                      .dwattr $C$DW$1101, DW_AT_TI_symbol_name("_TPR")
    9794                      .dwattr $C$DW$1101, DW_AT_data_member_location[DW_OP_plus_uconst 0x6]
    9795                      .dwattr $C$DW$1101, DW_AT_accessibility(DW_ACCESS_public)
    9796                      .dwendtag $C$DW$T$150
    9797              
    9798              $C$DW$T$109     .dwtag  DW_TAG_pointer_type
    9799                      .dwattr $C$DW$T$109, DW_AT_type(*$C$DW$T$150)
    9800                      .dwattr $C$DW$T$109, DW_AT_address_class(0x16)
    9801              $C$DW$T$110     .dwtag  DW_TAG_typedef, DW_AT_name("TIMER_Handle")
    9802                      .dwattr $C$DW$T$110, DW_AT_type(*$C$DW$T$109)
    9803                      .dwattr $C$DW$T$110, DW_AT_language(DW_LANG_C)
    9804              
    9805              $C$DW$T$111     .dwtag  DW_TAG_array_type
    9806                      .dwattr $C$DW$T$111, DW_AT_type(*$C$DW$T$110)
    9807                      .dwattr $C$DW$T$111, DW_AT_language(DW_LANG_C)
    9808                      .dwattr $C$DW$T$111, DW_AT_byte_size(0x06)
    9809              $C$DW$1102      .dwtag  DW_TAG_subrange_type
    9810                      .dwattr $C$DW$1102, DW_AT_upper_bound(0x02)
    9811                      .dwendtag $C$DW$T$111
    9812              
    9813              
    9814              $C$DW$T$151     .dwtag  DW_TAG_structure_type
    9815                      .dwattr $C$DW$T$151, DW_AT_name("_TRAJ_Obj_")
    9816                      .dwattr $C$DW$T$151, DW_AT_byte_size(0x0a)
    9817              $C$DW$1103      .dwtag  DW_TAG_member
    9818                      .dwattr $C$DW$1103, DW_AT_type(*$C$DW$T$32)
    9819                      .dwattr $C$DW$1103, DW_AT_name("targetValue")
    9820                      .dwattr $C$DW$1103, DW_AT_TI_symbol_name("_targetValue")
    9821                      .dwattr $C$DW$1103, DW_AT_data_member_location[DW_OP_plus_uconst 0x0]
TMS320C2000 Assembler PC v6.2.5 Tue Jun 27 16:56:14 2017

Tools Copyright (c) 1996-2014 Texas Instruments Incorporated
C:\Users\wmj\AppData\Local\Temp\1139610                              PAGE  186

    9822                      .dwattr $C$DW$1103, DW_AT_accessibility(DW_ACCESS_public)
    9823              $C$DW$1104      .dwtag  DW_TAG_member
    9824                      .dwattr $C$DW$1104, DW_AT_type(*$C$DW$T$32)
    9825                      .dwattr $C$DW$1104, DW_AT_name("intValue")
    9826                      .dwattr $C$DW$1104, DW_AT_TI_symbol_name("_intValue")
    9827                      .dwattr $C$DW$1104, DW_AT_data_member_location[DW_OP_plus_uconst 0x2]
    9828                      .dwattr $C$DW$1104, DW_AT_accessibility(DW_ACCESS_public)
    9829              $C$DW$1105      .dwtag  DW_TAG_member
    9830                      .dwattr $C$DW$1105, DW_AT_type(*$C$DW$T$32)
    9831                      .dwattr $C$DW$1105, DW_AT_name("minValue")
    9832                      .dwattr $C$DW$1105, DW_AT_TI_symbol_name("_minValue")
    9833                      .dwattr $C$DW$1105, DW_AT_data_member_location[DW_OP_plus_uconst 0x4]
    9834                      .dwattr $C$DW$1105, DW_AT_accessibility(DW_ACCESS_public)
    9835              $C$DW$1106      .dwtag  DW_TAG_member
    9836                      .dwattr $C$DW$1106, DW_AT_type(*$C$DW$T$32)
    9837                      .dwattr $C$DW$1106, DW_AT_name("maxValue")
    9838                      .dwattr $C$DW$1106, DW_AT_TI_symbol_name("_maxValue")
    9839                      .dwattr $C$DW$1106, DW_AT_data_member_location[DW_OP_plus_uconst 0x6]
    9840                      .dwattr $C$DW$1106, DW_AT_accessibility(DW_ACCESS_public)
    9841              $C$DW$1107      .dwtag  DW_TAG_member
    9842                      .dwattr $C$DW$1107, DW_AT_type(*$C$DW$T$32)
    9843                      .dwattr $C$DW$1107, DW_AT_name("maxDelta")
    9844                      .dwattr $C$DW$1107, DW_AT_TI_symbol_name("_maxDelta")
    9845                      .dwattr $C$DW$1107, DW_AT_data_member_location[DW_OP_plus_uconst 0x8]
    9846                      .dwattr $C$DW$1107, DW_AT_accessibility(DW_ACCESS_public)
    9847                      .dwendtag $C$DW$T$151
    9848              
    9849              $C$DW$T$62      .dwtag  DW_TAG_typedef, DW_AT_name("TRAJ_Obj")
    9850                      .dwattr $C$DW$T$62, DW_AT_type(*$C$DW$T$151)
    9851                      .dwattr $C$DW$T$62, DW_AT_language(DW_LANG_C)
    9852              $C$DW$T$60      .dwtag  DW_TAG_pointer_type
    9853                      .dwattr $C$DW$T$60, DW_AT_type(*$C$DW$T$151)
    9854                      .dwattr $C$DW$T$60, DW_AT_address_class(0x16)
    9855              $C$DW$T$61      .dwtag  DW_TAG_typedef, DW_AT_name("TRAJ_Handle")
    9856                      .dwattr $C$DW$T$61, DW_AT_type(*$C$DW$T$60)
    9857                      .dwattr $C$DW$T$61, DW_AT_language(DW_LANG_C)
    9858              
    9859              $C$DW$T$157     .dwtag  DW_TAG_structure_type
    9860                      .dwattr $C$DW$T$157, DW_AT_name("_USER_Params_")
    9861                      .dwattr $C$DW$T$157, DW_AT_byte_size(0xac)
    9862              $C$DW$1108      .dwtag  DW_TAG_member
    9863                      .dwattr $C$DW$1108, DW_AT_type(*$C$DW$T$68)
    9864                      .dwattr $C$DW$1108, DW_AT_name("iqFullScaleCurrent_A")
    9865                      .dwattr $C$DW$1108, DW_AT_TI_symbol_name("_iqFullScaleCurrent_A")
    9866                      .dwattr $C$DW$1108, DW_AT_data_member_location[DW_OP_plus_uconst 0x0]
    9867                      .dwattr $C$DW$1108, DW_AT_accessibility(DW_ACCESS_public)
    9868              $C$DW$1109      .dwtag  DW_TAG_member
    9869                      .dwattr $C$DW$1109, DW_AT_type(*$C$DW$T$68)
    9870                      .dwattr $C$DW$1109, DW_AT_name("iqFullScaleVoltage_V")
    9871                      .dwattr $C$DW$1109, DW_AT_TI_symbol_name("_iqFullScaleVoltage_V")
    9872                      .dwattr $C$DW$1109, DW_AT_data_member_location[DW_OP_plus_uconst 0x2]
    9873                      .dwattr $C$DW$1109, DW_AT_accessibility(DW_ACCESS_public)
    9874              $C$DW$1110      .dwtag  DW_TAG_member
    9875                      .dwattr $C$DW$1110, DW_AT_type(*$C$DW$T$68)
    9876                      .dwattr $C$DW$1110, DW_AT_name("iqFullScaleFreq_Hz")
TMS320C2000 Assembler PC v6.2.5 Tue Jun 27 16:56:14 2017

Tools Copyright (c) 1996-2014 Texas Instruments Incorporated
C:\Users\wmj\AppData\Local\Temp\1139610                              PAGE  187

    9877                      .dwattr $C$DW$1110, DW_AT_TI_symbol_name("_iqFullScaleFreq_Hz")
    9878                      .dwattr $C$DW$1110, DW_AT_data_member_location[DW_OP_plus_uconst 0x4]
    9879                      .dwattr $C$DW$1110, DW_AT_accessibility(DW_ACCESS_public)
    9880              $C$DW$1111      .dwtag  DW_TAG_member
    9881                      .dwattr $C$DW$1111, DW_AT_type(*$C$DW$T$67)
    9882                      .dwattr $C$DW$1111, DW_AT_name("numIsrTicksPerCtrlTick")
    9883                      .dwattr $C$DW$1111, DW_AT_TI_symbol_name("_numIsrTicksPerCtrlTick")
    9884                      .dwattr $C$DW$1111, DW_AT_data_member_location[DW_OP_plus_uconst 0x6]
    9885                      .dwattr $C$DW$1111, DW_AT_accessibility(DW_ACCESS_public)
    9886              $C$DW$1112      .dwtag  DW_TAG_member
    9887                      .dwattr $C$DW$1112, DW_AT_type(*$C$DW$T$67)
    9888                      .dwattr $C$DW$1112, DW_AT_name("numCtrlTicksPerCurrentTick")
    9889                      .dwattr $C$DW$1112, DW_AT_TI_symbol_name("_numCtrlTicksPerCurrentTick")
    9890                      .dwattr $C$DW$1112, DW_AT_data_member_location[DW_OP_plus_uconst 0x7]
    9891                      .dwattr $C$DW$1112, DW_AT_accessibility(DW_ACCESS_public)
    9892              $C$DW$1113      .dwtag  DW_TAG_member
    9893                      .dwattr $C$DW$1113, DW_AT_type(*$C$DW$T$67)
    9894                      .dwattr $C$DW$1113, DW_AT_name("numCtrlTicksPerEstTick")
    9895                      .dwattr $C$DW$1113, DW_AT_TI_symbol_name("_numCtrlTicksPerEstTick")
    9896                      .dwattr $C$DW$1113, DW_AT_data_member_location[DW_OP_plus_uconst 0x8]
    9897                      .dwattr $C$DW$1113, DW_AT_accessibility(DW_ACCESS_public)
    9898              $C$DW$1114      .dwtag  DW_TAG_member
    9899                      .dwattr $C$DW$1114, DW_AT_type(*$C$DW$T$67)
    9900                      .dwattr $C$DW$1114, DW_AT_name("numCtrlTicksPerSpeedTick")
    9901                      .dwattr $C$DW$1114, DW_AT_TI_symbol_name("_numCtrlTicksPerSpeedTick")
    9902                      .dwattr $C$DW$1114, DW_AT_data_member_location[DW_OP_plus_uconst 0x9]
    9903                      .dwattr $C$DW$1114, DW_AT_accessibility(DW_ACCESS_public)
    9904              $C$DW$1115      .dwtag  DW_TAG_member
    9905                      .dwattr $C$DW$1115, DW_AT_type(*$C$DW$T$67)
    9906                      .dwattr $C$DW$1115, DW_AT_name("numCtrlTicksPerTrajTick")
    9907                      .dwattr $C$DW$1115, DW_AT_TI_symbol_name("_numCtrlTicksPerTrajTick")
    9908                      .dwattr $C$DW$1115, DW_AT_data_member_location[DW_OP_plus_uconst 0xa]
    9909                      .dwattr $C$DW$1115, DW_AT_accessibility(DW_ACCESS_public)
    9910              $C$DW$1116      .dwtag  DW_TAG_member
    9911                      .dwattr $C$DW$1116, DW_AT_type(*$C$DW$T$33)
    9912                      .dwattr $C$DW$1116, DW_AT_name("numCurrentSensors")
    9913                      .dwattr $C$DW$1116, DW_AT_TI_symbol_name("_numCurrentSensors")
    9914                      .dwattr $C$DW$1116, DW_AT_data_member_location[DW_OP_plus_uconst 0xb]
    9915                      .dwattr $C$DW$1116, DW_AT_accessibility(DW_ACCESS_public)
    9916              $C$DW$1117      .dwtag  DW_TAG_member
    9917                      .dwattr $C$DW$1117, DW_AT_type(*$C$DW$T$33)
    9918                      .dwattr $C$DW$1117, DW_AT_name("numVoltageSensors")
    9919                      .dwattr $C$DW$1117, DW_AT_TI_symbol_name("_numVoltageSensors")
    9920                      .dwattr $C$DW$1117, DW_AT_data_member_location[DW_OP_plus_uconst 0xc]
    9921                      .dwattr $C$DW$1117, DW_AT_accessibility(DW_ACCESS_public)
    9922              $C$DW$1118      .dwtag  DW_TAG_member
    9923                      .dwattr $C$DW$1118, DW_AT_type(*$C$DW$T$68)
    9924                      .dwattr $C$DW$1118, DW_AT_name("offsetPole_rps")
    9925                      .dwattr $C$DW$1118, DW_AT_TI_symbol_name("_offsetPole_rps")
    9926                      .dwattr $C$DW$1118, DW_AT_data_member_location[DW_OP_plus_uconst 0xe]
    9927                      .dwattr $C$DW$1118, DW_AT_accessibility(DW_ACCESS_public)
    9928              $C$DW$1119      .dwtag  DW_TAG_member
    9929                      .dwattr $C$DW$1119, DW_AT_type(*$C$DW$T$68)
    9930                      .dwattr $C$DW$1119, DW_AT_name("fluxPole_rps")
    9931                      .dwattr $C$DW$1119, DW_AT_TI_symbol_name("_fluxPole_rps")
TMS320C2000 Assembler PC v6.2.5 Tue Jun 27 16:56:14 2017

Tools Copyright (c) 1996-2014 Texas Instruments Incorporated
C:\Users\wmj\AppData\Local\Temp\1139610                              PAGE  188

    9932                      .dwattr $C$DW$1119, DW_AT_data_member_location[DW_OP_plus_uconst 0x10]
    9933                      .dwattr $C$DW$1119, DW_AT_accessibility(DW_ACCESS_public)
    9934              $C$DW$1120      .dwtag  DW_TAG_member
    9935                      .dwattr $C$DW$1120, DW_AT_type(*$C$DW$T$68)
    9936                      .dwattr $C$DW$1120, DW_AT_name("zeroSpeedLimit")
    9937                      .dwattr $C$DW$1120, DW_AT_TI_symbol_name("_zeroSpeedLimit")
    9938                      .dwattr $C$DW$1120, DW_AT_data_member_location[DW_OP_plus_uconst 0x12]
    9939                      .dwattr $C$DW$1120, DW_AT_accessibility(DW_ACCESS_public)
    9940              $C$DW$1121      .dwtag  DW_TAG_member
    9941                      .dwattr $C$DW$1121, DW_AT_type(*$C$DW$T$68)
    9942                      .dwattr $C$DW$1121, DW_AT_name("forceAngleFreq_Hz")
    9943                      .dwattr $C$DW$1121, DW_AT_TI_symbol_name("_forceAngleFreq_Hz")
    9944                      .dwattr $C$DW$1121, DW_AT_data_member_location[DW_OP_plus_uconst 0x14]
    9945                      .dwattr $C$DW$1121, DW_AT_accessibility(DW_ACCESS_public)
    9946              $C$DW$1122      .dwtag  DW_TAG_member
    9947                      .dwattr $C$DW$1122, DW_AT_type(*$C$DW$T$68)
    9948                      .dwattr $C$DW$1122, DW_AT_name("maxAccel_Hzps")
    9949                      .dwattr $C$DW$1122, DW_AT_TI_symbol_name("_maxAccel_Hzps")
    9950                      .dwattr $C$DW$1122, DW_AT_data_member_location[DW_OP_plus_uconst 0x16]
    9951                      .dwattr $C$DW$1122, DW_AT_accessibility(DW_ACCESS_public)
    9952              $C$DW$1123      .dwtag  DW_TAG_member
    9953                      .dwattr $C$DW$1123, DW_AT_type(*$C$DW$T$68)
    9954                      .dwattr $C$DW$1123, DW_AT_name("maxAccel_est_Hzps")
    9955                      .dwattr $C$DW$1123, DW_AT_TI_symbol_name("_maxAccel_est_Hzps")
    9956                      .dwattr $C$DW$1123, DW_AT_data_member_location[DW_OP_plus_uconst 0x18]
    9957                      .dwattr $C$DW$1123, DW_AT_accessibility(DW_ACCESS_public)
    9958              $C$DW$1124      .dwtag  DW_TAG_member
    9959                      .dwattr $C$DW$1124, DW_AT_type(*$C$DW$T$68)
    9960                      .dwattr $C$DW$1124, DW_AT_name("directionPole_rps")
    9961                      .dwattr $C$DW$1124, DW_AT_TI_symbol_name("_directionPole_rps")
    9962                      .dwattr $C$DW$1124, DW_AT_data_member_location[DW_OP_plus_uconst 0x1a]
    9963                      .dwattr $C$DW$1124, DW_AT_accessibility(DW_ACCESS_public)
    9964              $C$DW$1125      .dwtag  DW_TAG_member
    9965                      .dwattr $C$DW$1125, DW_AT_type(*$C$DW$T$68)
    9966                      .dwattr $C$DW$1125, DW_AT_name("speedPole_rps")
    9967                      .dwattr $C$DW$1125, DW_AT_TI_symbol_name("_speedPole_rps")
    9968                      .dwattr $C$DW$1125, DW_AT_data_member_location[DW_OP_plus_uconst 0x1c]
    9969                      .dwattr $C$DW$1125, DW_AT_accessibility(DW_ACCESS_public)
    9970              $C$DW$1126      .dwtag  DW_TAG_member
    9971                      .dwattr $C$DW$1126, DW_AT_type(*$C$DW$T$68)
    9972                      .dwattr $C$DW$1126, DW_AT_name("dcBusPole_rps")
    9973                      .dwattr $C$DW$1126, DW_AT_TI_symbol_name("_dcBusPole_rps")
    9974                      .dwattr $C$DW$1126, DW_AT_data_member_location[DW_OP_plus_uconst 0x1e]
    9975                      .dwattr $C$DW$1126, DW_AT_accessibility(DW_ACCESS_public)
    9976              $C$DW$1127      .dwtag  DW_TAG_member
    9977                      .dwattr $C$DW$1127, DW_AT_type(*$C$DW$T$68)
    9978                      .dwattr $C$DW$1127, DW_AT_name("fluxFraction")
    9979                      .dwattr $C$DW$1127, DW_AT_TI_symbol_name("_fluxFraction")
    9980                      .dwattr $C$DW$1127, DW_AT_data_member_location[DW_OP_plus_uconst 0x20]
    9981                      .dwattr $C$DW$1127, DW_AT_accessibility(DW_ACCESS_public)
    9982              $C$DW$1128      .dwtag  DW_TAG_member
    9983                      .dwattr $C$DW$1128, DW_AT_type(*$C$DW$T$68)
    9984                      .dwattr $C$DW$1128, DW_AT_name("indEst_speedMaxFraction")
    9985                      .dwattr $C$DW$1128, DW_AT_TI_symbol_name("_indEst_speedMaxFraction")
    9986                      .dwattr $C$DW$1128, DW_AT_data_member_location[DW_OP_plus_uconst 0x22]
TMS320C2000 Assembler PC v6.2.5 Tue Jun 27 16:56:14 2017

Tools Copyright (c) 1996-2014 Texas Instruments Incorporated
C:\Users\wmj\AppData\Local\Temp\1139610                              PAGE  189

    9987                      .dwattr $C$DW$1128, DW_AT_accessibility(DW_ACCESS_public)
    9988              $C$DW$1129      .dwtag  DW_TAG_member
    9989                      .dwattr $C$DW$1129, DW_AT_type(*$C$DW$T$68)
    9990                      .dwattr $C$DW$1129, DW_AT_name("powerWarpGain")
    9991                      .dwattr $C$DW$1129, DW_AT_TI_symbol_name("_powerWarpGain")
    9992                      .dwattr $C$DW$1129, DW_AT_data_member_location[DW_OP_plus_uconst 0x24]
    9993                      .dwattr $C$DW$1129, DW_AT_accessibility(DW_ACCESS_public)
    9994              $C$DW$1130      .dwtag  DW_TAG_member
    9995                      .dwattr $C$DW$1130, DW_AT_type(*$C$DW$T$67)
    9996                      .dwattr $C$DW$1130, DW_AT_name("systemFreq_MHz")
    9997                      .dwattr $C$DW$1130, DW_AT_TI_symbol_name("_systemFreq_MHz")
    9998                      .dwattr $C$DW$1130, DW_AT_data_member_location[DW_OP_plus_uconst 0x26]
    9999                      .dwattr $C$DW$1130, DW_AT_accessibility(DW_ACCESS_public)
   10000              $C$DW$1131      .dwtag  DW_TAG_member
   10001                      .dwattr $C$DW$1131, DW_AT_type(*$C$DW$T$68)
   10002                      .dwattr $C$DW$1131, DW_AT_name("pwmPeriod_usec")
   10003                      .dwattr $C$DW$1131, DW_AT_TI_symbol_name("_pwmPeriod_usec")
   10004                      .dwattr $C$DW$1131, DW_AT_data_member_location[DW_OP_plus_uconst 0x28]
   10005                      .dwattr $C$DW$1131, DW_AT_accessibility(DW_ACCESS_public)
   10006              $C$DW$1132      .dwtag  DW_TAG_member
   10007                      .dwattr $C$DW$1132, DW_AT_type(*$C$DW$T$68)
   10008                      .dwattr $C$DW$1132, DW_AT_name("voltage_sf")
   10009                      .dwattr $C$DW$1132, DW_AT_TI_symbol_name("_voltage_sf")
   10010                      .dwattr $C$DW$1132, DW_AT_data_member_location[DW_OP_plus_uconst 0x2a]
   10011                      .dwattr $C$DW$1132, DW_AT_accessibility(DW_ACCESS_public)
   10012              $C$DW$1133      .dwtag  DW_TAG_member
   10013                      .dwattr $C$DW$1133, DW_AT_type(*$C$DW$T$68)
   10014                      .dwattr $C$DW$1133, DW_AT_name("current_sf")
   10015                      .dwattr $C$DW$1133, DW_AT_TI_symbol_name("_current_sf")
   10016                      .dwattr $C$DW$1133, DW_AT_data_member_location[DW_OP_plus_uconst 0x2c]
   10017                      .dwattr $C$DW$1133, DW_AT_accessibility(DW_ACCESS_public)
   10018              $C$DW$1134      .dwtag  DW_TAG_member
   10019                      .dwattr $C$DW$1134, DW_AT_type(*$C$DW$T$68)
   10020                      .dwattr $C$DW$1134, DW_AT_name("voltageFilterPole_rps")
   10021                      .dwattr $C$DW$1134, DW_AT_TI_symbol_name("_voltageFilterPole_rps")
   10022                      .dwattr $C$DW$1134, DW_AT_data_member_location[DW_OP_plus_uconst 0x2e]
   10023                      .dwattr $C$DW$1134, DW_AT_accessibility(DW_ACCESS_public)
   10024              $C$DW$1135      .dwtag  DW_TAG_member
   10025                      .dwattr $C$DW$1135, DW_AT_type(*$C$DW$T$68)
   10026                      .dwattr $C$DW$1135, DW_AT_name("maxVsMag_pu")
   10027                      .dwattr $C$DW$1135, DW_AT_TI_symbol_name("_maxVsMag_pu")
   10028                      .dwattr $C$DW$1135, DW_AT_data_member_location[DW_OP_plus_uconst 0x30]
   10029                      .dwattr $C$DW$1135, DW_AT_accessibility(DW_ACCESS_public)
   10030              $C$DW$1136      .dwtag  DW_TAG_member
   10031                      .dwattr $C$DW$1136, DW_AT_type(*$C$DW$T$68)
   10032                      .dwattr $C$DW$1136, DW_AT_name("estKappa")
   10033                      .dwattr $C$DW$1136, DW_AT_TI_symbol_name("_estKappa")
   10034                      .dwattr $C$DW$1136, DW_AT_data_member_location[DW_OP_plus_uconst 0x32]
   10035                      .dwattr $C$DW$1136, DW_AT_accessibility(DW_ACCESS_public)
   10036              $C$DW$1137      .dwtag  DW_TAG_member
   10037                      .dwattr $C$DW$1137, DW_AT_type(*$C$DW$T$125)
   10038                      .dwattr $C$DW$1137, DW_AT_name("motor_type")
   10039                      .dwattr $C$DW$1137, DW_AT_TI_symbol_name("_motor_type")
   10040                      .dwattr $C$DW$1137, DW_AT_data_member_location[DW_OP_plus_uconst 0x34]
   10041                      .dwattr $C$DW$1137, DW_AT_accessibility(DW_ACCESS_public)
TMS320C2000 Assembler PC v6.2.5 Tue Jun 27 16:56:14 2017

Tools Copyright (c) 1996-2014 Texas Instruments Incorporated
C:\Users\wmj\AppData\Local\Temp\1139610                              PAGE  190

   10042              $C$DW$1138      .dwtag  DW_TAG_member
   10043                      .dwattr $C$DW$1138, DW_AT_type(*$C$DW$T$67)
   10044                      .dwattr $C$DW$1138, DW_AT_name("motor_numPolePairs")
   10045                      .dwattr $C$DW$1138, DW_AT_TI_symbol_name("_motor_numPolePairs")
   10046                      .dwattr $C$DW$1138, DW_AT_data_member_location[DW_OP_plus_uconst 0x35]
   10047                      .dwattr $C$DW$1138, DW_AT_accessibility(DW_ACCESS_public)
   10048              $C$DW$1139      .dwtag  DW_TAG_member
   10049                      .dwattr $C$DW$1139, DW_AT_type(*$C$DW$T$68)
   10050                      .dwattr $C$DW$1139, DW_AT_name("motor_ratedFlux")
   10051                      .dwattr $C$DW$1139, DW_AT_TI_symbol_name("_motor_ratedFlux")
   10052                      .dwattr $C$DW$1139, DW_AT_data_member_location[DW_OP_plus_uconst 0x36]
   10053                      .dwattr $C$DW$1139, DW_AT_accessibility(DW_ACCESS_public)
   10054              $C$DW$1140      .dwtag  DW_TAG_member
   10055                      .dwattr $C$DW$1140, DW_AT_type(*$C$DW$T$68)
   10056                      .dwattr $C$DW$1140, DW_AT_name("motor_Rr")
   10057                      .dwattr $C$DW$1140, DW_AT_TI_symbol_name("_motor_Rr")
   10058                      .dwattr $C$DW$1140, DW_AT_data_member_location[DW_OP_plus_uconst 0x38]
   10059                      .dwattr $C$DW$1140, DW_AT_accessibility(DW_ACCESS_public)
   10060              $C$DW$1141      .dwtag  DW_TAG_member
   10061                      .dwattr $C$DW$1141, DW_AT_type(*$C$DW$T$68)
   10062                      .dwattr $C$DW$1141, DW_AT_name("motor_Rs")
   10063                      .dwattr $C$DW$1141, DW_AT_TI_symbol_name("_motor_Rs")
   10064                      .dwattr $C$DW$1141, DW_AT_data_member_location[DW_OP_plus_uconst 0x3a]
   10065                      .dwattr $C$DW$1141, DW_AT_accessibility(DW_ACCESS_public)
   10066              $C$DW$1142      .dwtag  DW_TAG_member
   10067                      .dwattr $C$DW$1142, DW_AT_type(*$C$DW$T$68)
   10068                      .dwattr $C$DW$1142, DW_AT_name("motor_Ls_d")
   10069                      .dwattr $C$DW$1142, DW_AT_TI_symbol_name("_motor_Ls_d")
   10070                      .dwattr $C$DW$1142, DW_AT_data_member_location[DW_OP_plus_uconst 0x3c]
   10071                      .dwattr $C$DW$1142, DW_AT_accessibility(DW_ACCESS_public)
   10072              $C$DW$1143      .dwtag  DW_TAG_member
   10073                      .dwattr $C$DW$1143, DW_AT_type(*$C$DW$T$68)
   10074                      .dwattr $C$DW$1143, DW_AT_name("motor_Ls_q")
   10075                      .dwattr $C$DW$1143, DW_AT_TI_symbol_name("_motor_Ls_q")
   10076                      .dwattr $C$DW$1143, DW_AT_data_member_location[DW_OP_plus_uconst 0x3e]
   10077                      .dwattr $C$DW$1143, DW_AT_accessibility(DW_ACCESS_public)
   10078              $C$DW$1144      .dwtag  DW_TAG_member
   10079                      .dwattr $C$DW$1144, DW_AT_type(*$C$DW$T$68)
   10080                      .dwattr $C$DW$1144, DW_AT_name("maxCurrent")
   10081                      .dwattr $C$DW$1144, DW_AT_TI_symbol_name("_maxCurrent")
   10082                      .dwattr $C$DW$1144, DW_AT_data_member_location[DW_OP_plus_uconst 0x40]
   10083                      .dwattr $C$DW$1144, DW_AT_accessibility(DW_ACCESS_public)
   10084              $C$DW$1145      .dwtag  DW_TAG_member
   10085                      .dwattr $C$DW$1145, DW_AT_type(*$C$DW$T$68)
   10086                      .dwattr $C$DW$1145, DW_AT_name("maxCurrent_resEst")
   10087                      .dwattr $C$DW$1145, DW_AT_TI_symbol_name("_maxCurrent_resEst")
   10088                      .dwattr $C$DW$1145, DW_AT_data_member_location[DW_OP_plus_uconst 0x42]
   10089                      .dwattr $C$DW$1145, DW_AT_accessibility(DW_ACCESS_public)
   10090              $C$DW$1146      .dwtag  DW_TAG_member
   10091                      .dwattr $C$DW$1146, DW_AT_type(*$C$DW$T$68)
   10092                      .dwattr $C$DW$1146, DW_AT_name("maxCurrent_indEst")
   10093                      .dwattr $C$DW$1146, DW_AT_TI_symbol_name("_maxCurrent_indEst")
   10094                      .dwattr $C$DW$1146, DW_AT_data_member_location[DW_OP_plus_uconst 0x44]
   10095                      .dwattr $C$DW$1146, DW_AT_accessibility(DW_ACCESS_public)
   10096              $C$DW$1147      .dwtag  DW_TAG_member
TMS320C2000 Assembler PC v6.2.5 Tue Jun 27 16:56:14 2017

Tools Copyright (c) 1996-2014 Texas Instruments Incorporated
C:\Users\wmj\AppData\Local\Temp\1139610                              PAGE  191

   10097                      .dwattr $C$DW$1147, DW_AT_type(*$C$DW$T$68)
   10098                      .dwattr $C$DW$1147, DW_AT_name("maxCurrentSlope")
   10099                      .dwattr $C$DW$1147, DW_AT_TI_symbol_name("_maxCurrentSlope")
   10100                      .dwattr $C$DW$1147, DW_AT_data_member_location[DW_OP_plus_uconst 0x46]
   10101                      .dwattr $C$DW$1147, DW_AT_accessibility(DW_ACCESS_public)
   10102              $C$DW$1148      .dwtag  DW_TAG_member
   10103                      .dwattr $C$DW$1148, DW_AT_type(*$C$DW$T$68)
   10104                      .dwattr $C$DW$1148, DW_AT_name("maxCurrentSlope_powerWarp")
   10105                      .dwattr $C$DW$1148, DW_AT_TI_symbol_name("_maxCurrentSlope_powerWarp")
   10106                      .dwattr $C$DW$1148, DW_AT_data_member_location[DW_OP_plus_uconst 0x48]
   10107                      .dwattr $C$DW$1148, DW_AT_accessibility(DW_ACCESS_public)
   10108              $C$DW$1149      .dwtag  DW_TAG_member
   10109                      .dwattr $C$DW$1149, DW_AT_type(*$C$DW$T$68)
   10110                      .dwattr $C$DW$1149, DW_AT_name("IdRated")
   10111                      .dwattr $C$DW$1149, DW_AT_TI_symbol_name("_IdRated")
   10112                      .dwattr $C$DW$1149, DW_AT_data_member_location[DW_OP_plus_uconst 0x4a]
   10113                      .dwattr $C$DW$1149, DW_AT_accessibility(DW_ACCESS_public)
   10114              $C$DW$1150      .dwtag  DW_TAG_member
   10115                      .dwattr $C$DW$1150, DW_AT_type(*$C$DW$T$68)
   10116                      .dwattr $C$DW$1150, DW_AT_name("IdRatedFraction_indEst")
   10117                      .dwattr $C$DW$1150, DW_AT_TI_symbol_name("_IdRatedFraction_indEst")
   10118                      .dwattr $C$DW$1150, DW_AT_data_member_location[DW_OP_plus_uconst 0x4c]
   10119                      .dwattr $C$DW$1150, DW_AT_accessibility(DW_ACCESS_public)
   10120              $C$DW$1151      .dwtag  DW_TAG_member
   10121                      .dwattr $C$DW$1151, DW_AT_type(*$C$DW$T$68)
   10122                      .dwattr $C$DW$1151, DW_AT_name("IdRatedFraction_ratedFlux")
   10123                      .dwattr $C$DW$1151, DW_AT_TI_symbol_name("_IdRatedFraction_ratedFlux")
   10124                      .dwattr $C$DW$1151, DW_AT_data_member_location[DW_OP_plus_uconst 0x4e]
   10125                      .dwattr $C$DW$1151, DW_AT_accessibility(DW_ACCESS_public)
   10126              $C$DW$1152      .dwtag  DW_TAG_member
   10127                      .dwattr $C$DW$1152, DW_AT_type(*$C$DW$T$68)
   10128                      .dwattr $C$DW$1152, DW_AT_name("IdRated_delta")
   10129                      .dwattr $C$DW$1152, DW_AT_TI_symbol_name("_IdRated_delta")
   10130                      .dwattr $C$DW$1152, DW_AT_data_member_location[DW_OP_plus_uconst 0x50]
   10131                      .dwattr $C$DW$1152, DW_AT_accessibility(DW_ACCESS_public)
   10132              $C$DW$1153      .dwtag  DW_TAG_member
   10133                      .dwattr $C$DW$1153, DW_AT_type(*$C$DW$T$68)
   10134                      .dwattr $C$DW$1153, DW_AT_name("fluxEstFreq_Hz")
   10135                      .dwattr $C$DW$1153, DW_AT_TI_symbol_name("_fluxEstFreq_Hz")
   10136                      .dwattr $C$DW$1153, DW_AT_data_member_location[DW_OP_plus_uconst 0x52]
   10137                      .dwattr $C$DW$1153, DW_AT_accessibility(DW_ACCESS_public)
   10138              $C$DW$1154      .dwtag  DW_TAG_member
   10139                      .dwattr $C$DW$1154, DW_AT_type(*$C$DW$T$66)
   10140                      .dwattr $C$DW$1154, DW_AT_name("ctrlWaitTime")
   10141                      .dwattr $C$DW$1154, DW_AT_TI_symbol_name("_ctrlWaitTime")
   10142                      .dwattr $C$DW$1154, DW_AT_data_member_location[DW_OP_plus_uconst 0x54]
   10143                      .dwattr $C$DW$1154, DW_AT_accessibility(DW_ACCESS_public)
   10144              $C$DW$1155      .dwtag  DW_TAG_member
   10145                      .dwattr $C$DW$1155, DW_AT_type(*$C$DW$T$152)
   10146                      .dwattr $C$DW$1155, DW_AT_name("estWaitTime")
   10147                      .dwattr $C$DW$1155, DW_AT_TI_symbol_name("_estWaitTime")
   10148                      .dwattr $C$DW$1155, DW_AT_data_member_location[DW_OP_plus_uconst 0x5c]
   10149                      .dwattr $C$DW$1155, DW_AT_accessibility(DW_ACCESS_public)
   10150              $C$DW$1156      .dwtag  DW_TAG_member
   10151                      .dwattr $C$DW$1156, DW_AT_type(*$C$DW$T$153)
TMS320C2000 Assembler PC v6.2.5 Tue Jun 27 16:56:14 2017

Tools Copyright (c) 1996-2014 Texas Instruments Incorporated
C:\Users\wmj\AppData\Local\Temp\1139610                              PAGE  192

   10152                      .dwattr $C$DW$1156, DW_AT_name("FluxWaitTime")
   10153                      .dwattr $C$DW$1156, DW_AT_TI_symbol_name("_FluxWaitTime")
   10154                      .dwattr $C$DW$1156, DW_AT_data_member_location[DW_OP_plus_uconst 0x78]
   10155                      .dwattr $C$DW$1156, DW_AT_accessibility(DW_ACCESS_public)
   10156              $C$DW$1157      .dwtag  DW_TAG_member
   10157                      .dwattr $C$DW$1157, DW_AT_type(*$C$DW$T$154)
   10158                      .dwattr $C$DW$1157, DW_AT_name("LsWaitTime")
   10159                      .dwattr $C$DW$1157, DW_AT_TI_symbol_name("_LsWaitTime")
   10160                      .dwattr $C$DW$1157, DW_AT_data_member_location[DW_OP_plus_uconst 0x84]
   10161                      .dwattr $C$DW$1157, DW_AT_accessibility(DW_ACCESS_public)
   10162              $C$DW$1158      .dwtag  DW_TAG_member
   10163                      .dwattr $C$DW$1158, DW_AT_type(*$C$DW$T$153)
   10164                      .dwattr $C$DW$1158, DW_AT_name("RsWaitTime")
   10165                      .dwattr $C$DW$1158, DW_AT_TI_symbol_name("_RsWaitTime")
   10166                      .dwattr $C$DW$1158, DW_AT_data_member_location[DW_OP_plus_uconst 0x92]
   10167                      .dwattr $C$DW$1158, DW_AT_accessibility(DW_ACCESS_public)
   10168              $C$DW$1159      .dwtag  DW_TAG_member
   10169                      .dwattr $C$DW$1159, DW_AT_type(*$C$DW$T$65)
   10170                      .dwattr $C$DW$1159, DW_AT_name("ctrlFreq_Hz")
   10171                      .dwattr $C$DW$1159, DW_AT_TI_symbol_name("_ctrlFreq_Hz")
   10172                      .dwattr $C$DW$1159, DW_AT_data_member_location[DW_OP_plus_uconst 0x9e]
   10173                      .dwattr $C$DW$1159, DW_AT_accessibility(DW_ACCESS_public)
   10174              $C$DW$1160      .dwtag  DW_TAG_member
   10175                      .dwattr $C$DW$1160, DW_AT_type(*$C$DW$T$65)
   10176                      .dwattr $C$DW$1160, DW_AT_name("estFreq_Hz")
   10177                      .dwattr $C$DW$1160, DW_AT_TI_symbol_name("_estFreq_Hz")
   10178                      .dwattr $C$DW$1160, DW_AT_data_member_location[DW_OP_plus_uconst 0xa0]
   10179                      .dwattr $C$DW$1160, DW_AT_accessibility(DW_ACCESS_public)
   10180              $C$DW$1161      .dwtag  DW_TAG_member
   10181                      .dwattr $C$DW$1161, DW_AT_type(*$C$DW$T$65)
   10182                      .dwattr $C$DW$1161, DW_AT_name("RoverL_estFreq_Hz")
   10183                      .dwattr $C$DW$1161, DW_AT_TI_symbol_name("_RoverL_estFreq_Hz")
   10184                      .dwattr $C$DW$1161, DW_AT_data_member_location[DW_OP_plus_uconst 0xa2]
   10185                      .dwattr $C$DW$1161, DW_AT_accessibility(DW_ACCESS_public)
   10186              $C$DW$1162      .dwtag  DW_TAG_member
   10187                      .dwattr $C$DW$1162, DW_AT_type(*$C$DW$T$65)
   10188                      .dwattr $C$DW$1162, DW_AT_name("trajFreq_Hz")
   10189                      .dwattr $C$DW$1162, DW_AT_TI_symbol_name("_trajFreq_Hz")
   10190                      .dwattr $C$DW$1162, DW_AT_data_member_location[DW_OP_plus_uconst 0xa4]
   10191                      .dwattr $C$DW$1162, DW_AT_accessibility(DW_ACCESS_public)
   10192              $C$DW$1163      .dwtag  DW_TAG_member
   10193                      .dwattr $C$DW$1163, DW_AT_type(*$C$DW$T$68)
   10194                      .dwattr $C$DW$1163, DW_AT_name("ctrlPeriod_sec")
   10195                      .dwattr $C$DW$1163, DW_AT_TI_symbol_name("_ctrlPeriod_sec")
   10196                      .dwattr $C$DW$1163, DW_AT_data_member_location[DW_OP_plus_uconst 0xa6]
   10197                      .dwattr $C$DW$1163, DW_AT_accessibility(DW_ACCESS_public)
   10198              $C$DW$1164      .dwtag  DW_TAG_member
   10199                      .dwattr $C$DW$1164, DW_AT_type(*$C$DW$T$68)
   10200                      .dwattr $C$DW$1164, DW_AT_name("maxNegativeIdCurrent_a")
   10201                      .dwattr $C$DW$1164, DW_AT_TI_symbol_name("_maxNegativeIdCurrent_a")
   10202                      .dwattr $C$DW$1164, DW_AT_data_member_location[DW_OP_plus_uconst 0xa8]
   10203                      .dwattr $C$DW$1164, DW_AT_accessibility(DW_ACCESS_public)
   10204              $C$DW$1165      .dwtag  DW_TAG_member
   10205                      .dwattr $C$DW$1165, DW_AT_type(*$C$DW$T$156)
   10206                      .dwattr $C$DW$1165, DW_AT_name("errorCode")
TMS320C2000 Assembler PC v6.2.5 Tue Jun 27 16:56:14 2017

Tools Copyright (c) 1996-2014 Texas Instruments Incorporated
C:\Users\wmj\AppData\Local\Temp\1139610                              PAGE  193

   10207                      .dwattr $C$DW$1165, DW_AT_TI_symbol_name("_errorCode")
   10208                      .dwattr $C$DW$1165, DW_AT_data_member_location[DW_OP_plus_uconst 0xaa]
   10209                      .dwattr $C$DW$1165, DW_AT_accessibility(DW_ACCESS_public)
   10210                      .dwendtag $C$DW$T$157
   10211              
   10212              $C$DW$T$218     .dwtag  DW_TAG_typedef, DW_AT_name("USER_Params")
   10213                      .dwattr $C$DW$T$218, DW_AT_type(*$C$DW$T$157)
   10214                      .dwattr $C$DW$T$218, DW_AT_language(DW_LANG_C)
   10215              $C$DW$T$219     .dwtag  DW_TAG_pointer_type
   10216                      .dwattr $C$DW$T$219, DW_AT_type(*$C$DW$T$218)
   10217                      .dwattr $C$DW$T$219, DW_AT_address_class(0x16)
   10218              $C$DW$1166      .dwtag  DW_TAG_TI_far_type
   10219                      .dwattr $C$DW$1166, DW_AT_type(*$C$DW$T$219)
   10220              $C$DW$T$220     .dwtag  DW_TAG_const_type
   10221                      .dwattr $C$DW$T$220, DW_AT_type(*$C$DW$1166)
   10222              
   10223              $C$DW$T$158     .dwtag  DW_TAG_structure_type
   10224                      .dwattr $C$DW$T$158, DW_AT_name("_WDOG_Obj_")
   10225                      .dwattr $C$DW$T$158, DW_AT_byte_size(0x08)
   10226              $C$DW$1167      .dwtag  DW_TAG_member
   10227                      .dwattr $C$DW$1167, DW_AT_type(*$C$DW$T$24)
   10228                      .dwattr $C$DW$1167, DW_AT_name("SCSR")
   10229                      .dwattr $C$DW$1167, DW_AT_TI_symbol_name("_SCSR")
   10230                      .dwattr $C$DW$1167, DW_AT_data_member_location[DW_OP_plus_uconst 0x0]
   10231                      .dwattr $C$DW$1167, DW_AT_accessibility(DW_ACCESS_public)
   10232              $C$DW$1168      .dwtag  DW_TAG_member
   10233                      .dwattr $C$DW$1168, DW_AT_type(*$C$DW$T$24)
   10234                      .dwattr $C$DW$1168, DW_AT_name("WDCNTR")
   10235                      .dwattr $C$DW$1168, DW_AT_TI_symbol_name("_WDCNTR")
   10236                      .dwattr $C$DW$1168, DW_AT_data_member_location[DW_OP_plus_uconst 0x1]
   10237                      .dwattr $C$DW$1168, DW_AT_accessibility(DW_ACCESS_public)
   10238              $C$DW$1169      .dwtag  DW_TAG_member
   10239                      .dwattr $C$DW$1169, DW_AT_type(*$C$DW$T$24)
   10240                      .dwattr $C$DW$1169, DW_AT_name("rsvd_1")
   10241                      .dwattr $C$DW$1169, DW_AT_TI_symbol_name("_rsvd_1")
   10242                      .dwattr $C$DW$1169, DW_AT_data_member_location[DW_OP_plus_uconst 0x2]
   10243                      .dwattr $C$DW$1169, DW_AT_accessibility(DW_ACCESS_public)
   10244              $C$DW$1170      .dwtag  DW_TAG_member
   10245                      .dwattr $C$DW$1170, DW_AT_type(*$C$DW$T$24)
   10246                      .dwattr $C$DW$1170, DW_AT_name("WDKEY")
   10247                      .dwattr $C$DW$1170, DW_AT_TI_symbol_name("_WDKEY")
   10248                      .dwattr $C$DW$1170, DW_AT_data_member_location[DW_OP_plus_uconst 0x3]
   10249                      .dwattr $C$DW$1170, DW_AT_accessibility(DW_ACCESS_public)
   10250              $C$DW$1171      .dwtag  DW_TAG_member
   10251                      .dwattr $C$DW$1171, DW_AT_type(*$C$DW$T$29)
   10252                      .dwattr $C$DW$1171, DW_AT_name("rsvd_2")
   10253                      .dwattr $C$DW$1171, DW_AT_TI_symbol_name("_rsvd_2")
   10254                      .dwattr $C$DW$1171, DW_AT_data_member_location[DW_OP_plus_uconst 0x4]
   10255                      .dwattr $C$DW$1171, DW_AT_accessibility(DW_ACCESS_public)
   10256              $C$DW$1172      .dwtag  DW_TAG_member
   10257                      .dwattr $C$DW$1172, DW_AT_type(*$C$DW$T$24)
   10258                      .dwattr $C$DW$1172, DW_AT_name("WDCR")
   10259                      .dwattr $C$DW$1172, DW_AT_TI_symbol_name("_WDCR")
   10260                      .dwattr $C$DW$1172, DW_AT_data_member_location[DW_OP_plus_uconst 0x7]
   10261                      .dwattr $C$DW$1172, DW_AT_accessibility(DW_ACCESS_public)
TMS320C2000 Assembler PC v6.2.5 Tue Jun 27 16:56:14 2017

Tools Copyright (c) 1996-2014 Texas Instruments Incorporated
C:\Users\wmj\AppData\Local\Temp\1139610                              PAGE  194

   10262                      .dwendtag $C$DW$T$158
   10263              
   10264              $C$DW$T$114     .dwtag  DW_TAG_pointer_type
   10265                      .dwattr $C$DW$T$114, DW_AT_type(*$C$DW$T$158)
   10266                      .dwattr $C$DW$T$114, DW_AT_address_class(0x16)
   10267              $C$DW$T$115     .dwtag  DW_TAG_typedef, DW_AT_name("WDOG_Handle")
   10268                      .dwattr $C$DW$T$115, DW_AT_type(*$C$DW$T$114)
   10269                      .dwattr $C$DW$T$115, DW_AT_language(DW_LANG_C)
   10270              
   10271              $C$DW$T$139     .dwtag  DW_TAG_subroutine_type
   10272                      .dwattr $C$DW$T$139, DW_AT_language(DW_LANG_C)
   10273              $C$DW$T$140     .dwtag  DW_TAG_pointer_type
   10274                      .dwattr $C$DW$T$140, DW_AT_type(*$C$DW$T$139)
   10275                      .dwattr $C$DW$T$140, DW_AT_address_class(0x16)
   10276              $C$DW$T$141     .dwtag  DW_TAG_typedef, DW_AT_name("PIE_IntVec_t")
   10277                      .dwattr $C$DW$T$141, DW_AT_type(*$C$DW$T$140)
   10278                      .dwattr $C$DW$T$141, DW_AT_language(DW_LANG_C)
   10279              $C$DW$1173      .dwtag  DW_TAG_TI_far_type
   10280                      .dwattr $C$DW$1173, DW_AT_type(*$C$DW$T$141)
   10281              $C$DW$T$142     .dwtag  DW_TAG_volatile_type
   10282                      .dwattr $C$DW$T$142, DW_AT_type(*$C$DW$1173)
   10283              $C$DW$T$4       .dwtag  DW_TAG_base_type
   10284                      .dwattr $C$DW$T$4, DW_AT_encoding(DW_ATE_boolean)
   10285                      .dwattr $C$DW$T$4, DW_AT_name("bool")
   10286                      .dwattr $C$DW$T$4, DW_AT_byte_size(0x01)
   10287              $C$DW$T$5       .dwtag  DW_TAG_base_type
   10288                      .dwattr $C$DW$T$5, DW_AT_encoding(DW_ATE_signed_char)
   10289                      .dwattr $C$DW$T$5, DW_AT_name("signed char")
   10290                      .dwattr $C$DW$T$5, DW_AT_byte_size(0x01)
   10291              $C$DW$T$6       .dwtag  DW_TAG_base_type
   10292                      .dwattr $C$DW$T$6, DW_AT_encoding(DW_ATE_unsigned_char)
   10293                      .dwattr $C$DW$T$6, DW_AT_name("unsigned char")
   10294                      .dwattr $C$DW$T$6, DW_AT_byte_size(0x01)
   10295              $C$DW$T$70      .dwtag  DW_TAG_typedef, DW_AT_name("_Bool")
   10296                      .dwattr $C$DW$T$70, DW_AT_type(*$C$DW$T$6)
   10297                      .dwattr $C$DW$T$70, DW_AT_language(DW_LANG_C)
   10298              $C$DW$1174      .dwtag  DW_TAG_TI_far_type
   10299                      .dwattr $C$DW$1174, DW_AT_type(*$C$DW$T$70)
   10300              $C$DW$T$261     .dwtag  DW_TAG_const_type
   10301                      .dwattr $C$DW$T$261, DW_AT_type(*$C$DW$1174)
   10302              $C$DW$T$7       .dwtag  DW_TAG_base_type
   10303                      .dwattr $C$DW$T$7, DW_AT_encoding(DW_ATE_signed_char)
   10304                      .dwattr $C$DW$T$7, DW_AT_name("wchar_t")
   10305                      .dwattr $C$DW$T$7, DW_AT_byte_size(0x01)
   10306              $C$DW$T$8       .dwtag  DW_TAG_base_type
   10307                      .dwattr $C$DW$T$8, DW_AT_encoding(DW_ATE_signed)
   10308                      .dwattr $C$DW$T$8, DW_AT_name("short")
   10309                      .dwattr $C$DW$T$8, DW_AT_byte_size(0x01)
   10310              $C$DW$T$9       .dwtag  DW_TAG_base_type
   10311                      .dwattr $C$DW$T$9, DW_AT_encoding(DW_ATE_unsigned)
   10312                      .dwattr $C$DW$T$9, DW_AT_name("unsigned short")
   10313                      .dwattr $C$DW$T$9, DW_AT_byte_size(0x01)
   10314              $C$DW$T$23      .dwtag  DW_TAG_typedef, DW_AT_name("uint16_t")
   10315                      .dwattr $C$DW$T$23, DW_AT_type(*$C$DW$T$9)
   10316                      .dwattr $C$DW$T$23, DW_AT_language(DW_LANG_C)
TMS320C2000 Assembler PC v6.2.5 Tue Jun 27 16:56:14 2017

Tools Copyright (c) 1996-2014 Texas Instruments Incorporated
C:\Users\wmj\AppData\Local\Temp\1139610                              PAGE  195

   10317              $C$DW$1175      .dwtag  DW_TAG_TI_far_type
   10318                      .dwattr $C$DW$1175, DW_AT_type(*$C$DW$T$23)
   10319              $C$DW$T$24      .dwtag  DW_TAG_volatile_type
   10320                      .dwattr $C$DW$T$24, DW_AT_type(*$C$DW$1175)
   10321              
   10322              $C$DW$T$25      .dwtag  DW_TAG_array_type
   10323                      .dwattr $C$DW$T$25, DW_AT_type(*$C$DW$T$24)
   10324                      .dwattr $C$DW$T$25, DW_AT_language(DW_LANG_C)
   10325                      .dwattr $C$DW$T$25, DW_AT_byte_size(0x10)
   10326              $C$DW$1176      .dwtag  DW_TAG_subrange_type
   10327                      .dwattr $C$DW$1176, DW_AT_upper_bound(0x0f)
   10328                      .dwendtag $C$DW$T$25
   10329              
   10330              
   10331              $C$DW$T$26      .dwtag  DW_TAG_array_type
   10332                      .dwattr $C$DW$T$26, DW_AT_type(*$C$DW$T$24)
   10333                      .dwattr $C$DW$T$26, DW_AT_language(DW_LANG_C)
   10334                      .dwattr $C$DW$T$26, DW_AT_byte_size(0x65f0)
   10335              $C$DW$1177      .dwtag  DW_TAG_subrange_type
   10336                      .dwattr $C$DW$1177, DW_AT_upper_bound(0x65ef)
   10337                      .dwendtag $C$DW$T$26
   10338              
   10339              
   10340              $C$DW$T$27      .dwtag  DW_TAG_array_type
   10341                      .dwattr $C$DW$T$27, DW_AT_type(*$C$DW$T$24)
   10342                      .dwattr $C$DW$T$27, DW_AT_language(DW_LANG_C)
   10343                      .dwattr $C$DW$T$27, DW_AT_byte_size(0x02)
   10344              $C$DW$1178      .dwtag  DW_TAG_subrange_type
   10345                      .dwattr $C$DW$1178, DW_AT_upper_bound(0x01)
   10346                      .dwendtag $C$DW$T$27
   10347              
   10348              
   10349              $C$DW$T$28      .dwtag  DW_TAG_array_type
   10350                      .dwattr $C$DW$T$28, DW_AT_type(*$C$DW$T$24)
   10351                      .dwattr $C$DW$T$28, DW_AT_language(DW_LANG_C)
   10352                      .dwattr $C$DW$T$28, DW_AT_byte_size(0x05)
   10353              $C$DW$1179      .dwtag  DW_TAG_subrange_type
   10354                      .dwattr $C$DW$1179, DW_AT_upper_bound(0x04)
   10355                      .dwendtag $C$DW$T$28
   10356              
   10357              
   10358              $C$DW$T$29      .dwtag  DW_TAG_array_type
   10359                      .dwattr $C$DW$T$29, DW_AT_type(*$C$DW$T$24)
   10360                      .dwattr $C$DW$T$29, DW_AT_language(DW_LANG_C)
   10361                      .dwattr $C$DW$T$29, DW_AT_byte_size(0x03)
   10362              $C$DW$1180      .dwtag  DW_TAG_subrange_type
   10363                      .dwattr $C$DW$1180, DW_AT_upper_bound(0x02)
   10364                      .dwendtag $C$DW$T$29
   10365              
   10366              
   10367              $C$DW$T$30      .dwtag  DW_TAG_array_type
   10368                      .dwattr $C$DW$T$30, DW_AT_type(*$C$DW$T$24)
   10369                      .dwattr $C$DW$T$30, DW_AT_language(DW_LANG_C)
   10370                      .dwattr $C$DW$T$30, DW_AT_byte_size(0x0d)
   10371              $C$DW$1181      .dwtag  DW_TAG_subrange_type
TMS320C2000 Assembler PC v6.2.5 Tue Jun 27 16:56:14 2017

Tools Copyright (c) 1996-2014 Texas Instruments Incorporated
C:\Users\wmj\AppData\Local\Temp\1139610                              PAGE  196

   10372                      .dwattr $C$DW$1181, DW_AT_upper_bound(0x0c)
   10373                      .dwendtag $C$DW$T$30
   10374              
   10375              
   10376              $C$DW$T$35      .dwtag  DW_TAG_array_type
   10377                      .dwattr $C$DW$T$35, DW_AT_type(*$C$DW$T$24)
   10378                      .dwattr $C$DW$T$35, DW_AT_language(DW_LANG_C)
   10379                      .dwattr $C$DW$T$35, DW_AT_byte_size(0x08)
   10380              $C$DW$1182      .dwtag  DW_TAG_subrange_type
   10381                      .dwattr $C$DW$1182, DW_AT_upper_bound(0x07)
   10382                      .dwendtag $C$DW$T$35
   10383              
   10384              
   10385              $C$DW$T$78      .dwtag  DW_TAG_array_type
   10386                      .dwattr $C$DW$T$78, DW_AT_type(*$C$DW$T$24)
   10387                      .dwattr $C$DW$T$78, DW_AT_language(DW_LANG_C)
   10388                      .dwattr $C$DW$T$78, DW_AT_byte_size(0x18)
   10389              $C$DW$1183      .dwtag  DW_TAG_subrange_type
   10390                      .dwattr $C$DW$1183, DW_AT_upper_bound(0x17)
   10391                      .dwendtag $C$DW$T$78
   10392              
   10393              
   10394              $C$DW$T$79      .dwtag  DW_TAG_array_type
   10395                      .dwattr $C$DW$T$79, DW_AT_type(*$C$DW$T$24)
   10396                      .dwattr $C$DW$T$79, DW_AT_language(DW_LANG_C)
   10397                      .dwattr $C$DW$T$79, DW_AT_byte_size(0x04)
   10398              $C$DW$1184      .dwtag  DW_TAG_subrange_type
   10399                      .dwattr $C$DW$1184, DW_AT_upper_bound(0x03)
   10400                      .dwendtag $C$DW$T$79
   10401              
   10402              
   10403              $C$DW$T$138     .dwtag  DW_TAG_array_type
   10404                      .dwattr $C$DW$T$138, DW_AT_type(*$C$DW$T$24)
   10405                      .dwattr $C$DW$T$138, DW_AT_language(DW_LANG_C)
   10406                      .dwattr $C$DW$T$138, DW_AT_byte_size(0x06)
   10407              $C$DW$1185      .dwtag  DW_TAG_subrange_type
   10408                      .dwattr $C$DW$1185, DW_AT_upper_bound(0x05)
   10409                      .dwendtag $C$DW$T$138
   10410              
   10411              
   10412              $C$DW$T$143     .dwtag  DW_TAG_array_type
   10413                      .dwattr $C$DW$T$143, DW_AT_type(*$C$DW$T$24)
   10414                      .dwattr $C$DW$T$143, DW_AT_language(DW_LANG_C)
   10415                      .dwattr $C$DW$T$143, DW_AT_byte_size(0x6270)
   10416              $C$DW$1186      .dwtag  DW_TAG_subrange_type
   10417                      .dwattr $C$DW$1186, DW_AT_upper_bound(0x626f)
   10418                      .dwendtag $C$DW$T$143
   10419              
   10420              
   10421              $C$DW$T$147     .dwtag  DW_TAG_array_type
   10422                      .dwattr $C$DW$T$147, DW_AT_type(*$C$DW$T$24)
   10423                      .dwattr $C$DW$T$147, DW_AT_language(DW_LANG_C)
   10424                      .dwattr $C$DW$T$147, DW_AT_byte_size(0x6698)
   10425              $C$DW$1187      .dwtag  DW_TAG_subrange_type
   10426                      .dwattr $C$DW$1187, DW_AT_upper_bound(0x6697)
TMS320C2000 Assembler PC v6.2.5 Tue Jun 27 16:56:14 2017

Tools Copyright (c) 1996-2014 Texas Instruments Incorporated
C:\Users\wmj\AppData\Local\Temp\1139610                              PAGE  197

   10427                      .dwendtag $C$DW$T$147
   10428              
   10429              $C$DW$T$67      .dwtag  DW_TAG_typedef, DW_AT_name("uint_least16_t")
   10430                      .dwattr $C$DW$T$67, DW_AT_type(*$C$DW$T$23)
   10431                      .dwattr $C$DW$T$67, DW_AT_language(DW_LANG_C)
   10432              $C$DW$T$33      .dwtag  DW_TAG_typedef, DW_AT_name("uint_least8_t")
   10433                      .dwattr $C$DW$T$33, DW_AT_type(*$C$DW$T$23)
   10434                      .dwattr $C$DW$T$33, DW_AT_language(DW_LANG_C)
   10435              $C$DW$1188      .dwtag  DW_TAG_TI_far_type
   10436                      .dwattr $C$DW$1188, DW_AT_type(*$C$DW$T$33)
   10437              $C$DW$T$224     .dwtag  DW_TAG_const_type
   10438                      .dwattr $C$DW$T$224, DW_AT_type(*$C$DW$1188)
   10439              $C$DW$T$10      .dwtag  DW_TAG_base_type
   10440                      .dwattr $C$DW$T$10, DW_AT_encoding(DW_ATE_signed)
   10441                      .dwattr $C$DW$T$10, DW_AT_name("int")
   10442                      .dwattr $C$DW$T$10, DW_AT_byte_size(0x01)
   10443              $C$DW$T$11      .dwtag  DW_TAG_base_type
   10444                      .dwattr $C$DW$T$11, DW_AT_encoding(DW_ATE_unsigned)
   10445                      .dwattr $C$DW$T$11, DW_AT_name("unsigned int")
   10446                      .dwattr $C$DW$T$11, DW_AT_byte_size(0x01)
   10447              $C$DW$T$12      .dwtag  DW_TAG_base_type
   10448                      .dwattr $C$DW$T$12, DW_AT_encoding(DW_ATE_signed)
   10449                      .dwattr $C$DW$T$12, DW_AT_name("long")
   10450                      .dwattr $C$DW$T$12, DW_AT_byte_size(0x02)
   10451              $C$DW$T$32      .dwtag  DW_TAG_typedef, DW_AT_name("_iq")
   10452                      .dwattr $C$DW$T$32, DW_AT_type(*$C$DW$T$12)
   10453                      .dwattr $C$DW$T$32, DW_AT_language(DW_LANG_C)
   10454              
   10455              $C$DW$T$120     .dwtag  DW_TAG_array_type
   10456                      .dwattr $C$DW$T$120, DW_AT_type(*$C$DW$T$32)
   10457                      .dwattr $C$DW$T$120, DW_AT_language(DW_LANG_C)
   10458                      .dwattr $C$DW$T$120, DW_AT_byte_size(0x04)
   10459              $C$DW$1189      .dwtag  DW_TAG_subrange_type
   10460                      .dwattr $C$DW$1189, DW_AT_upper_bound(0x01)
   10461                      .dwendtag $C$DW$T$120
   10462              
   10463              
   10464              $C$DW$T$122     .dwtag  DW_TAG_array_type
   10465                      .dwattr $C$DW$T$122, DW_AT_type(*$C$DW$T$32)
   10466                      .dwattr $C$DW$T$122, DW_AT_language(DW_LANG_C)
   10467                      .dwattr $C$DW$T$122, DW_AT_byte_size(0x06)
   10468              $C$DW$1190      .dwtag  DW_TAG_subrange_type
   10469                      .dwattr $C$DW$1190, DW_AT_upper_bound(0x02)
   10470                      .dwendtag $C$DW$T$122
   10471              
   10472              $C$DW$T$233     .dwtag  DW_TAG_pointer_type
   10473                      .dwattr $C$DW$T$233, DW_AT_type(*$C$DW$T$32)
   10474                      .dwattr $C$DW$T$233, DW_AT_address_class(0x16)
   10475              $C$DW$1191      .dwtag  DW_TAG_TI_far_type
   10476                      .dwattr $C$DW$1191, DW_AT_type(*$C$DW$T$233)
   10477              $C$DW$T$309     .dwtag  DW_TAG_const_type
   10478                      .dwattr $C$DW$T$309, DW_AT_type(*$C$DW$1191)
   10479              $C$DW$1192      .dwtag  DW_TAG_TI_far_type
   10480                      .dwattr $C$DW$1192, DW_AT_type(*$C$DW$T$32)
   10481              $C$DW$T$226     .dwtag  DW_TAG_const_type
TMS320C2000 Assembler PC v6.2.5 Tue Jun 27 16:56:14 2017

Tools Copyright (c) 1996-2014 Texas Instruments Incorporated
C:\Users\wmj\AppData\Local\Temp\1139610                              PAGE  198

   10482                      .dwattr $C$DW$T$226, DW_AT_type(*$C$DW$1192)
   10483              $C$DW$T$13      .dwtag  DW_TAG_base_type
   10484                      .dwattr $C$DW$T$13, DW_AT_encoding(DW_ATE_unsigned)
   10485                      .dwattr $C$DW$T$13, DW_AT_name("unsigned long")
   10486                      .dwattr $C$DW$T$13, DW_AT_byte_size(0x02)
   10487              $C$DW$T$64      .dwtag  DW_TAG_typedef, DW_AT_name("uint32_t")
   10488                      .dwattr $C$DW$T$64, DW_AT_type(*$C$DW$T$13)
   10489                      .dwattr $C$DW$T$64, DW_AT_language(DW_LANG_C)
   10490              $C$DW$1193      .dwtag  DW_TAG_TI_far_type
   10491                      .dwattr $C$DW$1193, DW_AT_type(*$C$DW$T$64)
   10492              $C$DW$T$77      .dwtag  DW_TAG_volatile_type
   10493                      .dwattr $C$DW$T$77, DW_AT_type(*$C$DW$1193)
   10494              $C$DW$T$65      .dwtag  DW_TAG_typedef, DW_AT_name("uint_least32_t")
   10495                      .dwattr $C$DW$T$65, DW_AT_type(*$C$DW$T$64)
   10496                      .dwattr $C$DW$T$65, DW_AT_language(DW_LANG_C)
   10497              
   10498              $C$DW$T$66      .dwtag  DW_TAG_array_type
   10499                      .dwattr $C$DW$T$66, DW_AT_type(*$C$DW$T$65)
   10500                      .dwattr $C$DW$T$66, DW_AT_language(DW_LANG_C)
   10501                      .dwattr $C$DW$T$66, DW_AT_byte_size(0x08)
   10502              $C$DW$1194      .dwtag  DW_TAG_subrange_type
   10503                      .dwattr $C$DW$1194, DW_AT_upper_bound(0x03)
   10504                      .dwendtag $C$DW$T$66
   10505              
   10506              
   10507              $C$DW$T$152     .dwtag  DW_TAG_array_type
   10508                      .dwattr $C$DW$T$152, DW_AT_type(*$C$DW$T$65)
   10509                      .dwattr $C$DW$T$152, DW_AT_language(DW_LANG_C)
   10510                      .dwattr $C$DW$T$152, DW_AT_byte_size(0x1c)
   10511              $C$DW$1195      .dwtag  DW_TAG_subrange_type
   10512                      .dwattr $C$DW$1195, DW_AT_upper_bound(0x0d)
   10513                      .dwendtag $C$DW$T$152
   10514              
   10515              
   10516              $C$DW$T$153     .dwtag  DW_TAG_array_type
   10517                      .dwattr $C$DW$T$153, DW_AT_type(*$C$DW$T$65)
   10518                      .dwattr $C$DW$T$153, DW_AT_language(DW_LANG_C)
   10519                      .dwattr $C$DW$T$153, DW_AT_byte_size(0x0c)
   10520              $C$DW$1196      .dwtag  DW_TAG_subrange_type
   10521                      .dwattr $C$DW$1196, DW_AT_upper_bound(0x05)
   10522                      .dwendtag $C$DW$T$153
   10523              
   10524              
   10525              $C$DW$T$154     .dwtag  DW_TAG_array_type
   10526                      .dwattr $C$DW$T$154, DW_AT_type(*$C$DW$T$65)
   10527                      .dwattr $C$DW$T$154, DW_AT_language(DW_LANG_C)
   10528                      .dwattr $C$DW$T$154, DW_AT_byte_size(0x0e)
   10529              $C$DW$1197      .dwtag  DW_TAG_subrange_type
   10530                      .dwattr $C$DW$1197, DW_AT_upper_bound(0x06)
   10531                      .dwendtag $C$DW$T$154
   10532              
   10533              $C$DW$T$274     .dwtag  DW_TAG_pointer_type
   10534                      .dwattr $C$DW$T$274, DW_AT_type(*$C$DW$T$65)
   10535                      .dwattr $C$DW$T$274, DW_AT_address_class(0x16)
   10536              $C$DW$1198      .dwtag  DW_TAG_TI_far_type
TMS320C2000 Assembler PC v6.2.5 Tue Jun 27 16:56:14 2017

Tools Copyright (c) 1996-2014 Texas Instruments Incorporated
C:\Users\wmj\AppData\Local\Temp\1139610                              PAGE  199

   10537                      .dwattr $C$DW$1198, DW_AT_type(*$C$DW$T$274)
   10538              $C$DW$T$321     .dwtag  DW_TAG_const_type
   10539                      .dwattr $C$DW$T$321, DW_AT_type(*$C$DW$1198)
   10540              $C$DW$1199      .dwtag  DW_TAG_TI_far_type
   10541                      .dwattr $C$DW$1199, DW_AT_type(*$C$DW$T$65)
   10542              $C$DW$T$254     .dwtag  DW_TAG_const_type
   10543                      .dwattr $C$DW$T$254, DW_AT_type(*$C$DW$1199)
   10544              $C$DW$T$282     .dwtag  DW_TAG_pointer_type
   10545                      .dwattr $C$DW$T$282, DW_AT_type(*$C$DW$T$254)
   10546                      .dwattr $C$DW$T$282, DW_AT_address_class(0x16)
   10547              $C$DW$1200      .dwtag  DW_TAG_TI_far_type
   10548                      .dwattr $C$DW$1200, DW_AT_type(*$C$DW$T$282)
   10549              $C$DW$T$324     .dwtag  DW_TAG_const_type
   10550                      .dwattr $C$DW$T$324, DW_AT_type(*$C$DW$1200)
   10551              $C$DW$T$14      .dwtag  DW_TAG_base_type
   10552                      .dwattr $C$DW$T$14, DW_AT_encoding(DW_ATE_signed)
   10553                      .dwattr $C$DW$T$14, DW_AT_name("long long")
   10554                      .dwattr $C$DW$T$14, DW_AT_byte_size(0x04)
   10555              $C$DW$T$15      .dwtag  DW_TAG_base_type
   10556                      .dwattr $C$DW$T$15, DW_AT_encoding(DW_ATE_unsigned)
   10557                      .dwattr $C$DW$T$15, DW_AT_name("unsigned long long")
   10558                      .dwattr $C$DW$T$15, DW_AT_byte_size(0x04)
   10559              $C$DW$T$16      .dwtag  DW_TAG_base_type
   10560                      .dwattr $C$DW$T$16, DW_AT_encoding(DW_ATE_float)
   10561                      .dwattr $C$DW$T$16, DW_AT_name("float")
   10562                      .dwattr $C$DW$T$16, DW_AT_byte_size(0x02)
   10563              $C$DW$T$68      .dwtag  DW_TAG_typedef, DW_AT_name("float_t")
   10564                      .dwattr $C$DW$T$68, DW_AT_type(*$C$DW$T$16)
   10565                      .dwattr $C$DW$T$68, DW_AT_language(DW_LANG_C)
   10566              $C$DW$T$17      .dwtag  DW_TAG_base_type
   10567                      .dwattr $C$DW$T$17, DW_AT_encoding(DW_ATE_float)
   10568                      .dwattr $C$DW$T$17, DW_AT_name("double")
   10569                      .dwattr $C$DW$T$17, DW_AT_byte_size(0x02)
   10570              $C$DW$T$18      .dwtag  DW_TAG_base_type
   10571                      .dwattr $C$DW$T$18, DW_AT_encoding(DW_ATE_float)
   10572                      .dwattr $C$DW$T$18, DW_AT_name("long double")
   10573                      .dwattr $C$DW$T$18, DW_AT_byte_size(0x04)
   10574                      .dwattr $C$DW$CU, DW_AT_language(DW_LANG_C)
   10575              
   10576              ;***************************************************************
   10577              ;* DWARF CIE ENTRIES                                           *
   10578              ;***************************************************************
   10579              
   10580              $C$DW$CIE       .dwcie 78
   10581                      .dwcfi  cfa_register, 20
   10582                      .dwcfi  cfa_offset, 0
   10583                      .dwcfi  undefined, 0
   10584                      .dwcfi  undefined, 1
   10585                      .dwcfi  undefined, 2
   10586                      .dwcfi  undefined, 3
   10587                      .dwcfi  undefined, 20
   10588                      .dwcfi  undefined, 21
   10589                      .dwcfi  undefined, 22
   10590                      .dwcfi  undefined, 23
   10591                      .dwcfi  undefined, 24
TMS320C2000 Assembler PC v6.2.5 Tue Jun 27 16:56:14 2017

Tools Copyright (c) 1996-2014 Texas Instruments Incorporated
C:\Users\wmj\AppData\Local\Temp\1139610                              PAGE  200

   10592                      .dwcfi  undefined, 25
   10593                      .dwcfi  undefined, 26
   10594                      .dwcfi  same_value, 28
   10595                      .dwcfi  undefined, 29
   10596                      .dwcfi  undefined, 30
   10597                      .dwcfi  undefined, 31
   10598                      .dwcfi  undefined, 32
   10599                      .dwcfi  undefined, 33
   10600                      .dwcfi  undefined, 34
   10601                      .dwcfi  undefined, 35
   10602                      .dwcfi  undefined, 36
   10603                      .dwcfi  undefined, 37
   10604                      .dwcfi  undefined, 38
   10605                      .dwcfi  undefined, 75
   10606                      .dwcfi  undefined, 76
   10607                      .dwcfi  undefined, 77
   10608                      .dwcfi  undefined, 4
   10609                      .dwcfi  same_value, 6
   10610                      .dwcfi  same_value, 8
   10611                      .dwcfi  same_value, 10
   10612                      .dwcfi  undefined, 12
   10613                      .dwcfi  undefined, 14
   10614                      .dwcfi  undefined, 16
   10615                      .dwcfi  undefined, 17
   10616                      .dwcfi  undefined, 18
   10617                      .dwcfi  undefined, 19
   10618                      .dwcfi  undefined, 5
   10619                      .dwcfi  same_value, 7
   10620                      .dwcfi  same_value, 9
   10621                      .dwcfi  same_value, 11
   10622                      .dwcfi  undefined, 13
   10623                      .dwcfi  undefined, 15
   10624                      .dwcfi  undefined, 78
   10625                      .dwendentry
   10626              
   10627              ;***************************************************************
   10628              ;* DWARF REGISTER MAP                                          *
   10629              ;***************************************************************
   10630              
   10631              $C$DW$1201      .dwtag  DW_TAG_TI_assign_register, DW_AT_name("AL")
   10632                      .dwattr $C$DW$1201, DW_AT_location[DW_OP_reg0]
   10633              $C$DW$1202      .dwtag  DW_TAG_TI_assign_register, DW_AT_name("AH")
   10634                      .dwattr $C$DW$1202, DW_AT_location[DW_OP_reg1]
   10635              $C$DW$1203      .dwtag  DW_TAG_TI_assign_register, DW_AT_name("PL")
   10636                      .dwattr $C$DW$1203, DW_AT_location[DW_OP_reg2]
   10637              $C$DW$1204      .dwtag  DW_TAG_TI_assign_register, DW_AT_name("PH")
   10638                      .dwattr $C$DW$1204, DW_AT_location[DW_OP_reg3]
   10639              $C$DW$1205      .dwtag  DW_TAG_TI_assign_register, DW_AT_name("SP")
   10640                      .dwattr $C$DW$1205, DW_AT_location[DW_OP_reg20]
   10641              $C$DW$1206      .dwtag  DW_TAG_TI_assign_register, DW_AT_name("XT")
   10642                      .dwattr $C$DW$1206, DW_AT_location[DW_OP_reg21]
   10643              $C$DW$1207      .dwtag  DW_TAG_TI_assign_register, DW_AT_name("T")
   10644                      .dwattr $C$DW$1207, DW_AT_location[DW_OP_reg22]
   10645              $C$DW$1208      .dwtag  DW_TAG_TI_assign_register, DW_AT_name("ST0")
   10646                      .dwattr $C$DW$1208, DW_AT_location[DW_OP_reg23]
TMS320C2000 Assembler PC v6.2.5 Tue Jun 27 16:56:14 2017

Tools Copyright (c) 1996-2014 Texas Instruments Incorporated
C:\Users\wmj\AppData\Local\Temp\1139610                              PAGE  201

   10647              $C$DW$1209      .dwtag  DW_TAG_TI_assign_register, DW_AT_name("ST1")
   10648                      .dwattr $C$DW$1209, DW_AT_location[DW_OP_reg24]
   10649              $C$DW$1210      .dwtag  DW_TAG_TI_assign_register, DW_AT_name("PC")
   10650                      .dwattr $C$DW$1210, DW_AT_location[DW_OP_reg25]
   10651              $C$DW$1211      .dwtag  DW_TAG_TI_assign_register, DW_AT_name("RPC")
   10652                      .dwattr $C$DW$1211, DW_AT_location[DW_OP_reg26]
   10653              $C$DW$1212      .dwtag  DW_TAG_TI_assign_register, DW_AT_name("FP")
   10654                      .dwattr $C$DW$1212, DW_AT_location[DW_OP_reg28]
   10655              $C$DW$1213      .dwtag  DW_TAG_TI_assign_register, DW_AT_name("DP")
   10656                      .dwattr $C$DW$1213, DW_AT_location[DW_OP_reg29]
   10657              $C$DW$1214      .dwtag  DW_TAG_TI_assign_register, DW_AT_name("SXM")
   10658                      .dwattr $C$DW$1214, DW_AT_location[DW_OP_reg30]
   10659              $C$DW$1215      .dwtag  DW_TAG_TI_assign_register, DW_AT_name("PM")
   10660                      .dwattr $C$DW$1215, DW_AT_location[DW_OP_reg31]
   10661              $C$DW$1216      .dwtag  DW_TAG_TI_assign_register, DW_AT_name("OVM")
   10662                      .dwattr $C$DW$1216, DW_AT_location[DW_OP_regx 0x20]
   10663              $C$DW$1217      .dwtag  DW_TAG_TI_assign_register, DW_AT_name("PAGE0")
   10664                      .dwattr $C$DW$1217, DW_AT_location[DW_OP_regx 0x21]
   10665              $C$DW$1218      .dwtag  DW_TAG_TI_assign_register, DW_AT_name("AMODE")
   10666                      .dwattr $C$DW$1218, DW_AT_location[DW_OP_regx 0x22]
   10667              $C$DW$1219      .dwtag  DW_TAG_TI_assign_register, DW_AT_name("INTM")
   10668                      .dwattr $C$DW$1219, DW_AT_location[DW_OP_regx 0x23]
   10669              $C$DW$1220      .dwtag  DW_TAG_TI_assign_register, DW_AT_name("IFR")
   10670                      .dwattr $C$DW$1220, DW_AT_location[DW_OP_regx 0x24]
   10671              $C$DW$1221      .dwtag  DW_TAG_TI_assign_register, DW_AT_name("IER")
   10672                      .dwattr $C$DW$1221, DW_AT_location[DW_OP_regx 0x25]
   10673              $C$DW$1222      .dwtag  DW_TAG_TI_assign_register, DW_AT_name("V")
   10674                      .dwattr $C$DW$1222, DW_AT_location[DW_OP_regx 0x26]
   10675              $C$DW$1223      .dwtag  DW_TAG_TI_assign_register, DW_AT_name("PSEUDOH")
   10676                      .dwattr $C$DW$1223, DW_AT_location[DW_OP_regx 0x4c]
   10677              $C$DW$1224      .dwtag  DW_TAG_TI_assign_register, DW_AT_name("VOL")
   10678                      .dwattr $C$DW$1224, DW_AT_location[DW_OP_regx 0x4d]
   10679              $C$DW$1225      .dwtag  DW_TAG_TI_assign_register, DW_AT_name("AR0")
   10680                      .dwattr $C$DW$1225, DW_AT_location[DW_OP_reg4]
   10681              $C$DW$1226      .dwtag  DW_TAG_TI_assign_register, DW_AT_name("AR1")
   10682                      .dwattr $C$DW$1226, DW_AT_location[DW_OP_reg6]
   10683              $C$DW$1227      .dwtag  DW_TAG_TI_assign_register, DW_AT_name("AR2")
   10684                      .dwattr $C$DW$1227, DW_AT_location[DW_OP_reg8]
   10685              $C$DW$1228      .dwtag  DW_TAG_TI_assign_register, DW_AT_name("AR3")
   10686                      .dwattr $C$DW$1228, DW_AT_location[DW_OP_reg10]
   10687              $C$DW$1229      .dwtag  DW_TAG_TI_assign_register, DW_AT_name("AR4")
   10688                      .dwattr $C$DW$1229, DW_AT_location[DW_OP_reg12]
   10689              $C$DW$1230      .dwtag  DW_TAG_TI_assign_register, DW_AT_name("AR5")
   10690                      .dwattr $C$DW$1230, DW_AT_location[DW_OP_reg14]
   10691              $C$DW$1231      .dwtag  DW_TAG_TI_assign_register, DW_AT_name("AR6")
   10692                      .dwattr $C$DW$1231, DW_AT_location[DW_OP_reg16]
   10693              $C$DW$1232      .dwtag  DW_TAG_TI_assign_register, DW_AT_name("XAR6")
   10694                      .dwattr $C$DW$1232, DW_AT_location[DW_OP_reg17]
   10695              $C$DW$1233      .dwtag  DW_TAG_TI_assign_register, DW_AT_name("AR7")
   10696                      .dwattr $C$DW$1233, DW_AT_location[DW_OP_reg18]
   10697              $C$DW$1234      .dwtag  DW_TAG_TI_assign_register, DW_AT_name("XAR7")
   10698                      .dwattr $C$DW$1234, DW_AT_location[DW_OP_reg19]
   10699              $C$DW$1235      .dwtag  DW_TAG_TI_assign_register, DW_AT_name("XAR0")
   10700                      .dwattr $C$DW$1235, DW_AT_location[DW_OP_reg5]
   10701              $C$DW$1236      .dwtag  DW_TAG_TI_assign_register, DW_AT_name("XAR1")
TMS320C2000 Assembler PC v6.2.5 Tue Jun 27 16:56:14 2017

Tools Copyright (c) 1996-2014 Texas Instruments Incorporated
C:\Users\wmj\AppData\Local\Temp\1139610                              PAGE  202

   10702                      .dwattr $C$DW$1236, DW_AT_location[DW_OP_reg7]
   10703              $C$DW$1237      .dwtag  DW_TAG_TI_assign_register, DW_AT_name("XAR2")
   10704                      .dwattr $C$DW$1237, DW_AT_location[DW_OP_reg9]
   10705              $C$DW$1238      .dwtag  DW_TAG_TI_assign_register, DW_AT_name("XAR3")
   10706                      .dwattr $C$DW$1238, DW_AT_location[DW_OP_reg11]
   10707              $C$DW$1239      .dwtag  DW_TAG_TI_assign_register, DW_AT_name("XAR4")
   10708                      .dwattr $C$DW$1239, DW_AT_location[DW_OP_reg13]
   10709              $C$DW$1240      .dwtag  DW_TAG_TI_assign_register, DW_AT_name("XAR5")
   10710                      .dwattr $C$DW$1240, DW_AT_location[DW_OP_reg15]
   10711              $C$DW$1241      .dwtag  DW_TAG_TI_assign_register, DW_AT_name("CIE_RETA")
   10712                      .dwattr $C$DW$1241, DW_AT_location[DW_OP_regx 0x4e]
   10713                      .dwendtag $C$DW$CU
   10714              

No Assembly Errors, No Assembly Warnings
