TMS320C2000 Assembler Unix v15.12.3 Wed Jun 28 11:48:12 2017

Tools Copyright (c) 1996-2015 Texas Instruments Incorporated
/tmp/85684BZyCPu                                                     PAGE    1

       1              ;***************************************************************
       2              ;* TMS320C2000 C/C++ Codegen                 Unix v15.12.3.LTS *
       3              ;* Date/Time created: Wed Jun 28 11:48:12 2017                 *
       4              ;***************************************************************
       5                      .compiler_opts --abi=coffabi --float_support=softlib --hll_source=on --mem_model:code=flat --mem_mode
       6        0002  FP      .set    XAR2
       7              
       8              $C$DW$CU        .dwtag  DW_TAG_compile_unit
       9                      .dwattr $C$DW$CU, DW_AT_name("/home/wmj/Documents/motor/sw/modules/ctrl/src/32b/ctrl.c")
      10                      .dwattr $C$DW$CU, DW_AT_producer("TI TMS320C2000 C/C++ Codegen Unix v15.12.3.LTS Copyright (c) 1996-2
      11                      .dwattr $C$DW$CU, DW_AT_TI_version(0x01)
      12                      .dwattr $C$DW$CU, DW_AT_comp_dir("/home/wmj/Documents/motor/sw/solutions/instaspin_foc/boards/hvkit_r
      13              
      14              ;**************************************************************
      15              ;* FUNCTION SYNONYMS                                          *
      16              ;**************************************************************
      17                      .global _CTRL_setMagCurrent_pu
      18        0457' _CTRL_setMagCurrent_pu  .set _CTRL_setIdRated_pu
      19                      .global _CTRL_setMaximumSpeed_pu
      20        045A' _CTRL_setMaximumSpeed_pu        .set _CTRL_setSpd_max_pu
      21                      .global _CTRL_getMaximumSpeed_pu
      22        045D' _CTRL_getMaximumSpeed_pu        .set _CTRL_getSpd_max_pu
      23                      .global _CTRL_getMagCurrent_pu
      24        0460' _CTRL_getMagCurrent_pu  .set _CTRL_getIdRated_pu
      25              
      26              $C$DW$1 .dwtag  DW_TAG_subprogram
      27                      .dwattr $C$DW$1, DW_AT_name("CTRL_setEstParams")
      28                      .dwattr $C$DW$1, DW_AT_TI_symbol_name("_CTRL_setEstParams")
      29                      .dwattr $C$DW$1, DW_AT_declaration
      30                      .dwattr $C$DW$1, DW_AT_external
      31              $C$DW$2 .dwtag  DW_TAG_formal_parameter
      32                      .dwattr $C$DW$2, DW_AT_type(*$C$DW$T$47)
      33              
      34              $C$DW$3 .dwtag  DW_TAG_formal_parameter
      35                      .dwattr $C$DW$3, DW_AT_type(*$C$DW$T$220)
      36              
      37                      .dwendtag $C$DW$1
      38              
      39              
      40              $C$DW$4 .dwtag  DW_TAG_subprogram
      41                      .dwattr $C$DW$4, DW_AT_name("CTRL_runTraj")
      42                      .dwattr $C$DW$4, DW_AT_TI_symbol_name("_CTRL_runTraj")
      43                      .dwattr $C$DW$4, DW_AT_declaration
      44                      .dwattr $C$DW$4, DW_AT_external
      45              $C$DW$5 .dwtag  DW_TAG_formal_parameter
      46                      .dwattr $C$DW$5, DW_AT_type(*$C$DW$T$161)
      47              
      48                      .dwendtag $C$DW$4
      49              
      50              
      51              $C$DW$6 .dwtag  DW_TAG_subprogram
      52                      .dwattr $C$DW$6, DW_AT_name("CTRL_setupEstIdleState")
      53                      .dwattr $C$DW$6, DW_AT_TI_symbol_name("_CTRL_setupEstIdleState")
      54                      .dwattr $C$DW$6, DW_AT_declaration
      55                      .dwattr $C$DW$6, DW_AT_external
TMS320C2000 Assembler Unix v15.12.3 Wed Jun 28 11:48:12 2017

Tools Copyright (c) 1996-2015 Texas Instruments Incorporated
/tmp/85684BZyCPu                                                     PAGE    2

      56              $C$DW$7 .dwtag  DW_TAG_formal_parameter
      57                      .dwattr $C$DW$7, DW_AT_type(*$C$DW$T$161)
      58              
      59                      .dwendtag $C$DW$6
      60              
      61              
      62              $C$DW$8 .dwtag  DW_TAG_subprogram
      63                      .dwattr $C$DW$8, DW_AT_name("CTRL_setUserMotorParams")
      64                      .dwattr $C$DW$8, DW_AT_TI_symbol_name("_CTRL_setUserMotorParams")
      65                      .dwattr $C$DW$8, DW_AT_declaration
      66                      .dwattr $C$DW$8, DW_AT_external
      67              $C$DW$9 .dwtag  DW_TAG_formal_parameter
      68                      .dwattr $C$DW$9, DW_AT_type(*$C$DW$T$161)
      69              
      70                      .dwendtag $C$DW$8
      71              
      72              
      73              $C$DW$10        .dwtag  DW_TAG_subprogram
      74                      .dwattr $C$DW$10, DW_AT_name("CTRL_setupEstOnLineState")
      75                      .dwattr $C$DW$10, DW_AT_TI_symbol_name("_CTRL_setupEstOnLineState")
      76                      .dwattr $C$DW$10, DW_AT_declaration
      77                      .dwattr $C$DW$10, DW_AT_external
      78              $C$DW$11        .dwtag  DW_TAG_formal_parameter
      79                      .dwattr $C$DW$11, DW_AT_type(*$C$DW$T$161)
      80              
      81                      .dwendtag $C$DW$10
      82              
      83              
      84              $C$DW$12        .dwtag  DW_TAG_subprogram
      85                      .dwattr $C$DW$12, DW_AT_name("CTRL_setupTraj")
      86                      .dwattr $C$DW$12, DW_AT_TI_symbol_name("_CTRL_setupTraj")
      87                      .dwattr $C$DW$12, DW_AT_declaration
      88                      .dwattr $C$DW$12, DW_AT_external
      89              $C$DW$13        .dwtag  DW_TAG_formal_parameter
      90                      .dwattr $C$DW$13, DW_AT_type(*$C$DW$T$161)
      91              
      92                      .dwendtag $C$DW$12
      93              
      94              
      95              $C$DW$14        .dwtag  DW_TAG_subprogram
      96                      .dwattr $C$DW$14, DW_AT_name("CTRL_setupCtrl")
      97                      .dwattr $C$DW$14, DW_AT_TI_symbol_name("_CTRL_setupCtrl")
      98                      .dwattr $C$DW$14, DW_AT_declaration
      99                      .dwattr $C$DW$14, DW_AT_external
     100              $C$DW$15        .dwtag  DW_TAG_formal_parameter
     101                      .dwattr $C$DW$15, DW_AT_type(*$C$DW$T$161)
     102              
     103                      .dwendtag $C$DW$14
     104              
     105              
     106              $C$DW$16        .dwtag  DW_TAG_subprogram
     107                      .dwattr $C$DW$16, DW_AT_name("EST_setRs_pu")
     108                      .dwattr $C$DW$16, DW_AT_TI_symbol_name("_EST_setRs_pu")
     109                      .dwattr $C$DW$16, DW_AT_declaration
     110                      .dwattr $C$DW$16, DW_AT_external
TMS320C2000 Assembler Unix v15.12.3 Wed Jun 28 11:48:12 2017

Tools Copyright (c) 1996-2015 Texas Instruments Incorporated
/tmp/85684BZyCPu                                                     PAGE    3

     111              $C$DW$17        .dwtag  DW_TAG_formal_parameter
     112                      .dwattr $C$DW$17, DW_AT_type(*$C$DW$T$47)
     113              
     114              $C$DW$18        .dwtag  DW_TAG_formal_parameter
     115                      .dwattr $C$DW$18, DW_AT_type(*$C$DW$T$227)
     116              
     117                      .dwendtag $C$DW$16
     118              
     119              
     120              $C$DW$19        .dwtag  DW_TAG_subprogram
     121                      .dwattr $C$DW$19, DW_AT_name("EST_setIq_ref_pu")
     122                      .dwattr $C$DW$19, DW_AT_TI_symbol_name("_EST_setIq_ref_pu")
     123                      .dwattr $C$DW$19, DW_AT_declaration
     124                      .dwattr $C$DW$19, DW_AT_external
     125              $C$DW$20        .dwtag  DW_TAG_formal_parameter
     126                      .dwattr $C$DW$20, DW_AT_type(*$C$DW$T$47)
     127              
     128              $C$DW$21        .dwtag  DW_TAG_formal_parameter
     129                      .dwattr $C$DW$21, DW_AT_type(*$C$DW$T$227)
     130              
     131                      .dwendtag $C$DW$19
     132              
     133              
     134              $C$DW$22        .dwtag  DW_TAG_subprogram
     135                      .dwattr $C$DW$22, DW_AT_name("EST_updateId_ref_pu")
     136                      .dwattr $C$DW$22, DW_AT_TI_symbol_name("_EST_updateId_ref_pu")
     137                      .dwattr $C$DW$22, DW_AT_declaration
     138                      .dwattr $C$DW$22, DW_AT_external
     139              $C$DW$23        .dwtag  DW_TAG_formal_parameter
     140                      .dwattr $C$DW$23, DW_AT_type(*$C$DW$T$47)
     141              
     142              $C$DW$24        .dwtag  DW_TAG_formal_parameter
     143                      .dwattr $C$DW$24, DW_AT_type(*$C$DW$T$234)
     144              
     145                      .dwendtag $C$DW$22
     146              
     147              
     148              $C$DW$25        .dwtag  DW_TAG_subprogram
     149                      .dwattr $C$DW$25, DW_AT_name("EST_setIdle")
     150                      .dwattr $C$DW$25, DW_AT_TI_symbol_name("_EST_setIdle")
     151                      .dwattr $C$DW$25, DW_AT_declaration
     152                      .dwattr $C$DW$25, DW_AT_external
     153              $C$DW$26        .dwtag  DW_TAG_formal_parameter
     154                      .dwattr $C$DW$26, DW_AT_type(*$C$DW$T$47)
     155              
     156                      .dwendtag $C$DW$25
     157              
     158              
     159              $C$DW$27        .dwtag  DW_TAG_subprogram
     160                      .dwattr $C$DW$27, DW_AT_name("EST_run")
     161                      .dwattr $C$DW$27, DW_AT_TI_symbol_name("_EST_run")
     162                      .dwattr $C$DW$27, DW_AT_declaration
     163                      .dwattr $C$DW$27, DW_AT_external
     164              $C$DW$28        .dwtag  DW_TAG_formal_parameter
     165                      .dwattr $C$DW$28, DW_AT_type(*$C$DW$T$47)
TMS320C2000 Assembler Unix v15.12.3 Wed Jun 28 11:48:12 2017

Tools Copyright (c) 1996-2015 Texas Instruments Incorporated
/tmp/85684BZyCPu                                                     PAGE    4

     166              
     167              $C$DW$29        .dwtag  DW_TAG_formal_parameter
     168                      .dwattr $C$DW$29, DW_AT_type(*$C$DW$T$197)
     169              
     170              $C$DW$30        .dwtag  DW_TAG_formal_parameter
     171                      .dwattr $C$DW$30, DW_AT_type(*$C$DW$T$197)
     172              
     173              $C$DW$31        .dwtag  DW_TAG_formal_parameter
     174                      .dwattr $C$DW$31, DW_AT_type(*$C$DW$T$227)
     175              
     176              $C$DW$32        .dwtag  DW_TAG_formal_parameter
     177                      .dwattr $C$DW$32, DW_AT_type(*$C$DW$T$227)
     178              
     179                      .dwendtag $C$DW$27
     180              
     181              
     182              $C$DW$33        .dwtag  DW_TAG_subprogram
     183                      .dwattr $C$DW$33, DW_AT_name("EST_setId_ref_pu")
     184                      .dwattr $C$DW$33, DW_AT_TI_symbol_name("_EST_setId_ref_pu")
     185                      .dwattr $C$DW$33, DW_AT_declaration
     186                      .dwattr $C$DW$33, DW_AT_external
     187              $C$DW$34        .dwtag  DW_TAG_formal_parameter
     188                      .dwattr $C$DW$34, DW_AT_type(*$C$DW$T$47)
     189              
     190              $C$DW$35        .dwtag  DW_TAG_formal_parameter
     191                      .dwattr $C$DW$35, DW_AT_type(*$C$DW$T$227)
     192              
     193                      .dwendtag $C$DW$33
     194              
     195              
     196              $C$DW$36        .dwtag  DW_TAG_subprogram
     197                      .dwattr $C$DW$36, DW_AT_name("EST_setIdle_all")
     198                      .dwattr $C$DW$36, DW_AT_TI_symbol_name("_EST_setIdle_all")
     199                      .dwattr $C$DW$36, DW_AT_declaration
     200                      .dwattr $C$DW$36, DW_AT_external
     201              $C$DW$37        .dwtag  DW_TAG_formal_parameter
     202                      .dwattr $C$DW$37, DW_AT_type(*$C$DW$T$47)
     203              
     204                      .dwendtag $C$DW$36
     205              
     206              
     207              $C$DW$38        .dwtag  DW_TAG_subprogram
     208                      .dwattr $C$DW$38, DW_AT_name("EST_getState")
     209                      .dwattr $C$DW$38, DW_AT_TI_symbol_name("_EST_getState")
     210                      .dwattr $C$DW$38, DW_AT_type(*$C$DW$T$166)
     211                      .dwattr $C$DW$38, DW_AT_declaration
     212                      .dwattr $C$DW$38, DW_AT_external
     213              $C$DW$39        .dwtag  DW_TAG_formal_parameter
     214                      .dwattr $C$DW$39, DW_AT_type(*$C$DW$T$47)
     215              
     216                      .dwendtag $C$DW$38
     217              
     218              
     219              $C$DW$40        .dwtag  DW_TAG_subprogram
     220                      .dwattr $C$DW$40, DW_AT_name("EST_isError")
TMS320C2000 Assembler Unix v15.12.3 Wed Jun 28 11:48:12 2017

Tools Copyright (c) 1996-2015 Texas Instruments Incorporated
/tmp/85684BZyCPu                                                     PAGE    5

     221                      .dwattr $C$DW$40, DW_AT_TI_symbol_name("_EST_isError")
     222                      .dwattr $C$DW$40, DW_AT_type(*$C$DW$T$70)
     223                      .dwattr $C$DW$40, DW_AT_declaration
     224                      .dwattr $C$DW$40, DW_AT_external
     225              $C$DW$41        .dwtag  DW_TAG_formal_parameter
     226                      .dwattr $C$DW$41, DW_AT_type(*$C$DW$T$47)
     227              
     228                      .dwendtag $C$DW$40
     229              
     230              
     231              $C$DW$42        .dwtag  DW_TAG_subprogram
     232                      .dwattr $C$DW$42, DW_AT_name("EST_isMotorIdentified")
     233                      .dwattr $C$DW$42, DW_AT_TI_symbol_name("_EST_isMotorIdentified")
     234                      .dwattr $C$DW$42, DW_AT_type(*$C$DW$T$70)
     235                      .dwattr $C$DW$42, DW_AT_declaration
     236                      .dwattr $C$DW$42, DW_AT_external
     237              $C$DW$43        .dwtag  DW_TAG_formal_parameter
     238                      .dwattr $C$DW$43, DW_AT_type(*$C$DW$T$47)
     239              
     240                      .dwendtag $C$DW$42
     241              
     242              
     243              $C$DW$44        .dwtag  DW_TAG_subprogram
     244                      .dwattr $C$DW$44, DW_AT_name("EST_isOnLine")
     245                      .dwattr $C$DW$44, DW_AT_TI_symbol_name("_EST_isOnLine")
     246                      .dwattr $C$DW$44, DW_AT_type(*$C$DW$T$70)
     247                      .dwattr $C$DW$44, DW_AT_declaration
     248                      .dwattr $C$DW$44, DW_AT_external
     249              $C$DW$45        .dwtag  DW_TAG_formal_parameter
     250                      .dwattr $C$DW$45, DW_AT_type(*$C$DW$T$47)
     251              
     252                      .dwendtag $C$DW$44
     253              
     254              
     255              $C$DW$46        .dwtag  DW_TAG_subprogram
     256                      .dwattr $C$DW$46, DW_AT_name("EST_isIdle")
     257                      .dwattr $C$DW$46, DW_AT_TI_symbol_name("_EST_isIdle")
     258                      .dwattr $C$DW$46, DW_AT_type(*$C$DW$T$70)
     259                      .dwattr $C$DW$46, DW_AT_declaration
     260                      .dwattr $C$DW$46, DW_AT_external
     261              $C$DW$47        .dwtag  DW_TAG_formal_parameter
     262                      .dwattr $C$DW$47, DW_AT_type(*$C$DW$T$47)
     263              
     264                      .dwendtag $C$DW$46
     265              
     266              
     267              $C$DW$48        .dwtag  DW_TAG_subprogram
     268                      .dwattr $C$DW$48, DW_AT_name("EST_isLockRotor")
     269                      .dwattr $C$DW$48, DW_AT_TI_symbol_name("_EST_isLockRotor")
     270                      .dwattr $C$DW$48, DW_AT_type(*$C$DW$T$70)
     271                      .dwattr $C$DW$48, DW_AT_declaration
     272                      .dwattr $C$DW$48, DW_AT_external
     273              $C$DW$49        .dwtag  DW_TAG_formal_parameter
     274                      .dwattr $C$DW$49, DW_AT_type(*$C$DW$T$47)
     275              
TMS320C2000 Assembler Unix v15.12.3 Wed Jun 28 11:48:12 2017

Tools Copyright (c) 1996-2015 Texas Instruments Incorporated
/tmp/85684BZyCPu                                                     PAGE    6

     276                      .dwendtag $C$DW$48
     277              
     278              
     279              $C$DW$50        .dwtag  DW_TAG_subprogram
     280                      .dwattr $C$DW$50, DW_AT_name("EST_doCurrentCtrl")
     281                      .dwattr $C$DW$50, DW_AT_TI_symbol_name("_EST_doCurrentCtrl")
     282                      .dwattr $C$DW$50, DW_AT_type(*$C$DW$T$70)
     283                      .dwattr $C$DW$50, DW_AT_declaration
     284                      .dwattr $C$DW$50, DW_AT_external
     285              $C$DW$51        .dwtag  DW_TAG_formal_parameter
     286                      .dwattr $C$DW$51, DW_AT_type(*$C$DW$T$47)
     287              
     288                      .dwendtag $C$DW$50
     289              
     290              
     291              $C$DW$52        .dwtag  DW_TAG_subprogram
     292                      .dwattr $C$DW$52, DW_AT_name("EST_doSpeedCtrl")
     293                      .dwattr $C$DW$52, DW_AT_TI_symbol_name("_EST_doSpeedCtrl")
     294                      .dwattr $C$DW$52, DW_AT_type(*$C$DW$T$70)
     295                      .dwattr $C$DW$52, DW_AT_declaration
     296                      .dwattr $C$DW$52, DW_AT_external
     297              $C$DW$53        .dwtag  DW_TAG_formal_parameter
     298                      .dwattr $C$DW$53, DW_AT_type(*$C$DW$T$47)
     299              
     300                      .dwendtag $C$DW$52
     301              
     302              
     303              $C$DW$54        .dwtag  DW_TAG_subprogram
     304                      .dwattr $C$DW$54, DW_AT_name("EST_updateState")
     305                      .dwattr $C$DW$54, DW_AT_TI_symbol_name("_EST_updateState")
     306                      .dwattr $C$DW$54, DW_AT_type(*$C$DW$T$70)
     307                      .dwattr $C$DW$54, DW_AT_declaration
     308                      .dwattr $C$DW$54, DW_AT_external
     309              $C$DW$55        .dwtag  DW_TAG_formal_parameter
     310                      .dwattr $C$DW$55, DW_AT_type(*$C$DW$T$47)
     311              
     312              $C$DW$56        .dwtag  DW_TAG_formal_parameter
     313                      .dwattr $C$DW$56, DW_AT_type(*$C$DW$T$227)
     314              
     315                      .dwendtag $C$DW$54
     316              
     317              
     318              $C$DW$57        .dwtag  DW_TAG_subprogram
     319                      .dwattr $C$DW$57, DW_AT_name("EST_useZeroIq_ref")
     320                      .dwattr $C$DW$57, DW_AT_TI_symbol_name("_EST_useZeroIq_ref")
     321                      .dwattr $C$DW$57, DW_AT_type(*$C$DW$T$70)
     322                      .dwattr $C$DW$57, DW_AT_declaration
     323                      .dwattr $C$DW$57, DW_AT_external
     324              $C$DW$58        .dwtag  DW_TAG_formal_parameter
     325                      .dwattr $C$DW$58, DW_AT_type(*$C$DW$T$47)
     326              
     327                      .dwendtag $C$DW$57
     328              
     329              
     330              $C$DW$59        .dwtag  DW_TAG_subprogram
TMS320C2000 Assembler Unix v15.12.3 Wed Jun 28 11:48:12 2017

Tools Copyright (c) 1996-2015 Texas Instruments Incorporated
/tmp/85684BZyCPu                                                     PAGE    7

     331                      .dwattr $C$DW$59, DW_AT_name("_IQ24cosPU")
     332                      .dwattr $C$DW$59, DW_AT_TI_symbol_name("__IQ24cosPU")
     333                      .dwattr $C$DW$59, DW_AT_type(*$C$DW$T$12)
     334                      .dwattr $C$DW$59, DW_AT_declaration
     335                      .dwattr $C$DW$59, DW_AT_external
     336              $C$DW$60        .dwtag  DW_TAG_formal_parameter
     337                      .dwattr $C$DW$60, DW_AT_type(*$C$DW$T$12)
     338              
     339                      .dwendtag $C$DW$59
     340              
     341              
     342              $C$DW$61        .dwtag  DW_TAG_subprogram
     343                      .dwattr $C$DW$61, DW_AT_name("_IQ24sinPU")
     344                      .dwattr $C$DW$61, DW_AT_TI_symbol_name("__IQ24sinPU")
     345                      .dwattr $C$DW$61, DW_AT_type(*$C$DW$T$12)
     346                      .dwattr $C$DW$61, DW_AT_declaration
     347                      .dwattr $C$DW$61, DW_AT_external
     348              $C$DW$62        .dwtag  DW_TAG_formal_parameter
     349                      .dwattr $C$DW$62, DW_AT_type(*$C$DW$T$12)
     350              
     351                      .dwendtag $C$DW$61
     352              
     353              
     354              $C$DW$63        .dwtag  DW_TAG_subprogram
     355                      .dwattr $C$DW$63, DW_AT_name("__IQmpy")
     356                      .dwattr $C$DW$63, DW_AT_TI_symbol_name("___IQmpy")
     357                      .dwattr $C$DW$63, DW_AT_type(*$C$DW$T$12)
     358                      .dwattr $C$DW$63, DW_AT_declaration
     359                      .dwattr $C$DW$63, DW_AT_external
     360              $C$DW$64        .dwtag  DW_TAG_formal_parameter
     361                      .dwattr $C$DW$64, DW_AT_type(*$C$DW$T$12)
     362              
     363              $C$DW$65        .dwtag  DW_TAG_formal_parameter
     364                      .dwattr $C$DW$65, DW_AT_type(*$C$DW$T$12)
     365              
     366              $C$DW$66        .dwtag  DW_TAG_formal_parameter
     367                      .dwattr $C$DW$66, DW_AT_type(*$C$DW$T$10)
     368              
     369                      .dwendtag $C$DW$63
     370              
     371              
     372              $C$DW$67        .dwtag  DW_TAG_subprogram
     373                      .dwattr $C$DW$67, DW_AT_name("labs")
     374                      .dwattr $C$DW$67, DW_AT_TI_symbol_name("_labs")
     375                      .dwattr $C$DW$67, DW_AT_type(*$C$DW$T$12)
     376                      .dwattr $C$DW$67, DW_AT_declaration
     377                      .dwattr $C$DW$67, DW_AT_external
     378              $C$DW$68        .dwtag  DW_TAG_formal_parameter
     379                      .dwattr $C$DW$68, DW_AT_type(*$C$DW$T$12)
     380              
     381                      .dwendtag $C$DW$67
     382              
     383              
     384              $C$DW$69        .dwtag  DW_TAG_subprogram
     385                      .dwattr $C$DW$69, DW_AT_name("_IQ24sqrt")
TMS320C2000 Assembler Unix v15.12.3 Wed Jun 28 11:48:12 2017

Tools Copyright (c) 1996-2015 Texas Instruments Incorporated
/tmp/85684BZyCPu                                                     PAGE    8

     386                      .dwattr $C$DW$69, DW_AT_TI_symbol_name("__IQ24sqrt")
     387                      .dwattr $C$DW$69, DW_AT_type(*$C$DW$T$12)
     388                      .dwattr $C$DW$69, DW_AT_declaration
     389                      .dwattr $C$DW$69, DW_AT_external
     390              $C$DW$70        .dwtag  DW_TAG_formal_parameter
     391                      .dwattr $C$DW$70, DW_AT_type(*$C$DW$T$12)
     392              
     393                      .dwendtag $C$DW$69
     394              
     395              
     396              $C$DW$71        .dwtag  DW_TAG_subprogram
     397                      .dwattr $C$DW$71, DW_AT_name("__IQsat")
     398                      .dwattr $C$DW$71, DW_AT_TI_symbol_name("___IQsat")
     399                      .dwattr $C$DW$71, DW_AT_type(*$C$DW$T$12)
     400                      .dwattr $C$DW$71, DW_AT_declaration
     401                      .dwattr $C$DW$71, DW_AT_external
     402              $C$DW$72        .dwtag  DW_TAG_formal_parameter
     403                      .dwattr $C$DW$72, DW_AT_type(*$C$DW$T$12)
     404              
     405              $C$DW$73        .dwtag  DW_TAG_formal_parameter
     406                      .dwattr $C$DW$73, DW_AT_type(*$C$DW$T$12)
     407              
     408              $C$DW$74        .dwtag  DW_TAG_formal_parameter
     409                      .dwattr $C$DW$74, DW_AT_type(*$C$DW$T$12)
     410              
     411                      .dwendtag $C$DW$71
     412              
     413              
     414              $C$DW$75        .dwtag  DW_TAG_subprogram
     415                      .dwattr $C$DW$75, DW_AT_name("EST_get_krpm_to_pu_sf")
     416                      .dwattr $C$DW$75, DW_AT_TI_symbol_name("_EST_get_krpm_to_pu_sf")
     417                      .dwattr $C$DW$75, DW_AT_type(*$C$DW$T$32)
     418                      .dwattr $C$DW$75, DW_AT_declaration
     419                      .dwattr $C$DW$75, DW_AT_external
     420              $C$DW$76        .dwtag  DW_TAG_formal_parameter
     421                      .dwattr $C$DW$76, DW_AT_type(*$C$DW$T$47)
     422              
     423                      .dwendtag $C$DW$75
     424              
     425              
     426              $C$DW$77        .dwtag  DW_TAG_subprogram
     427                      .dwattr $C$DW$77, DW_AT_name("EST_getFm_pu")
     428                      .dwattr $C$DW$77, DW_AT_TI_symbol_name("_EST_getFm_pu")
     429                      .dwattr $C$DW$77, DW_AT_type(*$C$DW$T$32)
     430                      .dwattr $C$DW$77, DW_AT_declaration
     431                      .dwattr $C$DW$77, DW_AT_external
     432              $C$DW$78        .dwtag  DW_TAG_formal_parameter
     433                      .dwattr $C$DW$78, DW_AT_type(*$C$DW$T$47)
     434              
     435                      .dwendtag $C$DW$77
     436              
     437              
     438              $C$DW$79        .dwtag  DW_TAG_subprogram
     439                      .dwattr $C$DW$79, DW_AT_name("EST_getOneOverDcBus_pu")
     440                      .dwattr $C$DW$79, DW_AT_TI_symbol_name("_EST_getOneOverDcBus_pu")
TMS320C2000 Assembler Unix v15.12.3 Wed Jun 28 11:48:12 2017

Tools Copyright (c) 1996-2015 Texas Instruments Incorporated
/tmp/85684BZyCPu                                                     PAGE    9

     441                      .dwattr $C$DW$79, DW_AT_type(*$C$DW$T$32)
     442                      .dwattr $C$DW$79, DW_AT_declaration
     443                      .dwattr $C$DW$79, DW_AT_external
     444              $C$DW$80        .dwtag  DW_TAG_formal_parameter
     445                      .dwattr $C$DW$80, DW_AT_type(*$C$DW$T$47)
     446              
     447                      .dwendtag $C$DW$79
     448              
     449              
     450              $C$DW$81        .dwtag  DW_TAG_subprogram
     451                      .dwattr $C$DW$81, DW_AT_name("EST_getAngle_pu")
     452                      .dwattr $C$DW$81, DW_AT_TI_symbol_name("_EST_getAngle_pu")
     453                      .dwattr $C$DW$81, DW_AT_type(*$C$DW$T$32)
     454                      .dwattr $C$DW$81, DW_AT_declaration
     455                      .dwattr $C$DW$81, DW_AT_external
     456              $C$DW$82        .dwtag  DW_TAG_formal_parameter
     457                      .dwattr $C$DW$82, DW_AT_type(*$C$DW$T$47)
     458              
     459                      .dwendtag $C$DW$81
     460              
     461 00000000               .sect   ".econst:_$P$T4$5"
     462                      .clink
     463                      .align  2
     464 00000000       _$P$T4$5:
     465 00000000 0000          .bits   0,32                    ; _$P$T4$5._value[0] @ 0
         00000001 0000 
     466 00000002 0000          .bits   0,32                    ; _$P$T4$5._value[1] @ 32
         00000003 0000 
     467              
     468              $C$DW$83        .dwtag  DW_TAG_variable
     469                      .dwattr $C$DW$83, DW_AT_name("$P$T4$5")
     470                      .dwattr $C$DW$83, DW_AT_TI_symbol_name("_$P$T4$5")
     471                      .dwattr $C$DW$83, DW_AT_type(*$C$DW$T$196)
     472                      .dwattr $C$DW$83, DW_AT_location[DW_OP_addr _$P$T4$5]
     473              
     474 00000000               .sect   ".econst:_$P$T5$6"
     475                      .clink
     476                      .align  2
     477 00000000       _$P$T5$6:
     478 00000000 0000          .bits   0,32                    ; _$P$T5$6._value[0] @ 0
         00000001 0000 
     479 00000002 0000          .bits   0,32                    ; _$P$T5$6._value[1] @ 32
         00000003 0000 
     480              
     481              $C$DW$84        .dwtag  DW_TAG_variable
     482                      .dwattr $C$DW$84, DW_AT_name("$P$T5$6")
     483                      .dwattr $C$DW$84, DW_AT_TI_symbol_name("_$P$T5$6")
     484                      .dwattr $C$DW$84, DW_AT_type(*$C$DW$T$196)
     485                      .dwattr $C$DW$84, DW_AT_location[DW_OP_addr _$P$T5$6]
     486              
     487 00000000               .sect   ".econst:_$P$T3$4"
     488                      .clink
     489                      .align  2
     490 00000000       _$P$T3$4:
     491 00000000 0000          .bits   0,32                    ; _$P$T3$4._value[0] @ 0
TMS320C2000 Assembler Unix v15.12.3 Wed Jun 28 11:48:12 2017

Tools Copyright (c) 1996-2015 Texas Instruments Incorporated
/tmp/85684BZyCPu                                                     PAGE   10

         00000001 0000 
     492 00000002 0000          .bits   0,32                    ; _$P$T3$4._value[1] @ 32
         00000003 0000 
     493              
     494              $C$DW$85        .dwtag  DW_TAG_variable
     495                      .dwattr $C$DW$85, DW_AT_name("$P$T3$4")
     496                      .dwattr $C$DW$85, DW_AT_TI_symbol_name("_$P$T3$4")
     497                      .dwattr $C$DW$85, DW_AT_type(*$C$DW$T$196)
     498                      .dwattr $C$DW$85, DW_AT_location[DW_OP_addr _$P$T3$4]
     499              
     500 00000000               .sect   ".econst:_$P$T1$2"
     501                      .clink
     502                      .align  2
     503 00000000       _$P$T1$2:
     504 00000000 0000          .bits   0,32                    ; _$P$T1$2._value[0] @ 0
         00000001 0000 
     505 00000002 0000          .bits   0,32                    ; _$P$T1$2._value[1] @ 32
         00000003 0000 
     506              
     507              $C$DW$86        .dwtag  DW_TAG_variable
     508                      .dwattr $C$DW$86, DW_AT_name("$P$T1$2")
     509                      .dwattr $C$DW$86, DW_AT_TI_symbol_name("_$P$T1$2")
     510                      .dwattr $C$DW$86, DW_AT_type(*$C$DW$T$196)
     511                      .dwattr $C$DW$86, DW_AT_location[DW_OP_addr _$P$T1$2]
     512              
     513 00000000               .sect   ".econst:_$P$T2$3"
     514                      .clink
     515                      .align  2
     516 00000000       _$P$T2$3:
     517 00000000 0000          .bits   0,32                    ; _$P$T2$3._value[0] @ 0
         00000001 0000 
     518 00000002 0000          .bits   0,32                    ; _$P$T2$3._value[1] @ 32
         00000003 0000 
     519              
     520              $C$DW$87        .dwtag  DW_TAG_variable
     521                      .dwattr $C$DW$87, DW_AT_name("$P$T2$3")
     522                      .dwattr $C$DW$87, DW_AT_TI_symbol_name("_$P$T2$3")
     523                      .dwattr $C$DW$87, DW_AT_type(*$C$DW$T$196)
     524                      .dwattr $C$DW$87, DW_AT_location[DW_OP_addr _$P$T2$3]
     525              
     526 00000000               .sect   ".econst:_$P$T0$1"
     527                      .clink
     528                      .align  2
     529 00000000       _$P$T0$1:
     530 00000000 0000          .bits   0,32                    ; _$P$T0$1._value[0] @ 0
         00000001 0000 
     531 00000002 0000          .bits   0,32                    ; _$P$T0$1._value[1] @ 32
         00000003 0000 
     532              
     533              $C$DW$88        .dwtag  DW_TAG_variable
     534                      .dwattr $C$DW$88, DW_AT_name("$P$T0$1")
     535                      .dwattr $C$DW$88, DW_AT_TI_symbol_name("_$P$T0$1")
     536                      .dwattr $C$DW$88, DW_AT_type(*$C$DW$T$196)
     537                      .dwattr $C$DW$88, DW_AT_location[DW_OP_addr _$P$T0$1]
     538              
TMS320C2000 Assembler Unix v15.12.3 Wed Jun 28 11:48:12 2017

Tools Copyright (c) 1996-2015 Texas Instruments Incorporated
/tmp/85684BZyCPu                                                     PAGE   11

     539              ;       /mnt/eda_tools/ti/ccsv6/tools/compiler/c2000_15.12.3.LTS/bin/opt2000 /tmp/85684lQK0aI /tmp/85684hyCaQ
     540              ;       /mnt/eda_tools/ti/ccsv6/tools/compiler/c2000_15.12.3.LTS/bin/ac2000 -@/tmp/85684Bra9OP 
     541 00000000               .sect   ".text"
     542                      .clink
     543                      .global _CTRL_updateState
     544              
     545              $C$DW$89        .dwtag  DW_TAG_subprogram
     546                      .dwattr $C$DW$89, DW_AT_name("CTRL_updateState")
     547                      .dwattr $C$DW$89, DW_AT_low_pc(_CTRL_updateState)
     548                      .dwattr $C$DW$89, DW_AT_high_pc(0x00)
     549                      .dwattr $C$DW$89, DW_AT_TI_symbol_name("_CTRL_updateState")
     550                      .dwattr $C$DW$89, DW_AT_external
     551                      .dwattr $C$DW$89, DW_AT_type(*$C$DW$T$70)
     552                      .dwattr $C$DW$89, DW_AT_TI_begin_file("/home/wmj/Documents/motor/sw/modules/ctrl/src/32b/ctrl.c")
     553                      .dwattr $C$DW$89, DW_AT_TI_begin_line(0x284)
     554                      .dwattr $C$DW$89, DW_AT_TI_begin_column(0x06)
     555                      .dwattr $C$DW$89, DW_AT_TI_max_frame_size(-12)
     556                      .dwpsn  file "/home/wmj/Documents/motor/sw/modules/ctrl/src/32b/ctrl.c",line 645,column 1,is_stmt,add
     557              
     558                      .dwfde $C$DW$CIE, _CTRL_updateState
     559              $C$DW$90        .dwtag  DW_TAG_formal_parameter
     560                      .dwattr $C$DW$90, DW_AT_name("handle")
     561                      .dwattr $C$DW$90, DW_AT_TI_symbol_name("_handle")
     562                      .dwattr $C$DW$90, DW_AT_type(*$C$DW$T$161)
     563                      .dwattr $C$DW$90, DW_AT_location[DW_OP_reg12]
     564              
     565              
     566              ;***************************************************************
     567              ;* FNAME: _CTRL_updateState             FR SIZE:  10           *
     568              ;*                                                             *
     569              ;* FUNCTION ENVIRONMENT                                        *
     570              ;*                                                             *
     571              ;* FUNCTION PROPERTIES                                         *
     572              ;*                            0 Parameter,  4 Auto,  6 SOE     *
     573              ;***************************************************************
     574              
     575              _CTRL_updateState:
     576              ;* AR3   assigned to _counter_ctrlState
     577              $C$DW$91        .dwtag  DW_TAG_variable
     578                      .dwattr $C$DW$91, DW_AT_name("counter_ctrlState")
     579                      .dwattr $C$DW$91, DW_AT_TI_symbol_name("_counter_ctrlState")
     580                      .dwattr $C$DW$91, DW_AT_type(*$C$DW$T$65)
     581                      .dwattr $C$DW$91, DW_AT_location[DW_OP_reg10]
     582              
     583              $C$DW$92        .dwtag  DW_TAG_variable
     584                      .dwattr $C$DW$92, DW_AT_name("waitTime")
     585                      .dwattr $C$DW$92, DW_AT_TI_symbol_name("_waitTime")
     586                      .dwattr $C$DW$92, DW_AT_type(*$C$DW$T$65)
     587                      .dwattr $C$DW$92, DW_AT_location[DW_OP_breg20 -4]
     588              
     589              ;* AR1   assigned to _stateChanged
     590              $C$DW$93        .dwtag  DW_TAG_variable
     591                      .dwattr $C$DW$93, DW_AT_name("stateChanged")
     592                      .dwattr $C$DW$93, DW_AT_TI_symbol_name("_stateChanged")
     593                      .dwattr $C$DW$93, DW_AT_type(*$C$DW$T$70)
TMS320C2000 Assembler Unix v15.12.3 Wed Jun 28 11:48:12 2017

Tools Copyright (c) 1996-2015 Texas Instruments Incorporated
/tmp/85684BZyCPu                                                     PAGE   12

     594                      .dwattr $C$DW$93, DW_AT_location[DW_OP_reg6]
     595              
     596              $C$DW$94        .dwtag  DW_TAG_variable
     597                      .dwattr $C$DW$94, DW_AT_name("ctrlState")
     598                      .dwattr $C$DW$94, DW_AT_TI_symbol_name("_ctrlState")
     599                      .dwattr $C$DW$94, DW_AT_type(*$C$DW$T$40)
     600                      .dwattr $C$DW$94, DW_AT_location[DW_OP_breg20 -1]
     601              
     602              ;* AR2   assigned to _handle
     603              $C$DW$95        .dwtag  DW_TAG_variable
     604                      .dwattr $C$DW$95, DW_AT_name("handle")
     605                      .dwattr $C$DW$95, DW_AT_TI_symbol_name("_handle")
     606                      .dwattr $C$DW$95, DW_AT_type(*$C$DW$T$175)
     607                      .dwattr $C$DW$95, DW_AT_location[DW_OP_reg8]
     608              
     609                      .dwcfi  cfa_offset, -2
     610                      .dwcfi  save_reg_to_mem, 26, 0
     611 00000000 B2BD          MOVL      *SP++,XAR1            ; [CPU_] 
     612                      .dwcfi  save_reg_to_mem, 7, 2
     613                      .dwcfi  cfa_offset, -4
     614 00000001 AABD          MOVL      *SP++,XAR2            ; [CPU_] 
     615                      .dwcfi  save_reg_to_mem, 9, 4
     616                      .dwcfi  cfa_offset, -6
     617 00000002 A2BD          MOVL      *SP++,XAR3            ; [CPU_] 
     618                      .dwcfi  save_reg_to_mem, 11, 6
     619                      .dwcfi  cfa_offset, -8
     620 00000003 FE04          ADDB      SP,#4                 ; [CPU_U] 
     621                      .dwcfi  cfa_offset, -12
     622 00000004 86A4          MOVL      XAR2,XAR4             ; [CPU_] |645| 
     623                      .dwpsn  file "/home/wmj/Documents/motor/sw/modules/ctrl/src/32b/ctrl.c",line 651,column 3,is_stmt,isa
     624 00000005 D0F0          MOVB      XAR0,#240             ; [CPU_] |651| 
     625                      .dwpsn  file "/home/wmj/Documents/motor/sw/modules/ctrl/src/32b/ctrl.c",line 648,column 21,is_stmt,is
     626 00000006 D100          MOVB      XAR1,#0               ; [CPU_] |648| 
     627                      .dwpsn  file "/home/wmj/Documents/motor/sw/modules/ctrl/src/32b/ctrl.h",line 771,column 3,is_stmt,isa
     628 00000007 92E2          MOV       AL,*+XAR2[4]          ; [CPU_] |771| 
     629 00000008 9641          MOV       *-SP[1],AL            ; [CPU_] |771| 
     630                      .dwpsn  file "/home/wmj/Documents/motor/sw/modules/ctrl/src/32b/ctrl.c",line 651,column 3,is_stmt,isa
     631 00000009 9292          MOV       AL,*+XAR2[AR0]        ; [CPU_] |651| 
     632 0000000a 6022          B         $C$L2,NEQ             ; [CPU_] |651| 
     633                      ; branchcc occurs ; [] |651| 
     634 0000000b 9241          MOV       AL,*-SP[1]            ; [CPU_] 
     635                      .dwpsn  file "/home/wmj/Documents/motor/sw/modules/ctrl/src/32b/ctrl.c",line 756,column 7,is_stmt,isa
     636 0000000c D018          MOVB      XAR0,#24              ; [CPU_] |756| 
     637                      .dwpsn  file "/home/wmj/Documents/motor/sw/modules/ctrl/src/32b/ctrl.h",line 1778,column 3,is_stmt,is
     638 0000000d 96EA          MOV       *+XAR2[5],AL          ; [CPU_] |1778| 
     639                      .dwpsn  file "/home/wmj/Documents/motor/sw/modules/ctrl/src/32b/ctrl.h",line 1779,column 3,is_stmt,is
     640 0000000e 56BF          MOVB      *+XAR2[4],#1,UNC      ; [CPU_] |1779| 
         0000000f 01E2 
     641                      .dwpsn  file "/home/wmj/Documents/motor/sw/modules/ctrl/src/32b/ctrl.c",line 756,column 7,is_stmt,isa
     642 00000010 8A92          MOVL      XAR4,*+XAR2[AR0]      ; [CPU_] |756| 
     643              $C$DW$96        .dwtag  DW_TAG_TI_branch
     644                      .dwattr $C$DW$96, DW_AT_low_pc(0x00)
     645                      .dwattr $C$DW$96, DW_AT_name("_EST_isLockRotor")
     646                      .dwattr $C$DW$96, DW_AT_TI_call
     647              
TMS320C2000 Assembler Unix v15.12.3 Wed Jun 28 11:48:12 2017

Tools Copyright (c) 1996-2015 Texas Instruments Incorporated
/tmp/85684BZyCPu                                                     PAGE   13

     648 00000011 7640!         LCR       #_EST_isLockRotor     ; [CPU_] |756| 
         00000012 0000 
     649                      ; call occurs [#_EST_isLockRotor] ; [] |756| 
     650 00000013 5200          CMPB      AL,#0                 ; [CPU_] |756| 
     651 00000014 FFE0          B         $C$L12,NEQ            ; [CPU_] |756| 
         00000015 0094 
     652                      ; branchcc occurs ; [] |756| 
     653                      .dwpsn  file "/home/wmj/Documents/motor/sw/modules/ctrl/src/32b/ctrl.c",line 758,column 11,is_stmt,is
     654 00000016 D018          MOVB      XAR0,#24              ; [CPU_] |758| 
     655 00000017 8A92          MOVL      XAR4,*+XAR2[AR0]      ; [CPU_] |758| 
     656              $C$DW$97        .dwtag  DW_TAG_TI_branch
     657                      .dwattr $C$DW$97, DW_AT_low_pc(0x00)
     658                      .dwattr $C$DW$97, DW_AT_name("_EST_isMotorIdentified")
     659                      .dwattr $C$DW$97, DW_AT_TI_call
     660              
     661 00000018 7640!         LCR       #_EST_isMotorIdentified ; [CPU_] |758| 
         00000019 0000 
     662                      ; call occurs [#_EST_isMotorIdentified] ; [] |758| 
     663 0000001a 5200          CMPB      AL,#0                 ; [CPU_] |758| 
     664 0000001b 600C          B         $C$L1,NEQ             ; [CPU_] |758| 
     665                      ; branchcc occurs ; [] |758| 
     666                      .dwpsn  file "/home/wmj/Documents/motor/sw/modules/ctrl/src/32b/ctrl.c",line 764,column 15,is_stmt,is
     667 0000001c D018          MOVB      XAR0,#24              ; [CPU_] |764| 
     668 0000001d 8A92          MOVL      XAR4,*+XAR2[AR0]      ; [CPU_] |764| 
     669              $C$DW$98        .dwtag  DW_TAG_TI_branch
     670                      .dwattr $C$DW$98, DW_AT_low_pc(0x00)
     671                      .dwattr $C$DW$98, DW_AT_name("_EST_setIdle_all")
     672                      .dwattr $C$DW$98, DW_AT_TI_call
     673              
     674 0000001e 7640!         LCR       #_EST_setIdle_all     ; [CPU_] |764| 
         0000001f 0000 
     675                      ; call occurs [#_EST_setIdle_all] ; [] |764| 
     676                      .dwpsn  file "/home/wmj/Documents/motor/sw/modules/ctrl/src/32b/ctrl.c",line 766,column 15,is_stmt,is
     677 00000020 D018          MOVB      XAR0,#24              ; [CPU_] |766| 
     678 00000021 0200          MOVB      ACC,#0                ; [CPU_] |766| 
     679 00000022 8A92          MOVL      XAR4,*+XAR2[AR0]      ; [CPU_] |766| 
     680              $C$DW$99        .dwtag  DW_TAG_TI_branch
     681                      .dwattr $C$DW$99, DW_AT_low_pc(0x00)
     682                      .dwattr $C$DW$99, DW_AT_name("_EST_setRs_pu")
     683                      .dwattr $C$DW$99, DW_AT_TI_call
     684              
     685 00000023 7640!         LCR       #_EST_setRs_pu        ; [CPU_] |766| 
         00000024 0000 
     686                      ; call occurs [#_EST_setRs_pu] ; [] |766| 
     687 00000025 FFEF          B         $C$L12,UNC            ; [CPU_] |766| 
         00000026 0083 
     688                      ; branch occurs ; [] |766| 
     689 00000027       $C$L1:    
     690                      .dwpsn  file "/home/wmj/Documents/motor/sw/modules/ctrl/src/32b/ctrl.c",line 760,column 15,is_stmt,is
     691 00000027 D018          MOVB      XAR0,#24              ; [CPU_] |760| 
     692 00000028 8A92          MOVL      XAR4,*+XAR2[AR0]      ; [CPU_] |760| 
     693              $C$DW$100       .dwtag  DW_TAG_TI_branch
     694                      .dwattr $C$DW$100, DW_AT_low_pc(0x00)
     695                      .dwattr $C$DW$100, DW_AT_name("_EST_setIdle")
     696                      .dwattr $C$DW$100, DW_AT_TI_call
TMS320C2000 Assembler Unix v15.12.3 Wed Jun 28 11:48:12 2017

Tools Copyright (c) 1996-2015 Texas Instruments Incorporated
/tmp/85684BZyCPu                                                     PAGE   14

     697              
     698 00000029 7640!         LCR       #_EST_setIdle         ; [CPU_] |760| 
         0000002a 0000 
     699                      ; call occurs [#_EST_setIdle] ; [] |760| 
     700                      .dwpsn  file "/home/wmj/Documents/motor/sw/modules/ctrl/src/32b/ctrl.c",line 761,column 13,is_stmt,is
     701 0000002b 6F7D          B         $C$L12,UNC            ; [CPU_] |761| 
     702                      ; branch occurs ; [] |761| 
     703 0000002c       $C$L2:    
     704 0000002c 9241          MOV       AL,*-SP[1]            ; [CPU_] 
     705 0000002d 2901          CLRC      SXM                   ; [CPU_] 
     706                      .dwpsn  file "/home/wmj/Documents/motor/sw/modules/ctrl/src/32b/ctrl.h",line 937,column 3,is_stmt,isa
     707 0000002e 5603          MOV       ACC,AL << 1           ; [CPU_] |937| 
         0000002f 01A9 
     708 00000030 07A2          ADDL      ACC,XAR2              ; [CPU_] |937| 
     709 00000031 8AA9          MOVL      XAR4,ACC              ; [CPU_] |937| 
     710 00000032 D092          MOVB      XAR0,#146             ; [CPU_] |937| 
     711 00000033 0694          MOVL      ACC,*+XAR4[AR0]       ; [CPU_] |937| 
     712                      .dwpsn  file "/home/wmj/Documents/motor/sw/modules/ctrl/src/32b/ctrl.h",line 132,column 3,is_stmt,isa
     713 00000034 D09A          MOVB      XAR0,#154             ; [CPU_] |132| 
     714                      .dwpsn  file "/home/wmj/Documents/motor/sw/modules/ctrl/src/32b/ctrl.h",line 937,column 3,is_stmt,isa
     715 00000035 1E44          MOVL      *-SP[4],ACC           ; [CPU_] |937| 
     716                      .dwpsn  file "/home/wmj/Documents/motor/sw/modules/ctrl/src/32b/ctrl.h",line 132,column 3,is_stmt,isa
     717 00000036 8292          MOVL      XAR3,*+XAR2[AR0]      ; [CPU_] |132| 
     718                      .dwpsn  file "/home/wmj/Documents/motor/sw/modules/ctrl/src/32b/ctrl.h",line 1987,column 3,is_stmt,is
     719 00000037 D018          MOVB      XAR0,#24              ; [CPU_] |1987| 
     720 00000038 8A92          MOVL      XAR4,*+XAR2[AR0]      ; [CPU_] |1987| 
     721              $C$DW$101       .dwtag  DW_TAG_TI_branch
     722                      .dwattr $C$DW$101, DW_AT_low_pc(0x00)
     723                      .dwattr $C$DW$101, DW_AT_name("_EST_isError")
     724                      .dwattr $C$DW$101, DW_AT_TI_call
     725              
     726 00000039 7640!         LCR       #_EST_isError         ; [CPU_] |1987| 
         0000003a 0000 
     727                      ; call occurs [#_EST_isError] ; [] |1987| 
     728 0000003b 5200          CMPB      AL,#0                 ; [CPU_] |1987| 
     729 0000003c 6106          B         $C$L3,EQ              ; [CPU_] |1987| 
     730                      ; branchcc occurs ; [] |1987| 
     731                      .dwpsn  file "/home/wmj/Documents/motor/sw/modules/ctrl/src/32b/ctrl.h",line 1778,column 3,is_stmt,is
     732 0000003d 92E2          MOV       AL,*+XAR2[4]          ; [CPU_] |1778| 
     733 0000003e 96EA          MOV       *+XAR2[5],AL          ; [CPU_] |1778| 
     734                      .dwpsn  file "/home/wmj/Documents/motor/sw/modules/ctrl/src/32b/ctrl.h",line 1779,column 3,is_stmt,is
     735 0000003f 2BE2          MOV       *+XAR2[4],#0          ; [CPU_] |1779| 
     736                      .dwpsn  file "/home/wmj/Documents/motor/sw/modules/ctrl/src/32b/ctrl.h",line 1193,column 3,is_stmt,is
     737 00000040 56BF          MOVB      *+XAR2[6],#2,UNC      ; [CPU_] |1193| 
         00000041 02F2 
     738 00000042       $C$L3:    
     739 00000042 0644          MOVL      ACC,*-SP[4]           ; [CPU_] 
     740                      .dwpsn  file "/home/wmj/Documents/motor/sw/modules/ctrl/src/32b/ctrl.c",line 661,column 7,is_stmt,isa
     741 00000043 0FA3          CMPL      ACC,XAR3              ; [CPU_] |661| 
     742 00000044 6664          B         $C$L12,HI             ; [CPU_] |661| 
     743                      ; branchcc occurs ; [] |661| 
     744                      .dwpsn  file "/home/wmj/Documents/motor/sw/modules/ctrl/src/32b/ctrl.h",line 1111,column 3,is_stmt,is
     745 00000045 D09A          MOVB      XAR0,#154             ; [CPU_] |1111| 
     746 00000046 0200          MOVB      ACC,#0                ; [CPU_] |1111| 
     747 00000047 1E92          MOVL      *+XAR2[AR0],ACC       ; [CPU_] |1111| 
TMS320C2000 Assembler Unix v15.12.3 Wed Jun 28 11:48:12 2017

Tools Copyright (c) 1996-2015 Texas Instruments Incorporated
/tmp/85684BZyCPu                                                     PAGE   15

     748 00000048 9241          MOV       AL,*-SP[1]            ; [CPU_] |1111| 
     749                      .dwpsn  file "/home/wmj/Documents/motor/sw/modules/ctrl/src/32b/ctrl.c",line 667,column 11,is_stmt,is
     750 00000049 5203          CMPB      AL,#3                 ; [CPU_] |667| 
     751 0000004a 612E          B         $C$L8,EQ              ; [CPU_] |667| 
     752                      ; branchcc occurs ; [] |667| 
     753                      .dwpsn  file "/home/wmj/Documents/motor/sw/modules/ctrl/src/32b/ctrl.c",line 700,column 16,is_stmt,is
     754 0000004b 5202          CMPB      AL,#2                 ; [CPU_] |700| 
     755 0000004c 6127          B         $C$L7,EQ              ; [CPU_] |700| 
     756                      ; branchcc occurs ; [] |700| 
     757                      .dwpsn  file "/home/wmj/Documents/motor/sw/modules/ctrl/src/32b/ctrl.c",line 705,column 16,is_stmt,is
     758 0000004d 5201          CMPB      AL,#1                 ; [CPU_] |705| 
     759 0000004e 605A          B         $C$L12,NEQ            ; [CPU_] |705| 
     760                      ; branchcc occurs ; [] |705| 
     761                      .dwpsn  file "/home/wmj/Documents/motor/sw/modules/ctrl/src/32b/ctrl.c",line 710,column 15,is_stmt,is
     762 0000004f D0F5          MOVB      XAR0,#245             ; [CPU_] |710| 
     763 00000050 9292          MOV       AL,*+XAR2[AR0]        ; [CPU_] |710| 
     764 00000051 6104          B         $C$L4,EQ              ; [CPU_] |710| 
     765                      ; branchcc occurs ; [] |710| 
     766                      .dwpsn  file "/home/wmj/Documents/motor/sw/modules/ctrl/src/32b/ctrl.c",line 713,column 19,is_stmt,is
     767 00000052 8AA2          MOVL      XAR4,XAR2             ; [CPU_] |713| 
     768              $C$DW$102       .dwtag  DW_TAG_TI_branch
     769                      .dwattr $C$DW$102, DW_AT_low_pc(0x00)
     770                      .dwattr $C$DW$102, DW_AT_name("_CTRL_setUserMotorParams")
     771                      .dwattr $C$DW$102, DW_AT_TI_call
     772              
     773 00000053 7640!         LCR       #_CTRL_setUserMotorParams ; [CPU_] |713| 
         00000054 0000 
     774                      ; call occurs [#_CTRL_setUserMotorParams] ; [] |713| 
     775 00000055       $C$L4:    
     776                      .dwpsn  file "/home/wmj/Documents/motor/sw/modules/ctrl/src/32b/ctrl.c",line 716,column 15,is_stmt,is
     777 00000055 D018          MOVB      XAR0,#24              ; [CPU_] |716| 
     778 00000056 8A92          MOVL      XAR4,*+XAR2[AR0]      ; [CPU_] |716| 
     779              $C$DW$103       .dwtag  DW_TAG_TI_branch
     780                      .dwattr $C$DW$103, DW_AT_low_pc(0x00)
     781                      .dwattr $C$DW$103, DW_AT_name("_EST_isIdle")
     782                      .dwattr $C$DW$103, DW_AT_TI_call
     783              
     784 00000057 7640!         LCR       #_EST_isIdle          ; [CPU_] |716| 
         00000058 0000 
     785                      ; call occurs [#_EST_isIdle] ; [] |716| 
     786 00000059 5200          CMPB      AL,#0                 ; [CPU_] |716| 
     787 0000005a 6008          B         $C$L5,NEQ             ; [CPU_] |716| 
     788                      ; branchcc occurs ; [] |716| 
     789                      .dwpsn  file "/home/wmj/Documents/motor/sw/modules/ctrl/src/32b/ctrl.c",line 740,column 20,is_stmt,is
     790 0000005b D018          MOVB      XAR0,#24              ; [CPU_] |740| 
     791 0000005c 8A92          MOVL      XAR4,*+XAR2[AR0]      ; [CPU_] |740| 
     792              $C$DW$104       .dwtag  DW_TAG_TI_branch
     793                      .dwattr $C$DW$104, DW_AT_low_pc(0x00)
     794                      .dwattr $C$DW$104, DW_AT_name("_EST_isLockRotor")
     795                      .dwattr $C$DW$104, DW_AT_TI_call
     796              
     797 0000005d 7640!         LCR       #_EST_isLockRotor     ; [CPU_] |740| 
         0000005e 0000 
     798                      ; call occurs [#_EST_isLockRotor] ; [] |740| 
     799 0000005f 5200          CMPB      AL,#0                 ; [CPU_] |740| 
TMS320C2000 Assembler Unix v15.12.3 Wed Jun 28 11:48:12 2017

Tools Copyright (c) 1996-2015 Texas Instruments Incorporated
/tmp/85684BZyCPu                                                     PAGE   16

     800 00000060 6013          B         $C$L7,NEQ             ; [CPU_] |740| 
     801                      ; branchcc occurs ; [] |740| 
     802 00000061 6F47          B         $C$L12,UNC            ; [CPU_] |740| 
     803                      ; branch occurs ; [] |740| 
     804 00000062       $C$L5:    
     805                      .dwpsn  file "/home/wmj/Documents/motor/sw/modules/ctrl/src/32b/ctrl.c",line 719,column 19,is_stmt,is
     806 00000062 8AA2          MOVL      XAR4,XAR2             ; [CPU_] |719| 
     807              $C$DW$105       .dwtag  DW_TAG_TI_branch
     808                      .dwattr $C$DW$105, DW_AT_low_pc(0x00)
     809                      .dwattr $C$DW$105, DW_AT_name("_CTRL_setupEstIdleState")
     810                      .dwattr $C$DW$105, DW_AT_TI_call
     811              
     812 00000063 7640!         LCR       #_CTRL_setupEstIdleState ; [CPU_] |719| 
         00000064 0000 
     813                      ; call occurs [#_CTRL_setupEstIdleState] ; [] |719| 
     814                      .dwpsn  file "/home/wmj/Documents/motor/sw/modules/ctrl/src/32b/ctrl.c",line 721,column 19,is_stmt,is
     815 00000065 D018          MOVB      XAR0,#24              ; [CPU_] |721| 
     816 00000066 8A92          MOVL      XAR4,*+XAR2[AR0]      ; [CPU_] |721| 
     817              $C$DW$106       .dwtag  DW_TAG_TI_branch
     818                      .dwattr $C$DW$106, DW_AT_low_pc(0x00)
     819                      .dwattr $C$DW$106, DW_AT_name("_EST_isMotorIdentified")
     820                      .dwattr $C$DW$106, DW_AT_TI_call
     821              
     822 00000067 7640!         LCR       #_EST_isMotorIdentified ; [CPU_] |721| 
         00000068 0000 
     823                      ; call occurs [#_EST_isMotorIdentified] ; [] |721| 
     824 00000069 5200          CMPB      AL,#0                 ; [CPU_] |721| 
     825 0000006a 6104          B         $C$L6,EQ              ; [CPU_] |721| 
     826                      ; branchcc occurs ; [] |721| 
     827 0000006b D0F3          MOVB      XAR0,#243             ; [CPU_] |721| 
     828 0000006c 9292          MOV       AL,*+XAR2[AR0]        ; [CPU_] |721| 
     829 0000006d 6106          B         $C$L7,EQ              ; [CPU_] |721| 
     830                      ; branchcc occurs ; [] |721| 
     831 0000006e       $C$L6:    
     832                      .dwpsn  file "/home/wmj/Documents/motor/sw/modules/ctrl/src/32b/ctrl.h",line 1778,column 3,is_stmt,is
     833 0000006e 92E2          MOV       AL,*+XAR2[4]          ; [CPU_] |1778| 
     834 0000006f 96EA          MOV       *+XAR2[5],AL          ; [CPU_] |1778| 
     835                      .dwpsn  file "/home/wmj/Documents/motor/sw/modules/ctrl/src/32b/ctrl.h",line 1779,column 3,is_stmt,is
     836 00000070 56BF          MOVB      *+XAR2[4],#2,UNC      ; [CPU_] |1779| 
         00000071 02E2 
     837                      .dwpsn  file "/home/wmj/Documents/motor/sw/modules/ctrl/src/32b/ctrl.h",line 1781,column 3,is_stmt,is
     838 00000072 6F36          B         $C$L12,UNC            ; [CPU_] |1781| 
     839                      ; branch occurs ; [] |1781| 
     840 00000073       $C$L7:    
     841                      .dwpsn  file "/home/wmj/Documents/motor/sw/modules/ctrl/src/32b/ctrl.h",line 1778,column 3,is_stmt,is
     842 00000073 92E2          MOV       AL,*+XAR2[4]          ; [CPU_] |1778| 
     843 00000074 96EA          MOV       *+XAR2[5],AL          ; [CPU_] |1778| 
     844                      .dwpsn  file "/home/wmj/Documents/motor/sw/modules/ctrl/src/32b/ctrl.h",line 1779,column 3,is_stmt,is
     845 00000075 56BF          MOVB      *+XAR2[4],#3,UNC      ; [CPU_] |1779| 
         00000076 03E2 
     846                      .dwpsn  file "/home/wmj/Documents/motor/sw/modules/ctrl/src/32b/ctrl.h",line 1781,column 3,is_stmt,is
     847 00000077 6F31          B         $C$L12,UNC            ; [CPU_] |1781| 
     848                      ; branch occurs ; [] |1781| 
     849 00000078       $C$L8:    
     850                      .dwpsn  file "/home/wmj/Documents/motor/sw/modules/ctrl/src/32b/ctrl.c",line 673,column 41,is_stmt,is
TMS320C2000 Assembler Unix v15.12.3 Wed Jun 28 11:48:12 2017

Tools Copyright (c) 1996-2015 Texas Instruments Incorporated
/tmp/85684BZyCPu                                                     PAGE   17

     851 00000078 D018          MOVB      XAR0,#24              ; [CPU_] |673| 
     852 00000079 8A92          MOVL      XAR4,*+XAR2[AR0]      ; [CPU_] |673| 
     853 0000007a D060          MOVB      XAR0,#96              ; [CPU_] |673| 
     854 0000007b 8392          MOVL      XAR5,*+XAR2[AR0]      ; [CPU_] |673| 
     855 0000007c 06C5          MOVL      ACC,*+XAR5[0]         ; [CPU_] |673| 
     856              $C$DW$107       .dwtag  DW_TAG_TI_branch
     857                      .dwattr $C$DW$107, DW_AT_low_pc(0x00)
     858                      .dwattr $C$DW$107, DW_AT_name("_EST_updateState")
     859                      .dwattr $C$DW$107, DW_AT_TI_call
     860              
     861 0000007d 7640!         LCR       #_EST_updateState     ; [CPU_] |673| 
         0000007e 0000 
     862                      ; call occurs [#_EST_updateState] ; [] |673| 
     863 0000007f 5200          CMPB      AL,#0                 ; [CPU_] |673| 
     864 00000080 6107          B         $C$L9,EQ              ; [CPU_] |673| 
     865                      ; branchcc occurs ; [] |673| 
     866                      .dwpsn  file "/home/wmj/Documents/motor/sw/modules/ctrl/src/32b/ctrl.c",line 678,column 19,is_stmt,is
     867 00000081 8AA2          MOVL      XAR4,XAR2             ; [CPU_] |678| 
     868              $C$DW$108       .dwtag  DW_TAG_TI_branch
     869                      .dwattr $C$DW$108, DW_AT_low_pc(0x00)
     870                      .dwattr $C$DW$108, DW_AT_name("_CTRL_setupCtrl")
     871                      .dwattr $C$DW$108, DW_AT_TI_call
     872              
     873 00000082 7640!         LCR       #_CTRL_setupCtrl      ; [CPU_] |678| 
         00000083 0000 
     874                      ; call occurs [#_CTRL_setupCtrl] ; [] |678| 
     875                      .dwpsn  file "/home/wmj/Documents/motor/sw/modules/ctrl/src/32b/ctrl.c",line 681,column 19,is_stmt,is
     876 00000084 8AA2          MOVL      XAR4,XAR2             ; [CPU_] |681| 
     877              $C$DW$109       .dwtag  DW_TAG_TI_branch
     878                      .dwattr $C$DW$109, DW_AT_low_pc(0x00)
     879                      .dwattr $C$DW$109, DW_AT_name("_CTRL_setupTraj")
     880                      .dwattr $C$DW$109, DW_AT_TI_call
     881              
     882 00000085 7640!         LCR       #_CTRL_setupTraj      ; [CPU_] |681| 
         00000086 0000 
     883                      ; call occurs [#_CTRL_setupTraj] ; [] |681| 
     884 00000087       $C$L9:    
     885                      .dwpsn  file "/home/wmj/Documents/motor/sw/modules/ctrl/src/32b/ctrl.c",line 684,column 15,is_stmt,is
     886 00000087 D018          MOVB      XAR0,#24              ; [CPU_] |684| 
     887 00000088 8A92          MOVL      XAR4,*+XAR2[AR0]      ; [CPU_] |684| 
     888              $C$DW$110       .dwtag  DW_TAG_TI_branch
     889                      .dwattr $C$DW$110, DW_AT_low_pc(0x00)
     890                      .dwattr $C$DW$110, DW_AT_name("_EST_isOnLine")
     891                      .dwattr $C$DW$110, DW_AT_TI_call
     892              
     893 00000089 7640!         LCR       #_EST_isOnLine        ; [CPU_] |684| 
         0000008a 0000 
     894                      ; call occurs [#_EST_isOnLine] ; [] |684| 
     895 0000008b 5200          CMPB      AL,#0                 ; [CPU_] |684| 
     896 0000008c 6104          B         $C$L10,EQ             ; [CPU_] |684| 
     897                      ; branchcc occurs ; [] |684| 
     898                      .dwpsn  file "/home/wmj/Documents/motor/sw/modules/ctrl/src/32b/ctrl.c",line 687,column 19,is_stmt,is
     899 0000008d 8AA2          MOVL      XAR4,XAR2             ; [CPU_] |687| 
     900              $C$DW$111       .dwtag  DW_TAG_TI_branch
     901                      .dwattr $C$DW$111, DW_AT_low_pc(0x00)
TMS320C2000 Assembler Unix v15.12.3 Wed Jun 28 11:48:12 2017

Tools Copyright (c) 1996-2015 Texas Instruments Incorporated
/tmp/85684BZyCPu                                                     PAGE   18

     902                      .dwattr $C$DW$111, DW_AT_name("_CTRL_setupEstOnLineState")
     903                      .dwattr $C$DW$111, DW_AT_TI_call
     904              
     905 0000008e 7640!         LCR       #_CTRL_setupEstOnLineState ; [CPU_] |687| 
         0000008f 0000 
     906                      ; call occurs [#_CTRL_setupEstOnLineState] ; [] |687| 
     907 00000090       $C$L10:    
     908                      .dwpsn  file "/home/wmj/Documents/motor/sw/modules/ctrl/src/32b/ctrl.c",line 690,column 15,is_stmt,is
     909 00000090 D018          MOVB      XAR0,#24              ; [CPU_] |690| 
     910 00000091 8A92          MOVL      XAR4,*+XAR2[AR0]      ; [CPU_] |690| 
     911              $C$DW$112       .dwtag  DW_TAG_TI_branch
     912                      .dwattr $C$DW$112, DW_AT_low_pc(0x00)
     913                      .dwattr $C$DW$112, DW_AT_name("_EST_isLockRotor")
     914                      .dwattr $C$DW$112, DW_AT_TI_call
     915              
     916 00000092 7640!         LCR       #_EST_isLockRotor     ; [CPU_] |690| 
         00000093 0000 
     917                      ; call occurs [#_EST_isLockRotor] ; [] |690| 
     918 00000094 5200          CMPB      AL,#0                 ; [CPU_] |690| 
     919 00000095 600D          B         $C$L11,NEQ            ; [CPU_] |690| 
     920                      ; branchcc occurs ; [] |690| 
     921 00000096 D018          MOVB      XAR0,#24              ; [CPU_] |690| 
     922 00000097 8A92          MOVL      XAR4,*+XAR2[AR0]      ; [CPU_] |690| 
     923              $C$DW$113       .dwtag  DW_TAG_TI_branch
     924                      .dwattr $C$DW$113, DW_AT_low_pc(0x00)
     925                      .dwattr $C$DW$113, DW_AT_name("_EST_isIdle")
     926                      .dwattr $C$DW$113, DW_AT_TI_call
     927              
     928 00000098 7640!         LCR       #_EST_isIdle          ; [CPU_] |690| 
         00000099 0000 
     929                      ; call occurs [#_EST_isIdle] ; [] |690| 
     930 0000009a 5200          CMPB      AL,#0                 ; [CPU_] |690| 
     931 0000009b 610D          B         $C$L12,EQ             ; [CPU_] |690| 
     932                      ; branchcc occurs ; [] |690| 
     933 0000009c D018          MOVB      XAR0,#24              ; [CPU_] |690| 
     934 0000009d 8A92          MOVL      XAR4,*+XAR2[AR0]      ; [CPU_] |690| 
     935              $C$DW$114       .dwtag  DW_TAG_TI_branch
     936                      .dwattr $C$DW$114, DW_AT_low_pc(0x00)
     937                      .dwattr $C$DW$114, DW_AT_name("_EST_isMotorIdentified")
     938                      .dwattr $C$DW$114, DW_AT_TI_call
     939              
     940 0000009e 7640!         LCR       #_EST_isMotorIdentified ; [CPU_] |690| 
         0000009f 0000 
     941                      ; call occurs [#_EST_isMotorIdentified] ; [] |690| 
     942 000000a0 5200          CMPB      AL,#0                 ; [CPU_] |690| 
     943 000000a1 6107          B         $C$L12,EQ             ; [CPU_] |690| 
     944                      ; branchcc occurs ; [] |690| 
     945 000000a2       $C$L11:    
     946                      .dwpsn  file "/home/wmj/Documents/motor/sw/modules/ctrl/src/32b/ctrl.h",line 1218,column 3,is_stmt,is
     947 000000a2 D0F0          MOVB      XAR0,#240             ; [CPU_] |1218| 
     948 000000a3 2B92          MOV       *+XAR2[AR0],#0        ; [CPU_] |1218| 
     949                      .dwpsn  file "/home/wmj/Documents/motor/sw/modules/ctrl/src/32b/ctrl.h",line 1778,column 3,is_stmt,is
     950 000000a4 92E2          MOV       AL,*+XAR2[4]          ; [CPU_] |1778| 
     951 000000a5 96EA          MOV       *+XAR2[5],AL          ; [CPU_] |1778| 
     952                      .dwpsn  file "/home/wmj/Documents/motor/sw/modules/ctrl/src/32b/ctrl.h",line 1779,column 3,is_stmt,is
TMS320C2000 Assembler Unix v15.12.3 Wed Jun 28 11:48:12 2017

Tools Copyright (c) 1996-2015 Texas Instruments Incorporated
/tmp/85684BZyCPu                                                     PAGE   19

     953 000000a6 56BF          MOVB      *+XAR2[4],#1,UNC      ; [CPU_] |1779| 
         000000a7 01E2 
     954 000000a8       $C$L12:    
     955                      .dwpsn  file "/home/wmj/Documents/motor/sw/modules/ctrl/src/32b/ctrl.c",line 773,column 3,is_stmt,isa
     956 000000a8 8841          MOVZ      AR6,*-SP[1]           ; [CPU_] |773| 
     957 000000a9 0EE2          MOVU      ACC,*+XAR2[4]         ; [CPU_] |773| 
     958 000000aa 0FA6          CMPL      ACC,XAR6              ; [CPU_] |773| 
     959                      .dwpsn  file "/home/wmj/Documents/motor/sw/modules/ctrl/src/32b/ctrl.c",line 775,column 7,is_stmt,isa
     960 000000ab 56B0          MOVB      XAR1,#1,NEQ           ; [CPU_] |775| 
         000000ac 01A1 
     961 000000ad FE84          SUBB      SP,#4                 ; [CPU_U] 
     962                      .dwcfi  cfa_offset, -8
     963                      .dwpsn  file "/home/wmj/Documents/motor/sw/modules/ctrl/src/32b/ctrl.c",line 778,column 3,is_stmt,isa
     964 000000ae 92A1          MOV       AL,AR1                ; [CPU_] |778| 
     965 000000af 82BE          MOVL      XAR3,*--SP            ; [CPU_] 
     966                      .dwcfi  cfa_offset, -6
     967                      .dwcfi  restore_reg, 11
     968 000000b0 86BE          MOVL      XAR2,*--SP            ; [CPU_] 
     969                      .dwcfi  cfa_offset, -4
     970                      .dwcfi  restore_reg, 9
     971 000000b1 8BBE          MOVL      XAR1,*--SP            ; [CPU_] 
     972                      .dwcfi  cfa_offset, -2
     973                      .dwcfi  restore_reg, 7
     974              $C$DW$115       .dwtag  DW_TAG_TI_branch
     975                      .dwattr $C$DW$115, DW_AT_low_pc(0x00)
     976                      .dwattr $C$DW$115, DW_AT_TI_return
     977              
     978 000000b2 0006          LRETR     ; [CPU_] 
     979                      ; return occurs ; [] 
     980                      .dwattr $C$DW$89, DW_AT_TI_end_file("/home/wmj/Documents/motor/sw/modules/ctrl/src/32b/ctrl.c")
     981                      .dwattr $C$DW$89, DW_AT_TI_end_line(0x30b)
     982                      .dwattr $C$DW$89, DW_AT_TI_end_column(0x01)
     983                      .dwendentry
     984                      .dwendtag $C$DW$89
     985              
     986 000000b3               .sect   ".text"
     987                      .clink
     988                      .global _CTRL_setup_user
     989              
     990              $C$DW$116       .dwtag  DW_TAG_subprogram
     991                      .dwattr $C$DW$116, DW_AT_name("CTRL_setup_user")
     992                      .dwattr $C$DW$116, DW_AT_low_pc(_CTRL_setup_user)
     993                      .dwattr $C$DW$116, DW_AT_high_pc(0x00)
     994                      .dwattr $C$DW$116, DW_AT_TI_symbol_name("_CTRL_setup_user")
     995                      .dwattr $C$DW$116, DW_AT_external
     996                      .dwattr $C$DW$116, DW_AT_TI_begin_file("/home/wmj/Documents/motor/sw/modules/ctrl/src/32b/ctrl.c")
     997                      .dwattr $C$DW$116, DW_AT_TI_begin_line(0x23c)
     998                      .dwattr $C$DW$116, DW_AT_TI_begin_column(0x06)
     999                      .dwattr $C$DW$116, DW_AT_TI_max_frame_size(-18)
    1000                      .dwpsn  file "/home/wmj/Documents/motor/sw/modules/ctrl/src/32b/ctrl.c",line 581,column 1,is_stmt,add
    1001              
    1002                      .dwfde $C$DW$CIE, _CTRL_setup_user
    1003              $C$DW$117       .dwtag  DW_TAG_formal_parameter
    1004                      .dwattr $C$DW$117, DW_AT_name("handle")
    1005                      .dwattr $C$DW$117, DW_AT_TI_symbol_name("_handle")
TMS320C2000 Assembler Unix v15.12.3 Wed Jun 28 11:48:12 2017

Tools Copyright (c) 1996-2015 Texas Instruments Incorporated
/tmp/85684BZyCPu                                                     PAGE   20

    1006                      .dwattr $C$DW$117, DW_AT_type(*$C$DW$T$161)
    1007                      .dwattr $C$DW$117, DW_AT_location[DW_OP_reg12]
    1008              
    1009              $C$DW$118       .dwtag  DW_TAG_formal_parameter
    1010                      .dwattr $C$DW$118, DW_AT_name("angle_pu")
    1011                      .dwattr $C$DW$118, DW_AT_TI_symbol_name("_angle_pu")
    1012                      .dwattr $C$DW$118, DW_AT_type(*$C$DW$T$227)
    1013                      .dwattr $C$DW$118, DW_AT_location[DW_OP_reg0]
    1014              
    1015              $C$DW$119       .dwtag  DW_TAG_formal_parameter
    1016                      .dwattr $C$DW$119, DW_AT_name("speed_ref_pu")
    1017                      .dwattr $C$DW$119, DW_AT_TI_symbol_name("_speed_ref_pu")
    1018                      .dwattr $C$DW$119, DW_AT_type(*$C$DW$T$227)
    1019                      .dwattr $C$DW$119, DW_AT_location[DW_OP_breg20 -20]
    1020              
    1021              $C$DW$120       .dwtag  DW_TAG_formal_parameter
    1022                      .dwattr $C$DW$120, DW_AT_name("speed_fb_pu")
    1023                      .dwattr $C$DW$120, DW_AT_TI_symbol_name("_speed_fb_pu")
    1024                      .dwattr $C$DW$120, DW_AT_type(*$C$DW$T$227)
    1025                      .dwattr $C$DW$120, DW_AT_location[DW_OP_breg20 -22]
    1026              
    1027              $C$DW$121       .dwtag  DW_TAG_formal_parameter
    1028                      .dwattr $C$DW$121, DW_AT_name("speed_outMax_pu")
    1029                      .dwattr $C$DW$121, DW_AT_TI_symbol_name("_speed_outMax_pu")
    1030                      .dwattr $C$DW$121, DW_AT_type(*$C$DW$T$227)
    1031                      .dwattr $C$DW$121, DW_AT_location[DW_OP_breg20 -24]
    1032              
    1033              $C$DW$122       .dwtag  DW_TAG_formal_parameter
    1034                      .dwattr $C$DW$122, DW_AT_name("pIdq_offset_pu")
    1035                      .dwattr $C$DW$122, DW_AT_TI_symbol_name("_pIdq_offset_pu")
    1036                      .dwattr $C$DW$122, DW_AT_type(*$C$DW$T$197)
    1037                      .dwattr $C$DW$122, DW_AT_location[DW_OP_reg14]
    1038              
    1039              $C$DW$123       .dwtag  DW_TAG_formal_parameter
    1040                      .dwattr $C$DW$123, DW_AT_name("pVdq_offset_pu")
    1041                      .dwattr $C$DW$123, DW_AT_TI_symbol_name("_pVdq_offset_pu")
    1042                      .dwattr $C$DW$123, DW_AT_type(*$C$DW$T$197)
    1043                      .dwattr $C$DW$123, DW_AT_location[DW_OP_breg20 -26]
    1044              
    1045              $C$DW$124       .dwtag  DW_TAG_formal_parameter
    1046                      .dwattr $C$DW$124, DW_AT_name("flag_enableSpeedCtrl")
    1047                      .dwattr $C$DW$124, DW_AT_TI_symbol_name("_flag_enableSpeedCtrl")
    1048                      .dwattr $C$DW$124, DW_AT_type(*$C$DW$T$262)
    1049                      .dwattr $C$DW$124, DW_AT_location[DW_OP_breg20 -27]
    1050              
    1051              $C$DW$125       .dwtag  DW_TAG_formal_parameter
    1052                      .dwattr $C$DW$125, DW_AT_name("flag_enableCurrentCtrl")
    1053                      .dwattr $C$DW$125, DW_AT_TI_symbol_name("_flag_enableCurrentCtrl")
    1054                      .dwattr $C$DW$125, DW_AT_type(*$C$DW$T$262)
    1055                      .dwattr $C$DW$125, DW_AT_location[DW_OP_breg20 -28]
    1056              
    1057              
    1058              ;***************************************************************
    1059              ;* FNAME: _CTRL_setup_user              FR SIZE:  16           *
    1060              ;*                                                             *
TMS320C2000 Assembler Unix v15.12.3 Wed Jun 28 11:48:12 2017

Tools Copyright (c) 1996-2015 Texas Instruments Incorporated
/tmp/85684BZyCPu                                                     PAGE   21

    1061              ;* FUNCTION ENVIRONMENT                                        *
    1062              ;*                                                             *
    1063              ;* FUNCTION PROPERTIES                                         *
    1064              ;*                            0 Parameter, 10 Auto,  6 SOE     *
    1065              ;***************************************************************
    1066              
    1067              _CTRL_setup_user:
    1068              ;* AR7   assigned to _numCtrlTicksPerTrajTick
    1069              $C$DW$126       .dwtag  DW_TAG_variable
    1070                      .dwattr $C$DW$126, DW_AT_name("numCtrlTicksPerTrajTick")
    1071                      .dwattr $C$DW$126, DW_AT_TI_symbol_name("_numCtrlTicksPerTrajTick")
    1072                      .dwattr $C$DW$126, DW_AT_type(*$C$DW$T$67)
    1073                      .dwattr $C$DW$126, DW_AT_location[DW_OP_reg18]
    1074              
    1075              ;* PL    assigned to _count_traj
    1076              $C$DW$127       .dwtag  DW_TAG_variable
    1077                      .dwattr $C$DW$127, DW_AT_name("count_traj")
    1078                      .dwattr $C$DW$127, DW_AT_TI_symbol_name("_count_traj")
    1079                      .dwattr $C$DW$127, DW_AT_type(*$C$DW$T$67)
    1080                      .dwattr $C$DW$127, DW_AT_location[DW_OP_reg2]
    1081              
    1082              ;* AR6   assigned to _ctrlState
    1083              $C$DW$128       .dwtag  DW_TAG_variable
    1084                      .dwattr $C$DW$128, DW_AT_name("ctrlState")
    1085                      .dwattr $C$DW$128, DW_AT_TI_symbol_name("_ctrlState")
    1086                      .dwattr $C$DW$128, DW_AT_type(*$C$DW$T$40)
    1087                      .dwattr $C$DW$128, DW_AT_location[DW_OP_reg16]
    1088              
    1089              $C$DW$129       .dwtag  DW_TAG_variable
    1090                      .dwattr $C$DW$129, DW_AT_name("flag_enableCurrentCtrl")
    1091                      .dwattr $C$DW$129, DW_AT_TI_symbol_name("_flag_enableCurrentCtrl")
    1092                      .dwattr $C$DW$129, DW_AT_type(*$C$DW$T$262)
    1093                      .dwattr $C$DW$129, DW_AT_location[DW_OP_breg20 -1]
    1094              
    1095              $C$DW$130       .dwtag  DW_TAG_variable
    1096                      .dwattr $C$DW$130, DW_AT_name("flag_enableSpeedCtrl")
    1097                      .dwattr $C$DW$130, DW_AT_TI_symbol_name("_flag_enableSpeedCtrl")
    1098                      .dwattr $C$DW$130, DW_AT_type(*$C$DW$T$262)
    1099                      .dwattr $C$DW$130, DW_AT_location[DW_OP_breg20 -2]
    1100              
    1101              $C$DW$131       .dwtag  DW_TAG_variable
    1102                      .dwattr $C$DW$131, DW_AT_name("pVdq_offset_pu")
    1103                      .dwattr $C$DW$131, DW_AT_TI_symbol_name("_pVdq_offset_pu")
    1104                      .dwattr $C$DW$131, DW_AT_type(*$C$DW$T$198)
    1105                      .dwattr $C$DW$131, DW_AT_location[DW_OP_breg20 -4]
    1106              
    1107              ;* AR3   assigned to _pIdq_offset_pu
    1108              $C$DW$132       .dwtag  DW_TAG_variable
    1109                      .dwattr $C$DW$132, DW_AT_name("pIdq_offset_pu")
    1110                      .dwattr $C$DW$132, DW_AT_TI_symbol_name("_pIdq_offset_pu")
    1111                      .dwattr $C$DW$132, DW_AT_type(*$C$DW$T$198)
    1112                      .dwattr $C$DW$132, DW_AT_location[DW_OP_reg10]
    1113              
    1114              $C$DW$133       .dwtag  DW_TAG_variable
    1115                      .dwattr $C$DW$133, DW_AT_name("speed_outMax_pu")
TMS320C2000 Assembler Unix v15.12.3 Wed Jun 28 11:48:12 2017

Tools Copyright (c) 1996-2015 Texas Instruments Incorporated
/tmp/85684BZyCPu                                                     PAGE   22

    1116                      .dwattr $C$DW$133, DW_AT_TI_symbol_name("_speed_outMax_pu")
    1117                      .dwattr $C$DW$133, DW_AT_type(*$C$DW$T$227)
    1118                      .dwattr $C$DW$133, DW_AT_location[DW_OP_breg20 -6]
    1119              
    1120              $C$DW$134       .dwtag  DW_TAG_variable
    1121                      .dwattr $C$DW$134, DW_AT_name("speed_fb_pu")
    1122                      .dwattr $C$DW$134, DW_AT_TI_symbol_name("_speed_fb_pu")
    1123                      .dwattr $C$DW$134, DW_AT_type(*$C$DW$T$227)
    1124                      .dwattr $C$DW$134, DW_AT_location[DW_OP_breg20 -8]
    1125              
    1126              ;* AR2   assigned to _speed_ref_pu
    1127              $C$DW$135       .dwtag  DW_TAG_variable
    1128                      .dwattr $C$DW$135, DW_AT_name("speed_ref_pu")
    1129                      .dwattr $C$DW$135, DW_AT_TI_symbol_name("_speed_ref_pu")
    1130                      .dwattr $C$DW$135, DW_AT_type(*$C$DW$T$227)
    1131                      .dwattr $C$DW$135, DW_AT_location[DW_OP_reg8]
    1132              
    1133              $C$DW$136       .dwtag  DW_TAG_variable
    1134                      .dwattr $C$DW$136, DW_AT_name("angle_pu")
    1135                      .dwattr $C$DW$136, DW_AT_TI_symbol_name("_angle_pu")
    1136                      .dwattr $C$DW$136, DW_AT_type(*$C$DW$T$227)
    1137                      .dwattr $C$DW$136, DW_AT_location[DW_OP_breg20 -10]
    1138              
    1139              ;* AR1   assigned to _handle
    1140              $C$DW$137       .dwtag  DW_TAG_variable
    1141                      .dwattr $C$DW$137, DW_AT_name("handle")
    1142                      .dwattr $C$DW$137, DW_AT_TI_symbol_name("_handle")
    1143                      .dwattr $C$DW$137, DW_AT_type(*$C$DW$T$175)
    1144                      .dwattr $C$DW$137, DW_AT_location[DW_OP_reg6]
    1145              
    1146                      .dwcfi  cfa_offset, -2
    1147                      .dwcfi  save_reg_to_mem, 26, 0
    1148 000000b3 B2BD          MOVL      *SP++,XAR1            ; [CPU_] 
    1149                      .dwcfi  save_reg_to_mem, 7, 2
    1150                      .dwcfi  cfa_offset, -4
    1151 000000b4 AABD          MOVL      *SP++,XAR2            ; [CPU_] 
    1152                      .dwcfi  save_reg_to_mem, 9, 4
    1153                      .dwcfi  cfa_offset, -6
    1154 000000b5 A2BD          MOVL      *SP++,XAR3            ; [CPU_] 
    1155                      .dwcfi  save_reg_to_mem, 11, 6
    1156                      .dwcfi  cfa_offset, -8
    1157 000000b6 FE0A          ADDB      SP,#10                ; [CPU_U] 
    1158                      .dwcfi  cfa_offset, -18
    1159 000000b7 1E4A          MOVL      *-SP[10],ACC          ; [CPU_] |581| 
    1160                      .dwpsn  file "/home/wmj/Documents/motor/sw/modules/ctrl/src/32b/ctrl.h",line 143,column 3,is_stmt,isa
    1161 000000b8 D0EF          MOVB      XAR0,#239             ; [CPU_] |143| 
    1162                      .dwpsn  file "/home/wmj/Documents/motor/sw/modules/ctrl/src/32b/ctrl.c",line 581,column 1,is_stmt,isa
    1163 000000b9 8BA4          MOVL      XAR1,XAR4             ; [CPU_] |581| 
    1164 000000ba 925C          MOV       AL,*-SP[28]           ; [CPU_] |581| 
    1165 000000bb 8654          MOVL      XAR2,*-SP[20]         ; [CPU_] |581| 
    1166 000000bc 9641          MOV       *-SP[1],AL            ; [CPU_] |581| 
    1167 000000bd 925B          MOV       AL,*-SP[27]           ; [CPU_] |581| 
    1168 000000be 9642          MOV       *-SP[2],AL            ; [CPU_] |581| 
    1169 000000bf 065A          MOVL      ACC,*-SP[26]          ; [CPU_] |581| 
    1170 000000c0 1E44          MOVL      *-SP[4],ACC           ; [CPU_] |581| 
TMS320C2000 Assembler Unix v15.12.3 Wed Jun 28 11:48:12 2017

Tools Copyright (c) 1996-2015 Texas Instruments Incorporated
/tmp/85684BZyCPu                                                     PAGE   23

    1171 000000c1 0658          MOVL      ACC,*-SP[24]          ; [CPU_] |581| 
    1172 000000c2 1E46          MOVL      *-SP[6],ACC           ; [CPU_] |581| 
    1173 000000c3 0656          MOVL      ACC,*-SP[22]          ; [CPU_] |581| 
    1174 000000c4 1E48          MOVL      *-SP[8],ACC           ; [CPU_] |581| 
    1175 000000c5 A8A9          MOVL      ACC,XAR4              ; [CPU_] |581| 
    1176                      .dwpsn  file "/home/wmj/Documents/motor/sw/modules/ctrl/src/32b/ctrl.h",line 1013,column 3,is_stmt,is
    1177 000000c6 099A          ADDB      ACC,#154              ; [CPU_] |1013| 
    1178 000000c7 8AA9          MOVL      XAR4,ACC              ; [CPU_] |1013| 
    1179                      .dwpsn  file "/home/wmj/Documents/motor/sw/modules/ctrl/src/32b/ctrl.h",line 143,column 3,is_stmt,isa
    1180 000000c8 2791          MOV       PL,*+XAR1[AR0]        ; [CPU_] |143| 
    1181                      .dwpsn  file "/home/wmj/Documents/motor/sw/modules/ctrl/src/32b/ctrl.h",line 771,column 3,is_stmt,isa
    1182 000000c9 88E1          MOVZ      AR6,*+XAR1[4]         ; [CPU_] |771| 
    1183                      .dwpsn  file "/home/wmj/Documents/motor/sw/modules/ctrl/src/32b/ctrl.h",line 606,column 3,is_stmt,isa
    1184 000000ca D09F          MOVB      XAR0,#159             ; [CPU_] |606| 
    1185                      .dwpsn  file "/home/wmj/Documents/motor/sw/modules/ctrl/src/32b/ctrl.h",line 1013,column 3,is_stmt,is
    1186 000000cb 0201          MOVB      ACC,#1                ; [CPU_] |1013| 
    1187                      .dwpsn  file "/home/wmj/Documents/motor/sw/modules/ctrl/src/32b/ctrl.h",line 606,column 3,is_stmt,isa
    1188 000000cc 8091          MOVZ      AR7,*+XAR1[AR0]       ; [CPU_] |606| 
    1189                      .dwpsn  file "/home/wmj/Documents/motor/sw/modules/ctrl/src/32b/ctrl.h",line 1013,column 3,is_stmt,is
    1190 000000cd 5601          ADDL      *+XAR4[0],ACC         ; [CPU_] |1013| 
         000000ce 00C4 
    1191                      .dwpsn  file "/home/wmj/Documents/motor/sw/modules/ctrl/src/32b/ctrl.h",line 1031,column 3,is_stmt,is
    1192 000000cf B2A9          MOVL      ACC,XAR1              ; [CPU_] |1031| 
    1193 000000d0 09EF          ADDB      ACC,#239              ; [CPU_] |1031| 
    1194 000000d1 8AA9          MOVL      XAR4,ACC              ; [CPU_] |1031| 
    1195                      .dwpsn  file "/home/wmj/Documents/motor/sw/modules/ctrl/src/32b/ctrl.c",line 581,column 1,is_stmt,isa
    1196 000000d2 82A5          MOVL      XAR3,XAR5             ; [CPU_] |581| 
    1197                      .dwpsn  file "/home/wmj/Documents/motor/sw/modules/ctrl/src/32b/ctrl.h",line 1031,column 3,is_stmt,is
    1198 000000d3 92A6          MOV       AL,AR6                ; [CPU_] |1031| 
    1199 000000d4 0AC4          INC       *+XAR4[0]             ; [CPU_] |1031| 
    1200                      .dwpsn  file "/home/wmj/Documents/motor/sw/modules/ctrl/src/32b/ctrl.c",line 594,column 3,is_stmt,isa
    1201 000000d5 5203          CMPB      AL,#3                 ; [CPU_] |594| 
    1202 000000d6 6009          B         $C$L13,NEQ            ; [CPU_] |594| 
    1203                      ; branchcc occurs ; [] |594| 
    1204                      .dwpsn  file "/home/wmj/Documents/motor/sw/modules/ctrl/src/32b/ctrl.h",line 959,column 3,is_stmt,isa
    1205 000000d7 B2A9          MOVL      ACC,XAR1              ; [CPU_] |959| 
    1206 000000d8 09EC          ADDB      ACC,#236              ; [CPU_] |959| 
    1207 000000d9 8AA9          MOVL      XAR4,ACC              ; [CPU_] |959| 
    1208                      .dwpsn  file "/home/wmj/Documents/motor/sw/modules/ctrl/src/32b/ctrl.h",line 995,column 3,is_stmt,isa
    1209 000000da B2A9          MOVL      ACC,XAR1              ; [CPU_] |995| 
    1210                      .dwpsn  file "/home/wmj/Documents/motor/sw/modules/ctrl/src/32b/ctrl.h",line 959,column 3,is_stmt,isa
    1211 000000db 0AC4          INC       *+XAR4[0]             ; [CPU_] |959| 
    1212                      .dwpsn  file "/home/wmj/Documents/motor/sw/modules/ctrl/src/32b/ctrl.h",line 995,column 3,is_stmt,isa
    1213 000000dc 09EE          ADDB      ACC,#238              ; [CPU_] |995| 
    1214 000000dd 8AA9          MOVL      XAR4,ACC              ; [CPU_] |995| 
    1215 000000de 0AC4          INC       *+XAR4[0]             ; [CPU_] |995| 
    1216 000000df       $C$L13:    
    1217 000000df 92A7          MOV       AL,AR7                ; [CPU_] 
    1218                      .dwpsn  file "/home/wmj/Documents/motor/sw/modules/ctrl/src/32b/ctrl.c",line 604,column 3,is_stmt,isa
    1219 000000e0 54AB          CMP       AL,PL                 ; [CPU_] |604| 
    1220 000000e1 6606          B         $C$L14,HI             ; [CPU_] |604| 
    1221                      ; branchcc occurs ; [] |604| 
    1222                      .dwpsn  file "/home/wmj/Documents/motor/sw/modules/ctrl/src/32b/ctrl.h",line 1123,column 3,is_stmt,is
    1223 000000e2 D0EF          MOVB      XAR0,#239             ; [CPU_] |1123| 
    1224                      .dwpsn  file "/home/wmj/Documents/motor/sw/modules/ctrl/src/32b/ctrl.c",line 610,column 5,is_stmt,isa
TMS320C2000 Assembler Unix v15.12.3 Wed Jun 28 11:48:12 2017

Tools Copyright (c) 1996-2015 Texas Instruments Incorporated
/tmp/85684BZyCPu                                                     PAGE   24

    1225 000000e3 8AA1          MOVL      XAR4,XAR1             ; [CPU_] |610| 
    1226                      .dwpsn  file "/home/wmj/Documents/motor/sw/modules/ctrl/src/32b/ctrl.h",line 1123,column 3,is_stmt,is
    1227 000000e4 2B91          MOV       *+XAR1[AR0],#0        ; [CPU_] |1123| 
    1228                      .dwpsn  file "/home/wmj/Documents/motor/sw/modules/ctrl/src/32b/ctrl.c",line 610,column 5,is_stmt,isa
    1229              $C$DW$138       .dwtag  DW_TAG_TI_branch
    1230                      .dwattr $C$DW$138, DW_AT_low_pc(0x00)
    1231                      .dwattr $C$DW$138, DW_AT_name("_CTRL_runTraj")
    1232                      .dwattr $C$DW$138, DW_AT_TI_call
    1233              
    1234 000000e5 7640!         LCR       #_CTRL_runTraj        ; [CPU_] |610| 
         000000e6 0000 
    1235                      ; call occurs [#_CTRL_runTraj] ; [] |610| 
    1236 000000e7       $C$L14:    
    1237                      .dwpsn  file "/home/wmj/Documents/motor/sw/modules/ctrl/src/32b/ctrl.h",line 1154,column 3,is_stmt,is
    1238 000000e7 D0FE          MOVB      XAR0,#254             ; [CPU_] |1154| 
    1239 000000e8 064A          MOVL      ACC,*-SP[10]          ; [CPU_] |1154| 
    1240 000000e9 1E91          MOVL      *+XAR1[AR0],ACC       ; [CPU_] |1154| 
    1241                      .dwpsn  file "/home/wmj/Documents/motor/sw/modules/ctrl/src/32b/ctrl.h",line 1753,column 3,is_stmt,is
    1242 000000ea B2A9          MOVL      ACC,XAR1              ; [CPU_] |1753| 
    1243 000000eb FF18          ADD       ACC,#1 << 8           ; [CPU_] |1753| 
         000000ec 0001 
    1244 000000ed 8AA9          MOVL      XAR4,ACC              ; [CPU_] |1753| 
    1245                      .dwpsn  file "/home/wmj/Documents/motor/sw/modules/ctrl/src/32b/ctrl.h",line 1701,column 3,is_stmt,is
    1246 000000ee B2A9          MOVL      ACC,XAR1              ; [CPU_] |1701| 
    1247                      .dwpsn  file "/home/wmj/Documents/motor/sw/modules/ctrl/src/32b/ctrl.h",line 1753,column 3,is_stmt,is
    1248 000000ef AAC4          MOVL      *+XAR4[0],XAR2        ; [CPU_] |1753| 
    1249                      .dwpsn  file "/home/wmj/Documents/motor/sw/modules/ctrl/src/32b/ctrl.h",line 1701,column 3,is_stmt,is
    1250 000000f0 FF11          ADD       ACC,#129 << 1         ; [CPU_] |1701| 
         000000f1 0081 
    1251 000000f2 8AA9          MOVL      XAR4,ACC              ; [CPU_] |1701| 
    1252 000000f3 0648          MOVL      ACC,*-SP[8]           ; [CPU_] |1701| 
    1253 000000f4 1EC4          MOVL      *+XAR4[0],ACC         ; [CPU_] |1701| 
    1254                      .dwpsn  file "/home/wmj/Documents/motor/sw/modules/ctrl/src/32b/ctrl.h",line 1740,column 3,is_stmt,is
    1255 000000f5 B2A9          MOVL      ACC,XAR1              ; [CPU_] |1740| 
    1256 000000f6 FF12          ADD       ACC,#65 << 2          ; [CPU_] |1740| 
         000000f7 0041 
    1257 000000f8 8AA9          MOVL      XAR4,ACC              ; [CPU_] |1740| 
    1258                      .dwpsn  file "/home/wmj/Documents/motor/sw/modules/ctrl/src/32b/ctrl.h",line 1374,column 3,is_stmt,is
    1259 000000f9 D0F6          MOVB      XAR0,#246             ; [CPU_] |1374| 
    1260                      .dwpsn  file "/home/wmj/Documents/motor/sw/modules/ctrl/src/32b/ctrl.h",line 1740,column 3,is_stmt,is
    1261 000000fa 0646          MOVL      ACC,*-SP[6]           ; [CPU_] |1740| 
    1262 000000fb 1EC4          MOVL      *+XAR4[0],ACC         ; [CPU_] |1740| 
    1263                      .dwpsn  file "/home/wmj/Documents/motor/sw/modules/ctrl/src/32b/ctrl.h",line 1374,column 3,is_stmt,is
    1264 000000fc 06C3          MOVL      ACC,*+XAR3[0]         ; [CPU_] |1374| 
    1265 000000fd 1E91          MOVL      *+XAR1[AR0],ACC       ; [CPU_] |1374| 
    1266                      .dwpsn  file "/home/wmj/Documents/motor/sw/modules/ctrl/src/32b/ctrl.h",line 1375,column 3,is_stmt,is
    1267 000000fe D0F8          MOVB      XAR0,#248             ; [CPU_] |1375| 
    1268 000000ff 06D3          MOVL      ACC,*+XAR3[2]         ; [CPU_] |1375| 
    1269 00000100 1E91          MOVL      *+XAR1[AR0],ACC       ; [CPU_] |1375| 
    1270                      .dwpsn  file "/home/wmj/Documents/motor/sw/modules/ctrl/src/32b/ctrl.h",line 1914,column 3,is_stmt,is
    1271 00000101 8A44          MOVL      XAR4,*-SP[4]          ; [CPU_] |1914| 
    1272 00000102 D0FA          MOVB      XAR0,#250             ; [CPU_] |1914| 
    1273 00000103 06C4          MOVL      ACC,*+XAR4[0]         ; [CPU_] |1914| 
    1274 00000104 1E91          MOVL      *+XAR1[AR0],ACC       ; [CPU_] |1914| 
    1275                      .dwpsn  file "/home/wmj/Documents/motor/sw/modules/ctrl/src/32b/ctrl.h",line 1915,column 3,is_stmt,is
TMS320C2000 Assembler Unix v15.12.3 Wed Jun 28 11:48:12 2017

Tools Copyright (c) 1996-2015 Texas Instruments Incorporated
/tmp/85684BZyCPu                                                     PAGE   25

    1276 00000105 D0FC          MOVB      XAR0,#252             ; [CPU_] |1915| 
    1277 00000106 06D4          MOVL      ACC,*+XAR4[2]         ; [CPU_] |1915| 
    1278 00000107 1E91          MOVL      *+XAR1[AR0],ACC       ; [CPU_] |1915| 
    1279                      .dwpsn  file "/home/wmj/Documents/motor/sw/modules/ctrl/src/32b/ctrl.h",line 1288,column 3,is_stmt,is
    1280 00000108 D0F4          MOVB      XAR0,#244             ; [CPU_] |1288| 
    1281 00000109 9242          MOV       AL,*-SP[2]            ; [CPU_] |1288| 
    1282 0000010a 9691          MOV       *+XAR1[AR0],AL        ; [CPU_] |1288| 
    1283                      .dwpsn  file "/home/wmj/Documents/motor/sw/modules/ctrl/src/32b/ctrl.h",line 1231,column 3,is_stmt,is
    1284 0000010b B2A9          MOVL      ACC,XAR1              ; [CPU_] |1231| 
    1285 0000010c FF11          ADD       ACC,#131 << 1         ; [CPU_] |1231| 
         0000010d 0083 
    1286 0000010e 8AA9          MOVL      XAR4,ACC              ; [CPU_] |1231| 
    1287 0000010f 9241          MOV       AL,*-SP[1]            ; [CPU_] |1231| 
    1288 00000110 96C4          MOV       *+XAR4[0],AL          ; [CPU_] |1231| 
    1289 00000111 FE8A          SUBB      SP,#10                ; [CPU_U] 
    1290                      .dwcfi  cfa_offset, -8
    1291 00000112 82BE          MOVL      XAR3,*--SP            ; [CPU_] 
    1292                      .dwcfi  cfa_offset, -6
    1293                      .dwcfi  restore_reg, 11
    1294 00000113 86BE          MOVL      XAR2,*--SP            ; [CPU_] 
    1295                      .dwcfi  cfa_offset, -4
    1296                      .dwcfi  restore_reg, 9
    1297 00000114 8BBE          MOVL      XAR1,*--SP            ; [CPU_] 
    1298                      .dwcfi  cfa_offset, -2
    1299                      .dwcfi  restore_reg, 7
    1300              $C$DW$139       .dwtag  DW_TAG_TI_branch
    1301                      .dwattr $C$DW$139, DW_AT_low_pc(0x00)
    1302                      .dwattr $C$DW$139, DW_AT_TI_return
    1303              
    1304 00000115 0006          LRETR     ; [CPU_] 
    1305                      ; return occurs ; [] 
    1306                      .dwattr $C$DW$116, DW_AT_TI_end_file("/home/wmj/Documents/motor/sw/modules/ctrl/src/32b/ctrl.c")
    1307                      .dwattr $C$DW$116, DW_AT_TI_end_line(0x273)
    1308                      .dwattr $C$DW$116, DW_AT_TI_end_column(0x01)
    1309                      .dwendentry
    1310                      .dwendtag $C$DW$116
    1311              
    1312 00000116               .sect   ".text"
    1313                      .clink
    1314                      .global _CTRL_setupClarke_V
    1315              
    1316              $C$DW$140       .dwtag  DW_TAG_subprogram
    1317                      .dwattr $C$DW$140, DW_AT_name("CTRL_setupClarke_V")
    1318                      .dwattr $C$DW$140, DW_AT_low_pc(_CTRL_setupClarke_V)
    1319                      .dwattr $C$DW$140, DW_AT_high_pc(0x00)
    1320                      .dwattr $C$DW$140, DW_AT_TI_symbol_name("_CTRL_setupClarke_V")
    1321                      .dwattr $C$DW$140, DW_AT_external
    1322                      .dwattr $C$DW$140, DW_AT_TI_begin_file("/home/wmj/Documents/motor/sw/modules/ctrl/src/32b/ctrl.c")
    1323                      .dwattr $C$DW$140, DW_AT_TI_begin_line(0x222)
    1324                      .dwattr $C$DW$140, DW_AT_TI_begin_column(0x06)
    1325                      .dwattr $C$DW$140, DW_AT_TI_max_frame_size(-2)
    1326                      .dwpsn  file "/home/wmj/Documents/motor/sw/modules/ctrl/src/32b/ctrl.c",line 547,column 1,is_stmt,add
    1327              
    1328                      .dwfde $C$DW$CIE, _CTRL_setupClarke_V
    1329              $C$DW$141       .dwtag  DW_TAG_formal_parameter
TMS320C2000 Assembler Unix v15.12.3 Wed Jun 28 11:48:12 2017

Tools Copyright (c) 1996-2015 Texas Instruments Incorporated
/tmp/85684BZyCPu                                                     PAGE   26

    1330                      .dwattr $C$DW$141, DW_AT_name("handle")
    1331                      .dwattr $C$DW$141, DW_AT_TI_symbol_name("_handle")
    1332                      .dwattr $C$DW$141, DW_AT_type(*$C$DW$T$161)
    1333                      .dwattr $C$DW$141, DW_AT_location[DW_OP_reg12]
    1334              
    1335              $C$DW$142       .dwtag  DW_TAG_formal_parameter
    1336                      .dwattr $C$DW$142, DW_AT_name("numVoltageSensors")
    1337                      .dwattr $C$DW$142, DW_AT_TI_symbol_name("_numVoltageSensors")
    1338                      .dwattr $C$DW$142, DW_AT_type(*$C$DW$T$33)
    1339                      .dwattr $C$DW$142, DW_AT_location[DW_OP_reg0]
    1340              
    1341              
    1342              ;***************************************************************
    1343              ;* FNAME: _CTRL_setupClarke_V           FR SIZE:   0           *
    1344              ;*                                                             *
    1345              ;* FUNCTION ENVIRONMENT                                        *
    1346              ;*                                                             *
    1347              ;* FUNCTION PROPERTIES                                         *
    1348              ;*                            0 Parameter,  0 Auto,  0 SOE     *
    1349              ;***************************************************************
    1350              
    1351              _CTRL_setupClarke_V:
    1352              ;* AR5   assigned to _obj
    1353              $C$DW$143       .dwtag  DW_TAG_variable
    1354                      .dwattr $C$DW$143, DW_AT_name("obj")
    1355                      .dwattr $C$DW$143, DW_AT_TI_symbol_name("_obj")
    1356                      .dwattr $C$DW$143, DW_AT_type(*$C$DW$T$173)
    1357                      .dwattr $C$DW$143, DW_AT_location[DW_OP_reg14]
    1358              
    1359              ;* PL    assigned to _beta_sf
    1360              $C$DW$144       .dwtag  DW_TAG_variable
    1361                      .dwattr $C$DW$144, DW_AT_name("beta_sf")
    1362                      .dwattr $C$DW$144, DW_AT_TI_symbol_name("_beta_sf")
    1363                      .dwattr $C$DW$144, DW_AT_type(*$C$DW$T$32)
    1364                      .dwattr $C$DW$144, DW_AT_location[DW_OP_reg2]
    1365              
    1366              ;* AR6   assigned to _alpha_sf
    1367              $C$DW$145       .dwtag  DW_TAG_variable
    1368                      .dwattr $C$DW$145, DW_AT_name("alpha_sf")
    1369                      .dwattr $C$DW$145, DW_AT_TI_symbol_name("_alpha_sf")
    1370                      .dwattr $C$DW$145, DW_AT_type(*$C$DW$T$32)
    1371                      .dwattr $C$DW$145, DW_AT_location[DW_OP_reg16]
    1372              
    1373              ;* AL    assigned to _numVoltageSensors
    1374              $C$DW$146       .dwtag  DW_TAG_variable
    1375                      .dwattr $C$DW$146, DW_AT_name("numVoltageSensors")
    1376                      .dwattr $C$DW$146, DW_AT_TI_symbol_name("_numVoltageSensors")
    1377                      .dwattr $C$DW$146, DW_AT_type(*$C$DW$T$225)
    1378                      .dwattr $C$DW$146, DW_AT_location[DW_OP_reg0]
    1379              
    1380              ;* AR4   assigned to _handle
    1381              $C$DW$147       .dwtag  DW_TAG_variable
    1382                      .dwattr $C$DW$147, DW_AT_name("handle")
    1383                      .dwattr $C$DW$147, DW_AT_TI_symbol_name("_handle")
    1384                      .dwattr $C$DW$147, DW_AT_type(*$C$DW$T$175)
TMS320C2000 Assembler Unix v15.12.3 Wed Jun 28 11:48:12 2017

Tools Copyright (c) 1996-2015 Texas Instruments Incorporated
/tmp/85684BZyCPu                                                     PAGE   27

    1385                      .dwattr $C$DW$147, DW_AT_location[DW_OP_reg12]
    1386              
    1387                      .dwcfi  cfa_offset, -2
    1388                      .dwcfi  save_reg_to_mem, 26, 0
    1389                      .dwpsn  file "/home/wmj/Documents/motor/sw/modules/ctrl/src/32b/ctrl.c",line 553,column 3,is_stmt,isa
    1390 00000116 5203          CMPB      AL,#3                 ; [CPU_] |553| 
    1391 00000117 6104          B         $C$L15,EQ             ; [CPU_] |553| 
    1392                      ; branchcc occurs ; [] |553| 
    1393                      .dwpsn  file "/home/wmj/Documents/motor/sw/modules/ctrl/src/32b/ctrl.c",line 560,column 7,is_stmt,isa
    1394 00000118 BE00          MOVB      XAR6,#0               ; [CPU_] |560| 
    1395                      .dwpsn  file "/home/wmj/Documents/motor/sw/modules/ctrl/src/32b/ctrl.c",line 561,column 7,is_stmt,isa
    1396 00000119 3100          MOV       P,#0                  ; [CPU_] |561| 
    1397 0000011a 6F0A          B         $C$L16,UNC            ; [CPU_] |561| 
    1398                      ; branch occurs ; [] |561| 
    1399 0000011b       $C$L15:    
    1400                      .dwpsn  file "/home/wmj/Documents/motor/sw/modules/ctrl/src/32b/ctrl.c",line 555,column 7,is_stmt,isa
    1401 0000011b 28AB          MOV       PL,#21845             ; [CPU_] |555| 
         0000011c 5555 
    1402 0000011d 28AA          MOV       PH,#85                ; [CPU_] |555| 
         0000011e 0055 
    1403 0000011f A9A6          MOVL      XAR6,P                ; [CPU_] |555| 
    1404                      .dwpsn  file "/home/wmj/Documents/motor/sw/modules/ctrl/src/32b/ctrl.c",line 556,column 7,is_stmt,isa
    1405 00000120 28AB          MOV       PL,#52538             ; [CPU_] |556| 
         00000121 CD3A 
    1406 00000122 28AA          MOV       PH,#147               ; [CPU_] |556| 
         00000123 0093 
    1407 00000124       $C$L16:    
    1408                      .dwpsn  file "/home/wmj/Documents/motor/sw/modules/clarke/src/32b/clarke.h",line 182,column 19,is_stm
    1409 00000124 D010          MOVB      XAR0,#16              ; [CPU_] |182| 
    1410 00000125 8394          MOVL      XAR5,*+XAR4[AR0]      ; [CPU_] |182| 
    1411                      .dwpsn  file "/home/wmj/Documents/motor/sw/modules/clarke/src/32b/clarke.h",line 170,column 3,is_stmt
    1412 00000126 D010          MOVB      XAR0,#16              ; [CPU_] |170| 
    1413                      .dwpsn  file "/home/wmj/Documents/motor/sw/modules/clarke/src/32b/clarke.h",line 185,column 3,is_stmt
    1414 00000127 C2C5          MOVL      *+XAR5[0],XAR6        ; [CPU_] |185| 
    1415                      .dwpsn  file "/home/wmj/Documents/motor/sw/modules/clarke/src/32b/clarke.h",line 186,column 3,is_stmt
    1416 00000128 A9D5          MOVL      *+XAR5[2],P           ; [CPU_] |186| 
    1417                      .dwpsn  file "/home/wmj/Documents/motor/sw/modules/clarke/src/32b/clarke.h",line 170,column 3,is_stmt
    1418 00000129 8A94          MOVL      XAR4,*+XAR4[AR0]      ; [CPU_] |170| 
    1419 0000012a 96E4          MOV       *+XAR4[4],AL          ; [CPU_] |170| 
    1420              $C$DW$148       .dwtag  DW_TAG_TI_branch
    1421                      .dwattr $C$DW$148, DW_AT_low_pc(0x00)
    1422                      .dwattr $C$DW$148, DW_AT_TI_return
    1423              
    1424 0000012b 0006          LRETR     ; [CPU_] 
    1425                      ; return occurs ; [] 
    1426                      .dwattr $C$DW$140, DW_AT_TI_end_file("/home/wmj/Documents/motor/sw/modules/ctrl/src/32b/ctrl.c")
    1427                      .dwattr $C$DW$140, DW_AT_TI_end_line(0x239)
    1428                      .dwattr $C$DW$140, DW_AT_TI_end_column(0x01)
    1429                      .dwendentry
    1430                      .dwendtag $C$DW$140
    1431              
    1432 0000012c               .sect   ".text"
    1433                      .clink
    1434                      .global _CTRL_setupClarke_I
    1435              
TMS320C2000 Assembler Unix v15.12.3 Wed Jun 28 11:48:12 2017

Tools Copyright (c) 1996-2015 Texas Instruments Incorporated
/tmp/85684BZyCPu                                                     PAGE   28

    1436              $C$DW$149       .dwtag  DW_TAG_subprogram
    1437                      .dwattr $C$DW$149, DW_AT_name("CTRL_setupClarke_I")
    1438                      .dwattr $C$DW$149, DW_AT_low_pc(_CTRL_setupClarke_I)
    1439                      .dwattr $C$DW$149, DW_AT_high_pc(0x00)
    1440                      .dwattr $C$DW$149, DW_AT_TI_symbol_name("_CTRL_setupClarke_I")
    1441                      .dwattr $C$DW$149, DW_AT_external
    1442                      .dwattr $C$DW$149, DW_AT_TI_begin_file("/home/wmj/Documents/motor/sw/modules/ctrl/src/32b/ctrl.c")
    1443                      .dwattr $C$DW$149, DW_AT_TI_begin_line(0x203)
    1444                      .dwattr $C$DW$149, DW_AT_TI_begin_column(0x06)
    1445                      .dwattr $C$DW$149, DW_AT_TI_max_frame_size(-2)
    1446                      .dwpsn  file "/home/wmj/Documents/motor/sw/modules/ctrl/src/32b/ctrl.c",line 516,column 1,is_stmt,add
    1447              
    1448                      .dwfde $C$DW$CIE, _CTRL_setupClarke_I
    1449              $C$DW$150       .dwtag  DW_TAG_formal_parameter
    1450                      .dwattr $C$DW$150, DW_AT_name("handle")
    1451                      .dwattr $C$DW$150, DW_AT_TI_symbol_name("_handle")
    1452                      .dwattr $C$DW$150, DW_AT_type(*$C$DW$T$161)
    1453                      .dwattr $C$DW$150, DW_AT_location[DW_OP_reg12]
    1454              
    1455              $C$DW$151       .dwtag  DW_TAG_formal_parameter
    1456                      .dwattr $C$DW$151, DW_AT_name("numCurrentSensors")
    1457                      .dwattr $C$DW$151, DW_AT_TI_symbol_name("_numCurrentSensors")
    1458                      .dwattr $C$DW$151, DW_AT_type(*$C$DW$T$33)
    1459                      .dwattr $C$DW$151, DW_AT_location[DW_OP_reg0]
    1460              
    1461              
    1462              ;***************************************************************
    1463              ;* FNAME: _CTRL_setupClarke_I           FR SIZE:   0           *
    1464              ;*                                                             *
    1465              ;* FUNCTION ENVIRONMENT                                        *
    1466              ;*                                                             *
    1467              ;* FUNCTION PROPERTIES                                         *
    1468              ;*                            0 Parameter,  0 Auto,  0 SOE     *
    1469              ;***************************************************************
    1470              
    1471              _CTRL_setupClarke_I:
    1472              ;* AR5   assigned to _obj
    1473              $C$DW$152       .dwtag  DW_TAG_variable
    1474                      .dwattr $C$DW$152, DW_AT_name("obj")
    1475                      .dwattr $C$DW$152, DW_AT_TI_symbol_name("_obj")
    1476                      .dwattr $C$DW$152, DW_AT_type(*$C$DW$T$173)
    1477                      .dwattr $C$DW$152, DW_AT_location[DW_OP_reg14]
    1478              
    1479              ;* PL    assigned to _beta_sf
    1480              $C$DW$153       .dwtag  DW_TAG_variable
    1481                      .dwattr $C$DW$153, DW_AT_name("beta_sf")
    1482                      .dwattr $C$DW$153, DW_AT_TI_symbol_name("_beta_sf")
    1483                      .dwattr $C$DW$153, DW_AT_type(*$C$DW$T$32)
    1484                      .dwattr $C$DW$153, DW_AT_location[DW_OP_reg2]
    1485              
    1486              ;* AR6   assigned to _alpha_sf
    1487              $C$DW$154       .dwtag  DW_TAG_variable
    1488                      .dwattr $C$DW$154, DW_AT_name("alpha_sf")
    1489                      .dwattr $C$DW$154, DW_AT_TI_symbol_name("_alpha_sf")
    1490                      .dwattr $C$DW$154, DW_AT_type(*$C$DW$T$32)
TMS320C2000 Assembler Unix v15.12.3 Wed Jun 28 11:48:12 2017

Tools Copyright (c) 1996-2015 Texas Instruments Incorporated
/tmp/85684BZyCPu                                                     PAGE   29

    1491                      .dwattr $C$DW$154, DW_AT_location[DW_OP_reg16]
    1492              
    1493              ;* AL    assigned to _numCurrentSensors
    1494              $C$DW$155       .dwtag  DW_TAG_variable
    1495                      .dwattr $C$DW$155, DW_AT_name("numCurrentSensors")
    1496                      .dwattr $C$DW$155, DW_AT_TI_symbol_name("_numCurrentSensors")
    1497                      .dwattr $C$DW$155, DW_AT_type(*$C$DW$T$225)
    1498                      .dwattr $C$DW$155, DW_AT_location[DW_OP_reg0]
    1499              
    1500              ;* AR4   assigned to _handle
    1501              $C$DW$156       .dwtag  DW_TAG_variable
    1502                      .dwattr $C$DW$156, DW_AT_name("handle")
    1503                      .dwattr $C$DW$156, DW_AT_TI_symbol_name("_handle")
    1504                      .dwattr $C$DW$156, DW_AT_type(*$C$DW$T$175)
    1505                      .dwattr $C$DW$156, DW_AT_location[DW_OP_reg12]
    1506              
    1507                      .dwcfi  cfa_offset, -2
    1508                      .dwcfi  save_reg_to_mem, 26, 0
    1509                      .dwpsn  file "/home/wmj/Documents/motor/sw/modules/ctrl/src/32b/ctrl.c",line 522,column 3,is_stmt,isa
    1510 0000012c 5203          CMPB      AL,#3                 ; [CPU_] |522| 
    1511 0000012d 610A          B         $C$L18,EQ             ; [CPU_] |522| 
    1512                      ; branchcc occurs ; [] |522| 
    1513                      .dwpsn  file "/home/wmj/Documents/motor/sw/modules/ctrl/src/32b/ctrl.c",line 527,column 8,is_stmt,isa
    1514 0000012e 5202          CMPB      AL,#2                 ; [CPU_] |527| 
    1515 0000012f 6104          B         $C$L17,EQ             ; [CPU_] |527| 
    1516                      ; branchcc occurs ; [] |527| 
    1517                      .dwpsn  file "/home/wmj/Documents/motor/sw/modules/ctrl/src/32b/ctrl.c",line 534,column 7,is_stmt,isa
    1518 00000130 BE00          MOVB      XAR6,#0               ; [CPU_] |534| 
    1519                      .dwpsn  file "/home/wmj/Documents/motor/sw/modules/ctrl/src/32b/ctrl.c",line 535,column 7,is_stmt,isa
    1520 00000131 3100          MOV       P,#0                  ; [CPU_] |535| 
    1521 00000132 6F0E          B         $C$L20,UNC            ; [CPU_] |535| 
    1522                      ; branch occurs ; [] |535| 
    1523 00000133       $C$L17:    
    1524                      .dwpsn  file "/home/wmj/Documents/motor/sw/modules/ctrl/src/32b/ctrl.c",line 529,column 7,is_stmt,isa
    1525 00000133 2BAB          MOV       PL,#0                 ; [CPU_] |529| 
    1526 00000134 28AA          MOV       PH,#256               ; [CPU_] |529| 
         00000135 0100 
    1527                      .dwpsn  file "/home/wmj/Documents/motor/sw/modules/ctrl/src/32b/ctrl.c",line 531,column 5,is_stmt,isa
    1528 00000136 6F05          B         $C$L19,UNC            ; [CPU_] |531| 
    1529                      ; branch occurs ; [] |531| 
    1530 00000137       $C$L18:    
    1531                      .dwpsn  file "/home/wmj/Documents/motor/sw/modules/ctrl/src/32b/ctrl.c",line 524,column 7,is_stmt,isa
    1532 00000137 28AB          MOV       PL,#21845             ; [CPU_] |524| 
         00000138 5555 
    1533 00000139 28AA          MOV       PH,#85                ; [CPU_] |524| 
         0000013a 0055 
    1534 0000013b       $C$L19:    
    1535 0000013b A9A6          MOVL      XAR6,P                ; [CPU_] |524| 
    1536                      .dwpsn  file "/home/wmj/Documents/motor/sw/modules/ctrl/src/32b/ctrl.c",line 525,column 7,is_stmt,isa
    1537 0000013c 28AB          MOV       PL,#52538             ; [CPU_] |525| 
         0000013d CD3A 
    1538 0000013e 28AA          MOV       PH,#147               ; [CPU_] |525| 
         0000013f 0093 
    1539 00000140       $C$L20:    
    1540                      .dwpsn  file "/home/wmj/Documents/motor/sw/modules/clarke/src/32b/clarke.h",line 182,column 19,is_stm
TMS320C2000 Assembler Unix v15.12.3 Wed Jun 28 11:48:12 2017

Tools Copyright (c) 1996-2015 Texas Instruments Incorporated
/tmp/85684BZyCPu                                                     PAGE   30

    1541 00000140 D008          MOVB      XAR0,#8               ; [CPU_] |182| 
    1542 00000141 8394          MOVL      XAR5,*+XAR4[AR0]      ; [CPU_] |182| 
    1543                      .dwpsn  file "/home/wmj/Documents/motor/sw/modules/clarke/src/32b/clarke.h",line 170,column 3,is_stmt
    1544 00000142 D008          MOVB      XAR0,#8               ; [CPU_] |170| 
    1545                      .dwpsn  file "/home/wmj/Documents/motor/sw/modules/clarke/src/32b/clarke.h",line 185,column 3,is_stmt
    1546 00000143 C2C5          MOVL      *+XAR5[0],XAR6        ; [CPU_] |185| 
    1547                      .dwpsn  file "/home/wmj/Documents/motor/sw/modules/clarke/src/32b/clarke.h",line 186,column 3,is_stmt
    1548 00000144 A9D5          MOVL      *+XAR5[2],P           ; [CPU_] |186| 
    1549                      .dwpsn  file "/home/wmj/Documents/motor/sw/modules/clarke/src/32b/clarke.h",line 170,column 3,is_stmt
    1550 00000145 8A94          MOVL      XAR4,*+XAR4[AR0]      ; [CPU_] |170| 
    1551 00000146 96E4          MOV       *+XAR4[4],AL          ; [CPU_] |170| 
    1552              $C$DW$157       .dwtag  DW_TAG_TI_branch
    1553                      .dwattr $C$DW$157, DW_AT_low_pc(0x00)
    1554                      .dwattr $C$DW$157, DW_AT_TI_return
    1555              
    1556 00000147 0006          LRETR     ; [CPU_] 
    1557                      ; return occurs ; [] 
    1558                      .dwattr $C$DW$149, DW_AT_TI_end_file("/home/wmj/Documents/motor/sw/modules/ctrl/src/32b/ctrl.c")
    1559                      .dwattr $C$DW$149, DW_AT_TI_end_line(0x21f)
    1560                      .dwattr $C$DW$149, DW_AT_TI_end_column(0x01)
    1561                      .dwendentry
    1562                      .dwendtag $C$DW$149
    1563              
    1564 00000000               .sect   "ramfuncs"
    1565                      .clink
    1566                      .global _CTRL_setup
    1567              
    1568              $C$DW$158       .dwtag  DW_TAG_subprogram
    1569                      .dwattr $C$DW$158, DW_AT_name("CTRL_setup")
    1570                      .dwattr $C$DW$158, DW_AT_low_pc(_CTRL_setup)
    1571                      .dwattr $C$DW$158, DW_AT_high_pc(0x00)
    1572                      .dwattr $C$DW$158, DW_AT_TI_symbol_name("_CTRL_setup")
    1573                      .dwattr $C$DW$158, DW_AT_external
    1574                      .dwattr $C$DW$158, DW_AT_TI_begin_file("/home/wmj/Documents/motor/sw/modules/ctrl/src/32b/ctrl.c")
    1575                      .dwattr $C$DW$158, DW_AT_TI_begin_line(0x1eb)
    1576                      .dwattr $C$DW$158, DW_AT_TI_begin_column(0x06)
    1577                      .dwattr $C$DW$158, DW_AT_TI_max_frame_size(-2)
    1578                      .dwpsn  file "/home/wmj/Documents/motor/sw/modules/ctrl/src/32b/ctrl.c",line 492,column 1,is_stmt,add
    1579              
    1580                      .dwfde $C$DW$CIE, _CTRL_setup
    1581              $C$DW$159       .dwtag  DW_TAG_formal_parameter
    1582                      .dwattr $C$DW$159, DW_AT_name("handle")
    1583                      .dwattr $C$DW$159, DW_AT_TI_symbol_name("_handle")
    1584                      .dwattr $C$DW$159, DW_AT_type(*$C$DW$T$161)
    1585                      .dwattr $C$DW$159, DW_AT_location[DW_OP_reg12]
    1586              
    1587              
    1588              ;***************************************************************
    1589              ;* FNAME: _CTRL_setup                   FR SIZE:   0           *
    1590              ;*                                                             *
    1591              ;* FUNCTION ENVIRONMENT                                        *
    1592              ;*                                                             *
    1593              ;* FUNCTION PROPERTIES                                         *
    1594              ;*                            0 Parameter,  0 Auto,  0 SOE     *
    1595              ;***************************************************************
TMS320C2000 Assembler Unix v15.12.3 Wed Jun 28 11:48:12 2017

Tools Copyright (c) 1996-2015 Texas Instruments Incorporated
/tmp/85684BZyCPu                                                     PAGE   31

    1596              
    1597              _CTRL_setup:
    1598              ;* AR4   assigned to _handle
    1599              $C$DW$160       .dwtag  DW_TAG_variable
    1600                      .dwattr $C$DW$160, DW_AT_name("handle")
    1601                      .dwattr $C$DW$160, DW_AT_TI_symbol_name("_handle")
    1602                      .dwattr $C$DW$160, DW_AT_type(*$C$DW$T$175)
    1603                      .dwattr $C$DW$160, DW_AT_location[DW_OP_reg12]
    1604              
    1605                      .dwcfi  cfa_offset, -2
    1606                      .dwcfi  save_reg_to_mem, 26, 0
    1607                      .dwpsn  file "/home/wmj/Documents/motor/sw/modules/ctrl/src/32b/ctrl.c",line 500,column 3,is_stmt,isa
    1608 00000000 D09F          MOVB      XAR0,#159             ; [CPU_] |500| 
    1609 00000001 9294          MOV       AL,*+XAR4[AR0]        ; [CPU_] |500| 
    1610 00000002 D0EF          MOVB      XAR0,#239             ; [CPU_] |500| 
    1611 00000003 5494          CMP       AL,*+XAR4[AR0]        ; [CPU_] |500| 
    1612 00000004 6605          B         $C$L21,HI             ; [CPU_] |500| 
    1613                      ; branchcc occurs ; [] |500| 
    1614                      .dwpsn  file "/home/wmj/Documents/motor/sw/modules/ctrl/src/32b/ctrl.h",line 1123,column 3,is_stmt,is
    1615 00000005 D0EF          MOVB      XAR0,#239             ; [CPU_] |1123| 
    1616 00000006 2B94          MOV       *+XAR4[AR0],#0        ; [CPU_] |1123| 
    1617                      .dwpsn  file "/home/wmj/Documents/motor/sw/modules/ctrl/src/32b/ctrl.c",line 508,column 7,is_stmt,isa
    1618              $C$DW$161       .dwtag  DW_TAG_TI_branch
    1619                      .dwattr $C$DW$161, DW_AT_low_pc(0x00)
    1620                      .dwattr $C$DW$161, DW_AT_name("_CTRL_runTraj")
    1621                      .dwattr $C$DW$161, DW_AT_TI_call
    1622              
    1623 00000007 7640!         LCR       #_CTRL_runTraj        ; [CPU_] |508| 
         00000008 0000 
    1624                      ; call occurs [#_CTRL_runTraj] ; [] |508| 
    1625              $C$L21:    
    1626              $C$DW$162       .dwtag  DW_TAG_TI_branch
    1627                      .dwattr $C$DW$162, DW_AT_low_pc(0x00)
    1628                      .dwattr $C$DW$162, DW_AT_TI_return
    1629              
    1630 00000009 0006          LRETR     ; [CPU_] 
    1631                      ; return occurs ; [] 
    1632                      .dwattr $C$DW$158, DW_AT_TI_end_file("/home/wmj/Documents/motor/sw/modules/ctrl/src/32b/ctrl.c")
    1633                      .dwattr $C$DW$158, DW_AT_TI_end_line(0x200)
    1634                      .dwattr $C$DW$158, DW_AT_TI_end_column(0x01)
    1635                      .dwendentry
    1636                      .dwendtag $C$DW$158
    1637              
    1638 00000148               .sect   ".text"
    1639                      .clink
    1640                      .global _CTRL_setWaitTimes
    1641              
    1642              $C$DW$163       .dwtag  DW_TAG_subprogram
    1643                      .dwattr $C$DW$163, DW_AT_name("CTRL_setWaitTimes")
    1644                      .dwattr $C$DW$163, DW_AT_low_pc(_CTRL_setWaitTimes)
    1645                      .dwattr $C$DW$163, DW_AT_high_pc(0x00)
    1646                      .dwattr $C$DW$163, DW_AT_TI_symbol_name("_CTRL_setWaitTimes")
    1647                      .dwattr $C$DW$163, DW_AT_external
    1648                      .dwattr $C$DW$163, DW_AT_TI_begin_file("/home/wmj/Documents/motor/sw/modules/ctrl/src/32b/ctrl.c")
    1649                      .dwattr $C$DW$163, DW_AT_TI_begin_line(0x276)
TMS320C2000 Assembler Unix v15.12.3 Wed Jun 28 11:48:12 2017

Tools Copyright (c) 1996-2015 Texas Instruments Incorporated
/tmp/85684BZyCPu                                                     PAGE   32

    1650                      .dwattr $C$DW$163, DW_AT_TI_begin_column(0x06)
    1651                      .dwattr $C$DW$163, DW_AT_TI_max_frame_size(-2)
    1652                      .dwpsn  file "/home/wmj/Documents/motor/sw/modules/ctrl/src/32b/ctrl.c",line 631,column 1,is_stmt,add
    1653              
    1654                      .dwfde $C$DW$CIE, _CTRL_setWaitTimes
    1655              $C$DW$164       .dwtag  DW_TAG_formal_parameter
    1656                      .dwattr $C$DW$164, DW_AT_name("handle")
    1657                      .dwattr $C$DW$164, DW_AT_TI_symbol_name("_handle")
    1658                      .dwattr $C$DW$164, DW_AT_type(*$C$DW$T$161)
    1659                      .dwattr $C$DW$164, DW_AT_location[DW_OP_reg12]
    1660              
    1661              $C$DW$165       .dwtag  DW_TAG_formal_parameter
    1662                      .dwattr $C$DW$165, DW_AT_name("pWaitTimes")
    1663                      .dwattr $C$DW$165, DW_AT_TI_symbol_name("_pWaitTimes")
    1664                      .dwattr $C$DW$165, DW_AT_type(*$C$DW$T$283)
    1665                      .dwattr $C$DW$165, DW_AT_location[DW_OP_reg14]
    1666              
    1667              
    1668              ;***************************************************************
    1669              ;* FNAME: _CTRL_setWaitTimes            FR SIZE:   0           *
    1670              ;*                                                             *
    1671              ;* FUNCTION ENVIRONMENT                                        *
    1672              ;*                                                             *
    1673              ;* FUNCTION PROPERTIES                                         *
    1674              ;*                            0 Parameter,  0 Auto,  0 SOE     *
    1675              ;***************************************************************
    1676              
    1677              _CTRL_setWaitTimes:
    1678              ;* AR4   assigned to _handle
    1679              $C$DW$166       .dwtag  DW_TAG_variable
    1680                      .dwattr $C$DW$166, DW_AT_name("handle")
    1681                      .dwattr $C$DW$166, DW_AT_TI_symbol_name("_handle")
    1682                      .dwattr $C$DW$166, DW_AT_type(*$C$DW$T$175)
    1683                      .dwattr $C$DW$166, DW_AT_location[DW_OP_reg12]
    1684              
    1685              ;* AR4   assigned to $O$U11
    1686              ;* AR5   assigned to $O$U7
    1687                      .dwcfi  cfa_offset, -2
    1688                      .dwcfi  save_reg_to_mem, 26, 0
    1689 00000148 A8A9          MOVL      ACC,XAR4              ; [CPU_] 
    1690 00000149 0992          ADDB      ACC,#146              ; [CPU_] 
    1691 0000014a 8AA9          MOVL      XAR4,ACC              ; [CPU_] 
    1692 0000014b BE03          MOVB      XAR6,#3               ; [CPU_] 
    1693 0000014c       $C$L22:    
    1694                      .dwpsn  file "/home/wmj/Documents/motor/sw/modules/ctrl/src/32b/ctrl.c",line 637,column 7,is_stmt,isa
    1695 0000014c 0685          MOVL      ACC,*XAR5++           ; [CPU_] |637| 
    1696 0000014d 1E84          MOVL      *XAR4++,ACC           ; [CPU_] |637| 
    1697                      .dwpsn  file "/home/wmj/Documents/motor/sw/modules/ctrl/src/32b/ctrl.c",line 635,column 18,is_stmt,is
    1698 0000014e 000E          BANZ      $C$L22,AR6--          ; [CPU_] |635| 
         0000014f FFFE 
    1699                      ; branchcc occurs ; [] |635| 
    1700              $C$DW$167       .dwtag  DW_TAG_TI_branch
    1701                      .dwattr $C$DW$167, DW_AT_low_pc(0x00)
    1702                      .dwattr $C$DW$167, DW_AT_TI_return
    1703              
TMS320C2000 Assembler Unix v15.12.3 Wed Jun 28 11:48:12 2017

Tools Copyright (c) 1996-2015 Texas Instruments Incorporated
/tmp/85684BZyCPu                                                     PAGE   33

    1704 00000150 0006          LRETR     ; [CPU_] 
    1705                      ; return occurs ; [] 
    1706                      .dwattr $C$DW$163, DW_AT_TI_end_file("/home/wmj/Documents/motor/sw/modules/ctrl/src/32b/ctrl.c")
    1707                      .dwattr $C$DW$163, DW_AT_TI_end_line(0x281)
    1708                      .dwattr $C$DW$163, DW_AT_TI_end_column(0x01)
    1709                      .dwendentry
    1710                      .dwendtag $C$DW$163
    1711              
    1712 00000151               .sect   ".text"
    1713                      .clink
    1714                      .global _CTRL_setSpd_ref_pu
    1715              
    1716              $C$DW$168       .dwtag  DW_TAG_subprogram
    1717                      .dwattr $C$DW$168, DW_AT_name("CTRL_setSpd_ref_pu")
    1718                      .dwattr $C$DW$168, DW_AT_low_pc(_CTRL_setSpd_ref_pu)
    1719                      .dwattr $C$DW$168, DW_AT_high_pc(0x00)
    1720                      .dwattr $C$DW$168, DW_AT_TI_symbol_name("_CTRL_setSpd_ref_pu")
    1721                      .dwattr $C$DW$168, DW_AT_external
    1722                      .dwattr $C$DW$168, DW_AT_TI_begin_file("/home/wmj/Documents/motor/sw/modules/ctrl/src/32b/ctrl.c")
    1723                      .dwattr $C$DW$168, DW_AT_TI_begin_line(0x1d3)
    1724                      .dwattr $C$DW$168, DW_AT_TI_begin_column(0x06)
    1725                      .dwattr $C$DW$168, DW_AT_TI_max_frame_size(-2)
    1726                      .dwpsn  file "/home/wmj/Documents/motor/sw/modules/ctrl/src/32b/ctrl.c",line 468,column 1,is_stmt,add
    1727              
    1728                      .dwfde $C$DW$CIE, _CTRL_setSpd_ref_pu
    1729              $C$DW$169       .dwtag  DW_TAG_formal_parameter
    1730                      .dwattr $C$DW$169, DW_AT_name("handle")
    1731                      .dwattr $C$DW$169, DW_AT_TI_symbol_name("_handle")
    1732                      .dwattr $C$DW$169, DW_AT_type(*$C$DW$T$161)
    1733                      .dwattr $C$DW$169, DW_AT_location[DW_OP_reg12]
    1734              
    1735              $C$DW$170       .dwtag  DW_TAG_formal_parameter
    1736                      .dwattr $C$DW$170, DW_AT_name("spd_ref_pu")
    1737                      .dwattr $C$DW$170, DW_AT_TI_symbol_name("_spd_ref_pu")
    1738                      .dwattr $C$DW$170, DW_AT_type(*$C$DW$T$227)
    1739                      .dwattr $C$DW$170, DW_AT_location[DW_OP_reg0]
    1740              
    1741              
    1742              ;***************************************************************
    1743              ;* FNAME: _CTRL_setSpd_ref_pu           FR SIZE:   0           *
    1744              ;*                                                             *
    1745              ;* FUNCTION ENVIRONMENT                                        *
    1746              ;*                                                             *
    1747              ;* FUNCTION PROPERTIES                                         *
    1748              ;*                            0 Parameter,  0 Auto,  0 SOE     *
    1749              ;***************************************************************
    1750              
    1751              _CTRL_setSpd_ref_pu:
    1752              ;* AR4   assigned to _handle
    1753              $C$DW$171       .dwtag  DW_TAG_variable
    1754                      .dwattr $C$DW$171, DW_AT_name("handle")
    1755                      .dwattr $C$DW$171, DW_AT_TI_symbol_name("_handle")
    1756                      .dwattr $C$DW$171, DW_AT_type(*$C$DW$T$175)
    1757                      .dwattr $C$DW$171, DW_AT_location[DW_OP_reg12]
    1758              
TMS320C2000 Assembler Unix v15.12.3 Wed Jun 28 11:48:12 2017

Tools Copyright (c) 1996-2015 Texas Instruments Incorporated
/tmp/85684BZyCPu                                                     PAGE   34

    1759              ;* AL    assigned to _spd_ref_pu
    1760              $C$DW$172       .dwtag  DW_TAG_variable
    1761                      .dwattr $C$DW$172, DW_AT_name("spd_ref_pu")
    1762                      .dwattr $C$DW$172, DW_AT_TI_symbol_name("_spd_ref_pu")
    1763                      .dwattr $C$DW$172, DW_AT_type(*$C$DW$T$227)
    1764                      .dwattr $C$DW$172, DW_AT_location[DW_OP_reg0]
    1765              
    1766                      .dwcfi  cfa_offset, -2
    1767                      .dwcfi  save_reg_to_mem, 26, 0
    1768                      .dwpsn  file "/home/wmj/Documents/motor/sw/modules/ctrl/src/32b/ctrl.c",line 471,column 3,is_stmt,isa
    1769 00000151 D0E8          MOVB      XAR0,#232             ; [CPU_] |471| 
    1770 00000152 1E94          MOVL      *+XAR4[AR0],ACC       ; [CPU_] |471| 
    1771              $C$DW$173       .dwtag  DW_TAG_TI_branch
    1772                      .dwattr $C$DW$173, DW_AT_low_pc(0x00)
    1773                      .dwattr $C$DW$173, DW_AT_TI_return
    1774              
    1775 00000153 0006          LRETR     ; [CPU_] 
    1776                      ; return occurs ; [] 
    1777                      .dwattr $C$DW$168, DW_AT_TI_end_file("/home/wmj/Documents/motor/sw/modules/ctrl/src/32b/ctrl.c")
    1778                      .dwattr $C$DW$168, DW_AT_TI_end_line(0x1da)
    1779                      .dwattr $C$DW$168, DW_AT_TI_end_column(0x01)
    1780                      .dwendentry
    1781                      .dwendtag $C$DW$168
    1782              
    1783 00000154               .sect   ".text"
    1784                      .clink
    1785                      .global _CTRL_setSpd_ref_krpm
    1786              
    1787              $C$DW$174       .dwtag  DW_TAG_subprogram
    1788                      .dwattr $C$DW$174, DW_AT_name("CTRL_setSpd_ref_krpm")
    1789                      .dwattr $C$DW$174, DW_AT_low_pc(_CTRL_setSpd_ref_krpm)
    1790                      .dwattr $C$DW$174, DW_AT_high_pc(0x00)
    1791                      .dwattr $C$DW$174, DW_AT_TI_symbol_name("_CTRL_setSpd_ref_krpm")
    1792                      .dwattr $C$DW$174, DW_AT_external
    1793                      .dwattr $C$DW$174, DW_AT_TI_begin_file("/home/wmj/Documents/motor/sw/modules/ctrl/src/32b/ctrl.c")
    1794                      .dwattr $C$DW$174, DW_AT_TI_begin_line(0x1dd)
    1795                      .dwattr $C$DW$174, DW_AT_TI_begin_column(0x06)
    1796                      .dwattr $C$DW$174, DW_AT_TI_max_frame_size(-6)
    1797                      .dwpsn  file "/home/wmj/Documents/motor/sw/modules/ctrl/src/32b/ctrl.c",line 478,column 1,is_stmt,add
    1798              
    1799                      .dwfde $C$DW$CIE, _CTRL_setSpd_ref_krpm
    1800              $C$DW$175       .dwtag  DW_TAG_formal_parameter
    1801                      .dwattr $C$DW$175, DW_AT_name("handle")
    1802                      .dwattr $C$DW$175, DW_AT_TI_symbol_name("_handle")
    1803                      .dwattr $C$DW$175, DW_AT_type(*$C$DW$T$161)
    1804                      .dwattr $C$DW$175, DW_AT_location[DW_OP_reg12]
    1805              
    1806              $C$DW$176       .dwtag  DW_TAG_formal_parameter
    1807                      .dwattr $C$DW$176, DW_AT_name("spd_ref_krpm")
    1808                      .dwattr $C$DW$176, DW_AT_TI_symbol_name("_spd_ref_krpm")
    1809                      .dwattr $C$DW$176, DW_AT_type(*$C$DW$T$227)
    1810                      .dwattr $C$DW$176, DW_AT_location[DW_OP_reg0]
    1811              
    1812              
    1813              ;***************************************************************
TMS320C2000 Assembler Unix v15.12.3 Wed Jun 28 11:48:12 2017

Tools Copyright (c) 1996-2015 Texas Instruments Incorporated
/tmp/85684BZyCPu                                                     PAGE   35

    1814              ;* FNAME: _CTRL_setSpd_ref_krpm         FR SIZE:   4           *
    1815              ;*                                                             *
    1816              ;* FUNCTION ENVIRONMENT                                        *
    1817              ;*                                                             *
    1818              ;* FUNCTION PROPERTIES                                         *
    1819              ;*                            0 Parameter,  0 Auto,  4 SOE     *
    1820              ;***************************************************************
    1821              
    1822              _CTRL_setSpd_ref_krpm:
    1823              ;* AR2   assigned to _handle
    1824              $C$DW$177       .dwtag  DW_TAG_variable
    1825                      .dwattr $C$DW$177, DW_AT_name("handle")
    1826                      .dwattr $C$DW$177, DW_AT_TI_symbol_name("_handle")
    1827                      .dwattr $C$DW$177, DW_AT_type(*$C$DW$T$175)
    1828                      .dwattr $C$DW$177, DW_AT_location[DW_OP_reg8]
    1829              
    1830              ;* XT    assigned to _spd_ref_krpm
    1831              $C$DW$178       .dwtag  DW_TAG_variable
    1832                      .dwattr $C$DW$178, DW_AT_name("spd_ref_krpm")
    1833                      .dwattr $C$DW$178, DW_AT_TI_symbol_name("_spd_ref_krpm")
    1834                      .dwattr $C$DW$178, DW_AT_type(*$C$DW$T$227)
    1835                      .dwattr $C$DW$178, DW_AT_location[DW_OP_reg21]
    1836              
    1837              ;* AL    assigned to _krpm_to_pu_sf
    1838              $C$DW$179       .dwtag  DW_TAG_variable
    1839                      .dwattr $C$DW$179, DW_AT_name("krpm_to_pu_sf")
    1840                      .dwattr $C$DW$179, DW_AT_TI_symbol_name("_krpm_to_pu_sf")
    1841                      .dwattr $C$DW$179, DW_AT_type(*$C$DW$T$32)
    1842                      .dwattr $C$DW$179, DW_AT_location[DW_OP_reg0]
    1843              
    1844                      .dwcfi  cfa_offset, -2
    1845                      .dwcfi  save_reg_to_mem, 26, 0
    1846 00000154 B2BD          MOVL      *SP++,XAR1            ; [CPU_] 
    1847                      .dwcfi  save_reg_to_mem, 7, 2
    1848                      .dwcfi  cfa_offset, -4
    1849 00000155 AABD          MOVL      *SP++,XAR2            ; [CPU_] 
    1850                      .dwcfi  save_reg_to_mem, 9, 4
    1851                      .dwcfi  cfa_offset, -6
    1852 00000156 86A4          MOVL      XAR2,XAR4             ; [CPU_] |478| 
    1853                      .dwpsn  file "/home/wmj/Documents/motor/sw/modules/ctrl/src/32b/ctrl.c",line 481,column 21,is_stmt,is
    1854 00000157 D018          MOVB      XAR0,#24              ; [CPU_] |481| 
    1855                      .dwpsn  file "/home/wmj/Documents/motor/sw/modules/ctrl/src/32b/ctrl.c",line 478,column 1,is_stmt,isa
    1856 00000158 8BA9          MOVL      XAR1,ACC              ; [CPU_] |478| 
    1857                      .dwpsn  file "/home/wmj/Documents/motor/sw/modules/ctrl/src/32b/ctrl.c",line 481,column 21,is_stmt,is
    1858 00000159 8A92          MOVL      XAR4,*+XAR2[AR0]      ; [CPU_] |481| 
    1859              $C$DW$180       .dwtag  DW_TAG_TI_branch
    1860                      .dwattr $C$DW$180, DW_AT_low_pc(0x00)
    1861                      .dwattr $C$DW$180, DW_AT_name("_EST_get_krpm_to_pu_sf")
    1862                      .dwattr $C$DW$180, DW_AT_TI_call
    1863              
    1864 0000015a 7640!         LCR       #_EST_get_krpm_to_pu_sf ; [CPU_] |481| 
         0000015b 0000 
    1865                      ; call occurs [#_EST_get_krpm_to_pu_sf] ; [] |481| 
    1866                      .dwpsn  file "/home/wmj/Documents/motor/sw/modules/ctrl/src/32b/ctrl.c",line 485,column 3,is_stmt,isa
    1867 0000015c D0E8          MOVB      XAR0,#232             ; [CPU_] |485| 
TMS320C2000 Assembler Unix v15.12.3 Wed Jun 28 11:48:12 2017

Tools Copyright (c) 1996-2015 Texas Instruments Incorporated
/tmp/85684BZyCPu                                                     PAGE   36

    1868                      .dwpsn  file "/home/wmj/Documents/motor/sw/modules/ctrl/src/32b/ctrl.c",line 481,column 21,is_stmt,is
    1869 0000015d B2AC          MOVL      XT,XAR1               ; [CPU_] |481| 
    1870                      .dwpsn  file "/home/wmj/Documents/motor/sw/modules/ctrl/src/32b/ctrl.c",line 485,column 3,is_stmt,isa
    1871 0000015e 5605          IMPYL     P,XT,ACC              ; [CPU_] |485| 
         0000015f 00A9 
    1872 00000160 5663          QMPYL     ACC,XT,ACC            ; [CPU_] |485| 
         00000161 00A9 
    1873 00000162 56A7          LSL64     ACC:P,#8              ; [CPU_] |485| 
    1874 00000163 1E92          MOVL      *+XAR2[AR0],ACC       ; [CPU_] |485| 
    1875 00000164 86BE          MOVL      XAR2,*--SP            ; [CPU_] 
    1876                      .dwcfi  cfa_offset, -4
    1877                      .dwcfi  restore_reg, 9
    1878 00000165 8BBE          MOVL      XAR1,*--SP            ; [CPU_] 
    1879                      .dwcfi  cfa_offset, -2
    1880                      .dwcfi  restore_reg, 7
    1881              $C$DW$181       .dwtag  DW_TAG_TI_branch
    1882                      .dwattr $C$DW$181, DW_AT_low_pc(0x00)
    1883                      .dwattr $C$DW$181, DW_AT_TI_return
    1884              
    1885 00000166 0006          LRETR     ; [CPU_] 
    1886                      ; return occurs ; [] 
    1887                      .dwattr $C$DW$174, DW_AT_TI_end_file("/home/wmj/Documents/motor/sw/modules/ctrl/src/32b/ctrl.c")
    1888                      .dwattr $C$DW$174, DW_AT_TI_end_line(0x1e8)
    1889                      .dwattr $C$DW$174, DW_AT_TI_end_column(0x01)
    1890                      .dwendentry
    1891                      .dwendtag $C$DW$174
    1892              
    1893 00000167               .sect   ".text"
    1894                      .clink
    1895                      .global _CTRL_setGains
    1896              
    1897              $C$DW$182       .dwtag  DW_TAG_subprogram
    1898                      .dwattr $C$DW$182, DW_AT_name("CTRL_setGains")
    1899                      .dwattr $C$DW$182, DW_AT_low_pc(_CTRL_setGains)
    1900                      .dwattr $C$DW$182, DW_AT_high_pc(0x00)
    1901                      .dwattr $C$DW$182, DW_AT_TI_symbol_name("_CTRL_setGains")
    1902                      .dwattr $C$DW$182, DW_AT_external
    1903                      .dwattr $C$DW$182, DW_AT_TI_begin_file("/home/wmj/Documents/motor/sw/modules/ctrl/src/32b/ctrl.c")
    1904                      .dwattr $C$DW$182, DW_AT_TI_begin_line(0x106)
    1905                      .dwattr $C$DW$182, DW_AT_TI_begin_column(0x06)
    1906                      .dwattr $C$DW$182, DW_AT_TI_max_frame_size(-2)
    1907                      .dwpsn  file "/home/wmj/Documents/motor/sw/modules/ctrl/src/32b/ctrl.c",line 264,column 1,is_stmt,add
    1908              
    1909                      .dwfde $C$DW$CIE, _CTRL_setGains
    1910              $C$DW$183       .dwtag  DW_TAG_formal_parameter
    1911                      .dwattr $C$DW$183, DW_AT_name("handle")
    1912                      .dwattr $C$DW$183, DW_AT_TI_symbol_name("_handle")
    1913                      .dwattr $C$DW$183, DW_AT_type(*$C$DW$T$161)
    1914                      .dwattr $C$DW$183, DW_AT_location[DW_OP_reg12]
    1915              
    1916              $C$DW$184       .dwtag  DW_TAG_formal_parameter
    1917                      .dwattr $C$DW$184, DW_AT_name("ctrlType")
    1918                      .dwattr $C$DW$184, DW_AT_TI_symbol_name("_ctrlType")
    1919                      .dwattr $C$DW$184, DW_AT_type(*$C$DW$T$172)
    1920                      .dwattr $C$DW$184, DW_AT_location[DW_OP_reg14]
TMS320C2000 Assembler Unix v15.12.3 Wed Jun 28 11:48:12 2017

Tools Copyright (c) 1996-2015 Texas Instruments Incorporated
/tmp/85684BZyCPu                                                     PAGE   37

    1921              
    1922              $C$DW$185       .dwtag  DW_TAG_formal_parameter
    1923                      .dwattr $C$DW$185, DW_AT_name("Kp")
    1924                      .dwattr $C$DW$185, DW_AT_TI_symbol_name("_Kp")
    1925                      .dwattr $C$DW$185, DW_AT_type(*$C$DW$T$227)
    1926                      .dwattr $C$DW$185, DW_AT_location[DW_OP_reg0]
    1927              
    1928              $C$DW$186       .dwtag  DW_TAG_formal_parameter
    1929                      .dwattr $C$DW$186, DW_AT_name("Ki")
    1930                      .dwattr $C$DW$186, DW_AT_TI_symbol_name("_Ki")
    1931                      .dwattr $C$DW$186, DW_AT_type(*$C$DW$T$227)
    1932                      .dwattr $C$DW$186, DW_AT_location[DW_OP_breg20 -4]
    1933              
    1934              $C$DW$187       .dwtag  DW_TAG_formal_parameter
    1935                      .dwattr $C$DW$187, DW_AT_name("Kd")
    1936                      .dwattr $C$DW$187, DW_AT_TI_symbol_name("_Kd")
    1937                      .dwattr $C$DW$187, DW_AT_type(*$C$DW$T$227)
    1938                      .dwattr $C$DW$187, DW_AT_location[DW_OP_breg20 -6]
    1939              
    1940              
    1941              ;***************************************************************
    1942              ;* FNAME: _CTRL_setGains                FR SIZE:   0           *
    1943              ;*                                                             *
    1944              ;* FUNCTION ENVIRONMENT                                        *
    1945              ;*                                                             *
    1946              ;* FUNCTION PROPERTIES                                         *
    1947              ;*                            0 Parameter,  0 Auto,  0 SOE     *
    1948              ;***************************************************************
    1949              
    1950              _CTRL_setGains:
    1951              ;* AR7   assigned to _Kd
    1952              $C$DW$188       .dwtag  DW_TAG_variable
    1953                      .dwattr $C$DW$188, DW_AT_name("Kd")
    1954                      .dwattr $C$DW$188, DW_AT_TI_symbol_name("_Kd")
    1955                      .dwattr $C$DW$188, DW_AT_type(*$C$DW$T$227)
    1956                      .dwattr $C$DW$188, DW_AT_location[DW_OP_reg18]
    1957              
    1958              ;* PL    assigned to _Ki
    1959              $C$DW$189       .dwtag  DW_TAG_variable
    1960                      .dwattr $C$DW$189, DW_AT_name("Ki")
    1961                      .dwattr $C$DW$189, DW_AT_TI_symbol_name("_Ki")
    1962                      .dwattr $C$DW$189, DW_AT_type(*$C$DW$T$227)
    1963                      .dwattr $C$DW$189, DW_AT_location[DW_OP_reg2]
    1964              
    1965              ;* AR6   assigned to _Kp
    1966              $C$DW$190       .dwtag  DW_TAG_variable
    1967                      .dwattr $C$DW$190, DW_AT_name("Kp")
    1968                      .dwattr $C$DW$190, DW_AT_TI_symbol_name("_Kp")
    1969                      .dwattr $C$DW$190, DW_AT_type(*$C$DW$T$227)
    1970                      .dwattr $C$DW$190, DW_AT_location[DW_OP_reg16]
    1971              
    1972              ;* AL    assigned to _ctrlType
    1973              $C$DW$191       .dwtag  DW_TAG_variable
    1974                      .dwattr $C$DW$191, DW_AT_name("ctrlType")
    1975                      .dwattr $C$DW$191, DW_AT_TI_symbol_name("_ctrlType")
TMS320C2000 Assembler Unix v15.12.3 Wed Jun 28 11:48:12 2017

Tools Copyright (c) 1996-2015 Texas Instruments Incorporated
/tmp/85684BZyCPu                                                     PAGE   38

    1976                      .dwattr $C$DW$191, DW_AT_type(*$C$DW$T$172)
    1977                      .dwattr $C$DW$191, DW_AT_location[DW_OP_reg0]
    1978              
    1979              ;* AR4   assigned to _handle
    1980              $C$DW$192       .dwtag  DW_TAG_variable
    1981                      .dwattr $C$DW$192, DW_AT_name("handle")
    1982                      .dwattr $C$DW$192, DW_AT_TI_symbol_name("_handle")
    1983                      .dwattr $C$DW$192, DW_AT_type(*$C$DW$T$175)
    1984                      .dwattr $C$DW$192, DW_AT_location[DW_OP_reg12]
    1985              
    1986                      .dwcfi  cfa_offset, -2
    1987                      .dwcfi  save_reg_to_mem, 26, 0
    1988 00000167 1EA6          MOVL      XAR6,ACC              ; [CPU_] |264| 
    1989 00000168 92A5          MOV       AL,AR5                ; [CPU_] |264| 
    1990 00000169 C546          MOVL      XAR7,*-SP[6]          ; [CPU_] |264| 
    1991 0000016a A344          MOVL      P,*-SP[4]             ; [CPU_] |264| 
    1992                      .dwpsn  file "/home/wmj/Documents/motor/sw/modules/ctrl/src/32b/ctrl.h",line 1503,column 3,is_stmt,is
    1993 0000016b 6109          B         $C$L24,EQ             ; [CPU_] |1503| 
    1994                      ; branchcc occurs ; [] |1503| 
    1995                      .dwpsn  file "/home/wmj/Documents/motor/sw/modules/ctrl/src/32b/ctrl.h",line 1507,column 8,is_stmt,is
    1996 0000016c 5201          CMPB      AL,#1                 ; [CPU_] |1507| 
    1997 0000016d 6105          B         $C$L23,EQ             ; [CPU_] |1507| 
    1998                      ; branchcc occurs ; [] |1507| 
    1999                      .dwpsn  file "/home/wmj/Documents/motor/sw/modules/ctrl/src/32b/ctrl.h",line 1511,column 8,is_stmt,is
    2000 0000016e 5202          CMPB      AL,#2                 ; [CPU_] |1511| 
    2001 0000016f 6007          B         $C$L26,NEQ            ; [CPU_] |1511| 
    2002                      ; branchcc occurs ; [] |1511| 
    2003                      .dwpsn  file "/home/wmj/Documents/motor/sw/modules/ctrl/src/32b/ctrl.h",line 1513,column 7,is_stmt,is
    2004 00000170 D0CC          MOVB      XAR0,#204             ; [CPU_] |1513| 
    2005 00000171 6F04          B         $C$L25,UNC            ; [CPU_] |1513| 
    2006                      ; branch occurs ; [] |1513| 
    2007 00000172       $C$L23:    
    2008                      .dwpsn  file "/home/wmj/Documents/motor/sw/modules/ctrl/src/32b/ctrl.h",line 1509,column 7,is_stmt,is
    2009 00000172 D0CA          MOVB      XAR0,#202             ; [CPU_] |1509| 
    2010                      .dwpsn  file "/home/wmj/Documents/motor/sw/modules/ctrl/src/32b/ctrl.h",line 1510,column 5,is_stmt,is
    2011 00000173 6F02          B         $C$L25,UNC            ; [CPU_] |1510| 
    2012                      ; branch occurs ; [] |1510| 
    2013 00000174       $C$L24:    
    2014                      .dwpsn  file "/home/wmj/Documents/motor/sw/modules/ctrl/src/32b/ctrl.h",line 1505,column 7,is_stmt,is
    2015 00000174 D0CE          MOVB      XAR0,#206             ; [CPU_] |1505| 
    2016 00000175       $C$L25:    
    2017 00000175 C294          MOVL      *+XAR4[AR0],XAR6      ; [CPU_] |1505| 
    2018 00000176       $C$L26:    
    2019                      .dwpsn  file "/home/wmj/Documents/motor/sw/modules/ctrl/src/32b/ctrl.h",line 1478,column 3,is_stmt,is
    2020 00000176 5200          CMPB      AL,#0                 ; [CPU_] |1478| 
    2021 00000177 6109          B         $C$L28,EQ             ; [CPU_] |1478| 
    2022                      ; branchcc occurs ; [] |1478| 
    2023                      .dwpsn  file "/home/wmj/Documents/motor/sw/modules/ctrl/src/32b/ctrl.h",line 1482,column 8,is_stmt,is
    2024 00000178 5201          CMPB      AL,#1                 ; [CPU_] |1482| 
    2025 00000179 6105          B         $C$L27,EQ             ; [CPU_] |1482| 
    2026                      ; branchcc occurs ; [] |1482| 
    2027                      .dwpsn  file "/home/wmj/Documents/motor/sw/modules/ctrl/src/32b/ctrl.h",line 1486,column 8,is_stmt,is
    2028 0000017a 5202          CMPB      AL,#2                 ; [CPU_] |1486| 
    2029 0000017b 6007          B         $C$L30,NEQ            ; [CPU_] |1486| 
    2030                      ; branchcc occurs ; [] |1486| 
TMS320C2000 Assembler Unix v15.12.3 Wed Jun 28 11:48:12 2017

Tools Copyright (c) 1996-2015 Texas Instruments Incorporated
/tmp/85684BZyCPu                                                     PAGE   39

    2031                      .dwpsn  file "/home/wmj/Documents/motor/sw/modules/ctrl/src/32b/ctrl.h",line 1488,column 7,is_stmt,is
    2032 0000017c D0D2          MOVB      XAR0,#210             ; [CPU_] |1488| 
    2033 0000017d 6F04          B         $C$L29,UNC            ; [CPU_] |1488| 
    2034                      ; branch occurs ; [] |1488| 
    2035 0000017e       $C$L27:    
    2036                      .dwpsn  file "/home/wmj/Documents/motor/sw/modules/ctrl/src/32b/ctrl.h",line 1484,column 7,is_stmt,is
    2037 0000017e D0D0          MOVB      XAR0,#208             ; [CPU_] |1484| 
    2038                      .dwpsn  file "/home/wmj/Documents/motor/sw/modules/ctrl/src/32b/ctrl.h",line 1485,column 5,is_stmt,is
    2039 0000017f 6F02          B         $C$L29,UNC            ; [CPU_] |1485| 
    2040                      ; branch occurs ; [] |1485| 
    2041 00000180       $C$L28:    
    2042                      .dwpsn  file "/home/wmj/Documents/motor/sw/modules/ctrl/src/32b/ctrl.h",line 1480,column 7,is_stmt,is
    2043 00000180 D0D4          MOVB      XAR0,#212             ; [CPU_] |1480| 
    2044 00000181       $C$L29:    
    2045 00000181 A994          MOVL      *+XAR4[AR0],P         ; [CPU_] |1480| 
    2046 00000182       $C$L30:    
    2047                      .dwpsn  file "/home/wmj/Documents/motor/sw/modules/ctrl/src/32b/ctrl.h",line 1453,column 3,is_stmt,is
    2048 00000182 5200          CMPB      AL,#0                 ; [CPU_] |1453| 
    2049 00000183 6109          B         $C$L32,EQ             ; [CPU_] |1453| 
    2050                      ; branchcc occurs ; [] |1453| 
    2051                      .dwpsn  file "/home/wmj/Documents/motor/sw/modules/ctrl/src/32b/ctrl.h",line 1457,column 8,is_stmt,is
    2052 00000184 5201          CMPB      AL,#1                 ; [CPU_] |1457| 
    2053 00000185 6105          B         $C$L31,EQ             ; [CPU_] |1457| 
    2054                      ; branchcc occurs ; [] |1457| 
    2055                      .dwpsn  file "/home/wmj/Documents/motor/sw/modules/ctrl/src/32b/ctrl.h",line 1461,column 8,is_stmt,is
    2056 00000186 5202          CMPB      AL,#2                 ; [CPU_] |1461| 
    2057 00000187 6007          B         $C$L34,NEQ            ; [CPU_] |1461| 
    2058                      ; branchcc occurs ; [] |1461| 
    2059                      .dwpsn  file "/home/wmj/Documents/motor/sw/modules/ctrl/src/32b/ctrl.h",line 1463,column 7,is_stmt,is
    2060 00000188 D0D8          MOVB      XAR0,#216             ; [CPU_] |1463| 
    2061 00000189 6F04          B         $C$L33,UNC            ; [CPU_] |1463| 
    2062                      ; branch occurs ; [] |1463| 
    2063 0000018a       $C$L31:    
    2064                      .dwpsn  file "/home/wmj/Documents/motor/sw/modules/ctrl/src/32b/ctrl.h",line 1459,column 7,is_stmt,is
    2065 0000018a D0D6          MOVB      XAR0,#214             ; [CPU_] |1459| 
    2066                      .dwpsn  file "/home/wmj/Documents/motor/sw/modules/ctrl/src/32b/ctrl.h",line 1460,column 5,is_stmt,is
    2067 0000018b 6F02          B         $C$L33,UNC            ; [CPU_] |1460| 
    2068                      ; branch occurs ; [] |1460| 
    2069 0000018c       $C$L32:    
    2070                      .dwpsn  file "/home/wmj/Documents/motor/sw/modules/ctrl/src/32b/ctrl.h",line 1455,column 7,is_stmt,is
    2071 0000018c D0DA          MOVB      XAR0,#218             ; [CPU_] |1455| 
    2072 0000018d       $C$L33:    
    2073 0000018d C394          MOVL      *+XAR4[AR0],XAR7      ; [CPU_] |1455| 
    2074              $C$L34:    
    2075              $C$DW$193       .dwtag  DW_TAG_TI_branch
    2076                      .dwattr $C$DW$193, DW_AT_low_pc(0x00)
    2077                      .dwattr $C$DW$193, DW_AT_TI_return
    2078              
    2079 0000018e 0006          LRETR     ; [CPU_] 
    2080                      ; return occurs ; [] 
    2081                      .dwattr $C$DW$182, DW_AT_TI_end_file("/home/wmj/Documents/motor/sw/modules/ctrl/src/32b/ctrl.c")
    2082                      .dwattr $C$DW$182, DW_AT_TI_end_line(0x10f)
    2083                      .dwattr $C$DW$182, DW_AT_TI_end_column(0x01)
    2084                      .dwendentry
    2085                      .dwendtag $C$DW$182
TMS320C2000 Assembler Unix v15.12.3 Wed Jun 28 11:48:12 2017

Tools Copyright (c) 1996-2015 Texas Instruments Incorporated
/tmp/85684BZyCPu                                                     PAGE   40

    2086              
    2087 0000018f               .sect   ".text"
    2088                      .clink
    2089                      .global _CTRL_setParams
    2090              
    2091              $C$DW$194       .dwtag  DW_TAG_subprogram
    2092                      .dwattr $C$DW$194, DW_AT_name("CTRL_setParams")
    2093                      .dwattr $C$DW$194, DW_AT_low_pc(_CTRL_setParams)
    2094                      .dwattr $C$DW$194, DW_AT_high_pc(0x00)
    2095                      .dwattr $C$DW$194, DW_AT_TI_symbol_name("_CTRL_setParams")
    2096                      .dwattr $C$DW$194, DW_AT_external
    2097                      .dwattr $C$DW$194, DW_AT_TI_begin_file("/home/wmj/Documents/motor/sw/modules/ctrl/src/32b/ctrl.c")
    2098                      .dwattr $C$DW$194, DW_AT_TI_begin_line(0x124)
    2099                      .dwattr $C$DW$194, DW_AT_TI_begin_column(0x06)
    2100                      .dwattr $C$DW$194, DW_AT_TI_max_frame_size(-50)
    2101                      .dwpsn  file "/home/wmj/Documents/motor/sw/modules/ctrl/src/32b/ctrl.c",line 293,column 1,is_stmt,add
    2102              
    2103                      .dwfde $C$DW$CIE, _CTRL_setParams
    2104              $C$DW$195       .dwtag  DW_TAG_formal_parameter
    2105                      .dwattr $C$DW$195, DW_AT_name("handle")
    2106                      .dwattr $C$DW$195, DW_AT_TI_symbol_name("_handle")
    2107                      .dwattr $C$DW$195, DW_AT_type(*$C$DW$T$161)
    2108                      .dwattr $C$DW$195, DW_AT_location[DW_OP_reg12]
    2109              
    2110              $C$DW$196       .dwtag  DW_TAG_formal_parameter
    2111                      .dwattr $C$DW$196, DW_AT_name("pUserParams")
    2112                      .dwattr $C$DW$196, DW_AT_TI_symbol_name("_pUserParams")
    2113                      .dwattr $C$DW$196, DW_AT_type(*$C$DW$T$220)
    2114                      .dwattr $C$DW$196, DW_AT_location[DW_OP_reg14]
    2115              
    2116              
    2117              ;***************************************************************
    2118              ;* FNAME: _CTRL_setParams               FR SIZE:  48           *
    2119              ;*                                                             *
    2120              ;* FUNCTION ENVIRONMENT                                        *
    2121              ;*                                                             *
    2122              ;* FUNCTION PROPERTIES                                         *
    2123              ;*                            4 Parameter, 38 Auto,  6 SOE     *
    2124              ;***************************************************************
    2125              
    2126              _CTRL_setParams:
    2127              ;* AR3   assigned to $O$C1
    2128              ;* AR2   assigned to $O$C2
    2129              ;* AH    assigned to _numPolePairs
    2130              $C$DW$197       .dwtag  DW_TAG_variable
    2131                      .dwattr $C$DW$197, DW_AT_name("numPolePairs")
    2132                      .dwattr $C$DW$197, DW_AT_TI_symbol_name("_numPolePairs")
    2133                      .dwattr $C$DW$197, DW_AT_type(*$C$DW$T$67)
    2134                      .dwattr $C$DW$197, DW_AT_location[DW_OP_reg1]
    2135              
    2136              ;* XT    assigned to _ratedFlux
    2137              $C$DW$198       .dwtag  DW_TAG_variable
    2138                      .dwattr $C$DW$198, DW_AT_name("ratedFlux")
    2139                      .dwattr $C$DW$198, DW_AT_TI_symbol_name("_ratedFlux")
    2140                      .dwattr $C$DW$198, DW_AT_type(*$C$DW$T$68)
TMS320C2000 Assembler Unix v15.12.3 Wed Jun 28 11:48:12 2017

Tools Copyright (c) 1996-2015 Texas Instruments Incorporated
/tmp/85684BZyCPu                                                     PAGE   41

    2141                      .dwattr $C$DW$198, DW_AT_location[DW_OP_reg21]
    2142              
    2143              ;* AR5   assigned to _Ls_d
    2144              $C$DW$199       .dwtag  DW_TAG_variable
    2145                      .dwattr $C$DW$199, DW_AT_name("Ls_d")
    2146                      .dwattr $C$DW$199, DW_AT_TI_symbol_name("_Ls_d")
    2147                      .dwattr $C$DW$199, DW_AT_type(*$C$DW$T$68)
    2148                      .dwattr $C$DW$199, DW_AT_location[DW_OP_reg14]
    2149              
    2150              ;* PL    assigned to _Ls_q
    2151              $C$DW$200       .dwtag  DW_TAG_variable
    2152                      .dwattr $C$DW$200, DW_AT_name("Ls_q")
    2153                      .dwattr $C$DW$200, DW_AT_TI_symbol_name("_Ls_q")
    2154                      .dwattr $C$DW$200, DW_AT_type(*$C$DW$T$68)
    2155                      .dwattr $C$DW$200, DW_AT_location[DW_OP_reg2]
    2156              
    2157              ;* AR6   assigned to _Rr
    2158              $C$DW$201       .dwtag  DW_TAG_variable
    2159                      .dwattr $C$DW$201, DW_AT_name("Rr")
    2160                      .dwattr $C$DW$201, DW_AT_TI_symbol_name("_Rr")
    2161                      .dwattr $C$DW$201, DW_AT_type(*$C$DW$T$68)
    2162                      .dwattr $C$DW$201, DW_AT_location[DW_OP_reg16]
    2163              
    2164              ;* AR4   assigned to _Rs
    2165              $C$DW$202       .dwtag  DW_TAG_variable
    2166                      .dwattr $C$DW$202, DW_AT_name("Rs")
    2167                      .dwattr $C$DW$202, DW_AT_TI_symbol_name("_Rs")
    2168                      .dwattr $C$DW$202, DW_AT_type(*$C$DW$T$68)
    2169                      .dwattr $C$DW$202, DW_AT_location[DW_OP_reg12]
    2170              
    2171              ;* AR6   assigned to _Ki
    2172              $C$DW$203       .dwtag  DW_TAG_variable
    2173                      .dwattr $C$DW$203, DW_AT_name("Ki")
    2174                      .dwattr $C$DW$203, DW_AT_TI_symbol_name("_Ki")
    2175                      .dwattr $C$DW$203, DW_AT_type(*$C$DW$T$32)
    2176                      .dwattr $C$DW$203, DW_AT_location[DW_OP_reg16]
    2177              
    2178              ;* AR4   assigned to _obj
    2179              $C$DW$204       .dwtag  DW_TAG_variable
    2180                      .dwattr $C$DW$204, DW_AT_name("obj")
    2181                      .dwattr $C$DW$204, DW_AT_TI_symbol_name("_obj")
    2182                      .dwattr $C$DW$204, DW_AT_type(*$C$DW$T$218)
    2183                      .dwattr $C$DW$204, DW_AT_location[DW_OP_reg12]
    2184              
    2185              ;* AR4   assigned to _obj
    2186              $C$DW$205       .dwtag  DW_TAG_variable
    2187                      .dwattr $C$DW$205, DW_AT_name("obj")
    2188                      .dwattr $C$DW$205, DW_AT_TI_symbol_name("_obj")
    2189                      .dwattr $C$DW$205, DW_AT_type(*$C$DW$T$218)
    2190                      .dwattr $C$DW$205, DW_AT_location[DW_OP_reg12]
    2191              
    2192              ;* AR6   assigned to _Ki
    2193              $C$DW$206       .dwtag  DW_TAG_variable
    2194                      .dwattr $C$DW$206, DW_AT_name("Ki")
    2195                      .dwattr $C$DW$206, DW_AT_TI_symbol_name("_Ki")
TMS320C2000 Assembler Unix v15.12.3 Wed Jun 28 11:48:12 2017

Tools Copyright (c) 1996-2015 Texas Instruments Incorporated
/tmp/85684BZyCPu                                                     PAGE   42

    2196                      .dwattr $C$DW$206, DW_AT_type(*$C$DW$T$32)
    2197                      .dwattr $C$DW$206, DW_AT_location[DW_OP_reg16]
    2198              
    2199              ;* AR4   assigned to _obj
    2200              $C$DW$207       .dwtag  DW_TAG_variable
    2201                      .dwattr $C$DW$207, DW_AT_name("obj")
    2202                      .dwattr $C$DW$207, DW_AT_TI_symbol_name("_obj")
    2203                      .dwattr $C$DW$207, DW_AT_type(*$C$DW$T$218)
    2204                      .dwattr $C$DW$207, DW_AT_location[DW_OP_reg12]
    2205              
    2206              ;* AR4   assigned to _obj
    2207              $C$DW$208       .dwtag  DW_TAG_variable
    2208                      .dwattr $C$DW$208, DW_AT_name("obj")
    2209                      .dwattr $C$DW$208, DW_AT_TI_symbol_name("_obj")
    2210                      .dwattr $C$DW$208, DW_AT_type(*$C$DW$T$218)
    2211                      .dwattr $C$DW$208, DW_AT_location[DW_OP_reg12]
    2212              
    2213              ;* AR6   assigned to _Ki
    2214              $C$DW$209       .dwtag  DW_TAG_variable
    2215                      .dwattr $C$DW$209, DW_AT_name("Ki")
    2216                      .dwattr $C$DW$209, DW_AT_TI_symbol_name("_Ki")
    2217                      .dwattr $C$DW$209, DW_AT_type(*$C$DW$T$32)
    2218                      .dwattr $C$DW$209, DW_AT_location[DW_OP_reg16]
    2219              
    2220              ;* AR4   assigned to _obj
    2221              $C$DW$210       .dwtag  DW_TAG_variable
    2222                      .dwattr $C$DW$210, DW_AT_name("obj")
    2223                      .dwattr $C$DW$210, DW_AT_TI_symbol_name("_obj")
    2224                      .dwattr $C$DW$210, DW_AT_type(*$C$DW$T$218)
    2225                      .dwattr $C$DW$210, DW_AT_location[DW_OP_reg12]
    2226              
    2227              ;* AR4   assigned to _obj
    2228              $C$DW$211       .dwtag  DW_TAG_variable
    2229                      .dwattr $C$DW$211, DW_AT_name("obj")
    2230                      .dwattr $C$DW$211, DW_AT_TI_symbol_name("_obj")
    2231                      .dwattr $C$DW$211, DW_AT_type(*$C$DW$T$218)
    2232                      .dwattr $C$DW$211, DW_AT_location[DW_OP_reg12]
    2233              
    2234              $C$DW$212       .dwtag  DW_TAG_variable
    2235                      .dwattr $C$DW$212, DW_AT_name("Kp")
    2236                      .dwattr $C$DW$212, DW_AT_TI_symbol_name("_Kp")
    2237                      .dwattr $C$DW$212, DW_AT_type(*$C$DW$T$32)
    2238                      .dwattr $C$DW$212, DW_AT_location[DW_OP_breg20 -40]
    2239              
    2240              $C$DW$213       .dwtag  DW_TAG_variable
    2241                      .dwattr $C$DW$213, DW_AT_name("pUserParams")
    2242                      .dwattr $C$DW$213, DW_AT_TI_symbol_name("_pUserParams")
    2243                      .dwattr $C$DW$213, DW_AT_type(*$C$DW$T$221)
    2244                      .dwattr $C$DW$213, DW_AT_location[DW_OP_breg20 -42]
    2245              
    2246              ;* AR1   assigned to _handle
    2247              $C$DW$214       .dwtag  DW_TAG_variable
    2248                      .dwattr $C$DW$214, DW_AT_name("handle")
    2249                      .dwattr $C$DW$214, DW_AT_TI_symbol_name("_handle")
    2250                      .dwattr $C$DW$214, DW_AT_type(*$C$DW$T$175)
TMS320C2000 Assembler Unix v15.12.3 Wed Jun 28 11:48:12 2017

Tools Copyright (c) 1996-2015 Texas Instruments Incorporated
/tmp/85684BZyCPu                                                     PAGE   43

    2251                      .dwattr $C$DW$214, DW_AT_location[DW_OP_reg6]
    2252              
    2253              $C$DW$215       .dwtag  DW_TAG_variable
    2254                      .dwattr $C$DW$215, DW_AT_name("Iab_out_pu")
    2255                      .dwattr $C$DW$215, DW_AT_TI_symbol_name("_Iab_out_pu")
    2256                      .dwattr $C$DW$215, DW_AT_type(*$C$DW$T$69)
    2257                      .dwattr $C$DW$215, DW_AT_location[DW_OP_breg20 -8]
    2258              
    2259              $C$DW$216       .dwtag  DW_TAG_variable
    2260                      .dwattr $C$DW$216, DW_AT_name("Idq_out_pu")
    2261                      .dwattr $C$DW$216, DW_AT_TI_symbol_name("_Idq_out_pu")
    2262                      .dwattr $C$DW$216, DW_AT_type(*$C$DW$T$69)
    2263                      .dwattr $C$DW$216, DW_AT_location[DW_OP_breg20 -12]
    2264              
    2265              $C$DW$217       .dwtag  DW_TAG_variable
    2266                      .dwattr $C$DW$217, DW_AT_name("Idq_ref_pu")
    2267                      .dwattr $C$DW$217, DW_AT_TI_symbol_name("_Idq_ref_pu")
    2268                      .dwattr $C$DW$217, DW_AT_type(*$C$DW$T$69)
    2269                      .dwattr $C$DW$217, DW_AT_location[DW_OP_breg20 -16]
    2270              
    2271              $C$DW$218       .dwtag  DW_TAG_variable
    2272                      .dwattr $C$DW$218, DW_AT_name("Vab_in_pu")
    2273                      .dwattr $C$DW$218, DW_AT_TI_symbol_name("_Vab_in_pu")
    2274                      .dwattr $C$DW$218, DW_AT_type(*$C$DW$T$69)
    2275                      .dwattr $C$DW$218, DW_AT_location[DW_OP_breg20 -20]
    2276              
    2277              $C$DW$219       .dwtag  DW_TAG_variable
    2278                      .dwattr $C$DW$219, DW_AT_name("Vab_out_pu")
    2279                      .dwattr $C$DW$219, DW_AT_TI_symbol_name("_Vab_out_pu")
    2280                      .dwattr $C$DW$219, DW_AT_type(*$C$DW$T$69)
    2281                      .dwattr $C$DW$219, DW_AT_location[DW_OP_breg20 -24]
    2282              
    2283              $C$DW$220       .dwtag  DW_TAG_variable
    2284                      .dwattr $C$DW$220, DW_AT_name("Vdq_out_pu")
    2285                      .dwattr $C$DW$220, DW_AT_TI_symbol_name("_Vdq_out_pu")
    2286                      .dwattr $C$DW$220, DW_AT_type(*$C$DW$T$69)
    2287                      .dwattr $C$DW$220, DW_AT_location[DW_OP_breg20 -28]
    2288              
    2289                      .dwcfi  cfa_offset, -2
    2290                      .dwcfi  save_reg_to_mem, 26, 0
    2291 0000018f B2BD          MOVL      *SP++,XAR1            ; [CPU_] 
    2292                      .dwcfi  save_reg_to_mem, 7, 2
    2293                      .dwcfi  cfa_offset, -4
    2294 00000190 AABD          MOVL      *SP++,XAR2            ; [CPU_] 
    2295                      .dwcfi  save_reg_to_mem, 9, 4
    2296                      .dwcfi  cfa_offset, -6
    2297 00000191 A2BD          MOVL      *SP++,XAR3            ; [CPU_] 
    2298                      .dwcfi  save_reg_to_mem, 11, 6
    2299                      .dwcfi  cfa_offset, -8
    2300 00000192 FE2A          ADDB      SP,#42                ; [CPU_U] 
    2301                      .dwcfi  cfa_offset, -50
    2302 00000193 8BA4          MOVL      XAR1,XAR4             ; [CPU_] |293| 
    2303                      .dwpsn  file "/home/wmj/Documents/motor/sw/modules/ctrl/src/32b/ctrl.c",line 300,column 13,is_stmt,is
    2304 00000194 5CAD          MOVZ      AR4,SP                ; [CPU_] |300| 
    2305                      .dwpsn  file "/home/wmj/Documents/motor/sw/modules/ctrl/src/32b/ctrl.c",line 293,column 1,is_stmt,isa
TMS320C2000 Assembler Unix v15.12.3 Wed Jun 28 11:48:12 2017

Tools Copyright (c) 1996-2015 Texas Instruments Incorporated
/tmp/85684BZyCPu                                                     PAGE   44

    2306 00000195 A06A          MOVL      *-SP[42],XAR5         ; [CPU_] |293| 
    2307                      .dwpsn  file "/home/wmj/Documents/motor/sw/modules/ctrl/src/32b/ctrl.c",line 300,column 13,is_stmt,is
    2308 00000196 DC88          SUBB      XAR4,#8               ; [CPU_U] |300| 
    2309 00000197 5CA4          MOVZ      AR4,AR4               ; [CPU_] |300| 
    2310 00000198 76C0+         MOVL      XAR7,#_$P$T0$1        ; [CPU_U] |300| 
         00000199 0000 
    2311 0000019a F603          RPT       #3
    2312 0000019b 2484  ||     PREAD     *XAR4++,*XAR7         ; [CPU_] |300| 
    2313                      .dwpsn  file "/home/wmj/Documents/motor/sw/modules/ctrl/src/32b/ctrl.c",line 301,column 13,is_stmt,is
    2314 0000019c 5CAD          MOVZ      AR4,SP                ; [CPU_] |301| 
    2315 0000019d DC8C          SUBB      XAR4,#12              ; [CPU_U] |301| 
    2316 0000019e 5CA4          MOVZ      AR4,AR4               ; [CPU_] |301| 
    2317 0000019f 76C0+         MOVL      XAR7,#_$P$T1$2        ; [CPU_U] |301| 
         000001a0 0000 
    2318 000001a1 F603          RPT       #3
    2319 000001a2 2484  ||     PREAD     *XAR4++,*XAR7         ; [CPU_] |301| 
    2320                      .dwpsn  file "/home/wmj/Documents/motor/sw/modules/ctrl/src/32b/ctrl.c",line 302,column 13,is_stmt,is
    2321 000001a3 5CAD          MOVZ      AR4,SP                ; [CPU_] |302| 
    2322 000001a4 DC90          SUBB      XAR4,#16              ; [CPU_U] |302| 
    2323 000001a5 5CA4          MOVZ      AR4,AR4               ; [CPU_] |302| 
    2324 000001a6 76C0+         MOVL      XAR7,#_$P$T2$3        ; [CPU_U] |302| 
         000001a7 0000 
    2325 000001a8 F603          RPT       #3
    2326 000001a9 2484  ||     PREAD     *XAR4++,*XAR7         ; [CPU_] |302| 
    2327                      .dwpsn  file "/home/wmj/Documents/motor/sw/modules/ctrl/src/32b/ctrl.c",line 303,column 13,is_stmt,is
    2328 000001aa 5CAD          MOVZ      AR4,SP                ; [CPU_] |303| 
    2329 000001ab DC94          SUBB      XAR4,#20              ; [CPU_U] |303| 
    2330 000001ac 5CA4          MOVZ      AR4,AR4               ; [CPU_] |303| 
    2331 000001ad 76C0+         MOVL      XAR7,#_$P$T3$4        ; [CPU_U] |303| 
         000001ae 0000 
    2332 000001af F603          RPT       #3
    2333 000001b0 2484  ||     PREAD     *XAR4++,*XAR7         ; [CPU_] |303| 
    2334                      .dwpsn  file "/home/wmj/Documents/motor/sw/modules/ctrl/src/32b/ctrl.c",line 304,column 13,is_stmt,is
    2335 000001b1 5CAD          MOVZ      AR4,SP                ; [CPU_] |304| 
    2336 000001b2 DC98          SUBB      XAR4,#24              ; [CPU_U] |304| 
    2337 000001b3 5CA4          MOVZ      AR4,AR4               ; [CPU_] |304| 
    2338 000001b4 76C0+         MOVL      XAR7,#_$P$T4$5        ; [CPU_U] |304| 
         000001b5 0000 
    2339 000001b6 F603          RPT       #3
    2340 000001b7 2484  ||     PREAD     *XAR4++,*XAR7         ; [CPU_] |304| 
    2341                      .dwpsn  file "/home/wmj/Documents/motor/sw/modules/ctrl/src/32b/ctrl.c",line 305,column 13,is_stmt,is
    2342 000001b8 5CAD          MOVZ      AR4,SP                ; [CPU_] |305| 
    2343 000001b9 DC9C          SUBB      XAR4,#28              ; [CPU_U] |305| 
    2344 000001ba 5CA4          MOVZ      AR4,AR4               ; [CPU_] |305| 
    2345 000001bb 76C0+         MOVL      XAR7,#_$P$T5$6        ; [CPU_U] |305| 
         000001bc 0000 
    2346 000001bd F603          RPT       #3
    2347 000001be 2484  ||     PREAD     *XAR4++,*XAR7         ; [CPU_] |305| 
    2348                      .dwpsn  file "/home/wmj/Documents/motor/sw/modules/ctrl/src/32b/ctrl.h",line 1592,column 3,is_stmt,is
    2349 000001bf C56A          MOVL      XAR7,*-SP[42]         ; [CPU_] |1592| 
    2350                      .dwpsn  file "/home/wmj/Documents/motor/sw/modules/ctrl/src/32b/ctrl.c",line 309,column 3,is_stmt,isa
    2351 000001c0 8A6A          MOVL      XAR4,*-SP[42]         ; [CPU_] |309| 
    2352 000001c1 D035          MOVB      XAR0,#53              ; [CPU_] |309| 
    2353                      .dwpsn  file "/home/wmj/Documents/motor/sw/modules/ctrl/src/32b/ctrl.h",line 1592,column 3,is_stmt,is
    2354 000001c2 DF34          ADDB      XAR7,#52              ; [CPU_] |1592| 
TMS320C2000 Assembler Unix v15.12.3 Wed Jun 28 11:48:12 2017

Tools Copyright (c) 1996-2015 Texas Instruments Incorporated
/tmp/85684BZyCPu                                                     PAGE   45

    2355                      .dwpsn  file "/home/wmj/Documents/motor/sw/modules/ctrl/src/32b/ctrl.c",line 309,column 3,is_stmt,isa
    2356 000001c3 9394          MOV       AH,*+XAR4[AR0]        ; [CPU_] |309| 
    2357 000001c4 D036          MOVB      XAR0,#54              ; [CPU_] |309| 
    2358                      .dwpsn  file "/home/wmj/Documents/motor/sw/modules/ctrl/src/32b/ctrl.h",line 1592,column 3,is_stmt,is
    2359 000001c5 92C7          MOV       AL,*XAR7              ; [CPU_] |1592| 
    2360                      .dwpsn  file "/home/wmj/Documents/motor/sw/modules/ctrl/src/32b/ctrl.c",line 309,column 3,is_stmt,isa
    2361 000001c6 8794          MOVL      XT,*+XAR4[AR0]        ; [CPU_] |309| 
    2362 000001c7 D03C          MOVB      XAR0,#60              ; [CPU_] |309| 
    2363 000001c8 8394          MOVL      XAR5,*+XAR4[AR0]      ; [CPU_] |309| 
    2364 000001c9 D03E          MOVB      XAR0,#62              ; [CPU_] |309| 
    2365 000001ca A394          MOVL      P,*+XAR4[AR0]         ; [CPU_] |309| 
    2366 000001cb D038          MOVB      XAR0,#56              ; [CPU_] |309| 
    2367 000001cc C494          MOVL      XAR6,*+XAR4[AR0]      ; [CPU_] |309| 
    2368 000001cd D03A          MOVB      XAR0,#58              ; [CPU_] |309| 
    2369 000001ce 8A94          MOVL      XAR4,*+XAR4[AR0]      ; [CPU_] |309| 
    2370                      .dwpsn  file "/home/wmj/Documents/motor/sw/modules/ctrl/src/32b/ctrl.h",line 1592,column 3,is_stmt,is
    2371 000001cf D084          MOVB      XAR0,#132             ; [CPU_] |1592| 
    2372 000001d0 9691          MOV       *+XAR1[AR0],AL        ; [CPU_] |1592| 
    2373                      .dwpsn  file "/home/wmj/Documents/motor/sw/modules/ctrl/src/32b/ctrl.h",line 1593,column 3,is_stmt,is
    2374 000001d1 D085          MOVB      XAR0,#133             ; [CPU_] |1593| 
    2375 000001d2 9791          MOV       *+XAR1[AR0],AH        ; [CPU_] |1593| 
    2376                      .dwpsn  file "/home/wmj/Documents/motor/sw/modules/ctrl/src/32b/ctrl.h",line 1594,column 3,is_stmt,is
    2377 000001d3 D090          MOVB      XAR0,#144             ; [CPU_] |1594| 
    2378 000001d4 AB91          MOVL      *+XAR1[AR0],XT        ; [CPU_] |1594| 
    2379                      .dwpsn  file "/home/wmj/Documents/motor/sw/modules/ctrl/src/32b/ctrl.h",line 1595,column 3,is_stmt,is
    2380 000001d5 D088          MOVB      XAR0,#136             ; [CPU_] |1595| 
    2381 000001d6 A091          MOVL      *+XAR1[AR0],XAR5      ; [CPU_] |1595| 
    2382                      .dwpsn  file "/home/wmj/Documents/motor/sw/modules/ctrl/src/32b/ctrl.h",line 1596,column 3,is_stmt,is
    2383 000001d7 D08A          MOVB      XAR0,#138             ; [CPU_] |1596| 
    2384 000001d8 A991          MOVL      *+XAR1[AR0],P         ; [CPU_] |1596| 
    2385                      .dwpsn  file "/home/wmj/Documents/motor/sw/modules/ctrl/src/32b/ctrl.h",line 1597,column 3,is_stmt,is
    2386 000001d9 D08C          MOVB      XAR0,#140             ; [CPU_] |1597| 
    2387 000001da C291          MOVL      *+XAR1[AR0],XAR6      ; [CPU_] |1597| 
    2388                      .dwpsn  file "/home/wmj/Documents/motor/sw/modules/ctrl/src/32b/ctrl.h",line 1598,column 3,is_stmt,is
    2389 000001db D08E          MOVB      XAR0,#142             ; [CPU_] |1598| 
    2390 000001dc A891          MOVL      *+XAR1[AR0],XAR4      ; [CPU_] |1598| 
    2391                      .dwpsn  file "/home/wmj/Documents/motor/sw/modules/ctrl/src/32b/ctrl.h",line 1662,column 3,is_stmt,is
    2392 000001dd 8A6A          MOVL      XAR4,*-SP[42]         ; [CPU_] |1662| 
    2393 000001de D09C          MOVB      XAR0,#156             ; [CPU_] |1662| 
    2394 000001df 92F4          MOV       AL,*+XAR4[6]          ; [CPU_] |1662| 
    2395 000001e0 9691          MOV       *+XAR1[AR0],AL        ; [CPU_] |1662| 
    2396                      .dwpsn  file "/home/wmj/Documents/motor/sw/modules/ctrl/src/32b/ctrl.h",line 1620,column 3,is_stmt,is
    2397 000001e1 D09D          MOVB      XAR0,#157             ; [CPU_] |1620| 
    2398 000001e2 92FC          MOV       AL,*+XAR4[7]          ; [CPU_] |1620| 
    2399 000001e3 9691          MOV       *+XAR1[AR0],AL        ; [CPU_] |1620| 
    2400                      .dwpsn  file "/home/wmj/Documents/motor/sw/modules/ctrl/src/32b/ctrl.h",line 1634,column 3,is_stmt,is
    2401 000001e4 C56A          MOVL      XAR7,*-SP[42]         ; [CPU_] |1634| 
    2402 000001e5 D09E          MOVB      XAR0,#158             ; [CPU_] |1634| 
    2403 000001e6 DF09          ADDB      XAR7,#9               ; [CPU_] |1634| 
    2404 000001e7 92C7          MOV       AL,*XAR7              ; [CPU_] |1634| 
    2405 000001e8 9691          MOV       *+XAR1[AR0],AL        ; [CPU_] |1634| 
    2406                      .dwpsn  file "/home/wmj/Documents/motor/sw/modules/ctrl/src/32b/ctrl.h",line 1648,column 3,is_stmt,is
    2407 000001e9 C56A          MOVL      XAR7,*-SP[42]         ; [CPU_] |1648| 
    2408 000001ea D09F          MOVB      XAR0,#159             ; [CPU_] |1648| 
    2409 000001eb DF0A          ADDB      XAR7,#10              ; [CPU_] |1648| 
TMS320C2000 Assembler Unix v15.12.3 Wed Jun 28 11:48:12 2017

Tools Copyright (c) 1996-2015 Texas Instruments Incorporated
/tmp/85684BZyCPu                                                     PAGE   46

    2410 000001ec 92C7          MOV       AL,*XAR7              ; [CPU_] |1648| 
    2411 000001ed 9691          MOV       *+XAR1[AR0],AL        ; [CPU_] |1648| 
    2412                      .dwpsn  file "/home/wmj/Documents/motor/sw/modules/ctrl/src/32b/ctrl.h",line 1167,column 3,is_stmt,is
    2413 000001ee D09E          MOVB      XAR0,#158             ; [CPU_] |1167| 
    2414 000001ef 0694          MOVL      ACC,*+XAR4[AR0]       ; [CPU_] |1167| 
    2415 000001f0 D0A0          MOVB      XAR0,#160             ; [CPU_] |1167| 
    2416 000001f1 1E91          MOVL      *+XAR1[AR0],ACC       ; [CPU_] |1167| 
    2417                      .dwpsn  file "/home/wmj/Documents/motor/sw/modules/ctrl/src/32b/ctrl.h",line 1792,column 3,is_stmt,is
    2418 000001f2 D0A4          MOVB      XAR0,#164             ; [CPU_] |1792| 
    2419 000001f3 0694          MOVL      ACC,*+XAR4[AR0]       ; [CPU_] |1792| 
    2420 000001f4 D0A2          MOVB      XAR0,#162             ; [CPU_] |1792| 
    2421 000001f5 1E91          MOVL      *+XAR1[AR0],ACC       ; [CPU_] |1792| 
    2422                      .dwpsn  file "/home/wmj/Documents/motor/sw/modules/ctrl/src/32b/ctrl.h",line 1805,column 3,is_stmt,is
    2423 000001f6 D0A4          MOVB      XAR0,#164             ; [CPU_] |1805| 
    2424 000001f7 0694          MOVL      ACC,*+XAR4[AR0]       ; [CPU_] |1805| 
    2425              $C$DW$221       .dwtag  DW_TAG_TI_branch
    2426                      .dwattr $C$DW$221, DW_AT_low_pc(0x00)
    2427                      .dwattr $C$DW$221, DW_AT_name("UL$$TOFS")
    2428                      .dwattr $C$DW$221, DW_AT_TI_call
    2429              
    2430 000001f8 7640!         LCR       #UL$$TOFS             ; [CPU_] |1805| 
         000001f9 0000 
    2431                      ; call occurs [#UL$$TOFS] ; [] |1805| 
    2432 000001fa 1E42          MOVL      *-SP[2],ACC           ; [CPU_] |1805| 
    2433 000001fb FF2F          MOV       ACC,#32512 << 15      ; [CPU_] |1805| 
         000001fc 7F00 
    2434              $C$DW$222       .dwtag  DW_TAG_TI_branch
    2435                      .dwattr $C$DW$222, DW_AT_low_pc(0x00)
    2436                      .dwattr $C$DW$222, DW_AT_name("FS$$DIV")
    2437                      .dwattr $C$DW$222, DW_AT_TI_call
    2438              
    2439 000001fd 7640!         LCR       #FS$$DIV              ; [CPU_] |1805| 
         000001fe 0000 
    2440                      ; call occurs [#FS$$DIV] ; [] |1805| 
    2441 000001ff 5CAD          MOVZ      AR4,SP                ; [CPU_] |1805| 
    2442 00000200 DCA4          SUBB      XAR4,#36              ; [CPU_U] |1805| 
    2443 00000201 88A4          MOVZ      AR6,AR4               ; [CPU_] |1805| 
    2444              $C$DW$223       .dwtag  DW_TAG_TI_branch
    2445                      .dwattr $C$DW$223, DW_AT_low_pc(0x00)
    2446                      .dwattr $C$DW$223, DW_AT_name("FS$$TOFD")
    2447                      .dwattr $C$DW$223, DW_AT_TI_call
    2448              
    2449 00000202 7640!         LCR       #FS$$TOFD             ; [CPU_] |1805| 
         00000203 0000 
    2450                      ; call occurs [#FS$$TOFD] ; [] |1805| 
    2451 00000204 5DAD          MOVZ      AR5,SP                ; [CPU_] |1805| 
    2452 00000205 5CAD          MOVZ      AR4,SP                ; [CPU_] |1805| 
    2453 00000206 DDA0          SUBB      XAR5,#32              ; [CPU_U] |1805| 
    2454 00000207 DCA4          SUBB      XAR4,#36              ; [CPU_U] |1805| 
    2455 00000208 88A5          MOVZ      AR6,AR5               ; [CPU_] |1805| 
    2456 00000209 5CA4          MOVZ      AR4,AR4               ; [CPU_] |1805| 
    2457 0000020a 8F40+         MOVL      XAR5,#$C$FL1          ; [CPU_U] |1805| 
         0000020b 0000 
    2458              $C$DW$224       .dwtag  DW_TAG_TI_branch
    2459                      .dwattr $C$DW$224, DW_AT_low_pc(0x00)
TMS320C2000 Assembler Unix v15.12.3 Wed Jun 28 11:48:12 2017

Tools Copyright (c) 1996-2015 Texas Instruments Incorporated
/tmp/85684BZyCPu                                                     PAGE   47

    2460                      .dwattr $C$DW$224, DW_AT_name("FD$$MPY")
    2461                      .dwattr $C$DW$224, DW_AT_TI_call
    2462              
    2463 0000020c 7640!         LCR       #FD$$MPY              ; [CPU_] |1805| 
         0000020d 0000 
    2464                      ; call occurs [#FD$$MPY] ; [] |1805| 
    2465 0000020e 5CAD          MOVZ      AR4,SP                ; [CPU_] |1805| 
    2466 0000020f DCA0          SUBB      XAR4,#32              ; [CPU_U] |1805| 
    2467 00000210 5CA4          MOVZ      AR4,AR4               ; [CPU_] |1805| 
    2468              $C$DW$225       .dwtag  DW_TAG_TI_branch
    2469                      .dwattr $C$DW$225, DW_AT_low_pc(0x00)
    2470                      .dwattr $C$DW$225, DW_AT_name("FD$$TOL")
    2471                      .dwattr $C$DW$225, DW_AT_TI_call
    2472              
    2473 00000211 7640!         LCR       #FD$$TOL              ; [CPU_] |1805| 
         00000212 0000 
    2474                      ; call occurs [#FD$$TOL] ; [] |1805| 
    2475 00000213 D0A4          MOVB      XAR0,#164             ; [CPU_] |1805| 
    2476 00000214 1E91          MOVL      *+XAR1[AR0],ACC       ; [CPU_] |1805| 
    2477                      .dwpsn  file "/home/wmj/Documents/motor/sw/modules/ctrl/src/32b/ctrl.h",line 1180,column 3,is_stmt,is
    2478 00000215 8A6A          MOVL      XAR4,*-SP[42]         ; [CPU_] |1180| 
    2479 00000216 D0A6          MOVB      XAR0,#166             ; [CPU_] |1180| 
    2480 00000217 0694          MOVL      ACC,*+XAR4[AR0]       ; [CPU_] |1180| 
    2481 00000218 D0A6          MOVB      XAR0,#166             ; [CPU_] |1180| 
    2482 00000219 1E91          MOVL      *+XAR1[AR0],ACC       ; [CPU_] |1180| 
    2483                      .dwpsn  file "/home/wmj/Documents/motor/sw/modules/ctrl/src/32b/ctrl.h",line 1546,column 3,is_stmt,is
    2484 0000021a D030          MOVB      XAR0,#48              ; [CPU_] |1546| 
    2485 0000021b 0694          MOVL      ACC,*+XAR4[AR0]       ; [CPU_] |1546| 
    2486 0000021c 5CAD          MOVZ      AR4,SP                ; [CPU_] |1546| 
    2487 0000021d DCA4          SUBB      XAR4,#36              ; [CPU_U] |1546| 
    2488 0000021e 88A4          MOVZ      AR6,AR4               ; [CPU_] |1546| 
    2489              $C$DW$226       .dwtag  DW_TAG_TI_branch
    2490                      .dwattr $C$DW$226, DW_AT_low_pc(0x00)
    2491                      .dwattr $C$DW$226, DW_AT_name("FS$$TOFD")
    2492                      .dwattr $C$DW$226, DW_AT_TI_call
    2493              
    2494 0000021f 7640!         LCR       #FS$$TOFD             ; [CPU_] |1546| 
         00000220 0000 
    2495                      ; call occurs [#FS$$TOFD] ; [] |1546| 
    2496 00000221 5DAD          MOVZ      AR5,SP                ; [CPU_] |1546| 
    2497 00000222 5CAD          MOVZ      AR4,SP                ; [CPU_] |1546| 
    2498 00000223 DDA0          SUBB      XAR5,#32              ; [CPU_U] |1546| 
    2499 00000224 DCA4          SUBB      XAR4,#36              ; [CPU_U] |1546| 
    2500 00000225 88A5          MOVZ      AR6,AR5               ; [CPU_] |1546| 
    2501 00000226 5CA4          MOVZ      AR4,AR4               ; [CPU_] |1546| 
    2502 00000227 8F40+         MOVL      XAR5,#$C$FL1          ; [CPU_U] |1546| 
         00000228 0000 
    2503              $C$DW$227       .dwtag  DW_TAG_TI_branch
    2504                      .dwattr $C$DW$227, DW_AT_low_pc(0x00)
    2505                      .dwattr $C$DW$227, DW_AT_name("FD$$MPY")
    2506                      .dwattr $C$DW$227, DW_AT_TI_call
    2507              
    2508 00000229 7640!         LCR       #FD$$MPY              ; [CPU_] |1546| 
         0000022a 0000 
    2509                      ; call occurs [#FD$$MPY] ; [] |1546| 
TMS320C2000 Assembler Unix v15.12.3 Wed Jun 28 11:48:12 2017

Tools Copyright (c) 1996-2015 Texas Instruments Incorporated
/tmp/85684BZyCPu                                                     PAGE   48

    2510 0000022b 5CAD          MOVZ      AR4,SP                ; [CPU_] |1546| 
    2511 0000022c DCA0          SUBB      XAR4,#32              ; [CPU_U] |1546| 
    2512 0000022d 5CA4          MOVZ      AR4,AR4               ; [CPU_] |1546| 
    2513              $C$DW$228       .dwtag  DW_TAG_TI_branch
    2514                      .dwattr $C$DW$228, DW_AT_low_pc(0x00)
    2515                      .dwattr $C$DW$228, DW_AT_name("FD$$TOL")
    2516                      .dwattr $C$DW$228, DW_AT_TI_call
    2517              
    2518 0000022e 7640!         LCR       #FD$$TOL              ; [CPU_] |1546| 
         0000022f 0000 
    2519                      ; call occurs [#FD$$TOL] ; [] |1546| 
    2520 00000230 D0A8          MOVB      XAR0,#168             ; [CPU_] |1546| 
    2521 00000231 1E91          MOVL      *+XAR1[AR0],ACC       ; [CPU_] |1546| 
    2522                      .dwpsn  file "/home/wmj/Documents/motor/sw/modules/ctrl/src/32b/ctrl.h",line 1327,column 3,is_stmt,is
    2523 00000232 D0AA          MOVB      XAR0,#170             ; [CPU_] |1327| 
    2524 00000233 0648          MOVL      ACC,*-SP[8]           ; [CPU_] |1327| 
    2525 00000234 1E91          MOVL      *+XAR1[AR0],ACC       ; [CPU_] |1327| 
    2526                      .dwpsn  file "/home/wmj/Documents/motor/sw/modules/ctrl/src/32b/ctrl.h",line 1328,column 3,is_stmt,is
    2527 00000235 D0AC          MOVB      XAR0,#172             ; [CPU_] |1328| 
    2528 00000236 0646          MOVL      ACC,*-SP[6]           ; [CPU_] |1328| 
    2529 00000237 1E91          MOVL      *+XAR1[AR0],ACC       ; [CPU_] |1328| 
    2530                      .dwpsn  file "/home/wmj/Documents/motor/sw/modules/ctrl/src/32b/ctrl.h",line 1360,column 3,is_stmt,is
    2531 00000238 D0B2          MOVB      XAR0,#178             ; [CPU_] |1360| 
    2532 00000239 064C          MOVL      ACC,*-SP[12]          ; [CPU_] |1360| 
    2533 0000023a 1E91          MOVL      *+XAR1[AR0],ACC       ; [CPU_] |1360| 
    2534                      .dwpsn  file "/home/wmj/Documents/motor/sw/modules/ctrl/src/32b/ctrl.h",line 1361,column 3,is_stmt,is
    2535 0000023b D0B4          MOVB      XAR0,#180             ; [CPU_] |1361| 
    2536 0000023c 064A          MOVL      ACC,*-SP[10]          ; [CPU_] |1361| 
    2537 0000023d 1E91          MOVL      *+XAR1[AR0],ACC       ; [CPU_] |1361| 
    2538                      .dwpsn  file "/home/wmj/Documents/motor/sw/modules/ctrl/src/32b/ctrl.h",line 1388,column 3,is_stmt,is
    2539 0000023e D0E2          MOVB      XAR0,#226             ; [CPU_] |1388| 
    2540 0000023f 0650          MOVL      ACC,*-SP[16]          ; [CPU_] |1388| 
    2541 00000240 1E91          MOVL      *+XAR1[AR0],ACC       ; [CPU_] |1388| 
    2542                      .dwpsn  file "/home/wmj/Documents/motor/sw/modules/ctrl/src/32b/ctrl.h",line 1389,column 3,is_stmt,is
    2543 00000241 D0E4          MOVB      XAR0,#228             ; [CPU_] |1389| 
    2544 00000242 064E          MOVL      ACC,*-SP[14]          ; [CPU_] |1389| 
    2545 00000243 1E91          MOVL      *+XAR1[AR0],ACC       ; [CPU_] |1389| 
    2546 00000244 8A6A          MOVL      XAR4,*-SP[42]         ; [CPU_] |1389| 
    2547                      .dwpsn  file "/home/wmj/Documents/motor/sw/modules/ctrl/src/32b/ctrl.h",line 1402,column 3,is_stmt,is
    2548 00000245 D04A          MOVB      XAR0,#74              ; [CPU_] |1402| 
    2549 00000246 06C4          MOVL      ACC,*+XAR4[0]         ; [CPU_] |1402| 
    2550 00000247 1E42          MOVL      *-SP[2],ACC           ; [CPU_] |1402| 
    2551 00000248 0694          MOVL      ACC,*+XAR4[AR0]       ; [CPU_] |1402| 
    2552              $C$DW$229       .dwtag  DW_TAG_TI_branch
    2553                      .dwattr $C$DW$229, DW_AT_low_pc(0x00)
    2554                      .dwattr $C$DW$229, DW_AT_name("FS$$DIV")
    2555                      .dwattr $C$DW$229, DW_AT_TI_call
    2556              
    2557 00000249 7640!         LCR       #FS$$DIV              ; [CPU_] |1402| 
         0000024a 0000 
    2558                      ; call occurs [#FS$$DIV] ; [] |1402| 
    2559 0000024b 5CAD          MOVZ      AR4,SP                ; [CPU_] |1402| 
    2560 0000024c DCA4          SUBB      XAR4,#36              ; [CPU_U] |1402| 
    2561 0000024d 88A4          MOVZ      AR6,AR4               ; [CPU_] |1402| 
    2562              $C$DW$230       .dwtag  DW_TAG_TI_branch
TMS320C2000 Assembler Unix v15.12.3 Wed Jun 28 11:48:12 2017

Tools Copyright (c) 1996-2015 Texas Instruments Incorporated
/tmp/85684BZyCPu                                                     PAGE   49

    2563                      .dwattr $C$DW$230, DW_AT_low_pc(0x00)
    2564                      .dwattr $C$DW$230, DW_AT_name("FS$$TOFD")
    2565                      .dwattr $C$DW$230, DW_AT_TI_call
    2566              
    2567 0000024e 7640!         LCR       #FS$$TOFD             ; [CPU_] |1402| 
         0000024f 0000 
    2568                      ; call occurs [#FS$$TOFD] ; [] |1402| 
    2569 00000250 5DAD          MOVZ      AR5,SP                ; [CPU_] |1402| 
    2570 00000251 5CAD          MOVZ      AR4,SP                ; [CPU_] |1402| 
    2571 00000252 DDA0          SUBB      XAR5,#32              ; [CPU_U] |1402| 
    2572 00000253 DCA4          SUBB      XAR4,#36              ; [CPU_U] |1402| 
    2573 00000254 88A5          MOVZ      AR6,AR5               ; [CPU_] |1402| 
    2574 00000255 5CA4          MOVZ      AR4,AR4               ; [CPU_] |1402| 
    2575 00000256 8F40+         MOVL      XAR5,#$C$FL1          ; [CPU_U] |1402| 
         00000257 0000 
    2576              $C$DW$231       .dwtag  DW_TAG_TI_branch
    2577                      .dwattr $C$DW$231, DW_AT_low_pc(0x00)
    2578                      .dwattr $C$DW$231, DW_AT_name("FD$$MPY")
    2579                      .dwattr $C$DW$231, DW_AT_TI_call
    2580              
    2581 00000258 7640!         LCR       #FD$$MPY              ; [CPU_] |1402| 
         00000259 0000 
    2582                      ; call occurs [#FD$$MPY] ; [] |1402| 
    2583 0000025a 5CAD          MOVZ      AR4,SP                ; [CPU_] |1402| 
    2584 0000025b DCA0          SUBB      XAR4,#32              ; [CPU_U] |1402| 
    2585 0000025c 5CA4          MOVZ      AR4,AR4               ; [CPU_] |1402| 
    2586              $C$DW$232       .dwtag  DW_TAG_TI_branch
    2587                      .dwattr $C$DW$232, DW_AT_low_pc(0x00)
    2588                      .dwattr $C$DW$232, DW_AT_name("FD$$TOL")
    2589                      .dwattr $C$DW$232, DW_AT_TI_call
    2590              
    2591 0000025d 7640!         LCR       #FD$$TOL              ; [CPU_] |1402| 
         0000025e 0000 
    2592                      ; call occurs [#FD$$TOL] ; [] |1402| 
    2593 0000025f D0E6          MOVB      XAR0,#230             ; [CPU_] |1402| 
    2594 00000260 1E91          MOVL      *+XAR1[AR0],ACC       ; [CPU_] |1402| 
    2595                      .dwpsn  file "/home/wmj/Documents/motor/sw/modules/ctrl/src/32b/ctrl.h",line 1886,column 3,is_stmt,is
    2596 00000261 D0B6          MOVB      XAR0,#182             ; [CPU_] |1886| 
    2597 00000262 0654          MOVL      ACC,*-SP[20]          ; [CPU_] |1886| 
    2598 00000263 1E91          MOVL      *+XAR1[AR0],ACC       ; [CPU_] |1886| 
    2599                      .dwpsn  file "/home/wmj/Documents/motor/sw/modules/ctrl/src/32b/ctrl.h",line 1887,column 3,is_stmt,is
    2600 00000264 D0B8          MOVB      XAR0,#184             ; [CPU_] |1887| 
    2601 00000265 0652          MOVL      ACC,*-SP[18]          ; [CPU_] |1887| 
    2602 00000266 1E91          MOVL      *+XAR1[AR0],ACC       ; [CPU_] |1887| 
    2603                      .dwpsn  file "/home/wmj/Documents/motor/sw/modules/ctrl/src/32b/ctrl.h",line 1900,column 3,is_stmt,is
    2604 00000267 D0BC          MOVB      XAR0,#188             ; [CPU_] |1900| 
    2605 00000268 0658          MOVL      ACC,*-SP[24]          ; [CPU_] |1900| 
    2606 00000269 1E91          MOVL      *+XAR1[AR0],ACC       ; [CPU_] |1900| 
    2607                      .dwpsn  file "/home/wmj/Documents/motor/sw/modules/ctrl/src/32b/ctrl.h",line 1901,column 3,is_stmt,is
    2608 0000026a D0BE          MOVB      XAR0,#190             ; [CPU_] |1901| 
    2609 0000026b 0656          MOVL      ACC,*-SP[22]          ; [CPU_] |1901| 
    2610 0000026c 1E91          MOVL      *+XAR1[AR0],ACC       ; [CPU_] |1901| 
    2611                      .dwpsn  file "/home/wmj/Documents/motor/sw/modules/ctrl/src/32b/ctrl.h",line 1928,column 3,is_stmt,is
    2612 0000026d D0C0          MOVB      XAR0,#192             ; [CPU_] |1928| 
    2613 0000026e 065C          MOVL      ACC,*-SP[28]          ; [CPU_] |1928| 
TMS320C2000 Assembler Unix v15.12.3 Wed Jun 28 11:48:12 2017

Tools Copyright (c) 1996-2015 Texas Instruments Incorporated
/tmp/85684BZyCPu                                                     PAGE   50

    2614 0000026f 1E91          MOVL      *+XAR1[AR0],ACC       ; [CPU_] |1928| 
    2615                      .dwpsn  file "/home/wmj/Documents/motor/sw/modules/ctrl/src/32b/ctrl.h",line 1929,column 3,is_stmt,is
    2616 00000270 D0C2          MOVB      XAR0,#194             ; [CPU_] |1929| 
    2617 00000271 065A          MOVL      ACC,*-SP[26]          ; [CPU_] |1929| 
    2618 00000272 1E91          MOVL      *+XAR1[AR0],ACC       ; [CPU_] |1929| 
    2619                      .dwpsn  file "/home/wmj/Documents/motor/sw/modules/ctrl/src/32b/ctrl.h",line 1727,column 3,is_stmt,is
    2620 00000273 D0BA          MOVB      XAR0,#186             ; [CPU_] |1727| 
    2621 00000274 0200          MOVB      ACC,#0                ; [CPU_] |1727| 
    2622 00000275 1E91          MOVL      *+XAR1[AR0],ACC       ; [CPU_] |1727| 
    2623                      .dwpsn  file "/home/wmj/Documents/motor/sw/modules/ctrl/src/32b/ctrl.h",line 1675,column 3,is_stmt,is
    2624 00000276 D0C4          MOVB      XAR0,#196             ; [CPU_] |1675| 
    2625 00000277 9A00          MOV       AL,#0                 ; [CPU_] |1675| 
    2626 00000278 9B00          MOV       AH,#0                 ; [CPU_] |1675| 
    2627 00000279 1E91          MOVL      *+XAR1[AR0],ACC       ; [CPU_] |1675| 
    2628                      .dwpsn  file "/home/wmj/Documents/motor/sw/modules/ctrl/src/32b/ctrl.h",line 1527,column 3,is_stmt,is
    2629 0000027a D0C6          MOVB      XAR0,#198             ; [CPU_] |1527| 
    2630 0000027b 1E91          MOVL      *+XAR1[AR0],ACC       ; [CPU_] |1527| 
    2631                      .dwpsn  file "/home/wmj/Documents/motor/sw/modules/ctrl/src/32b/ctrl.h",line 1688,column 3,is_stmt,is
    2632 0000027c D0C8          MOVB      XAR0,#200             ; [CPU_] |1688| 
    2633 0000027d 1E91          MOVL      *+XAR1[AR0],ACC       ; [CPU_] |1688| 
    2634                      .dwpsn  file "/home/wmj/Documents/motor/sw/modules/ctrl/src/32b/ctrl.h",line 1075,column 3,is_stmt,is
    2635 0000027e D0EC          MOVB      XAR0,#236             ; [CPU_] |1075| 
    2636                      .dwpsn  file "/home/wmj/Documents/motor/sw/modules/ctrl/src/32b/ctrl.h",line 1111,column 3,is_stmt,is
    2637 0000027f 0200          MOVB      ACC,#0                ; [CPU_] |1111| 
    2638                      .dwpsn  file "/home/wmj/Documents/motor/sw/modules/ctrl/src/32b/ctrl.h",line 1075,column 3,is_stmt,is
    2639 00000280 2B91          MOV       *+XAR1[AR0],#0        ; [CPU_] |1075| 
    2640                      .dwpsn  file "/home/wmj/Documents/motor/sw/modules/ctrl/src/32b/ctrl.h",line 1087,column 3,is_stmt,is
    2641 00000281 D0ED          MOVB      XAR0,#237             ; [CPU_] |1087| 
    2642 00000282 56BF          MOVB      *+XAR1[AR0],#1,UNC    ; [CPU_] |1087| 
         00000283 0191 
    2643                      .dwpsn  file "/home/wmj/Documents/motor/sw/modules/ctrl/src/32b/ctrl.h",line 1099,column 3,is_stmt,is
    2644 00000284 D0EE          MOVB      XAR0,#238             ; [CPU_] |1099| 
    2645 00000285 2B91          MOV       *+XAR1[AR0],#0        ; [CPU_] |1099| 
    2646                      .dwpsn  file "/home/wmj/Documents/motor/sw/modules/ctrl/src/32b/ctrl.h",line 1111,column 3,is_stmt,is
    2647 00000286 D09A          MOVB      XAR0,#154             ; [CPU_] |1111| 
    2648 00000287 1E91          MOVL      *+XAR1[AR0],ACC       ; [CPU_] |1111| 
    2649                      .dwpsn  file "/home/wmj/Documents/motor/sw/modules/ctrl/src/32b/ctrl.h",line 1123,column 3,is_stmt,is
    2650 00000288 D0EF          MOVB      XAR0,#239             ; [CPU_] |1123| 
    2651 00000289 2B91          MOV       *+XAR1[AR0],#0        ; [CPU_] |1123| 
    2652 0000028a 836A          MOVL      XAR5,*-SP[42]         ; [CPU_] |1123| 
    2653                      .dwpsn  file "/home/wmj/Documents/motor/sw/modules/ctrl/src/32b/ctrl.c",line 358,column 3,is_stmt,isa
    2654 0000028b 8AA1          MOVL      XAR4,XAR1             ; [CPU_] |358| 
    2655 0000028c DD54          ADDB      XAR5,#84              ; [CPU_] |358| 
    2656              $C$DW$233       .dwtag  DW_TAG_TI_branch
    2657                      .dwattr $C$DW$233, DW_AT_low_pc(0x00)
    2658                      .dwattr $C$DW$233, DW_AT_name("_CTRL_setWaitTimes")
    2659                      .dwattr $C$DW$233, DW_AT_TI_call
    2660              
    2661 0000028d 7640'         LCR       #_CTRL_setWaitTimes   ; [CPU_] |358| 
         0000028e 0148 
    2662                      ; call occurs [#_CTRL_setWaitTimes] ; [] |358| 
    2663                      .dwpsn  file "/home/wmj/Documents/motor/sw/modules/ctrl/src/32b/ctrl.h",line 1262,column 3,is_stmt,is
    2664 0000028f D0F2          MOVB      XAR0,#242             ; [CPU_] |1262| 
    2665 00000290 2B91          MOV       *+XAR1[AR0],#0        ; [CPU_] |1262| 
    2666                      .dwpsn  file "/home/wmj/Documents/motor/sw/modules/ctrl/src/32b/ctrl.h",line 1231,column 3,is_stmt,is
TMS320C2000 Assembler Unix v15.12.3 Wed Jun 28 11:48:12 2017

Tools Copyright (c) 1996-2015 Texas Instruments Incorporated
/tmp/85684BZyCPu                                                     PAGE   51

    2667 00000291 B2A9          MOVL      ACC,XAR1              ; [CPU_] |1231| 
    2668                      .dwpsn  file "/home/wmj/Documents/motor/sw/modules/ctrl/src/32b/ctrl.h",line 1218,column 3,is_stmt,is
    2669 00000292 D0F0          MOVB      XAR0,#240             ; [CPU_] |1218| 
    2670 00000293 2B91          MOV       *+XAR1[AR0],#0        ; [CPU_] |1218| 
    2671                      .dwpsn  file "/home/wmj/Documents/motor/sw/modules/ctrl/src/32b/ctrl.h",line 1231,column 3,is_stmt,is
    2672 00000294 FF11          ADD       ACC,#131 << 1         ; [CPU_] |1231| 
         00000295 0083 
    2673                      .dwpsn  file "/home/wmj/Documents/motor/sw/modules/ctrl/src/32b/ctrl.h",line 1275,column 3,is_stmt,is
    2674 00000296 D0F3          MOVB      XAR0,#243             ; [CPU_] |1275| 
    2675 00000297 56BF          MOVB      *+XAR1[AR0],#1,UNC    ; [CPU_] |1275| 
         00000298 0191 
    2676                      .dwpsn  file "/home/wmj/Documents/motor/sw/modules/ctrl/src/32b/ctrl.h",line 1231,column 3,is_stmt,is
    2677 00000299 8AA9          MOVL      XAR4,ACC              ; [CPU_] |1231| 
    2678                      .dwpsn  file "/home/wmj/Documents/motor/sw/modules/ctrl/src/32b/ctrl.h",line 1288,column 3,is_stmt,is
    2679 0000029a D0F4          MOVB      XAR0,#244             ; [CPU_] |1288| 
    2680 0000029b 56BF          MOVB      *+XAR1[AR0],#1,UNC    ; [CPU_] |1288| 
         0000029c 0191 
    2681                      .dwpsn  file "/home/wmj/Documents/motor/sw/modules/ctrl/src/32b/ctrl.h",line 1304,column 3,is_stmt,is
    2682 0000029d D0F5          MOVB      XAR0,#245             ; [CPU_] |1304| 
    2683 0000029e 2B91          MOV       *+XAR1[AR0],#0        ; [CPU_] |1304| 
    2684                      .dwpsn  file "/home/wmj/Documents/motor/sw/modules/ctrl/src/32b/ctrl.h",line 1246,column 3,is_stmt,is
    2685 0000029f D0F1          MOVB      XAR0,#241             ; [CPU_] |1246| 
    2686 000002a0 56BF          MOVB      *+XAR1[AR0],#1,UNC    ; [CPU_] |1246| 
         000002a1 0191 
    2687                      .dwpsn  file "/home/wmj/Documents/motor/sw/modules/ctrl/src/32b/ctrl.h",line 1231,column 3,is_stmt,is
    2688 000002a2 56BF          MOVB      *+XAR4[0],#1,UNC      ; [CPU_] |1231| 
         000002a3 01C4 
    2689                      .dwpsn  file "/home/wmj/Documents/motor/sw/modules/ctrl/src/32b/ctrl.h",line 1193,column 3,is_stmt,is
    2690 000002a4 2BF1          MOV       *+XAR1[6],#0          ; [CPU_] |1193| 
    2691                      .dwpsn  file "/home/wmj/Documents/motor/sw/modules/ctrl/src/32b/ctrl.h",line 1778,column 3,is_stmt,is
    2692 000002a5 92E1          MOV       AL,*+XAR1[4]          ; [CPU_] |1778| 
    2693 000002a6 96E9          MOV       *+XAR1[5],AL          ; [CPU_] |1778| 
    2694                      .dwpsn  file "/home/wmj/Documents/motor/sw/modules/ctrl/src/32b/ctrl.h",line 1779,column 3,is_stmt,is
    2695 000002a7 56BF          MOVB      *+XAR1[4],#1,UNC      ; [CPU_] |1779| 
         000002a8 01E1 
    2696                      .dwpsn  file "/home/wmj/Documents/motor/sw/modules/ctrl/src/32b/ctrl.c",line 381,column 3,is_stmt,isa
    2697 000002a9 8A6A          MOVL      XAR4,*-SP[42]         ; [CPU_] |381| 
    2698 000002aa D00B          MOVB      XAR0,#11              ; [CPU_] |381| 
    2699 000002ab 9294          MOV       AL,*+XAR4[AR0]        ; [CPU_] |381| 
    2700 000002ac 8AA1          MOVL      XAR4,XAR1             ; [CPU_] |381| 
    2701              $C$DW$234       .dwtag  DW_TAG_TI_branch
    2702                      .dwattr $C$DW$234, DW_AT_low_pc(0x00)
    2703                      .dwattr $C$DW$234, DW_AT_name("_CTRL_setupClarke_I")
    2704                      .dwattr $C$DW$234, DW_AT_TI_call
    2705              
    2706 000002ad 7640'         LCR       #_CTRL_setupClarke_I  ; [CPU_] |381| 
         000002ae 012C 
    2707                      ; call occurs [#_CTRL_setupClarke_I] ; [] |381| 
    2708                      .dwpsn  file "/home/wmj/Documents/motor/sw/modules/ctrl/src/32b/ctrl.c",line 385,column 3,is_stmt,isa
    2709 000002af 8A6A          MOVL      XAR4,*-SP[42]         ; [CPU_] |385| 
    2710 000002b0 D00C          MOVB      XAR0,#12              ; [CPU_] |385| 
    2711 000002b1 9294          MOV       AL,*+XAR4[AR0]        ; [CPU_] |385| 
    2712 000002b2 8AA1          MOVL      XAR4,XAR1             ; [CPU_] |385| 
    2713              $C$DW$235       .dwtag  DW_TAG_TI_branch
    2714                      .dwattr $C$DW$235, DW_AT_low_pc(0x00)
TMS320C2000 Assembler Unix v15.12.3 Wed Jun 28 11:48:12 2017

Tools Copyright (c) 1996-2015 Texas Instruments Incorporated
/tmp/85684BZyCPu                                                     PAGE   52

    2715                      .dwattr $C$DW$235, DW_AT_name("_CTRL_setupClarke_V")
    2716                      .dwattr $C$DW$235, DW_AT_TI_call
    2717              
    2718 000002b3 7640'         LCR       #_CTRL_setupClarke_V  ; [CPU_] |385| 
         000002b4 0116 
    2719                      ; call occurs [#_CTRL_setupClarke_V] ; [] |385| 
    2720                      .dwpsn  file "/home/wmj/Documents/motor/sw/modules/ctrl/src/32b/ctrl.c",line 390,column 3,is_stmt,isa
    2721 000002b5 28A9          MOV       AL,#4719              ; [CPU_] |390| 
         000002b6 126F 
    2722 000002b7 8A6A          MOVL      XAR4,*-SP[42]         ; [CPU_] |390| 
    2723 000002b8 28A8          MOV       AH,#15235             ; [CPU_] |390| 
         000002b9 3B83 
    2724 000002ba D0A6          MOVB      XAR0,#166             ; [CPU_] |390| 
    2725 000002bb 1E42          MOVL      *-SP[2],ACC           ; [CPU_] |390| 
    2726 000002bc 0694          MOVL      ACC,*+XAR4[AR0]       ; [CPU_] |390| 
    2727              $C$DW$236       .dwtag  DW_TAG_TI_branch
    2728                      .dwattr $C$DW$236, DW_AT_low_pc(0x00)
    2729                      .dwattr $C$DW$236, DW_AT_name("FS$$DIV")
    2730                      .dwattr $C$DW$236, DW_AT_TI_call
    2731              
    2732 000002bd 7640!         LCR       #FS$$DIV              ; [CPU_] |390| 
         000002be 0000 
    2733                      ; call occurs [#FS$$DIV] ; [] |390| 
    2734 000002bf 5CAD          MOVZ      AR4,SP                ; [CPU_] |390| 
    2735 000002c0 DCA4          SUBB      XAR4,#36              ; [CPU_U] |390| 
    2736 000002c1 88A4          MOVZ      AR6,AR4               ; [CPU_] |390| 
    2737              $C$DW$237       .dwtag  DW_TAG_TI_branch
    2738                      .dwattr $C$DW$237, DW_AT_low_pc(0x00)
    2739                      .dwattr $C$DW$237, DW_AT_name("FS$$TOFD")
    2740                      .dwattr $C$DW$237, DW_AT_TI_call
    2741              
    2742 000002c2 7640!         LCR       #FS$$TOFD             ; [CPU_] |390| 
         000002c3 0000 
    2743                      ; call occurs [#FS$$TOFD] ; [] |390| 
    2744 000002c4 5DAD          MOVZ      AR5,SP                ; [CPU_] |390| 
    2745 000002c5 5CAD          MOVZ      AR4,SP                ; [CPU_] |390| 
    2746 000002c6 DDA0          SUBB      XAR5,#32              ; [CPU_U] |390| 
    2747 000002c7 DCA4          SUBB      XAR4,#36              ; [CPU_U] |390| 
    2748 000002c8 88A5          MOVZ      AR6,AR5               ; [CPU_] |390| 
    2749 000002c9 5CA4          MOVZ      AR4,AR4               ; [CPU_] |390| 
    2750 000002ca 8F40+         MOVL      XAR5,#$C$FL1          ; [CPU_U] |390| 
         000002cb 0000 
    2751              $C$DW$238       .dwtag  DW_TAG_TI_branch
    2752                      .dwattr $C$DW$238, DW_AT_low_pc(0x00)
    2753                      .dwattr $C$DW$238, DW_AT_name("FD$$MPY")
    2754                      .dwattr $C$DW$238, DW_AT_TI_call
    2755              
    2756 000002cc 7640!         LCR       #FD$$MPY              ; [CPU_] |390| 
         000002cd 0000 
    2757                      ; call occurs [#FD$$MPY] ; [] |390| 
    2758 000002ce 5CAD          MOVZ      AR4,SP                ; [CPU_] |390| 
    2759 000002cf DCA0          SUBB      XAR4,#32              ; [CPU_U] |390| 
    2760 000002d0 5CA4          MOVZ      AR4,AR4               ; [CPU_] |390| 
    2761              $C$DW$239       .dwtag  DW_TAG_TI_branch
    2762                      .dwattr $C$DW$239, DW_AT_low_pc(0x00)
TMS320C2000 Assembler Unix v15.12.3 Wed Jun 28 11:48:12 2017

Tools Copyright (c) 1996-2015 Texas Instruments Incorporated
/tmp/85684BZyCPu                                                     PAGE   53

    2763                      .dwattr $C$DW$239, DW_AT_name("FD$$TOL")
    2764                      .dwattr $C$DW$239, DW_AT_TI_call
    2765              
    2766 000002d1 7640!         LCR       #FD$$TOL              ; [CPU_] |390| 
         000002d2 0000 
    2767                      ; call occurs [#FD$$TOL] ; [] |390| 
    2768                      .dwpsn  file "/home/wmj/Documents/motor/sw/modules/pid/src/32b/pid.h",line 303,column 16,is_stmt,isa 
    2769 000002d3 D020          MOVB      XAR0,#32              ; [CPU_] |303| 
    2770 000002d4 8A91          MOVL      XAR4,*+XAR1[AR0]      ; [CPU_] |303| 
    2771                      .dwpsn  file "/home/wmj/Documents/motor/sw/modules/pid/src/32b/pid.h",line 305,column 3,is_stmt,isa 0
    2772 000002d5 8F59          MOVL      XAR5,#1677721         ; [CPU_U] |305| 
         000002d6 9999 
    2773                      .dwpsn  file "/home/wmj/Documents/motor/sw/modules/ctrl/src/32b/ctrl.c",line 390,column 3,is_stmt,isa
    2774 000002d7 1EA6          MOVL      XAR6,ACC              ; [CPU_] |390| 
    2775                      .dwpsn  file "/home/wmj/Documents/motor/sw/modules/pid/src/32b/pid.h",line 413,column 3,is_stmt,isa 0
    2776 000002d8 D020          MOVB      XAR0,#32              ; [CPU_] |413| 
    2777                      .dwpsn  file "/home/wmj/Documents/motor/sw/modules/pid/src/32b/pid.h",line 305,column 3,is_stmt,isa 0
    2778 000002d9 A0C4          MOVL      *+XAR4[0],XAR5        ; [CPU_] |305| 
    2779                      .dwpsn  file "/home/wmj/Documents/motor/sw/modules/pid/src/32b/pid.h",line 306,column 3,is_stmt,isa 0
    2780 000002da 1ED4          MOVL      *+XAR4[2],ACC         ; [CPU_] |306| 
    2781                      .dwpsn  file "/home/wmj/Documents/motor/sw/modules/pid/src/32b/pid.h",line 307,column 3,is_stmt,isa 0
    2782 000002db 0200          MOVB      ACC,#0                ; [CPU_] |307| 
    2783 000002dc 1EE4          MOVL      *+XAR4[4],ACC         ; [CPU_] |307| 
    2784                      .dwpsn  file "/home/wmj/Documents/motor/sw/modules/pid/src/32b/pid.h",line 413,column 3,is_stmt,isa 0
    2785 000002dd 8A91          MOVL      XAR4,*+XAR1[AR0]      ; [CPU_] |413| 
    2786                      .dwpsn  file "/home/wmj/Documents/motor/sw/modules/pid/src/32b/pid.h",line 358,column 16,is_stmt,isa 
    2787 000002de D020          MOVB      XAR0,#32              ; [CPU_] |358| 
    2788                      .dwpsn  file "/home/wmj/Documents/motor/sw/modules/pid/src/32b/pid.h",line 413,column 3,is_stmt,isa 0
    2789 000002df 1EF4          MOVL      *+XAR4[6],ACC         ; [CPU_] |413| 
    2790                      .dwpsn  file "/home/wmj/Documents/motor/sw/modules/pid/src/32b/pid.h",line 360,column 3,is_stmt,isa 0
    2791 000002e0 28A9          MOV       AL,#52429             ; [CPU_] |360| 
         000002e1 CCCD 
    2792                      .dwpsn  file "/home/wmj/Documents/motor/sw/modules/pid/src/32b/pid.h",line 358,column 16,is_stmt,isa 
    2793 000002e2 8A91          MOVL      XAR4,*+XAR1[AR0]      ; [CPU_] |358| 
    2794                      .dwpsn  file "/home/wmj/Documents/motor/sw/modules/pid/src/32b/pid.h",line 360,column 3,is_stmt,isa 0
    2795 000002e3 28A8          MOV       AH,#65292             ; [CPU_] |360| 
         000002e4 FF0C 
    2796                      .dwpsn  file "/home/wmj/Documents/motor/sw/modules/ctrl/src/32b/ctrl.c",line 398,column 3,is_stmt,isa
    2797 000002e5 D501          MOVB      XAR5,#1               ; [CPU_] |398| 
    2798                      .dwpsn  file "/home/wmj/Documents/motor/sw/modules/pid/src/32b/pid.h",line 360,column 3,is_stmt,isa 0
    2799 000002e6 D00C          MOVB      XAR0,#12              ; [CPU_] |360| 
    2800 000002e7 1E94          MOVL      *+XAR4[AR0],ACC       ; [CPU_] |360| 
    2801                      .dwpsn  file "/home/wmj/Documents/motor/sw/modules/pid/src/32b/pid.h",line 361,column 3,is_stmt,isa 0
    2802 000002e8 D00E          MOVB      XAR0,#14              ; [CPU_] |361| 
    2803 000002e9 28A9          MOV       AL,#13107             ; [CPU_] |361| 
         000002ea 3333 
    2804 000002eb 9BF3          MOV       AH,#243               ; [CPU_] |361| 
    2805 000002ec 1E94          MOVL      *+XAR4[AR0],ACC       ; [CPU_] |361| 
    2806                      .dwpsn  file "/home/wmj/Documents/motor/sw/modules/ctrl/src/32b/ctrl.c",line 398,column 3,is_stmt,isa
    2807 000002ed 0200          MOVB      ACC,#0                ; [CPU_] |398| 
    2808 000002ee 8AA1          MOVL      XAR4,XAR1             ; [CPU_] |398| 
    2809 000002ef C242          MOVL      *-SP[2],XAR6          ; [CPU_] |398| 
    2810 000002f0 7699          MOVL      XAR6,#1677721         ; [CPU_U] |398| 
         000002f1 9999 
    2811 000002f2 1E44          MOVL      *-SP[4],ACC           ; [CPU_] |398| 
TMS320C2000 Assembler Unix v15.12.3 Wed Jun 28 11:48:12 2017

Tools Copyright (c) 1996-2015 Texas Instruments Incorporated
/tmp/85684BZyCPu                                                     PAGE   54

    2812 000002f3 06A6          MOVL      ACC,XAR6              ; [CPU_] |398| 
    2813              $C$DW$240       .dwtag  DW_TAG_TI_branch
    2814                      .dwattr $C$DW$240, DW_AT_low_pc(0x00)
    2815                      .dwattr $C$DW$240, DW_AT_name("_CTRL_setGains")
    2816                      .dwattr $C$DW$240, DW_AT_TI_call
    2817              
    2818 000002f4 7640'         LCR       #_CTRL_setGains       ; [CPU_] |398| 
         000002f5 0167 
    2819                      ; call occurs [#_CTRL_setGains] ; [] |398| 
    2820                      .dwpsn  file "/home/wmj/Documents/motor/sw/modules/ctrl/src/32b/ctrl.c",line 403,column 3,is_stmt,isa
    2821 000002f6 28A9          MOV       AL,#4719              ; [CPU_] |403| 
         000002f7 126F 
    2822 000002f8 8A6A          MOVL      XAR4,*-SP[42]         ; [CPU_] |403| 
    2823 000002f9 28A8          MOV       AH,#15235             ; [CPU_] |403| 
         000002fa 3B83 
    2824 000002fb D0A6          MOVB      XAR0,#166             ; [CPU_] |403| 
    2825 000002fc 1E42          MOVL      *-SP[2],ACC           ; [CPU_] |403| 
    2826 000002fd 0694          MOVL      ACC,*+XAR4[AR0]       ; [CPU_] |403| 
    2827              $C$DW$241       .dwtag  DW_TAG_TI_branch
    2828                      .dwattr $C$DW$241, DW_AT_low_pc(0x00)
    2829                      .dwattr $C$DW$241, DW_AT_name("FS$$DIV")
    2830                      .dwattr $C$DW$241, DW_AT_TI_call
    2831              
    2832 000002fe 7640!         LCR       #FS$$DIV              ; [CPU_] |403| 
         000002ff 0000 
    2833                      ; call occurs [#FS$$DIV] ; [] |403| 
    2834 00000300 5CAD          MOVZ      AR4,SP                ; [CPU_] |403| 
    2835 00000301 DCA4          SUBB      XAR4,#36              ; [CPU_U] |403| 
    2836 00000302 88A4          MOVZ      AR6,AR4               ; [CPU_] |403| 
    2837              $C$DW$242       .dwtag  DW_TAG_TI_branch
    2838                      .dwattr $C$DW$242, DW_AT_low_pc(0x00)
    2839                      .dwattr $C$DW$242, DW_AT_name("FS$$TOFD")
    2840                      .dwattr $C$DW$242, DW_AT_TI_call
    2841              
    2842 00000303 7640!         LCR       #FS$$TOFD             ; [CPU_] |403| 
         00000304 0000 
    2843                      ; call occurs [#FS$$TOFD] ; [] |403| 
    2844 00000305 5DAD          MOVZ      AR5,SP                ; [CPU_] |403| 
    2845 00000306 5CAD          MOVZ      AR4,SP                ; [CPU_] |403| 
    2846 00000307 DDA0          SUBB      XAR5,#32              ; [CPU_U] |403| 
    2847 00000308 DCA4          SUBB      XAR4,#36              ; [CPU_U] |403| 
    2848 00000309 88A5          MOVZ      AR6,AR5               ; [CPU_] |403| 
    2849 0000030a 5CA4          MOVZ      AR4,AR4               ; [CPU_] |403| 
    2850 0000030b 8F40+         MOVL      XAR5,#$C$FL1          ; [CPU_U] |403| 
         0000030c 0000 
    2851              $C$DW$243       .dwtag  DW_TAG_TI_branch
    2852                      .dwattr $C$DW$243, DW_AT_low_pc(0x00)
    2853                      .dwattr $C$DW$243, DW_AT_name("FD$$MPY")
    2854                      .dwattr $C$DW$243, DW_AT_TI_call
    2855              
    2856 0000030d 7640!         LCR       #FD$$MPY              ; [CPU_] |403| 
         0000030e 0000 
    2857                      ; call occurs [#FD$$MPY] ; [] |403| 
    2858 0000030f 5CAD          MOVZ      AR4,SP                ; [CPU_] |403| 
    2859 00000310 DCA0          SUBB      XAR4,#32              ; [CPU_U] |403| 
TMS320C2000 Assembler Unix v15.12.3 Wed Jun 28 11:48:12 2017

Tools Copyright (c) 1996-2015 Texas Instruments Incorporated
/tmp/85684BZyCPu                                                     PAGE   55

    2860 00000311 5CA4          MOVZ      AR4,AR4               ; [CPU_] |403| 
    2861              $C$DW$244       .dwtag  DW_TAG_TI_branch
    2862                      .dwattr $C$DW$244, DW_AT_low_pc(0x00)
    2863                      .dwattr $C$DW$244, DW_AT_name("FD$$TOL")
    2864                      .dwattr $C$DW$244, DW_AT_TI_call
    2865              
    2866 00000312 7640!         LCR       #FD$$TOL              ; [CPU_] |403| 
         00000313 0000 
    2867                      ; call occurs [#FD$$TOL] ; [] |403| 
    2868                      .dwpsn  file "/home/wmj/Documents/motor/sw/modules/pid/src/32b/pid.h",line 303,column 16,is_stmt,isa 
    2869 00000314 D032          MOVB      XAR0,#50              ; [CPU_] |303| 
    2870 00000315 8A91          MOVL      XAR4,*+XAR1[AR0]      ; [CPU_] |303| 
    2871                      .dwpsn  file "/home/wmj/Documents/motor/sw/modules/pid/src/32b/pid.h",line 305,column 3,is_stmt,isa 0
    2872 00000316 8F59          MOVL      XAR5,#1677721         ; [CPU_U] |305| 
         00000317 9999 
    2873                      .dwpsn  file "/home/wmj/Documents/motor/sw/modules/ctrl/src/32b/ctrl.c",line 403,column 3,is_stmt,isa
    2874 00000318 1EA6          MOVL      XAR6,ACC              ; [CPU_] |403| 
    2875                      .dwpsn  file "/home/wmj/Documents/motor/sw/modules/pid/src/32b/pid.h",line 413,column 3,is_stmt,isa 0
    2876 00000319 D032          MOVB      XAR0,#50              ; [CPU_] |413| 
    2877                      .dwpsn  file "/home/wmj/Documents/motor/sw/modules/pid/src/32b/pid.h",line 305,column 3,is_stmt,isa 0
    2878 0000031a A0C4          MOVL      *+XAR4[0],XAR5        ; [CPU_] |305| 
    2879                      .dwpsn  file "/home/wmj/Documents/motor/sw/modules/pid/src/32b/pid.h",line 306,column 3,is_stmt,isa 0
    2880 0000031b 1ED4          MOVL      *+XAR4[2],ACC         ; [CPU_] |306| 
    2881                      .dwpsn  file "/home/wmj/Documents/motor/sw/modules/pid/src/32b/pid.h",line 307,column 3,is_stmt,isa 0
    2882 0000031c 0200          MOVB      ACC,#0                ; [CPU_] |307| 
    2883 0000031d 1EE4          MOVL      *+XAR4[4],ACC         ; [CPU_] |307| 
    2884                      .dwpsn  file "/home/wmj/Documents/motor/sw/modules/pid/src/32b/pid.h",line 413,column 3,is_stmt,isa 0
    2885 0000031e 8A91          MOVL      XAR4,*+XAR1[AR0]      ; [CPU_] |413| 
    2886                      .dwpsn  file "/home/wmj/Documents/motor/sw/modules/pid/src/32b/pid.h",line 358,column 16,is_stmt,isa 
    2887 0000031f D032          MOVB      XAR0,#50              ; [CPU_] |358| 
    2888                      .dwpsn  file "/home/wmj/Documents/motor/sw/modules/pid/src/32b/pid.h",line 413,column 3,is_stmt,isa 0
    2889 00000320 1EF4          MOVL      *+XAR4[6],ACC         ; [CPU_] |413| 
    2890                      .dwpsn  file "/home/wmj/Documents/motor/sw/modules/pid/src/32b/pid.h",line 360,column 3,is_stmt,isa 0
    2891 00000321 28A9          MOV       AL,#52429             ; [CPU_] |360| 
         00000322 CCCD 
    2892                      .dwpsn  file "/home/wmj/Documents/motor/sw/modules/pid/src/32b/pid.h",line 358,column 16,is_stmt,isa 
    2893 00000323 8A91          MOVL      XAR4,*+XAR1[AR0]      ; [CPU_] |358| 
    2894                      .dwpsn  file "/home/wmj/Documents/motor/sw/modules/pid/src/32b/pid.h",line 360,column 3,is_stmt,isa 0
    2895 00000324 28A8          MOV       AH,#65292             ; [CPU_] |360| 
         00000325 FF0C 
    2896                      .dwpsn  file "/home/wmj/Documents/motor/sw/modules/ctrl/src/32b/ctrl.c",line 411,column 3,is_stmt,isa
    2897 00000326 D502          MOVB      XAR5,#2               ; [CPU_] |411| 
    2898                      .dwpsn  file "/home/wmj/Documents/motor/sw/modules/pid/src/32b/pid.h",line 360,column 3,is_stmt,isa 0
    2899 00000327 D00C          MOVB      XAR0,#12              ; [CPU_] |360| 
    2900 00000328 1E94          MOVL      *+XAR4[AR0],ACC       ; [CPU_] |360| 
    2901                      .dwpsn  file "/home/wmj/Documents/motor/sw/modules/pid/src/32b/pid.h",line 361,column 3,is_stmt,isa 0
    2902 00000329 D00E          MOVB      XAR0,#14              ; [CPU_] |361| 
    2903 0000032a 28A9          MOV       AL,#13107             ; [CPU_] |361| 
         0000032b 3333 
    2904 0000032c 9BF3          MOV       AH,#243               ; [CPU_] |361| 
    2905 0000032d 1E94          MOVL      *+XAR4[AR0],ACC       ; [CPU_] |361| 
    2906                      .dwpsn  file "/home/wmj/Documents/motor/sw/modules/ctrl/src/32b/ctrl.c",line 411,column 3,is_stmt,isa
    2907 0000032e 0200          MOVB      ACC,#0                ; [CPU_] |411| 
    2908 0000032f 8AA1          MOVL      XAR4,XAR1             ; [CPU_] |411| 
    2909 00000330 C242          MOVL      *-SP[2],XAR6          ; [CPU_] |411| 
TMS320C2000 Assembler Unix v15.12.3 Wed Jun 28 11:48:12 2017

Tools Copyright (c) 1996-2015 Texas Instruments Incorporated
/tmp/85684BZyCPu                                                     PAGE   56

    2910 00000331 7699          MOVL      XAR6,#1677721         ; [CPU_U] |411| 
         00000332 9999 
    2911 00000333 1E44          MOVL      *-SP[4],ACC           ; [CPU_] |411| 
    2912 00000334 06A6          MOVL      ACC,XAR6              ; [CPU_] |411| 
    2913              $C$DW$245       .dwtag  DW_TAG_TI_branch
    2914                      .dwattr $C$DW$245, DW_AT_low_pc(0x00)
    2915                      .dwattr $C$DW$245, DW_AT_name("_CTRL_setGains")
    2916                      .dwattr $C$DW$245, DW_AT_TI_call
    2917              
    2918 00000335 7640'         LCR       #_CTRL_setGains       ; [CPU_] |411| 
         00000336 0167 
    2919                      ; call occurs [#_CTRL_setGains] ; [] |411| 
    2920 00000337 8A6A          MOVL      XAR4,*-SP[42]         ; [CPU_] |411| 
    2921                      .dwpsn  file "/home/wmj/Documents/motor/sw/modules/ctrl/src/32b/ctrl.c",line 415,column 3,is_stmt,isa
    2922 00000338 D040          MOVB      XAR0,#64              ; [CPU_] |415| 
    2923 00000339 06C4          MOVL      ACC,*+XAR4[0]         ; [CPU_] |415| 
    2924 0000033a 1E66          MOVL      *-SP[38],ACC          ; [CPU_] |415| 
    2925 0000033b 28A9          MOV       AL,#55050             ; [CPU_] |415| 
         0000033c D70A 
    2926 0000033d 8294          MOVL      XAR3,*+XAR4[AR0]      ; [CPU_] |415| 
    2927 0000033e 28A8          MOV       AH,#15523             ; [CPU_] |415| 
         0000033f 3CA3 
    2928 00000340 86E4          MOVL      XAR2,*+XAR4[4]        ; [CPU_] |415| 
    2929 00000341 1E42          MOVL      *-SP[2],ACC           ; [CPU_] |415| 
    2930 00000342 A2A9          MOVL      ACC,XAR3              ; [CPU_] |415| 
    2931              $C$DW$246       .dwtag  DW_TAG_TI_branch
    2932                      .dwattr $C$DW$246, DW_AT_low_pc(0x00)
    2933                      .dwattr $C$DW$246, DW_AT_name("FS$$MPY")
    2934                      .dwattr $C$DW$246, DW_AT_TI_call
    2935              
    2936 00000343 7640!         LCR       #FS$$MPY              ; [CPU_] |415| 
         00000344 0000 
    2937                      ; call occurs [#FS$$MPY] ; [] |415| 
    2938 00000345 AA42          MOVL      *-SP[2],XAR2          ; [CPU_] |415| 
    2939              $C$DW$247       .dwtag  DW_TAG_TI_branch
    2940                      .dwattr $C$DW$247, DW_AT_low_pc(0x00)
    2941                      .dwattr $C$DW$247, DW_AT_name("FS$$MPY")
    2942                      .dwattr $C$DW$247, DW_AT_TI_call
    2943              
    2944 00000346 7640!         LCR       #FS$$MPY              ; [CPU_] |415| 
         00000347 0000 
    2945                      ; call occurs [#FS$$MPY] ; [] |415| 
    2946 00000348 C466          MOVL      XAR6,*-SP[38]         ; [CPU_] |415| 
    2947 00000349 C242          MOVL      *-SP[2],XAR6          ; [CPU_] |415| 
    2948              $C$DW$248       .dwtag  DW_TAG_TI_branch
    2949                      .dwattr $C$DW$248, DW_AT_low_pc(0x00)
    2950                      .dwattr $C$DW$248, DW_AT_name("FS$$DIV")
    2951                      .dwattr $C$DW$248, DW_AT_TI_call
    2952              
    2953 0000034a 7640!         LCR       #FS$$DIV              ; [CPU_] |415| 
         0000034b 0000 
    2954                      ; call occurs [#FS$$DIV] ; [] |415| 
    2955 0000034c 5CAD          MOVZ      AR4,SP                ; [CPU_] |415| 
    2956 0000034d DCA4          SUBB      XAR4,#36              ; [CPU_U] |415| 
    2957 0000034e 88A4          MOVZ      AR6,AR4               ; [CPU_] |415| 
TMS320C2000 Assembler Unix v15.12.3 Wed Jun 28 11:48:12 2017

Tools Copyright (c) 1996-2015 Texas Instruments Incorporated
/tmp/85684BZyCPu                                                     PAGE   57

    2958              $C$DW$249       .dwtag  DW_TAG_TI_branch
    2959                      .dwattr $C$DW$249, DW_AT_low_pc(0x00)
    2960                      .dwattr $C$DW$249, DW_AT_name("FS$$TOFD")
    2961                      .dwattr $C$DW$249, DW_AT_TI_call
    2962              
    2963 0000034f 7640!         LCR       #FS$$TOFD             ; [CPU_] |415| 
         00000350 0000 
    2964                      ; call occurs [#FS$$TOFD] ; [] |415| 
    2965 00000351 5DAD          MOVZ      AR5,SP                ; [CPU_] |415| 
    2966 00000352 5CAD          MOVZ      AR4,SP                ; [CPU_] |415| 
    2967 00000353 DDA0          SUBB      XAR5,#32              ; [CPU_U] |415| 
    2968 00000354 DCA4          SUBB      XAR4,#36              ; [CPU_U] |415| 
    2969 00000355 88A5          MOVZ      AR6,AR5               ; [CPU_] |415| 
    2970 00000356 5CA4          MOVZ      AR4,AR4               ; [CPU_] |415| 
    2971 00000357 8F40+         MOVL      XAR5,#$C$FL1          ; [CPU_U] |415| 
         00000358 0000 
    2972              $C$DW$250       .dwtag  DW_TAG_TI_branch
    2973                      .dwattr $C$DW$250, DW_AT_low_pc(0x00)
    2974                      .dwattr $C$DW$250, DW_AT_name("FD$$MPY")
    2975                      .dwattr $C$DW$250, DW_AT_TI_call
    2976              
    2977 00000359 7640!         LCR       #FD$$MPY              ; [CPU_] |415| 
         0000035a 0000 
    2978                      ; call occurs [#FD$$MPY] ; [] |415| 
    2979 0000035b 5CAD          MOVZ      AR4,SP                ; [CPU_] |415| 
    2980 0000035c DCA0          SUBB      XAR4,#32              ; [CPU_U] |415| 
    2981 0000035d 5CA4          MOVZ      AR4,AR4               ; [CPU_] |415| 
    2982              $C$DW$251       .dwtag  DW_TAG_TI_branch
    2983                      .dwattr $C$DW$251, DW_AT_low_pc(0x00)
    2984                      .dwattr $C$DW$251, DW_AT_name("FD$$TOL")
    2985                      .dwattr $C$DW$251, DW_AT_TI_call
    2986              
    2987 0000035e 7640!         LCR       #FD$$TOL              ; [CPU_] |415| 
         0000035f 0000 
    2988                      ; call occurs [#FD$$TOL] ; [] |415| 
    2989 00000360 1E68          MOVL      *-SP[40],ACC          ; [CPU_] |415| 
    2990                      .dwpsn  file "/home/wmj/Documents/motor/sw/modules/ctrl/src/32b/ctrl.c",line 416,column 3,is_stmt,isa
    2991 00000361 A242          MOVL      *-SP[2],XAR3          ; [CPU_] |416| 
    2992 00000362 A2A9          MOVL      ACC,XAR3              ; [CPU_] |416| 
    2993              $C$DW$252       .dwtag  DW_TAG_TI_branch
    2994                      .dwattr $C$DW$252, DW_AT_low_pc(0x00)
    2995                      .dwattr $C$DW$252, DW_AT_name("FS$$ADD")
    2996                      .dwattr $C$DW$252, DW_AT_TI_call
    2997              
    2998 00000363 7640!         LCR       #FS$$ADD              ; [CPU_] |416| 
         00000364 0000 
    2999                      ; call occurs [#FS$$ADD] ; [] |416| 
    3000 00000365 AA42          MOVL      *-SP[2],XAR2          ; [CPU_] |416| 
    3001              $C$DW$253       .dwtag  DW_TAG_TI_branch
    3002                      .dwattr $C$DW$253, DW_AT_low_pc(0x00)
    3003                      .dwattr $C$DW$253, DW_AT_name("FS$$MPY")
    3004                      .dwattr $C$DW$253, DW_AT_TI_call
    3005              
    3006 00000366 7640!         LCR       #FS$$MPY              ; [CPU_] |416| 
         00000367 0000 
TMS320C2000 Assembler Unix v15.12.3 Wed Jun 28 11:48:12 2017

Tools Copyright (c) 1996-2015 Texas Instruments Incorporated
/tmp/85684BZyCPu                                                     PAGE   58

    3007                      ; call occurs [#FS$$MPY] ; [] |416| 
    3008 00000368 8A6A          MOVL      XAR4,*-SP[42]         ; [CPU_] |416| 
    3009 00000369 D0A6          MOVB      XAR0,#166             ; [CPU_] |416| 
    3010 0000036a C494          MOVL      XAR6,*+XAR4[AR0]      ; [CPU_] |416| 
    3011 0000036b C242          MOVL      *-SP[2],XAR6          ; [CPU_] |416| 
    3012              $C$DW$254       .dwtag  DW_TAG_TI_branch
    3013                      .dwattr $C$DW$254, DW_AT_low_pc(0x00)
    3014                      .dwattr $C$DW$254, DW_AT_name("FS$$MPY")
    3015                      .dwattr $C$DW$254, DW_AT_TI_call
    3016              
    3017 0000036c 7640!         LCR       #FS$$MPY              ; [CPU_] |416| 
         0000036d 0000 
    3018                      ; call occurs [#FS$$MPY] ; [] |416| 
    3019 0000036e C466          MOVL      XAR6,*-SP[38]         ; [CPU_] |416| 
    3020 0000036f C242          MOVL      *-SP[2],XAR6          ; [CPU_] |416| 
    3021              $C$DW$255       .dwtag  DW_TAG_TI_branch
    3022                      .dwattr $C$DW$255, DW_AT_low_pc(0x00)
    3023                      .dwattr $C$DW$255, DW_AT_name("FS$$DIV")
    3024                      .dwattr $C$DW$255, DW_AT_TI_call
    3025              
    3026 00000370 7640!         LCR       #FS$$DIV              ; [CPU_] |416| 
         00000371 0000 
    3027                      ; call occurs [#FS$$DIV] ; [] |416| 
    3028 00000372 5CAD          MOVZ      AR4,SP                ; [CPU_] |416| 
    3029 00000373 DCA4          SUBB      XAR4,#36              ; [CPU_U] |416| 
    3030 00000374 88A4          MOVZ      AR6,AR4               ; [CPU_] |416| 
    3031              $C$DW$256       .dwtag  DW_TAG_TI_branch
    3032                      .dwattr $C$DW$256, DW_AT_low_pc(0x00)
    3033                      .dwattr $C$DW$256, DW_AT_name("FS$$TOFD")
    3034                      .dwattr $C$DW$256, DW_AT_TI_call
    3035              
    3036 00000375 7640!         LCR       #FS$$TOFD             ; [CPU_] |416| 
         00000376 0000 
    3037                      ; call occurs [#FS$$TOFD] ; [] |416| 
    3038 00000377 5DAD          MOVZ      AR5,SP                ; [CPU_] |416| 
    3039 00000378 5CAD          MOVZ      AR4,SP                ; [CPU_] |416| 
    3040 00000379 DDA0          SUBB      XAR5,#32              ; [CPU_U] |416| 
    3041 0000037a DCA4          SUBB      XAR4,#36              ; [CPU_U] |416| 
    3042 0000037b 88A5          MOVZ      AR6,AR5               ; [CPU_] |416| 
    3043 0000037c 5CA4          MOVZ      AR4,AR4               ; [CPU_] |416| 
    3044 0000037d 8F40+         MOVL      XAR5,#$C$FL1          ; [CPU_U] |416| 
         0000037e 0000 
    3045              $C$DW$257       .dwtag  DW_TAG_TI_branch
    3046                      .dwattr $C$DW$257, DW_AT_low_pc(0x00)
    3047                      .dwattr $C$DW$257, DW_AT_name("FD$$MPY")
    3048                      .dwattr $C$DW$257, DW_AT_TI_call
    3049              
    3050 0000037f 7640!         LCR       #FD$$MPY              ; [CPU_] |416| 
         00000380 0000 
    3051                      ; call occurs [#FD$$MPY] ; [] |416| 
    3052 00000381 5CAD          MOVZ      AR4,SP                ; [CPU_] |416| 
    3053 00000382 DCA0          SUBB      XAR4,#32              ; [CPU_U] |416| 
    3054 00000383 5CA4          MOVZ      AR4,AR4               ; [CPU_] |416| 
    3055              $C$DW$258       .dwtag  DW_TAG_TI_branch
    3056                      .dwattr $C$DW$258, DW_AT_low_pc(0x00)
TMS320C2000 Assembler Unix v15.12.3 Wed Jun 28 11:48:12 2017

Tools Copyright (c) 1996-2015 Texas Instruments Incorporated
/tmp/85684BZyCPu                                                     PAGE   59

    3057                      .dwattr $C$DW$258, DW_AT_name("FD$$TOL")
    3058                      .dwattr $C$DW$258, DW_AT_TI_call
    3059              
    3060 00000384 7640!         LCR       #FD$$TOL              ; [CPU_] |416| 
         00000385 0000 
    3061                      ; call occurs [#FD$$TOL] ; [] |416| 
    3062                      .dwpsn  file "/home/wmj/Documents/motor/sw/modules/pid/src/32b/pid.h",line 303,column 16,is_stmt,isa 
    3063 00000386 D044          MOVB      XAR0,#68              ; [CPU_] |303| 
    3064 00000387 8A91          MOVL      XAR4,*+XAR1[AR0]      ; [CPU_] |303| 
    3065                      .dwpsn  file "/home/wmj/Documents/motor/sw/modules/ctrl/src/32b/ctrl.c",line 416,column 3,is_stmt,isa
    3066 00000388 1EA6          MOVL      XAR6,ACC              ; [CPU_] |416| 
    3067                      .dwpsn  file "/home/wmj/Documents/motor/sw/modules/pid/src/32b/pid.h",line 303,column 16,is_stmt,isa 
    3068 00000389 0668          MOVL      ACC,*-SP[40]          ; [CPU_] |303| 
    3069                      .dwpsn  file "/home/wmj/Documents/motor/sw/modules/pid/src/32b/pid.h",line 413,column 3,is_stmt,isa 0
    3070 0000038a D044          MOVB      XAR0,#68              ; [CPU_] |413| 
    3071                      .dwpsn  file "/home/wmj/Documents/motor/sw/modules/pid/src/32b/pid.h",line 305,column 3,is_stmt,isa 0
    3072 0000038b 1EC4          MOVL      *+XAR4[0],ACC         ; [CPU_] |305| 
    3073                      .dwpsn  file "/home/wmj/Documents/motor/sw/modules/pid/src/32b/pid.h",line 307,column 3,is_stmt,isa 0
    3074 0000038c 0200          MOVB      ACC,#0                ; [CPU_] |307| 
    3075                      .dwpsn  file "/home/wmj/Documents/motor/sw/modules/pid/src/32b/pid.h",line 306,column 3,is_stmt,isa 0
    3076 0000038d C2D4          MOVL      *+XAR4[2],XAR6        ; [CPU_] |306| 
    3077                      .dwpsn  file "/home/wmj/Documents/motor/sw/modules/pid/src/32b/pid.h",line 307,column 3,is_stmt,isa 0
    3078 0000038e 1EE4          MOVL      *+XAR4[4],ACC         ; [CPU_] |307| 
    3079                      .dwpsn  file "/home/wmj/Documents/motor/sw/modules/pid/src/32b/pid.h",line 413,column 3,is_stmt,isa 0
    3080 0000038f 8A91          MOVL      XAR4,*+XAR1[AR0]      ; [CPU_] |413| 
    3081 00000390 3B01          SETC      SXM                   ; [CPU_] 
    3082                      .dwpsn  file "/home/wmj/Documents/motor/sw/modules/pid/src/32b/pid.h",line 358,column 16,is_stmt,isa 
    3083 00000391 D044          MOVB      XAR0,#68              ; [CPU_] |358| 
    3084                      .dwpsn  file "/home/wmj/Documents/motor/sw/modules/pid/src/32b/pid.h",line 413,column 3,is_stmt,isa 0
    3085 00000392 1EF4          MOVL      *+XAR4[6],ACC         ; [CPU_] |413| 
    3086                      .dwpsn  file "/home/wmj/Documents/motor/sw/modules/pid/src/32b/pid.h",line 358,column 16,is_stmt,isa 
    3087 00000393 8A91          MOVL      XAR4,*+XAR1[AR0]      ; [CPU_] |358| 
    3088                      .dwpsn  file "/home/wmj/Documents/motor/sw/modules/pid/src/32b/pid.h",line 360,column 3,is_stmt,isa 0
    3089 00000394 FF2F          MOV       ACC,#-512 << 15       ; [CPU_] |360| 
         00000395 FE00 
    3090                      .dwpsn  file "/home/wmj/Documents/motor/sw/modules/ctrl/src/32b/ctrl.c",line 424,column 3,is_stmt,isa
    3091 00000396 D500          MOVB      XAR5,#0               ; [CPU_] |424| 
    3092                      .dwpsn  file "/home/wmj/Documents/motor/sw/modules/pid/src/32b/pid.h",line 360,column 3,is_stmt,isa 0
    3093 00000397 D00C          MOVB      XAR0,#12              ; [CPU_] |360| 
    3094 00000398 1E94          MOVL      *+XAR4[AR0],ACC       ; [CPU_] |360| 
    3095                      .dwpsn  file "/home/wmj/Documents/motor/sw/modules/pid/src/32b/pid.h",line 361,column 3,is_stmt,isa 0
    3096 00000399 D00E          MOVB      XAR0,#14              ; [CPU_] |361| 
    3097 0000039a FF2F          MOV       ACC,#512 << 15        ; [CPU_] |361| 
         0000039b 0200 
    3098 0000039c 1E94          MOVL      *+XAR4[AR0],ACC       ; [CPU_] |361| 
    3099                      .dwpsn  file "/home/wmj/Documents/motor/sw/modules/ctrl/src/32b/ctrl.c",line 424,column 3,is_stmt,isa
    3100 0000039d 0200          MOVB      ACC,#0                ; [CPU_] |424| 
    3101 0000039e 8AA1          MOVL      XAR4,XAR1             ; [CPU_] |424| 
    3102 0000039f C242          MOVL      *-SP[2],XAR6          ; [CPU_] |424| 
    3103 000003a0 1E44          MOVL      *-SP[4],ACC           ; [CPU_] |424| 
    3104 000003a1 0668          MOVL      ACC,*-SP[40]          ; [CPU_] |424| 
    3105              $C$DW$259       .dwtag  DW_TAG_TI_branch
    3106                      .dwattr $C$DW$259, DW_AT_low_pc(0x00)
    3107                      .dwattr $C$DW$259, DW_AT_name("_CTRL_setGains")
    3108                      .dwattr $C$DW$259, DW_AT_TI_call
TMS320C2000 Assembler Unix v15.12.3 Wed Jun 28 11:48:12 2017

Tools Copyright (c) 1996-2015 Texas Instruments Incorporated
/tmp/85684BZyCPu                                                     PAGE   60

    3109              
    3110 000003a2 7640'         LCR       #_CTRL_setGains       ; [CPU_] |424| 
         000003a3 0167 
    3111                      ; call occurs [#_CTRL_setGains] ; [] |424| 
    3112                      .dwpsn  file "/home/wmj/Documents/motor/sw/modules/ctrl/src/32b/ctrl.c",line 428,column 3,is_stmt,isa
    3113 000003a4 0200          MOVB      ACC,#0                ; [CPU_] |428| 
    3114              $C$DW$260       .dwtag  DW_TAG_TI_branch
    3115                      .dwattr $C$DW$260, DW_AT_low_pc(0x00)
    3116                      .dwattr $C$DW$260, DW_AT_name("_CTRL_setSpd_ref_pu")
    3117                      .dwattr $C$DW$260, DW_AT_TI_call
    3118              
    3119 000003a5 7640'         LCR       #_CTRL_setSpd_ref_pu  ; [CPU_] |428| 
         000003a6 0151 
    3120                      ; call occurs [#_CTRL_setSpd_ref_pu] ; [] |428| 
    3121                      .dwpsn  file "/home/wmj/Documents/motor/sw/modules/traj/src/32b/traj.h",line 158,column 3,is_stmt,isa
    3122 000003a7 D060          MOVB      XAR0,#96              ; [CPU_] |158| 
    3123 000003a8 8A91          MOVL      XAR4,*+XAR1[AR0]      ; [CPU_] |158| 
    3124                      .dwpsn  file "/home/wmj/Documents/motor/sw/modules/traj/src/32b/traj.h",line 210,column 3,is_stmt,isa
    3125 000003a9 D060          MOVB      XAR0,#96              ; [CPU_] |210| 
    3126                      .dwpsn  file "/home/wmj/Documents/motor/sw/modules/traj/src/32b/traj.h",line 158,column 3,is_stmt,isa
    3127 000003aa 1ED4          MOVL      *+XAR4[2],ACC         ; [CPU_] |158| 
    3128                      .dwpsn  file "/home/wmj/Documents/motor/sw/modules/traj/src/32b/traj.h",line 210,column 3,is_stmt,isa
    3129 000003ab 8A91          MOVL      XAR4,*+XAR1[AR0]      ; [CPU_] |210| 
    3130                      .dwpsn  file "/home/wmj/Documents/motor/sw/modules/traj/src/32b/traj.h",line 197,column 3,is_stmt,isa
    3131 000003ac D060          MOVB      XAR0,#96              ; [CPU_] |197| 
    3132                      .dwpsn  file "/home/wmj/Documents/motor/sw/modules/traj/src/32b/traj.h",line 210,column 3,is_stmt,isa
    3133 000003ad 1EC4          MOVL      *+XAR4[0],ACC         ; [CPU_] |210| 
    3134                      .dwpsn  file "/home/wmj/Documents/motor/sw/modules/traj/src/32b/traj.h",line 197,column 3,is_stmt,isa
    3135 000003ae 8A91          MOVL      XAR4,*+XAR1[AR0]      ; [CPU_] |197| 
    3136                      .dwpsn  file "/home/wmj/Documents/motor/sw/modules/traj/src/32b/traj.h",line 184,column 3,is_stmt,isa
    3137 000003af D060          MOVB      XAR0,#96              ; [CPU_] |184| 
    3138                      .dwpsn  file "/home/wmj/Documents/motor/sw/modules/traj/src/32b/traj.h",line 197,column 3,is_stmt,isa
    3139 000003b0 1EE4          MOVL      *+XAR4[4],ACC         ; [CPU_] |197| 
    3140                      .dwpsn  file "/home/wmj/Documents/motor/sw/modules/traj/src/32b/traj.h",line 184,column 3,is_stmt,isa
    3141 000003b1 8A91          MOVL      XAR4,*+XAR1[AR0]      ; [CPU_] |184| 
    3142                      .dwpsn  file "/home/wmj/Documents/motor/sw/modules/traj/src/32b/traj.h",line 171,column 3,is_stmt,isa
    3143 000003b2 BE00          MOVB      XAR6,#0               ; [CPU_] |171| 
    3144 000003b3 D060          MOVB      XAR0,#96              ; [CPU_] |171| 
    3145                      .dwpsn  file "/home/wmj/Documents/motor/sw/modules/traj/src/32b/traj.h",line 184,column 3,is_stmt,isa
    3146 000003b4 1EF4          MOVL      *+XAR4[6],ACC         ; [CPU_] |184| 
    3147                      .dwpsn  file "/home/wmj/Documents/motor/sw/modules/traj/src/32b/traj.h",line 171,column 3,is_stmt,isa
    3148 000003b5 0208          MOVB      ACC,#8                ; [CPU_] |171| 
    3149 000003b6 0791          ADDL      ACC,*+XAR1[AR0]       ; [CPU_] |171| 
    3150 000003b7 8AA9          MOVL      XAR4,ACC              ; [CPU_] |171| 
    3151                      .dwpsn  file "/home/wmj/Documents/motor/sw/modules/traj/src/32b/traj.h",line 158,column 3,is_stmt,isa
    3152 000003b8 D06C          MOVB      XAR0,#108             ; [CPU_] |158| 
    3153                      .dwpsn  file "/home/wmj/Documents/motor/sw/modules/traj/src/32b/traj.h",line 171,column 3,is_stmt,isa
    3154 000003b9 C2C4          MOVL      *+XAR4[0],XAR6        ; [CPU_] |171| 
    3155                      .dwpsn  file "/home/wmj/Documents/motor/sw/modules/traj/src/32b/traj.h",line 158,column 3,is_stmt,isa
    3156 000003ba 8A91          MOVL      XAR4,*+XAR1[AR0]      ; [CPU_] |158| 
    3157 000003bb 0200          MOVB      ACC,#0                ; [CPU_] |158| 
    3158                      .dwpsn  file "/home/wmj/Documents/motor/sw/modules/traj/src/32b/traj.h",line 210,column 3,is_stmt,isa
    3159 000003bc D06C          MOVB      XAR0,#108             ; [CPU_] |210| 
    3160                      .dwpsn  file "/home/wmj/Documents/motor/sw/modules/traj/src/32b/traj.h",line 158,column 3,is_stmt,isa
    3161 000003bd 1ED4          MOVL      *+XAR4[2],ACC         ; [CPU_] |158| 
TMS320C2000 Assembler Unix v15.12.3 Wed Jun 28 11:48:12 2017

Tools Copyright (c) 1996-2015 Texas Instruments Incorporated
/tmp/85684BZyCPu                                                     PAGE   61

    3162                      .dwpsn  file "/home/wmj/Documents/motor/sw/modules/traj/src/32b/traj.h",line 210,column 3,is_stmt,isa
    3163 000003be 8A91          MOVL      XAR4,*+XAR1[AR0]      ; [CPU_] |210| 
    3164                      .dwpsn  file "/home/wmj/Documents/motor/sw/modules/traj/src/32b/traj.h",line 197,column 3,is_stmt,isa
    3165 000003bf D06C          MOVB      XAR0,#108             ; [CPU_] |197| 
    3166                      .dwpsn  file "/home/wmj/Documents/motor/sw/modules/traj/src/32b/traj.h",line 210,column 3,is_stmt,isa
    3167 000003c0 1EC4          MOVL      *+XAR4[0],ACC         ; [CPU_] |210| 
    3168                      .dwpsn  file "/home/wmj/Documents/motor/sw/modules/traj/src/32b/traj.h",line 197,column 3,is_stmt,isa
    3169 000003c1 8A91          MOVL      XAR4,*+XAR1[AR0]      ; [CPU_] |197| 
    3170                      .dwpsn  file "/home/wmj/Documents/motor/sw/modules/traj/src/32b/traj.h",line 184,column 3,is_stmt,isa
    3171 000003c2 D06C          MOVB      XAR0,#108             ; [CPU_] |184| 
    3172                      .dwpsn  file "/home/wmj/Documents/motor/sw/modules/traj/src/32b/traj.h",line 197,column 3,is_stmt,isa
    3173 000003c3 1EE4          MOVL      *+XAR4[4],ACC         ; [CPU_] |197| 
    3174                      .dwpsn  file "/home/wmj/Documents/motor/sw/modules/traj/src/32b/traj.h",line 184,column 3,is_stmt,isa
    3175 000003c4 8A91          MOVL      XAR4,*+XAR1[AR0]      ; [CPU_] |184| 
    3176                      .dwpsn  file "/home/wmj/Documents/motor/sw/modules/traj/src/32b/traj.h",line 171,column 3,is_stmt,isa
    3177 000003c5 D06C          MOVB      XAR0,#108             ; [CPU_] |171| 
    3178                      .dwpsn  file "/home/wmj/Documents/motor/sw/modules/traj/src/32b/traj.h",line 184,column 3,is_stmt,isa
    3179 000003c6 1EF4          MOVL      *+XAR4[6],ACC         ; [CPU_] |184| 
    3180                      .dwpsn  file "/home/wmj/Documents/motor/sw/modules/traj/src/32b/traj.h",line 171,column 3,is_stmt,isa
    3181 000003c7 0208          MOVB      ACC,#8                ; [CPU_] |171| 
    3182 000003c8 0791          ADDL      ACC,*+XAR1[AR0]       ; [CPU_] |171| 
    3183 000003c9 8AA9          MOVL      XAR4,ACC              ; [CPU_] |171| 
    3184                      .dwpsn  file "/home/wmj/Documents/motor/sw/modules/traj/src/32b/traj.h",line 158,column 3,is_stmt,isa
    3185 000003ca D078          MOVB      XAR0,#120             ; [CPU_] |158| 
    3186                      .dwpsn  file "/home/wmj/Documents/motor/sw/modules/traj/src/32b/traj.h",line 171,column 3,is_stmt,isa
    3187 000003cb C2C4          MOVL      *+XAR4[0],XAR6        ; [CPU_] |171| 
    3188                      .dwpsn  file "/home/wmj/Documents/motor/sw/modules/traj/src/32b/traj.h",line 158,column 3,is_stmt,isa
    3189 000003cc 8A91          MOVL      XAR4,*+XAR1[AR0]      ; [CPU_] |158| 
    3190 000003cd 0200          MOVB      ACC,#0                ; [CPU_] |158| 
    3191                      .dwpsn  file "/home/wmj/Documents/motor/sw/modules/traj/src/32b/traj.h",line 210,column 3,is_stmt,isa
    3192 000003ce D078          MOVB      XAR0,#120             ; [CPU_] |210| 
    3193                      .dwpsn  file "/home/wmj/Documents/motor/sw/modules/traj/src/32b/traj.h",line 158,column 3,is_stmt,isa
    3194 000003cf 1ED4          MOVL      *+XAR4[2],ACC         ; [CPU_] |158| 
