TMS320C2000 Assembler PC v6.2.5 Mon Jul 10 09:53:36 2017

Tools Copyright (c) 1996-2014 Texas Instruments Incorporated
C:\Users\wmj\AppData\Local\Temp\0622010                              PAGE    1

       1              ;***************************************************************
       2              ;* TMS320C2000 C/C++ Codegen                         PC v6.2.5 *
       3              ;* Date/Time created: Mon Jul 10 09:53:35 2017                 *
       4              ;***************************************************************
       5                      .compiler_opts --float_support=softlib --hll_source=on --mem_model:code=flat --mem_model:data=large -
       6        0002  FP      .set    XAR2
       7              
       8              $C$DW$CU        .dwtag  DW_TAG_compile_unit
       9                      .dwattr $C$DW$CU, DW_AT_name("D:/Foc/my_motor/sw/drivers/adc/src/32b/f28x/f2802x/adc.c")
      10                      .dwattr $C$DW$CU, DW_AT_producer("TMS320C2000 C/C++ Codegen PC v6.2.5 Copyright (c) 1996-2014 Texas I
      11                      .dwattr $C$DW$CU, DW_AT_TI_version(0x01)
      12                      .dwattr $C$DW$CU, DW_AT_comp_dir("D:\Foc\my_motor\sw\solutions\instaspin_foc\boards\hvkit_rev1p1\f28x
      13              ;       c:\ti\ccsv6\tools\compiler\c2000_6.2.5\bin\opt2000.exe C:\\Users\\wmj\\AppData\\Local\\Temp\\062202 C
      14              ;       c:\ti\ccsv6\tools\compiler\c2000_6.2.5\bin\ac2000.exe -@C:\\Users\\wmj\\AppData\\Local\\Temp\\0622016
      15 00000000               .sect   ".text"
      16                      .clink
      17                      .global _ADC_setupSocTrigSrc
      18              
      19              $C$DW$1 .dwtag  DW_TAG_subprogram, DW_AT_name("ADC_setupSocTrigSrc")
      20                      .dwattr $C$DW$1, DW_AT_low_pc(_ADC_setupSocTrigSrc)
      21                      .dwattr $C$DW$1, DW_AT_high_pc(0x00)
      22                      .dwattr $C$DW$1, DW_AT_TI_symbol_name("_ADC_setupSocTrigSrc")
      23                      .dwattr $C$DW$1, DW_AT_external
      24                      .dwattr $C$DW$1, DW_AT_TI_begin_file("D:/Foc/my_motor/sw/drivers/adc/src/32b/f28x/f2802x/adc.c")
      25                      .dwattr $C$DW$1, DW_AT_TI_begin_line(0x236)
      26                      .dwattr $C$DW$1, DW_AT_TI_begin_column(0x06)
      27                      .dwattr $C$DW$1, DW_AT_TI_max_frame_size(-2)
      28                      .dwpsn  file "D:/Foc/my_motor/sw/drivers/adc/src/32b/f28x/f2802x/adc.c",line 567,column 1,is_stmt,add
      29              
      30                      .dwfde $C$DW$CIE, _ADC_setupSocTrigSrc
      31              $C$DW$2 .dwtag  DW_TAG_formal_parameter, DW_AT_name("adcHandle")
      32                      .dwattr $C$DW$2, DW_AT_TI_symbol_name("_adcHandle")
      33                      .dwattr $C$DW$2, DW_AT_type(*$C$DW$T$71)
      34                      .dwattr $C$DW$2, DW_AT_location[DW_OP_reg12]
      35              $C$DW$3 .dwtag  DW_TAG_formal_parameter, DW_AT_name("socNumber")
      36                      .dwattr $C$DW$3, DW_AT_TI_symbol_name("_socNumber")
      37                      .dwattr $C$DW$3, DW_AT_type(*$C$DW$T$48)
      38                      .dwattr $C$DW$3, DW_AT_location[DW_OP_reg0]
      39              $C$DW$4 .dwtag  DW_TAG_formal_parameter, DW_AT_name("intTrigSrc")
      40                      .dwattr $C$DW$4, DW_AT_TI_symbol_name("_intTrigSrc")
      41                      .dwattr $C$DW$4, DW_AT_type(*$C$DW$T$76)
      42                      .dwattr $C$DW$4, DW_AT_location[DW_OP_reg1]
      43              
      44              ;***************************************************************
      45              ;* FNAME: _ADC_setupSocTrigSrc          FR SIZE:   0           *
      46              ;*                                                             *
      47              ;* FUNCTION ENVIRONMENT                                        *
      48              ;*                                                             *
      49              ;* FUNCTION PROPERTIES                                         *
      50              ;*                            0 Parameter,  0 Auto,  0 SOE     *
      51              ;***************************************************************
      52              
      53              _ADC_setupSocTrigSrc:
      54              ;* T     assigned to $O$C1
      55              ;* T     assigned to _lShift_socsel1
TMS320C2000 Assembler PC v6.2.5 Mon Jul 10 09:53:36 2017

Tools Copyright (c) 1996-2014 Texas Instruments Incorporated
C:\Users\wmj\AppData\Local\Temp\0622010                              PAGE    2

      56              $C$DW$5 .dwtag  DW_TAG_variable, DW_AT_name("lShift_socsel1")
      57                      .dwattr $C$DW$5, DW_AT_TI_symbol_name("_lShift_socsel1")
      58                      .dwattr $C$DW$5, DW_AT_type(*$C$DW$T$19)
      59                      .dwattr $C$DW$5, DW_AT_location[DW_OP_reg22]
      60              ;* AR7   assigned to _intTrigSrc
      61              $C$DW$6 .dwtag  DW_TAG_variable, DW_AT_name("intTrigSrc")
      62                      .dwattr $C$DW$6, DW_AT_TI_symbol_name("_intTrigSrc")
      63                      .dwattr $C$DW$6, DW_AT_type(*$C$DW$T$76)
      64                      .dwattr $C$DW$6, DW_AT_location[DW_OP_reg18]
      65              ;* AR6   assigned to _socNumber
      66              $C$DW$7 .dwtag  DW_TAG_variable, DW_AT_name("socNumber")
      67                      .dwattr $C$DW$7, DW_AT_TI_symbol_name("_socNumber")
      68                      .dwattr $C$DW$7, DW_AT_type(*$C$DW$T$48)
      69                      .dwattr $C$DW$7, DW_AT_location[DW_OP_reg16]
      70              ;* AR4   assigned to _adcHandle
      71              $C$DW$8 .dwtag  DW_TAG_variable, DW_AT_name("adcHandle")
      72                      .dwattr $C$DW$8, DW_AT_TI_symbol_name("_adcHandle")
      73                      .dwattr $C$DW$8, DW_AT_type(*$C$DW$T$78)
      74                      .dwattr $C$DW$8, DW_AT_location[DW_OP_reg12]
      75              ;* AL    assigned to $O$K4
      76                      .dwcfi  cfa_offset, -2
      77                      .dwcfi  save_reg_to_mem, 26, 0
      78                      .dwcfi  save_reg_to_reg, 78, 26
      79 00000000 80A8          MOVZ      AR7,AH                ; [CPU_] |567| 
      80 00000001 88A9          MOVZ      AR6,AL                ; [CPU_] |567| 
      81                      .dwpsn  file "D:/Foc/my_motor/sw/drivers/adc/src/32b/f28x/f2802x/adc.c",line 571,column 27,is_stmt
      82 00000002 5603          MOV       ACC,AR6 << #1         ; [CPU_] |571| 
         00000003 01A6 
      83 00000004 2DA9          MOV       T,AL                  ; [CPU_] |571| 
      84 00000005 7622   EALLOW
      85 00000006 93A6          MOV       AH,AR6                ; [CPU_] 
      86                      .dwpsn  file "D:/Foc/my_motor/sw/drivers/adc/src/32b/f28x/f2802x/adc.c",line 577,column 3,is_stmt
      87 00000007 5308          CMPB      AH,#8                 ; [CPU_] |577| 
      88 00000008 640F          B         $C$L1,LT              ; [CPU_] |577| 
      89                      ; branchcc occurs ; [] |577| 
      90                      .dwpsn  file "D:/Foc/my_motor/sw/drivers/adc/src/32b/f28x/f2802x/adc.c",line 594,column 7,is_stmt
      91 00000009 9CF0          ADDB      AL,#-16               ; [CPU_] |594| 
      92 0000000a 8F40          MOVL      XAR5,#26133           ; [CPU_U] |594| 
         0000000b 6615 
      93 0000000c 2DA9          MOV       T,AL                  ; [CPU_] |594| 
      94 0000000d A8A9          MOVL      ACC,XAR4              ; [CPU_] |594| 
      95 0000000e 5601          ADDL      XAR5,ACC              ; [CPU_] |594| 
         0000000f 00A5 
      96 00000010 9A03          MOVB      AL,#3                 ; [CPU_] |594| 
      97 00000011 FF66          LSL       AL,T                  ; [CPU_] |594| 
      98 00000012 FF5E          NOT       AL                    ; [CPU_] |594| 
      99 00000013 C0C5          AND       *+XAR5[0],AL          ; [CPU_] |594| 
     100                      .dwpsn  file "D:/Foc/my_motor/sw/drivers/adc/src/32b/f28x/f2802x/adc.c",line 597,column 7,is_stmt
     101 00000014 8F40          MOVL      XAR5,#26133           ; [CPU_U] |597| 
         00000015 6615 
     102 00000016 6F0C          B         $C$L2,UNC             ; [CPU_] |597| 
     103                      ; branch occurs ; [] |597| 
     104 00000017       $C$L1:    
     105                      .dwpsn  file "D:/Foc/my_motor/sw/drivers/adc/src/32b/f28x/f2802x/adc.c",line 583,column 7,is_stmt
     106 00000017 8F40          MOVL      XAR5,#26132           ; [CPU_U] |583| 
TMS320C2000 Assembler PC v6.2.5 Mon Jul 10 09:53:36 2017

Tools Copyright (c) 1996-2014 Texas Instruments Incorporated
C:\Users\wmj\AppData\Local\Temp\0622010                              PAGE    3

         00000018 6614 
     107 00000019 A8A9          MOVL      ACC,XAR4              ; [CPU_] |583| 
     108 0000001a 5601          ADDL      XAR5,ACC              ; [CPU_] |583| 
         0000001b 00A5 
     109 0000001c 9A03          MOVB      AL,#3                 ; [CPU_] |583| 
     110 0000001d FF66          LSL       AL,T                  ; [CPU_] |583| 
     111 0000001e FF5E          NOT       AL                    ; [CPU_] |583| 
     112 0000001f C0C5          AND       *+XAR5[0],AL          ; [CPU_] |583| 
     113                      .dwpsn  file "D:/Foc/my_motor/sw/drivers/adc/src/32b/f28x/f2802x/adc.c",line 586,column 7,is_stmt
     114 00000020 8F40          MOVL      XAR5,#26132           ; [CPU_U] |586| 
         00000021 6614 
     115 00000022       $C$L2:    
     116 00000022 A8A9          MOVL      ACC,XAR4              ; [CPU_] |586| 
     117 00000023 5601          ADDL      XAR5,ACC              ; [CPU_] |586| 
         00000024 00A5 
     118 00000025 92A7          MOV       AL,AR7                ; [CPU_] |586| 
     119 00000026 FF66          LSL       AL,T                  ; [CPU_] |586| 
     120 00000027 98C5          OR        *+XAR5[0],AL          ; [CPU_] |586| 
     121 00000028 761A   EDIS
     122 00000029 FF69          SPM       #0                    ; [CPU_] 
     123              $C$DW$9 .dwtag  DW_TAG_TI_branch
     124                      .dwattr $C$DW$9, DW_AT_low_pc(0x00)
     125                      .dwattr $C$DW$9, DW_AT_TI_return
     126 0000002a 0006          LRETR     ; [CPU_] 
     127                      ; return occurs ; [] 
     128                      .dwattr $C$DW$1, DW_AT_TI_end_file("D:/Foc/my_motor/sw/drivers/adc/src/32b/f28x/f2802x/adc.c")
     129                      .dwattr $C$DW$1, DW_AT_TI_end_line(0x25b)
     130                      .dwattr $C$DW$1, DW_AT_TI_end_column(0x01)
     131                      .dwendentry
     132                      .dwendtag $C$DW$1
     133              
     134 0000002b               .sect   ".text"
     135                      .clink
     136                      .global _ADC_setVoltRefSrc
     137              
     138              $C$DW$10        .dwtag  DW_TAG_subprogram, DW_AT_name("ADC_setVoltRefSrc")
     139                      .dwattr $C$DW$10, DW_AT_low_pc(_ADC_setVoltRefSrc)
     140                      .dwattr $C$DW$10, DW_AT_high_pc(0x00)
     141                      .dwattr $C$DW$10, DW_AT_TI_symbol_name("_ADC_setVoltRefSrc")
     142                      .dwattr $C$DW$10, DW_AT_external
     143                      .dwattr $C$DW$10, DW_AT_TI_begin_file("D:/Foc/my_motor/sw/drivers/adc/src/32b/f28x/f2802x/adc.c")
     144                      .dwattr $C$DW$10, DW_AT_TI_begin_line(0x1e0)
     145                      .dwattr $C$DW$10, DW_AT_TI_begin_column(0x06)
     146                      .dwattr $C$DW$10, DW_AT_TI_max_frame_size(-2)
     147                      .dwpsn  file "D:/Foc/my_motor/sw/drivers/adc/src/32b/f28x/f2802x/adc.c",line 481,column 1,is_stmt,add
     148              
     149                      .dwfde $C$DW$CIE, _ADC_setVoltRefSrc
     150              $C$DW$11        .dwtag  DW_TAG_formal_parameter, DW_AT_name("adcHandle")
     151                      .dwattr $C$DW$11, DW_AT_TI_symbol_name("_adcHandle")
     152                      .dwattr $C$DW$11, DW_AT_type(*$C$DW$T$71)
     153                      .dwattr $C$DW$11, DW_AT_location[DW_OP_reg12]
     154              $C$DW$12        .dwtag  DW_TAG_formal_parameter, DW_AT_name("voltSrc")
     155                      .dwattr $C$DW$12, DW_AT_TI_symbol_name("_voltSrc")
     156                      .dwattr $C$DW$12, DW_AT_type(*$C$DW$T$66)
     157                      .dwattr $C$DW$12, DW_AT_location[DW_OP_reg0]
TMS320C2000 Assembler PC v6.2.5 Mon Jul 10 09:53:36 2017

Tools Copyright (c) 1996-2014 Texas Instruments Incorporated
C:\Users\wmj\AppData\Local\Temp\0622010                              PAGE    4

     158              
     159              ;***************************************************************
     160              ;* FNAME: _ADC_setVoltRefSrc            FR SIZE:   0           *
     161              ;*                                                             *
     162              ;* FUNCTION ENVIRONMENT                                        *
     163              ;*                                                             *
     164              ;* FUNCTION PROPERTIES                                         *
     165              ;*                            0 Parameter,  0 Auto,  0 SOE     *
     166              ;***************************************************************
     167              
     168              _ADC_setVoltRefSrc:
     169              ;* AL    assigned to _adcHandle
     170              $C$DW$13        .dwtag  DW_TAG_variable, DW_AT_name("adcHandle")
     171                      .dwattr $C$DW$13, DW_AT_TI_symbol_name("_adcHandle")
     172                      .dwattr $C$DW$13, DW_AT_type(*$C$DW$T$78)
     173                      .dwattr $C$DW$13, DW_AT_location[DW_OP_reg0]
     174              ;* AR6   assigned to _voltSrc
     175              $C$DW$14        .dwtag  DW_TAG_variable, DW_AT_name("voltSrc")
     176                      .dwattr $C$DW$14, DW_AT_TI_symbol_name("_voltSrc")
     177                      .dwattr $C$DW$14, DW_AT_type(*$C$DW$T$66)
     178                      .dwattr $C$DW$14, DW_AT_location[DW_OP_reg16]
     179                      .dwcfi  cfa_offset, -2
     180                      .dwcfi  save_reg_to_mem, 26, 0
     181                      .dwcfi  save_reg_to_reg, 78, 26
     182 0000002b 88A9          MOVZ      AR6,AL                ; [CPU_] |481| 
     183 0000002c A8A9          MOVL      ACC,XAR4              ; [CPU_] |481| 
     184 0000002d 7622   EALLOW
     185                      .dwpsn  file "D:/Foc/my_motor/sw/drivers/adc/src/32b/f28x/f2802x/adc.c",line 488,column 3,is_stmt
     186 0000002e 8F00          MOVL      XAR4,#26112           ; [CPU_U] |488| 
         0000002f 6600 
     187 00000030 5601          ADDL      XAR4,ACC              ; [CPU_] |488| 
         00000031 00A4 
     188 00000032 18C4          AND       *+XAR4[0],#0xfff7     ; [CPU_] |488| 
         00000033 FFF7 
     189                      .dwpsn  file "D:/Foc/my_motor/sw/drivers/adc/src/32b/f28x/f2802x/adc.c",line 492,column 3,is_stmt
     190 00000034 8F00          MOVL      XAR4,#26112           ; [CPU_U] |492| 
         00000035 6600 
     191 00000036 5601          ADDL      XAR4,ACC              ; [CPU_] |492| 
         00000037 00A4 
     192 00000038 92A6          MOV       AL,AR6                ; [CPU_] |492| 
     193 00000039 98C4          OR        *+XAR4[0],AL          ; [CPU_] |492| 
     194 0000003a 761A   EDIS
     195 0000003b FF69          SPM       #0                    ; [CPU_] 
     196              $C$DW$15        .dwtag  DW_TAG_TI_branch
     197                      .dwattr $C$DW$15, DW_AT_low_pc(0x00)
     198                      .dwattr $C$DW$15, DW_AT_TI_return
     199 0000003c 0006          LRETR     ; [CPU_] 
     200                      ; return occurs ; [] 
     201                      .dwattr $C$DW$10, DW_AT_TI_end_file("D:/Foc/my_motor/sw/drivers/adc/src/32b/f28x/f2802x/adc.c")
     202                      .dwattr $C$DW$10, DW_AT_TI_end_line(0x1f1)
     203                      .dwattr $C$DW$10, DW_AT_TI_end_column(0x01)
     204                      .dwendentry
     205                      .dwendtag $C$DW$10
     206              
     207 0000003d               .sect   ".text"
TMS320C2000 Assembler PC v6.2.5 Mon Jul 10 09:53:36 2017

Tools Copyright (c) 1996-2014 Texas Instruments Incorporated
C:\Users\wmj\AppData\Local\Temp\0622010                              PAGE    5

     208                      .clink
     209                      .global _ADC_setTempSensorSrc
     210              
     211              $C$DW$16        .dwtag  DW_TAG_subprogram, DW_AT_name("ADC_setTempSensorSrc")
     212                      .dwattr $C$DW$16, DW_AT_low_pc(_ADC_setTempSensorSrc)
     213                      .dwattr $C$DW$16, DW_AT_high_pc(0x00)
     214                      .dwattr $C$DW$16, DW_AT_TI_symbol_name("_ADC_setTempSensorSrc")
     215                      .dwattr $C$DW$16, DW_AT_external
     216                      .dwattr $C$DW$16, DW_AT_TI_begin_file("D:/Foc/my_motor/sw/drivers/adc/src/32b/f28x/f2802x/adc.c")
     217                      .dwattr $C$DW$16, DW_AT_TI_begin_line(0x1cc)
     218                      .dwattr $C$DW$16, DW_AT_TI_begin_column(0x06)
     219                      .dwattr $C$DW$16, DW_AT_TI_max_frame_size(-2)
     220                      .dwpsn  file "D:/Foc/my_motor/sw/drivers/adc/src/32b/f28x/f2802x/adc.c",line 461,column 1,is_stmt,add
     221              
     222                      .dwfde $C$DW$CIE, _ADC_setTempSensorSrc
     223              $C$DW$17        .dwtag  DW_TAG_formal_parameter, DW_AT_name("adcHandle")
     224                      .dwattr $C$DW$17, DW_AT_TI_symbol_name("_adcHandle")
     225                      .dwattr $C$DW$17, DW_AT_type(*$C$DW$T$71)
     226                      .dwattr $C$DW$17, DW_AT_location[DW_OP_reg12]
     227              $C$DW$18        .dwtag  DW_TAG_formal_parameter, DW_AT_name("sensorSrc")
     228                      .dwattr $C$DW$18, DW_AT_TI_symbol_name("_sensorSrc")
     229                      .dwattr $C$DW$18, DW_AT_type(*$C$DW$T$63)
     230                      .dwattr $C$DW$18, DW_AT_location[DW_OP_reg0]
     231              
     232              ;***************************************************************
     233              ;* FNAME: _ADC_setTempSensorSrc         FR SIZE:   0           *
     234              ;*                                                             *
     235              ;* FUNCTION ENVIRONMENT                                        *
     236              ;*                                                             *
     237              ;* FUNCTION PROPERTIES                                         *
     238              ;*                            0 Parameter,  0 Auto,  0 SOE     *
     239              ;***************************************************************
     240              
     241              _ADC_setTempSensorSrc:
     242              ;* AL    assigned to _adcHandle
     243              $C$DW$19        .dwtag  DW_TAG_variable, DW_AT_name("adcHandle")
     244                      .dwattr $C$DW$19, DW_AT_TI_symbol_name("_adcHandle")
     245                      .dwattr $C$DW$19, DW_AT_type(*$C$DW$T$78)
     246                      .dwattr $C$DW$19, DW_AT_location[DW_OP_reg0]
     247              ;* AR6   assigned to _sensorSrc
     248              $C$DW$20        .dwtag  DW_TAG_variable, DW_AT_name("sensorSrc")
     249                      .dwattr $C$DW$20, DW_AT_TI_symbol_name("_sensorSrc")
     250                      .dwattr $C$DW$20, DW_AT_type(*$C$DW$T$63)
     251                      .dwattr $C$DW$20, DW_AT_location[DW_OP_reg16]
     252                      .dwcfi  cfa_offset, -2
     253                      .dwcfi  save_reg_to_mem, 26, 0
     254                      .dwcfi  save_reg_to_reg, 78, 26
     255 0000003d 88A9          MOVZ      AR6,AL                ; [CPU_] |461| 
     256 0000003e A8A9          MOVL      ACC,XAR4              ; [CPU_] |461| 
     257 0000003f 7622   EALLOW
     258                      .dwpsn  file "D:/Foc/my_motor/sw/drivers/adc/src/32b/f28x/f2802x/adc.c",line 468,column 3,is_stmt
     259 00000040 8F00          MOVL      XAR4,#26112           ; [CPU_U] |468| 
         00000041 6600 
     260 00000042 5601          ADDL      XAR4,ACC              ; [CPU_] |468| 
         00000043 00A4 
TMS320C2000 Assembler PC v6.2.5 Mon Jul 10 09:53:36 2017

Tools Copyright (c) 1996-2014 Texas Instruments Incorporated
C:\Users\wmj\AppData\Local\Temp\0622010                              PAGE    6

     261 00000044 18C4          AND       *+XAR4[0],#0xfffe     ; [CPU_] |468| 
         00000045 FFFE 
     262                      .dwpsn  file "D:/Foc/my_motor/sw/drivers/adc/src/32b/f28x/f2802x/adc.c",line 472,column 3,is_stmt
     263 00000046 8F00          MOVL      XAR4,#26112           ; [CPU_U] |472| 
         00000047 6600 
     264 00000048 5601          ADDL      XAR4,ACC              ; [CPU_] |472| 
         00000049 00A4 
     265 0000004a 92A6          MOV       AL,AR6                ; [CPU_] |472| 
     266 0000004b 98C4          OR        *+XAR4[0],AL          ; [CPU_] |472| 
     267 0000004c 761A   EDIS
     268 0000004d FF69          SPM       #0                    ; [CPU_] 
     269              $C$DW$21        .dwtag  DW_TAG_TI_branch
     270                      .dwattr $C$DW$21, DW_AT_low_pc(0x00)
     271                      .dwattr $C$DW$21, DW_AT_TI_return
     272 0000004e 0006          LRETR     ; [CPU_] 
     273                      ; return occurs ; [] 
     274                      .dwattr $C$DW$16, DW_AT_TI_end_file("D:/Foc/my_motor/sw/drivers/adc/src/32b/f28x/f2802x/adc.c")
     275                      .dwattr $C$DW$16, DW_AT_TI_end_line(0x1dd)
     276                      .dwattr $C$DW$16, DW_AT_TI_end_column(0x01)
     277                      .dwendentry
     278                      .dwendtag $C$DW$16
     279              
     280 0000004f               .sect   ".text"
     281                      .clink
     282                      .global _ADC_setSocTrigSrc
     283              
     284              $C$DW$22        .dwtag  DW_TAG_subprogram, DW_AT_name("ADC_setSocTrigSrc")
     285                      .dwattr $C$DW$22, DW_AT_low_pc(_ADC_setSocTrigSrc)
     286                      .dwattr $C$DW$22, DW_AT_high_pc(0x00)
     287                      .dwattr $C$DW$22, DW_AT_TI_symbol_name("_ADC_setSocTrigSrc")
     288                      .dwattr $C$DW$22, DW_AT_external
     289                      .dwattr $C$DW$22, DW_AT_TI_begin_file("D:/Foc/my_motor/sw/drivers/adc/src/32b/f28x/f2802x/adc.c")
     290                      .dwattr $C$DW$22, DW_AT_TI_begin_line(0x198)
     291                      .dwattr $C$DW$22, DW_AT_TI_begin_column(0x06)
     292                      .dwattr $C$DW$22, DW_AT_TI_max_frame_size(-2)
     293                      .dwpsn  file "D:/Foc/my_motor/sw/drivers/adc/src/32b/f28x/f2802x/adc.c",line 409,column 1,is_stmt,add
     294              
     295                      .dwfde $C$DW$CIE, _ADC_setSocTrigSrc
     296              $C$DW$23        .dwtag  DW_TAG_formal_parameter, DW_AT_name("adcHandle")
     297                      .dwattr $C$DW$23, DW_AT_TI_symbol_name("_adcHandle")
     298                      .dwattr $C$DW$23, DW_AT_type(*$C$DW$T$71)
     299                      .dwattr $C$DW$23, DW_AT_location[DW_OP_reg12]
     300              $C$DW$24        .dwtag  DW_TAG_formal_parameter, DW_AT_name("socNumber")
     301                      .dwattr $C$DW$24, DW_AT_TI_symbol_name("_socNumber")
     302                      .dwattr $C$DW$24, DW_AT_type(*$C$DW$T$48)
     303                      .dwattr $C$DW$24, DW_AT_location[DW_OP_reg0]
     304              $C$DW$25        .dwtag  DW_TAG_formal_parameter, DW_AT_name("trigSrc")
     305                      .dwattr $C$DW$25, DW_AT_TI_symbol_name("_trigSrc")
     306                      .dwattr $C$DW$25, DW_AT_type(*$C$DW$T$57)
     307                      .dwattr $C$DW$25, DW_AT_location[DW_OP_reg1]
     308              
     309              ;***************************************************************
     310              ;* FNAME: _ADC_setSocTrigSrc            FR SIZE:   0           *
     311              ;*                                                             *
     312              ;* FUNCTION ENVIRONMENT                                        *
TMS320C2000 Assembler PC v6.2.5 Mon Jul 10 09:53:36 2017

Tools Copyright (c) 1996-2014 Texas Instruments Incorporated
C:\Users\wmj\AppData\Local\Temp\0622010                              PAGE    7

     313              ;*                                                             *
     314              ;* FUNCTION PROPERTIES                                         *
     315              ;*                            0 Parameter,  0 Auto,  0 SOE     *
     316              ;***************************************************************
     317              
     318              _ADC_setSocTrigSrc:
     319              ;* AR4   assigned to $O$C1
     320              ;* AR4   assigned to _adcHandle
     321              $C$DW$26        .dwtag  DW_TAG_variable, DW_AT_name("adcHandle")
     322                      .dwattr $C$DW$26, DW_AT_TI_symbol_name("_adcHandle")
     323                      .dwattr $C$DW$26, DW_AT_type(*$C$DW$T$78)
     324                      .dwattr $C$DW$26, DW_AT_location[DW_OP_reg12]
     325              ;* AL    assigned to _socNumber
     326              $C$DW$27        .dwtag  DW_TAG_variable, DW_AT_name("socNumber")
     327                      .dwattr $C$DW$27, DW_AT_TI_symbol_name("_socNumber")
     328                      .dwattr $C$DW$27, DW_AT_type(*$C$DW$T$48)
     329                      .dwattr $C$DW$27, DW_AT_location[DW_OP_reg0]
     330              ;* AR6   assigned to _trigSrc
     331              $C$DW$28        .dwtag  DW_TAG_variable, DW_AT_name("trigSrc")
     332                      .dwattr $C$DW$28, DW_AT_TI_symbol_name("_trigSrc")
     333                      .dwattr $C$DW$28, DW_AT_type(*$C$DW$T$57)
     334                      .dwattr $C$DW$28, DW_AT_location[DW_OP_reg16]
     335                      .dwcfi  cfa_offset, -2
     336                      .dwcfi  save_reg_to_mem, 26, 0
     337                      .dwcfi  save_reg_to_reg, 78, 26
     338 0000004f 88A8          MOVZ      AR6,AH                ; [CPU_] |409| 
     339 00000050 7622   EALLOW
     340 00000051 3B01          SETC      SXM                   ; [CPU_] 
     341                      .dwpsn  file "D:/Foc/my_motor/sw/drivers/adc/src/32b/f28x/f2802x/adc.c",line 416,column 3,is_stmt
     342 00000052 A8AB          MOVL      P,XAR4                ; [CPU_] |416| 
     343 00000053 85A9          MOV       ACC,AL                ; [CPU_] |416| 
     344 00000054 8F00          MOVL      XAR4,#26144           ; [CPU_U] |416| 
         00000055 6620 
     345 00000056 5601          ADDL      P,ACC                 ; [CPU_] |416| 
         00000057 00AB 
     346 00000058 92A6          MOV       AL,AR6                ; [CPU_] |416| 
     347 00000059 5657          ADDUL     P,XAR4                ; [CPU_] |416| 
         0000005a 00A4 
     348 0000005b A9A4          MOVL      XAR4,P                ; [CPU_] |416| 
     349 0000005c 18C4          AND       *+XAR4[0],#0x07ff     ; [CPU_] |416| 
         0000005d 07FF 
     350                      .dwpsn  file "D:/Foc/my_motor/sw/drivers/adc/src/32b/f28x/f2802x/adc.c",line 420,column 3,is_stmt
     351 0000005e 98C4          OR        *+XAR4[0],AL          ; [CPU_] |420| 
     352 0000005f 761A   EDIS
     353 00000060 FF69          SPM       #0                    ; [CPU_] 
     354              $C$DW$29        .dwtag  DW_TAG_TI_branch
     355                      .dwattr $C$DW$29, DW_AT_low_pc(0x00)
     356                      .dwattr $C$DW$29, DW_AT_TI_return
     357 00000061 0006          LRETR     ; [CPU_] 
     358                      ; return occurs ; [] 
     359                      .dwattr $C$DW$22, DW_AT_TI_end_file("D:/Foc/my_motor/sw/drivers/adc/src/32b/f28x/f2802x/adc.c")
     360                      .dwattr $C$DW$22, DW_AT_TI_end_line(0x1a9)
     361                      .dwattr $C$DW$22, DW_AT_TI_end_column(0x01)
     362                      .dwendentry
     363                      .dwendtag $C$DW$22
TMS320C2000 Assembler PC v6.2.5 Mon Jul 10 09:53:36 2017

Tools Copyright (c) 1996-2014 Texas Instruments Incorporated
C:\Users\wmj\AppData\Local\Temp\0622010                              PAGE    8

     364              
     365 00000062               .sect   ".text"
     366                      .clink
     367                      .global _ADC_setSocSampleDelay
     368              
     369              $C$DW$30        .dwtag  DW_TAG_subprogram, DW_AT_name("ADC_setSocSampleDelay")
     370                      .dwattr $C$DW$30, DW_AT_low_pc(_ADC_setSocSampleDelay)
     371                      .dwattr $C$DW$30, DW_AT_high_pc(0x00)
     372                      .dwattr $C$DW$30, DW_AT_TI_symbol_name("_ADC_setSocSampleDelay")
     373                      .dwattr $C$DW$30, DW_AT_external
     374                      .dwattr $C$DW$30, DW_AT_TI_begin_file("D:/Foc/my_motor/sw/drivers/adc/src/32b/f28x/f2802x/adc.c")
     375                      .dwattr $C$DW$30, DW_AT_TI_begin_line(0x184)
     376                      .dwattr $C$DW$30, DW_AT_TI_begin_column(0x06)
     377                      .dwattr $C$DW$30, DW_AT_TI_max_frame_size(-2)
     378                      .dwpsn  file "D:/Foc/my_motor/sw/drivers/adc/src/32b/f28x/f2802x/adc.c",line 389,column 1,is_stmt,add
     379              
     380                      .dwfde $C$DW$CIE, _ADC_setSocSampleDelay
     381              $C$DW$31        .dwtag  DW_TAG_formal_parameter, DW_AT_name("adcHandle")
     382                      .dwattr $C$DW$31, DW_AT_TI_symbol_name("_adcHandle")
     383                      .dwattr $C$DW$31, DW_AT_type(*$C$DW$T$71)
     384                      .dwattr $C$DW$31, DW_AT_location[DW_OP_reg12]
     385              $C$DW$32        .dwtag  DW_TAG_formal_parameter, DW_AT_name("socNumber")
     386                      .dwattr $C$DW$32, DW_AT_TI_symbol_name("_socNumber")
     387                      .dwattr $C$DW$32, DW_AT_type(*$C$DW$T$48)
     388                      .dwattr $C$DW$32, DW_AT_location[DW_OP_reg0]
     389              $C$DW$33        .dwtag  DW_TAG_formal_parameter, DW_AT_name("sampleDelay")
     390                      .dwattr $C$DW$33, DW_AT_TI_symbol_name("_sampleDelay")
     391                      .dwattr $C$DW$33, DW_AT_type(*$C$DW$T$54)
     392                      .dwattr $C$DW$33, DW_AT_location[DW_OP_reg1]
     393              
     394              ;***************************************************************
     395              ;* FNAME: _ADC_setSocSampleDelay        FR SIZE:   0           *
     396              ;*                                                             *
     397              ;* FUNCTION ENVIRONMENT                                        *
     398              ;*                                                             *
     399              ;* FUNCTION PROPERTIES                                         *
     400              ;*                            0 Parameter,  0 Auto,  0 SOE     *
     401              ;***************************************************************
     402              
     403              _ADC_setSocSampleDelay:
     404              ;* AR4   assigned to $O$C1
     405              ;* AR4   assigned to _adcHandle
     406              $C$DW$34        .dwtag  DW_TAG_variable, DW_AT_name("adcHandle")
     407                      .dwattr $C$DW$34, DW_AT_TI_symbol_name("_adcHandle")
     408                      .dwattr $C$DW$34, DW_AT_type(*$C$DW$T$78)
     409                      .dwattr $C$DW$34, DW_AT_location[DW_OP_reg12]
     410              ;* AL    assigned to _socNumber
     411              $C$DW$35        .dwtag  DW_TAG_variable, DW_AT_name("socNumber")
     412                      .dwattr $C$DW$35, DW_AT_TI_symbol_name("_socNumber")
     413                      .dwattr $C$DW$35, DW_AT_type(*$C$DW$T$48)
     414                      .dwattr $C$DW$35, DW_AT_location[DW_OP_reg0]
     415              ;* AR6   assigned to _sampleDelay
     416              $C$DW$36        .dwtag  DW_TAG_variable, DW_AT_name("sampleDelay")
     417                      .dwattr $C$DW$36, DW_AT_TI_symbol_name("_sampleDelay")
     418                      .dwattr $C$DW$36, DW_AT_type(*$C$DW$T$54)
TMS320C2000 Assembler PC v6.2.5 Mon Jul 10 09:53:36 2017

Tools Copyright (c) 1996-2014 Texas Instruments Incorporated
C:\Users\wmj\AppData\Local\Temp\0622010                              PAGE    9

     419                      .dwattr $C$DW$36, DW_AT_location[DW_OP_reg16]
     420                      .dwcfi  cfa_offset, -2
     421                      .dwcfi  save_reg_to_mem, 26, 0
     422                      .dwcfi  save_reg_to_reg, 78, 26
     423 00000062 88A8          MOVZ      AR6,AH                ; [CPU_] |389| 
     424 00000063 7622   EALLOW
     425 00000064 3B01          SETC      SXM                   ; [CPU_] 
     426                      .dwpsn  file "D:/Foc/my_motor/sw/drivers/adc/src/32b/f28x/f2802x/adc.c",line 396,column 3,is_stmt
     427 00000065 A8AB          MOVL      P,XAR4                ; [CPU_] |396| 
     428 00000066 85A9          MOV       ACC,AL                ; [CPU_] |396| 
     429 00000067 8F00          MOVL      XAR4,#26144           ; [CPU_U] |396| 
         00000068 6620 
     430 00000069 5601          ADDL      P,ACC                 ; [CPU_] |396| 
         0000006a 00AB 
     431 0000006b 92A6          MOV       AL,AR6                ; [CPU_] |396| 
     432 0000006c 5657          ADDUL     P,XAR4                ; [CPU_] |396| 
         0000006d 00A4 
     433 0000006e A9A4          MOVL      XAR4,P                ; [CPU_] |396| 
     434 0000006f 18C4          AND       *+XAR4[0],#0xffc0     ; [CPU_] |396| 
         00000070 FFC0 
     435                      .dwpsn  file "D:/Foc/my_motor/sw/drivers/adc/src/32b/f28x/f2802x/adc.c",line 400,column 3,is_stmt
     436 00000071 98C4          OR        *+XAR4[0],AL          ; [CPU_] |400| 
     437 00000072 761A   EDIS
     438 00000073 FF69          SPM       #0                    ; [CPU_] 
     439              $C$DW$37        .dwtag  DW_TAG_TI_branch
     440                      .dwattr $C$DW$37, DW_AT_low_pc(0x00)
     441                      .dwattr $C$DW$37, DW_AT_TI_return
     442 00000074 0006          LRETR     ; [CPU_] 
     443                      ; return occurs ; [] 
     444                      .dwattr $C$DW$30, DW_AT_TI_end_file("D:/Foc/my_motor/sw/drivers/adc/src/32b/f28x/f2802x/adc.c")
     445                      .dwattr $C$DW$30, DW_AT_TI_end_line(0x195)
     446                      .dwattr $C$DW$30, DW_AT_TI_end_column(0x01)
     447                      .dwendentry
     448                      .dwendtag $C$DW$30
     449              
     450 00000075               .sect   ".text"
     451                      .clink
     452                      .global _ADC_setSocFrcWord
     453              
     454              $C$DW$38        .dwtag  DW_TAG_subprogram, DW_AT_name("ADC_setSocFrcWord")
     455                      .dwattr $C$DW$38, DW_AT_low_pc(_ADC_setSocFrcWord)
     456                      .dwattr $C$DW$38, DW_AT_high_pc(0x00)
     457                      .dwattr $C$DW$38, DW_AT_TI_symbol_name("_ADC_setSocFrcWord")
     458                      .dwattr $C$DW$38, DW_AT_external
     459                      .dwattr $C$DW$38, DW_AT_TI_begin_file("D:/Foc/my_motor/sw/drivers/adc/src/32b/f28x/f2802x/adc.c")
     460                      .dwattr $C$DW$38, DW_AT_TI_begin_line(0x1bc)
     461                      .dwattr $C$DW$38, DW_AT_TI_begin_column(0x06)
     462                      .dwattr $C$DW$38, DW_AT_TI_max_frame_size(-2)
     463                      .dwpsn  file "D:/Foc/my_motor/sw/drivers/adc/src/32b/f28x/f2802x/adc.c",line 445,column 1,is_stmt,add
     464              
     465                      .dwfde $C$DW$CIE, _ADC_setSocFrcWord
     466              $C$DW$39        .dwtag  DW_TAG_formal_parameter, DW_AT_name("adcHandle")
     467                      .dwattr $C$DW$39, DW_AT_TI_symbol_name("_adcHandle")
     468                      .dwattr $C$DW$39, DW_AT_type(*$C$DW$T$71)
     469                      .dwattr $C$DW$39, DW_AT_location[DW_OP_reg12]
TMS320C2000 Assembler PC v6.2.5 Mon Jul 10 09:53:36 2017

Tools Copyright (c) 1996-2014 Texas Instruments Incorporated
C:\Users\wmj\AppData\Local\Temp\0622010                              PAGE   10

     470              $C$DW$40        .dwtag  DW_TAG_formal_parameter, DW_AT_name("socFrc")
     471                      .dwattr $C$DW$40, DW_AT_TI_symbol_name("_socFrc")
     472                      .dwattr $C$DW$40, DW_AT_type(*$C$DW$T$96)
     473                      .dwattr $C$DW$40, DW_AT_location[DW_OP_reg0]
     474              
     475              ;***************************************************************
     476              ;* FNAME: _ADC_setSocFrcWord            FR SIZE:   0           *
     477              ;*                                                             *
     478              ;* FUNCTION ENVIRONMENT                                        *
     479              ;*                                                             *
     480              ;* FUNCTION PROPERTIES                                         *
     481              ;*                            0 Parameter,  0 Auto,  0 SOE     *
     482              ;***************************************************************
     483              
     484              _ADC_setSocFrcWord:
     485              ;* AR4   assigned to _adcHandle
     486              $C$DW$41        .dwtag  DW_TAG_variable, DW_AT_name("adcHandle")
     487                      .dwattr $C$DW$41, DW_AT_TI_symbol_name("_adcHandle")
     488                      .dwattr $C$DW$41, DW_AT_type(*$C$DW$T$78)
     489                      .dwattr $C$DW$41, DW_AT_location[DW_OP_reg12]
     490              ;* AL    assigned to _socFrc
     491              $C$DW$42        .dwtag  DW_TAG_variable, DW_AT_name("socFrc")
     492                      .dwattr $C$DW$42, DW_AT_TI_symbol_name("_socFrc")
     493                      .dwattr $C$DW$42, DW_AT_type(*$C$DW$T$96)
     494                      .dwattr $C$DW$42, DW_AT_location[DW_OP_reg0]
     495                      .dwcfi  cfa_offset, -2
     496                      .dwcfi  save_reg_to_mem, 26, 0
     497                      .dwcfi  save_reg_to_reg, 78, 26
     498 00000075 7622   EALLOW
     499                      .dwpsn  file "D:/Foc/my_motor/sw/drivers/adc/src/32b/f28x/f2802x/adc.c",line 452,column 3,is_stmt
     500 00000076 8D00          MOVL      XAR0,#26138           ; [CPU_] |452| 
         00000077 661A 
     501 00000078 9694          MOV       *+XAR4[AR0],AL        ; [CPU_] |452| 
     502 00000079 761A   EDIS
     503 0000007a FF69          SPM       #0                    ; [CPU_] 
     504              $C$DW$43        .dwtag  DW_TAG_TI_branch
     505                      .dwattr $C$DW$43, DW_AT_low_pc(0x00)
     506                      .dwattr $C$DW$43, DW_AT_TI_return
     507 0000007b 0006          LRETR     ; [CPU_] 
     508                      ; return occurs ; [] 
     509                      .dwattr $C$DW$38, DW_AT_TI_end_file("D:/Foc/my_motor/sw/drivers/adc/src/32b/f28x/f2802x/adc.c")
     510                      .dwattr $C$DW$38, DW_AT_TI_end_line(0x1c9)
     511                      .dwattr $C$DW$38, DW_AT_TI_end_column(0x01)
     512                      .dwendentry
     513                      .dwendtag $C$DW$38
     514              
     515 0000007c               .sect   ".text"
     516                      .clink
     517                      .global _ADC_setSocFrc
     518              
     519              $C$DW$44        .dwtag  DW_TAG_subprogram, DW_AT_name("ADC_setSocFrc")
     520                      .dwattr $C$DW$44, DW_AT_low_pc(_ADC_setSocFrc)
     521                      .dwattr $C$DW$44, DW_AT_high_pc(0x00)
     522                      .dwattr $C$DW$44, DW_AT_TI_symbol_name("_ADC_setSocFrc")
     523                      .dwattr $C$DW$44, DW_AT_external
TMS320C2000 Assembler PC v6.2.5 Mon Jul 10 09:53:36 2017

Tools Copyright (c) 1996-2014 Texas Instruments Incorporated
C:\Users\wmj\AppData\Local\Temp\0622010                              PAGE   11

     524                      .dwattr $C$DW$44, DW_AT_TI_begin_file("D:/Foc/my_motor/sw/drivers/adc/src/32b/f28x/f2802x/adc.c")
     525                      .dwattr $C$DW$44, DW_AT_TI_begin_line(0x1ac)
     526                      .dwattr $C$DW$44, DW_AT_TI_begin_column(0x06)
     527                      .dwattr $C$DW$44, DW_AT_TI_max_frame_size(-2)
     528                      .dwpsn  file "D:/Foc/my_motor/sw/drivers/adc/src/32b/f28x/f2802x/adc.c",line 429,column 1,is_stmt,add
     529              
     530                      .dwfde $C$DW$CIE, _ADC_setSocFrc
     531              $C$DW$45        .dwtag  DW_TAG_formal_parameter, DW_AT_name("adcHandle")
     532                      .dwattr $C$DW$45, DW_AT_TI_symbol_name("_adcHandle")
     533                      .dwattr $C$DW$45, DW_AT_type(*$C$DW$T$71)
     534                      .dwattr $C$DW$45, DW_AT_location[DW_OP_reg12]
     535              $C$DW$46        .dwtag  DW_TAG_formal_parameter, DW_AT_name("socFrc")
     536                      .dwattr $C$DW$46, DW_AT_TI_symbol_name("_socFrc")
     537                      .dwattr $C$DW$46, DW_AT_type(*$C$DW$T$60)
     538                      .dwattr $C$DW$46, DW_AT_location[DW_OP_reg0]
     539              
     540              ;***************************************************************
     541              ;* FNAME: _ADC_setSocFrc                FR SIZE:   0           *
     542              ;*                                                             *
     543              ;* FUNCTION ENVIRONMENT                                        *
     544              ;*                                                             *
     545              ;* FUNCTION PROPERTIES                                         *
     546              ;*                            0 Parameter,  0 Auto,  0 SOE     *
     547              ;***************************************************************
     548              
     549              _ADC_setSocFrc:
     550              ;* AR4   assigned to _adcHandle
     551              $C$DW$47        .dwtag  DW_TAG_variable, DW_AT_name("adcHandle")
     552                      .dwattr $C$DW$47, DW_AT_TI_symbol_name("_adcHandle")
     553                      .dwattr $C$DW$47, DW_AT_type(*$C$DW$T$78)
     554                      .dwattr $C$DW$47, DW_AT_location[DW_OP_reg12]
     555              ;* T     assigned to _socFrc
     556              $C$DW$48        .dwtag  DW_TAG_variable, DW_AT_name("socFrc")
     557                      .dwattr $C$DW$48, DW_AT_TI_symbol_name("_socFrc")
     558                      .dwattr $C$DW$48, DW_AT_type(*$C$DW$T$60)
     559                      .dwattr $C$DW$48, DW_AT_location[DW_OP_reg22]
     560                      .dwcfi  cfa_offset, -2
     561                      .dwcfi  save_reg_to_mem, 26, 0
     562                      .dwcfi  save_reg_to_reg, 78, 26
     563 0000007c 2DA9          MOV       T,AL                  ; [CPU_] |429| 
     564 0000007d 7622   EALLOW
     565                      .dwpsn  file "D:/Foc/my_motor/sw/drivers/adc/src/32b/f28x/f2802x/adc.c",line 436,column 3,is_stmt
     566 0000007e 8D00          MOVL      XAR0,#26138           ; [CPU_] |436| 
         0000007f 661A 
     567 00000080 9A01          MOVB      AL,#1                 ; [CPU_] |436| 
     568 00000081 FF66          LSL       AL,T                  ; [CPU_] |436| 
     569 00000082 9694          MOV       *+XAR4[AR0],AL        ; [CPU_] |436| 
     570 00000083 761A   EDIS
     571 00000084 FF69          SPM       #0                    ; [CPU_] 
     572              $C$DW$49        .dwtag  DW_TAG_TI_branch
     573                      .dwattr $C$DW$49, DW_AT_low_pc(0x00)
     574                      .dwattr $C$DW$49, DW_AT_TI_return
     575 00000085 0006          LRETR     ; [CPU_] 
     576                      ; return occurs ; [] 
     577                      .dwattr $C$DW$44, DW_AT_TI_end_file("D:/Foc/my_motor/sw/drivers/adc/src/32b/f28x/f2802x/adc.c")
TMS320C2000 Assembler PC v6.2.5 Mon Jul 10 09:53:36 2017

Tools Copyright (c) 1996-2014 Texas Instruments Incorporated
C:\Users\wmj\AppData\Local\Temp\0622010                              PAGE   12

     578                      .dwattr $C$DW$44, DW_AT_TI_end_line(0x1b9)
     579                      .dwattr $C$DW$44, DW_AT_TI_end_column(0x01)
     580                      .dwendentry
     581                      .dwendtag $C$DW$44
     582              
     583 00000086               .sect   ".text"
     584                      .clink
     585                      .global _ADC_setSocChanNumber
     586              
     587              $C$DW$50        .dwtag  DW_TAG_subprogram, DW_AT_name("ADC_setSocChanNumber")
     588                      .dwattr $C$DW$50, DW_AT_low_pc(_ADC_setSocChanNumber)
     589                      .dwattr $C$DW$50, DW_AT_high_pc(0x00)
     590                      .dwattr $C$DW$50, DW_AT_TI_symbol_name("_ADC_setSocChanNumber")
     591                      .dwattr $C$DW$50, DW_AT_external
     592                      .dwattr $C$DW$50, DW_AT_TI_begin_file("D:/Foc/my_motor/sw/drivers/adc/src/32b/f28x/f2802x/adc.c")
     593                      .dwattr $C$DW$50, DW_AT_TI_begin_line(0x170)
     594                      .dwattr $C$DW$50, DW_AT_TI_begin_column(0x06)
     595                      .dwattr $C$DW$50, DW_AT_TI_max_frame_size(-2)
     596                      .dwpsn  file "D:/Foc/my_motor/sw/drivers/adc/src/32b/f28x/f2802x/adc.c",line 369,column 1,is_stmt,add
     597              
     598                      .dwfde $C$DW$CIE, _ADC_setSocChanNumber
     599              $C$DW$51        .dwtag  DW_TAG_formal_parameter, DW_AT_name("adcHandle")
     600                      .dwattr $C$DW$51, DW_AT_TI_symbol_name("_adcHandle")
     601                      .dwattr $C$DW$51, DW_AT_type(*$C$DW$T$71)
     602                      .dwattr $C$DW$51, DW_AT_location[DW_OP_reg12]
     603              $C$DW$52        .dwtag  DW_TAG_formal_parameter, DW_AT_name("socNumber")
     604                      .dwattr $C$DW$52, DW_AT_TI_symbol_name("_socNumber")
     605                      .dwattr $C$DW$52, DW_AT_type(*$C$DW$T$48)
     606                      .dwattr $C$DW$52, DW_AT_location[DW_OP_reg0]
     607              $C$DW$53        .dwtag  DW_TAG_formal_parameter, DW_AT_name("chanNumber")
     608                      .dwattr $C$DW$53, DW_AT_TI_symbol_name("_chanNumber")
     609                      .dwattr $C$DW$53, DW_AT_type(*$C$DW$T$51)
     610                      .dwattr $C$DW$53, DW_AT_location[DW_OP_reg1]
     611              
     612              ;***************************************************************
     613              ;* FNAME: _ADC_setSocChanNumber         FR SIZE:   0           *
     614              ;*                                                             *
     615              ;* FUNCTION ENVIRONMENT                                        *
     616              ;*                                                             *
     617              ;* FUNCTION PROPERTIES                                         *
     618              ;*                            0 Parameter,  0 Auto,  0 SOE     *
     619              ;***************************************************************
     620              
     621              _ADC_setSocChanNumber:
     622              ;* AR4   assigned to $O$C1
     623              ;* AR4   assigned to _adcHandle
     624              $C$DW$54        .dwtag  DW_TAG_variable, DW_AT_name("adcHandle")
     625                      .dwattr $C$DW$54, DW_AT_TI_symbol_name("_adcHandle")
     626                      .dwattr $C$DW$54, DW_AT_type(*$C$DW$T$78)
     627                      .dwattr $C$DW$54, DW_AT_location[DW_OP_reg12]
     628              ;* AL    assigned to _socNumber
     629              $C$DW$55        .dwtag  DW_TAG_variable, DW_AT_name("socNumber")
     630                      .dwattr $C$DW$55, DW_AT_TI_symbol_name("_socNumber")
     631                      .dwattr $C$DW$55, DW_AT_type(*$C$DW$T$48)
     632                      .dwattr $C$DW$55, DW_AT_location[DW_OP_reg0]
TMS320C2000 Assembler PC v6.2.5 Mon Jul 10 09:53:36 2017

Tools Copyright (c) 1996-2014 Texas Instruments Incorporated
C:\Users\wmj\AppData\Local\Temp\0622010                              PAGE   13

     633              ;* AR6   assigned to _chanNumber
     634              $C$DW$56        .dwtag  DW_TAG_variable, DW_AT_name("chanNumber")
     635                      .dwattr $C$DW$56, DW_AT_TI_symbol_name("_chanNumber")
     636                      .dwattr $C$DW$56, DW_AT_type(*$C$DW$T$51)
     637                      .dwattr $C$DW$56, DW_AT_location[DW_OP_reg16]
     638                      .dwcfi  cfa_offset, -2
     639                      .dwcfi  save_reg_to_mem, 26, 0
     640                      .dwcfi  save_reg_to_reg, 78, 26
     641 00000086 88A8          MOVZ      AR6,AH                ; [CPU_] |369| 
     642 00000087 7622   EALLOW
     643 00000088 3B01          SETC      SXM                   ; [CPU_] 
     644                      .dwpsn  file "D:/Foc/my_motor/sw/drivers/adc/src/32b/f28x/f2802x/adc.c",line 376,column 3,is_stmt
     645 00000089 A8AB          MOVL      P,XAR4                ; [CPU_] |376| 
     646 0000008a 85A9          MOV       ACC,AL                ; [CPU_] |376| 
     647 0000008b 8F00          MOVL      XAR4,#26144           ; [CPU_U] |376| 
         0000008c 6620 
     648 0000008d 5601          ADDL      P,ACC                 ; [CPU_] |376| 
         0000008e 00AB 
     649 0000008f 92A6          MOV       AL,AR6                ; [CPU_] |376| 
     650 00000090 5657          ADDUL     P,XAR4                ; [CPU_] |376| 
         00000091 00A4 
     651 00000092 A9A4          MOVL      XAR4,P                ; [CPU_] |376| 
     652 00000093 18C4          AND       *+XAR4[0],#0xfc3f     ; [CPU_] |376| 
         00000094 FC3F 
     653                      .dwpsn  file "D:/Foc/my_motor/sw/drivers/adc/src/32b/f28x/f2802x/adc.c",line 380,column 3,is_stmt
     654 00000095 98C4          OR        *+XAR4[0],AL          ; [CPU_] |380| 
     655 00000096 761A   EDIS
     656 00000097 FF69          SPM       #0                    ; [CPU_] 
     657              $C$DW$57        .dwtag  DW_TAG_TI_branch
     658                      .dwattr $C$DW$57, DW_AT_low_pc(0x00)
     659                      .dwattr $C$DW$57, DW_AT_TI_return
     660 00000098 0006          LRETR     ; [CPU_] 
     661                      ; return occurs ; [] 
     662                      .dwattr $C$DW$50, DW_AT_TI_end_file("D:/Foc/my_motor/sw/drivers/adc/src/32b/f28x/f2802x/adc.c")
     663                      .dwattr $C$DW$50, DW_AT_TI_end_line(0x181)
     664                      .dwattr $C$DW$50, DW_AT_TI_end_column(0x01)
     665                      .dwendentry
     666                      .dwendtag $C$DW$50
     667              
     668 00000099               .sect   ".text"
     669                      .clink
     670                      .global _ADC_setSampleOverlapMode
     671              
     672              $C$DW$58        .dwtag  DW_TAG_subprogram, DW_AT_name("ADC_setSampleOverlapMode")
     673                      .dwattr $C$DW$58, DW_AT_low_pc(_ADC_setSampleOverlapMode)
     674                      .dwattr $C$DW$58, DW_AT_high_pc(0x00)
     675                      .dwattr $C$DW$58, DW_AT_TI_symbol_name("_ADC_setSampleOverlapMode")
     676                      .dwattr $C$DW$58, DW_AT_external
     677                      .dwattr $C$DW$58, DW_AT_TI_begin_file("D:/Foc/my_motor/sw/drivers/adc/src/32b/f28x/f2802x/adc.c")
     678                      .dwattr $C$DW$58, DW_AT_TI_begin_line(0x101)
     679                      .dwattr $C$DW$58, DW_AT_TI_begin_column(0x06)
     680                      .dwattr $C$DW$58, DW_AT_TI_max_frame_size(-2)
     681                      .dwpsn  file "D:/Foc/my_motor/sw/drivers/adc/src/32b/f28x/f2802x/adc.c",line 258,column 1,is_stmt,add
     682              
     683                      .dwfde $C$DW$CIE, _ADC_setSampleOverlapMode
TMS320C2000 Assembler PC v6.2.5 Mon Jul 10 09:53:36 2017

Tools Copyright (c) 1996-2014 Texas Instruments Incorporated
C:\Users\wmj\AppData\Local\Temp\0622010                              PAGE   14

     684              $C$DW$59        .dwtag  DW_TAG_formal_parameter, DW_AT_name("adcHandle")
     685                      .dwattr $C$DW$59, DW_AT_TI_symbol_name("_adcHandle")
     686                      .dwattr $C$DW$59, DW_AT_type(*$C$DW$T$71)
     687                      .dwattr $C$DW$59, DW_AT_location[DW_OP_reg12]
     688              $C$DW$60        .dwtag  DW_TAG_formal_parameter, DW_AT_name("OverLap")
     689                      .dwattr $C$DW$60, DW_AT_TI_symbol_name("_OverLap")
     690                      .dwattr $C$DW$60, DW_AT_type(*$C$DW$T$32)
     691                      .dwattr $C$DW$60, DW_AT_location[DW_OP_reg0]
     692              
     693              ;***************************************************************
     694              ;* FNAME: _ADC_setSampleOverlapMode     FR SIZE:   0           *
     695              ;*                                                             *
     696              ;* FUNCTION ENVIRONMENT                                        *
     697              ;*                                                             *
     698              ;* FUNCTION PROPERTIES                                         *
     699              ;*                            0 Parameter,  0 Auto,  0 SOE     *
     700              ;***************************************************************
     701              
     702              _ADC_setSampleOverlapMode:
     703              ;* AL    assigned to _OverLap
     704              $C$DW$61        .dwtag  DW_TAG_variable, DW_AT_name("OverLap")
     705                      .dwattr $C$DW$61, DW_AT_TI_symbol_name("_OverLap")
     706                      .dwattr $C$DW$61, DW_AT_type(*$C$DW$T$33)
     707                      .dwattr $C$DW$61, DW_AT_location[DW_OP_reg0]
     708              ;* AR4   assigned to _adcHandle
     709              $C$DW$62        .dwtag  DW_TAG_variable, DW_AT_name("adcHandle")
     710                      .dwattr $C$DW$62, DW_AT_TI_symbol_name("_adcHandle")
     711                      .dwattr $C$DW$62, DW_AT_type(*$C$DW$T$78)
     712                      .dwattr $C$DW$62, DW_AT_location[DW_OP_reg12]
     713                      .dwcfi  cfa_offset, -2
     714                      .dwcfi  save_reg_to_mem, 26, 0
     715                      .dwcfi  save_reg_to_reg, 78, 26
     716 00000099 7622   EALLOW
     717                      .dwpsn  file "D:/Foc/my_motor/sw/drivers/adc/src/32b/f28x/f2802x/adc.c",line 265,column 3,is_stmt
     718 0000009a 5200          CMPB      AL,#0                 ; [CPU_] |265| 
     719 0000009b EC09          BF        $C$L3,EQ              ; [CPU_] |265| 
     720                      ; branchcc occurs ; [] |265| 
     721                      .dwpsn  file "D:/Foc/my_motor/sw/drivers/adc/src/32b/f28x/f2802x/adc.c",line 268,column 5,is_stmt
     722 0000009c 8F40          MOVL      XAR5,#26113           ; [CPU_U] |268| 
         0000009d 6601 
     723 0000009e A8A9          MOVL      ACC,XAR4              ; [CPU_] |268| 
     724 0000009f 5601          ADDL      XAR5,ACC              ; [CPU_] |268| 
         000000a0 00A5 
     725 000000a1 1AC5          OR        *+XAR5[0],#0x0002     ; [CPU_] |268| 
         000000a2 0002 
     726 000000a3 6F08          B         $C$L4,UNC             ; [CPU_] |268| 
     727                      ; branch occurs ; [] |268| 
     728 000000a4       $C$L3:    
     729                      .dwpsn  file "D:/Foc/my_motor/sw/drivers/adc/src/32b/f28x/f2802x/adc.c",line 266,column 5,is_stmt
     730 000000a4 8F40          MOVL      XAR5,#26113           ; [CPU_U] |266| 
         000000a5 6601 
     731 000000a6 A8A9          MOVL      ACC,XAR4              ; [CPU_] |266| 
     732 000000a7 5601          ADDL      XAR5,ACC              ; [CPU_] |266| 
         000000a8 00A5 
     733 000000a9 18C5          AND       *+XAR5[0],#0xfffd     ; [CPU_] |266| 
TMS320C2000 Assembler PC v6.2.5 Mon Jul 10 09:53:36 2017

Tools Copyright (c) 1996-2014 Texas Instruments Incorporated
C:\Users\wmj\AppData\Local\Temp\0622010                              PAGE   15

         000000aa FFFD 
     734 000000ab       $C$L4:    
     735 000000ab 761A   EDIS
     736 000000ac FF69          SPM       #0                    ; [CPU_] 
     737              $C$DW$63        .dwtag  DW_TAG_TI_branch
     738                      .dwattr $C$DW$63, DW_AT_low_pc(0x00)
     739                      .dwattr $C$DW$63, DW_AT_TI_return
     740 000000ad 0006          LRETR     ; [CPU_] 
     741                      ; return occurs ; [] 
     742                      .dwattr $C$DW$58, DW_AT_TI_end_file("D:/Foc/my_motor/sw/drivers/adc/src/32b/f28x/f2802x/adc.c")
     743                      .dwattr $C$DW$58, DW_AT_TI_end_line(0x111)
     744                      .dwattr $C$DW$58, DW_AT_TI_end_column(0x01)
     745                      .dwendentry
     746                      .dwendtag $C$DW$58
     747              
     748 000000ae               .sect   ".text"
     749                      .clink
     750                      .global _ADC_setSampleMode
     751              
     752              $C$DW$64        .dwtag  DW_TAG_subprogram, DW_AT_name("ADC_setSampleMode")
     753                      .dwattr $C$DW$64, DW_AT_low_pc(_ADC_setSampleMode)
     754                      .dwattr $C$DW$64, DW_AT_high_pc(0x00)
     755                      .dwattr $C$DW$64, DW_AT_TI_symbol_name("_ADC_setSampleMode")
     756                      .dwattr $C$DW$64, DW_AT_external
     757                      .dwattr $C$DW$64, DW_AT_TI_begin_file("D:/Foc/my_motor/sw/drivers/adc/src/32b/f28x/f2802x/adc.c")
     758                      .dwattr $C$DW$64, DW_AT_TI_begin_line(0x15a)
     759                      .dwattr $C$DW$64, DW_AT_TI_begin_column(0x06)
     760                      .dwattr $C$DW$64, DW_AT_TI_max_frame_size(-2)
     761                      .dwpsn  file "D:/Foc/my_motor/sw/drivers/adc/src/32b/f28x/f2802x/adc.c",line 347,column 1,is_stmt,add
     762              
     763                      .dwfde $C$DW$CIE, _ADC_setSampleMode
     764              $C$DW$65        .dwtag  DW_TAG_formal_parameter, DW_AT_name("adcHandle")
     765                      .dwattr $C$DW$65, DW_AT_TI_symbol_name("_adcHandle")
     766                      .dwattr $C$DW$65, DW_AT_type(*$C$DW$T$71)
     767                      .dwattr $C$DW$65, DW_AT_location[DW_OP_reg12]
     768              $C$DW$66        .dwtag  DW_TAG_formal_parameter, DW_AT_name("sampleMode")
     769                      .dwattr $C$DW$66, DW_AT_TI_symbol_name("_sampleMode")
     770                      .dwattr $C$DW$66, DW_AT_type(*$C$DW$T$45)
     771                      .dwattr $C$DW$66, DW_AT_location[DW_OP_reg0]
     772              
     773              ;***************************************************************
     774              ;* FNAME: _ADC_setSampleMode            FR SIZE:   0           *
     775              ;*                                                             *
     776              ;* FUNCTION ENVIRONMENT                                        *
     777              ;*                                                             *
     778              ;* FUNCTION PROPERTIES                                         *
     779              ;*                            0 Parameter,  0 Auto,  0 SOE     *
     780              ;***************************************************************
     781              
     782              _ADC_setSampleMode:
     783              ;* AR6   assigned to _sampleMode
     784              $C$DW$67        .dwtag  DW_TAG_variable, DW_AT_name("sampleMode")
     785                      .dwattr $C$DW$67, DW_AT_TI_symbol_name("_sampleMode")
     786                      .dwattr $C$DW$67, DW_AT_type(*$C$DW$T$45)
     787                      .dwattr $C$DW$67, DW_AT_location[DW_OP_reg16]
TMS320C2000 Assembler PC v6.2.5 Mon Jul 10 09:53:36 2017

Tools Copyright (c) 1996-2014 Texas Instruments Incorporated
C:\Users\wmj\AppData\Local\Temp\0622010                              PAGE   16

     788              ;* AL    assigned to _adcHandle
     789              $C$DW$68        .dwtag  DW_TAG_variable, DW_AT_name("adcHandle")
     790                      .dwattr $C$DW$68, DW_AT_TI_symbol_name("_adcHandle")
     791                      .dwattr $C$DW$68, DW_AT_type(*$C$DW$T$78)
     792                      .dwattr $C$DW$68, DW_AT_location[DW_OP_reg0]
     793                      .dwcfi  cfa_offset, -2
     794                      .dwcfi  save_reg_to_mem, 26, 0
     795                      .dwcfi  save_reg_to_reg, 78, 26
     796 000000ae 88A9          MOVZ      AR6,AL                ; [CPU_] |347| 
     797 000000af A8A9          MOVL      ACC,XAR4              ; [CPU_] |347| 
     798 000000b0 7622   EALLOW
     799                      .dwpsn  file "D:/Foc/my_motor/sw/drivers/adc/src/32b/f28x/f2802x/adc.c",line 353,column 3,is_stmt
     800 000000b1 48A6          TBIT      AR6,#8                ; [CPU_] |353| 
     801 000000b2 EE08          BF        $C$L5,TC              ; [CPU_] |353| 
     802                      ; branchcc occurs ; [] |353| 
     803                      .dwpsn  file "D:/Foc/my_motor/sw/drivers/adc/src/32b/f28x/f2802x/adc.c",line 359,column 7,is_stmt
     804 000000b3 8F00          MOVL      XAR4,#26130           ; [CPU_U] |359| 
         000000b4 6612 
     805 000000b5 5601          ADDL      XAR4,ACC              ; [CPU_] |359| 
         000000b6 00A4 
     806 000000b7 92A6          MOV       AL,AR6                ; [CPU_] |359| 
     807 000000b8 98C4          OR        *+XAR4[0],AL          ; [CPU_] |359| 
     808 000000b9 6F0A          B         $C$L6,UNC             ; [CPU_] |359| 
     809                      ; branch occurs ; [] |359| 
     810 000000ba       $C$L5:    
     811                      .dwpsn  file "D:/Foc/my_motor/sw/drivers/adc/src/32b/f28x/f2802x/adc.c",line 355,column 7,is_stmt
     812 000000ba 8F00          MOVL      XAR4,#26130           ; [CPU_U] |355| 
         000000bb 6612 
     813 000000bc 5601          ADDL      XAR4,ACC              ; [CPU_] |355| 
         000000bd 00A4 
     814 000000be 92A6          MOV       AL,AR6                ; [CPU_] |355| 
     815 000000bf 08A9          SUB       AL,#256               ; [CPU_] |355| 
         000000c0 FF00 
     816 000000c1 FF5E          NOT       AL                    ; [CPU_] |355| 
     817 000000c2 C0C4          AND       *+XAR4[0],AL          ; [CPU_] |355| 
     818 000000c3       $C$L6:    
     819 000000c3 761A   EDIS
     820 000000c4 FF69          SPM       #0                    ; [CPU_] 
     821              $C$DW$69        .dwtag  DW_TAG_TI_branch
     822                      .dwattr $C$DW$69, DW_AT_low_pc(0x00)
     823                      .dwattr $C$DW$69, DW_AT_TI_return
     824 000000c5 0006          LRETR     ; [CPU_] 
     825                      ; return occurs ; [] 
     826                      .dwattr $C$DW$64, DW_AT_TI_end_file("D:/Foc/my_motor/sw/drivers/adc/src/32b/f28x/f2802x/adc.c")
     827                      .dwattr $C$DW$64, DW_AT_TI_end_line(0x16d)
     828                      .dwattr $C$DW$64, DW_AT_TI_end_column(0x01)
     829                      .dwendentry
     830                      .dwendtag $C$DW$64
     831              
     832 000000c6               .sect   ".text"
     833                      .clink
     834                      .global _ADC_setOffTrim
     835              
     836              $C$DW$70        .dwtag  DW_TAG_subprogram, DW_AT_name("ADC_setOffTrim")
     837                      .dwattr $C$DW$70, DW_AT_low_pc(_ADC_setOffTrim)
TMS320C2000 Assembler PC v6.2.5 Mon Jul 10 09:53:36 2017

Tools Copyright (c) 1996-2014 Texas Instruments Incorporated
C:\Users\wmj\AppData\Local\Temp\0622010                              PAGE   17

     838                      .dwattr $C$DW$70, DW_AT_high_pc(0x00)
     839                      .dwattr $C$DW$70, DW_AT_TI_symbol_name("_ADC_setOffTrim")
     840                      .dwattr $C$DW$70, DW_AT_external
     841                      .dwattr $C$DW$70, DW_AT_TI_begin_file("D:/Foc/my_motor/sw/drivers/adc/src/32b/f28x/f2802x/adc.c")
     842                      .dwattr $C$DW$70, DW_AT_TI_begin_line(0x25d)
     843                      .dwattr $C$DW$70, DW_AT_TI_begin_column(0x06)
     844                      .dwattr $C$DW$70, DW_AT_TI_max_frame_size(-2)
     845                      .dwpsn  file "D:/Foc/my_motor/sw/drivers/adc/src/32b/f28x/f2802x/adc.c",line 606,column 1,is_stmt,add
     846              
     847                      .dwfde $C$DW$CIE, _ADC_setOffTrim
     848              $C$DW$71        .dwtag  DW_TAG_formal_parameter, DW_AT_name("adcHandle")
     849                      .dwattr $C$DW$71, DW_AT_TI_symbol_name("_adcHandle")
     850                      .dwattr $C$DW$71, DW_AT_type(*$C$DW$T$71)
     851                      .dwattr $C$DW$71, DW_AT_location[DW_OP_reg12]
     852              $C$DW$72        .dwtag  DW_TAG_formal_parameter, DW_AT_name("offtrim")
     853                      .dwattr $C$DW$72, DW_AT_TI_symbol_name("_offtrim")
     854                      .dwattr $C$DW$72, DW_AT_type(*$C$DW$T$96)
     855                      .dwattr $C$DW$72, DW_AT_location[DW_OP_reg0]
     856              
     857              ;***************************************************************
     858              ;* FNAME: _ADC_setOffTrim               FR SIZE:   0           *
     859              ;*                                                             *
     860              ;* FUNCTION ENVIRONMENT                                        *
     861              ;*                                                             *
     862              ;* FUNCTION PROPERTIES                                         *
     863              ;*                            0 Parameter,  0 Auto,  0 SOE     *
     864              ;***************************************************************
     865              
     866              _ADC_setOffTrim:
     867              ;* AR4   assigned to _adcHandle
     868              $C$DW$73        .dwtag  DW_TAG_variable, DW_AT_name("adcHandle")
     869                      .dwattr $C$DW$73, DW_AT_TI_symbol_name("_adcHandle")
     870                      .dwattr $C$DW$73, DW_AT_type(*$C$DW$T$78)
     871                      .dwattr $C$DW$73, DW_AT_location[DW_OP_reg12]
     872              ;* AL    assigned to _offtrim
     873              $C$DW$74        .dwtag  DW_TAG_variable, DW_AT_name("offtrim")
     874                      .dwattr $C$DW$74, DW_AT_TI_symbol_name("_offtrim")
     875                      .dwattr $C$DW$74, DW_AT_type(*$C$DW$T$96)
     876                      .dwattr $C$DW$74, DW_AT_location[DW_OP_reg0]
     877                      .dwcfi  cfa_offset, -2
     878                      .dwcfi  save_reg_to_mem, 26, 0
     879                      .dwcfi  save_reg_to_reg, 78, 26
     880 000000c6 7622   EALLOW
     881                      .dwpsn  file "D:/Foc/my_motor/sw/drivers/adc/src/32b/f28x/f2802x/adc.c",line 613,column 3,is_stmt
     882 000000c7 8D00          MOVL      XAR0,#26177           ; [CPU_] |613| 
         000000c8 6641 
     883 000000c9 9694          MOV       *+XAR4[AR0],AL        ; [CPU_] |613| 
     884 000000ca 761A   EDIS
     885 000000cb FF69          SPM       #0                    ; [CPU_] 
     886              $C$DW$75        .dwtag  DW_TAG_TI_branch
     887                      .dwattr $C$DW$75, DW_AT_low_pc(0x00)
     888                      .dwattr $C$DW$75, DW_AT_TI_return
     889 000000cc 0006          LRETR     ; [CPU_] 
     890                      ; return occurs ; [] 
     891                      .dwattr $C$DW$70, DW_AT_TI_end_file("D:/Foc/my_motor/sw/drivers/adc/src/32b/f28x/f2802x/adc.c")
TMS320C2000 Assembler PC v6.2.5 Mon Jul 10 09:53:36 2017

Tools Copyright (c) 1996-2014 Texas Instruments Incorporated
C:\Users\wmj\AppData\Local\Temp\0622010                              PAGE   18

     892                      .dwattr $C$DW$70, DW_AT_TI_end_line(0x26a)
     893                      .dwattr $C$DW$70, DW_AT_TI_end_column(0x01)
     894                      .dwendentry
     895                      .dwendtag $C$DW$70
     896              
     897 000000cd               .sect   ".text"
     898                      .clink
     899                      .global _ADC_setIntSrc
     900              
     901              $C$DW$76        .dwtag  DW_TAG_subprogram, DW_AT_name("ADC_setIntSrc")
     902                      .dwattr $C$DW$76, DW_AT_low_pc(_ADC_setIntSrc)
     903                      .dwattr $C$DW$76, DW_AT_high_pc(0x00)
     904                      .dwattr $C$DW$76, DW_AT_TI_symbol_name("_ADC_setIntSrc")
     905                      .dwattr $C$DW$76, DW_AT_external
     906                      .dwattr $C$DW$76, DW_AT_TI_begin_file("D:/Foc/my_motor/sw/drivers/adc/src/32b/f28x/f2802x/adc.c")
     907                      .dwattr $C$DW$76, DW_AT_TI_begin_line(0x140)
     908                      .dwattr $C$DW$76, DW_AT_TI_begin_column(0x06)
     909                      .dwattr $C$DW$76, DW_AT_TI_max_frame_size(-2)
     910                      .dwpsn  file "D:/Foc/my_motor/sw/drivers/adc/src/32b/f28x/f2802x/adc.c",line 321,column 1,is_stmt,add
     911              
     912                      .dwfde $C$DW$CIE, _ADC_setIntSrc
     913              $C$DW$77        .dwtag  DW_TAG_formal_parameter, DW_AT_name("adcHandle")
     914                      .dwattr $C$DW$77, DW_AT_TI_symbol_name("_adcHandle")
     915                      .dwattr $C$DW$77, DW_AT_type(*$C$DW$T$71)
     916                      .dwattr $C$DW$77, DW_AT_location[DW_OP_reg12]
     917              $C$DW$78        .dwtag  DW_TAG_formal_parameter, DW_AT_name("intNumber")
     918                      .dwattr $C$DW$78, DW_AT_TI_symbol_name("_intNumber")
     919                      .dwattr $C$DW$78, DW_AT_type(*$C$DW$T$30)
     920                      .dwattr $C$DW$78, DW_AT_location[DW_OP_reg0]
     921              $C$DW$79        .dwtag  DW_TAG_formal_parameter, DW_AT_name("intSrc")
     922                      .dwattr $C$DW$79, DW_AT_TI_symbol_name("_intSrc")
     923                      .dwattr $C$DW$79, DW_AT_type(*$C$DW$T$42)
     924                      .dwattr $C$DW$79, DW_AT_location[DW_OP_reg1]
     925              
     926              ;***************************************************************
     927              ;* FNAME: _ADC_setIntSrc                FR SIZE:   0           *
     928              ;*                                                             *
     929              ;* FUNCTION ENVIRONMENT                                        *
     930              ;*                                                             *
     931              ;* FUNCTION PROPERTIES                                         *
     932              ;*                            0 Parameter,  0 Auto,  0 SOE     *
     933              ;***************************************************************
     934              
     935              _ADC_setIntSrc:
     936              ;* AR5   assigned to $O$C1
     937              ;* T     assigned to $O$C2
     938              ;* AR4   assigned to _adcHandle
     939              $C$DW$80        .dwtag  DW_TAG_variable, DW_AT_name("adcHandle")
     940                      .dwattr $C$DW$80, DW_AT_TI_symbol_name("_adcHandle")
     941                      .dwattr $C$DW$80, DW_AT_type(*$C$DW$T$78)
     942                      .dwattr $C$DW$80, DW_AT_location[DW_OP_reg12]
     943              ;* AR6   assigned to _intNumber
     944              $C$DW$81        .dwtag  DW_TAG_variable, DW_AT_name("intNumber")
     945                      .dwattr $C$DW$81, DW_AT_TI_symbol_name("_intNumber")
     946                      .dwattr $C$DW$81, DW_AT_type(*$C$DW$T$30)
TMS320C2000 Assembler PC v6.2.5 Mon Jul 10 09:53:36 2017

Tools Copyright (c) 1996-2014 Texas Instruments Incorporated
C:\Users\wmj\AppData\Local\Temp\0622010                              PAGE   19

     947                      .dwattr $C$DW$81, DW_AT_location[DW_OP_reg16]
     948              ;* AR7   assigned to _intSrc
     949              $C$DW$82        .dwtag  DW_TAG_variable, DW_AT_name("intSrc")
     950                      .dwattr $C$DW$82, DW_AT_TI_symbol_name("_intSrc")
     951                      .dwattr $C$DW$82, DW_AT_type(*$C$DW$T$42)
     952                      .dwattr $C$DW$82, DW_AT_location[DW_OP_reg18]
     953                      .dwcfi  cfa_offset, -2
     954                      .dwcfi  save_reg_to_mem, 26, 0
     955                      .dwcfi  save_reg_to_reg, 78, 26
     956 000000cd 80A8          MOVZ      AR7,AH                ; [CPU_] |321| 
     957 000000ce 88A9          MOVZ      AR6,AL                ; [CPU_] |321| 
     958 000000cf 7622   EALLOW
     959                      .dwpsn  file "D:/Foc/my_motor/sw/drivers/adc/src/32b/f28x/f2802x/adc.c",line 333,column 3,is_stmt
     960 000000d0 28AC          MOV       T,#8                  ; [CPU_] |333| 
         000000d1 0008 
     961 000000d2 5603          MOV       ACC,AR6 << #3         ; [CPU_] |333| 
         000000d3 03A6 
     962 000000d4 8F40          MOVL      XAR5,#26120           ; [CPU_U] |333| 
         000000d5 6608 
     963 000000d6 FF5E          NOT       AL                    ; [CPU_] |333| 
     964 000000d7 9008          ANDB      AL,#0x08              ; [CPU_] |333| 
     965 000000d8 74AC          SUB       T,AL                  ; [CPU_] |333| 
     966 000000d9 92A6          MOV       AL,AR6                ; [CPU_] |333| 
     967 000000da FFA0          ASR       AL,1                  ; [CPU_] |333| 
     968 000000db 88A9          MOVZ      AR6,AL                ; [CPU_] |333| 
     969 000000dc A8A9          MOVL      ACC,XAR4              ; [CPU_] |333| 
     970 000000dd 0DA6          ADDU      ACC,AR6               ; [CPU_] |333| 
     971 000000de 5601          ADDL      XAR5,ACC              ; [CPU_] |333| 
         000000df 00A5 
     972 000000e0 9A1F          MOVB      AL,#31                ; [CPU_] |333| 
     973 000000e1 FF66          LSL       AL,T                  ; [CPU_] |333| 
     974 000000e2 FF5E          NOT       AL                    ; [CPU_] |333| 
     975 000000e3 C0C5          AND       *+XAR5[0],AL          ; [CPU_] |333| 
     976                      .dwpsn  file "D:/Foc/my_motor/sw/drivers/adc/src/32b/f28x/f2802x/adc.c",line 337,column 3,is_stmt
     977 000000e4 92A7          MOV       AL,AR7                ; [CPU_] |337| 
     978 000000e5 FF66          LSL       AL,T                  ; [CPU_] |337| 
     979 000000e6 98C5          OR        *+XAR5[0],AL          ; [CPU_] |337| 
     980 000000e7 761A   EDIS
     981 000000e8 FF69          SPM       #0                    ; [CPU_] 
     982              $C$DW$83        .dwtag  DW_TAG_TI_branch
     983                      .dwattr $C$DW$83, DW_AT_low_pc(0x00)
     984                      .dwattr $C$DW$83, DW_AT_TI_return
     985 000000e9 0006          LRETR     ; [CPU_] 
     986                      ; return occurs ; [] 
     987                      .dwattr $C$DW$76, DW_AT_TI_end_file("D:/Foc/my_motor/sw/drivers/adc/src/32b/f28x/f2802x/adc.c")
     988                      .dwattr $C$DW$76, DW_AT_TI_end_line(0x157)
     989                      .dwattr $C$DW$76, DW_AT_TI_end_column(0x01)
     990                      .dwendentry
     991                      .dwendtag $C$DW$76
     992              
     993 000000ea               .sect   ".text"
     994                      .clink
     995                      .global _ADC_setIntPulseGenMode
     996              
     997              $C$DW$84        .dwtag  DW_TAG_subprogram, DW_AT_name("ADC_setIntPulseGenMode")
TMS320C2000 Assembler PC v6.2.5 Mon Jul 10 09:53:36 2017

Tools Copyright (c) 1996-2014 Texas Instruments Incorporated
C:\Users\wmj\AppData\Local\Temp\0622010                              PAGE   20

     998                      .dwattr $C$DW$84, DW_AT_low_pc(_ADC_setIntPulseGenMode)
     999                      .dwattr $C$DW$84, DW_AT_high_pc(0x00)
    1000                      .dwattr $C$DW$84, DW_AT_TI_symbol_name("_ADC_setIntPulseGenMode")
    1001                      .dwattr $C$DW$84, DW_AT_external
    1002                      .dwattr $C$DW$84, DW_AT_TI_begin_file("D:/Foc/my_motor/sw/drivers/adc/src/32b/f28x/f2802x/adc.c")
    1003                      .dwattr $C$DW$84, DW_AT_TI_begin_line(0x12c)
    1004                      .dwattr $C$DW$84, DW_AT_TI_begin_column(0x06)
    1005                      .dwattr $C$DW$84, DW_AT_TI_max_frame_size(-2)
    1006                      .dwpsn  file "D:/Foc/my_motor/sw/drivers/adc/src/32b/f28x/f2802x/adc.c",line 301,column 1,is_stmt,add
    1007              
    1008                      .dwfde $C$DW$CIE, _ADC_setIntPulseGenMode
    1009              $C$DW$85        .dwtag  DW_TAG_formal_parameter, DW_AT_name("adcHandle")
    1010                      .dwattr $C$DW$85, DW_AT_TI_symbol_name("_adcHandle")
    1011                      .dwattr $C$DW$85, DW_AT_type(*$C$DW$T$71)
    1012                      .dwattr $C$DW$85, DW_AT_location[DW_OP_reg12]
    1013              $C$DW$86        .dwtag  DW_TAG_formal_parameter, DW_AT_name("pulseMode")
    1014                      .dwattr $C$DW$86, DW_AT_TI_symbol_name("_pulseMode")
    1015                      .dwattr $C$DW$86, DW_AT_type(*$C$DW$T$39)
    1016                      .dwattr $C$DW$86, DW_AT_location[DW_OP_reg0]
    1017              
    1018              ;***************************************************************
    1019              ;* FNAME: _ADC_setIntPulseGenMode       FR SIZE:   0           *
    1020              ;*                                                             *
    1021              ;* FUNCTION ENVIRONMENT                                        *
    1022              ;*                                                             *
    1023              ;* FUNCTION PROPERTIES                                         *
    1024              ;*                            0 Parameter,  0 Auto,  0 SOE     *
    1025              ;***************************************************************
    1026              
    1027              _ADC_setIntPulseGenMode:
    1028              ;* AL    assigned to _adcHandle
    1029              $C$DW$87        .dwtag  DW_TAG_variable, DW_AT_name("adcHandle")
    1030                      .dwattr $C$DW$87, DW_AT_TI_symbol_name("_adcHandle")
    1031                      .dwattr $C$DW$87, DW_AT_type(*$C$DW$T$78)
    1032                      .dwattr $C$DW$87, DW_AT_location[DW_OP_reg0]
    1033              ;* AR6   assigned to _pulseMode
    1034              $C$DW$88        .dwtag  DW_TAG_variable, DW_AT_name("pulseMode")
    1035                      .dwattr $C$DW$88, DW_AT_TI_symbol_name("_pulseMode")
    1036                      .dwattr $C$DW$88, DW_AT_type(*$C$DW$T$39)
    1037                      .dwattr $C$DW$88, DW_AT_location[DW_OP_reg16]
    1038                      .dwcfi  cfa_offset, -2
    1039                      .dwcfi  save_reg_to_mem, 26, 0
    1040                      .dwcfi  save_reg_to_reg, 78, 26
    1041 000000ea 88A9          MOVZ      AR6,AL                ; [CPU_] |301| 
    1042 000000eb A8A9          MOVL      ACC,XAR4              ; [CPU_] |301| 
    1043 000000ec 7622   EALLOW
    1044                      .dwpsn  file "D:/Foc/my_motor/sw/drivers/adc/src/32b/f28x/f2802x/adc.c",line 308,column 3,is_stmt
    1045 000000ed 8F00          MOVL      XAR4,#26112           ; [CPU_U] |308| 
         000000ee 6600 
    1046 000000ef 5601          ADDL      XAR4,ACC              ; [CPU_] |308| 
         000000f0 00A4 
    1047 000000f1 18C4          AND       *+XAR4[0],#0xfffb     ; [CPU_] |308| 
         000000f2 FFFB 
    1048                      .dwpsn  file "D:/Foc/my_motor/sw/drivers/adc/src/32b/f28x/f2802x/adc.c",line 312,column 3,is_stmt
    1049 000000f3 8F00          MOVL      XAR4,#26112           ; [CPU_U] |312| 
TMS320C2000 Assembler PC v6.2.5 Mon Jul 10 09:53:36 2017

Tools Copyright (c) 1996-2014 Texas Instruments Incorporated
C:\Users\wmj\AppData\Local\Temp\0622010                              PAGE   21

         000000f4 6600 
    1050 000000f5 5601          ADDL      XAR4,ACC              ; [CPU_] |312| 
         000000f6 00A4 
    1051 000000f7 92A6          MOV       AL,AR6                ; [CPU_] |312| 
    1052 000000f8 98C4          OR        *+XAR4[0],AL          ; [CPU_] |312| 
    1053 000000f9 761A   EDIS
    1054 000000fa FF69          SPM       #0                    ; [CPU_] 
    1055              $C$DW$89        .dwtag  DW_TAG_TI_branch
    1056                      .dwattr $C$DW$89, DW_AT_low_pc(0x00)
    1057                      .dwattr $C$DW$89, DW_AT_TI_return
    1058 000000fb 0006          LRETR     ; [CPU_] 
    1059                      ; return occurs ; [] 
    1060                      .dwattr $C$DW$84, DW_AT_TI_end_file("D:/Foc/my_motor/sw/drivers/adc/src/32b/f28x/f2802x/adc.c")
    1061                      .dwattr $C$DW$84, DW_AT_TI_end_line(0x13d)
    1062                      .dwattr $C$DW$84, DW_AT_TI_end_column(0x01)
    1063                      .dwendentry
    1064                      .dwendtag $C$DW$84
    1065              
    1066 000000fc               .sect   ".text"
    1067                      .clink
    1068                      .global _ADC_setIntMode
    1069              
    1070              $C$DW$90        .dwtag  DW_TAG_subprogram, DW_AT_name("ADC_setIntMode")
    1071                      .dwattr $C$DW$90, DW_AT_low_pc(_ADC_setIntMode)
    1072                      .dwattr $C$DW$90, DW_AT_high_pc(0x00)
    1073                      .dwattr $C$DW$90, DW_AT_TI_symbol_name("_ADC_setIntMode")
    1074                      .dwattr $C$DW$90, DW_AT_external
    1075                      .dwattr $C$DW$90, DW_AT_TI_begin_file("D:/Foc/my_motor/sw/drivers/adc/src/32b/f28x/f2802x/adc.c")
    1076                      .dwattr $C$DW$90, DW_AT_TI_begin_line(0x114)
    1077                      .dwattr $C$DW$90, DW_AT_TI_begin_column(0x06)
    1078                      .dwattr $C$DW$90, DW_AT_TI_max_frame_size(-2)
    1079                      .dwpsn  file "D:/Foc/my_motor/sw/drivers/adc/src/32b/f28x/f2802x/adc.c",line 277,column 1,is_stmt,add
    1080              
    1081                      .dwfde $C$DW$CIE, _ADC_setIntMode
    1082              $C$DW$91        .dwtag  DW_TAG_formal_parameter, DW_AT_name("adcHandle")
    1083                      .dwattr $C$DW$91, DW_AT_TI_symbol_name("_adcHandle")
    1084                      .dwattr $C$DW$91, DW_AT_type(*$C$DW$T$71)
    1085                      .dwattr $C$DW$91, DW_AT_location[DW_OP_reg12]
    1086              $C$DW$92        .dwtag  DW_TAG_formal_parameter, DW_AT_name("intNumber")
    1087                      .dwattr $C$DW$92, DW_AT_TI_symbol_name("_intNumber")
    1088                      .dwattr $C$DW$92, DW_AT_type(*$C$DW$T$30)
    1089                      .dwattr $C$DW$92, DW_AT_location[DW_OP_reg0]
    1090              $C$DW$93        .dwtag  DW_TAG_formal_parameter, DW_AT_name("intMode")
    1091                      .dwattr $C$DW$93, DW_AT_TI_symbol_name("_intMode")
    1092                      .dwattr $C$DW$93, DW_AT_type(*$C$DW$T$36)
    1093                      .dwattr $C$DW$93, DW_AT_location[DW_OP_reg1]
    1094              
    1095              ;***************************************************************
    1096              ;* FNAME: _ADC_setIntMode               FR SIZE:   0           *
    1097              ;*                                                             *
    1098              ;* FUNCTION ENVIRONMENT                                        *
    1099              ;*                                                             *
    1100              ;* FUNCTION PROPERTIES                                         *
    1101              ;*                            0 Parameter,  0 Auto,  0 SOE     *
    1102              ;***************************************************************
TMS320C2000 Assembler PC v6.2.5 Mon Jul 10 09:53:36 2017

Tools Copyright (c) 1996-2014 Texas Instruments Incorporated
C:\Users\wmj\AppData\Local\Temp\0622010                              PAGE   22

    1103              
    1104              _ADC_setIntMode:
    1105              ;* AR5   assigned to $O$C1
    1106              ;* T     assigned to $O$C2
    1107              ;* AR4   assigned to _adcHandle
    1108              $C$DW$94        .dwtag  DW_TAG_variable, DW_AT_name("adcHandle")
    1109                      .dwattr $C$DW$94, DW_AT_TI_symbol_name("_adcHandle")
    1110                      .dwattr $C$DW$94, DW_AT_type(*$C$DW$T$78)
    1111                      .dwattr $C$DW$94, DW_AT_location[DW_OP_reg12]
    1112              ;* AR6   assigned to _intNumber
    1113              $C$DW$95        .dwtag  DW_TAG_variable, DW_AT_name("intNumber")
    1114                      .dwattr $C$DW$95, DW_AT_TI_symbol_name("_intNumber")
    1115                      .dwattr $C$DW$95, DW_AT_type(*$C$DW$T$30)
    1116                      .dwattr $C$DW$95, DW_AT_location[DW_OP_reg16]
    1117              ;* AR7   assigned to _intMode
    1118              $C$DW$96        .dwtag  DW_TAG_variable, DW_AT_name("intMode")
    1119                      .dwattr $C$DW$96, DW_AT_TI_symbol_name("_intMode")
    1120                      .dwattr $C$DW$96, DW_AT_type(*$C$DW$T$36)
    1121                      .dwattr $C$DW$96, DW_AT_location[DW_OP_reg18]
    1122                      .dwcfi  cfa_offset, -2
    1123                      .dwcfi  save_reg_to_mem, 26, 0
    1124                      .dwcfi  save_reg_to_reg, 78, 26
    1125 000000fc 80A8          MOVZ      AR7,AH                ; [CPU_] |277| 
    1126 000000fd 88A9          MOVZ      AR6,AL                ; [CPU_] |277| 
    1127 000000fe 7622   EALLOW
    1128                      .dwpsn  file "D:/Foc/my_motor/sw/drivers/adc/src/32b/f28x/f2802x/adc.c",line 288,column 3,is_stmt
    1129 000000ff 28AC          MOV       T,#8                  ; [CPU_] |288| 
         00000100 0008 
    1130 00000101 5603          MOV       ACC,AR6 << #3         ; [CPU_] |288| 
         00000102 03A6 
    1131 00000103 8F40          MOVL      XAR5,#26120           ; [CPU_U] |288| 
         00000104 6608 
    1132 00000105 FF5E          NOT       AL                    ; [CPU_] |288| 
    1133 00000106 9008          ANDB      AL,#0x08              ; [CPU_] |288| 
    1134 00000107 74AC          SUB       T,AL                  ; [CPU_] |288| 
    1135 00000108 92A6          MOV       AL,AR6                ; [CPU_] |288| 
    1136 00000109 FFA0          ASR       AL,1                  ; [CPU_] |288| 
    1137 0000010a 88A9          MOVZ      AR6,AL                ; [CPU_] |288| 
    1138 0000010b A8A9          MOVL      ACC,XAR4              ; [CPU_] |288| 
    1139 0000010c 0DA6          ADDU      ACC,AR6               ; [CPU_] |288| 
    1140 0000010d 5601          ADDL      XAR5,ACC              ; [CPU_] |288| 
         0000010e 00A5 
    1141 0000010f 9A40          MOVB      AL,#64                ; [CPU_] |288| 
    1142 00000110 FF66          LSL       AL,T                  ; [CPU_] |288| 
    1143 00000111 FF5E          NOT       AL                    ; [CPU_] |288| 
    1144 00000112 C0C5          AND       *+XAR5[0],AL          ; [CPU_] |288| 
    1145                      .dwpsn  file "D:/Foc/my_motor/sw/drivers/adc/src/32b/f28x/f2802x/adc.c",line 292,column 3,is_stmt
    1146 00000113 92A7          MOV       AL,AR7                ; [CPU_] |292| 
    1147 00000114 FF66          LSL       AL,T                  ; [CPU_] |292| 
    1148 00000115 98C5          OR        *+XAR5[0],AL          ; [CPU_] |292| 
    1149 00000116 761A   EDIS
    1150 00000117 FF69          SPM       #0                    ; [CPU_] 
    1151              $C$DW$97        .dwtag  DW_TAG_TI_branch
    1152                      .dwattr $C$DW$97, DW_AT_low_pc(0x00)
    1153                      .dwattr $C$DW$97, DW_AT_TI_return
TMS320C2000 Assembler PC v6.2.5 Mon Jul 10 09:53:36 2017

Tools Copyright (c) 1996-2014 Texas Instruments Incorporated
C:\Users\wmj\AppData\Local\Temp\0622010                              PAGE   23

    1154 00000118 0006          LRETR     ; [CPU_] 
    1155                      ; return occurs ; [] 
    1156                      .dwattr $C$DW$90, DW_AT_TI_end_file("D:/Foc/my_motor/sw/drivers/adc/src/32b/f28x/f2802x/adc.c")
    1157                      .dwattr $C$DW$90, DW_AT_TI_end_line(0x129)
    1158                      .dwattr $C$DW$90, DW_AT_TI_end_column(0x01)
    1159                      .dwendentry
    1160                      .dwendtag $C$DW$90
    1161              
    1162 00000119               .sect   ".text"
    1163                      .clink
    1164                      .global _ADC_setDivideSelect
    1165              
    1166              $C$DW$98        .dwtag  DW_TAG_subprogram, DW_AT_name("ADC_setDivideSelect")
    1167                      .dwattr $C$DW$98, DW_AT_low_pc(_ADC_setDivideSelect)
    1168                      .dwattr $C$DW$98, DW_AT_high_pc(0x00)
    1169                      .dwattr $C$DW$98, DW_AT_TI_symbol_name("_ADC_setDivideSelect")
    1170                      .dwattr $C$DW$98, DW_AT_external
    1171                      .dwattr $C$DW$98, DW_AT_TI_begin_file("D:/Foc/my_motor/sw/drivers/adc/src/32b/f28x/f2802x/adc.c")
    1172                      .dwattr $C$DW$98, DW_AT_TI_begin_line(0x202)
    1173                      .dwattr $C$DW$98, DW_AT_TI_begin_column(0x06)
    1174                      .dwattr $C$DW$98, DW_AT_TI_max_frame_size(-2)
    1175                      .dwpsn  file "D:/Foc/my_motor/sw/drivers/adc/src/32b/f28x/f2802x/adc.c",line 515,column 1,is_stmt,add
    1176              
    1177                      .dwfde $C$DW$CIE, _ADC_setDivideSelect
    1178              $C$DW$99        .dwtag  DW_TAG_formal_parameter, DW_AT_name("adcHandle")
    1179                      .dwattr $C$DW$99, DW_AT_TI_symbol_name("_adcHandle")
    1180                      .dwattr $C$DW$99, DW_AT_type(*$C$DW$T$71)
    1181                      .dwattr $C$DW$99, DW_AT_location[DW_OP_reg12]
    1182              $C$DW$100       .dwtag  DW_TAG_formal_parameter, DW_AT_name("divSelect")
    1183                      .dwattr $C$DW$100, DW_AT_TI_symbol_name("_divSelect")
    1184                      .dwattr $C$DW$100, DW_AT_type(*$C$DW$T$69)
    1185                      .dwattr $C$DW$100, DW_AT_location[DW_OP_reg0]
    1186              
    1187              ;***************************************************************
    1188              ;* FNAME: _ADC_setDivideSelect          FR SIZE:   0           *
    1189              ;*                                                             *
    1190              ;* FUNCTION ENVIRONMENT                                        *
    1191              ;*                                                             *
    1192              ;* FUNCTION PROPERTIES                                         *
    1193              ;*                            0 Parameter,  0 Auto,  0 SOE     *
    1194              ;***************************************************************
    1195              
    1196              _ADC_setDivideSelect:
    1197              ;* AL    assigned to _adcHandle
    1198              $C$DW$101       .dwtag  DW_TAG_variable, DW_AT_name("adcHandle")
    1199                      .dwattr $C$DW$101, DW_AT_TI_symbol_name("_adcHandle")
    1200                      .dwattr $C$DW$101, DW_AT_type(*$C$DW$T$78)
    1201                      .dwattr $C$DW$101, DW_AT_location[DW_OP_reg0]
    1202              ;* AR6   assigned to _divSelect
    1203              $C$DW$102       .dwtag  DW_TAG_variable, DW_AT_name("divSelect")
    1204                      .dwattr $C$DW$102, DW_AT_TI_symbol_name("_divSelect")
    1205                      .dwattr $C$DW$102, DW_AT_type(*$C$DW$T$69)
    1206                      .dwattr $C$DW$102, DW_AT_location[DW_OP_reg16]
    1207                      .dwcfi  cfa_offset, -2
    1208                      .dwcfi  save_reg_to_mem, 26, 0
TMS320C2000 Assembler PC v6.2.5 Mon Jul 10 09:53:36 2017

Tools Copyright (c) 1996-2014 Texas Instruments Incorporated
C:\Users\wmj\AppData\Local\Temp\0622010                              PAGE   24

    1209                      .dwcfi  save_reg_to_reg, 78, 26
    1210 00000119 88A9          MOVZ      AR6,AL                ; [CPU_] |515| 
    1211 0000011a A8A9          MOVL      ACC,XAR4              ; [CPU_] |515| 
    1212 0000011b 7622   EALLOW
    1213                      .dwpsn  file "D:/Foc/my_motor/sw/drivers/adc/src/32b/f28x/f2802x/adc.c",line 522,column 3,is_stmt
    1214 0000011c 8F00          MOVL      XAR4,#26113           ; [CPU_U] |522| 
         0000011d 6601 
    1215 0000011e 5601          ADDL      XAR4,ACC              ; [CPU_] |522| 
         0000011f 00A4 
    1216 00000120 18C4          AND       *+XAR4[0],#0xfffe     ; [CPU_] |522| 
         00000121 FFFE 
    1217                      .dwpsn  file "D:/Foc/my_motor/sw/drivers/adc/src/32b/f28x/f2802x/adc.c",line 526,column 3,is_stmt
    1218 00000122 8F00          MOVL      XAR4,#26113           ; [CPU_U] |526| 
         00000123 6601 
    1219 00000124 5601          ADDL      XAR4,ACC              ; [CPU_] |526| 
         00000125 00A4 
    1220 00000126 92A6          MOV       AL,AR6                ; [CPU_] |526| 
    1221 00000127 98C4          OR        *+XAR4[0],AL          ; [CPU_] |526| 
    1222 00000128 761A   EDIS
    1223 00000129 FF69          SPM       #0                    ; [CPU_] 
    1224              $C$DW$103       .dwtag  DW_TAG_TI_branch
    1225                      .dwattr $C$DW$103, DW_AT_low_pc(0x00)
    1226                      .dwattr $C$DW$103, DW_AT_TI_return
    1227 0000012a 0006          LRETR     ; [CPU_] 
    1228                      ; return occurs ; [] 
    1229                      .dwattr $C$DW$98, DW_AT_TI_end_file("D:/Foc/my_motor/sw/drivers/adc/src/32b/f28x/f2802x/adc.c")
    1230                      .dwattr $C$DW$98, DW_AT_TI_end_line(0x213)
    1231                      .dwattr $C$DW$98, DW_AT_TI_end_column(0x01)
    1232                      .dwendentry
    1233                      .dwendtag $C$DW$98
    1234              
    1235 0000012b               .sect   ".text"
    1236                      .clink
    1237                      .global _ADC_reset
    1238              
    1239              $C$DW$104       .dwtag  DW_TAG_subprogram, DW_AT_name("ADC_reset")
    1240                      .dwattr $C$DW$104, DW_AT_low_pc(_ADC_reset)
    1241                      .dwattr $C$DW$104, DW_AT_high_pc(0x00)
    1242                      .dwattr $C$DW$104, DW_AT_TI_symbol_name("_ADC_reset")
    1243                      .dwattr $C$DW$104, DW_AT_external
    1244                      .dwattr $C$DW$104, DW_AT_TI_begin_file("D:/Foc/my_motor/sw/drivers/adc/src/32b/f28x/f2802x/adc.c")
    1245                      .dwattr $C$DW$104, DW_AT_TI_begin_line(0xf1)
    1246                      .dwattr $C$DW$104, DW_AT_TI_begin_column(0x06)
    1247                      .dwattr $C$DW$104, DW_AT_TI_max_frame_size(-2)
    1248                      .dwpsn  file "D:/Foc/my_motor/sw/drivers/adc/src/32b/f28x/f2802x/adc.c",line 242,column 1,is_stmt,add
    1249              
    1250                      .dwfde $C$DW$CIE, _ADC_reset
    1251              $C$DW$105       .dwtag  DW_TAG_formal_parameter, DW_AT_name("adcHandle")
    1252                      .dwattr $C$DW$105, DW_AT_TI_symbol_name("_adcHandle")
    1253                      .dwattr $C$DW$105, DW_AT_type(*$C$DW$T$71)
    1254                      .dwattr $C$DW$105, DW_AT_location[DW_OP_reg12]
    1255              
    1256              ;***************************************************************
    1257              ;* FNAME: _ADC_reset                    FR SIZE:   0           *
    1258              ;*                                                             *
TMS320C2000 Assembler PC v6.2.5 Mon Jul 10 09:53:36 2017

Tools Copyright (c) 1996-2014 Texas Instruments Incorporated
C:\Users\wmj\AppData\Local\Temp\0622010                              PAGE   25

    1259              ;* FUNCTION ENVIRONMENT                                        *
    1260              ;*                                                             *
    1261              ;* FUNCTION PROPERTIES                                         *
    1262              ;*                            0 Parameter,  0 Auto,  0 SOE     *
    1263              ;***************************************************************
    1264              
    1265              _ADC_reset:
    1266              ;* AL    assigned to _adcHandle
    1267              $C$DW$106       .dwtag  DW_TAG_variable, DW_AT_name("adcHandle")
    1268                      .dwattr $C$DW$106, DW_AT_TI_symbol_name("_adcHandle")
    1269                      .dwattr $C$DW$106, DW_AT_type(*$C$DW$T$78)
    1270                      .dwattr $C$DW$106, DW_AT_location[DW_OP_reg0]
    1271                      .dwcfi  cfa_offset, -2
    1272                      .dwcfi  save_reg_to_mem, 26, 0
    1273                      .dwcfi  save_reg_to_reg, 78, 26
    1274 0000012b A8A9          MOVL      ACC,XAR4              ; [CPU_] |242| 
    1275 0000012c 7622   EALLOW
    1276                      .dwpsn  file "D:/Foc/my_motor/sw/drivers/adc/src/32b/f28x/f2802x/adc.c",line 249,column 3,is_stmt
    1277 0000012d 8F00          MOVL      XAR4,#26112           ; [CPU_U] |249| 
         0000012e 6600 
    1278 0000012f 5601          ADDL      XAR4,ACC              ; [CPU_] |249| 
         00000130 00A4 
    1279 00000131 1AC4          OR        *+XAR4[0],#0x8000     ; [CPU_] |249| 
         00000132 8000 
    1280 00000133 761A   EDIS
    1281 00000134 FF69          SPM       #0                    ; [CPU_] 
    1282              $C$DW$107       .dwtag  DW_TAG_TI_branch
    1283                      .dwattr $C$DW$107, DW_AT_low_pc(0x00)
    1284                      .dwattr $C$DW$107, DW_AT_TI_return
    1285 00000135 0006          LRETR     ; [CPU_] 
    1286                      ; return occurs ; [] 
    1287                      .dwattr $C$DW$104, DW_AT_TI_end_file("D:/Foc/my_motor/sw/drivers/adc/src/32b/f28x/f2802x/adc.c")
    1288                      .dwattr $C$DW$104, DW_AT_TI_end_line(0xfe)
    1289                      .dwattr $C$DW$104, DW_AT_TI_end_column(0x01)
    1290                      .dwendentry
    1291                      .dwendtag $C$DW$104
    1292              
    1293 00000136               .sect   ".text"
    1294                      .clink
    1295                      .global _ADC_powerUp
    1296              
    1297              $C$DW$108       .dwtag  DW_TAG_subprogram, DW_AT_name("ADC_powerUp")
    1298                      .dwattr $C$DW$108, DW_AT_low_pc(_ADC_powerUp)
    1299                      .dwattr $C$DW$108, DW_AT_high_pc(0x00)
    1300                      .dwattr $C$DW$108, DW_AT_TI_symbol_name("_ADC_powerUp")
    1301                      .dwattr $C$DW$108, DW_AT_external
    1302                      .dwattr $C$DW$108, DW_AT_TI_begin_file("D:/Foc/my_motor/sw/drivers/adc/src/32b/f28x/f2802x/adc.c")
    1303                      .dwattr $C$DW$108, DW_AT_TI_begin_line(0xe1)
    1304                      .dwattr $C$DW$108, DW_AT_TI_begin_column(0x06)
    1305                      .dwattr $C$DW$108, DW_AT_TI_max_frame_size(-2)
    1306                      .dwpsn  file "D:/Foc/my_motor/sw/drivers/adc/src/32b/f28x/f2802x/adc.c",line 226,column 1,is_stmt,add
    1307              
    1308                      .dwfde $C$DW$CIE, _ADC_powerUp
    1309              $C$DW$109       .dwtag  DW_TAG_formal_parameter, DW_AT_name("adcHandle")
    1310                      .dwattr $C$DW$109, DW_AT_TI_symbol_name("_adcHandle")
TMS320C2000 Assembler PC v6.2.5 Mon Jul 10 09:53:36 2017

Tools Copyright (c) 1996-2014 Texas Instruments Incorporated
C:\Users\wmj\AppData\Local\Temp\0622010                              PAGE   26

    1311                      .dwattr $C$DW$109, DW_AT_type(*$C$DW$T$71)
    1312                      .dwattr $C$DW$109, DW_AT_location[DW_OP_reg12]
    1313              
    1314              ;***************************************************************
    1315              ;* FNAME: _ADC_powerUp                  FR SIZE:   0           *
    1316              ;*                                                             *
    1317              ;* FUNCTION ENVIRONMENT                                        *
    1318              ;*                                                             *
    1319              ;* FUNCTION PROPERTIES                                         *
    1320              ;*                            0 Parameter,  0 Auto,  0 SOE     *
    1321              ;***************************************************************
    1322              
    1323              _ADC_powerUp:
    1324              ;* AL    assigned to _adcHandle
    1325              $C$DW$110       .dwtag  DW_TAG_variable, DW_AT_name("adcHandle")
    1326                      .dwattr $C$DW$110, DW_AT_TI_symbol_name("_adcHandle")
    1327                      .dwattr $C$DW$110, DW_AT_type(*$C$DW$T$78)
    1328                      .dwattr $C$DW$110, DW_AT_location[DW_OP_reg0]
    1329                      .dwcfi  cfa_offset, -2
    1330                      .dwcfi  save_reg_to_mem, 26, 0
    1331                      .dwcfi  save_reg_to_reg, 78, 26
    1332 00000136 A8A9          MOVL      ACC,XAR4              ; [CPU_] |226| 
    1333 00000137 7622   EALLOW
    1334                      .dwpsn  file "D:/Foc/my_motor/sw/drivers/adc/src/32b/f28x/f2802x/adc.c",line 233,column 3,is_stmt
    1335 00000138 8F00          MOVL      XAR4,#26112           ; [CPU_U] |233| 
         00000139 6600 
    1336 0000013a 5601          ADDL      XAR4,ACC              ; [CPU_] |233| 
         0000013b 00A4 
    1337 0000013c 1AC4          OR        *+XAR4[0],#0x0080     ; [CPU_] |233| 
         0000013d 0080 
    1338 0000013e 761A   EDIS
    1339 0000013f FF69          SPM       #0                    ; [CPU_] 
    1340              $C$DW$111       .dwtag  DW_TAG_TI_branch
    1341                      .dwattr $C$DW$111, DW_AT_low_pc(0x00)
    1342                      .dwattr $C$DW$111, DW_AT_TI_return
    1343 00000140 0006          LRETR     ; [CPU_] 
    1344                      ; return occurs ; [] 
    1345                      .dwattr $C$DW$108, DW_AT_TI_end_file("D:/Foc/my_motor/sw/drivers/adc/src/32b/f28x/f2802x/adc.c")
    1346                      .dwattr $C$DW$108, DW_AT_TI_end_line(0xee)
    1347                      .dwattr $C$DW$108, DW_AT_TI_end_column(0x01)
    1348                      .dwendentry
    1349                      .dwendtag $C$DW$108
    1350              
    1351 00000141               .sect   ".text"
    1352                      .clink
    1353                      .global _ADC_powerDown
    1354              
    1355              $C$DW$112       .dwtag  DW_TAG_subprogram, DW_AT_name("ADC_powerDown")
    1356                      .dwattr $C$DW$112, DW_AT_low_pc(_ADC_powerDown)
    1357                      .dwattr $C$DW$112, DW_AT_high_pc(0x00)
    1358                      .dwattr $C$DW$112, DW_AT_TI_symbol_name("_ADC_powerDown")
    1359                      .dwattr $C$DW$112, DW_AT_external
    1360                      .dwattr $C$DW$112, DW_AT_TI_begin_file("D:/Foc/my_motor/sw/drivers/adc/src/32b/f28x/f2802x/adc.c")
    1361                      .dwattr $C$DW$112, DW_AT_TI_begin_line(0xd1)
    1362                      .dwattr $C$DW$112, DW_AT_TI_begin_column(0x06)
TMS320C2000 Assembler PC v6.2.5 Mon Jul 10 09:53:36 2017

Tools Copyright (c) 1996-2014 Texas Instruments Incorporated
C:\Users\wmj\AppData\Local\Temp\0622010                              PAGE   27

    1363                      .dwattr $C$DW$112, DW_AT_TI_max_frame_size(-2)
    1364                      .dwpsn  file "D:/Foc/my_motor/sw/drivers/adc/src/32b/f28x/f2802x/adc.c",line 210,column 1,is_stmt,add
    1365              
    1366                      .dwfde $C$DW$CIE, _ADC_powerDown
    1367              $C$DW$113       .dwtag  DW_TAG_formal_parameter, DW_AT_name("adcHandle")
    1368                      .dwattr $C$DW$113, DW_AT_TI_symbol_name("_adcHandle")
    1369                      .dwattr $C$DW$113, DW_AT_type(*$C$DW$T$71)
    1370                      .dwattr $C$DW$113, DW_AT_location[DW_OP_reg12]
    1371              
    1372              ;***************************************************************
    1373              ;* FNAME: _ADC_powerDown                FR SIZE:   0           *
    1374              ;*                                                             *
    1375              ;* FUNCTION ENVIRONMENT                                        *
    1376              ;*                                                             *
    1377              ;* FUNCTION PROPERTIES                                         *
    1378              ;*                            0 Parameter,  0 Auto,  0 SOE     *
    1379              ;***************************************************************
    1380              
    1381              _ADC_powerDown:
    1382              ;* AL    assigned to _adcHandle
    1383              $C$DW$114       .dwtag  DW_TAG_variable, DW_AT_name("adcHandle")
    1384                      .dwattr $C$DW$114, DW_AT_TI_symbol_name("_adcHandle")
    1385                      .dwattr $C$DW$114, DW_AT_type(*$C$DW$T$78)
    1386                      .dwattr $C$DW$114, DW_AT_location[DW_OP_reg0]
    1387                      .dwcfi  cfa_offset, -2
    1388                      .dwcfi  save_reg_to_mem, 26, 0
    1389                      .dwcfi  save_reg_to_reg, 78, 26
    1390 00000141 A8A9          MOVL      ACC,XAR4              ; [CPU_] |210| 
    1391 00000142 7622   EALLOW
    1392                      .dwpsn  file "D:/Foc/my_motor/sw/drivers/adc/src/32b/f28x/f2802x/adc.c",line 217,column 3,is_stmt
    1393 00000143 8F00          MOVL      XAR4,#26112           ; [CPU_U] |217| 
         00000144 6600 
    1394 00000145 5601          ADDL      XAR4,ACC              ; [CPU_] |217| 
         00000146 00A4 
    1395 00000147 18C4          AND       *+XAR4[0],#0xff7f     ; [CPU_] |217| 
         00000148 FF7F 
    1396 00000149 761A   EDIS
    1397 0000014a FF69          SPM       #0                    ; [CPU_] 
    1398              $C$DW$115       .dwtag  DW_TAG_TI_branch
    1399                      .dwattr $C$DW$115, DW_AT_low_pc(0x00)
    1400                      .dwattr $C$DW$115, DW_AT_TI_return
    1401 0000014b 0006          LRETR     ; [CPU_] 
    1402                      ; return occurs ; [] 
    1403                      .dwattr $C$DW$112, DW_AT_TI_end_file("D:/Foc/my_motor/sw/drivers/adc/src/32b/f28x/f2802x/adc.c")
    1404                      .dwattr $C$DW$112, DW_AT_TI_end_line(0xde)
    1405                      .dwattr $C$DW$112, DW_AT_TI_end_column(0x01)
    1406                      .dwendentry
    1407                      .dwendtag $C$DW$112
    1408              
    1409 0000014c               .sect   ".text"
    1410                      .clink
    1411                      .global _ADC_init
    1412              
    1413              $C$DW$116       .dwtag  DW_TAG_subprogram, DW_AT_name("ADC_init")
    1414                      .dwattr $C$DW$116, DW_AT_low_pc(_ADC_init)
TMS320C2000 Assembler PC v6.2.5 Mon Jul 10 09:53:36 2017

Tools Copyright (c) 1996-2014 Texas Instruments Incorporated
C:\Users\wmj\AppData\Local\Temp\0622010                              PAGE   28

    1415                      .dwattr $C$DW$116, DW_AT_high_pc(0x00)
    1416                      .dwattr $C$DW$116, DW_AT_TI_symbol_name("_ADC_init")
    1417                      .dwattr $C$DW$116, DW_AT_external
    1418                      .dwattr $C$DW$116, DW_AT_type(*$C$DW$T$71)
    1419                      .dwattr $C$DW$116, DW_AT_TI_begin_file("D:/Foc/my_motor/sw/drivers/adc/src/32b/f28x/f2802x/adc.c")
    1420                      .dwattr $C$DW$116, DW_AT_TI_begin_line(0xc1)
    1421                      .dwattr $C$DW$116, DW_AT_TI_begin_column(0x0c)
    1422                      .dwattr $C$DW$116, DW_AT_TI_max_frame_size(-2)
    1423                      .dwpsn  file "D:/Foc/my_motor/sw/drivers/adc/src/32b/f28x/f2802x/adc.c",line 194,column 1,is_stmt,add
    1424              
    1425                      .dwfde $C$DW$CIE, _ADC_init
    1426              $C$DW$117       .dwtag  DW_TAG_formal_parameter, DW_AT_name("pMemory")
    1427                      .dwattr $C$DW$117, DW_AT_TI_symbol_name("_pMemory")
    1428                      .dwattr $C$DW$117, DW_AT_type(*$C$DW$T$3)
    1429                      .dwattr $C$DW$117, DW_AT_location[DW_OP_reg12]
    1430              $C$DW$118       .dwtag  DW_TAG_formal_parameter, DW_AT_name("numBytes")
    1431                      .dwattr $C$DW$118, DW_AT_TI_symbol_name("_numBytes")
    1432                      .dwattr $C$DW$118, DW_AT_type(*$C$DW$T$80)
    1433                      .dwattr $C$DW$118, DW_AT_location[DW_OP_reg0]
    1434              
    1435              ;***************************************************************
    1436              ;* FNAME: _ADC_init                     FR SIZE:   0           *
    1437              ;*                                                             *
    1438              ;* FUNCTION ENVIRONMENT                                        *
    1439              ;*                                                             *
    1440              ;* FUNCTION PROPERTIES                                         *
    1441              ;*                            0 Parameter,  0 Auto,  0 SOE     *
    1442              ;***************************************************************
    1443              
    1444              _ADC_init:
    1445              ;* AR6   assigned to _numBytes
    1446              $C$DW$119       .dwtag  DW_TAG_variable, DW_AT_name("numBytes")
    1447                      .dwattr $C$DW$119, DW_AT_TI_symbol_name("_numBytes")
    1448                      .dwattr $C$DW$119, DW_AT_type(*$C$DW$T$80)
    1449                      .dwattr $C$DW$119, DW_AT_location[DW_OP_reg16]
    1450              ;* AR4   assigned to _pMemory
    1451              $C$DW$120       .dwtag  DW_TAG_variable, DW_AT_name("pMemory")
    1452                      .dwattr $C$DW$120, DW_AT_TI_symbol_name("_pMemory")
    1453                      .dwattr $C$DW$120, DW_AT_type(*$C$DW$T$84)
    1454                      .dwattr $C$DW$120, DW_AT_location[DW_OP_reg12]
    1455                      .dwcfi  cfa_offset, -2
    1456                      .dwcfi  save_reg_to_mem, 26, 0
    1457                      .dwcfi  save_reg_to_reg, 78, 26
    1458 0000014c 1EA6          MOVL      XAR6,ACC              ; [CPU_] |194| 
    1459                      .dwpsn  file "D:/Foc/my_motor/sw/drivers/adc/src/32b/f28x/f2802x/adc.c",line 199,column 5,is_stmt
    1460 0000014d FF20          MOV       ACC,#26192            ; [CPU_] |199| 
         0000014e 6650 
    1461 0000014f 0FA6          CMPL      ACC,XAR6              ; [CPU_] |199| 
    1462 00000150 6902          B         $C$L7,LOS             ; [CPU_] |199| 
    1463                      ; branchcc occurs ; [] |199| 
    1464 00000151 D400          MOVB      XAR4,#0               ; [CPU_] |199| 
    1465              $C$L7:    
    1466              $C$DW$121       .dwtag  DW_TAG_TI_branch
    1467                      .dwattr $C$DW$121, DW_AT_low_pc(0x00)
    1468                      .dwattr $C$DW$121, DW_AT_TI_return
TMS320C2000 Assembler PC v6.2.5 Mon Jul 10 09:53:36 2017

Tools Copyright (c) 1996-2014 Texas Instruments Incorporated
C:\Users\wmj\AppData\Local\Temp\0622010                              PAGE   29

    1469 00000152 0006          LRETR     ; [CPU_] 
    1470                      ; return occurs ; [] 
    1471                      .dwattr $C$DW$116, DW_AT_TI_end_file("D:/Foc/my_motor/sw/drivers/adc/src/32b/f28x/f2802x/adc.c")
    1472                      .dwattr $C$DW$116, DW_AT_TI_end_line(0xce)
    1473                      .dwattr $C$DW$116, DW_AT_TI_end_column(0x01)
    1474                      .dwendentry
    1475                      .dwendtag $C$DW$116
    1476              
    1477 00000153               .sect   ".text"
    1478                      .clink
    1479                      .global _ADC_getDivideSelect
    1480              
    1481              $C$DW$122       .dwtag  DW_TAG_subprogram, DW_AT_name("ADC_getDivideSelect")
    1482                      .dwattr $C$DW$122, DW_AT_low_pc(_ADC_getDivideSelect)
    1483                      .dwattr $C$DW$122, DW_AT_high_pc(0x00)
    1484                      .dwattr $C$DW$122, DW_AT_TI_symbol_name("_ADC_getDivideSelect")
    1485                      .dwattr $C$DW$122, DW_AT_external
    1486                      .dwattr $C$DW$122, DW_AT_type(*$C$DW$T$68)
    1487                      .dwattr $C$DW$122, DW_AT_TI_begin_file("D:/Foc/my_motor/sw/drivers/adc/src/32b/f28x/f2802x/adc.c")
    1488                      .dwattr $C$DW$122, DW_AT_TI_begin_line(0x1f4)
    1489                      .dwattr $C$DW$122, DW_AT_TI_begin_column(0x1b)
    1490                      .dwattr $C$DW$122, DW_AT_TI_max_frame_size(-2)
    1491                      .dwpsn  file "D:/Foc/my_motor/sw/drivers/adc/src/32b/f28x/f2802x/adc.c",line 501,column 1,is_stmt,add
    1492              
    1493                      .dwfde $C$DW$CIE, _ADC_getDivideSelect
    1494              $C$DW$123       .dwtag  DW_TAG_formal_parameter, DW_AT_name("adcHandle")
    1495                      .dwattr $C$DW$123, DW_AT_TI_symbol_name("_adcHandle")
    1496                      .dwattr $C$DW$123, DW_AT_type(*$C$DW$T$71)
    1497                      .dwattr $C$DW$123, DW_AT_location[DW_OP_reg12]
    1498              
    1499              ;***************************************************************
    1500              ;* FNAME: _ADC_getDivideSelect          FR SIZE:   0           *
    1501              ;*                                                             *
    1502              ;* FUNCTION ENVIRONMENT                                        *
    1503              ;*                                                             *
    1504              ;* FUNCTION PROPERTIES                                         *
    1505              ;*                            0 Parameter,  0 Auto,  0 SOE     *
    1506              ;***************************************************************
    1507              
    1508              _ADC_getDivideSelect:
    1509              ;* AR4   assigned to _adcHandle
    1510              $C$DW$124       .dwtag  DW_TAG_variable, DW_AT_name("adcHandle")
    1511                      .dwattr $C$DW$124, DW_AT_TI_symbol_name("_adcHandle")
    1512                      .dwattr $C$DW$124, DW_AT_type(*$C$DW$T$78)
    1513                      .dwattr $C$DW$124, DW_AT_location[DW_OP_reg12]
    1514              ;* AL    assigned to _divSelect
    1515              $C$DW$125       .dwtag  DW_TAG_variable, DW_AT_name("divSelect")
    1516                      .dwattr $C$DW$125, DW_AT_TI_symbol_name("_divSelect")
    1517                      .dwattr $C$DW$125, DW_AT_type(*$C$DW$T$68)
    1518                      .dwattr $C$DW$125, DW_AT_location[DW_OP_reg0]
    1519                      .dwcfi  cfa_offset, -2
    1520                      .dwcfi  save_reg_to_mem, 26, 0
    1521                      .dwcfi  save_reg_to_reg, 78, 26
    1522                      .dwpsn  file "D:/Foc/my_motor/sw/drivers/adc/src/32b/f28x/f2802x/adc.c",line 505,column 32,is_stmt
    1523 00000153 8D00          MOVL      XAR0,#26113           ; [CPU_] |505| 
TMS320C2000 Assembler PC v6.2.5 Mon Jul 10 09:53:36 2017

Tools Copyright (c) 1996-2014 Texas Instruments Incorporated
C:\Users\wmj\AppData\Local\Temp\0622010                              PAGE   30

         00000154 6601 
    1524 00000155 CC94          AND       AL,*+XAR4[AR0],#0x0001 ; [CPU_] |505| 
         00000156 0001 
    1525              $C$DW$126       .dwtag  DW_TAG_TI_branch
    1526                      .dwattr $C$DW$126, DW_AT_low_pc(0x00)
    1527                      .dwattr $C$DW$126, DW_AT_TI_return
    1528 00000157 0006          LRETR     ; [CPU_] 
    1529                      ; return occurs ; [] 
    1530                      .dwattr $C$DW$122, DW_AT_TI_end_file("D:/Foc/my_motor/sw/drivers/adc/src/32b/f28x/f2802x/adc.c")
    1531                      .dwattr $C$DW$122, DW_AT_TI_end_line(0x1ff)
    1532                      .dwattr $C$DW$122, DW_AT_TI_end_column(0x01)
    1533                      .dwendentry
    1534                      .dwendtag $C$DW$122
    1535              
    1536 00000158               .sect   ".text"
    1537                      .clink
    1538                      .global _ADC_enableVoltRefLoConv
    1539              
    1540              $C$DW$127       .dwtag  DW_TAG_subprogram, DW_AT_name("ADC_enableVoltRefLoConv")
    1541                      .dwattr $C$DW$127, DW_AT_low_pc(_ADC_enableVoltRefLoConv)
    1542                      .dwattr $C$DW$127, DW_AT_high_pc(0x00)
    1543                      .dwattr $C$DW$127, DW_AT_TI_symbol_name("_ADC_enableVoltRefLoConv")
    1544                      .dwattr $C$DW$127, DW_AT_external
    1545                      .dwattr $C$DW$127, DW_AT_TI_begin_file("D:/Foc/my_motor/sw/drivers/adc/src/32b/f28x/f2802x/adc.c")
    1546                      .dwattr $C$DW$127, DW_AT_TI_begin_line(0x26c)
    1547                      .dwattr $C$DW$127, DW_AT_TI_begin_column(0x06)
    1548                      .dwattr $C$DW$127, DW_AT_TI_max_frame_size(-2)
    1549                      .dwpsn  file "D:/Foc/my_motor/sw/drivers/adc/src/32b/f28x/f2802x/adc.c",line 621,column 1,is_stmt,add
    1550              
    1551                      .dwfde $C$DW$CIE, _ADC_enableVoltRefLoConv
    1552              $C$DW$128       .dwtag  DW_TAG_formal_parameter, DW_AT_name("adcHandle")
    1553                      .dwattr $C$DW$128, DW_AT_TI_symbol_name("_adcHandle")
    1554                      .dwattr $C$DW$128, DW_AT_type(*$C$DW$T$71)
    1555                      .dwattr $C$DW$128, DW_AT_location[DW_OP_reg12]
    1556              
    1557              ;***************************************************************
    1558              ;* FNAME: _ADC_enableVoltRefLoConv      FR SIZE:   0           *
    1559              ;*                                                             *
    1560              ;* FUNCTION ENVIRONMENT                                        *
    1561              ;*                                                             *
    1562              ;* FUNCTION PROPERTIES                                         *
    1563              ;*                            0 Parameter,  0 Auto,  0 SOE     *
    1564              ;***************************************************************
    1565              
    1566              _ADC_enableVoltRefLoConv:
    1567              ;* AL    assigned to _adcHandle
    1568              $C$DW$129       .dwtag  DW_TAG_variable, DW_AT_name("adcHandle")
    1569                      .dwattr $C$DW$129, DW_AT_TI_symbol_name("_adcHandle")
    1570                      .dwattr $C$DW$129, DW_AT_type(*$C$DW$T$78)
    1571                      .dwattr $C$DW$129, DW_AT_location[DW_OP_reg0]
    1572                      .dwcfi  cfa_offset, -2
    1573                      .dwcfi  save_reg_to_mem, 26, 0
    1574                      .dwcfi  save_reg_to_reg, 78, 26
    1575 00000158 A8A9          MOVL      ACC,XAR4              ; [CPU_] |621| 
    1576 00000159 7622   EALLOW
TMS320C2000 Assembler PC v6.2.5 Mon Jul 10 09:53:36 2017

Tools Copyright (c) 1996-2014 Texas Instruments Incorporated
C:\Users\wmj\AppData\Local\Temp\0622010                              PAGE   31

    1577                      .dwpsn  file "D:/Foc/my_motor/sw/drivers/adc/src/32b/f28x/f2802x/adc.c",line 628,column 3,is_stmt
    1578 0000015a 8F00          MOVL      XAR4,#26112           ; [CPU_U] |628| 
         0000015b 6600 
    1579 0000015c 5601          ADDL      XAR4,ACC              ; [CPU_] |628| 
         0000015d 00A4 
    1580 0000015e 1AC4          OR        *+XAR4[0],#0x0002     ; [CPU_] |628| 
         0000015f 0002 
    1581 00000160 761A   EDIS
    1582 00000161 FF69          SPM       #0                    ; [CPU_] 
    1583              $C$DW$130       .dwtag  DW_TAG_TI_branch
    1584                      .dwattr $C$DW$130, DW_AT_low_pc(0x00)
    1585                      .dwattr $C$DW$130, DW_AT_TI_return
    1586 00000162 0006          LRETR     ; [CPU_] 
    1587                      ; return occurs ; [] 
    1588                      .dwattr $C$DW$127, DW_AT_TI_end_file("D:/Foc/my_motor/sw/drivers/adc/src/32b/f28x/f2802x/adc.c")
    1589                      .dwattr $C$DW$127, DW_AT_TI_end_line(0x279)
    1590                      .dwattr $C$DW$127, DW_AT_TI_end_column(0x01)
    1591                      .dwendentry
    1592                      .dwendtag $C$DW$127
    1593              
    1594 00000163               .sect   ".text"
    1595                      .clink
    1596                      .global _ADC_enableRefBuffers
    1597              
    1598              $C$DW$131       .dwtag  DW_TAG_subprogram, DW_AT_name("ADC_enableRefBuffers")
    1599                      .dwattr $C$DW$131, DW_AT_low_pc(_ADC_enableRefBuffers)
    1600                      .dwattr $C$DW$131, DW_AT_high_pc(0x00)
    1601                      .dwattr $C$DW$131, DW_AT_TI_symbol_name("_ADC_enableRefBuffers")
    1602                      .dwattr $C$DW$131, DW_AT_external
    1603                      .dwattr $C$DW$131, DW_AT_TI_begin_file("D:/Foc/my_motor/sw/drivers/adc/src/32b/f28x/f2802x/adc.c")
    1604                      .dwattr $C$DW$131, DW_AT_TI_begin_line(0xb0)
    1605                      .dwattr $C$DW$131, DW_AT_TI_begin_column(0x06)
    1606                      .dwattr $C$DW$131, DW_AT_TI_max_frame_size(-2)
    1607                      .dwpsn  file "D:/Foc/my_motor/sw/drivers/adc/src/32b/f28x/f2802x/adc.c",line 177,column 1,is_stmt,add
    1608              
    1609                      .dwfde $C$DW$CIE, _ADC_enableRefBuffers
    1610              $C$DW$132       .dwtag  DW_TAG_formal_parameter, DW_AT_name("adcHandle")
    1611                      .dwattr $C$DW$132, DW_AT_TI_symbol_name("_adcHandle")
    1612                      .dwattr $C$DW$132, DW_AT_type(*$C$DW$T$71)
    1613                      .dwattr $C$DW$132, DW_AT_location[DW_OP_reg12]
    1614              
    1615              ;***************************************************************
    1616              ;* FNAME: _ADC_enableRefBuffers         FR SIZE:   0           *
    1617              ;*                                                             *
    1618              ;* FUNCTION ENVIRONMENT                                        *
    1619              ;*                                                             *
    1620              ;* FUNCTION PROPERTIES                                         *
    1621              ;*                            0 Parameter,  0 Auto,  0 SOE     *
    1622              ;***************************************************************
    1623              
    1624              _ADC_enableRefBuffers:
    1625              ;* AL    assigned to _adcHandle
    1626              $C$DW$133       .dwtag  DW_TAG_variable, DW_AT_name("adcHandle")
    1627                      .dwattr $C$DW$133, DW_AT_TI_symbol_name("_adcHandle")
    1628                      .dwattr $C$DW$133, DW_AT_type(*$C$DW$T$78)
TMS320C2000 Assembler PC v6.2.5 Mon Jul 10 09:53:36 2017

Tools Copyright (c) 1996-2014 Texas Instruments Incorporated
C:\Users\wmj\AppData\Local\Temp\0622010                              PAGE   32

    1629                      .dwattr $C$DW$133, DW_AT_location[DW_OP_reg0]
    1630                      .dwcfi  cfa_offset, -2
    1631                      .dwcfi  save_reg_to_mem, 26, 0
    1632                      .dwcfi  save_reg_to_reg, 78, 26
    1633 00000163 A8A9          MOVL      ACC,XAR4              ; [CPU_] |177| 
    1634 00000164 7622   EALLOW
    1635                      .dwpsn  file "D:/Foc/my_motor/sw/drivers/adc/src/32b/f28x/f2802x/adc.c",line 184,column 3,is_stmt
    1636 00000165 8F00          MOVL      XAR4,#26112           ; [CPU_U] |184| 
         00000166 6600 
    1637 00000167 5601          ADDL      XAR4,ACC              ; [CPU_] |184| 
         00000168 00A4 
    1638 00000169 1AC4          OR        *+XAR4[0],#0x0020     ; [CPU_] |184| 
         0000016a 0020 
    1639 0000016b 761A   EDIS
    1640 0000016c FF69          SPM       #0                    ; [CPU_] 
    1641              $C$DW$134       .dwtag  DW_TAG_TI_branch
    1642                      .dwattr $C$DW$134, DW_AT_low_pc(0x00)
    1643                      .dwattr $C$DW$134, DW_AT_TI_return
    1644 0000016d 0006          LRETR     ; [CPU_] 
    1645                      ; return occurs ; [] 
    1646                      .dwattr $C$DW$131, DW_AT_TI_end_file("D:/Foc/my_motor/sw/drivers/adc/src/32b/f28x/f2802x/adc.c")
    1647                      .dwattr $C$DW$131, DW_AT_TI_end_line(0xbd)
    1648                      .dwattr $C$DW$131, DW_AT_TI_end_column(0x01)
    1649                      .dwendentry
    1650                      .dwendtag $C$DW$131
    1651              
    1652 0000016e               .sect   ".text"
    1653                      .clink
    1654                      .global _ADC_enableNoOverlapMode
    1655              
    1656              $C$DW$135       .dwtag  DW_TAG_subprogram, DW_AT_name("ADC_enableNoOverlapMode")
    1657                      .dwattr $C$DW$135, DW_AT_low_pc(_ADC_enableNoOverlapMode)
    1658                      .dwattr $C$DW$135, DW_AT_high_pc(0x00)
    1659                      .dwattr $C$DW$135, DW_AT_TI_symbol_name("_ADC_enableNoOverlapMode")
    1660                      .dwattr $C$DW$135, DW_AT_external
    1661                      .dwattr $C$DW$135, DW_AT_TI_begin_file("D:/Foc/my_motor/sw/drivers/adc/src/32b/f28x/f2802x/adc.c")
    1662                      .dwattr $C$DW$135, DW_AT_TI_begin_line(0x216)
    1663                      .dwattr $C$DW$135, DW_AT_TI_begin_column(0x06)
    1664                      .dwattr $C$DW$135, DW_AT_TI_max_frame_size(-2)
    1665                      .dwpsn  file "D:/Foc/my_motor/sw/drivers/adc/src/32b/f28x/f2802x/adc.c",line 535,column 1,is_stmt,add
    1666              
    1667                      .dwfde $C$DW$CIE, _ADC_enableNoOverlapMode
    1668              $C$DW$136       .dwtag  DW_TAG_formal_parameter, DW_AT_name("adcHandle")
    1669                      .dwattr $C$DW$136, DW_AT_TI_symbol_name("_adcHandle")
    1670                      .dwattr $C$DW$136, DW_AT_type(*$C$DW$T$71)
    1671                      .dwattr $C$DW$136, DW_AT_location[DW_OP_reg12]
    1672              
    1673              ;***************************************************************
    1674              ;* FNAME: _ADC_enableNoOverlapMode      FR SIZE:   0           *
    1675              ;*                                                             *
    1676              ;* FUNCTION ENVIRONMENT                                        *
    1677              ;*                                                             *
    1678              ;* FUNCTION PROPERTIES                                         *
    1679              ;*                            0 Parameter,  0 Auto,  0 SOE     *
    1680              ;***************************************************************
TMS320C2000 Assembler PC v6.2.5 Mon Jul 10 09:53:36 2017

Tools Copyright (c) 1996-2014 Texas Instruments Incorporated
C:\Users\wmj\AppData\Local\Temp\0622010                              PAGE   33

    1681              
    1682              _ADC_enableNoOverlapMode:
    1683              ;* AL    assigned to _adcHandle
    1684              $C$DW$137       .dwtag  DW_TAG_variable, DW_AT_name("adcHandle")
    1685                      .dwattr $C$DW$137, DW_AT_TI_symbol_name("_adcHandle")
    1686                      .dwattr $C$DW$137, DW_AT_type(*$C$DW$T$78)
    1687                      .dwattr $C$DW$137, DW_AT_location[DW_OP_reg0]
    1688                      .dwcfi  cfa_offset, -2
    1689                      .dwcfi  save_reg_to_mem, 26, 0
    1690                      .dwcfi  save_reg_to_reg, 78, 26
    1691 0000016e A8A9          MOVL      ACC,XAR4              ; [CPU_] |535| 
    1692 0000016f 7622   EALLOW
    1693                      .dwpsn  file "D:/Foc/my_motor/sw/drivers/adc/src/32b/f28x/f2802x/adc.c",line 542,column 3,is_stmt
    1694 00000170 8F00          MOVL      XAR4,#26113           ; [CPU_U] |542| 
         00000171 6601 
    1695 00000172 5601          ADDL      XAR4,ACC              ; [CPU_] |542| 
         00000173 00A4 
    1696 00000174 1AC4          OR        *+XAR4[0],#0x0002     ; [CPU_] |542| 
         00000175 0002 
    1697 00000176 761A   EDIS
    1698 00000177 FF69          SPM       #0                    ; [CPU_] 
    1699              $C$DW$138       .dwtag  DW_TAG_TI_branch
    1700                      .dwattr $C$DW$138, DW_AT_low_pc(0x00)
    1701                      .dwattr $C$DW$138, DW_AT_TI_return
    1702 00000178 0006          LRETR     ; [CPU_] 
    1703                      ; return occurs ; [] 
    1704                      .dwattr $C$DW$135, DW_AT_TI_end_file("D:/Foc/my_motor/sw/drivers/adc/src/32b/f28x/f2802x/adc.c")
    1705                      .dwattr $C$DW$135, DW_AT_TI_end_line(0x223)
    1706                      .dwattr $C$DW$135, DW_AT_TI_end_column(0x01)
    1707                      .dwendentry
    1708                      .dwendtag $C$DW$135
    1709              
    1710 00000179               .sect   ".text"
    1711                      .clink
    1712                      .global _ADC_enableInt
    1713              
    1714              $C$DW$139       .dwtag  DW_TAG_subprogram, DW_AT_name("ADC_enableInt")
    1715                      .dwattr $C$DW$139, DW_AT_low_pc(_ADC_enableInt)
    1716                      .dwattr $C$DW$139, DW_AT_high_pc(0x00)
    1717                      .dwattr $C$DW$139, DW_AT_TI_symbol_name("_ADC_enableInt")
    1718                      .dwattr $C$DW$139, DW_AT_external
    1719                      .dwattr $C$DW$139, DW_AT_TI_begin_file("D:/Foc/my_motor/sw/drivers/adc/src/32b/f28x/f2802x/adc.c")
    1720                      .dwattr $C$DW$139, DW_AT_TI_begin_line(0x9d)
    1721                      .dwattr $C$DW$139, DW_AT_TI_begin_column(0x06)
    1722                      .dwattr $C$DW$139, DW_AT_TI_max_frame_size(-2)
    1723                      .dwpsn  file "D:/Foc/my_motor/sw/drivers/adc/src/32b/f28x/f2802x/adc.c",line 158,column 1,is_stmt,add
    1724              
    1725                      .dwfde $C$DW$CIE, _ADC_enableInt
    1726              $C$DW$140       .dwtag  DW_TAG_formal_parameter, DW_AT_name("adcHandle")
    1727                      .dwattr $C$DW$140, DW_AT_TI_symbol_name("_adcHandle")
    1728                      .dwattr $C$DW$140, DW_AT_type(*$C$DW$T$71)
    1729                      .dwattr $C$DW$140, DW_AT_location[DW_OP_reg12]
    1730              $C$DW$141       .dwtag  DW_TAG_formal_parameter, DW_AT_name("intNumber")
    1731                      .dwattr $C$DW$141, DW_AT_TI_symbol_name("_intNumber")
    1732                      .dwattr $C$DW$141, DW_AT_type(*$C$DW$T$30)
TMS320C2000 Assembler PC v6.2.5 Mon Jul 10 09:53:36 2017

Tools Copyright (c) 1996-2014 Texas Instruments Incorporated
C:\Users\wmj\AppData\Local\Temp\0622010                              PAGE   34

    1733                      .dwattr $C$DW$141, DW_AT_location[DW_OP_reg0]
    1734              
    1735              ;***************************************************************
    1736              ;* FNAME: _ADC_enableInt                FR SIZE:   0           *
    1737              ;*                                                             *
    1738              ;* FUNCTION ENVIRONMENT                                        *
    1739              ;*                                                             *
    1740              ;* FUNCTION PROPERTIES                                         *
    1741              ;*                            0 Parameter,  0 Auto,  0 SOE     *
    1742              ;***************************************************************
    1743              
    1744              _ADC_enableInt:
    1745              ;* AR4   assigned to _adcHandle
    1746              $C$DW$142       .dwtag  DW_TAG_variable, DW_AT_name("adcHandle")
    1747                      .dwattr $C$DW$142, DW_AT_TI_symbol_name("_adcHandle")
    1748                      .dwattr $C$DW$142, DW_AT_type(*$C$DW$T$78)
    1749                      .dwattr $C$DW$142, DW_AT_location[DW_OP_reg12]
    1750              ;* AR6   assigned to _intNumber
    1751              $C$DW$143       .dwtag  DW_TAG_variable, DW_AT_name("intNumber")
    1752                      .dwattr $C$DW$143, DW_AT_TI_symbol_name("_intNumber")
    1753                      .dwattr $C$DW$143, DW_AT_type(*$C$DW$T$30)
    1754                      .dwattr $C$DW$143, DW_AT_location[DW_OP_reg16]
    1755                      .dwcfi  cfa_offset, -2
    1756                      .dwcfi  save_reg_to_mem, 26, 0
    1757                      .dwcfi  save_reg_to_reg, 78, 26
    1758 00000179 88A9          MOVZ      AR6,AL                ; [CPU_] |158| 
    1759 0000017a 7622   EALLOW
    1760                      .dwpsn  file "D:/Foc/my_motor/sw/drivers/adc/src/32b/f28x/f2802x/adc.c",line 168,column 3,is_stmt
    1761 0000017b FFA0          ASR       AL,1                  ; [CPU_] |168| 
    1762 0000017c 8F40          MOVL      XAR5,#26120           ; [CPU_U] |168| 
         0000017d 6608 
    1763 0000017e 80A9          MOVZ      AR7,AL                ; [CPU_] |168| 
    1764 0000017f 28AC          MOV       T,#8                  ; [CPU_] |168| 
         00000180 0008 
    1765 00000181 A8A9          MOVL      ACC,XAR4              ; [CPU_] |168| 
    1766 00000182 0DA7          ADDU      ACC,AR7               ; [CPU_] |168| 
    1767 00000183 5601          ADDL      XAR5,ACC              ; [CPU_] |168| 
         00000184 00A5 
    1768 00000185 5603          MOV       ACC,AR6 << #3         ; [CPU_] |168| 
         00000186 03A6 
    1769 00000187 FF5E          NOT       AL                    ; [CPU_] |168| 
    1770 00000188 9008          ANDB      AL,#0x08              ; [CPU_] |168| 
    1771 00000189 74AC          SUB       T,AL                  ; [CPU_] |168| 
    1772 0000018a 9A20          MOVB      AL,#32                ; [CPU_] |168| 
    1773 0000018b FF66          LSL       AL,T                  ; [CPU_] |168| 
    1774 0000018c 98C5          OR        *+XAR5[0],AL          ; [CPU_] |168| 
    1775 0000018d 761A   EDIS
    1776 0000018e FF69          SPM       #0                    ; [CPU_] 
    1777              $C$DW$144       .dwtag  DW_TAG_TI_branch
    1778                      .dwattr $C$DW$144, DW_AT_low_pc(0x00)
    1779                      .dwattr $C$DW$144, DW_AT_TI_return
    1780 0000018f 0006          LRETR     ; [CPU_] 
    1781                      ; return occurs ; [] 
    1782                      .dwattr $C$DW$139, DW_AT_TI_end_file("D:/Foc/my_motor/sw/drivers/adc/src/32b/f28x/f2802x/adc.c")
    1783                      .dwattr $C$DW$139, DW_AT_TI_end_line(0xad)
TMS320C2000 Assembler PC v6.2.5 Mon Jul 10 09:53:36 2017

Tools Copyright (c) 1996-2014 Texas Instruments Incorporated
C:\Users\wmj\AppData\Local\Temp\0622010                              PAGE   35

    1784                      .dwattr $C$DW$139, DW_AT_TI_end_column(0x01)
    1785                      .dwendentry
    1786                      .dwendtag $C$DW$139
    1787              
    1788 00000190               .sect   ".text"
    1789                      .clink
    1790                      .global _ADC_enableBandGap
    1791              
    1792              $C$DW$145       .dwtag  DW_TAG_subprogram, DW_AT_name("ADC_enableBandGap")
    1793                      .dwattr $C$DW$145, DW_AT_low_pc(_ADC_enableBandGap)
    1794                      .dwattr $C$DW$145, DW_AT_high_pc(0x00)
    1795                      .dwattr $C$DW$145, DW_AT_TI_symbol_name("_ADC_enableBandGap")
    1796                      .dwattr $C$DW$145, DW_AT_external
    1797                      .dwattr $C$DW$145, DW_AT_TI_begin_file("D:/Foc/my_motor/sw/drivers/adc/src/32b/f28x/f2802x/adc.c")
    1798                      .dwattr $C$DW$145, DW_AT_TI_begin_line(0x8d)
    1799                      .dwattr $C$DW$145, DW_AT_TI_begin_column(0x06)
    1800                      .dwattr $C$DW$145, DW_AT_TI_max_frame_size(-2)
    1801                      .dwpsn  file "D:/Foc/my_motor/sw/drivers/adc/src/32b/f28x/f2802x/adc.c",line 142,column 1,is_stmt,add
    1802              
    1803                      .dwfde $C$DW$CIE, _ADC_enableBandGap
    1804              $C$DW$146       .dwtag  DW_TAG_formal_parameter, DW_AT_name("adcHandle")
    1805                      .dwattr $C$DW$146, DW_AT_TI_symbol_name("_adcHandle")
    1806                      .dwattr $C$DW$146, DW_AT_type(*$C$DW$T$71)
    1807                      .dwattr $C$DW$146, DW_AT_location[DW_OP_reg12]
    1808              
    1809              ;***************************************************************
    1810              ;* FNAME: _ADC_enableBandGap            FR SIZE:   0           *
    1811              ;*                                                             *
    1812              ;* FUNCTION ENVIRONMENT                                        *
    1813              ;*                                                             *
    1814              ;* FUNCTION PROPERTIES                                         *
    1815              ;*                            0 Parameter,  0 Auto,  0 SOE     *
    1816              ;***************************************************************
    1817              
    1818              _ADC_enableBandGap:
    1819              ;* AL    assigned to _adcHandle
    1820              $C$DW$147       .dwtag  DW_TAG_variable, DW_AT_name("adcHandle")
    1821                      .dwattr $C$DW$147, DW_AT_TI_symbol_name("_adcHandle")
    1822                      .dwattr $C$DW$147, DW_AT_type(*$C$DW$T$78)
    1823                      .dwattr $C$DW$147, DW_AT_location[DW_OP_reg0]
    1824                      .dwcfi  cfa_offset, -2
    1825                      .dwcfi  save_reg_to_mem, 26, 0
    1826                      .dwcfi  save_reg_to_reg, 78, 26
    1827 00000190 A8A9          MOVL      ACC,XAR4              ; [CPU_] |142| 
    1828 00000191 7622   EALLOW
    1829                      .dwpsn  file "D:/Foc/my_motor/sw/drivers/adc/src/32b/f28x/f2802x/adc.c",line 149,column 3,is_stmt
    1830 00000192 8F00          MOVL      XAR4,#26112           ; [CPU_U] |149| 
         00000193 6600 
    1831 00000194 5601          ADDL      XAR4,ACC              ; [CPU_] |149| 
         00000195 00A4 
    1832 00000196 1AC4          OR        *+XAR4[0],#0x0040     ; [CPU_] |149| 
         00000197 0040 
    1833 00000198 761A   EDIS
    1834 00000199 FF69          SPM       #0                    ; [CPU_] 
    1835              $C$DW$148       .dwtag  DW_TAG_TI_branch
TMS320C2000 Assembler PC v6.2.5 Mon Jul 10 09:53:36 2017

Tools Copyright (c) 1996-2014 Texas Instruments Incorporated
C:\Users\wmj\AppData\Local\Temp\0622010                              PAGE   36

    1836                      .dwattr $C$DW$148, DW_AT_low_pc(0x00)
    1837                      .dwattr $C$DW$148, DW_AT_TI_return
    1838 0000019a 0006          LRETR     ; [CPU_] 
    1839                      ; return occurs ; [] 
    1840                      .dwattr $C$DW$145, DW_AT_TI_end_file("D:/Foc/my_motor/sw/drivers/adc/src/32b/f28x/f2802x/adc.c")
    1841                      .dwattr $C$DW$145, DW_AT_TI_end_line(0x9a)
    1842                      .dwattr $C$DW$145, DW_AT_TI_end_column(0x01)
    1843                      .dwendentry
    1844                      .dwendtag $C$DW$145
    1845              
    1846 0000019b               .sect   ".text"
    1847                      .clink
    1848                      .global _ADC_enable
    1849              
    1850              $C$DW$149       .dwtag  DW_TAG_subprogram, DW_AT_name("ADC_enable")
    1851                      .dwattr $C$DW$149, DW_AT_low_pc(_ADC_enable)
    1852                      .dwattr $C$DW$149, DW_AT_high_pc(0x00)
    1853                      .dwattr $C$DW$149, DW_AT_TI_symbol_name("_ADC_enable")
    1854                      .dwattr $C$DW$149, DW_AT_external
    1855                      .dwattr $C$DW$149, DW_AT_TI_begin_file("D:/Foc/my_motor/sw/drivers/adc/src/32b/f28x/f2802x/adc.c")
    1856                      .dwattr $C$DW$149, DW_AT_TI_begin_line(0x7d)
    1857                      .dwattr $C$DW$149, DW_AT_TI_begin_column(0x06)
    1858                      .dwattr $C$DW$149, DW_AT_TI_max_frame_size(-2)
    1859                      .dwpsn  file "D:/Foc/my_motor/sw/drivers/adc/src/32b/f28x/f2802x/adc.c",line 126,column 1,is_stmt,add
    1860              
    1861                      .dwfde $C$DW$CIE, _ADC_enable
    1862              $C$DW$150       .dwtag  DW_TAG_formal_parameter, DW_AT_name("adcHandle")
    1863                      .dwattr $C$DW$150, DW_AT_TI_symbol_name("_adcHandle")
    1864                      .dwattr $C$DW$150, DW_AT_type(*$C$DW$T$71)
    1865                      .dwattr $C$DW$150, DW_AT_location[DW_OP_reg12]
    1866              
    1867              ;***************************************************************
    1868              ;* FNAME: _ADC_enable                   FR SIZE:   0           *
    1869              ;*                                                             *
    1870              ;* FUNCTION ENVIRONMENT                                        *
    1871              ;*                                                             *
    1872              ;* FUNCTION PROPERTIES                                         *
    1873              ;*                            0 Parameter,  0 Auto,  0 SOE     *
    1874              ;***************************************************************
    1875              
    1876              _ADC_enable:
    1877              ;* AL    assigned to _adcHandle
    1878              $C$DW$151       .dwtag  DW_TAG_variable, DW_AT_name("adcHandle")
    1879                      .dwattr $C$DW$151, DW_AT_TI_symbol_name("_adcHandle")
    1880                      .dwattr $C$DW$151, DW_AT_type(*$C$DW$T$78)
    1881                      .dwattr $C$DW$151, DW_AT_location[DW_OP_reg0]
    1882                      .dwcfi  cfa_offset, -2
    1883                      .dwcfi  save_reg_to_mem, 26, 0
    1884                      .dwcfi  save_reg_to_reg, 78, 26
    1885 0000019b A8A9          MOVL      ACC,XAR4              ; [CPU_] |126| 
    1886 0000019c 7622   EALLOW
    1887                      .dwpsn  file "D:/Foc/my_motor/sw/drivers/adc/src/32b/f28x/f2802x/adc.c",line 133,column 3,is_stmt
    1888 0000019d 8F00          MOVL      XAR4,#26112           ; [CPU_U] |133| 
         0000019e 6600 
    1889 0000019f 5601          ADDL      XAR4,ACC              ; [CPU_] |133| 
TMS320C2000 Assembler PC v6.2.5 Mon Jul 10 09:53:36 2017

Tools Copyright (c) 1996-2014 Texas Instruments Incorporated
C:\Users\wmj\AppData\Local\Temp\0622010                              PAGE   37

         000001a0 00A4 
    1890 000001a1 1AC4          OR        *+XAR4[0],#0x4000     ; [CPU_] |133| 
         000001a2 4000 
    1891 000001a3 761A   EDIS
    1892 000001a4 FF69          SPM       #0                    ; [CPU_] 
    1893              $C$DW$152       .dwtag  DW_TAG_TI_branch
    1894                      .dwattr $C$DW$152, DW_AT_low_pc(0x00)
    1895                      .dwattr $C$DW$152, DW_AT_TI_return
    1896 000001a5 0006          LRETR     ; [CPU_] 
    1897                      ; return occurs ; [] 
    1898                      .dwattr $C$DW$149, DW_AT_TI_end_file("D:/Foc/my_motor/sw/drivers/adc/src/32b/f28x/f2802x/adc.c")
    1899                      .dwattr $C$DW$149, DW_AT_TI_end_line(0x8a)
    1900                      .dwattr $C$DW$149, DW_AT_TI_end_column(0x01)
    1901                      .dwendentry
    1902                      .dwendtag $C$DW$149
    1903              
    1904 000001a6               .sect   ".text"
    1905                      .clink
    1906                      .global _ADC_disableVoltRefLoConv
    1907              
    1908              $C$DW$153       .dwtag  DW_TAG_subprogram, DW_AT_name("ADC_disableVoltRefLoConv")
    1909                      .dwattr $C$DW$153, DW_AT_low_pc(_ADC_disableVoltRefLoConv)
    1910                      .dwattr $C$DW$153, DW_AT_high_pc(0x00)
    1911                      .dwattr $C$DW$153, DW_AT_TI_symbol_name("_ADC_disableVoltRefLoConv")
    1912                      .dwattr $C$DW$153, DW_AT_external
    1913                      .dwattr $C$DW$153, DW_AT_TI_begin_file("D:/Foc/my_motor/sw/drivers/adc/src/32b/f28x/f2802x/adc.c")
    1914                      .dwattr $C$DW$153, DW_AT_TI_begin_line(0x27b)
    1915                      .dwattr $C$DW$153, DW_AT_TI_begin_column(0x06)
    1916                      .dwattr $C$DW$153, DW_AT_TI_max_frame_size(-2)
    1917                      .dwpsn  file "D:/Foc/my_motor/sw/drivers/adc/src/32b/f28x/f2802x/adc.c",line 636,column 1,is_stmt,add
    1918              
    1919                      .dwfde $C$DW$CIE, _ADC_disableVoltRefLoConv
    1920              $C$DW$154       .dwtag  DW_TAG_formal_parameter, DW_AT_name("adcHandle")
    1921                      .dwattr $C$DW$154, DW_AT_TI_symbol_name("_adcHandle")
    1922                      .dwattr $C$DW$154, DW_AT_type(*$C$DW$T$71)
    1923                      .dwattr $C$DW$154, DW_AT_location[DW_OP_reg12]
    1924              
    1925              ;***************************************************************
    1926              ;* FNAME: _ADC_disableVoltRefLoConv     FR SIZE:   0           *
    1927              ;*                                                             *
    1928              ;* FUNCTION ENVIRONMENT                                        *
    1929              ;*                                                             *
    1930              ;* FUNCTION PROPERTIES                                         *
    1931              ;*                            0 Parameter,  0 Auto,  0 SOE     *
    1932              ;***************************************************************
    1933              
    1934              _ADC_disableVoltRefLoConv:
    1935              ;* AL    assigned to _adcHandle
    1936              $C$DW$155       .dwtag  DW_TAG_variable, DW_AT_name("adcHandle")
    1937                      .dwattr $C$DW$155, DW_AT_TI_symbol_name("_adcHandle")
    1938                      .dwattr $C$DW$155, DW_AT_type(*$C$DW$T$78)
    1939                      .dwattr $C$DW$155, DW_AT_location[DW_OP_reg0]
    1940                      .dwcfi  cfa_offset, -2
    1941                      .dwcfi  save_reg_to_mem, 26, 0
    1942                      .dwcfi  save_reg_to_reg, 78, 26
TMS320C2000 Assembler PC v6.2.5 Mon Jul 10 09:53:36 2017

Tools Copyright (c) 1996-2014 Texas Instruments Incorporated
C:\Users\wmj\AppData\Local\Temp\0622010                              PAGE   38

    1943 000001a6 A8A9          MOVL      ACC,XAR4              ; [CPU_] |636| 
    1944 000001a7 7622   EALLOW
    1945                      .dwpsn  file "D:/Foc/my_motor/sw/drivers/adc/src/32b/f28x/f2802x/adc.c",line 643,column 3,is_stmt
    1946 000001a8 8F00          MOVL      XAR4,#26112           ; [CPU_U] |643| 
         000001a9 6600 
    1947 000001aa 5601          ADDL      XAR4,ACC              ; [CPU_] |643| 
         000001ab 00A4 
    1948 000001ac 18C4          AND       *+XAR4[0],#0xfffd     ; [CPU_] |643| 
         000001ad FFFD 
    1949 000001ae 761A   EDIS
    1950 000001af FF69          SPM       #0                    ; [CPU_] 
    1951              $C$DW$156       .dwtag  DW_TAG_TI_branch
    1952                      .dwattr $C$DW$156, DW_AT_low_pc(0x00)
    1953                      .dwattr $C$DW$156, DW_AT_TI_return
    1954 000001b0 0006          LRETR     ; [CPU_] 
    1955                      ; return occurs ; [] 
    1956                      .dwattr $C$DW$153, DW_AT_TI_end_file("D:/Foc/my_motor/sw/drivers/adc/src/32b/f28x/f2802x/adc.c")
    1957                      .dwattr $C$DW$153, DW_AT_TI_end_line(0x288)
    1958                      .dwattr $C$DW$153, DW_AT_TI_end_column(0x01)
    1959                      .dwendentry
    1960                      .dwendtag $C$DW$153
    1961              
    1962 000001b1               .sect   ".text"
    1963                      .clink
    1964                      .global _ADC_disableRefBuffers
    1965              
    1966              $C$DW$157       .dwtag  DW_TAG_subprogram, DW_AT_name("ADC_disableRefBuffers")
    1967                      .dwattr $C$DW$157, DW_AT_low_pc(_ADC_disableRefBuffers)
    1968                      .dwattr $C$DW$157, DW_AT_high_pc(0x00)
    1969                      .dwattr $C$DW$157, DW_AT_TI_symbol_name("_ADC_disableRefBuffers")
    1970                      .dwattr $C$DW$157, DW_AT_external
    1971                      .dwattr $C$DW$157, DW_AT_TI_begin_file("D:/Foc/my_motor/sw/drivers/adc/src/32b/f28x/f2802x/adc.c")
    1972                      .dwattr $C$DW$157, DW_AT_TI_begin_line(0x6d)
    1973                      .dwattr $C$DW$157, DW_AT_TI_begin_column(0x06)
    1974                      .dwattr $C$DW$157, DW_AT_TI_max_frame_size(-2)
    1975                      .dwpsn  file "D:/Foc/my_motor/sw/drivers/adc/src/32b/f28x/f2802x/adc.c",line 110,column 1,is_stmt,add
    1976              
    1977                      .dwfde $C$DW$CIE, _ADC_disableRefBuffers
    1978              $C$DW$158       .dwtag  DW_TAG_formal_parameter, DW_AT_name("adcHandle")
    1979                      .dwattr $C$DW$158, DW_AT_TI_symbol_name("_adcHandle")
    1980                      .dwattr $C$DW$158, DW_AT_type(*$C$DW$T$71)
    1981                      .dwattr $C$DW$158, DW_AT_location[DW_OP_reg12]
    1982              
    1983              ;***************************************************************
    1984              ;* FNAME: _ADC_disableRefBuffers        FR SIZE:   0           *
    1985              ;*                                                             *
    1986              ;* FUNCTION ENVIRONMENT                                        *
    1987              ;*                                                             *
    1988              ;* FUNCTION PROPERTIES                                         *
    1989              ;*                            0 Parameter,  0 Auto,  0 SOE     *
    1990              ;***************************************************************
    1991              
    1992              _ADC_disableRefBuffers:
    1993              ;* AL    assigned to _adcHandle
    1994              $C$DW$159       .dwtag  DW_TAG_variable, DW_AT_name("adcHandle")
TMS320C2000 Assembler PC v6.2.5 Mon Jul 10 09:53:36 2017

Tools Copyright (c) 1996-2014 Texas Instruments Incorporated
C:\Users\wmj\AppData\Local\Temp\0622010                              PAGE   39

    1995                      .dwattr $C$DW$159, DW_AT_TI_symbol_name("_adcHandle")
    1996                      .dwattr $C$DW$159, DW_AT_type(*$C$DW$T$78)
    1997                      .dwattr $C$DW$159, DW_AT_location[DW_OP_reg0]
    1998                      .dwcfi  cfa_offset, -2
    1999                      .dwcfi  save_reg_to_mem, 26, 0
    2000                      .dwcfi  save_reg_to_reg, 78, 26
    2001 000001b1 A8A9          MOVL      ACC,XAR4              ; [CPU_] |110| 
    2002 000001b2 7622   EALLOW
    2003                      .dwpsn  file "D:/Foc/my_motor/sw/drivers/adc/src/32b/f28x/f2802x/adc.c",line 117,column 3,is_stmt
    2004 000001b3 8F00          MOVL      XAR4,#26112           ; [CPU_U] |117| 
         000001b4 6600 
    2005 000001b5 5601          ADDL      XAR4,ACC              ; [CPU_] |117| 
         000001b6 00A4 
    2006 000001b7 18C4          AND       *+XAR4[0],#0xffdf     ; [CPU_] |117| 
         000001b8 FFDF 
    2007 000001b9 761A   EDIS
    2008 000001ba FF69          SPM       #0                    ; [CPU_] 
    2009              $C$DW$160       .dwtag  DW_TAG_TI_branch
    2010                      .dwattr $C$DW$160, DW_AT_low_pc(0x00)
    2011                      .dwattr $C$DW$160, DW_AT_TI_return
    2012 000001bb 0006          LRETR     ; [CPU_] 
    2013                      ; return occurs ; [] 
    2014                      .dwattr $C$DW$157, DW_AT_TI_end_file("D:/Foc/my_motor/sw/drivers/adc/src/32b/f28x/f2802x/adc.c")
    2015                      .dwattr $C$DW$157, DW_AT_TI_end_line(0x7a)
    2016                      .dwattr $C$DW$157, DW_AT_TI_end_column(0x01)
    2017                      .dwendentry
    2018                      .dwendtag $C$DW$157
    2019              
    2020 000001bc               .sect   ".text"
    2021                      .clink
    2022                      .global _ADC_disableNoOverlapMode
    2023              
    2024              $C$DW$161       .dwtag  DW_TAG_subprogram, DW_AT_name("ADC_disableNoOverlapMode")
    2025                      .dwattr $C$DW$161, DW_AT_low_pc(_ADC_disableNoOverlapMode)
    2026                      .dwattr $C$DW$161, DW_AT_high_pc(0x00)
    2027                      .dwattr $C$DW$161, DW_AT_TI_symbol_name("_ADC_disableNoOverlapMode")
    2028                      .dwattr $C$DW$161, DW_AT_external
    2029                      .dwattr $C$DW$161, DW_AT_TI_begin_file("D:/Foc/my_motor/sw/drivers/adc/src/32b/f28x/f2802x/adc.c")
    2030                      .dwattr $C$DW$161, DW_AT_TI_begin_line(0x226)
    2031                      .dwattr $C$DW$161, DW_AT_TI_begin_column(0x06)
    2032                      .dwattr $C$DW$161, DW_AT_TI_max_frame_size(-2)
    2033                      .dwpsn  file "D:/Foc/my_motor/sw/drivers/adc/src/32b/f28x/f2802x/adc.c",line 551,column 1,is_stmt,add
    2034              
    2035                      .dwfde $C$DW$CIE, _ADC_disableNoOverlapMode
    2036              $C$DW$162       .dwtag  DW_TAG_formal_parameter, DW_AT_name("adcHandle")
    2037                      .dwattr $C$DW$162, DW_AT_TI_symbol_name("_adcHandle")
    2038                      .dwattr $C$DW$162, DW_AT_type(*$C$DW$T$71)
    2039                      .dwattr $C$DW$162, DW_AT_location[DW_OP_reg12]
    2040              
    2041              ;***************************************************************
    2042              ;* FNAME: _ADC_disableNoOverlapMode     FR SIZE:   0           *
    2043              ;*                                                             *
    2044              ;* FUNCTION ENVIRONMENT                                        *
    2045              ;*                                                             *
    2046              ;* FUNCTION PROPERTIES                                         *
TMS320C2000 Assembler PC v6.2.5 Mon Jul 10 09:53:36 2017

Tools Copyright (c) 1996-2014 Texas Instruments Incorporated
C:\Users\wmj\AppData\Local\Temp\0622010                              PAGE   40

    2047              ;*                            0 Parameter,  0 Auto,  0 SOE     *
    2048              ;***************************************************************
    2049              
    2050              _ADC_disableNoOverlapMode:
    2051              ;* AL    assigned to _adcHandle
    2052              $C$DW$163       .dwtag  DW_TAG_variable, DW_AT_name("adcHandle")
    2053                      .dwattr $C$DW$163, DW_AT_TI_symbol_name("_adcHandle")
    2054                      .dwattr $C$DW$163, DW_AT_type(*$C$DW$T$78)
    2055                      .dwattr $C$DW$163, DW_AT_location[DW_OP_reg0]
    2056                      .dwcfi  cfa_offset, -2
    2057                      .dwcfi  save_reg_to_mem, 26, 0
    2058                      .dwcfi  save_reg_to_reg, 78, 26
    2059 000001bc A8A9          MOVL      ACC,XAR4              ; [CPU_] |551| 
    2060 000001bd 7622   EALLOW
    2061                      .dwpsn  file "D:/Foc/my_motor/sw/drivers/adc/src/32b/f28x/f2802x/adc.c",line 558,column 3,is_stmt
    2062 000001be 8F00          MOVL      XAR4,#26113           ; [CPU_U] |558| 
         000001bf 6601 
    2063 000001c0 5601          ADDL      XAR4,ACC              ; [CPU_] |558| 
         000001c1 00A4 
    2064 000001c2 18C4          AND       *+XAR4[0],#0xfffd     ; [CPU_] |558| 
         000001c3 FFFD 
    2065 000001c4 761A   EDIS
    2066 000001c5 FF69          SPM       #0                    ; [CPU_] 
    2067              $C$DW$164       .dwtag  DW_TAG_TI_branch
    2068                      .dwattr $C$DW$164, DW_AT_low_pc(0x00)
    2069                      .dwattr $C$DW$164, DW_AT_TI_return
    2070 000001c6 0006          LRETR     ; [CPU_] 
    2071                      ; return occurs ; [] 
    2072                      .dwattr $C$DW$161, DW_AT_TI_end_file("D:/Foc/my_motor/sw/drivers/adc/src/32b/f28x/f2802x/adc.c")
    2073                      .dwattr $C$DW$161, DW_AT_TI_end_line(0x233)
    2074                      .dwattr $C$DW$161, DW_AT_TI_end_column(0x01)
    2075                      .dwendentry
    2076                      .dwendtag $C$DW$161
    2077              
    2078 000001c7               .sect   ".text"
    2079                      .clink
    2080                      .global _ADC_disableInt
    2081              
    2082              $C$DW$165       .dwtag  DW_TAG_subprogram, DW_AT_name("ADC_disableInt")
    2083                      .dwattr $C$DW$165, DW_AT_low_pc(_ADC_disableInt)
    2084                      .dwattr $C$DW$165, DW_AT_high_pc(0x00)
    2085                      .dwattr $C$DW$165, DW_AT_TI_symbol_name("_ADC_disableInt")
    2086                      .dwattr $C$DW$165, DW_AT_external
    2087                      .dwattr $C$DW$165, DW_AT_TI_begin_file("D:/Foc/my_motor/sw/drivers/adc/src/32b/f28x/f2802x/adc.c")
    2088                      .dwattr $C$DW$165, DW_AT_TI_begin_line(0x5a)
    2089                      .dwattr $C$DW$165, DW_AT_TI_begin_column(0x06)
    2090                      .dwattr $C$DW$165, DW_AT_TI_max_frame_size(-2)
    2091                      .dwpsn  file "D:/Foc/my_motor/sw/drivers/adc/src/32b/f28x/f2802x/adc.c",line 91,column 1,is_stmt,addr
    2092              
    2093                      .dwfde $C$DW$CIE, _ADC_disableInt
    2094              $C$DW$166       .dwtag  DW_TAG_formal_parameter, DW_AT_name("adcHandle")
    2095                      .dwattr $C$DW$166, DW_AT_TI_symbol_name("_adcHandle")
    2096                      .dwattr $C$DW$166, DW_AT_type(*$C$DW$T$71)
    2097                      .dwattr $C$DW$166, DW_AT_location[DW_OP_reg12]
    2098              $C$DW$167       .dwtag  DW_TAG_formal_parameter, DW_AT_name("intNumber")
TMS320C2000 Assembler PC v6.2.5 Mon Jul 10 09:53:36 2017

Tools Copyright (c) 1996-2014 Texas Instruments Incorporated
C:\Users\wmj\AppData\Local\Temp\0622010                              PAGE   41

    2099                      .dwattr $C$DW$167, DW_AT_TI_symbol_name("_intNumber")
    2100                      .dwattr $C$DW$167, DW_AT_type(*$C$DW$T$30)
    2101                      .dwattr $C$DW$167, DW_AT_location[DW_OP_reg0]
    2102              
    2103              ;***************************************************************
    2104              ;* FNAME: _ADC_disableInt               FR SIZE:   0           *
    2105              ;*                                                             *
    2106              ;* FUNCTION ENVIRONMENT                                        *
    2107              ;*                                                             *
    2108              ;* FUNCTION PROPERTIES                                         *
    2109              ;*                            0 Parameter,  0 Auto,  0 SOE     *
    2110              ;***************************************************************
    2111              
    2112              _ADC_disableInt:
    2113              ;* AR4   assigned to _adcHandle
    2114              $C$DW$168       .dwtag  DW_TAG_variable, DW_AT_name("adcHandle")
    2115                      .dwattr $C$DW$168, DW_AT_TI_symbol_name("_adcHandle")
    2116                      .dwattr $C$DW$168, DW_AT_type(*$C$DW$T$78)
    2117                      .dwattr $C$DW$168, DW_AT_location[DW_OP_reg12]
    2118              ;* AR6   assigned to _intNumber
    2119              $C$DW$169       .dwtag  DW_TAG_variable, DW_AT_name("intNumber")
    2120                      .dwattr $C$DW$169, DW_AT_TI_symbol_name("_intNumber")
    2121                      .dwattr $C$DW$169, DW_AT_type(*$C$DW$T$30)
    2122                      .dwattr $C$DW$169, DW_AT_location[DW_OP_reg16]
    2123              ;* AR7   assigned to _clearValue
    2124              $C$DW$170       .dwtag  DW_TAG_variable, DW_AT_name("clearValue")
    2125                      .dwattr $C$DW$170, DW_AT_TI_symbol_name("_clearValue")
    2126                      .dwattr $C$DW$170, DW_AT_type(*$C$DW$T$19)
    2127                      .dwattr $C$DW$170, DW_AT_location[DW_OP_reg18]
    2128                      .dwcfi  cfa_offset, -2
    2129                      .dwcfi  save_reg_to_mem, 26, 0
    2130                      .dwcfi  save_reg_to_reg, 78, 26
    2131 000001c7 88A9          MOVZ      AR6,AL                ; [CPU_] |91| 
    2132                      .dwpsn  file "D:/Foc/my_motor/sw/drivers/adc/src/32b/f28x/f2802x/adc.c",line 94,column 23,is_stmt
    2133 000001c8 5603          MOV       ACC,AR6 << #3         ; [CPU_] |94| 
         000001c9 03A6 
    2134 000001ca 28AC          MOV       T,#8                  ; [CPU_] |94| 
         000001cb 0008 
    2135 000001cc FF5E          NOT       AL                    ; [CPU_] |94| 
    2136 000001cd 9B20          MOVB      AH,#32                ; [CPU_] |94| 
    2137 000001ce 9008          ANDB      AL,#0x08              ; [CPU_] |94| 
    2138 000001cf 74AC          SUB       T,AL                  ; [CPU_] |94| 
    2139 000001d0 FF67          LSL       AH,T                  ; [CPU_] |94| 
    2140 000001d1 80A8          MOVZ      AR7,AH                ; [CPU_] |94| 
    2141 000001d2 7622   EALLOW
    2142                      .dwpsn  file "D:/Foc/my_motor/sw/drivers/adc/src/32b/f28x/f2802x/adc.c",line 101,column 3,is_stmt
    2143 000001d3 8F40          MOVL      XAR5,#26120           ; [CPU_U] |101| 
         000001d4 6608 
    2144 000001d5 92A6          MOV       AL,AR6                ; [CPU_] |101| 
    2145 000001d6 FFA0          ASR       AL,1                  ; [CPU_] |101| 
    2146 000001d7 88A9          MOVZ      AR6,AL                ; [CPU_] |101| 
    2147 000001d8 A8A9          MOVL      ACC,XAR4              ; [CPU_] |101| 
    2148 000001d9 0DA6          ADDU      ACC,AR6               ; [CPU_] |101| 
    2149 000001da 5601          ADDL      XAR5,ACC              ; [CPU_] |101| 
         000001db 00A5 
TMS320C2000 Assembler PC v6.2.5 Mon Jul 10 09:53:36 2017

Tools Copyright (c) 1996-2014 Texas Instruments Incorporated
C:\Users\wmj\AppData\Local\Temp\0622010                              PAGE   42

    2150 000001dc 92A7          MOV       AL,AR7                ; [CPU_] |101| 
    2151 000001dd FF5E          NOT       AL                    ; [CPU_] |101| 
    2152 000001de C0C5          AND       *+XAR5[0],AL          ; [CPU_] |101| 
    2153 000001df 761A   EDIS
    2154 000001e0 FF69          SPM       #0                    ; [CPU_] 
    2155              $C$DW$171       .dwtag  DW_TAG_TI_branch
    2156                      .dwattr $C$DW$171, DW_AT_low_pc(0x00)
    2157                      .dwattr $C$DW$171, DW_AT_TI_return
    2158 000001e1 0006          LRETR     ; [CPU_] 
    2159                      ; return occurs ; [] 
    2160                      .dwattr $C$DW$165, DW_AT_TI_end_file("D:/Foc/my_motor/sw/drivers/adc/src/32b/f28x/f2802x/adc.c")
    2161                      .dwattr $C$DW$165, DW_AT_TI_end_line(0x6a)
    2162                      .dwattr $C$DW$165, DW_AT_TI_end_column(0x01)
    2163                      .dwendentry
    2164                      .dwendtag $C$DW$165
    2165              
    2166 000001e2               .sect   ".text"
    2167                      .clink
    2168                      .global _ADC_disableBandGap
    2169              
    2170              $C$DW$172       .dwtag  DW_TAG_subprogram, DW_AT_name("ADC_disableBandGap")
    2171                      .dwattr $C$DW$172, DW_AT_low_pc(_ADC_disableBandGap)
    2172                      .dwattr $C$DW$172, DW_AT_high_pc(0x00)
    2173                      .dwattr $C$DW$172, DW_AT_TI_symbol_name("_ADC_disableBandGap")
    2174                      .dwattr $C$DW$172, DW_AT_external
    2175                      .dwattr $C$DW$172, DW_AT_TI_begin_file("D:/Foc/my_motor/sw/drivers/adc/src/32b/f28x/f2802x/adc.c")
    2176                      .dwattr $C$DW$172, DW_AT_TI_begin_line(0x4a)
    2177                      .dwattr $C$DW$172, DW_AT_TI_begin_column(0x06)
    2178                      .dwattr $C$DW$172, DW_AT_TI_max_frame_size(-2)
    2179                      .dwpsn  file "D:/Foc/my_motor/sw/drivers/adc/src/32b/f28x/f2802x/adc.c",line 75,column 1,is_stmt,addr
    2180              
    2181                      .dwfde $C$DW$CIE, _ADC_disableBandGap
    2182              $C$DW$173       .dwtag  DW_TAG_formal_parameter, DW_AT_name("adcHandle")
    2183                      .dwattr $C$DW$173, DW_AT_TI_symbol_name("_adcHandle")
    2184                      .dwattr $C$DW$173, DW_AT_type(*$C$DW$T$71)
    2185                      .dwattr $C$DW$173, DW_AT_location[DW_OP_reg12]
    2186              
    2187              ;***************************************************************
    2188              ;* FNAME: _ADC_disableBandGap           FR SIZE:   0           *
    2189              ;*                                                             *
    2190              ;* FUNCTION ENVIRONMENT                                        *
    2191              ;*                                                             *
    2192              ;* FUNCTION PROPERTIES                                         *
    2193              ;*                            0 Parameter,  0 Auto,  0 SOE     *
    2194              ;***************************************************************
    2195              
    2196              _ADC_disableBandGap:
    2197              ;* AL    assigned to _adcHandle
    2198              $C$DW$174       .dwtag  DW_TAG_variable, DW_AT_name("adcHandle")
    2199                      .dwattr $C$DW$174, DW_AT_TI_symbol_name("_adcHandle")
    2200                      .dwattr $C$DW$174, DW_AT_type(*$C$DW$T$78)
    2201                      .dwattr $C$DW$174, DW_AT_location[DW_OP_reg0]
    2202                      .dwcfi  cfa_offset, -2
    2203                      .dwcfi  save_reg_to_mem, 26, 0
    2204                      .dwcfi  save_reg_to_reg, 78, 26
TMS320C2000 Assembler PC v6.2.5 Mon Jul 10 09:53:36 2017

Tools Copyright (c) 1996-2014 Texas Instruments Incorporated
C:\Users\wmj\AppData\Local\Temp\0622010                              PAGE   43

    2205 000001e2 A8A9          MOVL      ACC,XAR4              ; [CPU_] |75| 
    2206 000001e3 7622   EALLOW
    2207                      .dwpsn  file "D:/Foc/my_motor/sw/drivers/adc/src/32b/f28x/f2802x/adc.c",line 82,column 3,is_stmt
    2208 000001e4 8F00          MOVL      XAR4,#26112           ; [CPU_U] |82| 
         000001e5 6600 
    2209 000001e6 5601          ADDL      XAR4,ACC              ; [CPU_] |82| 
         000001e7 00A4 
    2210 000001e8 18C4          AND       *+XAR4[0],#0xffbf     ; [CPU_] |82| 
         000001e9 FFBF 
    2211 000001ea 761A   EDIS
    2212 000001eb FF69          SPM       #0                    ; [CPU_] 
    2213              $C$DW$175       .dwtag  DW_TAG_TI_branch
    2214                      .dwattr $C$DW$175, DW_AT_low_pc(0x00)
    2215                      .dwattr $C$DW$175, DW_AT_TI_return
    2216 000001ec 0006          LRETR     ; [CPU_] 
    2217                      ; return occurs ; [] 
    2218                      .dwattr $C$DW$172, DW_AT_TI_end_file("D:/Foc/my_motor/sw/drivers/adc/src/32b/f28x/f2802x/adc.c")
    2219                      .dwattr $C$DW$172, DW_AT_TI_end_line(0x57)
    2220                      .dwattr $C$DW$172, DW_AT_TI_end_column(0x01)
    2221                      .dwendentry
    2222                      .dwendtag $C$DW$172
    2223              
    2224 000001ed               .sect   ".text"
    2225                      .clink
    2226                      .global _ADC_disable
    2227              
    2228              $C$DW$176       .dwtag  DW_TAG_subprogram, DW_AT_name("ADC_disable")
    2229                      .dwattr $C$DW$176, DW_AT_low_pc(_ADC_disable)
    2230                      .dwattr $C$DW$176, DW_AT_high_pc(0x00)
    2231                      .dwattr $C$DW$176, DW_AT_TI_symbol_name("_ADC_disable")
    2232                      .dwattr $C$DW$176, DW_AT_external
    2233                      .dwattr $C$DW$176, DW_AT_TI_begin_file("D:/Foc/my_motor/sw/drivers/adc/src/32b/f28x/f2802x/adc.c")
    2234                      .dwattr $C$DW$176, DW_AT_TI_begin_line(0x3b)
    2235                      .dwattr $C$DW$176, DW_AT_TI_begin_column(0x06)
    2236                      .dwattr $C$DW$176, DW_AT_TI_max_frame_size(-2)
    2237                      .dwpsn  file "D:/Foc/my_motor/sw/drivers/adc/src/32b/f28x/f2802x/adc.c",line 60,column 1,is_stmt,addr
    2238              
    2239                      .dwfde $C$DW$CIE, _ADC_disable
    2240              $C$DW$177       .dwtag  DW_TAG_formal_parameter, DW_AT_name("adcHandle")
    2241                      .dwattr $C$DW$177, DW_AT_TI_symbol_name("_adcHandle")
    2242                      .dwattr $C$DW$177, DW_AT_type(*$C$DW$T$71)
    2243                      .dwattr $C$DW$177, DW_AT_location[DW_OP_reg12]
    2244              
    2245              ;***************************************************************
    2246              ;* FNAME: _ADC_disable                  FR SIZE:   0           *
    2247              ;*                                                             *
    2248              ;* FUNCTION ENVIRONMENT                                        *
    2249              ;*                                                             *
    2250              ;* FUNCTION PROPERTIES                                         *
    2251              ;*                            0 Parameter,  0 Auto,  0 SOE     *
    2252              ;***************************************************************
    2253              
    2254              _ADC_disable:
    2255              ;* AL    assigned to _adcHandle
    2256              $C$DW$178       .dwtag  DW_TAG_variable, DW_AT_name("adcHandle")
TMS320C2000 Assembler PC v6.2.5 Mon Jul 10 09:53:36 2017

Tools Copyright (c) 1996-2014 Texas Instruments Incorporated
C:\Users\wmj\AppData\Local\Temp\0622010                              PAGE   44

    2257                      .dwattr $C$DW$178, DW_AT_TI_symbol_name("_adcHandle")
    2258                      .dwattr $C$DW$178, DW_AT_type(*$C$DW$T$78)
    2259                      .dwattr $C$DW$178, DW_AT_location[DW_OP_reg0]
    2260                      .dwcfi  cfa_offset, -2
    2261                      .dwcfi  save_reg_to_mem, 26, 0
    2262                      .dwcfi  save_reg_to_reg, 78, 26
    2263 000001ed A8A9          MOVL      ACC,XAR4              ; [CPU_] |60| 
    2264 000001ee 7622   EALLOW
    2265                      .dwpsn  file "D:/Foc/my_motor/sw/drivers/adc/src/32b/f28x/f2802x/adc.c",line 66,column 3,is_stmt
    2266 000001ef 8F00          MOVL      XAR4,#26112           ; [CPU_U] |66| 
         000001f0 6600 
    2267 000001f1 5601          ADDL      XAR4,ACC              ; [CPU_] |66| 
         000001f2 00A4 
    2268 000001f3 18C4          AND       *+XAR4[0],#0xbfff     ; [CPU_] |66| 
         000001f4 BFFF 
    2269 000001f5 761A   EDIS
    2270 000001f6 FF69          SPM       #0                    ; [CPU_] 
    2271              $C$DW$179       .dwtag  DW_TAG_TI_branch
    2272                      .dwattr $C$DW$179, DW_AT_low_pc(0x00)
    2273                      .dwattr $C$DW$179, DW_AT_TI_return
    2274 000001f7 0006          LRETR     ; [CPU_] 
    2275                      ; return occurs ; [] 
    2276                      .dwattr $C$DW$176, DW_AT_TI_end_file("D:/Foc/my_motor/sw/drivers/adc/src/32b/f28x/f2802x/adc.c")
    2277                      .dwattr $C$DW$176, DW_AT_TI_end_line(0x47)
    2278                      .dwattr $C$DW$176, DW_AT_TI_end_column(0x01)
    2279                      .dwendentry
    2280                      .dwendtag $C$DW$176
    2281              
    2282              
    2283              ;***************************************************************
    2284              ;* TYPE INFORMATION                                            *
    2285              ;***************************************************************
    2286              
    2287              $C$DW$T$28      .dwtag  DW_TAG_enumeration_type
    2288                      .dwattr $C$DW$T$28, DW_AT_byte_size(0x01)
    2289              $C$DW$180       .dwtag  DW_TAG_enumerator, DW_AT_name("ADC_IntNumber_1"), DW_AT_const_value(0x00)
    2290              $C$DW$181       .dwtag  DW_TAG_enumerator, DW_AT_name("ADC_IntNumber_2"), DW_AT_const_value(0x01)
    2291              $C$DW$182       .dwtag  DW_TAG_enumerator, DW_AT_name("ADC_IntNumber_3"), DW_AT_const_value(0x02)
    2292              $C$DW$183       .dwtag  DW_TAG_enumerator, DW_AT_name("ADC_IntNumber_4"), DW_AT_const_value(0x03)
    2293              $C$DW$184       .dwtag  DW_TAG_enumerator, DW_AT_name("ADC_IntNumber_5"), DW_AT_const_value(0x04)
    2294              $C$DW$185       .dwtag  DW_TAG_enumerator, DW_AT_name("ADC_IntNumber_6"), DW_AT_const_value(0x05)
    2295              $C$DW$186       .dwtag  DW_TAG_enumerator, DW_AT_name("ADC_IntNumber_7"), DW_AT_const_value(0x06)
    2296              $C$DW$187       .dwtag  DW_TAG_enumerator, DW_AT_name("ADC_IntNumber_8"), DW_AT_const_value(0x07)
    2297              $C$DW$188       .dwtag  DW_TAG_enumerator, DW_AT_name("ADC_IntNumber_9"), DW_AT_const_value(0x08)
    2298              $C$DW$189       .dwtag  DW_TAG_enumerator, DW_AT_name("ADC_IntNumber_1HP"), DW_AT_const_value(0x09)
    2299              $C$DW$190       .dwtag  DW_TAG_enumerator, DW_AT_name("ADC_IntNumber_2HP"), DW_AT_const_value(0x0a)
    2300              $C$DW$191       .dwtag  DW_TAG_enumerator, DW_AT_name("ADC_IntNumber_9HP"), DW_AT_const_value(0x0e)
    2301                      .dwendtag $C$DW$T$28
    2302              
    2303              $C$DW$T$29      .dwtag  DW_TAG_typedef, DW_AT_name("ADC_IntNumber_e")
    2304                      .dwattr $C$DW$T$29, DW_AT_type(*$C$DW$T$28)
    2305                      .dwattr $C$DW$T$29, DW_AT_language(DW_LANG_C)
    2306              $C$DW$192       .dwtag  DW_TAG_TI_far_type
    2307                      .dwattr $C$DW$192, DW_AT_type(*$C$DW$T$29)
    2308              $C$DW$T$30      .dwtag  DW_TAG_const_type
TMS320C2000 Assembler PC v6.2.5 Mon Jul 10 09:53:36 2017

Tools Copyright (c) 1996-2014 Texas Instruments Incorporated
C:\Users\wmj\AppData\Local\Temp\0622010                              PAGE   45

    2309                      .dwattr $C$DW$T$30, DW_AT_type(*$C$DW$192)
    2310              
    2311              $C$DW$T$31      .dwtag  DW_TAG_enumeration_type
    2312                      .dwattr $C$DW$T$31, DW_AT_byte_size(0x01)
    2313              $C$DW$193       .dwtag  DW_TAG_enumerator, DW_AT_name("ADC_ADCCTL2_Overlap"), DW_AT_const_value(0x00)
    2314              $C$DW$194       .dwtag  DW_TAG_enumerator, DW_AT_name("ADC_ADCCTL2_NoOverlap"), DW_AT_const_value(0x01)
    2315                      .dwendtag $C$DW$T$31
    2316              
    2317              $C$DW$T$32      .dwtag  DW_TAG_typedef, DW_AT_name("ADC_ADCCTL2_ADCNONOVERLAP_e")
    2318                      .dwattr $C$DW$T$32, DW_AT_type(*$C$DW$T$31)
    2319                      .dwattr $C$DW$T$32, DW_AT_language(DW_LANG_C)
    2320              $C$DW$195       .dwtag  DW_TAG_TI_far_type
    2321                      .dwattr $C$DW$195, DW_AT_type(*$C$DW$T$32)
    2322              $C$DW$T$33      .dwtag  DW_TAG_const_type
    2323                      .dwattr $C$DW$T$33, DW_AT_type(*$C$DW$195)
    2324              
    2325              $C$DW$T$34      .dwtag  DW_TAG_enumeration_type
    2326                      .dwattr $C$DW$T$34, DW_AT_byte_size(0x01)
    2327              $C$DW$196       .dwtag  DW_TAG_enumerator, DW_AT_name("ADC_IntMode_ClearFlag"), DW_AT_const_value(0x00)
    2328              $C$DW$197       .dwtag  DW_TAG_enumerator, DW_AT_name("ADC_IntMode_EOC"), DW_AT_const_value(0x40)
    2329                      .dwendtag $C$DW$T$34
    2330              
    2331              $C$DW$T$35      .dwtag  DW_TAG_typedef, DW_AT_name("ADC_IntMode_e")
    2332                      .dwattr $C$DW$T$35, DW_AT_type(*$C$DW$T$34)
    2333                      .dwattr $C$DW$T$35, DW_AT_language(DW_LANG_C)
    2334              $C$DW$198       .dwtag  DW_TAG_TI_far_type
    2335                      .dwattr $C$DW$198, DW_AT_type(*$C$DW$T$35)
    2336              $C$DW$T$36      .dwtag  DW_TAG_const_type
    2337                      .dwattr $C$DW$T$36, DW_AT_type(*$C$DW$198)
    2338              
    2339              $C$DW$T$37      .dwtag  DW_TAG_enumeration_type
    2340                      .dwattr $C$DW$T$37, DW_AT_byte_size(0x01)
    2341              $C$DW$199       .dwtag  DW_TAG_enumerator, DW_AT_name("ADC_IntPulseGenMode_During"), DW_AT_const_value(0x00)
    2342              $C$DW$200       .dwtag  DW_TAG_enumerator, DW_AT_name("ADC_IntPulseGenMode_Prior"), DW_AT_const_value(0x04)
    2343                      .dwendtag $C$DW$T$37
    2344              
    2345              $C$DW$T$38      .dwtag  DW_TAG_typedef, DW_AT_name("ADC_IntPulseGenMode_e")
    2346                      .dwattr $C$DW$T$38, DW_AT_type(*$C$DW$T$37)
    2347                      .dwattr $C$DW$T$38, DW_AT_language(DW_LANG_C)
    2348              $C$DW$201       .dwtag  DW_TAG_TI_far_type
    2349                      .dwattr $C$DW$201, DW_AT_type(*$C$DW$T$38)
    2350              $C$DW$T$39      .dwtag  DW_TAG_const_type
    2351                      .dwattr $C$DW$T$39, DW_AT_type(*$C$DW$201)
    2352              
    2353              $C$DW$T$40      .dwtag  DW_TAG_enumeration_type
    2354                      .dwattr $C$DW$T$40, DW_AT_byte_size(0x01)
    2355              $C$DW$202       .dwtag  DW_TAG_enumerator, DW_AT_name("ADC_IntSrc_EOC0"), DW_AT_const_value(0x00)
    2356              $C$DW$203       .dwtag  DW_TAG_enumerator, DW_AT_name("ADC_IntSrc_EOC1"), DW_AT_const_value(0x01)
    2357              $C$DW$204       .dwtag  DW_TAG_enumerator, DW_AT_name("ADC_IntSrc_EOC2"), DW_AT_const_value(0x02)
    2358              $C$DW$205       .dwtag  DW_TAG_enumerator, DW_AT_name("ADC_IntSrc_EOC3"), DW_AT_const_value(0x03)
    2359              $C$DW$206       .dwtag  DW_TAG_enumerator, DW_AT_name("ADC_IntSrc_EOC4"), DW_AT_const_value(0x04)
    2360              $C$DW$207       .dwtag  DW_TAG_enumerator, DW_AT_name("ADC_IntSrc_EOC5"), DW_AT_const_value(0x05)
    2361              $C$DW$208       .dwtag  DW_TAG_enumerator, DW_AT_name("ADC_IntSrc_EOC6"), DW_AT_const_value(0x06)
    2362              $C$DW$209       .dwtag  DW_TAG_enumerator, DW_AT_name("ADC_IntSrc_EOC7"), DW_AT_const_value(0x07)
    2363              $C$DW$210       .dwtag  DW_TAG_enumerator, DW_AT_name("ADC_IntSrc_EOC8"), DW_AT_const_value(0x08)
TMS320C2000 Assembler PC v6.2.5 Mon Jul 10 09:53:36 2017

Tools Copyright (c) 1996-2014 Texas Instruments Incorporated
C:\Users\wmj\AppData\Local\Temp\0622010                              PAGE   46

    2364              $C$DW$211       .dwtag  DW_TAG_enumerator, DW_AT_name("ADC_IntSrc_EOC9"), DW_AT_const_value(0x09)
    2365              $C$DW$212       .dwtag  DW_TAG_enumerator, DW_AT_name("ADC_IntSrc_EOC10"), DW_AT_const_value(0x0a)
    2366              $C$DW$213       .dwtag  DW_TAG_enumerator, DW_AT_name("ADC_IntSrc_EOC11"), DW_AT_const_value(0x0b)
    2367              $C$DW$214       .dwtag  DW_TAG_enumerator, DW_AT_name("ADC_IntSrc_EOC12"), DW_AT_const_value(0x0c)
    2368              $C$DW$215       .dwtag  DW_TAG_enumerator, DW_AT_name("ADC_IntSrc_EOC13"), DW_AT_const_value(0x0d)
    2369              $C$DW$216       .dwtag  DW_TAG_enumerator, DW_AT_name("ADC_IntSrc_EOC14"), DW_AT_const_value(0x0e)
    2370              $C$DW$217       .dwtag  DW_TAG_enumerator, DW_AT_name("ADC_IntSrc_EOC15"), DW_AT_const_value(0x0f)
    2371                      .dwendtag $C$DW$T$40
    2372              
    2373              $C$DW$T$41      .dwtag  DW_TAG_typedef, DW_AT_name("ADC_IntSrc_e")
    2374                      .dwattr $C$DW$T$41, DW_AT_type(*$C$DW$T$40)
    2375                      .dwattr $C$DW$T$41, DW_AT_language(DW_LANG_C)
    2376              $C$DW$218       .dwtag  DW_TAG_TI_far_type
    2377                      .dwattr $C$DW$218, DW_AT_type(*$C$DW$T$41)
    2378              $C$DW$T$42      .dwtag  DW_TAG_const_type
    2379                      .dwattr $C$DW$T$42, DW_AT_type(*$C$DW$218)
    2380              
    2381              $C$DW$T$43      .dwtag  DW_TAG_enumeration_type
    2382                      .dwattr $C$DW$T$43, DW_AT_byte_size(0x01)
    2383              $C$DW$219       .dwtag  DW_TAG_enumerator, DW_AT_name("ADC_SampleMode_SOC0_and_SOC1_Separate"), DW_AT_const_v
    2384              $C$DW$220       .dwtag  DW_TAG_enumerator, DW_AT_name("ADC_SampleMode_SOC2_and_SOC3_Separate"), DW_AT_const_v
    2385              $C$DW$221       .dwtag  DW_TAG_enumerator, DW_AT_name("ADC_SampleMode_SOC4_and_SOC5_Separate"), DW_AT_const_v
    2386              $C$DW$222       .dwtag  DW_TAG_enumerator, DW_AT_name("ADC_SampleMode_SOC6_and_SOC7_Separate"), DW_AT_const_v
    2387              $C$DW$223       .dwtag  DW_TAG_enumerator, DW_AT_name("ADC_SampleMode_SOC8_and_SOC9_Separate"), DW_AT_const_v
    2388              $C$DW$224       .dwtag  DW_TAG_enumerator, DW_AT_name("ADC_SampleMode_SOC10_and_SOC11_Separate"), DW_AT_const
    2389              $C$DW$225       .dwtag  DW_TAG_enumerator, DW_AT_name("ADC_SampleMode_SOC12_and_SOC13_Separate"), DW_AT_const
    2390              $C$DW$226       .dwtag  DW_TAG_enumerator, DW_AT_name("ADC_SampleMode_SOC14_and_SOC15_Separate"), DW_AT_const
    2391              $C$DW$227       .dwtag  DW_TAG_enumerator, DW_AT_name("ADC_SampleMode_SOC0_and_SOC1_Together"), DW_AT_const_v
    2392              $C$DW$228       .dwtag  DW_TAG_enumerator, DW_AT_name("ADC_SampleMode_SOC2_and_SOC3_Together"), DW_AT_const_v
    2393              $C$DW$229       .dwtag  DW_TAG_enumerator, DW_AT_name("ADC_SampleMode_SOC4_and_SOC5_Together"), DW_AT_const_v
    2394              $C$DW$230       .dwtag  DW_TAG_enumerator, DW_AT_name("ADC_SampleMode_SOC6_and_SOC7_Together"), DW_AT_const_v
    2395              $C$DW$231       .dwtag  DW_TAG_enumerator, DW_AT_name("ADC_SampleMode_SOC8_and_SOC9_Together"), DW_AT_const_v
    2396              $C$DW$232       .dwtag  DW_TAG_enumerator, DW_AT_name("ADC_SampleMode_SOC10_and_SOC11_Together"), DW_AT_const
    2397              $C$DW$233       .dwtag  DW_TAG_enumerator, DW_AT_name("ADC_SampleMode_SOC12_and_SOC13_Together"), DW_AT_const
    2398              $C$DW$234       .dwtag  DW_TAG_enumerator, DW_AT_name("ADC_SampleMode_SOC14_and_SOC15_Together"), DW_AT_const
    2399                      .dwendtag $C$DW$T$43
    2400              
    2401              $C$DW$T$44      .dwtag  DW_TAG_typedef, DW_AT_name("ADC_SampleMode_e")
    2402                      .dwattr $C$DW$T$44, DW_AT_type(*$C$DW$T$43)
    2403                      .dwattr $C$DW$T$44, DW_AT_language(DW_LANG_C)
    2404              $C$DW$235       .dwtag  DW_TAG_TI_far_type
    2405                      .dwattr $C$DW$235, DW_AT_type(*$C$DW$T$44)
    2406              $C$DW$T$45      .dwtag  DW_TAG_const_type
    2407                      .dwattr $C$DW$T$45, DW_AT_type(*$C$DW$235)
    2408              
    2409              $C$DW$T$46      .dwtag  DW_TAG_enumeration_type
    2410                      .dwattr $C$DW$T$46, DW_AT_byte_size(0x01)
    2411              $C$DW$236       .dwtag  DW_TAG_enumerator, DW_AT_name("ADC_SocNumber_0"), DW_AT_const_value(0x00)
    2412              $C$DW$237       .dwtag  DW_TAG_enumerator, DW_AT_name("ADC_SocNumber_1"), DW_AT_const_value(0x01)
    2413              $C$DW$238       .dwtag  DW_TAG_enumerator, DW_AT_name("ADC_SocNumber_2"), DW_AT_const_value(0x02)
    2414              $C$DW$239       .dwtag  DW_TAG_enumerator, DW_AT_name("ADC_SocNumber_3"), DW_AT_const_value(0x03)
    2415              $C$DW$240       .dwtag  DW_TAG_enumerator, DW_AT_name("ADC_SocNumber_4"), DW_AT_const_value(0x04)
    2416              $C$DW$241       .dwtag  DW_TAG_enumerator, DW_AT_name("ADC_SocNumber_5"), DW_AT_const_value(0x05)
    2417              $C$DW$242       .dwtag  DW_TAG_enumerator, DW_AT_name("ADC_SocNumber_6"), DW_AT_const_value(0x06)
    2418              $C$DW$243       .dwtag  DW_TAG_enumerator, DW_AT_name("ADC_SocNumber_7"), DW_AT_const_value(0x07)
TMS320C2000 Assembler PC v6.2.5 Mon Jul 10 09:53:36 2017

Tools Copyright (c) 1996-2014 Texas Instruments Incorporated
C:\Users\wmj\AppData\Local\Temp\0622010                              PAGE   47

    2419              $C$DW$244       .dwtag  DW_TAG_enumerator, DW_AT_name("ADC_SocNumber_8"), DW_AT_const_value(0x08)
    2420              $C$DW$245       .dwtag  DW_TAG_enumerator, DW_AT_name("ADC_SocNumber_9"), DW_AT_const_value(0x09)
    2421              $C$DW$246       .dwtag  DW_TAG_enumerator, DW_AT_name("ADC_SocNumber_10"), DW_AT_const_value(0x0a)
    2422              $C$DW$247       .dwtag  DW_TAG_enumerator, DW_AT_name("ADC_SocNumber_11"), DW_AT_const_value(0x0b)
    2423              $C$DW$248       .dwtag  DW_TAG_enumerator, DW_AT_name("ADC_SocNumber_12"), DW_AT_const_value(0x0c)
    2424              $C$DW$249       .dwtag  DW_TAG_enumerator, DW_AT_name("ADC_SocNumber_13"), DW_AT_const_value(0x0d)
    2425              $C$DW$250       .dwtag  DW_TAG_enumerator, DW_AT_name("ADC_SocNumber_14"), DW_AT_const_value(0x0e)
    2426              $C$DW$251       .dwtag  DW_TAG_enumerator, DW_AT_name("ADC_SocNumber_15"), DW_AT_const_value(0x0f)
    2427                      .dwendtag $C$DW$T$46
    2428              
    2429              $C$DW$T$47      .dwtag  DW_TAG_typedef, DW_AT_name("ADC_SocNumber_e")
    2430                      .dwattr $C$DW$T$47, DW_AT_type(*$C$DW$T$46)
    2431                      .dwattr $C$DW$T$47, DW_AT_language(DW_LANG_C)
    2432              $C$DW$252       .dwtag  DW_TAG_TI_far_type
    2433                      .dwattr $C$DW$252, DW_AT_type(*$C$DW$T$47)
    2434              $C$DW$T$48      .dwtag  DW_TAG_const_type
    2435                      .dwattr $C$DW$T$48, DW_AT_type(*$C$DW$252)
    2436              
    2437              $C$DW$T$49      .dwtag  DW_TAG_enumeration_type
    2438                      .dwattr $C$DW$T$49, DW_AT_byte_size(0x01)
    2439              $C$DW$253       .dwtag  DW_TAG_enumerator, DW_AT_name("ADC_SocChanNumber_A0"), DW_AT_const_value(0x00)
    2440              $C$DW$254       .dwtag  DW_TAG_enumerator, DW_AT_name("ADC_SocChanNumber_A1"), DW_AT_const_value(0x40)
    2441              $C$DW$255       .dwtag  DW_TAG_enumerator, DW_AT_name("ADC_SocChanNumber_A2"), DW_AT_const_value(0x80)
    2442              $C$DW$256       .dwtag  DW_TAG_enumerator, DW_AT_name("ADC_SocChanNumber_A3"), DW_AT_const_value(0xc0)
    2443              $C$DW$257       .dwtag  DW_TAG_enumerator, DW_AT_name("ADC_SocChanNumber_A4"), DW_AT_const_value(0x100)
    2444              $C$DW$258       .dwtag  DW_TAG_enumerator, DW_AT_name("ADC_SocChanNumber_A5"), DW_AT_const_value(0x140)
    2445              $C$DW$259       .dwtag  DW_TAG_enumerator, DW_AT_name("ADC_SocChanNumber_A6"), DW_AT_const_value(0x180)
    2446              $C$DW$260       .dwtag  DW_TAG_enumerator, DW_AT_name("ADC_SocChanNumber_A7"), DW_AT_const_value(0x1c0)
    2447              $C$DW$261       .dwtag  DW_TAG_enumerator, DW_AT_name("ADC_SocChanNumber_B0"), DW_AT_const_value(0x200)
    2448              $C$DW$262       .dwtag  DW_TAG_enumerator, DW_AT_name("ADC_SocChanNumber_B1"), DW_AT_const_value(0x240)
    2449              $C$DW$263       .dwtag  DW_TAG_enumerator, DW_AT_name("ADC_SocChanNumber_B2"), DW_AT_const_value(0x280)
    2450              $C$DW$264       .dwtag  DW_TAG_enumerator, DW_AT_name("ADC_SocChanNumber_B3"), DW_AT_const_value(0x2c0)
    2451              $C$DW$265       .dwtag  DW_TAG_enumerator, DW_AT_name("ADC_SocChanNumber_B4"), DW_AT_const_value(0x300)
    2452              $C$DW$266       .dwtag  DW_TAG_enumerator, DW_AT_name("ADC_SocChanNumber_B5"), DW_AT_const_value(0x340)
    2453              $C$DW$267       .dwtag  DW_TAG_enumerator, DW_AT_name("ADC_SocChanNumber_B6"), DW_AT_const_value(0x380)
    2454              $C$DW$268       .dwtag  DW_TAG_enumerator, DW_AT_name("ADC_SocChanNumber_B7"), DW_AT_const_value(0x3c0)
    2455              $C$DW$269       .dwtag  DW_TAG_enumerator, DW_AT_name("ADC_SocChanNumber_A0_and_B0_Together"), DW_AT_const_va
    2456              $C$DW$270       .dwtag  DW_TAG_enumerator, DW_AT_name("ADC_SocChanNumber_A1_and_B1_Together"), DW_AT_const_va
    2457              $C$DW$271       .dwtag  DW_TAG_enumerator, DW_AT_name("ADC_SocChanNumber_A2_and_B2_Together"), DW_AT_const_va
    2458              $C$DW$272       .dwtag  DW_TAG_enumerator, DW_AT_name("ADC_SocChanNumber_A3_and_B3_Together"), DW_AT_const_va
    2459              $C$DW$273       .dwtag  DW_TAG_enumerator, DW_AT_name("ADC_SocChanNumber_A4_and_B4_Together"), DW_AT_const_va
    2460              $C$DW$274       .dwtag  DW_TAG_enumerator, DW_AT_name("ADC_SocChanNumber_A5_and_B5_Together"), DW_AT_const_va
    2461              $C$DW$275       .dwtag  DW_TAG_enumerator, DW_AT_name("ADC_SocChanNumber_A6_and_B6_Together"), DW_AT_const_va
    2462              $C$DW$276       .dwtag  DW_TAG_enumerator, DW_AT_name("ADC_SocChanNumber_A7_and_B7_Together"), DW_AT_const_va
    2463                      .dwendtag $C$DW$T$49
    2464              
    2465              $C$DW$T$50      .dwtag  DW_TAG_typedef, DW_AT_name("ADC_SocChanNumber_e")
    2466                      .dwattr $C$DW$T$50, DW_AT_type(*$C$DW$T$49)
    2467                      .dwattr $C$DW$T$50, DW_AT_language(DW_LANG_C)
    2468              $C$DW$277       .dwtag  DW_TAG_TI_far_type
    2469                      .dwattr $C$DW$277, DW_AT_type(*$C$DW$T$50)
    2470              $C$DW$T$51      .dwtag  DW_TAG_const_type
    2471                      .dwattr $C$DW$T$51, DW_AT_type(*$C$DW$277)
    2472              
    2473              $C$DW$T$52      .dwtag  DW_TAG_enumeration_type
TMS320C2000 Assembler PC v6.2.5 Mon Jul 10 09:53:36 2017

Tools Copyright (c) 1996-2014 Texas Instruments Incorporated
C:\Users\wmj\AppData\Local\Temp\0622010                              PAGE   48

    2474                      .dwattr $C$DW$T$52, DW_AT_byte_size(0x01)
    2475              $C$DW$278       .dwtag  DW_TAG_enumerator, DW_AT_name("ADC_SocSampleDelay_7_cycles"), DW_AT_const_value(0x06)
    2476              $C$DW$279       .dwtag  DW_TAG_enumerator, DW_AT_name("ADC_SocSampleDelay_8_cycles"), DW_AT_const_value(0x07)
    2477              $C$DW$280       .dwtag  DW_TAG_enumerator, DW_AT_name("ADC_SocSampleDelay_9_cycles"), DW_AT_const_value(0x08)
    2478              $C$DW$281       .dwtag  DW_TAG_enumerator, DW_AT_name("ADC_SocSampleDelay_10_cycles"), DW_AT_const_value(0x09
    2479              $C$DW$282       .dwtag  DW_TAG_enumerator, DW_AT_name("ADC_SocSampleDelay_11_cycles"), DW_AT_const_value(0x0a
    2480              $C$DW$283       .dwtag  DW_TAG_enumerator, DW_AT_name("ADC_SocSampleDelay_12_cycles"), DW_AT_const_value(0x0b
    2481              $C$DW$284       .dwtag  DW_TAG_enumerator, DW_AT_name("ADC_SocSampleDelay_13_cycles"), DW_AT_const_value(0x0c
    2482              $C$DW$285       .dwtag  DW_TAG_enumerator, DW_AT_name("ADC_SocSampleDelay_14_cycles"), DW_AT_const_value(0x0d
    2483              $C$DW$286       .dwtag  DW_TAG_enumerator, DW_AT_name("ADC_SocSampleDelay_15_cycles"), DW_AT_const_value(0x0e
    2484              $C$DW$287       .dwtag  DW_TAG_enumerator, DW_AT_name("ADC_SocSampleDelay_16_cycles"), DW_AT_const_value(0x0f
    2485              $C$DW$288       .dwtag  DW_TAG_enumerator, DW_AT_name("ADC_SocSampleDelay_22_cycles"), DW_AT_const_value(0x15
    2486              $C$DW$289       .dwtag  DW_TAG_enumerator, DW_AT_name("ADC_SocSampleDelay_23_cycles"), DW_AT_const_value(0x16
    2487              $C$DW$290       .dwtag  DW_TAG_enumerator, DW_AT_name("ADC_SocSampleDelay_24_cycles"), DW_AT_const_value(0x17
    2488              $C$DW$291       .dwtag  DW_TAG_enumerator, DW_AT_name("ADC_SocSampleDelay_25_cycles"), DW_AT_const_value(0x18
    2489              $C$DW$292       .dwtag  DW_TAG_enumerator, DW_AT_name("ADC_SocSampleDelay_26_cycles"), DW_AT_const_value(0x19
    2490              $C$DW$293       .dwtag  DW_TAG_enumerator, DW_AT_name("ADC_SocSampleDelay_27_cycles"), DW_AT_const_value(0x1a
    2491              $C$DW$294       .dwtag  DW_TAG_enumerator, DW_AT_name("ADC_SocSampleDelay_28_cycles"), DW_AT_const_value(0x1b
    2492              $C$DW$295       .dwtag  DW_TAG_enumerator, DW_AT_name("ADC_SocSampleDelay_29_cycles"), DW_AT_const_value(0x1c
    2493              $C$DW$296       .dwtag  DW_TAG_enumerator, DW_AT_name("ADC_SocSampleDelay_35_cycles"), DW_AT_const_value(0x22
    2494              $C$DW$297       .dwtag  DW_TAG_enumerator, DW_AT_name("ADC_SocSampleDelay_36_cycles"), DW_AT_const_value(0x23
    2495              $C$DW$298       .dwtag  DW_TAG_enumerator, DW_AT_name("ADC_SocSampleDelay_37_cycles"), DW_AT_const_value(0x24
    2496              $C$DW$299       .dwtag  DW_TAG_enumerator, DW_AT_name("ADC_SocSampleDelay_38_cycles"), DW_AT_const_value(0x25
    2497              $C$DW$300       .dwtag  DW_TAG_enumerator, DW_AT_name("ADC_SocSampleDelay_39_cycles"), DW_AT_const_value(0x26
    2498              $C$DW$301       .dwtag  DW_TAG_enumerator, DW_AT_name("ADC_SocSampleDelay_40_cycles"), DW_AT_const_value(0x27
    2499              $C$DW$302       .dwtag  DW_TAG_enumerator, DW_AT_name("ADC_SocSampleDelay_41_cycles"), DW_AT_const_value(0x28
    2500              $C$DW$303       .dwtag  DW_TAG_enumerator, DW_AT_name("ADC_SocSampleDelay_42_cycles"), DW_AT_const_value(0x29
    2501              $C$DW$304       .dwtag  DW_TAG_enumerator, DW_AT_name("ADC_SocSampleDelay_48_cycles"), DW_AT_const_value(0x2f
    2502              $C$DW$305       .dwtag  DW_TAG_enumerator, DW_AT_name("ADC_SocSampleDelay_49_cycles"), DW_AT_const_value(0x30
    2503              $C$DW$306       .dwtag  DW_TAG_enumerator, DW_AT_name("ADC_SocSampleDelay_50_cycles"), DW_AT_const_value(0x31
    2504              $C$DW$307       .dwtag  DW_TAG_enumerator, DW_AT_name("ADC_SocSampleDelay_51_cycles"), DW_AT_const_value(0x32
    2505              $C$DW$308       .dwtag  DW_TAG_enumerator, DW_AT_name("ADC_SocSampleDelay_52_cycles"), DW_AT_const_value(0x33
    2506              $C$DW$309       .dwtag  DW_TAG_enumerator, DW_AT_name("ADC_SocSampleDelay_53_cycles"), DW_AT_const_value(0x34
    2507              $C$DW$310       .dwtag  DW_TAG_enumerator, DW_AT_name("ADC_SocSampleDelay_54_cycles"), DW_AT_const_value(0x35
    2508              $C$DW$311       .dwtag  DW_TAG_enumerator, DW_AT_name("ADC_SocSampleDelay_55_cycles"), DW_AT_const_value(0x36
    2509              $C$DW$312       .dwtag  DW_TAG_enumerator, DW_AT_name("ADC_SocSampleDelay_61_cycles"), DW_AT_const_value(0x3c
    2510              $C$DW$313       .dwtag  DW_TAG_enumerator, DW_AT_name("ADC_SocSampleDelay_62_cycles"), DW_AT_const_value(0x3d
    2511              $C$DW$314       .dwtag  DW_TAG_enumerator, DW_AT_name("ADC_SocSampleDelay_63_cycles"), DW_AT_const_value(0x3e
    2512              $C$DW$315       .dwtag  DW_TAG_enumerator, DW_AT_name("ADC_SocSampleDelay_64_cycles"), DW_AT_const_value(0x3f
    2513                      .dwendtag $C$DW$T$52
    2514              
    2515              $C$DW$T$53      .dwtag  DW_TAG_typedef, DW_AT_name("ADC_SocSampleDelay_e")
    2516                      .dwattr $C$DW$T$53, DW_AT_type(*$C$DW$T$52)
    2517                      .dwattr $C$DW$T$53, DW_AT_language(DW_LANG_C)
    2518              $C$DW$316       .dwtag  DW_TAG_TI_far_type
    2519                      .dwattr $C$DW$316, DW_AT_type(*$C$DW$T$53)
    2520              $C$DW$T$54      .dwtag  DW_TAG_const_type
    2521                      .dwattr $C$DW$T$54, DW_AT_type(*$C$DW$316)
    2522              
    2523              $C$DW$T$55      .dwtag  DW_TAG_enumeration_type
    2524                      .dwattr $C$DW$T$55, DW_AT_byte_size(0x01)
    2525              $C$DW$317       .dwtag  DW_TAG_enumerator, DW_AT_name("ADC_SocTrigSrc_Sw"), DW_AT_const_value(0x00)
    2526              $C$DW$318       .dwtag  DW_TAG_enumerator, DW_AT_name("ADC_SocTrigSrc_CpuTimer_0"), DW_AT_const_value(0x800)
    2527              $C$DW$319       .dwtag  DW_TAG_enumerator, DW_AT_name("ADC_SocTrigSrc_CpuTimer_1"), DW_AT_const_value(0x1000)
    2528              $C$DW$320       .dwtag  DW_TAG_enumerator, DW_AT_name("ADC_SocTrigSrc_CpuTimer_2"), DW_AT_const_value(0x1800)
TMS320C2000 Assembler PC v6.2.5 Mon Jul 10 09:53:36 2017

Tools Copyright (c) 1996-2014 Texas Instruments Incorporated
C:\Users\wmj\AppData\Local\Temp\0622010                              PAGE   49

    2529              $C$DW$321       .dwtag  DW_TAG_enumerator, DW_AT_name("ADC_SocTrigSrc_XINT2_XINT2SOC"), DW_AT_const_value(0x2
    2530              $C$DW$322       .dwtag  DW_TAG_enumerator, DW_AT_name("ADC_SocTrigSrc_EPWM1_ADCSOCA"), DW_AT_const_value(0x28
    2531              $C$DW$323       .dwtag  DW_TAG_enumerator, DW_AT_name("ADC_SocTrigSrc_EPWM1_ADCSOCB"), DW_AT_const_value(0x30
    2532              $C$DW$324       .dwtag  DW_TAG_enumerator, DW_AT_name("ADC_SocTrigSrc_EPWM2_ADCSOCA"), DW_AT_const_value(0x38
    2533              $C$DW$325       .dwtag  DW_TAG_enumerator, DW_AT_name("ADC_SocTrigSrc_EPWM2_ADCSOCB"), DW_AT_const_value(0x40
    2534              $C$DW$326       .dwtag  DW_TAG_enumerator, DW_AT_name("ADC_SocTrigSrc_EPWM3_ADCSOCA"), DW_AT_const_value(0x48
    2535              $C$DW$327       .dwtag  DW_TAG_enumerator, DW_AT_name("ADC_SocTrigSrc_EPWM3_ADCSOCB"), DW_AT_const_value(0x50
    2536              $C$DW$328       .dwtag  DW_TAG_enumerator, DW_AT_name("ADC_SocTrigSrc_EPWM4_ADCSOCA"), DW_AT_const_value(0x58
    2537              $C$DW$329       .dwtag  DW_TAG_enumerator, DW_AT_name("ADC_SocTrigSrc_EPWM4_ADCSOCB"), DW_AT_const_value(0x60
    2538                      .dwendtag $C$DW$T$55
    2539              
    2540              $C$DW$T$56      .dwtag  DW_TAG_typedef, DW_AT_name("ADC_SocTrigSrc_e")
    2541                      .dwattr $C$DW$T$56, DW_AT_type(*$C$DW$T$55)
    2542                      .dwattr $C$DW$T$56, DW_AT_language(DW_LANG_C)
    2543              $C$DW$330       .dwtag  DW_TAG_TI_far_type
    2544                      .dwattr $C$DW$330, DW_AT_type(*$C$DW$T$56)
    2545              $C$DW$T$57      .dwtag  DW_TAG_const_type
    2546                      .dwattr $C$DW$T$57, DW_AT_type(*$C$DW$330)
    2547              
    2548              $C$DW$T$58      .dwtag  DW_TAG_enumeration_type
    2549                      .dwattr $C$DW$T$58, DW_AT_byte_size(0x01)
    2550              $C$DW$331       .dwtag  DW_TAG_enumerator, DW_AT_name("ADC_SocFrc_0"), DW_AT_const_value(0x00)
    2551              $C$DW$332       .dwtag  DW_TAG_enumerator, DW_AT_name("ADC_SocFrc_1"), DW_AT_const_value(0x01)
    2552              $C$DW$333       .dwtag  DW_TAG_enumerator, DW_AT_name("ADC_SocFrc_2"), DW_AT_const_value(0x02)
    2553              $C$DW$334       .dwtag  DW_TAG_enumerator, DW_AT_name("ADC_SocFrc_3"), DW_AT_const_value(0x03)
    2554              $C$DW$335       .dwtag  DW_TAG_enumerator, DW_AT_name("ADC_SocFrc_4"), DW_AT_const_value(0x04)
    2555              $C$DW$336       .dwtag  DW_TAG_enumerator, DW_AT_name("ADC_SocFrc_5"), DW_AT_const_value(0x05)
    2556              $C$DW$337       .dwtag  DW_TAG_enumerator, DW_AT_name("ADC_SocFrc_6"), DW_AT_const_value(0x06)
    2557              $C$DW$338       .dwtag  DW_TAG_enumerator, DW_AT_name("ADC_SocFrc_7"), DW_AT_const_value(0x07)
    2558              $C$DW$339       .dwtag  DW_TAG_enumerator, DW_AT_name("ADC_SocFrc_8"), DW_AT_const_value(0x08)
    2559              $C$DW$340       .dwtag  DW_TAG_enumerator, DW_AT_name("ADC_SocFrc_9"), DW_AT_const_value(0x09)
    2560              $C$DW$341       .dwtag  DW_TAG_enumerator, DW_AT_name("ADC_SocFrc_10"), DW_AT_const_value(0x0a)
    2561              $C$DW$342       .dwtag  DW_TAG_enumerator, DW_AT_name("ADC_SocFrc_11"), DW_AT_const_value(0x0b)
    2562              $C$DW$343       .dwtag  DW_TAG_enumerator, DW_AT_name("ADC_SocFrc_12"), DW_AT_const_value(0x0c)
    2563              $C$DW$344       .dwtag  DW_TAG_enumerator, DW_AT_name("ADC_SocFrc_13"), DW_AT_const_value(0x0d)
    2564              $C$DW$345       .dwtag  DW_TAG_enumerator, DW_AT_name("ADC_SocFrc_14"), DW_AT_const_value(0x0e)
    2565              $C$DW$346       .dwtag  DW_TAG_enumerator, DW_AT_name("ADC_SocFrc_15"), DW_AT_const_value(0x0f)
    2566                      .dwendtag $C$DW$T$58
    2567              
    2568              $C$DW$T$59      .dwtag  DW_TAG_typedef, DW_AT_name("ADC_SocFrc_e")
    2569                      .dwattr $C$DW$T$59, DW_AT_type(*$C$DW$T$58)
    2570                      .dwattr $C$DW$T$59, DW_AT_language(DW_LANG_C)
    2571              $C$DW$347       .dwtag  DW_TAG_TI_far_type
    2572                      .dwattr $C$DW$347, DW_AT_type(*$C$DW$T$59)
    2573              $C$DW$T$60      .dwtag  DW_TAG_const_type
    2574                      .dwattr $C$DW$T$60, DW_AT_type(*$C$DW$347)
    2575              
    2576              $C$DW$T$61      .dwtag  DW_TAG_enumeration_type
    2577                      .dwattr $C$DW$T$61, DW_AT_byte_size(0x01)
    2578              $C$DW$348       .dwtag  DW_TAG_enumerator, DW_AT_name("ADC_TempSensorSrc_Ext"), DW_AT_const_value(0x00)
    2579              $C$DW$349       .dwtag  DW_TAG_enumerator, DW_AT_name("ADC_TempSensorSrc_Int"), DW_AT_const_value(0x01)
    2580                      .dwendtag $C$DW$T$61
    2581              
    2582              $C$DW$T$62      .dwtag  DW_TAG_typedef, DW_AT_name("ADC_TempSensorSrc_e")
    2583                      .dwattr $C$DW$T$62, DW_AT_type(*$C$DW$T$61)
TMS320C2000 Assembler PC v6.2.5 Mon Jul 10 09:53:36 2017

Tools Copyright (c) 1996-2014 Texas Instruments Incorporated
C:\Users\wmj\AppData\Local\Temp\0622010                              PAGE   50

    2584                      .dwattr $C$DW$T$62, DW_AT_language(DW_LANG_C)
    2585              $C$DW$350       .dwtag  DW_TAG_TI_far_type
    2586                      .dwattr $C$DW$350, DW_AT_type(*$C$DW$T$62)
    2587              $C$DW$T$63      .dwtag  DW_TAG_const_type
    2588                      .dwattr $C$DW$T$63, DW_AT_type(*$C$DW$350)
    2589              
    2590              $C$DW$T$64      .dwtag  DW_TAG_enumeration_type
    2591                      .dwattr $C$DW$T$64, DW_AT_byte_size(0x01)
    2592              $C$DW$351       .dwtag  DW_TAG_enumerator, DW_AT_name("ADC_VoltageRefSrc_Int"), DW_AT_const_value(0x00)
    2593              $C$DW$352       .dwtag  DW_TAG_enumerator, DW_AT_name("ADC_VoltageRefSrc_Ext"), DW_AT_const_value(0x08)
    2594                      .dwendtag $C$DW$T$64
    2595              
    2596              $C$DW$T$65      .dwtag  DW_TAG_typedef, DW_AT_name("ADC_VoltageRefSrc_e")
    2597                      .dwattr $C$DW$T$65, DW_AT_type(*$C$DW$T$64)
    2598                      .dwattr $C$DW$T$65, DW_AT_language(DW_LANG_C)
    2599              $C$DW$353       .dwtag  DW_TAG_TI_far_type
    2600                      .dwattr $C$DW$353, DW_AT_type(*$C$DW$T$65)
    2601              $C$DW$T$66      .dwtag  DW_TAG_const_type
    2602                      .dwattr $C$DW$T$66, DW_AT_type(*$C$DW$353)
    2603              
    2604              $C$DW$T$67      .dwtag  DW_TAG_enumeration_type
    2605                      .dwattr $C$DW$T$67, DW_AT_byte_size(0x01)
    2606              $C$DW$354       .dwtag  DW_TAG_enumerator, DW_AT_name("ADC_DivideSelect_ClkIn_by_1"), DW_AT_const_value(0x00)
    2607              $C$DW$355       .dwtag  DW_TAG_enumerator, DW_AT_name("ADC_DivideSelect_ClkIn_by_2"), DW_AT_const_value(0x01)
    2608                      .dwendtag $C$DW$T$67
    2609              
    2610              $C$DW$T$68      .dwtag  DW_TAG_typedef, DW_AT_name("ADC_DivideSelect_e")
    2611                      .dwattr $C$DW$T$68, DW_AT_type(*$C$DW$T$67)
    2612                      .dwattr $C$DW$T$68, DW_AT_language(DW_LANG_C)
    2613              $C$DW$356       .dwtag  DW_TAG_TI_far_type
    2614                      .dwattr $C$DW$356, DW_AT_type(*$C$DW$T$68)
    2615              $C$DW$T$69      .dwtag  DW_TAG_const_type
    2616                      .dwattr $C$DW$T$69, DW_AT_type(*$C$DW$356)
    2617              
    2618              $C$DW$T$74      .dwtag  DW_TAG_enumeration_type
    2619                      .dwattr $C$DW$T$74, DW_AT_byte_size(0x01)
    2620              $C$DW$357       .dwtag  DW_TAG_enumerator, DW_AT_name("ADC_NoIntTriggersSOC"), DW_AT_const_value(0x00)
    2621              $C$DW$358       .dwtag  DW_TAG_enumerator, DW_AT_name("ADC_Int1TriggersSOC"), DW_AT_const_value(0x01)
    2622              $C$DW$359       .dwtag  DW_TAG_enumerator, DW_AT_name("ADC_Int2TriggersSOC"), DW_AT_const_value(0x02)
    2623                      .dwendtag $C$DW$T$74
    2624              
    2625              $C$DW$T$75      .dwtag  DW_TAG_typedef, DW_AT_name("ADC_IntTriggerSOC_e")
    2626                      .dwattr $C$DW$T$75, DW_AT_type(*$C$DW$T$74)
    2627                      .dwattr $C$DW$T$75, DW_AT_language(DW_LANG_C)
    2628              $C$DW$360       .dwtag  DW_TAG_TI_far_type
    2629                      .dwattr $C$DW$360, DW_AT_type(*$C$DW$T$75)
    2630              $C$DW$T$76      .dwtag  DW_TAG_const_type
    2631                      .dwattr $C$DW$T$76, DW_AT_type(*$C$DW$360)
    2632              
    2633              $C$DW$T$27      .dwtag  DW_TAG_structure_type
    2634                      .dwattr $C$DW$T$27, DW_AT_name("_ADC_Obj_")
    2635                      .dwattr $C$DW$T$27, DW_AT_byte_size(0x6650)
    2636              $C$DW$361       .dwtag  DW_TAG_member
    2637                      .dwattr $C$DW$361, DW_AT_type(*$C$DW$T$21)
    2638                      .dwattr $C$DW$361, DW_AT_name("ADCRESULT")
TMS320C2000 Assembler PC v6.2.5 Mon Jul 10 09:53:36 2017

Tools Copyright (c) 1996-2014 Texas Instruments Incorporated
C:\Users\wmj\AppData\Local\Temp\0622010                              PAGE   51

    2639                      .dwattr $C$DW$361, DW_AT_TI_symbol_name("_ADCRESULT")
    2640                      .dwattr $C$DW$361, DW_AT_data_member_location[DW_OP_plus_uconst 0x0]
    2641                      .dwattr $C$DW$361, DW_AT_accessibility(DW_ACCESS_public)
    2642              $C$DW$362       .dwtag  DW_TAG_member
    2643                      .dwattr $C$DW$362, DW_AT_type(*$C$DW$T$22)
    2644                      .dwattr $C$DW$362, DW_AT_name("resvd_1")
    2645                      .dwattr $C$DW$362, DW_AT_TI_symbol_name("_resvd_1")
    2646                      .dwattr $C$DW$362, DW_AT_data_member_location[DW_OP_plus_uconst 0x10]
    2647                      .dwattr $C$DW$362, DW_AT_accessibility(DW_ACCESS_public)
    2648              $C$DW$363       .dwtag  DW_TAG_member
    2649                      .dwattr $C$DW$363, DW_AT_type(*$C$DW$T$20)
    2650                      .dwattr $C$DW$363, DW_AT_name("ADCCTL1")
    2651                      .dwattr $C$DW$363, DW_AT_TI_symbol_name("_ADCCTL1")
    2652                      .dwattr $C$DW$363, DW_AT_data_member_location[DW_OP_plus_uconst 0x6600]
    2653                      .dwattr $C$DW$363, DW_AT_accessibility(DW_ACCESS_public)
    2654              $C$DW$364       .dwtag  DW_TAG_member
    2655                      .dwattr $C$DW$364, DW_AT_type(*$C$DW$T$20)
    2656                      .dwattr $C$DW$364, DW_AT_name("ADCCTL2")
    2657                      .dwattr $C$DW$364, DW_AT_TI_symbol_name("_ADCCTL2")
    2658                      .dwattr $C$DW$364, DW_AT_data_member_location[DW_OP_plus_uconst 0x6601]
    2659                      .dwattr $C$DW$364, DW_AT_accessibility(DW_ACCESS_public)
    2660              $C$DW$365       .dwtag  DW_TAG_member
    2661                      .dwattr $C$DW$365, DW_AT_type(*$C$DW$T$23)
    2662                      .dwattr $C$DW$365, DW_AT_name("rsvd_2")
    2663                      .dwattr $C$DW$365, DW_AT_TI_symbol_name("_rsvd_2")
    2664                      .dwattr $C$DW$365, DW_AT_data_member_location[DW_OP_plus_uconst 0x6602]
    2665                      .dwattr $C$DW$365, DW_AT_accessibility(DW_ACCESS_public)
    2666              $C$DW$366       .dwtag  DW_TAG_member
    2667                      .dwattr $C$DW$366, DW_AT_type(*$C$DW$T$20)
    2668                      .dwattr $C$DW$366, DW_AT_name("ADCINTFLG")
    2669                      .dwattr $C$DW$366, DW_AT_TI_symbol_name("_ADCINTFLG")
    2670                      .dwattr $C$DW$366, DW_AT_data_member_location[DW_OP_plus_uconst 0x6604]
    2671                      .dwattr $C$DW$366, DW_AT_accessibility(DW_ACCESS_public)
    2672              $C$DW$367       .dwtag  DW_TAG_member
    2673                      .dwattr $C$DW$367, DW_AT_type(*$C$DW$T$20)
    2674                      .dwattr $C$DW$367, DW_AT_name("ADCINTFLGCLR")
    2675                      .dwattr $C$DW$367, DW_AT_TI_symbol_name("_ADCINTFLGCLR")
    2676                      .dwattr $C$DW$367, DW_AT_data_member_location[DW_OP_plus_uconst 0x6605]
    2677                      .dwattr $C$DW$367, DW_AT_accessibility(DW_ACCESS_public)
    2678              $C$DW$368       .dwtag  DW_TAG_member
    2679                      .dwattr $C$DW$368, DW_AT_type(*$C$DW$T$20)
    2680                      .dwattr $C$DW$368, DW_AT_name("ADCINTOVF")
    2681                      .dwattr $C$DW$368, DW_AT_TI_symbol_name("_ADCINTOVF")
    2682                      .dwattr $C$DW$368, DW_AT_data_member_location[DW_OP_plus_uconst 0x6606]
    2683                      .dwattr $C$DW$368, DW_AT_accessibility(DW_ACCESS_public)
    2684              $C$DW$369       .dwtag  DW_TAG_member
    2685                      .dwattr $C$DW$369, DW_AT_type(*$C$DW$T$20)
    2686                      .dwattr $C$DW$369, DW_AT_name("ADCINTOVFCLR")
    2687                      .dwattr $C$DW$369, DW_AT_TI_symbol_name("_ADCINTOVFCLR")
    2688                      .dwattr $C$DW$369, DW_AT_data_member_location[DW_OP_plus_uconst 0x6607]
    2689                      .dwattr $C$DW$369, DW_AT_accessibility(DW_ACCESS_public)
    2690              $C$DW$370       .dwtag  DW_TAG_member
    2691                      .dwattr $C$DW$370, DW_AT_type(*$C$DW$T$24)
    2692                      .dwattr $C$DW$370, DW_AT_name("INTSELxNy")
    2693                      .dwattr $C$DW$370, DW_AT_TI_symbol_name("_INTSELxNy")
TMS320C2000 Assembler PC v6.2.5 Mon Jul 10 09:53:36 2017

Tools Copyright (c) 1996-2014 Texas Instruments Incorporated
C:\Users\wmj\AppData\Local\Temp\0622010                              PAGE   52

    2694                      .dwattr $C$DW$370, DW_AT_data_member_location[DW_OP_plus_uconst 0x6608]
    2695                      .dwattr $C$DW$370, DW_AT_accessibility(DW_ACCESS_public)
    2696              $C$DW$371       .dwtag  DW_TAG_member
    2697                      .dwattr $C$DW$371, DW_AT_type(*$C$DW$T$25)
    2698                      .dwattr $C$DW$371, DW_AT_name("rsvd_3")
    2699                      .dwattr $C$DW$371, DW_AT_TI_symbol_name("_rsvd_3")
    2700                      .dwattr $C$DW$371, DW_AT_data_member_location[DW_OP_plus_uconst 0x660d]
    2701                      .dwattr $C$DW$371, DW_AT_accessibility(DW_ACCESS_public)
    2702              $C$DW$372       .dwtag  DW_TAG_member
    2703                      .dwattr $C$DW$372, DW_AT_type(*$C$DW$T$20)
    2704                      .dwattr $C$DW$372, DW_AT_name("SOCPRICTRL")
    2705                      .dwattr $C$DW$372, DW_AT_TI_symbol_name("_SOCPRICTRL")
    2706                      .dwattr $C$DW$372, DW_AT_data_member_location[DW_OP_plus_uconst 0x6610]
    2707                      .dwattr $C$DW$372, DW_AT_accessibility(DW_ACCESS_public)
    2708              $C$DW$373       .dwtag  DW_TAG_member
    2709                      .dwattr $C$DW$373, DW_AT_type(*$C$DW$T$20)
    2710                      .dwattr $C$DW$373, DW_AT_name("rsvd_4")
    2711                      .dwattr $C$DW$373, DW_AT_TI_symbol_name("_rsvd_4")
    2712                      .dwattr $C$DW$373, DW_AT_data_member_location[DW_OP_plus_uconst 0x6611]
    2713                      .dwattr $C$DW$373, DW_AT_accessibility(DW_ACCESS_public)
    2714              $C$DW$374       .dwtag  DW_TAG_member
    2715                      .dwattr $C$DW$374, DW_AT_type(*$C$DW$T$20)
    2716                      .dwattr $C$DW$374, DW_AT_name("ADCSAMPLEMODE")
    2717                      .dwattr $C$DW$374, DW_AT_TI_symbol_name("_ADCSAMPLEMODE")
    2718                      .dwattr $C$DW$374, DW_AT_data_member_location[DW_OP_plus_uconst 0x6612]
    2719                      .dwattr $C$DW$374, DW_AT_accessibility(DW_ACCESS_public)
    2720              $C$DW$375       .dwtag  DW_TAG_member
    2721                      .dwattr $C$DW$375, DW_AT_type(*$C$DW$T$20)
    2722                      .dwattr $C$DW$375, DW_AT_name("rsvd_5")
    2723                      .dwattr $C$DW$375, DW_AT_TI_symbol_name("_rsvd_5")
    2724                      .dwattr $C$DW$375, DW_AT_data_member_location[DW_OP_plus_uconst 0x6613]
    2725                      .dwattr $C$DW$375, DW_AT_accessibility(DW_ACCESS_public)
    2726              $C$DW$376       .dwtag  DW_TAG_member
    2727                      .dwattr $C$DW$376, DW_AT_type(*$C$DW$T$20)
    2728                      .dwattr $C$DW$376, DW_AT_name("ADCINTSOCSEL1")
    2729                      .dwattr $C$DW$376, DW_AT_TI_symbol_name("_ADCINTSOCSEL1")
    2730                      .dwattr $C$DW$376, DW_AT_data_member_location[DW_OP_plus_uconst 0x6614]
    2731                      .dwattr $C$DW$376, DW_AT_accessibility(DW_ACCESS_public)
    2732              $C$DW$377       .dwtag  DW_TAG_member
    2733                      .dwattr $C$DW$377, DW_AT_type(*$C$DW$T$20)
    2734                      .dwattr $C$DW$377, DW_AT_name("ADCINTSOCSEL2")
    2735                      .dwattr $C$DW$377, DW_AT_TI_symbol_name("_ADCINTSOCSEL2")
    2736                      .dwattr $C$DW$377, DW_AT_data_member_location[DW_OP_plus_uconst 0x6615]
    2737                      .dwattr $C$DW$377, DW_AT_accessibility(DW_ACCESS_public)
    2738              $C$DW$378       .dwtag  DW_TAG_member
    2739                      .dwattr $C$DW$378, DW_AT_type(*$C$DW$T$23)
    2740                      .dwattr $C$DW$378, DW_AT_name("rsvd_6")
    2741                      .dwattr $C$DW$378, DW_AT_TI_symbol_name("_rsvd_6")
    2742                      .dwattr $C$DW$378, DW_AT_data_member_location[DW_OP_plus_uconst 0x6616]
    2743                      .dwattr $C$DW$378, DW_AT_accessibility(DW_ACCESS_public)
    2744              $C$DW$379       .dwtag  DW_TAG_member
    2745                      .dwattr $C$DW$379, DW_AT_type(*$C$DW$T$20)
    2746                      .dwattr $C$DW$379, DW_AT_name("ADCSOCFLG1")
    2747                      .dwattr $C$DW$379, DW_AT_TI_symbol_name("_ADCSOCFLG1")
    2748                      .dwattr $C$DW$379, DW_AT_data_member_location[DW_OP_plus_uconst 0x6618]
TMS320C2000 Assembler PC v6.2.5 Mon Jul 10 09:53:36 2017

Tools Copyright (c) 1996-2014 Texas Instruments Incorporated
C:\Users\wmj\AppData\Local\Temp\0622010                              PAGE   53

    2749                      .dwattr $C$DW$379, DW_AT_accessibility(DW_ACCESS_public)
    2750              $C$DW$380       .dwtag  DW_TAG_member
    2751                      .dwattr $C$DW$380, DW_AT_type(*$C$DW$T$20)
    2752                      .dwattr $C$DW$380, DW_AT_name("rsvd_7")
    2753                      .dwattr $C$DW$380, DW_AT_TI_symbol_name("_rsvd_7")
    2754                      .dwattr $C$DW$380, DW_AT_data_member_location[DW_OP_plus_uconst 0x6619]
    2755                      .dwattr $C$DW$380, DW_AT_accessibility(DW_ACCESS_public)
    2756              $C$DW$381       .dwtag  DW_TAG_member
    2757                      .dwattr $C$DW$381, DW_AT_type(*$C$DW$T$20)
    2758                      .dwattr $C$DW$381, DW_AT_name("ADCSOCFRC1")
    2759                      .dwattr $C$DW$381, DW_AT_TI_symbol_name("_ADCSOCFRC1")
    2760                      .dwattr $C$DW$381, DW_AT_data_member_location[DW_OP_plus_uconst 0x661a]
    2761                      .dwattr $C$DW$381, DW_AT_accessibility(DW_ACCESS_public)
    2762              $C$DW$382       .dwtag  DW_TAG_member
    2763                      .dwattr $C$DW$382, DW_AT_type(*$C$DW$T$20)
    2764                      .dwattr $C$DW$382, DW_AT_name("rsvd_8")
    2765                      .dwattr $C$DW$382, DW_AT_TI_symbol_name("_rsvd_8")
    2766                      .dwattr $C$DW$382, DW_AT_data_member_location[DW_OP_plus_uconst 0x661b]
    2767                      .dwattr $C$DW$382, DW_AT_accessibility(DW_ACCESS_public)
    2768              $C$DW$383       .dwtag  DW_TAG_member
    2769                      .dwattr $C$DW$383, DW_AT_type(*$C$DW$T$20)
    2770                      .dwattr $C$DW$383, DW_AT_name("ADCSOCOVF1")
    2771                      .dwattr $C$DW$383, DW_AT_TI_symbol_name("_ADCSOCOVF1")
    2772                      .dwattr $C$DW$383, DW_AT_data_member_location[DW_OP_plus_uconst 0x661c]
    2773                      .dwattr $C$DW$383, DW_AT_accessibility(DW_ACCESS_public)
    2774              $C$DW$384       .dwtag  DW_TAG_member
    2775                      .dwattr $C$DW$384, DW_AT_type(*$C$DW$T$20)
    2776                      .dwattr $C$DW$384, DW_AT_name("rsvd_9")
    2777                      .dwattr $C$DW$384, DW_AT_TI_symbol_name("_rsvd_9")
    2778                      .dwattr $C$DW$384, DW_AT_data_member_location[DW_OP_plus_uconst 0x661d]
    2779                      .dwattr $C$DW$384, DW_AT_accessibility(DW_ACCESS_public)
    2780              $C$DW$385       .dwtag  DW_TAG_member
    2781                      .dwattr $C$DW$385, DW_AT_type(*$C$DW$T$20)
    2782                      .dwattr $C$DW$385, DW_AT_name("ADCSOCOVFCLR1")
    2783                      .dwattr $C$DW$385, DW_AT_TI_symbol_name("_ADCSOCOVFCLR1")
    2784                      .dwattr $C$DW$385, DW_AT_data_member_location[DW_OP_plus_uconst 0x661e]
    2785                      .dwattr $C$DW$385, DW_AT_accessibility(DW_ACCESS_public)
    2786              $C$DW$386       .dwtag  DW_TAG_member
    2787                      .dwattr $C$DW$386, DW_AT_type(*$C$DW$T$20)
    2788                      .dwattr $C$DW$386, DW_AT_name("rsvd_10")
    2789                      .dwattr $C$DW$386, DW_AT_TI_symbol_name("_rsvd_10")
    2790                      .dwattr $C$DW$386, DW_AT_data_member_location[DW_OP_plus_uconst 0x661f]
    2791                      .dwattr $C$DW$386, DW_AT_accessibility(DW_ACCESS_public)
    2792              $C$DW$387       .dwtag  DW_TAG_member
    2793                      .dwattr $C$DW$387, DW_AT_type(*$C$DW$T$21)
    2794                      .dwattr $C$DW$387, DW_AT_name("ADCSOCxCTL")
    2795                      .dwattr $C$DW$387, DW_AT_TI_symbol_name("_ADCSOCxCTL")
    2796                      .dwattr $C$DW$387, DW_AT_data_member_location[DW_OP_plus_uconst 0x6620]
    2797                      .dwattr $C$DW$387, DW_AT_accessibility(DW_ACCESS_public)
    2798              $C$DW$388       .dwtag  DW_TAG_member
    2799                      .dwattr $C$DW$388, DW_AT_type(*$C$DW$T$21)
    2800                      .dwattr $C$DW$388, DW_AT_name("rsvd_11")
    2801                      .dwattr $C$DW$388, DW_AT_TI_symbol_name("_rsvd_11")
    2802                      .dwattr $C$DW$388, DW_AT_data_member_location[DW_OP_plus_uconst 0x6630]
    2803                      .dwattr $C$DW$388, DW_AT_accessibility(DW_ACCESS_public)
TMS320C2000 Assembler PC v6.2.5 Mon Jul 10 09:53:36 2017

Tools Copyright (c) 1996-2014 Texas Instruments Incorporated
C:\Users\wmj\AppData\Local\Temp\0622010                              PAGE   54

    2804              $C$DW$389       .dwtag  DW_TAG_member
    2805                      .dwattr $C$DW$389, DW_AT_type(*$C$DW$T$20)
    2806                      .dwattr $C$DW$389, DW_AT_name("ADCREFTRIM")
    2807                      .dwattr $C$DW$389, DW_AT_TI_symbol_name("_ADCREFTRIM")
    2808                      .dwattr $C$DW$389, DW_AT_data_member_location[DW_OP_plus_uconst 0x6640]
    2809                      .dwattr $C$DW$389, DW_AT_accessibility(DW_ACCESS_public)
    2810              $C$DW$390       .dwtag  DW_TAG_member
    2811                      .dwattr $C$DW$390, DW_AT_type(*$C$DW$T$20)
    2812                      .dwattr $C$DW$390, DW_AT_name("ADCOFFTRIM")
    2813                      .dwattr $C$DW$390, DW_AT_TI_symbol_name("_ADCOFFTRIM")
    2814                      .dwattr $C$DW$390, DW_AT_data_member_location[DW_OP_plus_uconst 0x6641]
    2815                      .dwattr $C$DW$390, DW_AT_accessibility(DW_ACCESS_public)
    2816              $C$DW$391       .dwtag  DW_TAG_member
    2817                      .dwattr $C$DW$391, DW_AT_type(*$C$DW$T$26)
    2818                      .dwattr $C$DW$391, DW_AT_name("resvd_12")
    2819                      .dwattr $C$DW$391, DW_AT_TI_symbol_name("_resvd_12")
    2820                      .dwattr $C$DW$391, DW_AT_data_member_location[DW_OP_plus_uconst 0x6642]
    2821                      .dwattr $C$DW$391, DW_AT_accessibility(DW_ACCESS_public)
    2822              $C$DW$392       .dwtag  DW_TAG_member
    2823                      .dwattr $C$DW$392, DW_AT_type(*$C$DW$T$20)
    2824                      .dwattr $C$DW$392, DW_AT_name("ADCREV")
    2825                      .dwattr $C$DW$392, DW_AT_TI_symbol_name("_ADCREV")
    2826                      .dwattr $C$DW$392, DW_AT_data_member_location[DW_OP_plus_uconst 0x664f]
    2827                      .dwattr $C$DW$392, DW_AT_accessibility(DW_ACCESS_public)
    2828                      .dwendtag $C$DW$T$27
    2829              
    2830              $C$DW$T$77      .dwtag  DW_TAG_typedef, DW_AT_name("ADC_Obj")
    2831                      .dwattr $C$DW$T$77, DW_AT_type(*$C$DW$T$27)
    2832                      .dwattr $C$DW$T$77, DW_AT_language(DW_LANG_C)
    2833              $C$DW$T$70      .dwtag  DW_TAG_pointer_type
    2834                      .dwattr $C$DW$T$70, DW_AT_type(*$C$DW$T$27)
    2835                      .dwattr $C$DW$T$70, DW_AT_address_class(0x16)
    2836              $C$DW$T$71      .dwtag  DW_TAG_typedef, DW_AT_name("ADC_Handle")
    2837                      .dwattr $C$DW$T$71, DW_AT_type(*$C$DW$T$70)
    2838                      .dwattr $C$DW$T$71, DW_AT_language(DW_LANG_C)
    2839              $C$DW$393       .dwtag  DW_TAG_TI_far_type
    2840                      .dwattr $C$DW$393, DW_AT_type(*$C$DW$T$71)
    2841              $C$DW$T$78      .dwtag  DW_TAG_const_type
    2842                      .dwattr $C$DW$T$78, DW_AT_type(*$C$DW$393)
    2843              $C$DW$T$3       .dwtag  DW_TAG_pointer_type
    2844                      .dwattr $C$DW$T$3, DW_AT_address_class(0x16)
    2845              $C$DW$394       .dwtag  DW_TAG_TI_far_type
    2846                      .dwattr $C$DW$394, DW_AT_type(*$C$DW$T$3)
    2847              $C$DW$T$84      .dwtag  DW_TAG_const_type
    2848                      .dwattr $C$DW$T$84, DW_AT_type(*$C$DW$394)
    2849              $C$DW$T$4       .dwtag  DW_TAG_base_type
    2850                      .dwattr $C$DW$T$4, DW_AT_encoding(DW_ATE_boolean)
    2851                      .dwattr $C$DW$T$4, DW_AT_name("bool")
    2852                      .dwattr $C$DW$T$4, DW_AT_byte_size(0x01)
    2853              $C$DW$T$5       .dwtag  DW_TAG_base_type
    2854                      .dwattr $C$DW$T$5, DW_AT_encoding(DW_ATE_signed_char)
    2855                      .dwattr $C$DW$T$5, DW_AT_name("signed char")
    2856                      .dwattr $C$DW$T$5, DW_AT_byte_size(0x01)
    2857              $C$DW$T$6       .dwtag  DW_TAG_base_type
    2858                      .dwattr $C$DW$T$6, DW_AT_encoding(DW_ATE_unsigned_char)
TMS320C2000 Assembler PC v6.2.5 Mon Jul 10 09:53:36 2017

Tools Copyright (c) 1996-2014 Texas Instruments Incorporated
C:\Users\wmj\AppData\Local\Temp\0622010                              PAGE   55

    2859                      .dwattr $C$DW$T$6, DW_AT_name("unsigned char")
    2860                      .dwattr $C$DW$T$6, DW_AT_byte_size(0x01)
    2861              $C$DW$T$7       .dwtag  DW_TAG_base_type
    2862                      .dwattr $C$DW$T$7, DW_AT_encoding(DW_ATE_signed_char)
    2863                      .dwattr $C$DW$T$7, DW_AT_name("wchar_t")
    2864                      .dwattr $C$DW$T$7, DW_AT_byte_size(0x01)
    2865              $C$DW$T$8       .dwtag  DW_TAG_base_type
    2866                      .dwattr $C$DW$T$8, DW_AT_encoding(DW_ATE_signed)
    2867                      .dwattr $C$DW$T$8, DW_AT_name("short")
    2868                      .dwattr $C$DW$T$8, DW_AT_byte_size(0x01)
    2869              $C$DW$T$9       .dwtag  DW_TAG_base_type
    2870                      .dwattr $C$DW$T$9, DW_AT_encoding(DW_ATE_unsigned)
    2871                      .dwattr $C$DW$T$9, DW_AT_name("unsigned short")
    2872                      .dwattr $C$DW$T$9, DW_AT_byte_size(0x01)
    2873              $C$DW$T$19      .dwtag  DW_TAG_typedef, DW_AT_name("uint16_t")
    2874                      .dwattr $C$DW$T$19, DW_AT_type(*$C$DW$T$9)
    2875                      .dwattr $C$DW$T$19, DW_AT_language(DW_LANG_C)
    2876              $C$DW$395       .dwtag  DW_TAG_TI_far_type
    2877                      .dwattr $C$DW$395, DW_AT_type(*$C$DW$T$19)
    2878              $C$DW$T$20      .dwtag  DW_TAG_volatile_type
    2879                      .dwattr $C$DW$T$20, DW_AT_type(*$C$DW$395)
    2880              
    2881              $C$DW$T$21      .dwtag  DW_TAG_array_type
    2882                      .dwattr $C$DW$T$21, DW_AT_type(*$C$DW$T$20)
    2883                      .dwattr $C$DW$T$21, DW_AT_language(DW_LANG_C)
    2884                      .dwattr $C$DW$T$21, DW_AT_byte_size(0x10)
    2885              $C$DW$396       .dwtag  DW_TAG_subrange_type
    2886                      .dwattr $C$DW$396, DW_AT_upper_bound(0x0f)
    2887                      .dwendtag $C$DW$T$21
    2888              
    2889              
    2890              $C$DW$T$22      .dwtag  DW_TAG_array_type
    2891                      .dwattr $C$DW$T$22, DW_AT_type(*$C$DW$T$20)
    2892                      .dwattr $C$DW$T$22, DW_AT_language(DW_LANG_C)
    2893                      .dwattr $C$DW$T$22, DW_AT_byte_size(0x65f0)
    2894              $C$DW$397       .dwtag  DW_TAG_subrange_type
    2895                      .dwattr $C$DW$397, DW_AT_upper_bound(0x65ef)
    2896                      .dwendtag $C$DW$T$22
    2897              
    2898              
    2899              $C$DW$T$23      .dwtag  DW_TAG_array_type
    2900                      .dwattr $C$DW$T$23, DW_AT_type(*$C$DW$T$20)
    2901                      .dwattr $C$DW$T$23, DW_AT_language(DW_LANG_C)
    2902                      .dwattr $C$DW$T$23, DW_AT_byte_size(0x02)
    2903              $C$DW$398       .dwtag  DW_TAG_subrange_type
    2904                      .dwattr $C$DW$398, DW_AT_upper_bound(0x01)
    2905                      .dwendtag $C$DW$T$23
    2906              
    2907              
    2908              $C$DW$T$24      .dwtag  DW_TAG_array_type
    2909                      .dwattr $C$DW$T$24, DW_AT_type(*$C$DW$T$20)
    2910                      .dwattr $C$DW$T$24, DW_AT_language(DW_LANG_C)
    2911                      .dwattr $C$DW$T$24, DW_AT_byte_size(0x05)
    2912              $C$DW$399       .dwtag  DW_TAG_subrange_type
    2913                      .dwattr $C$DW$399, DW_AT_upper_bound(0x04)
TMS320C2000 Assembler PC v6.2.5 Mon Jul 10 09:53:36 2017

Tools Copyright (c) 1996-2014 Texas Instruments Incorporated
C:\Users\wmj\AppData\Local\Temp\0622010                              PAGE   56

    2914                      .dwendtag $C$DW$T$24
    2915              
    2916              
    2917              $C$DW$T$25      .dwtag  DW_TAG_array_type
    2918                      .dwattr $C$DW$T$25, DW_AT_type(*$C$DW$T$20)
    2919                      .dwattr $C$DW$T$25, DW_AT_language(DW_LANG_C)
    2920                      .dwattr $C$DW$T$25, DW_AT_byte_size(0x03)
    2921              $C$DW$400       .dwtag  DW_TAG_subrange_type
    2922                      .dwattr $C$DW$400, DW_AT_upper_bound(0x02)
    2923                      .dwendtag $C$DW$T$25
    2924              
    2925              
    2926              $C$DW$T$26      .dwtag  DW_TAG_array_type
    2927                      .dwattr $C$DW$T$26, DW_AT_type(*$C$DW$T$20)
    2928                      .dwattr $C$DW$T$26, DW_AT_language(DW_LANG_C)
    2929                      .dwattr $C$DW$T$26, DW_AT_byte_size(0x0d)
    2930              $C$DW$401       .dwtag  DW_TAG_subrange_type
    2931                      .dwattr $C$DW$401, DW_AT_upper_bound(0x0c)
    2932                      .dwendtag $C$DW$T$26
    2933              
    2934              $C$DW$402       .dwtag  DW_TAG_TI_far_type
    2935                      .dwattr $C$DW$402, DW_AT_type(*$C$DW$T$19)
    2936              $C$DW$T$96      .dwtag  DW_TAG_const_type
    2937                      .dwattr $C$DW$T$96, DW_AT_type(*$C$DW$402)
    2938              $C$DW$T$102     .dwtag  DW_TAG_typedef, DW_AT_name("uint_least8_t")
    2939                      .dwattr $C$DW$T$102, DW_AT_type(*$C$DW$T$19)
    2940                      .dwattr $C$DW$T$102, DW_AT_language(DW_LANG_C)
    2941              $C$DW$T$10      .dwtag  DW_TAG_base_type
    2942                      .dwattr $C$DW$T$10, DW_AT_encoding(DW_ATE_signed)
    2943                      .dwattr $C$DW$T$10, DW_AT_name("int")
    2944                      .dwattr $C$DW$T$10, DW_AT_byte_size(0x01)
    2945              $C$DW$T$11      .dwtag  DW_TAG_base_type
    2946                      .dwattr $C$DW$T$11, DW_AT_encoding(DW_ATE_unsigned)
    2947                      .dwattr $C$DW$T$11, DW_AT_name("unsigned int")
    2948                      .dwattr $C$DW$T$11, DW_AT_byte_size(0x01)
    2949              $C$DW$T$12      .dwtag  DW_TAG_base_type
    2950                      .dwattr $C$DW$T$12, DW_AT_encoding(DW_ATE_signed)
    2951                      .dwattr $C$DW$T$12, DW_AT_name("long")
    2952                      .dwattr $C$DW$T$12, DW_AT_byte_size(0x02)
    2953              $C$DW$T$13      .dwtag  DW_TAG_base_type
    2954                      .dwattr $C$DW$T$13, DW_AT_encoding(DW_ATE_unsigned)
    2955                      .dwattr $C$DW$T$13, DW_AT_name("unsigned long")
    2956                      .dwattr $C$DW$T$13, DW_AT_byte_size(0x02)
    2957              $C$DW$T$79      .dwtag  DW_TAG_typedef, DW_AT_name("size_t")
    2958                      .dwattr $C$DW$T$79, DW_AT_type(*$C$DW$T$13)
    2959                      .dwattr $C$DW$T$79, DW_AT_language(DW_LANG_C)
    2960              $C$DW$403       .dwtag  DW_TAG_TI_far_type
    2961                      .dwattr $C$DW$403, DW_AT_type(*$C$DW$T$79)
    2962              $C$DW$T$80      .dwtag  DW_TAG_const_type
    2963                      .dwattr $C$DW$T$80, DW_AT_type(*$C$DW$403)
    2964              $C$DW$T$14      .dwtag  DW_TAG_base_type
    2965                      .dwattr $C$DW$T$14, DW_AT_encoding(DW_ATE_signed)
    2966                      .dwattr $C$DW$T$14, DW_AT_name("long long")
    2967                      .dwattr $C$DW$T$14, DW_AT_byte_size(0x04)
    2968              $C$DW$T$15      .dwtag  DW_TAG_base_type
TMS320C2000 Assembler PC v6.2.5 Mon Jul 10 09:53:36 2017

Tools Copyright (c) 1996-2014 Texas Instruments Incorporated
C:\Users\wmj\AppData\Local\Temp\0622010                              PAGE   57

    2969                      .dwattr $C$DW$T$15, DW_AT_encoding(DW_ATE_unsigned)
    2970                      .dwattr $C$DW$T$15, DW_AT_name("unsigned long long")
    2971                      .dwattr $C$DW$T$15, DW_AT_byte_size(0x04)
    2972              $C$DW$T$16      .dwtag  DW_TAG_base_type
    2973                      .dwattr $C$DW$T$16, DW_AT_encoding(DW_ATE_float)
    2974                      .dwattr $C$DW$T$16, DW_AT_name("float")
    2975                      .dwattr $C$DW$T$16, DW_AT_byte_size(0x02)
    2976              $C$DW$T$17      .dwtag  DW_TAG_base_type
    2977                      .dwattr $C$DW$T$17, DW_AT_encoding(DW_ATE_float)
    2978                      .dwattr $C$DW$T$17, DW_AT_name("double")
    2979                      .dwattr $C$DW$T$17, DW_AT_byte_size(0x02)
    2980              $C$DW$T$18      .dwtag  DW_TAG_base_type
    2981                      .dwattr $C$DW$T$18, DW_AT_encoding(DW_ATE_float)
    2982                      .dwattr $C$DW$T$18, DW_AT_name("long double")
    2983                      .dwattr $C$DW$T$18, DW_AT_byte_size(0x04)
    2984                      .dwattr $C$DW$CU, DW_AT_language(DW_LANG_C)
    2985              
    2986              ;***************************************************************
    2987              ;* DWARF CIE ENTRIES                                           *
    2988              ;***************************************************************
    2989              
    2990              $C$DW$CIE       .dwcie 78
    2991                      .dwcfi  cfa_register, 20
    2992                      .dwcfi  cfa_offset, 0
    2993                      .dwcfi  undefined, 0
    2994                      .dwcfi  undefined, 1
    2995                      .dwcfi  undefined, 2
    2996                      .dwcfi  undefined, 3
    2997                      .dwcfi  undefined, 20
    2998                      .dwcfi  undefined, 21
    2999                      .dwcfi  undefined, 22
    3000                      .dwcfi  undefined, 23
    3001                      .dwcfi  undefined, 24
    3002                      .dwcfi  undefined, 25
    3003                      .dwcfi  undefined, 26
    3004                      .dwcfi  same_value, 28
    3005                      .dwcfi  undefined, 29
    3006                      .dwcfi  undefined, 30
    3007                      .dwcfi  undefined, 31
    3008                      .dwcfi  undefined, 32
    3009                      .dwcfi  undefined, 33
    3010                      .dwcfi  undefined, 34
    3011                      .dwcfi  undefined, 35
    3012                      .dwcfi  undefined, 36
    3013                      .dwcfi  undefined, 37
    3014                      .dwcfi  undefined, 38
    3015                      .dwcfi  undefined, 75
    3016                      .dwcfi  undefined, 76
    3017                      .dwcfi  undefined, 77
    3018                      .dwcfi  undefined, 4
    3019                      .dwcfi  same_value, 6
    3020                      .dwcfi  same_value, 8
    3021                      .dwcfi  same_value, 10
    3022                      .dwcfi  undefined, 12
    3023                      .dwcfi  undefined, 14
TMS320C2000 Assembler PC v6.2.5 Mon Jul 10 09:53:36 2017

Tools Copyright (c) 1996-2014 Texas Instruments Incorporated
C:\Users\wmj\AppData\Local\Temp\0622010                              PAGE   58

    3024                      .dwcfi  undefined, 16
    3025                      .dwcfi  undefined, 17
    3026                      .dwcfi  undefined, 18
    3027                      .dwcfi  undefined, 19
    3028                      .dwcfi  undefined, 5
    3029                      .dwcfi  same_value, 7
    3030                      .dwcfi  same_value, 9
    3031                      .dwcfi  same_value, 11
    3032                      .dwcfi  undefined, 13
    3033                      .dwcfi  undefined, 15
    3034                      .dwcfi  undefined, 78
    3035                      .dwendentry
    3036              
    3037              ;***************************************************************
    3038              ;* DWARF REGISTER MAP                                          *
    3039              ;***************************************************************
    3040              
    3041              $C$DW$404       .dwtag  DW_TAG_TI_assign_register, DW_AT_name("AL")
    3042                      .dwattr $C$DW$404, DW_AT_location[DW_OP_reg0]
    3043              $C$DW$405       .dwtag  DW_TAG_TI_assign_register, DW_AT_name("AH")
    3044                      .dwattr $C$DW$405, DW_AT_location[DW_OP_reg1]
    3045              $C$DW$406       .dwtag  DW_TAG_TI_assign_register, DW_AT_name("PL")
    3046                      .dwattr $C$DW$406, DW_AT_location[DW_OP_reg2]
    3047              $C$DW$407       .dwtag  DW_TAG_TI_assign_register, DW_AT_name("PH")
    3048                      .dwattr $C$DW$407, DW_AT_location[DW_OP_reg3]
    3049              $C$DW$408       .dwtag  DW_TAG_TI_assign_register, DW_AT_name("SP")
    3050                      .dwattr $C$DW$408, DW_AT_location[DW_OP_reg20]
    3051              $C$DW$409       .dwtag  DW_TAG_TI_assign_register, DW_AT_name("XT")
    3052                      .dwattr $C$DW$409, DW_AT_location[DW_OP_reg21]
    3053              $C$DW$410       .dwtag  DW_TAG_TI_assign_register, DW_AT_name("T")
    3054                      .dwattr $C$DW$410, DW_AT_location[DW_OP_reg22]
    3055              $C$DW$411       .dwtag  DW_TAG_TI_assign_register, DW_AT_name("ST0")
    3056                      .dwattr $C$DW$411, DW_AT_location[DW_OP_reg23]
    3057              $C$DW$412       .dwtag  DW_TAG_TI_assign_register, DW_AT_name("ST1")
    3058                      .dwattr $C$DW$412, DW_AT_location[DW_OP_reg24]
    3059              $C$DW$413       .dwtag  DW_TAG_TI_assign_register, DW_AT_name("PC")
    3060                      .dwattr $C$DW$413, DW_AT_location[DW_OP_reg25]
    3061              $C$DW$414       .dwtag  DW_TAG_TI_assign_register, DW_AT_name("RPC")
    3062                      .dwattr $C$DW$414, DW_AT_location[DW_OP_reg26]
    3063              $C$DW$415       .dwtag  DW_TAG_TI_assign_register, DW_AT_name("FP")
    3064                      .dwattr $C$DW$415, DW_AT_location[DW_OP_reg28]
    3065              $C$DW$416       .dwtag  DW_TAG_TI_assign_register, DW_AT_name("DP")
    3066                      .dwattr $C$DW$416, DW_AT_location[DW_OP_reg29]
    3067              $C$DW$417       .dwtag  DW_TAG_TI_assign_register, DW_AT_name("SXM")
    3068                      .dwattr $C$DW$417, DW_AT_location[DW_OP_reg30]
    3069              $C$DW$418       .dwtag  DW_TAG_TI_assign_register, DW_AT_name("PM")
    3070                      .dwattr $C$DW$418, DW_AT_location[DW_OP_reg31]
    3071              $C$DW$419       .dwtag  DW_TAG_TI_assign_register, DW_AT_name("OVM")
    3072                      .dwattr $C$DW$419, DW_AT_location[DW_OP_regx 0x20]
    3073              $C$DW$420       .dwtag  DW_TAG_TI_assign_register, DW_AT_name("PAGE0")
    3074                      .dwattr $C$DW$420, DW_AT_location[DW_OP_regx 0x21]
    3075              $C$DW$421       .dwtag  DW_TAG_TI_assign_register, DW_AT_name("AMODE")
    3076                      .dwattr $C$DW$421, DW_AT_location[DW_OP_regx 0x22]
    3077              $C$DW$422       .dwtag  DW_TAG_TI_assign_register, DW_AT_name("INTM")
    3078                      .dwattr $C$DW$422, DW_AT_location[DW_OP_regx 0x23]
TMS320C2000 Assembler PC v6.2.5 Mon Jul 10 09:53:36 2017

Tools Copyright (c) 1996-2014 Texas Instruments Incorporated
C:\Users\wmj\AppData\Local\Temp\0622010                              PAGE   59

    3079              $C$DW$423       .dwtag  DW_TAG_TI_assign_register, DW_AT_name("IFR")
    3080                      .dwattr $C$DW$423, DW_AT_location[DW_OP_regx 0x24]
    3081              $C$DW$424       .dwtag  DW_TAG_TI_assign_register, DW_AT_name("IER")
    3082                      .dwattr $C$DW$424, DW_AT_location[DW_OP_regx 0x25]
    3083              $C$DW$425       .dwtag  DW_TAG_TI_assign_register, DW_AT_name("V")
    3084                      .dwattr $C$DW$425, DW_AT_location[DW_OP_regx 0x26]
    3085              $C$DW$426       .dwtag  DW_TAG_TI_assign_register, DW_AT_name("PSEUDOH")
    3086                      .dwattr $C$DW$426, DW_AT_location[DW_OP_regx 0x4c]
    3087              $C$DW$427       .dwtag  DW_TAG_TI_assign_register, DW_AT_name("VOL")
    3088                      .dwattr $C$DW$427, DW_AT_location[DW_OP_regx 0x4d]
    3089              $C$DW$428       .dwtag  DW_TAG_TI_assign_register, DW_AT_name("AR0")
    3090                      .dwattr $C$DW$428, DW_AT_location[DW_OP_reg4]
    3091              $C$DW$429       .dwtag  DW_TAG_TI_assign_register, DW_AT_name("AR1")
    3092                      .dwattr $C$DW$429, DW_AT_location[DW_OP_reg6]
    3093              $C$DW$430       .dwtag  DW_TAG_TI_assign_register, DW_AT_name("AR2")
    3094                      .dwattr $C$DW$430, DW_AT_location[DW_OP_reg8]
    3095              $C$DW$431       .dwtag  DW_TAG_TI_assign_register, DW_AT_name("AR3")
    3096                      .dwattr $C$DW$431, DW_AT_location[DW_OP_reg10]
    3097              $C$DW$432       .dwtag  DW_TAG_TI_assign_register, DW_AT_name("AR4")
    3098                      .dwattr $C$DW$432, DW_AT_location[DW_OP_reg12]
    3099              $C$DW$433       .dwtag  DW_TAG_TI_assign_register, DW_AT_name("AR5")
    3100                      .dwattr $C$DW$433, DW_AT_location[DW_OP_reg14]
    3101              $C$DW$434       .dwtag  DW_TAG_TI_assign_register, DW_AT_name("AR6")
    3102                      .dwattr $C$DW$434, DW_AT_location[DW_OP_reg16]
    3103              $C$DW$435       .dwtag  DW_TAG_TI_assign_register, DW_AT_name("XAR6")
    3104                      .dwattr $C$DW$435, DW_AT_location[DW_OP_reg17]
    3105              $C$DW$436       .dwtag  DW_TAG_TI_assign_register, DW_AT_name("AR7")
    3106                      .dwattr $C$DW$436, DW_AT_location[DW_OP_reg18]
    3107              $C$DW$437       .dwtag  DW_TAG_TI_assign_register, DW_AT_name("XAR7")
    3108                      .dwattr $C$DW$437, DW_AT_location[DW_OP_reg19]
    3109              $C$DW$438       .dwtag  DW_TAG_TI_assign_register, DW_AT_name("XAR0")
    3110                      .dwattr $C$DW$438, DW_AT_location[DW_OP_reg5]
    3111              $C$DW$439       .dwtag  DW_TAG_TI_assign_register, DW_AT_name("XAR1")
    3112                      .dwattr $C$DW$439, DW_AT_location[DW_OP_reg7]
    3113              $C$DW$440       .dwtag  DW_TAG_TI_assign_register, DW_AT_name("XAR2")
    3114                      .dwattr $C$DW$440, DW_AT_location[DW_OP_reg9]
    3115              $C$DW$441       .dwtag  DW_TAG_TI_assign_register, DW_AT_name("XAR3")
    3116                      .dwattr $C$DW$441, DW_AT_location[DW_OP_reg11]
    3117              $C$DW$442       .dwtag  DW_TAG_TI_assign_register, DW_AT_name("XAR4")
    3118                      .dwattr $C$DW$442, DW_AT_location[DW_OP_reg13]
    3119              $C$DW$443       .dwtag  DW_TAG_TI_assign_register, DW_AT_name("XAR5")
    3120                      .dwattr $C$DW$443, DW_AT_location[DW_OP_reg15]
    3121              $C$DW$444       .dwtag  DW_TAG_TI_assign_register, DW_AT_name("CIE_RETA")
    3122                      .dwattr $C$DW$444, DW_AT_location[DW_OP_regx 0x4e]
    3123                      .dwendtag $C$DW$CU
    3124              

No Assembly Errors, No Assembly Warnings
