TMS320C2000 Assembler PC v6.2.5 Mon Jul 10 09:53:39 2017

Tools Copyright (c) 1996-2014 Texas Instruments Incorporated
C:\Users\wmj\AppData\Local\Temp\1375610                              PAGE    1

       1              ;***************************************************************
       2              ;* TMS320C2000 C/C++ Codegen                         PC v6.2.5 *
       3              ;* Date/Time created: Mon Jul 10 09:53:38 2017                 *
       4              ;***************************************************************
       5                      .compiler_opts --float_support=softlib --hll_source=on --mem_model:code=flat --mem_model:data=large -
       6        0002  FP      .set    XAR2
       7              
       8              $C$DW$CU        .dwtag  DW_TAG_compile_unit
       9                      .dwattr $C$DW$CU, DW_AT_name("D:/Foc/my_motor/sw/drivers/drvic/ldc1612.c")
      10                      .dwattr $C$DW$CU, DW_AT_producer("TMS320C2000 C/C++ Codegen PC v6.2.5 Copyright (c) 1996-2014 Texas I
      11                      .dwattr $C$DW$CU, DW_AT_TI_version(0x01)
      12                      .dwattr $C$DW$CU, DW_AT_comp_dir("D:\Foc\my_motor\sw\solutions\instaspin_foc\boards\hvkit_rev1p1\f28x
      13              ;**************************************************************
      14              ;* CINIT RECORDS                                              *
      15              ;**************************************************************
      16 00000000               .sect   ".cinit"
      17                      .align  1
      18 00000000 FFFE          .field          -2,16
      19 00000001 0002-         .field          _x_Last$5+0,32
         00000002 0000 
      20 00000003 0000          .bits   0,32                    ; _x_Last$5 @ 0
         00000004 0000 
      21              
      22 00000005               .sect   ".cinit"
      23                      .align  1
      24 00000005 FFFE          .field          -2,16
      25 00000006 0004-         .field          _Sum$4+0,32
         00000007 0000 
      26 00000008 0000          .bits   1073741824,32                   ; _Sum$4 @ 0
         00000009 4000 
      27              
      28 0000000a               .sect   ".cinit"
      29                      .align  1
      30 0000000a FFFE          .field          -2,16
      31 0000000b 000A-         .field          _Avage$3+0,32
         0000000c 0000 
      32 0000000d 0000          .bits   67108864,32                     ; _Avage$3 @ 0
         0000000e 0400 
      33              
      34              
      35              $C$DW$1 .dwtag  DW_TAG_subprogram, DW_AT_name("GPIO_setLow")
      36                      .dwattr $C$DW$1, DW_AT_TI_symbol_name("_GPIO_setLow")
      37                      .dwattr $C$DW$1, DW_AT_declaration
      38                      .dwattr $C$DW$1, DW_AT_external
      39              $C$DW$2 .dwtag  DW_TAG_formal_parameter
      40                      .dwattr $C$DW$2, DW_AT_type(*$C$DW$T$45)
      41              $C$DW$3 .dwtag  DW_TAG_formal_parameter
      42                      .dwattr $C$DW$3, DW_AT_type(*$C$DW$T$85)
      43                      .dwendtag $C$DW$1
      44              
      45              
      46              $C$DW$4 .dwtag  DW_TAG_subprogram, DW_AT_name("GPIO_setDirection")
      47                      .dwattr $C$DW$4, DW_AT_TI_symbol_name("_GPIO_setDirection")
      48                      .dwattr $C$DW$4, DW_AT_declaration
      49                      .dwattr $C$DW$4, DW_AT_external
TMS320C2000 Assembler PC v6.2.5 Mon Jul 10 09:53:39 2017

Tools Copyright (c) 1996-2014 Texas Instruments Incorporated
C:\Users\wmj\AppData\Local\Temp\1375610                              PAGE    2

      50              $C$DW$5 .dwtag  DW_TAG_formal_parameter
      51                      .dwattr $C$DW$5, DW_AT_type(*$C$DW$T$45)
      52              $C$DW$6 .dwtag  DW_TAG_formal_parameter
      53                      .dwattr $C$DW$6, DW_AT_type(*$C$DW$T$85)
      54              $C$DW$7 .dwtag  DW_TAG_formal_parameter
      55                      .dwattr $C$DW$7, DW_AT_type(*$C$DW$T$88)
      56                      .dwendtag $C$DW$4
      57              
      58              
      59              $C$DW$8 .dwtag  DW_TAG_subprogram, DW_AT_name("GPIO_setMode")
      60                      .dwattr $C$DW$8, DW_AT_TI_symbol_name("_GPIO_setMode")
      61                      .dwattr $C$DW$8, DW_AT_declaration
      62                      .dwattr $C$DW$8, DW_AT_external
      63              $C$DW$9 .dwtag  DW_TAG_formal_parameter
      64                      .dwattr $C$DW$9, DW_AT_type(*$C$DW$T$45)
      65              $C$DW$10        .dwtag  DW_TAG_formal_parameter
      66                      .dwattr $C$DW$10, DW_AT_type(*$C$DW$T$85)
      67              $C$DW$11        .dwtag  DW_TAG_formal_parameter
      68                      .dwattr $C$DW$11, DW_AT_type(*$C$DW$T$91)
      69                      .dwendtag $C$DW$8
      70              
      71              
      72              $C$DW$12        .dwtag  DW_TAG_subprogram, DW_AT_name("I2C_MasterControl")
      73                      .dwattr $C$DW$12, DW_AT_TI_symbol_name("_I2C_MasterControl")
      74                      .dwattr $C$DW$12, DW_AT_declaration
      75                      .dwattr $C$DW$12, DW_AT_external
      76              $C$DW$13        .dwtag  DW_TAG_formal_parameter
      77                      .dwattr $C$DW$13, DW_AT_type(*$C$DW$T$43)
      78              $C$DW$14        .dwtag  DW_TAG_formal_parameter
      79                      .dwattr $C$DW$14, DW_AT_type(*$C$DW$T$75)
      80              $C$DW$15        .dwtag  DW_TAG_formal_parameter
      81                      .dwattr $C$DW$15, DW_AT_type(*$C$DW$T$77)
      82              $C$DW$16        .dwtag  DW_TAG_formal_parameter
      83                      .dwattr $C$DW$16, DW_AT_type(*$C$DW$T$21)
      84                      .dwendtag $C$DW$12
      85              
      86              
      87              $C$DW$17        .dwtag  DW_TAG_subprogram, DW_AT_name("_nop")
      88                      .dwattr $C$DW$17, DW_AT_TI_symbol_name("__nop")
      89                      .dwattr $C$DW$17, DW_AT_declaration
      90                      .dwattr $C$DW$17, DW_AT_external
      91              
      92              $C$DW$18        .dwtag  DW_TAG_subprogram, DW_AT_name("I2C_enable")
      93                      .dwattr $C$DW$18, DW_AT_TI_symbol_name("_I2C_enable")
      94                      .dwattr $C$DW$18, DW_AT_declaration
      95                      .dwattr $C$DW$18, DW_AT_external
      96              $C$DW$19        .dwtag  DW_TAG_formal_parameter
      97                      .dwattr $C$DW$19, DW_AT_type(*$C$DW$T$43)
      98                      .dwendtag $C$DW$18
      99              
     100              
     101              $C$DW$20        .dwtag  DW_TAG_subprogram, DW_AT_name("I2C_setMasterSlaveAddr")
     102                      .dwattr $C$DW$20, DW_AT_TI_symbol_name("_I2C_setMasterSlaveAddr")
     103                      .dwattr $C$DW$20, DW_AT_declaration
     104                      .dwattr $C$DW$20, DW_AT_external
TMS320C2000 Assembler PC v6.2.5 Mon Jul 10 09:53:39 2017

Tools Copyright (c) 1996-2014 Texas Instruments Incorporated
C:\Users\wmj\AppData\Local\Temp\1375610                              PAGE    3

     105              $C$DW$21        .dwtag  DW_TAG_formal_parameter
     106                      .dwattr $C$DW$21, DW_AT_type(*$C$DW$T$43)
     107              $C$DW$22        .dwtag  DW_TAG_formal_parameter
     108                      .dwattr $C$DW$22, DW_AT_type(*$C$DW$T$136)
     109                      .dwendtag $C$DW$20
     110              
     111              
     112              $C$DW$23        .dwtag  DW_TAG_subprogram, DW_AT_name("I2C_putData")
     113                      .dwattr $C$DW$23, DW_AT_TI_symbol_name("_I2C_putData")
     114                      .dwattr $C$DW$23, DW_AT_declaration
     115                      .dwattr $C$DW$23, DW_AT_external
     116              $C$DW$24        .dwtag  DW_TAG_formal_parameter
     117                      .dwattr $C$DW$24, DW_AT_type(*$C$DW$T$43)
     118              $C$DW$25        .dwtag  DW_TAG_formal_parameter
     119                      .dwattr $C$DW$25, DW_AT_type(*$C$DW$T$21)
     120                      .dwendtag $C$DW$23
     121              
     122 00000000       _WaitTimeOut$2: .usect  ".ebss",1,1,0
     123 00000001       _WaitTimeOut$1: .usect  ".ebss",1,1,0
     124              
     125              $C$DW$26        .dwtag  DW_TAG_subprogram, DW_AT_name("I2C_getData")
     126                      .dwattr $C$DW$26, DW_AT_TI_symbol_name("_I2C_getData")
     127                      .dwattr $C$DW$26, DW_AT_type(*$C$DW$T$21)
     128                      .dwattr $C$DW$26, DW_AT_declaration
     129                      .dwattr $C$DW$26, DW_AT_external
     130              $C$DW$27        .dwtag  DW_TAG_formal_parameter
     131                      .dwattr $C$DW$27, DW_AT_type(*$C$DW$T$43)
     132                      .dwendtag $C$DW$26
     133              
     134              
     135              $C$DW$28        .dwtag  DW_TAG_subprogram, DW_AT_name("I2C_getStatus")
     136                      .dwattr $C$DW$28, DW_AT_TI_symbol_name("_I2C_getStatus")
     137                      .dwattr $C$DW$28, DW_AT_type(*$C$DW$T$79)
     138                      .dwattr $C$DW$28, DW_AT_declaration
     139                      .dwattr $C$DW$28, DW_AT_external
     140              $C$DW$29        .dwtag  DW_TAG_formal_parameter
     141                      .dwattr $C$DW$29, DW_AT_type(*$C$DW$T$43)
     142                      .dwendtag $C$DW$28
     143              
     144              
     145              $C$DW$30        .dwtag  DW_TAG_subprogram, DW_AT_name("I2C_isMasterBusy")
     146                      .dwattr $C$DW$30, DW_AT_TI_symbol_name("_I2C_isMasterBusy")
     147                      .dwattr $C$DW$30, DW_AT_type(*$C$DW$T$35)
     148                      .dwattr $C$DW$30, DW_AT_declaration
     149                      .dwattr $C$DW$30, DW_AT_external
     150              $C$DW$31        .dwtag  DW_TAG_formal_parameter
     151                      .dwattr $C$DW$31, DW_AT_type(*$C$DW$T$43)
     152                      .dwendtag $C$DW$30
     153              
     154 00000002       _x_Last$5:      .usect  ".ebss",2,1,1
     155 00000004       _Sum$4: .usect  ".ebss",2,1,1
     156 00000006       _p_Last$6:      .usect  ".ebss",2,1,1
     157 00000008       _DataTmp_Last$7:        .usect  ".ebss",2,1,1
     158 0000000a       _Avage$3:       .usect  ".ebss",2,1,1
     159              ;       c:\ti\ccsv6\tools\compiler\c2000_6.2.5\bin\opt2000.exe C:\\Users\\wmj\\AppData\\Local\\Temp\\137562 C
TMS320C2000 Assembler PC v6.2.5 Mon Jul 10 09:53:39 2017

Tools Copyright (c) 1996-2014 Texas Instruments Incorporated
C:\Users\wmj\AppData\Local\Temp\1375610                              PAGE    4

     160              ;       c:\ti\ccsv6\tools\compiler\c2000_6.2.5\bin\ac2000.exe -@C:\\Users\\wmj\\AppData\\Local\\Temp\\1375616
     161 00000000               .sect   ".text"
     162                      .clink
     163                      .global _LDC161x_getSettleCnt
     164              
     165              $C$DW$32        .dwtag  DW_TAG_subprogram, DW_AT_name("LDC161x_getSettleCnt")
     166                      .dwattr $C$DW$32, DW_AT_low_pc(_LDC161x_getSettleCnt)
     167                      .dwattr $C$DW$32, DW_AT_high_pc(0x00)
     168                      .dwattr $C$DW$32, DW_AT_TI_symbol_name("_LDC161x_getSettleCnt")
     169                      .dwattr $C$DW$32, DW_AT_external
     170                      .dwattr $C$DW$32, DW_AT_TI_begin_file("D:/Foc/my_motor/sw/drivers/drvic/ldc1612.c")
     171                      .dwattr $C$DW$32, DW_AT_TI_begin_line(0x3b3)
     172                      .dwattr $C$DW$32, DW_AT_TI_begin_column(0x06)
     173                      .dwattr $C$DW$32, DW_AT_TI_max_frame_size(-2)
     174                      .dwpsn  file "D:/Foc/my_motor/sw/drivers/drvic/ldc1612.c",line 948,column 1,is_stmt,address _LDC161x_
     175              
     176                      .dwfde $C$DW$CIE, _LDC161x_getSettleCnt
     177              $C$DW$33        .dwtag  DW_TAG_formal_parameter, DW_AT_name("handle")
     178                      .dwattr $C$DW$33, DW_AT_TI_symbol_name("_handle")
     179                      .dwattr $C$DW$33, DW_AT_type(*$C$DW$T$47)
     180                      .dwattr $C$DW$33, DW_AT_location[DW_OP_reg12]
     181              $C$DW$34        .dwtag  DW_TAG_formal_parameter, DW_AT_name("Channel")
     182                      .dwattr $C$DW$34, DW_AT_TI_symbol_name("_Channel")
     183                      .dwattr $C$DW$34, DW_AT_type(*$C$DW$T$136)
     184                      .dwattr $C$DW$34, DW_AT_location[DW_OP_reg0]
     185              $C$DW$35        .dwtag  DW_TAG_formal_parameter, DW_AT_name("drvDataGet")
     186                      .dwattr $C$DW$35, DW_AT_TI_symbol_name("_drvDataGet")
     187                      .dwattr $C$DW$35, DW_AT_type(*$C$DW$T$155)
     188                      .dwattr $C$DW$35, DW_AT_location[DW_OP_reg14]
     189              
     190              ;***************************************************************
     191              ;* FNAME: _LDC161x_getSettleCnt         FR SIZE:   0           *
     192              ;*                                                             *
     193              ;* FUNCTION ENVIRONMENT                                        *
     194              ;*                                                             *
     195              ;* FUNCTION PROPERTIES                                         *
     196              ;*                            0 Parameter,  0 Auto,  0 SOE     *
     197              ;***************************************************************
     198              
     199              _LDC161x_getSettleCnt:
     200              ;* AL    assigned to _drvData
     201              $C$DW$36        .dwtag  DW_TAG_variable, DW_AT_name("drvData")
     202                      .dwattr $C$DW$36, DW_AT_TI_symbol_name("_drvData")
     203                      .dwattr $C$DW$36, DW_AT_type(*$C$DW$T$21)
     204                      .dwattr $C$DW$36, DW_AT_location[DW_OP_reg0]
     205              ;* AR4   assigned to _obj
     206              $C$DW$37        .dwtag  DW_TAG_variable, DW_AT_name("obj")
     207                      .dwattr $C$DW$37, DW_AT_TI_symbol_name("_obj")
     208                      .dwattr $C$DW$37, DW_AT_type(*$C$DW$T$125)
     209                      .dwattr $C$DW$37, DW_AT_location[DW_OP_reg12]
     210              ;* AR5   assigned to _drvDataGet
     211              $C$DW$38        .dwtag  DW_TAG_variable, DW_AT_name("drvDataGet")
     212                      .dwattr $C$DW$38, DW_AT_TI_symbol_name("_drvDataGet")
     213                      .dwattr $C$DW$38, DW_AT_type(*$C$DW$T$167)
     214                      .dwattr $C$DW$38, DW_AT_location[DW_OP_reg14]
TMS320C2000 Assembler PC v6.2.5 Mon Jul 10 09:53:39 2017

Tools Copyright (c) 1996-2014 Texas Instruments Incorporated
C:\Users\wmj\AppData\Local\Temp\1375610                              PAGE    5

     215              ;* AL    assigned to _Channel
     216              $C$DW$39        .dwtag  DW_TAG_variable, DW_AT_name("Channel")
     217                      .dwattr $C$DW$39, DW_AT_TI_symbol_name("_Channel")
     218                      .dwattr $C$DW$39, DW_AT_type(*$C$DW$T$136)
     219                      .dwattr $C$DW$39, DW_AT_location[DW_OP_reg0]
     220              ;* AR4   assigned to _handle
     221              $C$DW$40        .dwtag  DW_TAG_variable, DW_AT_name("handle")
     222                      .dwattr $C$DW$40, DW_AT_TI_symbol_name("_handle")
     223                      .dwattr $C$DW$40, DW_AT_type(*$C$DW$T$109)
     224                      .dwattr $C$DW$40, DW_AT_location[DW_OP_reg12]
     225                      .dwcfi  cfa_offset, -2
     226                      .dwcfi  save_reg_to_mem, 26, 0
     227                      .dwcfi  save_reg_to_reg, 78, 26
     228                      .dwpsn  file "D:/Foc/my_motor/sw/drivers/drvic/ldc1612.c",line 952,column 3,is_stmt
     229 00000000 5200          CMPB      AL,#0                 ; [CPU_] |952| 
     230 00000001 EC0F          BF        $C$L4,EQ              ; [CPU_] |952| 
     231                      ; branchcc occurs ; [] |952| 
     232 00000002 5201          CMPB      AL,#1                 ; [CPU_] |952| 
     233 00000003 EC0B          BF        $C$L3,EQ              ; [CPU_] |952| 
     234                      ; branchcc occurs ; [] |952| 
     235 00000004 5202          CMPB      AL,#2                 ; [CPU_] |952| 
     236 00000005 EC07          BF        $C$L2,EQ              ; [CPU_] |952| 
     237                      ; branchcc occurs ; [] |952| 
     238 00000006 5203          CMPB      AL,#3                 ; [CPU_] |952| 
     239 00000007 EC03          BF        $C$L1,EQ              ; [CPU_] |952| 
     240                      ; branchcc occurs ; [] |952| 
     241                      .dwpsn  file "D:/Foc/my_motor/sw/drivers/drvic/ldc1612.c",line 950,column 20,is_stmt
     242 00000008 9A00          MOVB      AL,#0                 ; [CPU_] |950| 
     243 00000009 6F09          B         $C$L6,UNC             ; [CPU_] 
     244                      ; branch occurs ; [] 
     245 0000000a       $C$L1:    
     246                      .dwpsn  file "D:/Foc/my_motor/sw/drivers/drvic/ldc1612.c",line 957,column 13,is_stmt
     247 0000000a D023          MOVB      XAR0,#35              ; [CPU_] |957| 
     248                      .dwpsn  file "D:/Foc/my_motor/sw/drivers/drvic/ldc1612.c",line 957,column 58,is_stmt
     249 0000000b 6F06          B         $C$L5,UNC             ; [CPU_] |957| 
     250                      ; branch occurs ; [] |957| 
     251 0000000c       $C$L2:    
     252                      .dwpsn  file "D:/Foc/my_motor/sw/drivers/drvic/ldc1612.c",line 956,column 13,is_stmt
     253 0000000c D022          MOVB      XAR0,#34              ; [CPU_] |956| 
     254                      .dwpsn  file "D:/Foc/my_motor/sw/drivers/drvic/ldc1612.c",line 956,column 58,is_stmt
     255 0000000d 6F04          B         $C$L5,UNC             ; [CPU_] |956| 
     256                      ; branch occurs ; [] |956| 
     257 0000000e       $C$L3:    
     258                      .dwpsn  file "D:/Foc/my_motor/sw/drivers/drvic/ldc1612.c",line 955,column 13,is_stmt
     259 0000000e D021          MOVB      XAR0,#33              ; [CPU_] |955| 
     260                      .dwpsn  file "D:/Foc/my_motor/sw/drivers/drvic/ldc1612.c",line 955,column 58,is_stmt
     261 0000000f 6F02          B         $C$L5,UNC             ; [CPU_] |955| 
     262                      ; branch occurs ; [] |955| 
     263 00000010       $C$L4:    
     264                      .dwpsn  file "D:/Foc/my_motor/sw/drivers/drvic/ldc1612.c",line 954,column 13,is_stmt
     265 00000010 D020          MOVB      XAR0,#32              ; [CPU_] |954| 
     266 00000011       $C$L5:    
     267 00000011 9294          MOV       AL,*+XAR4[AR0]        ; [CPU_] |954| 
     268 00000012       $C$L6:    
     269                      .dwpsn  file "D:/Foc/my_motor/sw/drivers/drvic/ldc1612.c",line 961,column 3,is_stmt
TMS320C2000 Assembler PC v6.2.5 Mon Jul 10 09:53:39 2017

Tools Copyright (c) 1996-2014 Texas Instruments Incorporated
C:\Users\wmj\AppData\Local\Temp\1375610                              PAGE    6

     270 00000012 96C5          MOV       *+XAR5[0],AL          ; [CPU_] |961| 
     271              $C$DW$41        .dwtag  DW_TAG_TI_branch
     272                      .dwattr $C$DW$41, DW_AT_low_pc(0x00)
     273                      .dwattr $C$DW$41, DW_AT_TI_return
     274 00000013 0006          LRETR     ; [CPU_] 
     275                      ; return occurs ; [] 
     276                      .dwattr $C$DW$32, DW_AT_TI_end_file("D:/Foc/my_motor/sw/drivers/drvic/ldc1612.c")
     277                      .dwattr $C$DW$32, DW_AT_TI_end_line(0x3c4)
     278                      .dwattr $C$DW$32, DW_AT_TI_end_column(0x01)
     279                      .dwendentry
     280                      .dwendtag $C$DW$32
     281              
     282 00000014               .sect   ".text"
     283                      .clink
     284                      .global _LDC161x_writeI2c
     285              
     286              $C$DW$42        .dwtag  DW_TAG_subprogram, DW_AT_name("LDC161x_writeI2c")
     287                      .dwattr $C$DW$42, DW_AT_low_pc(_LDC161x_writeI2c)
     288                      .dwattr $C$DW$42, DW_AT_high_pc(0x00)
     289                      .dwattr $C$DW$42, DW_AT_TI_symbol_name("_LDC161x_writeI2c")
     290                      .dwattr $C$DW$42, DW_AT_external
     291                      .dwattr $C$DW$42, DW_AT_TI_begin_file("D:/Foc/my_motor/sw/drivers/drvic/ldc1612.c")
     292                      .dwattr $C$DW$42, DW_AT_TI_begin_line(0x10)
     293                      .dwattr $C$DW$42, DW_AT_TI_begin_column(0x06)
     294                      .dwattr $C$DW$42, DW_AT_TI_max_frame_size(-8)
     295                      .dwpsn  file "D:/Foc/my_motor/sw/drivers/drvic/ldc1612.c",line 17,column 1,is_stmt,address _LDC161x_w
     296              
     297                      .dwfde $C$DW$CIE, _LDC161x_writeI2c
     298              $C$DW$43        .dwtag  DW_TAG_variable, DW_AT_name("WaitTimeOut")
     299                      .dwattr $C$DW$43, DW_AT_TI_symbol_name("_WaitTimeOut$1")
     300                      .dwattr $C$DW$43, DW_AT_type(*$C$DW$T$27)
     301                      .dwattr $C$DW$43, DW_AT_location[DW_OP_addr _WaitTimeOut$1]
     302              $C$DW$44        .dwtag  DW_TAG_formal_parameter, DW_AT_name("handle")
     303                      .dwattr $C$DW$44, DW_AT_TI_symbol_name("_handle")
     304                      .dwattr $C$DW$44, DW_AT_type(*$C$DW$T$120)
     305                      .dwattr $C$DW$44, DW_AT_location[DW_OP_reg12]
     306              $C$DW$45        .dwtag  DW_TAG_formal_parameter, DW_AT_name("regName")
     307                      .dwattr $C$DW$45, DW_AT_TI_symbol_name("_regName")
     308                      .dwattr $C$DW$45, DW_AT_type(*$C$DW$T$94)
     309                      .dwattr $C$DW$45, DW_AT_location[DW_OP_reg0]
     310              $C$DW$46        .dwtag  DW_TAG_formal_parameter, DW_AT_name("data")
     311                      .dwattr $C$DW$46, DW_AT_TI_symbol_name("_data")
     312                      .dwattr $C$DW$46, DW_AT_type(*$C$DW$T$136)
     313                      .dwattr $C$DW$46, DW_AT_location[DW_OP_reg1]
     314              
     315              ;***************************************************************
     316              ;* FNAME: _LDC161x_writeI2c             FR SIZE:   6           *
     317              ;*                                                             *
     318              ;* FUNCTION ENVIRONMENT                                        *
     319              ;*                                                             *
     320              ;* FUNCTION PROPERTIES                                         *
     321              ;*                            0 Parameter,  0 Auto,  6 SOE     *
     322              ;***************************************************************
     323              
     324              _LDC161x_writeI2c:
TMS320C2000 Assembler PC v6.2.5 Mon Jul 10 09:53:39 2017

Tools Copyright (c) 1996-2014 Texas Instruments Incorporated
C:\Users\wmj\AppData\Local\Temp\1375610                              PAGE    7

     325              ;* AR1   assigned to _data
     326              $C$DW$47        .dwtag  DW_TAG_variable, DW_AT_name("data")
     327                      .dwattr $C$DW$47, DW_AT_TI_symbol_name("_data")
     328                      .dwattr $C$DW$47, DW_AT_type(*$C$DW$T$136)
     329                      .dwattr $C$DW$47, DW_AT_location[DW_OP_reg6]
     330              ;* AR2   assigned to _regName
     331              $C$DW$48        .dwtag  DW_TAG_variable, DW_AT_name("regName")
     332                      .dwattr $C$DW$48, DW_AT_TI_symbol_name("_regName")
     333                      .dwattr $C$DW$48, DW_AT_type(*$C$DW$T$94)
     334                      .dwattr $C$DW$48, DW_AT_location[DW_OP_reg8]
     335              ;* AR3   assigned to _handle
     336              $C$DW$49        .dwtag  DW_TAG_variable, DW_AT_name("handle")
     337                      .dwattr $C$DW$49, DW_AT_TI_symbol_name("_handle")
     338                      .dwattr $C$DW$49, DW_AT_type(*$C$DW$T$121)
     339                      .dwattr $C$DW$49, DW_AT_location[DW_OP_reg10]
     340                      .dwcfi  cfa_offset, -2
     341                      .dwcfi  save_reg_to_mem, 26, 0
     342                      .dwcfi  save_reg_to_reg, 78, 26
     343 00000014 B2BD          MOVL      *SP++,XAR1            ; [CPU_] 
     344                      .dwcfi  save_reg_to_mem, 7, 2
     345                      .dwcfi  cfa_offset, -4
     346 00000015 59A8          MOVZ      AR1,AH                ; [CPU_] |17| 
     347 00000016 AABD          MOVL      *SP++,XAR2            ; [CPU_] 
     348                      .dwcfi  save_reg_to_mem, 9, 4
     349                      .dwcfi  cfa_offset, -6
     350 00000017 5AA9          MOVZ      AR2,AL                ; [CPU_] |17| 
     351 00000018 A2BD          MOVL      *SP++,XAR3            ; [CPU_] 
     352                      .dwcfi  save_reg_to_mem, 11, 6
     353                      .dwcfi  cfa_offset, -8
     354 00000019 82A4          MOVL      XAR3,XAR4             ; [CPU_] |17| 
     355                      .dwpsn  file "D:/Foc/my_motor/sw/drivers/drvic/ldc1612.c",line 22,column 4,is_stmt
     356 0000001a 6F08          B         $C$L8,UNC             ; [CPU_] |22| 
     357                      ; branch occurs ; [] |22| 
     358 0000001b       $C$L7:    
     359                      .dwpsn  file "D:/Foc/my_motor/sw/drivers/drvic/ldc1612.c",line 23,column 8,is_stmt
     360 0000001b 8AC3          MOVL      XAR4,*+XAR3[0]        ; [CPU_] |23| 
     361 0000001c 9B00          MOVB      AH,#0                 ; [CPU_] |23| 
     362 0000001d D501          MOVB      XAR5,#1               ; [CPU_] |23| 
     363 0000001e 28A9          MOV       AL,#3072              ; [CPU_] |23| 
         0000001f 0C00 
     364              $C$DW$50        .dwtag  DW_TAG_TI_branch
     365                      .dwattr $C$DW$50, DW_AT_low_pc(0x00)
     366                      .dwattr $C$DW$50, DW_AT_name("_I2C_MasterControl")
     367                      .dwattr $C$DW$50, DW_AT_TI_call
     368 00000020 7640!         LCR       #_I2C_MasterControl   ; [CPU_] |23| 
         00000021 0000 
     369                      ; call occurs [#_I2C_MasterControl] ; [] |23| 
     370 00000022       $C$L8:    
     371 00000022 8AC3          MOVL      XAR4,*+XAR3[0]        ; [CPU_] |23| 
     372              $C$DW$51        .dwtag  DW_TAG_TI_branch
     373                      .dwattr $C$DW$51, DW_AT_low_pc(0x00)
     374                      .dwattr $C$DW$51, DW_AT_name("_I2C_isMasterBusy")
     375                      .dwattr $C$DW$51, DW_AT_TI_call
     376 00000023 7640!         LCR       #_I2C_isMasterBusy    ; [CPU_] |23| 
         00000024 0000 
TMS320C2000 Assembler PC v6.2.5 Mon Jul 10 09:53:39 2017

Tools Copyright (c) 1996-2014 Texas Instruments Incorporated
C:\Users\wmj\AppData\Local\Temp\1375610                              PAGE    8

     377                      ; call occurs [#_I2C_isMasterBusy] ; [] |23| 
     378 00000025 5200          CMPB      AL,#0                 ; [CPU_] |23| 
     379 00000026 EDF5          BF        $C$L7,NEQ             ; [CPU_] |23| 
     380                      ; branchcc occurs ; [] |23| 
     381                      .dwpsn  file "D:/Foc/my_motor/sw/drivers/drvic/ldc1612.c",line 25,column 4,is_stmt
     382 00000027 D05E          MOVB      XAR0,#94              ; [CPU_] |25| 
     383 00000028 9293          MOV       AL,*+XAR3[AR0]        ; [CPU_] |25| 
     384 00000029 5201          CMPB      AL,#1                 ; [CPU_] |25| 
     385 0000002a EC5A          BF        $C$L15,EQ             ; [CPU_] |25| 
     386                      ; branchcc occurs ; [] |25| 
     387 0000002b D05F          MOVB      XAR0,#95              ; [CPU_] |25| 
     388 0000002c 9293          MOV       AL,*+XAR3[AR0]        ; [CPU_] |25| 
     389 0000002d 5201          CMPB      AL,#1                 ; [CPU_] |25| 
     390 0000002e EC56          BF        $C$L15,EQ             ; [CPU_] |25| 
     391                      ; branchcc occurs ; [] |25| 
     392                      .dwpsn  file "D:/Foc/my_motor/sw/drivers/drvic/ldc1612.c",line 31,column 4,is_stmt
     393 0000002f D05D          MOVB      XAR0,#93              ; [CPU_] |31| 
     394 00000030 8AC3          MOVL      XAR4,*+XAR3[0]        ; [CPU_] |31| 
     395 00000031 9293          MOV       AL,*+XAR3[AR0]        ; [CPU_] |31| 
     396              $C$DW$52        .dwtag  DW_TAG_TI_branch
     397                      .dwattr $C$DW$52, DW_AT_low_pc(0x00)
     398                      .dwattr $C$DW$52, DW_AT_name("_I2C_setMasterSlaveAddr")
     399                      .dwattr $C$DW$52, DW_AT_TI_call
     400 00000032 7640!         LCR       #_I2C_setMasterSlaveAddr ; [CPU_] |31| 
         00000033 0000 
     401                      ; call occurs [#_I2C_setMasterSlaveAddr] ; [] |31| 
     402                      .dwpsn  file "D:/Foc/my_motor/sw/drivers/drvic/ldc1612.c",line 32,column 4,is_stmt
     403 00000034 9B00          MOVB      AH,#0                 ; [CPU_] |32| 
     404 00000035 D503          MOVB      XAR5,#3               ; [CPU_] |32| 
     405 00000036 28A9          MOV       AL,#11776             ; [CPU_] |32| 
         00000037 2E00 
     406 00000038 8AC3          MOVL      XAR4,*+XAR3[0]        ; [CPU_] |32| 
     407              $C$DW$53        .dwtag  DW_TAG_TI_branch
     408                      .dwattr $C$DW$53, DW_AT_low_pc(0x00)
     409                      .dwattr $C$DW$53, DW_AT_name("_I2C_MasterControl")
     410                      .dwattr $C$DW$53, DW_AT_TI_call
     411 00000039 7640!         LCR       #_I2C_MasterControl   ; [CPU_] |32| 
         0000003a 0000 
     412                      ; call occurs [#_I2C_MasterControl] ; [] |32| 
     413                      .dwpsn  file "D:/Foc/my_motor/sw/drivers/drvic/ldc1612.c",line 33,column 4,is_stmt
     414 0000003b 8AC3          MOVL      XAR4,*+XAR3[0]        ; [CPU_] |33| 
     415              $C$DW$54        .dwtag  DW_TAG_TI_branch
     416                      .dwattr $C$DW$54, DW_AT_low_pc(0x00)
     417                      .dwattr $C$DW$54, DW_AT_name("_I2C_enable")
     418                      .dwattr $C$DW$54, DW_AT_TI_call
     419 0000003c 7640!         LCR       #_I2C_enable          ; [CPU_] |33| 
         0000003d 0000 
     420                      ; call occurs [#_I2C_enable] ; [] |33| 
     421                      .dwpsn  file "D:/Foc/my_motor/sw/drivers/drvic/ldc1612.c",line 36,column 4,is_stmt
     422 0000003e 92A2          MOV       AL,AR2                ; [CPU_] |36| 
     423 0000003f 8AC3          MOVL      XAR4,*+XAR3[0]        ; [CPU_] |36| 
     424              $C$DW$55        .dwtag  DW_TAG_TI_branch
     425                      .dwattr $C$DW$55, DW_AT_low_pc(0x00)
     426                      .dwattr $C$DW$55, DW_AT_name("_I2C_putData")
     427                      .dwattr $C$DW$55, DW_AT_TI_call
TMS320C2000 Assembler PC v6.2.5 Mon Jul 10 09:53:39 2017

Tools Copyright (c) 1996-2014 Texas Instruments Incorporated
C:\Users\wmj\AppData\Local\Temp\1375610                              PAGE    9

     428 00000040 7640!         LCR       #_I2C_putData         ; [CPU_] |36| 
         00000041 0000 
     429                      ; call occurs [#_I2C_putData] ; [] |36| 
     430 00000042 761F-         MOVW      DP,#_WaitTimeOut$1    ; [CPU_U] 
         00000043 0000 
     431                      .dwpsn  file "D:/Foc/my_motor/sw/drivers/drvic/ldc1612.c",line 38,column 4,is_stmt
     432 00000044 2B01-         MOV       @_WaitTimeOut$1,#0    ; [CPU_] |38| 
     433 00000045       $C$L9:    
     434                      .dwpsn  file "D:/Foc/my_motor/sw/drivers/drvic/ldc1612.c",line 39,column 10,is_stmt
     435 00000045 8AC3          MOVL      XAR4,*+XAR3[0]        ; [CPU_] |39| 
     436              $C$DW$56        .dwtag  DW_TAG_TI_branch
     437                      .dwattr $C$DW$56, DW_AT_low_pc(0x00)
     438                      .dwattr $C$DW$56, DW_AT_name("_I2C_getStatus")
     439                      .dwattr $C$DW$56, DW_AT_TI_call
     440 00000046 7640!         LCR       #_I2C_getStatus       ; [CPU_] |39| 
         00000047 0000 
     441                      ; call occurs [#_I2C_getStatus] ; [] |39| 
     442 00000048 44A9          TBIT      AL,#4                 ; [CPU_] |39| 
     443 00000049 EE0B          BF        $C$L10,TC             ; [CPU_] |39| 
     444                      ; branchcc occurs ; [] |39| 
     445 0000004a 761F-         MOVW      DP,#_WaitTimeOut$1    ; [CPU_U] 
         0000004b 0000 
     446 0000004c 1B01-         CMP       @_WaitTimeOut$1,#8191 ; [CPU_] |39| 
         0000004d 1FFF 
     447 0000004e 6706          B         $C$L10,HIS            ; [CPU_] |39| 
     448                      ; branchcc occurs ; [] |39| 
     449                      .dwpsn  file "D:/Foc/my_motor/sw/drivers/drvic/ldc1612.c",line 42,column 8,is_stmt
     450 0000004f 0A01-         INC       @_WaitTimeOut$1       ; [CPU_] |42| 
     451 00000050 1B01-         CMP       @_WaitTimeOut$1,#8190 ; [CPU_] |42| 
         00000051 1FFE 
     452 00000052 69F3          B         $C$L9,LOS             ; [CPU_] |42| 
     453                      ; branchcc occurs ; [] |42| 
     454 00000053 6F2E          B         $C$L14,UNC            ; [CPU_] |42| 
     455                      ; branch occurs ; [] |42| 
     456 00000054       $C$L10:    
     457                      .dwpsn  file "D:/Foc/my_motor/sw/drivers/drvic/ldc1612.c",line 50,column 4,is_stmt
     458 00000054 92A1          MOV       AL,AR1                ; [CPU_] |50| 
     459 00000055 8AC3          MOVL      XAR4,*+XAR3[0]        ; [CPU_] |50| 
     460 00000056 FFC7          LSR       AL,8                  ; [CPU_] |50| 
     461              $C$DW$57        .dwtag  DW_TAG_TI_branch
     462                      .dwattr $C$DW$57, DW_AT_low_pc(0x00)
     463                      .dwattr $C$DW$57, DW_AT_name("_I2C_putData")
     464                      .dwattr $C$DW$57, DW_AT_TI_call
     465 00000057 7640!         LCR       #_I2C_putData         ; [CPU_] |50| 
         00000058 0000 
     466                      ; call occurs [#_I2C_putData] ; [] |50| 
     467 00000059 761F-         MOVW      DP,#_WaitTimeOut$1    ; [CPU_U] 
         0000005a 0000 
     468                      .dwpsn  file "D:/Foc/my_motor/sw/drivers/drvic/ldc1612.c",line 52,column 4,is_stmt
     469 0000005b 2B01-         MOV       @_WaitTimeOut$1,#0    ; [CPU_] |52| 
     470 0000005c       $C$L11:    
     471                      .dwpsn  file "D:/Foc/my_motor/sw/drivers/drvic/ldc1612.c",line 53,column 10,is_stmt
     472 0000005c 8AC3          MOVL      XAR4,*+XAR3[0]        ; [CPU_] |53| 
     473              $C$DW$58        .dwtag  DW_TAG_TI_branch
     474                      .dwattr $C$DW$58, DW_AT_low_pc(0x00)
TMS320C2000 Assembler PC v6.2.5 Mon Jul 10 09:53:39 2017

Tools Copyright (c) 1996-2014 Texas Instruments Incorporated
C:\Users\wmj\AppData\Local\Temp\1375610                              PAGE   10

     475                      .dwattr $C$DW$58, DW_AT_name("_I2C_getStatus")
     476                      .dwattr $C$DW$58, DW_AT_TI_call
     477 0000005d 7640!         LCR       #_I2C_getStatus       ; [CPU_] |53| 
         0000005e 0000 
     478                      ; call occurs [#_I2C_getStatus] ; [] |53| 
     479 0000005f 44A9          TBIT      AL,#4                 ; [CPU_] |53| 
     480 00000060 EE0B          BF        $C$L12,TC             ; [CPU_] |53| 
     481                      ; branchcc occurs ; [] |53| 
     482 00000061 761F-         MOVW      DP,#_WaitTimeOut$1    ; [CPU_U] 
         00000062 0000 
     483 00000063 1B01-         CMP       @_WaitTimeOut$1,#8191 ; [CPU_] |53| 
         00000064 1FFF 
     484 00000065 6706          B         $C$L12,HIS            ; [CPU_] |53| 
     485                      ; branchcc occurs ; [] |53| 
     486                      .dwpsn  file "D:/Foc/my_motor/sw/drivers/drvic/ldc1612.c",line 56,column 8,is_stmt
     487 00000066 0A01-         INC       @_WaitTimeOut$1       ; [CPU_] |56| 
     488 00000067 1B01-         CMP       @_WaitTimeOut$1,#8190 ; [CPU_] |56| 
         00000068 1FFE 
     489 00000069 69F3          B         $C$L11,LOS            ; [CPU_] |56| 
     490                      ; branchcc occurs ; [] |56| 
     491 0000006a 6F17          B         $C$L14,UNC            ; [CPU_] |56| 
     492                      ; branch occurs ; [] |56| 
     493 0000006b       $C$L12:    
     494                      .dwpsn  file "D:/Foc/my_motor/sw/drivers/drvic/ldc1612.c",line 64,column 4,is_stmt
     495 0000006b 8AC3          MOVL      XAR4,*+XAR3[0]        ; [CPU_] |64| 
     496 0000006c CCA1          AND       AL,AR1,#0x00ff        ; [CPU_] |64| 
         0000006d 00FF 
     497              $C$DW$59        .dwtag  DW_TAG_TI_branch
     498                      .dwattr $C$DW$59, DW_AT_low_pc(0x00)
     499                      .dwattr $C$DW$59, DW_AT_name("_I2C_putData")
     500                      .dwattr $C$DW$59, DW_AT_TI_call
     501 0000006e 7640!         LCR       #_I2C_putData         ; [CPU_] |64| 
         0000006f 0000 
     502                      ; call occurs [#_I2C_putData] ; [] |64| 
     503 00000070 761F-         MOVW      DP,#_WaitTimeOut$1    ; [CPU_U] 
         00000071 0000 
     504                      .dwpsn  file "D:/Foc/my_motor/sw/drivers/drvic/ldc1612.c",line 66,column 4,is_stmt
     505 00000072 2B01-         MOV       @_WaitTimeOut$1,#0    ; [CPU_] |66| 
     506 00000073       $C$L13:    
     507                      .dwpsn  file "D:/Foc/my_motor/sw/drivers/drvic/ldc1612.c",line 67,column 10,is_stmt
     508 00000073 8AC3          MOVL      XAR4,*+XAR3[0]        ; [CPU_] |67| 
     509              $C$DW$60        .dwtag  DW_TAG_TI_branch
     510                      .dwattr $C$DW$60, DW_AT_low_pc(0x00)
     511                      .dwattr $C$DW$60, DW_AT_name("_I2C_getStatus")
     512                      .dwattr $C$DW$60, DW_AT_TI_call
     513 00000074 7640!         LCR       #_I2C_getStatus       ; [CPU_] |67| 
         00000075 0000 
     514                      ; call occurs [#_I2C_getStatus] ; [] |67| 
     515 00000076 45A9          TBIT      AL,#5                 ; [CPU_] |67| 
     516 00000077 EE0D          BF        $C$L15,TC             ; [CPU_] |67| 
     517                      ; branchcc occurs ; [] |67| 
     518 00000078 761F-         MOVW      DP,#_WaitTimeOut$1    ; [CPU_U] 
         00000079 0000 
     519 0000007a 1B01-         CMP       @_WaitTimeOut$1,#8191 ; [CPU_] |67| 
         0000007b 1FFF 
TMS320C2000 Assembler PC v6.2.5 Mon Jul 10 09:53:39 2017

Tools Copyright (c) 1996-2014 Texas Instruments Incorporated
C:\Users\wmj\AppData\Local\Temp\1375610                              PAGE   11

     520 0000007c 6708          B         $C$L15,HIS            ; [CPU_] |67| 
     521                      ; branchcc occurs ; [] |67| 
     522                      .dwpsn  file "D:/Foc/my_motor/sw/drivers/drvic/ldc1612.c",line 70,column 8,is_stmt
     523 0000007d 0A01-         INC       @_WaitTimeOut$1       ; [CPU_] |70| 
     524 0000007e 1B01-         CMP       @_WaitTimeOut$1,#8190 ; [CPU_] |70| 
         0000007f 1FFE 
     525 00000080 69F3          B         $C$L13,LOS            ; [CPU_] |70| 
     526                      ; branchcc occurs ; [] |70| 
     527 00000081       $C$L14:    
     528                      .dwpsn  file "D:/Foc/my_motor/sw/drivers/drvic/ldc1612.c",line 72,column 10,is_stmt
     529 00000081 D05F          MOVB      XAR0,#95              ; [CPU_] |72| 
     530 00000082 56BF          MOVB      *+XAR3[AR0],#1,UNC    ; [CPU_] |72| 
         00000083 0193 
     531 00000084       $C$L15:    
     532 00000084 82BE          MOVL      XAR3,*--SP            ; [CPU_] 
     533                      .dwcfi  cfa_offset, -6
     534                      .dwcfi  restore_reg, 11
     535 00000085 86BE          MOVL      XAR2,*--SP            ; [CPU_] 
     536                      .dwcfi  cfa_offset, -4
     537                      .dwcfi  restore_reg, 9
     538 00000086 8BBE          MOVL      XAR1,*--SP            ; [CPU_] 
     539                      .dwcfi  cfa_offset, -2
     540                      .dwcfi  restore_reg, 7
     541              $C$DW$61        .dwtag  DW_TAG_TI_branch
     542                      .dwattr $C$DW$61, DW_AT_low_pc(0x00)
     543                      .dwattr $C$DW$61, DW_AT_TI_return
     544 00000087 0006          LRETR     ; [CPU_] 
     545                      ; return occurs ; [] 
     546                      .dwattr $C$DW$42, DW_AT_TI_end_file("D:/Foc/my_motor/sw/drivers/drvic/ldc1612.c")
     547                      .dwattr $C$DW$42, DW_AT_TI_end_line(0x4e)
     548                      .dwattr $C$DW$42, DW_AT_TI_end_column(0x01)
     549                      .dwendentry
     550                      .dwendtag $C$DW$42
     551              
     552 00000088               .sect   ".text"
     553                      .clink
     554                      .global _LDC161x_writeSettleCnt
     555              
     556              $C$DW$62        .dwtag  DW_TAG_subprogram, DW_AT_name("LDC161x_writeSettleCnt")
     557                      .dwattr $C$DW$62, DW_AT_low_pc(_LDC161x_writeSettleCnt)
     558                      .dwattr $C$DW$62, DW_AT_high_pc(0x00)
     559                      .dwattr $C$DW$62, DW_AT_TI_symbol_name("_LDC161x_writeSettleCnt")
     560                      .dwattr $C$DW$62, DW_AT_external
     561                      .dwattr $C$DW$62, DW_AT_TI_begin_file("D:/Foc/my_motor/sw/drivers/drvic/ldc1612.c")
     562                      .dwattr $C$DW$62, DW_AT_TI_begin_line(0x1da)
     563                      .dwattr $C$DW$62, DW_AT_TI_begin_column(0x06)
     564                      .dwattr $C$DW$62, DW_AT_TI_max_frame_size(-4)
     565                      .dwpsn  file "D:/Foc/my_motor/sw/drivers/drvic/ldc1612.c",line 475,column 1,is_stmt,address _LDC161x_
     566              
     567                      .dwfde $C$DW$CIE, _LDC161x_writeSettleCnt
     568              $C$DW$63        .dwtag  DW_TAG_formal_parameter, DW_AT_name("handle")
     569                      .dwattr $C$DW$63, DW_AT_TI_symbol_name("_handle")
     570                      .dwattr $C$DW$63, DW_AT_type(*$C$DW$T$120)
     571                      .dwattr $C$DW$63, DW_AT_location[DW_OP_reg12]
     572              $C$DW$64        .dwtag  DW_TAG_formal_parameter, DW_AT_name("ChannelNum")
TMS320C2000 Assembler PC v6.2.5 Mon Jul 10 09:53:39 2017

Tools Copyright (c) 1996-2014 Texas Instruments Incorporated
C:\Users\wmj\AppData\Local\Temp\1375610                              PAGE   12

     573                      .dwattr $C$DW$64, DW_AT_TI_symbol_name("_ChannelNum")
     574                      .dwattr $C$DW$64, DW_AT_type(*$C$DW$T$96)
     575                      .dwattr $C$DW$64, DW_AT_location[DW_OP_reg0]
     576              
     577              ;***************************************************************
     578              ;* FNAME: _LDC161x_writeSettleCnt       FR SIZE:   2           *
     579              ;*                                                             *
     580              ;* FUNCTION ENVIRONMENT                                        *
     581              ;*                                                             *
     582              ;* FUNCTION PROPERTIES                                         *
     583              ;*                            0 Parameter,  1 Auto,  0 SOE     *
     584              ;***************************************************************
     585              
     586              _LDC161x_writeSettleCnt:
     587              ;* AL    assigned to _ChNum
     588              $C$DW$65        .dwtag  DW_TAG_variable, DW_AT_name("ChNum")
     589                      .dwattr $C$DW$65, DW_AT_TI_symbol_name("_ChNum")
     590                      .dwattr $C$DW$65, DW_AT_type(*$C$DW$T$21)
     591                      .dwattr $C$DW$65, DW_AT_location[DW_OP_reg0]
     592              ;* AH    assigned to _drvRegName
     593              $C$DW$66        .dwtag  DW_TAG_variable, DW_AT_name("drvRegName")
     594                      .dwattr $C$DW$66, DW_AT_TI_symbol_name("_drvRegName")
     595                      .dwattr $C$DW$66, DW_AT_type(*$C$DW$T$93)
     596                      .dwattr $C$DW$66, DW_AT_location[DW_OP_reg1]
     597              $C$DW$67        .dwtag  DW_TAG_variable, DW_AT_name("drvDataGet")
     598                      .dwattr $C$DW$67, DW_AT_TI_symbol_name("_drvDataGet")
     599                      .dwattr $C$DW$67, DW_AT_type(*$C$DW$T$21)
     600                      .dwattr $C$DW$67, DW_AT_location[DW_OP_breg20 -1]
     601              ;* AL    assigned to _ChannelNum
     602              $C$DW$68        .dwtag  DW_TAG_variable, DW_AT_name("ChannelNum")
     603                      .dwattr $C$DW$68, DW_AT_TI_symbol_name("_ChannelNum")
     604                      .dwattr $C$DW$68, DW_AT_type(*$C$DW$T$98)
     605                      .dwattr $C$DW$68, DW_AT_location[DW_OP_reg0]
     606              ;* AR6   assigned to _handle
     607              $C$DW$69        .dwtag  DW_TAG_variable, DW_AT_name("handle")
     608                      .dwattr $C$DW$69, DW_AT_TI_symbol_name("_handle")
     609                      .dwattr $C$DW$69, DW_AT_type(*$C$DW$T$121)
     610                      .dwattr $C$DW$69, DW_AT_location[DW_OP_reg16]
     611                      .dwcfi  cfa_offset, -2
     612                      .dwcfi  save_reg_to_mem, 26, 0
     613                      .dwcfi  save_reg_to_reg, 78, 26
     614 00000088 FE02          ADDB      SP,#2                 ; [CPU_U] 
     615                      .dwcfi  cfa_offset, -4
     616                      .dwpsn  file "D:/Foc/my_motor/sw/drivers/drvic/ldc1612.c",line 481,column 3,is_stmt
     617 00000089 5200          CMPB      AL,#0                 ; [CPU_] |481| 
     618                      .dwpsn  file "D:/Foc/my_motor/sw/drivers/drvic/ldc1612.c",line 475,column 1,is_stmt
     619 0000008a C4A4          MOVL      XAR6,XAR4             ; [CPU_] |475| 
     620                      .dwpsn  file "D:/Foc/my_motor/sw/drivers/drvic/ldc1612.c",line 481,column 3,is_stmt
     621 0000008b EC10          BF        $C$L18,EQ             ; [CPU_] |481| 
     622                      ; branchcc occurs ; [] |481| 
     623 0000008c 5201          CMPB      AL,#1                 ; [CPU_] |481| 
     624 0000008d EC0B          BF        $C$L17,EQ             ; [CPU_] |481| 
     625                      ; branchcc occurs ; [] |481| 
     626 0000008e 5202          CMPB      AL,#2                 ; [CPU_] |481| 
     627 0000008f EC06          BF        $C$L16,EQ             ; [CPU_] |481| 
TMS320C2000 Assembler PC v6.2.5 Mon Jul 10 09:53:39 2017

Tools Copyright (c) 1996-2014 Texas Instruments Incorporated
C:\Users\wmj\AppData\Local\Temp\1375610                              PAGE   13

     628                      ; branchcc occurs ; [] |481| 
     629 00000090 5203          CMPB      AL,#3                 ; [CPU_] |481| 
     630 00000091 ED0C          BF        $C$L19,NEQ            ; [CPU_] |481| 
     631                      ; branchcc occurs ; [] |481| 
     632                      .dwpsn  file "D:/Foc/my_motor/sw/drivers/drvic/ldc1612.c",line 492,column 29,is_stmt
     633 00000092 9B13          MOVB      AH,#19                ; [CPU_] |492| 
     634                      .dwpsn  file "D:/Foc/my_motor/sw/drivers/drvic/ldc1612.c",line 493,column 29,is_stmt
     635 00000093 9A03          MOVB      AL,#3                 ; [CPU_] |493| 
     636                      .dwpsn  file "D:/Foc/my_motor/sw/drivers/drvic/ldc1612.c",line 494,column 7,is_stmt
     637 00000094 6F09          B         $C$L19,UNC            ; [CPU_] |494| 
     638                      ; branch occurs ; [] |494| 
     639 00000095       $C$L16:    
     640                      .dwpsn  file "D:/Foc/my_motor/sw/drivers/drvic/ldc1612.c",line 489,column 29,is_stmt
     641 00000095 9B12          MOVB      AH,#18                ; [CPU_] |489| 
     642                      .dwpsn  file "D:/Foc/my_motor/sw/drivers/drvic/ldc1612.c",line 490,column 29,is_stmt
     643 00000096 9A02          MOVB      AL,#2                 ; [CPU_] |490| 
     644                      .dwpsn  file "D:/Foc/my_motor/sw/drivers/drvic/ldc1612.c",line 491,column 7,is_stmt
     645 00000097 6F06          B         $C$L19,UNC            ; [CPU_] |491| 
     646                      ; branch occurs ; [] |491| 
     647 00000098       $C$L17:    
     648                      .dwpsn  file "D:/Foc/my_motor/sw/drivers/drvic/ldc1612.c",line 486,column 29,is_stmt
     649 00000098 9B11          MOVB      AH,#17                ; [CPU_] |486| 
     650                      .dwpsn  file "D:/Foc/my_motor/sw/drivers/drvic/ldc1612.c",line 487,column 29,is_stmt
     651 00000099 9A01          MOVB      AL,#1                 ; [CPU_] |487| 
     652                      .dwpsn  file "D:/Foc/my_motor/sw/drivers/drvic/ldc1612.c",line 488,column 7,is_stmt
     653 0000009a 6F03          B         $C$L19,UNC            ; [CPU_] |488| 
     654                      ; branch occurs ; [] |488| 
     655 0000009b       $C$L18:    
     656                      .dwpsn  file "D:/Foc/my_motor/sw/drivers/drvic/ldc1612.c",line 483,column 29,is_stmt
     657 0000009b 9B10          MOVB      AH,#16                ; [CPU_] |483| 
     658                      .dwpsn  file "D:/Foc/my_motor/sw/drivers/drvic/ldc1612.c",line 484,column 29,is_stmt
     659 0000009c 9A00          MOVB      AL,#0                 ; [CPU_] |484| 
     660 0000009d       $C$L19:    
     661                      .dwpsn  file "D:/Foc/my_motor/sw/drivers/drvic/ldc1612.c",line 498,column 3,is_stmt
     662 0000009d 5DAD          MOVZ      AR5,SP                ; [CPU_U] |498| 
     663 0000009e 8AE6          MOVL      XAR4,*+XAR6[4]        ; [CPU_] |498| 
     664 0000009f DD81          SUBB      XAR5,#1               ; [CPU_U] |498| 
     665              $C$DW$70        .dwtag  DW_TAG_TI_branch
     666                      .dwattr $C$DW$70, DW_AT_low_pc(0x00)
     667                      .dwattr $C$DW$70, DW_AT_name("_LDC161x_getSettleCnt")
     668                      .dwattr $C$DW$70, DW_AT_TI_call
     669 000000a0 7640'         LCR       #_LDC161x_getSettleCnt ; [CPU_] |498| 
         000000a1 0000 
     670                      ; call occurs [#_LDC161x_getSettleCnt] ; [] |498| 
     671                      .dwpsn  file "D:/Foc/my_motor/sw/drivers/drvic/ldc1612.c",line 499,column 3,is_stmt
     672 000000a2 92A8          MOV       AL,AH                 ; [CPU_] |499| 
     673 000000a3 9341          MOV       AH,*-SP[1]            ; [CPU_] |499| 
     674 000000a4 8AA6          MOVL      XAR4,XAR6             ; [CPU_] |499| 
     675              $C$DW$71        .dwtag  DW_TAG_TI_branch
     676                      .dwattr $C$DW$71, DW_AT_low_pc(0x00)
     677                      .dwattr $C$DW$71, DW_AT_name("_LDC161x_writeI2c")
     678                      .dwattr $C$DW$71, DW_AT_TI_call
     679 000000a5 7640'         LCR       #_LDC161x_writeI2c    ; [CPU_] |499| 
         000000a6 0014 
     680                      ; call occurs [#_LDC161x_writeI2c] ; [] |499| 
TMS320C2000 Assembler PC v6.2.5 Mon Jul 10 09:53:39 2017

Tools Copyright (c) 1996-2014 Texas Instruments Incorporated
C:\Users\wmj\AppData\Local\Temp\1375610                              PAGE   14

     681 000000a7 FE82          SUBB      SP,#2                 ; [CPU_U] 
     682                      .dwcfi  cfa_offset, -2
     683              $C$DW$72        .dwtag  DW_TAG_TI_branch
     684                      .dwattr $C$DW$72, DW_AT_low_pc(0x00)
     685                      .dwattr $C$DW$72, DW_AT_TI_return
     686 000000a8 0006          LRETR     ; [CPU_] 
     687                      ; return occurs ; [] 
     688                      .dwattr $C$DW$62, DW_AT_TI_end_file("D:/Foc/my_motor/sw/drivers/drvic/ldc1612.c")
     689                      .dwattr $C$DW$62, DW_AT_TI_end_line(0x1f6)
     690                      .dwattr $C$DW$62, DW_AT_TI_end_column(0x01)
     691                      .dwendentry
     692                      .dwendtag $C$DW$62
     693              
     694 000000a9               .sect   ".text"
     695                      .clink
     696                      .global _LDC161x_getRcount
     697              
     698              $C$DW$73        .dwtag  DW_TAG_subprogram, DW_AT_name("LDC161x_getRcount")
     699                      .dwattr $C$DW$73, DW_AT_low_pc(_LDC161x_getRcount)
     700                      .dwattr $C$DW$73, DW_AT_high_pc(0x00)
     701                      .dwattr $C$DW$73, DW_AT_TI_symbol_name("_LDC161x_getRcount")
     702                      .dwattr $C$DW$73, DW_AT_external
     703                      .dwattr $C$DW$73, DW_AT_TI_begin_file("D:/Foc/my_motor/sw/drivers/drvic/ldc1612.c")
     704                      .dwattr $C$DW$73, DW_AT_TI_begin_line(0x38d)
     705                      .dwattr $C$DW$73, DW_AT_TI_begin_column(0x06)
     706                      .dwattr $C$DW$73, DW_AT_TI_max_frame_size(-2)
     707                      .dwpsn  file "D:/Foc/my_motor/sw/drivers/drvic/ldc1612.c",line 910,column 1,is_stmt,address _LDC161x_
     708              
     709                      .dwfde $C$DW$CIE, _LDC161x_getRcount
     710              $C$DW$74        .dwtag  DW_TAG_formal_parameter, DW_AT_name("handle")
     711                      .dwattr $C$DW$74, DW_AT_TI_symbol_name("_handle")
     712                      .dwattr $C$DW$74, DW_AT_type(*$C$DW$T$47)
     713                      .dwattr $C$DW$74, DW_AT_location[DW_OP_reg12]
     714              $C$DW$75        .dwtag  DW_TAG_formal_parameter, DW_AT_name("Channel")
     715                      .dwattr $C$DW$75, DW_AT_TI_symbol_name("_Channel")
     716                      .dwattr $C$DW$75, DW_AT_type(*$C$DW$T$136)
     717                      .dwattr $C$DW$75, DW_AT_location[DW_OP_reg0]
     718              $C$DW$76        .dwtag  DW_TAG_formal_parameter, DW_AT_name("drvDataGet")
     719                      .dwattr $C$DW$76, DW_AT_TI_symbol_name("_drvDataGet")
     720                      .dwattr $C$DW$76, DW_AT_type(*$C$DW$T$155)
     721                      .dwattr $C$DW$76, DW_AT_location[DW_OP_reg14]
     722              
     723              ;***************************************************************
     724              ;* FNAME: _LDC161x_getRcount            FR SIZE:   0           *
     725              ;*                                                             *
     726              ;* FUNCTION ENVIRONMENT                                        *
     727              ;*                                                             *
     728              ;* FUNCTION PROPERTIES                                         *
     729              ;*                            0 Parameter,  0 Auto,  0 SOE     *
     730              ;***************************************************************
     731              
     732              _LDC161x_getRcount:
     733              ;* AL    assigned to _drvData
     734              $C$DW$77        .dwtag  DW_TAG_variable, DW_AT_name("drvData")
     735                      .dwattr $C$DW$77, DW_AT_TI_symbol_name("_drvData")
TMS320C2000 Assembler PC v6.2.5 Mon Jul 10 09:53:39 2017

Tools Copyright (c) 1996-2014 Texas Instruments Incorporated
C:\Users\wmj\AppData\Local\Temp\1375610                              PAGE   15

     736                      .dwattr $C$DW$77, DW_AT_type(*$C$DW$T$21)
     737                      .dwattr $C$DW$77, DW_AT_location[DW_OP_reg0]
     738              ;* AR4   assigned to _obj
     739              $C$DW$78        .dwtag  DW_TAG_variable, DW_AT_name("obj")
     740                      .dwattr $C$DW$78, DW_AT_TI_symbol_name("_obj")
     741                      .dwattr $C$DW$78, DW_AT_type(*$C$DW$T$125)
     742                      .dwattr $C$DW$78, DW_AT_location[DW_OP_reg12]
     743              ;* AR5   assigned to _drvDataGet
     744              $C$DW$79        .dwtag  DW_TAG_variable, DW_AT_name("drvDataGet")
     745                      .dwattr $C$DW$79, DW_AT_TI_symbol_name("_drvDataGet")
     746                      .dwattr $C$DW$79, DW_AT_type(*$C$DW$T$167)
     747                      .dwattr $C$DW$79, DW_AT_location[DW_OP_reg14]
     748              ;* AL    assigned to _Channel
     749              $C$DW$80        .dwtag  DW_TAG_variable, DW_AT_name("Channel")
     750                      .dwattr $C$DW$80, DW_AT_TI_symbol_name("_Channel")
     751                      .dwattr $C$DW$80, DW_AT_type(*$C$DW$T$136)
     752                      .dwattr $C$DW$80, DW_AT_location[DW_OP_reg0]
     753              ;* AR4   assigned to _handle
     754              $C$DW$81        .dwtag  DW_TAG_variable, DW_AT_name("handle")
     755                      .dwattr $C$DW$81, DW_AT_TI_symbol_name("_handle")
     756                      .dwattr $C$DW$81, DW_AT_type(*$C$DW$T$109)
     757                      .dwattr $C$DW$81, DW_AT_location[DW_OP_reg12]
     758                      .dwcfi  cfa_offset, -2
     759                      .dwcfi  save_reg_to_mem, 26, 0
     760                      .dwcfi  save_reg_to_reg, 78, 26
     761                      .dwpsn  file "D:/Foc/my_motor/sw/drivers/drvic/ldc1612.c",line 914,column 3,is_stmt
     762 000000a9 5200          CMPB      AL,#0                 ; [CPU_] |914| 
     763 000000aa EC0F          BF        $C$L23,EQ             ; [CPU_] |914| 
     764                      ; branchcc occurs ; [] |914| 
     765 000000ab 5201          CMPB      AL,#1                 ; [CPU_] |914| 
     766 000000ac EC0B          BF        $C$L22,EQ             ; [CPU_] |914| 
     767                      ; branchcc occurs ; [] |914| 
     768 000000ad 5202          CMPB      AL,#2                 ; [CPU_] |914| 
     769 000000ae EC07          BF        $C$L21,EQ             ; [CPU_] |914| 
     770                      ; branchcc occurs ; [] |914| 
     771 000000af 5203          CMPB      AL,#3                 ; [CPU_] |914| 
     772 000000b0 EC03          BF        $C$L20,EQ             ; [CPU_] |914| 
     773                      ; branchcc occurs ; [] |914| 
     774                      .dwpsn  file "D:/Foc/my_motor/sw/drivers/drvic/ldc1612.c",line 912,column 20,is_stmt
     775 000000b1 9A00          MOVB      AL,#0                 ; [CPU_] |912| 
     776 000000b2 6F09          B         $C$L25,UNC            ; [CPU_] 
     777                      ; branch occurs ; [] 
     778 000000b3       $C$L20:    
     779                      .dwpsn  file "D:/Foc/my_motor/sw/drivers/drvic/ldc1612.c",line 919,column 13,is_stmt
     780 000000b3 D01B          MOVB      XAR0,#27              ; [CPU_] |919| 
     781                      .dwpsn  file "D:/Foc/my_motor/sw/drivers/drvic/ldc1612.c",line 919,column 50,is_stmt
     782 000000b4 6F06          B         $C$L24,UNC            ; [CPU_] |919| 
     783                      ; branch occurs ; [] |919| 
     784 000000b5       $C$L21:    
     785                      .dwpsn  file "D:/Foc/my_motor/sw/drivers/drvic/ldc1612.c",line 918,column 13,is_stmt
     786 000000b5 D01A          MOVB      XAR0,#26              ; [CPU_] |918| 
     787                      .dwpsn  file "D:/Foc/my_motor/sw/drivers/drvic/ldc1612.c",line 918,column 50,is_stmt
     788 000000b6 6F04          B         $C$L24,UNC            ; [CPU_] |918| 
     789                      ; branch occurs ; [] |918| 
     790 000000b7       $C$L22:    
TMS320C2000 Assembler PC v6.2.5 Mon Jul 10 09:53:39 2017

Tools Copyright (c) 1996-2014 Texas Instruments Incorporated
C:\Users\wmj\AppData\Local\Temp\1375610                              PAGE   16

     791                      .dwpsn  file "D:/Foc/my_motor/sw/drivers/drvic/ldc1612.c",line 917,column 13,is_stmt
     792 000000b7 D019          MOVB      XAR0,#25              ; [CPU_] |917| 
     793                      .dwpsn  file "D:/Foc/my_motor/sw/drivers/drvic/ldc1612.c",line 917,column 50,is_stmt
     794 000000b8 6F02          B         $C$L24,UNC            ; [CPU_] |917| 
     795                      ; branch occurs ; [] |917| 
     796 000000b9       $C$L23:    
     797                      .dwpsn  file "D:/Foc/my_motor/sw/drivers/drvic/ldc1612.c",line 916,column 13,is_stmt
     798 000000b9 D018          MOVB      XAR0,#24              ; [CPU_] |916| 
     799 000000ba       $C$L24:    
     800 000000ba 9294          MOV       AL,*+XAR4[AR0]        ; [CPU_] |916| 
     801 000000bb       $C$L25:    
     802                      .dwpsn  file "D:/Foc/my_motor/sw/drivers/drvic/ldc1612.c",line 923,column 3,is_stmt
     803 000000bb 96C5          MOV       *+XAR5[0],AL          ; [CPU_] |923| 
     804              $C$DW$82        .dwtag  DW_TAG_TI_branch
     805                      .dwattr $C$DW$82, DW_AT_low_pc(0x00)
     806                      .dwattr $C$DW$82, DW_AT_TI_return
     807 000000bc 0006          LRETR     ; [CPU_] 
     808                      ; return occurs ; [] 
     809                      .dwattr $C$DW$73, DW_AT_TI_end_file("D:/Foc/my_motor/sw/drivers/drvic/ldc1612.c")
     810                      .dwattr $C$DW$73, DW_AT_TI_end_line(0x39e)
     811                      .dwattr $C$DW$73, DW_AT_TI_end_column(0x01)
     812                      .dwendentry
     813                      .dwendtag $C$DW$73
     814              
     815 000000bd               .sect   ".text"
     816                      .clink
     817                      .global _LDC161x_writeRcount
     818              
     819              $C$DW$83        .dwtag  DW_TAG_subprogram, DW_AT_name("LDC161x_writeRcount")
     820                      .dwattr $C$DW$83, DW_AT_low_pc(_LDC161x_writeRcount)
     821                      .dwattr $C$DW$83, DW_AT_high_pc(0x00)
     822                      .dwattr $C$DW$83, DW_AT_TI_symbol_name("_LDC161x_writeRcount")
     823                      .dwattr $C$DW$83, DW_AT_external
     824                      .dwattr $C$DW$83, DW_AT_TI_begin_file("D:/Foc/my_motor/sw/drivers/drvic/ldc1612.c")
     825                      .dwattr $C$DW$83, DW_AT_TI_begin_line(0x196)
     826                      .dwattr $C$DW$83, DW_AT_TI_begin_column(0x06)
     827                      .dwattr $C$DW$83, DW_AT_TI_max_frame_size(-4)
     828                      .dwpsn  file "D:/Foc/my_motor/sw/drivers/drvic/ldc1612.c",line 407,column 1,is_stmt,address _LDC161x_
     829              
     830                      .dwfde $C$DW$CIE, _LDC161x_writeRcount
     831              $C$DW$84        .dwtag  DW_TAG_formal_parameter, DW_AT_name("handle")
     832                      .dwattr $C$DW$84, DW_AT_TI_symbol_name("_handle")
     833                      .dwattr $C$DW$84, DW_AT_type(*$C$DW$T$120)
     834                      .dwattr $C$DW$84, DW_AT_location[DW_OP_reg12]
     835              $C$DW$85        .dwtag  DW_TAG_formal_parameter, DW_AT_name("ChannelNum")
     836                      .dwattr $C$DW$85, DW_AT_TI_symbol_name("_ChannelNum")
     837                      .dwattr $C$DW$85, DW_AT_type(*$C$DW$T$96)
     838                      .dwattr $C$DW$85, DW_AT_location[DW_OP_reg0]
     839              
     840              ;***************************************************************
     841              ;* FNAME: _LDC161x_writeRcount          FR SIZE:   2           *
     842              ;*                                                             *
     843              ;* FUNCTION ENVIRONMENT                                        *
     844              ;*                                                             *
     845              ;* FUNCTION PROPERTIES                                         *
TMS320C2000 Assembler PC v6.2.5 Mon Jul 10 09:53:39 2017

Tools Copyright (c) 1996-2014 Texas Instruments Incorporated
C:\Users\wmj\AppData\Local\Temp\1375610                              PAGE   17

     846              ;*                            0 Parameter,  1 Auto,  0 SOE     *
     847              ;***************************************************************
     848              
     849              _LDC161x_writeRcount:
     850              ;* AL    assigned to _ChNum
     851              $C$DW$86        .dwtag  DW_TAG_variable, DW_AT_name("ChNum")
     852                      .dwattr $C$DW$86, DW_AT_TI_symbol_name("_ChNum")
     853                      .dwattr $C$DW$86, DW_AT_type(*$C$DW$T$21)
     854                      .dwattr $C$DW$86, DW_AT_location[DW_OP_reg0]
     855              ;* AH    assigned to _drvRegName
     856              $C$DW$87        .dwtag  DW_TAG_variable, DW_AT_name("drvRegName")
     857                      .dwattr $C$DW$87, DW_AT_TI_symbol_name("_drvRegName")
     858                      .dwattr $C$DW$87, DW_AT_type(*$C$DW$T$93)
     859                      .dwattr $C$DW$87, DW_AT_location[DW_OP_reg1]
     860              $C$DW$88        .dwtag  DW_TAG_variable, DW_AT_name("drvDataGet")
     861                      .dwattr $C$DW$88, DW_AT_TI_symbol_name("_drvDataGet")
     862                      .dwattr $C$DW$88, DW_AT_type(*$C$DW$T$21)
     863                      .dwattr $C$DW$88, DW_AT_location[DW_OP_breg20 -1]
     864              ;* AL    assigned to _ChannelNum
     865              $C$DW$89        .dwtag  DW_TAG_variable, DW_AT_name("ChannelNum")
     866                      .dwattr $C$DW$89, DW_AT_TI_symbol_name("_ChannelNum")
     867                      .dwattr $C$DW$89, DW_AT_type(*$C$DW$T$99)
     868                      .dwattr $C$DW$89, DW_AT_location[DW_OP_reg0]
     869              ;* AR6   assigned to _handle
     870              $C$DW$90        .dwtag  DW_TAG_variable, DW_AT_name("handle")
     871                      .dwattr $C$DW$90, DW_AT_TI_symbol_name("_handle")
     872                      .dwattr $C$DW$90, DW_AT_type(*$C$DW$T$121)
     873                      .dwattr $C$DW$90, DW_AT_location[DW_OP_reg16]
     874                      .dwcfi  cfa_offset, -2
     875                      .dwcfi  save_reg_to_mem, 26, 0
     876                      .dwcfi  save_reg_to_reg, 78, 26
     877 000000bd FE02          ADDB      SP,#2                 ; [CPU_U] 
     878                      .dwcfi  cfa_offset, -4
     879                      .dwpsn  file "D:/Foc/my_motor/sw/drivers/drvic/ldc1612.c",line 413,column 3,is_stmt
     880 000000be 5200          CMPB      AL,#0                 ; [CPU_] |413| 
     881                      .dwpsn  file "D:/Foc/my_motor/sw/drivers/drvic/ldc1612.c",line 407,column 1,is_stmt
     882 000000bf C4A4          MOVL      XAR6,XAR4             ; [CPU_] |407| 
     883                      .dwpsn  file "D:/Foc/my_motor/sw/drivers/drvic/ldc1612.c",line 413,column 3,is_stmt
     884 000000c0 EC10          BF        $C$L28,EQ             ; [CPU_] |413| 
     885                      ; branchcc occurs ; [] |413| 
     886 000000c1 5201          CMPB      AL,#1                 ; [CPU_] |413| 
     887 000000c2 EC0B          BF        $C$L27,EQ             ; [CPU_] |413| 
     888                      ; branchcc occurs ; [] |413| 
     889 000000c3 5202          CMPB      AL,#2                 ; [CPU_] |413| 
     890 000000c4 EC06          BF        $C$L26,EQ             ; [CPU_] |413| 
     891                      ; branchcc occurs ; [] |413| 
     892 000000c5 5203          CMPB      AL,#3                 ; [CPU_] |413| 
     893 000000c6 ED0C          BF        $C$L29,NEQ            ; [CPU_] |413| 
     894                      ; branchcc occurs ; [] |413| 
     895                      .dwpsn  file "D:/Foc/my_motor/sw/drivers/drvic/ldc1612.c",line 424,column 29,is_stmt
     896 000000c7 9B0B          MOVB      AH,#11                ; [CPU_] |424| 
     897                      .dwpsn  file "D:/Foc/my_motor/sw/drivers/drvic/ldc1612.c",line 425,column 29,is_stmt
     898 000000c8 9A03          MOVB      AL,#3                 ; [CPU_] |425| 
     899                      .dwpsn  file "D:/Foc/my_motor/sw/drivers/drvic/ldc1612.c",line 426,column 7,is_stmt
     900 000000c9 6F09          B         $C$L29,UNC            ; [CPU_] |426| 
TMS320C2000 Assembler PC v6.2.5 Mon Jul 10 09:53:39 2017

Tools Copyright (c) 1996-2014 Texas Instruments Incorporated
C:\Users\wmj\AppData\Local\Temp\1375610                              PAGE   18

     901                      ; branch occurs ; [] |426| 
     902 000000ca       $C$L26:    
     903                      .dwpsn  file "D:/Foc/my_motor/sw/drivers/drvic/ldc1612.c",line 421,column 29,is_stmt
     904 000000ca 9B0A          MOVB      AH,#10                ; [CPU_] |421| 
     905                      .dwpsn  file "D:/Foc/my_motor/sw/drivers/drvic/ldc1612.c",line 422,column 29,is_stmt
     906 000000cb 9A02          MOVB      AL,#2                 ; [CPU_] |422| 
     907                      .dwpsn  file "D:/Foc/my_motor/sw/drivers/drvic/ldc1612.c",line 423,column 7,is_stmt
     908 000000cc 6F06          B         $C$L29,UNC            ; [CPU_] |423| 
     909                      ; branch occurs ; [] |423| 
     910 000000cd       $C$L27:    
     911                      .dwpsn  file "D:/Foc/my_motor/sw/drivers/drvic/ldc1612.c",line 418,column 29,is_stmt
     912 000000cd 9B09          MOVB      AH,#9                 ; [CPU_] |418| 
     913                      .dwpsn  file "D:/Foc/my_motor/sw/drivers/drvic/ldc1612.c",line 419,column 29,is_stmt
     914 000000ce 9A01          MOVB      AL,#1                 ; [CPU_] |419| 
     915                      .dwpsn  file "D:/Foc/my_motor/sw/drivers/drvic/ldc1612.c",line 420,column 7,is_stmt
     916 000000cf 6F03          B         $C$L29,UNC            ; [CPU_] |420| 
     917                      ; branch occurs ; [] |420| 
     918 000000d0       $C$L28:    
     919                      .dwpsn  file "D:/Foc/my_motor/sw/drivers/drvic/ldc1612.c",line 415,column 29,is_stmt
     920 000000d0 9B08          MOVB      AH,#8                 ; [CPU_] |415| 
     921                      .dwpsn  file "D:/Foc/my_motor/sw/drivers/drvic/ldc1612.c",line 416,column 29,is_stmt
     922 000000d1 9A00          MOVB      AL,#0                 ; [CPU_] |416| 
     923 000000d2       $C$L29:    
     924                      .dwpsn  file "D:/Foc/my_motor/sw/drivers/drvic/ldc1612.c",line 430,column 3,is_stmt
     925 000000d2 5DAD          MOVZ      AR5,SP                ; [CPU_U] |430| 
     926 000000d3 8AE6          MOVL      XAR4,*+XAR6[4]        ; [CPU_] |430| 
     927 000000d4 DD81          SUBB      XAR5,#1               ; [CPU_U] |430| 
     928              $C$DW$91        .dwtag  DW_TAG_TI_branch
     929                      .dwattr $C$DW$91, DW_AT_low_pc(0x00)
     930                      .dwattr $C$DW$91, DW_AT_name("_LDC161x_getRcount")
     931                      .dwattr $C$DW$91, DW_AT_TI_call
     932 000000d5 7640'         LCR       #_LDC161x_getRcount   ; [CPU_] |430| 
         000000d6 00A9 
     933                      ; call occurs [#_LDC161x_getRcount] ; [] |430| 
     934                      .dwpsn  file "D:/Foc/my_motor/sw/drivers/drvic/ldc1612.c",line 431,column 3,is_stmt
     935 000000d7 92A8          MOV       AL,AH                 ; [CPU_] |431| 
     936 000000d8 9341          MOV       AH,*-SP[1]            ; [CPU_] |431| 
     937 000000d9 8AA6          MOVL      XAR4,XAR6             ; [CPU_] |431| 
     938              $C$DW$92        .dwtag  DW_TAG_TI_branch
     939                      .dwattr $C$DW$92, DW_AT_low_pc(0x00)
     940                      .dwattr $C$DW$92, DW_AT_name("_LDC161x_writeI2c")
     941                      .dwattr $C$DW$92, DW_AT_TI_call
     942 000000da 7640'         LCR       #_LDC161x_writeI2c    ; [CPU_] |431| 
         000000db 0014 
     943                      ; call occurs [#_LDC161x_writeI2c] ; [] |431| 
     944 000000dc FE82          SUBB      SP,#2                 ; [CPU_U] 
     945                      .dwcfi  cfa_offset, -2
     946              $C$DW$93        .dwtag  DW_TAG_TI_branch
     947                      .dwattr $C$DW$93, DW_AT_low_pc(0x00)
     948                      .dwattr $C$DW$93, DW_AT_TI_return
     949 000000dd 0006          LRETR     ; [CPU_] 
     950                      ; return occurs ; [] 
     951                      .dwattr $C$DW$83, DW_AT_TI_end_file("D:/Foc/my_motor/sw/drivers/drvic/ldc1612.c")
     952                      .dwattr $C$DW$83, DW_AT_TI_end_line(0x1b2)
     953                      .dwattr $C$DW$83, DW_AT_TI_end_column(0x01)
TMS320C2000 Assembler PC v6.2.5 Mon Jul 10 09:53:39 2017

Tools Copyright (c) 1996-2014 Texas Instruments Incorporated
C:\Users\wmj\AppData\Local\Temp\1375610                              PAGE   19

     954                      .dwendentry
     955                      .dwendtag $C$DW$83
     956              
     957 000000de               .sect   ".text"
     958                      .clink
     959                      .global _LDC161x_getOffset
     960              
     961              $C$DW$94        .dwtag  DW_TAG_subprogram, DW_AT_name("LDC161x_getOffset")
     962                      .dwattr $C$DW$94, DW_AT_low_pc(_LDC161x_getOffset)
     963                      .dwattr $C$DW$94, DW_AT_high_pc(0x00)
     964                      .dwattr $C$DW$94, DW_AT_TI_symbol_name("_LDC161x_getOffset")
     965                      .dwattr $C$DW$94, DW_AT_external
     966                      .dwattr $C$DW$94, DW_AT_TI_begin_file("D:/Foc/my_motor/sw/drivers/drvic/ldc1612.c")
     967                      .dwattr $C$DW$94, DW_AT_TI_begin_line(0x3a0)
     968                      .dwattr $C$DW$94, DW_AT_TI_begin_column(0x06)
     969                      .dwattr $C$DW$94, DW_AT_TI_max_frame_size(-2)
     970                      .dwpsn  file "D:/Foc/my_motor/sw/drivers/drvic/ldc1612.c",line 929,column 1,is_stmt,address _LDC161x_
     971              
     972                      .dwfde $C$DW$CIE, _LDC161x_getOffset
     973              $C$DW$95        .dwtag  DW_TAG_formal_parameter, DW_AT_name("handle")
     974                      .dwattr $C$DW$95, DW_AT_TI_symbol_name("_handle")
     975                      .dwattr $C$DW$95, DW_AT_type(*$C$DW$T$47)
     976                      .dwattr $C$DW$95, DW_AT_location[DW_OP_reg12]
     977              $C$DW$96        .dwtag  DW_TAG_formal_parameter, DW_AT_name("Channel")
     978                      .dwattr $C$DW$96, DW_AT_TI_symbol_name("_Channel")
     979                      .dwattr $C$DW$96, DW_AT_type(*$C$DW$T$136)
     980                      .dwattr $C$DW$96, DW_AT_location[DW_OP_reg0]
     981              $C$DW$97        .dwtag  DW_TAG_formal_parameter, DW_AT_name("drvDataGet")
     982                      .dwattr $C$DW$97, DW_AT_TI_symbol_name("_drvDataGet")
     983                      .dwattr $C$DW$97, DW_AT_type(*$C$DW$T$155)
     984                      .dwattr $C$DW$97, DW_AT_location[DW_OP_reg14]
     985              
     986              ;***************************************************************
     987              ;* FNAME: _LDC161x_getOffset            FR SIZE:   0           *
     988              ;*                                                             *
     989              ;* FUNCTION ENVIRONMENT                                        *
     990              ;*                                                             *
     991              ;* FUNCTION PROPERTIES                                         *
     992              ;*                            0 Parameter,  0 Auto,  0 SOE     *
     993              ;***************************************************************
     994              
     995              _LDC161x_getOffset:
     996              ;* AL    assigned to _drvData
     997              $C$DW$98        .dwtag  DW_TAG_variable, DW_AT_name("drvData")
     998                      .dwattr $C$DW$98, DW_AT_TI_symbol_name("_drvData")
     999                      .dwattr $C$DW$98, DW_AT_type(*$C$DW$T$21)
    1000                      .dwattr $C$DW$98, DW_AT_location[DW_OP_reg0]
    1001              ;* AR4   assigned to _obj
    1002              $C$DW$99        .dwtag  DW_TAG_variable, DW_AT_name("obj")
    1003                      .dwattr $C$DW$99, DW_AT_TI_symbol_name("_obj")
    1004                      .dwattr $C$DW$99, DW_AT_type(*$C$DW$T$125)
    1005                      .dwattr $C$DW$99, DW_AT_location[DW_OP_reg12]
    1006              ;* AR5   assigned to _drvDataGet
    1007              $C$DW$100       .dwtag  DW_TAG_variable, DW_AT_name("drvDataGet")
    1008                      .dwattr $C$DW$100, DW_AT_TI_symbol_name("_drvDataGet")
TMS320C2000 Assembler PC v6.2.5 Mon Jul 10 09:53:39 2017

Tools Copyright (c) 1996-2014 Texas Instruments Incorporated
C:\Users\wmj\AppData\Local\Temp\1375610                              PAGE   20

    1009                      .dwattr $C$DW$100, DW_AT_type(*$C$DW$T$167)
    1010                      .dwattr $C$DW$100, DW_AT_location[DW_OP_reg14]
    1011              ;* AL    assigned to _Channel
    1012              $C$DW$101       .dwtag  DW_TAG_variable, DW_AT_name("Channel")
    1013                      .dwattr $C$DW$101, DW_AT_TI_symbol_name("_Channel")
    1014                      .dwattr $C$DW$101, DW_AT_type(*$C$DW$T$136)
    1015                      .dwattr $C$DW$101, DW_AT_location[DW_OP_reg0]
    1016              ;* AR4   assigned to _handle
    1017              $C$DW$102       .dwtag  DW_TAG_variable, DW_AT_name("handle")
    1018                      .dwattr $C$DW$102, DW_AT_TI_symbol_name("_handle")
    1019                      .dwattr $C$DW$102, DW_AT_type(*$C$DW$T$109)
    1020                      .dwattr $C$DW$102, DW_AT_location[DW_OP_reg12]
    1021                      .dwcfi  cfa_offset, -2
    1022                      .dwcfi  save_reg_to_mem, 26, 0
    1023                      .dwcfi  save_reg_to_reg, 78, 26
    1024                      .dwpsn  file "D:/Foc/my_motor/sw/drivers/drvic/ldc1612.c",line 933,column 3,is_stmt
    1025 000000de 5200          CMPB      AL,#0                 ; [CPU_] |933| 
    1026 000000df EC0F          BF        $C$L33,EQ             ; [CPU_] |933| 
    1027                      ; branchcc occurs ; [] |933| 
    1028 000000e0 5201          CMPB      AL,#1                 ; [CPU_] |933| 
    1029 000000e1 EC0B          BF        $C$L32,EQ             ; [CPU_] |933| 
    1030                      ; branchcc occurs ; [] |933| 
    1031 000000e2 5202          CMPB      AL,#2                 ; [CPU_] |933| 
    1032 000000e3 EC07          BF        $C$L31,EQ             ; [CPU_] |933| 
    1033                      ; branchcc occurs ; [] |933| 
    1034 000000e4 5203          CMPB      AL,#3                 ; [CPU_] |933| 
    1035 000000e5 EC03          BF        $C$L30,EQ             ; [CPU_] |933| 
    1036                      ; branchcc occurs ; [] |933| 
    1037                      .dwpsn  file "D:/Foc/my_motor/sw/drivers/drvic/ldc1612.c",line 931,column 20,is_stmt
    1038 000000e6 9A00          MOVB      AL,#0                 ; [CPU_] |931| 
    1039 000000e7 6F09          B         $C$L35,UNC            ; [CPU_] 
    1040                      ; branch occurs ; [] 
    1041 000000e8       $C$L30:    
    1042                      .dwpsn  file "D:/Foc/my_motor/sw/drivers/drvic/ldc1612.c",line 938,column 13,is_stmt
    1043 000000e8 D01F          MOVB      XAR0,#31              ; [CPU_] |938| 
    1044                      .dwpsn  file "D:/Foc/my_motor/sw/drivers/drvic/ldc1612.c",line 938,column 50,is_stmt
    1045 000000e9 6F06          B         $C$L34,UNC            ; [CPU_] |938| 
    1046                      ; branch occurs ; [] |938| 
    1047 000000ea       $C$L31:    
    1048                      .dwpsn  file "D:/Foc/my_motor/sw/drivers/drvic/ldc1612.c",line 937,column 13,is_stmt
    1049 000000ea D01E          MOVB      XAR0,#30              ; [CPU_] |937| 
    1050                      .dwpsn  file "D:/Foc/my_motor/sw/drivers/drvic/ldc1612.c",line 937,column 50,is_stmt
    1051 000000eb 6F04          B         $C$L34,UNC            ; [CPU_] |937| 
    1052                      ; branch occurs ; [] |937| 
    1053 000000ec       $C$L32:    
    1054                      .dwpsn  file "D:/Foc/my_motor/sw/drivers/drvic/ldc1612.c",line 936,column 13,is_stmt
    1055 000000ec D01D          MOVB      XAR0,#29              ; [CPU_] |936| 
    1056                      .dwpsn  file "D:/Foc/my_motor/sw/drivers/drvic/ldc1612.c",line 936,column 50,is_stmt
    1057 000000ed 6F02          B         $C$L34,UNC            ; [CPU_] |936| 
    1058                      ; branch occurs ; [] |936| 
    1059 000000ee       $C$L33:    
    1060                      .dwpsn  file "D:/Foc/my_motor/sw/drivers/drvic/ldc1612.c",line 935,column 13,is_stmt
    1061 000000ee D01C          MOVB      XAR0,#28              ; [CPU_] |935| 
    1062 000000ef       $C$L34:    
    1063 000000ef 9294          MOV       AL,*+XAR4[AR0]        ; [CPU_] |935| 
TMS320C2000 Assembler PC v6.2.5 Mon Jul 10 09:53:39 2017

Tools Copyright (c) 1996-2014 Texas Instruments Incorporated
C:\Users\wmj\AppData\Local\Temp\1375610                              PAGE   21

    1064 000000f0       $C$L35:    
    1065                      .dwpsn  file "D:/Foc/my_motor/sw/drivers/drvic/ldc1612.c",line 942,column 3,is_stmt
    1066 000000f0 96C5          MOV       *+XAR5[0],AL          ; [CPU_] |942| 
    1067              $C$DW$103       .dwtag  DW_TAG_TI_branch
    1068                      .dwattr $C$DW$103, DW_AT_low_pc(0x00)
    1069                      .dwattr $C$DW$103, DW_AT_TI_return
    1070 000000f1 0006          LRETR     ; [CPU_] 
    1071                      ; return occurs ; [] 
    1072                      .dwattr $C$DW$94, DW_AT_TI_end_file("D:/Foc/my_motor/sw/drivers/drvic/ldc1612.c")
    1073                      .dwattr $C$DW$94, DW_AT_TI_end_line(0x3b1)
    1074                      .dwattr $C$DW$94, DW_AT_TI_end_column(0x01)
    1075                      .dwendentry
    1076                      .dwendtag $C$DW$94
    1077              
    1078 000000f2               .sect   ".text"
    1079                      .clink
    1080                      .global _LDC161x_writeOffset
    1081              
    1082              $C$DW$104       .dwtag  DW_TAG_subprogram, DW_AT_name("LDC161x_writeOffset")
    1083                      .dwattr $C$DW$104, DW_AT_low_pc(_LDC161x_writeOffset)
    1084                      .dwattr $C$DW$104, DW_AT_high_pc(0x00)
    1085                      .dwattr $C$DW$104, DW_AT_TI_symbol_name("_LDC161x_writeOffset")
    1086                      .dwattr $C$DW$104, DW_AT_external
    1087                      .dwattr $C$DW$104, DW_AT_TI_begin_file("D:/Foc/my_motor/sw/drivers/drvic/ldc1612.c")
    1088                      .dwattr $C$DW$104, DW_AT_TI_begin_line(0x1b8)
    1089                      .dwattr $C$DW$104, DW_AT_TI_begin_column(0x06)
    1090                      .dwattr $C$DW$104, DW_AT_TI_max_frame_size(-4)
    1091                      .dwpsn  file "D:/Foc/my_motor/sw/drivers/drvic/ldc1612.c",line 441,column 1,is_stmt,address _LDC161x_
    1092              
    1093                      .dwfde $C$DW$CIE, _LDC161x_writeOffset
    1094              $C$DW$105       .dwtag  DW_TAG_formal_parameter, DW_AT_name("handle")
    1095                      .dwattr $C$DW$105, DW_AT_TI_symbol_name("_handle")
    1096                      .dwattr $C$DW$105, DW_AT_type(*$C$DW$T$120)
    1097                      .dwattr $C$DW$105, DW_AT_location[DW_OP_reg12]
    1098              $C$DW$106       .dwtag  DW_TAG_formal_parameter, DW_AT_name("ChannelNum")
    1099                      .dwattr $C$DW$106, DW_AT_TI_symbol_name("_ChannelNum")
    1100                      .dwattr $C$DW$106, DW_AT_type(*$C$DW$T$96)
    1101                      .dwattr $C$DW$106, DW_AT_location[DW_OP_reg0]
    1102              
    1103              ;***************************************************************
    1104              ;* FNAME: _LDC161x_writeOffset          FR SIZE:   2           *
    1105              ;*                                                             *
    1106              ;* FUNCTION ENVIRONMENT                                        *
    1107              ;*                                                             *
    1108              ;* FUNCTION PROPERTIES                                         *
    1109              ;*                            0 Parameter,  1 Auto,  0 SOE     *
    1110              ;***************************************************************
    1111              
    1112              _LDC161x_writeOffset:
    1113              ;* AL    assigned to _ChNum
    1114              $C$DW$107       .dwtag  DW_TAG_variable, DW_AT_name("ChNum")
    1115                      .dwattr $C$DW$107, DW_AT_TI_symbol_name("_ChNum")
    1116                      .dwattr $C$DW$107, DW_AT_type(*$C$DW$T$21)
    1117                      .dwattr $C$DW$107, DW_AT_location[DW_OP_reg0]
    1118              ;* AH    assigned to _drvRegName
TMS320C2000 Assembler PC v6.2.5 Mon Jul 10 09:53:39 2017

Tools Copyright (c) 1996-2014 Texas Instruments Incorporated
C:\Users\wmj\AppData\Local\Temp\1375610                              PAGE   22

    1119              $C$DW$108       .dwtag  DW_TAG_variable, DW_AT_name("drvRegName")
    1120                      .dwattr $C$DW$108, DW_AT_TI_symbol_name("_drvRegName")
    1121                      .dwattr $C$DW$108, DW_AT_type(*$C$DW$T$93)
    1122                      .dwattr $C$DW$108, DW_AT_location[DW_OP_reg1]
    1123              $C$DW$109       .dwtag  DW_TAG_variable, DW_AT_name("drvDataGet")
    1124                      .dwattr $C$DW$109, DW_AT_TI_symbol_name("_drvDataGet")
    1125                      .dwattr $C$DW$109, DW_AT_type(*$C$DW$T$21)
    1126                      .dwattr $C$DW$109, DW_AT_location[DW_OP_breg20 -1]
    1127              ;* AL    assigned to _ChannelNum
    1128              $C$DW$110       .dwtag  DW_TAG_variable, DW_AT_name("ChannelNum")
    1129                      .dwattr $C$DW$110, DW_AT_TI_symbol_name("_ChannelNum")
    1130                      .dwattr $C$DW$110, DW_AT_type(*$C$DW$T$100)
    1131                      .dwattr $C$DW$110, DW_AT_location[DW_OP_reg0]
    1132              ;* AR6   assigned to _handle
    1133              $C$DW$111       .dwtag  DW_TAG_variable, DW_AT_name("handle")
    1134                      .dwattr $C$DW$111, DW_AT_TI_symbol_name("_handle")
    1135                      .dwattr $C$DW$111, DW_AT_type(*$C$DW$T$121)
    1136                      .dwattr $C$DW$111, DW_AT_location[DW_OP_reg16]
    1137                      .dwcfi  cfa_offset, -2
    1138                      .dwcfi  save_reg_to_mem, 26, 0
    1139                      .dwcfi  save_reg_to_reg, 78, 26
    1140 000000f2 FE02          ADDB      SP,#2                 ; [CPU_U] 
    1141                      .dwcfi  cfa_offset, -4
    1142                      .dwpsn  file "D:/Foc/my_motor/sw/drivers/drvic/ldc1612.c",line 447,column 3,is_stmt
    1143 000000f3 5200          CMPB      AL,#0                 ; [CPU_] |447| 
    1144                      .dwpsn  file "D:/Foc/my_motor/sw/drivers/drvic/ldc1612.c",line 441,column 1,is_stmt
    1145 000000f4 C4A4          MOVL      XAR6,XAR4             ; [CPU_] |441| 
    1146                      .dwpsn  file "D:/Foc/my_motor/sw/drivers/drvic/ldc1612.c",line 447,column 3,is_stmt
    1147 000000f5 EC10          BF        $C$L38,EQ             ; [CPU_] |447| 
    1148                      ; branchcc occurs ; [] |447| 
    1149 000000f6 5201          CMPB      AL,#1                 ; [CPU_] |447| 
    1150 000000f7 EC0B          BF        $C$L37,EQ             ; [CPU_] |447| 
    1151                      ; branchcc occurs ; [] |447| 
    1152 000000f8 5202          CMPB      AL,#2                 ; [CPU_] |447| 
    1153 000000f9 EC06          BF        $C$L36,EQ             ; [CPU_] |447| 
    1154                      ; branchcc occurs ; [] |447| 
    1155 000000fa 5203          CMPB      AL,#3                 ; [CPU_] |447| 
    1156 000000fb ED0C          BF        $C$L39,NEQ            ; [CPU_] |447| 
    1157                      ; branchcc occurs ; [] |447| 
    1158                      .dwpsn  file "D:/Foc/my_motor/sw/drivers/drvic/ldc1612.c",line 458,column 29,is_stmt
    1159 000000fc 9B0F          MOVB      AH,#15                ; [CPU_] |458| 
    1160                      .dwpsn  file "D:/Foc/my_motor/sw/drivers/drvic/ldc1612.c",line 459,column 29,is_stmt
    1161 000000fd 9A03          MOVB      AL,#3                 ; [CPU_] |459| 
    1162                      .dwpsn  file "D:/Foc/my_motor/sw/drivers/drvic/ldc1612.c",line 460,column 7,is_stmt
    1163 000000fe 6F09          B         $C$L39,UNC            ; [CPU_] |460| 
    1164                      ; branch occurs ; [] |460| 
    1165 000000ff       $C$L36:    
    1166                      .dwpsn  file "D:/Foc/my_motor/sw/drivers/drvic/ldc1612.c",line 455,column 29,is_stmt
    1167 000000ff 9B0E          MOVB      AH,#14                ; [CPU_] |455| 
    1168                      .dwpsn  file "D:/Foc/my_motor/sw/drivers/drvic/ldc1612.c",line 456,column 29,is_stmt
    1169 00000100 9A02          MOVB      AL,#2                 ; [CPU_] |456| 
    1170                      .dwpsn  file "D:/Foc/my_motor/sw/drivers/drvic/ldc1612.c",line 457,column 7,is_stmt
    1171 00000101 6F06          B         $C$L39,UNC            ; [CPU_] |457| 
    1172                      ; branch occurs ; [] |457| 
    1173 00000102       $C$L37:    
TMS320C2000 Assembler PC v6.2.5 Mon Jul 10 09:53:39 2017

Tools Copyright (c) 1996-2014 Texas Instruments Incorporated
C:\Users\wmj\AppData\Local\Temp\1375610                              PAGE   23

    1174                      .dwpsn  file "D:/Foc/my_motor/sw/drivers/drvic/ldc1612.c",line 452,column 29,is_stmt
    1175 00000102 9B0D          MOVB      AH,#13                ; [CPU_] |452| 
    1176                      .dwpsn  file "D:/Foc/my_motor/sw/drivers/drvic/ldc1612.c",line 453,column 29,is_stmt
    1177 00000103 9A01          MOVB      AL,#1                 ; [CPU_] |453| 
    1178                      .dwpsn  file "D:/Foc/my_motor/sw/drivers/drvic/ldc1612.c",line 454,column 7,is_stmt
    1179 00000104 6F03          B         $C$L39,UNC            ; [CPU_] |454| 
    1180                      ; branch occurs ; [] |454| 
    1181 00000105       $C$L38:    
    1182                      .dwpsn  file "D:/Foc/my_motor/sw/drivers/drvic/ldc1612.c",line 449,column 29,is_stmt
    1183 00000105 9B0C          MOVB      AH,#12                ; [CPU_] |449| 
    1184                      .dwpsn  file "D:/Foc/my_motor/sw/drivers/drvic/ldc1612.c",line 450,column 29,is_stmt
    1185 00000106 9A00          MOVB      AL,#0                 ; [CPU_] |450| 
    1186 00000107       $C$L39:    
    1187                      .dwpsn  file "D:/Foc/my_motor/sw/drivers/drvic/ldc1612.c",line 464,column 3,is_stmt
    1188 00000107 5DAD          MOVZ      AR5,SP                ; [CPU_U] |464| 
    1189 00000108 8AE6          MOVL      XAR4,*+XAR6[4]        ; [CPU_] |464| 
    1190 00000109 DD81          SUBB      XAR5,#1               ; [CPU_U] |464| 
    1191              $C$DW$112       .dwtag  DW_TAG_TI_branch
    1192                      .dwattr $C$DW$112, DW_AT_low_pc(0x00)
    1193                      .dwattr $C$DW$112, DW_AT_name("_LDC161x_getOffset")
    1194                      .dwattr $C$DW$112, DW_AT_TI_call
    1195 0000010a 7640'         LCR       #_LDC161x_getOffset   ; [CPU_] |464| 
         0000010b 00DE 
    1196                      ; call occurs [#_LDC161x_getOffset] ; [] |464| 
    1197                      .dwpsn  file "D:/Foc/my_motor/sw/drivers/drvic/ldc1612.c",line 465,column 3,is_stmt
    1198 0000010c 92A8          MOV       AL,AH                 ; [CPU_] |465| 
    1199 0000010d 9341          MOV       AH,*-SP[1]            ; [CPU_] |465| 
    1200 0000010e 8AA6          MOVL      XAR4,XAR6             ; [CPU_] |465| 
    1201              $C$DW$113       .dwtag  DW_TAG_TI_branch
    1202                      .dwattr $C$DW$113, DW_AT_low_pc(0x00)
    1203                      .dwattr $C$DW$113, DW_AT_name("_LDC161x_writeI2c")
    1204                      .dwattr $C$DW$113, DW_AT_TI_call
    1205 0000010f 7640'         LCR       #_LDC161x_writeI2c    ; [CPU_] |465| 
         00000110 0014 
    1206                      ; call occurs [#_LDC161x_writeI2c] ; [] |465| 
    1207 00000111 FE82          SUBB      SP,#2                 ; [CPU_U] 
    1208                      .dwcfi  cfa_offset, -2
    1209              $C$DW$114       .dwtag  DW_TAG_TI_branch
    1210                      .dwattr $C$DW$114, DW_AT_low_pc(0x00)
    1211                      .dwattr $C$DW$114, DW_AT_TI_return
    1212 00000112 0006          LRETR     ; [CPU_] 
    1213                      ; return occurs ; [] 
    1214                      .dwattr $C$DW$104, DW_AT_TI_end_file("D:/Foc/my_motor/sw/drivers/drvic/ldc1612.c")
    1215                      .dwattr $C$DW$104, DW_AT_TI_end_line(0x1d4)
    1216                      .dwattr $C$DW$104, DW_AT_TI_end_column(0x01)
    1217                      .dwendentry
    1218                      .dwendtag $C$DW$104
    1219              
    1220 00000113               .sect   ".text"
    1221                      .clink
    1222                      .global _LDC161x_getConfig
    1223              
    1224              $C$DW$115       .dwtag  DW_TAG_subprogram, DW_AT_name("LDC161x_getConfig")
    1225                      .dwattr $C$DW$115, DW_AT_low_pc(_LDC161x_getConfig)
    1226                      .dwattr $C$DW$115, DW_AT_high_pc(0x00)
TMS320C2000 Assembler PC v6.2.5 Mon Jul 10 09:53:39 2017

Tools Copyright (c) 1996-2014 Texas Instruments Incorporated
C:\Users\wmj\AppData\Local\Temp\1375610                              PAGE   24

    1227                      .dwattr $C$DW$115, DW_AT_TI_symbol_name("_LDC161x_getConfig")
    1228                      .dwattr $C$DW$115, DW_AT_external
    1229                      .dwattr $C$DW$115, DW_AT_TI_begin_file("D:/Foc/my_motor/sw/drivers/drvic/ldc1612.c")
    1230                      .dwattr $C$DW$115, DW_AT_TI_begin_line(0x348)
    1231                      .dwattr $C$DW$115, DW_AT_TI_begin_column(0x06)
    1232                      .dwattr $C$DW$115, DW_AT_TI_max_frame_size(-2)
    1233                      .dwpsn  file "D:/Foc/my_motor/sw/drivers/drvic/ldc1612.c",line 841,column 1,is_stmt,address _LDC161x_
    1234              
    1235                      .dwfde $C$DW$CIE, _LDC161x_getConfig
    1236              $C$DW$116       .dwtag  DW_TAG_formal_parameter, DW_AT_name("handle")
    1237                      .dwattr $C$DW$116, DW_AT_TI_symbol_name("_handle")
    1238                      .dwattr $C$DW$116, DW_AT_type(*$C$DW$T$47)
    1239                      .dwattr $C$DW$116, DW_AT_location[DW_OP_reg12]
    1240              $C$DW$117       .dwtag  DW_TAG_formal_parameter, DW_AT_name("drvDataGet")
    1241                      .dwattr $C$DW$117, DW_AT_TI_symbol_name("_drvDataGet")
    1242                      .dwattr $C$DW$117, DW_AT_type(*$C$DW$T$155)
    1243                      .dwattr $C$DW$117, DW_AT_location[DW_OP_reg14]
    1244              
    1245              ;***************************************************************
    1246              ;* FNAME: _LDC161x_getConfig            FR SIZE:   0           *
    1247              ;*                                                             *
    1248              ;* FUNCTION ENVIRONMENT                                        *
    1249              ;*                                                             *
    1250              ;* FUNCTION PROPERTIES                                         *
    1251              ;*                            0 Parameter,  0 Auto,  0 SOE     *
    1252              ;***************************************************************
    1253              
    1254              _LDC161x_getConfig:
    1255              ;* AL    assigned to _drvData
    1256              $C$DW$118       .dwtag  DW_TAG_variable, DW_AT_name("drvData")
    1257                      .dwattr $C$DW$118, DW_AT_TI_symbol_name("_drvData")
    1258                      .dwattr $C$DW$118, DW_AT_type(*$C$DW$T$21)
    1259                      .dwattr $C$DW$118, DW_AT_location[DW_OP_reg0]
    1260              ;* AR4   assigned to _obj
    1261              $C$DW$119       .dwtag  DW_TAG_variable, DW_AT_name("obj")
    1262                      .dwattr $C$DW$119, DW_AT_TI_symbol_name("_obj")
    1263                      .dwattr $C$DW$119, DW_AT_type(*$C$DW$T$125)
    1264                      .dwattr $C$DW$119, DW_AT_location[DW_OP_reg12]
    1265              ;* AR5   assigned to _drvDataGet
    1266              $C$DW$120       .dwtag  DW_TAG_variable, DW_AT_name("drvDataGet")
    1267                      .dwattr $C$DW$120, DW_AT_TI_symbol_name("_drvDataGet")
    1268                      .dwattr $C$DW$120, DW_AT_type(*$C$DW$T$167)
    1269                      .dwattr $C$DW$120, DW_AT_location[DW_OP_reg14]
    1270              ;* AR4   assigned to _handle
    1271              $C$DW$121       .dwtag  DW_TAG_variable, DW_AT_name("handle")
    1272                      .dwattr $C$DW$121, DW_AT_TI_symbol_name("_handle")
    1273                      .dwattr $C$DW$121, DW_AT_type(*$C$DW$T$109)
    1274                      .dwattr $C$DW$121, DW_AT_location[DW_OP_reg12]
    1275                      .dwcfi  cfa_offset, -2
    1276                      .dwcfi  save_reg_to_mem, 26, 0
    1277                      .dwcfi  save_reg_to_reg, 78, 26
    1278                      .dwpsn  file "D:/Foc/my_motor/sw/drivers/drvic/ldc1612.c",line 845,column 5,is_stmt
    1279 00000113 D045          MOVB      XAR0,#69              ; [CPU_] |845| 
    1280 00000114 9294          MOV       AL,*+XAR4[AR0]        ; [CPU_] |845| 
    1281 00000115 EC04          BF        $C$L40,EQ             ; [CPU_] |845| 
TMS320C2000 Assembler PC v6.2.5 Mon Jul 10 09:53:39 2017

Tools Copyright (c) 1996-2014 Texas Instruments Incorporated
C:\Users\wmj\AppData\Local\Temp\1375610                              PAGE   25

    1282                      ; branchcc occurs ; [] |845| 
    1283 00000116 28A9          MOV       AL,#16384             ; [CPU_] |845| 
         00000117 4000 
    1284 00000118 6F02          B         $C$L41,UNC            ; [CPU_] |845| 
    1285                      ; branch occurs ; [] |845| 
    1286 00000119       $C$L40:    
    1287 00000119 9A00          MOVB      AL,#0                 ; [CPU_] |845| 
    1288 0000011a       $C$L41:    
    1289                      .dwpsn  file "D:/Foc/my_motor/sw/drivers/drvic/ldc1612.c",line 846,column 3,is_stmt
    1290 0000011a D046          MOVB      XAR0,#70              ; [CPU_] |846| 
    1291 0000011b 9394          MOV       AH,*+XAR4[AR0]        ; [CPU_] |846| 
    1292 0000011c EC03          BF        $C$L42,EQ             ; [CPU_] |846| 
    1293                      ; branchcc occurs ; [] |846| 
    1294                      .dwpsn  file "D:/Foc/my_motor/sw/drivers/drvic/ldc1612.c",line 847,column 5,is_stmt
    1295 0000011d 1AA9          OR        AL,#0x8000            ; [CPU_] |847| 
         0000011e 8000 
    1296 0000011f       $C$L42:    
    1297                      .dwpsn  file "D:/Foc/my_motor/sw/drivers/drvic/ldc1612.c",line 848,column 3,is_stmt
    1298 0000011f D047          MOVB      XAR0,#71              ; [CPU_] |848| 
    1299 00000120 9394          MOV       AH,*+XAR4[AR0]        ; [CPU_] |848| 
    1300 00000121 EC03          BF        $C$L43,EQ             ; [CPU_] |848| 
    1301                      ; branchcc occurs ; [] |848| 
    1302                      .dwpsn  file "D:/Foc/my_motor/sw/drivers/drvic/ldc1612.c",line 849,column 5,is_stmt
    1303 00000122 1AA9          OR        AL,#0x2000            ; [CPU_] |849| 
         00000123 2000 
    1304 00000124       $C$L43:    
    1305                      .dwpsn  file "D:/Foc/my_motor/sw/drivers/drvic/ldc1612.c",line 850,column 3,is_stmt
    1306 00000124 D048          MOVB      XAR0,#72              ; [CPU_] |850| 
    1307 00000125 9394          MOV       AH,*+XAR4[AR0]        ; [CPU_] |850| 
    1308 00000126 EC03          BF        $C$L44,EQ             ; [CPU_] |850| 
    1309                      ; branchcc occurs ; [] |850| 
    1310                      .dwpsn  file "D:/Foc/my_motor/sw/drivers/drvic/ldc1612.c",line 851,column 5,is_stmt
    1311 00000127 1AA9          OR        AL,#0x1000            ; [CPU_] |851| 
         00000128 1000 
    1312 00000129       $C$L44:    
    1313                      .dwpsn  file "D:/Foc/my_motor/sw/drivers/drvic/ldc1612.c",line 852,column 3,is_stmt
    1314 00000129 D049          MOVB      XAR0,#73              ; [CPU_] |852| 
    1315 0000012a 9394          MOV       AH,*+XAR4[AR0]        ; [CPU_] |852| 
    1316 0000012b EC03          BF        $C$L45,EQ             ; [CPU_] |852| 
    1317                      ; branchcc occurs ; [] |852| 
    1318                      .dwpsn  file "D:/Foc/my_motor/sw/drivers/drvic/ldc1612.c",line 853,column 5,is_stmt
    1319 0000012c 1AA9          OR        AL,#0x0800            ; [CPU_] |853| 
         0000012d 0800 
    1320 0000012e       $C$L45:    
    1321                      .dwpsn  file "D:/Foc/my_motor/sw/drivers/drvic/ldc1612.c",line 854,column 3,is_stmt
    1322 0000012e D04A          MOVB      XAR0,#74              ; [CPU_] |854| 
    1323 0000012f 9394          MOV       AH,*+XAR4[AR0]        ; [CPU_] |854| 
    1324 00000130 EC03          BF        $C$L46,EQ             ; [CPU_] |854| 
    1325                      ; branchcc occurs ; [] |854| 
    1326                      .dwpsn  file "D:/Foc/my_motor/sw/drivers/drvic/ldc1612.c",line 855,column 5,is_stmt
    1327 00000131 1AA9          OR        AL,#0x0400            ; [CPU_] |855| 
         00000132 0400 
    1328 00000133       $C$L46:    
    1329                      .dwpsn  file "D:/Foc/my_motor/sw/drivers/drvic/ldc1612.c",line 856,column 3,is_stmt
    1330 00000133 D04B          MOVB      XAR0,#75              ; [CPU_] |856| 
TMS320C2000 Assembler PC v6.2.5 Mon Jul 10 09:53:39 2017

Tools Copyright (c) 1996-2014 Texas Instruments Incorporated
C:\Users\wmj\AppData\Local\Temp\1375610                              PAGE   26

    1331 00000134 9394          MOV       AH,*+XAR4[AR0]        ; [CPU_] |856| 
    1332 00000135 EC03          BF        $C$L47,EQ             ; [CPU_] |856| 
    1333                      ; branchcc occurs ; [] |856| 
    1334                      .dwpsn  file "D:/Foc/my_motor/sw/drivers/drvic/ldc1612.c",line 857,column 5,is_stmt
    1335 00000136 1AA9          OR        AL,#0x0200            ; [CPU_] |857| 
         00000137 0200 
    1336 00000138       $C$L47:    
    1337                      .dwpsn  file "D:/Foc/my_motor/sw/drivers/drvic/ldc1612.c",line 858,column 3,is_stmt
    1338 00000138 D04C          MOVB      XAR0,#76              ; [CPU_] |858| 
    1339 00000139 9394          MOV       AH,*+XAR4[AR0]        ; [CPU_] |858| 
    1340 0000013a EC02          BF        $C$L48,EQ             ; [CPU_] |858| 
    1341                      ; branchcc occurs ; [] |858| 
    1342                      .dwpsn  file "D:/Foc/my_motor/sw/drivers/drvic/ldc1612.c",line 859,column 5,is_stmt
    1343 0000013b 5080          ORB       AL,#0x80              ; [CPU_] |859| 
    1344 0000013c       $C$L48:    
    1345                      .dwpsn  file "D:/Foc/my_motor/sw/drivers/drvic/ldc1612.c",line 860,column 3,is_stmt
    1346 0000013c D04D          MOVB      XAR0,#77              ; [CPU_] |860| 
    1347 0000013d 9394          MOV       AH,*+XAR4[AR0]        ; [CPU_] |860| 
    1348 0000013e EC02          BF        $C$L49,EQ             ; [CPU_] |860| 
    1349                      ; branchcc occurs ; [] |860| 
    1350                      .dwpsn  file "D:/Foc/my_motor/sw/drivers/drvic/ldc1612.c",line 861,column 5,is_stmt
    1351 0000013f 5040          ORB       AL,#0x40              ; [CPU_] |861| 
    1352 00000140       $C$L49:    
    1353                      .dwpsn  file "D:/Foc/my_motor/sw/drivers/drvic/ldc1612.c",line 863,column 3,is_stmt
    1354 00000140 96C5          MOV       *+XAR5[0],AL          ; [CPU_] |863| 
    1355              $C$DW$122       .dwtag  DW_TAG_TI_branch
    1356                      .dwattr $C$DW$122, DW_AT_low_pc(0x00)
    1357                      .dwattr $C$DW$122, DW_AT_TI_return
    1358 00000141 0006          LRETR     ; [CPU_] 
    1359                      ; return occurs ; [] 
    1360                      .dwattr $C$DW$115, DW_AT_TI_end_file("D:/Foc/my_motor/sw/drivers/drvic/ldc1612.c")
    1361                      .dwattr $C$DW$115, DW_AT_TI_end_line(0x362)
    1362                      .dwattr $C$DW$115, DW_AT_TI_end_column(0x01)
    1363                      .dwendentry
    1364                      .dwendtag $C$DW$115
    1365              
    1366 00000142               .sect   ".text"
    1367                      .clink
    1368                      .global _LDC161x_writeMuxConfig
    1369              
    1370              $C$DW$123       .dwtag  DW_TAG_subprogram, DW_AT_name("LDC161x_writeMuxConfig")
    1371                      .dwattr $C$DW$123, DW_AT_low_pc(_LDC161x_writeMuxConfig)
    1372                      .dwattr $C$DW$123, DW_AT_high_pc(0x00)
    1373                      .dwattr $C$DW$123, DW_AT_TI_symbol_name("_LDC161x_writeMuxConfig")
    1374                      .dwattr $C$DW$123, DW_AT_external
    1375                      .dwattr $C$DW$123, DW_AT_TI_begin_file("D:/Foc/my_motor/sw/drivers/drvic/ldc1612.c")
    1376                      .dwattr $C$DW$123, DW_AT_TI_begin_line(0x230)
    1377                      .dwattr $C$DW$123, DW_AT_TI_begin_column(0x06)
    1378                      .dwattr $C$DW$123, DW_AT_TI_max_frame_size(-4)
    1379                      .dwpsn  file "D:/Foc/my_motor/sw/drivers/drvic/ldc1612.c",line 561,column 1,is_stmt,address _LDC161x_
    1380              
    1381                      .dwfde $C$DW$CIE, _LDC161x_writeMuxConfig
    1382              $C$DW$124       .dwtag  DW_TAG_formal_parameter, DW_AT_name("handle")
    1383                      .dwattr $C$DW$124, DW_AT_TI_symbol_name("_handle")
    1384                      .dwattr $C$DW$124, DW_AT_type(*$C$DW$T$120)
TMS320C2000 Assembler PC v6.2.5 Mon Jul 10 09:53:39 2017

Tools Copyright (c) 1996-2014 Texas Instruments Incorporated
C:\Users\wmj\AppData\Local\Temp\1375610                              PAGE   27

    1385                      .dwattr $C$DW$124, DW_AT_location[DW_OP_reg12]
    1386              
    1387              ;***************************************************************
    1388              ;* FNAME: _LDC161x_writeMuxConfig       FR SIZE:   2           *
    1389              ;*                                                             *
    1390              ;* FUNCTION ENVIRONMENT                                        *
    1391              ;*                                                             *
    1392              ;* FUNCTION PROPERTIES                                         *
    1393              ;*                            0 Parameter,  1 Auto,  0 SOE     *
    1394              ;***************************************************************
    1395              
    1396              _LDC161x_writeMuxConfig:
    1397              ;* AR6   assigned to _handle
    1398              $C$DW$125       .dwtag  DW_TAG_variable, DW_AT_name("handle")
    1399                      .dwattr $C$DW$125, DW_AT_TI_symbol_name("_handle")
    1400                      .dwattr $C$DW$125, DW_AT_type(*$C$DW$T$121)
    1401                      .dwattr $C$DW$125, DW_AT_location[DW_OP_reg16]
    1402              $C$DW$126       .dwtag  DW_TAG_variable, DW_AT_name("drvDataGet")
    1403                      .dwattr $C$DW$126, DW_AT_TI_symbol_name("_drvDataGet")
    1404                      .dwattr $C$DW$126, DW_AT_type(*$C$DW$T$21)
    1405                      .dwattr $C$DW$126, DW_AT_location[DW_OP_breg20 -1]
    1406                      .dwcfi  cfa_offset, -2
    1407                      .dwcfi  save_reg_to_mem, 26, 0
    1408                      .dwcfi  save_reg_to_reg, 78, 26
    1409 00000142 FE02          ADDB      SP,#2                 ; [CPU_U] 
    1410                      .dwcfi  cfa_offset, -4
    1411 00000143 C4A4          MOVL      XAR6,XAR4             ; [CPU_] |561| 
    1412                      .dwpsn  file "D:/Foc/my_motor/sw/drivers/drvic/ldc1612.c",line 567,column 3,is_stmt
    1413 00000144 5DAD          MOVZ      AR5,SP                ; [CPU_U] |567| 
    1414 00000145 8AE6          MOVL      XAR4,*+XAR6[4]        ; [CPU_] |567| 
    1415 00000146 DD81          SUBB      XAR5,#1               ; [CPU_U] |567| 
    1416              $C$DW$127       .dwtag  DW_TAG_TI_branch
    1417                      .dwattr $C$DW$127, DW_AT_low_pc(0x00)
    1418                      .dwattr $C$DW$127, DW_AT_name("_LDC161x_getConfig")
    1419                      .dwattr $C$DW$127, DW_AT_TI_call
    1420 00000147 7640'         LCR       #_LDC161x_getConfig   ; [CPU_] |567| 
         00000148 0113 
    1421                      ; call occurs [#_LDC161x_getConfig] ; [] |567| 
    1422                      .dwpsn  file "D:/Foc/my_motor/sw/drivers/drvic/ldc1612.c",line 568,column 3,is_stmt
    1423 00000149 1A41          OR        *-SP[1],#0x0208       ; [CPU_] |568| 
         0000014a 0208 
    1424                      .dwpsn  file "D:/Foc/my_motor/sw/drivers/drvic/ldc1612.c",line 569,column 3,is_stmt
    1425 0000014b 9341          MOV       AH,*-SP[1]            ; [CPU_] |569| 
    1426 0000014c 9A1B          MOVB      AL,#27                ; [CPU_] |569| 
    1427 0000014d 8AA6          MOVL      XAR4,XAR6             ; [CPU_] |569| 
    1428              $C$DW$128       .dwtag  DW_TAG_TI_branch
    1429                      .dwattr $C$DW$128, DW_AT_low_pc(0x00)
    1430                      .dwattr $C$DW$128, DW_AT_name("_LDC161x_writeI2c")
    1431                      .dwattr $C$DW$128, DW_AT_TI_call
    1432 0000014e 7640'         LCR       #_LDC161x_writeI2c    ; [CPU_] |569| 
         0000014f 0014 
    1433                      ; call occurs [#_LDC161x_writeI2c] ; [] |569| 
    1434 00000150 FE82          SUBB      SP,#2                 ; [CPU_U] 
    1435                      .dwcfi  cfa_offset, -2
    1436              $C$DW$129       .dwtag  DW_TAG_TI_branch
TMS320C2000 Assembler PC v6.2.5 Mon Jul 10 09:53:39 2017

Tools Copyright (c) 1996-2014 Texas Instruments Incorporated
C:\Users\wmj\AppData\Local\Temp\1375610                              PAGE   28

    1437                      .dwattr $C$DW$129, DW_AT_low_pc(0x00)
    1438                      .dwattr $C$DW$129, DW_AT_TI_return
    1439 00000151 0006          LRETR     ; [CPU_] 
    1440                      ; return occurs ; [] 
    1441                      .dwattr $C$DW$123, DW_AT_TI_end_file("D:/Foc/my_motor/sw/drivers/drvic/ldc1612.c")
    1442                      .dwattr $C$DW$123, DW_AT_TI_end_line(0x23c)
    1443                      .dwattr $C$DW$123, DW_AT_TI_end_column(0x01)
    1444                      .dwendentry
    1445                      .dwendtag $C$DW$123
    1446              
    1447 00000152               .sect   ".text"
    1448                      .clink
    1449                      .global _LDC161x_writeConfig
    1450              
    1451              $C$DW$130       .dwtag  DW_TAG_subprogram, DW_AT_name("LDC161x_writeConfig")
    1452                      .dwattr $C$DW$130, DW_AT_low_pc(_LDC161x_writeConfig)
    1453                      .dwattr $C$DW$130, DW_AT_high_pc(0x00)
    1454                      .dwattr $C$DW$130, DW_AT_TI_symbol_name("_LDC161x_writeConfig")
    1455                      .dwattr $C$DW$130, DW_AT_external
    1456                      .dwattr $C$DW$130, DW_AT_TI_begin_file("D:/Foc/my_motor/sw/drivers/drvic/ldc1612.c")
    1457                      .dwattr $C$DW$130, DW_AT_TI_begin_line(0x21e)
    1458                      .dwattr $C$DW$130, DW_AT_TI_begin_column(0x06)
    1459                      .dwattr $C$DW$130, DW_AT_TI_max_frame_size(-4)
    1460                      .dwpsn  file "D:/Foc/my_motor/sw/drivers/drvic/ldc1612.c",line 543,column 1,is_stmt,address _LDC161x_
    1461              
    1462                      .dwfde $C$DW$CIE, _LDC161x_writeConfig
    1463              $C$DW$131       .dwtag  DW_TAG_formal_parameter, DW_AT_name("handle")
    1464                      .dwattr $C$DW$131, DW_AT_TI_symbol_name("_handle")
    1465                      .dwattr $C$DW$131, DW_AT_type(*$C$DW$T$120)
    1466                      .dwattr $C$DW$131, DW_AT_location[DW_OP_reg12]
    1467              
    1468              ;***************************************************************
    1469              ;* FNAME: _LDC161x_writeConfig          FR SIZE:   2           *
    1470              ;*                                                             *
    1471              ;* FUNCTION ENVIRONMENT                                        *
    1472              ;*                                                             *
    1473              ;* FUNCTION PROPERTIES                                         *
    1474              ;*                            0 Parameter,  1 Auto,  0 SOE     *
    1475              ;***************************************************************
    1476              
    1477              _LDC161x_writeConfig:
    1478              ;* AR6   assigned to _handle
    1479              $C$DW$132       .dwtag  DW_TAG_variable, DW_AT_name("handle")
    1480                      .dwattr $C$DW$132, DW_AT_TI_symbol_name("_handle")
    1481                      .dwattr $C$DW$132, DW_AT_type(*$C$DW$T$121)
    1482                      .dwattr $C$DW$132, DW_AT_location[DW_OP_reg16]
    1483              $C$DW$133       .dwtag  DW_TAG_variable, DW_AT_name("drvDataGet")
    1484                      .dwattr $C$DW$133, DW_AT_TI_symbol_name("_drvDataGet")
    1485                      .dwattr $C$DW$133, DW_AT_type(*$C$DW$T$21)
    1486                      .dwattr $C$DW$133, DW_AT_location[DW_OP_breg20 -1]
    1487                      .dwcfi  cfa_offset, -2
    1488                      .dwcfi  save_reg_to_mem, 26, 0
    1489                      .dwcfi  save_reg_to_reg, 78, 26
    1490 00000152 FE02          ADDB      SP,#2                 ; [CPU_U] 
    1491                      .dwcfi  cfa_offset, -4
TMS320C2000 Assembler PC v6.2.5 Mon Jul 10 09:53:39 2017

Tools Copyright (c) 1996-2014 Texas Instruments Incorporated
C:\Users\wmj\AppData\Local\Temp\1375610                              PAGE   29

    1492 00000153 C4A4          MOVL      XAR6,XAR4             ; [CPU_] |543| 
    1493                      .dwpsn  file "D:/Foc/my_motor/sw/drivers/drvic/ldc1612.c",line 549,column 3,is_stmt
    1494 00000154 5DAD          MOVZ      AR5,SP                ; [CPU_U] |549| 
    1495 00000155 8AE6          MOVL      XAR4,*+XAR6[4]        ; [CPU_] |549| 
    1496 00000156 DD81          SUBB      XAR5,#1               ; [CPU_U] |549| 
    1497              $C$DW$134       .dwtag  DW_TAG_TI_branch
    1498                      .dwattr $C$DW$134, DW_AT_low_pc(0x00)
    1499                      .dwattr $C$DW$134, DW_AT_name("_LDC161x_getConfig")
    1500                      .dwattr $C$DW$134, DW_AT_TI_call
    1501 00000157 7640'         LCR       #_LDC161x_getConfig   ; [CPU_] |549| 
         00000158 0113 
    1502                      ; call occurs [#_LDC161x_getConfig] ; [] |549| 
    1503                      .dwpsn  file "D:/Foc/my_motor/sw/drivers/drvic/ldc1612.c",line 550,column 3,is_stmt
    1504 00000159 1A41          OR        *-SP[1],#0x0001       ; [CPU_] |550| 
         0000015a 0001 
    1505                      .dwpsn  file "D:/Foc/my_motor/sw/drivers/drvic/ldc1612.c",line 551,column 3,is_stmt
    1506 0000015b 9341          MOV       AH,*-SP[1]            ; [CPU_] |551| 
    1507 0000015c 9A1A          MOVB      AL,#26                ; [CPU_] |551| 
    1508 0000015d 8AA6          MOVL      XAR4,XAR6             ; [CPU_] |551| 
    1509              $C$DW$135       .dwtag  DW_TAG_TI_branch
    1510                      .dwattr $C$DW$135, DW_AT_low_pc(0x00)
    1511                      .dwattr $C$DW$135, DW_AT_name("_LDC161x_writeI2c")
    1512                      .dwattr $C$DW$135, DW_AT_TI_call
    1513 0000015e 7640'         LCR       #_LDC161x_writeI2c    ; [CPU_] |551| 
         0000015f 0014 
    1514                      ; call occurs [#_LDC161x_writeI2c] ; [] |551| 
    1515 00000160 FE82          SUBB      SP,#2                 ; [CPU_U] 
    1516                      .dwcfi  cfa_offset, -2
    1517              $C$DW$136       .dwtag  DW_TAG_TI_branch
    1518                      .dwattr $C$DW$136, DW_AT_low_pc(0x00)
    1519                      .dwattr $C$DW$136, DW_AT_TI_return
    1520 00000161 0006          LRETR     ; [CPU_] 
    1521                      ; return occurs ; [] 
    1522                      .dwattr $C$DW$130, DW_AT_TI_end_file("D:/Foc/my_motor/sw/drivers/drvic/ldc1612.c")
    1523                      .dwattr $C$DW$130, DW_AT_TI_end_line(0x22a)
    1524                      .dwattr $C$DW$130, DW_AT_TI_end_column(0x01)
    1525                      .dwendentry
    1526                      .dwendtag $C$DW$130
    1527              
    1528 00000162               .sect   ".text"
    1529                      .clink
    1530                      .global _LDC161x_getClkDivs
    1531              
    1532              $C$DW$137       .dwtag  DW_TAG_subprogram, DW_AT_name("LDC161x_getClkDivs")
    1533                      .dwattr $C$DW$137, DW_AT_low_pc(_LDC161x_getClkDivs)
    1534                      .dwattr $C$DW$137, DW_AT_high_pc(0x00)
    1535                      .dwattr $C$DW$137, DW_AT_TI_symbol_name("_LDC161x_getClkDivs")
    1536                      .dwattr $C$DW$137, DW_AT_external
    1537                      .dwattr $C$DW$137, DW_AT_TI_begin_file("D:/Foc/my_motor/sw/drivers/drvic/ldc1612.c")
    1538                      .dwattr $C$DW$137, DW_AT_TI_begin_line(0x3c6)
    1539                      .dwattr $C$DW$137, DW_AT_TI_begin_column(0x06)
    1540                      .dwattr $C$DW$137, DW_AT_TI_max_frame_size(-4)
    1541                      .dwpsn  file "D:/Foc/my_motor/sw/drivers/drvic/ldc1612.c",line 967,column 1,is_stmt,address _LDC161x_
    1542              
    1543                      .dwfde $C$DW$CIE, _LDC161x_getClkDivs
TMS320C2000 Assembler PC v6.2.5 Mon Jul 10 09:53:39 2017

Tools Copyright (c) 1996-2014 Texas Instruments Incorporated
C:\Users\wmj\AppData\Local\Temp\1375610                              PAGE   30

    1544              $C$DW$138       .dwtag  DW_TAG_formal_parameter, DW_AT_name("handle")
    1545                      .dwattr $C$DW$138, DW_AT_TI_symbol_name("_handle")
    1546                      .dwattr $C$DW$138, DW_AT_type(*$C$DW$T$47)
    1547                      .dwattr $C$DW$138, DW_AT_location[DW_OP_reg12]
    1548              $C$DW$139       .dwtag  DW_TAG_formal_parameter, DW_AT_name("Channel")
    1549                      .dwattr $C$DW$139, DW_AT_TI_symbol_name("_Channel")
    1550                      .dwattr $C$DW$139, DW_AT_type(*$C$DW$T$136)
    1551                      .dwattr $C$DW$139, DW_AT_location[DW_OP_reg0]
    1552              $C$DW$140       .dwtag  DW_TAG_formal_parameter, DW_AT_name("drvDataGet")
    1553                      .dwattr $C$DW$140, DW_AT_TI_symbol_name("_drvDataGet")
    1554                      .dwattr $C$DW$140, DW_AT_type(*$C$DW$T$155)
    1555                      .dwattr $C$DW$140, DW_AT_location[DW_OP_reg14]
    1556              
    1557              ;***************************************************************
    1558              ;* FNAME: _LDC161x_getClkDivs           FR SIZE:   2           *
    1559              ;*                                                             *
    1560              ;* FUNCTION ENVIRONMENT                                        *
    1561              ;*                                                             *
    1562              ;* FUNCTION PROPERTIES                                         *
    1563              ;*                            0 Parameter,  0 Auto,  2 SOE     *
    1564              ;***************************************************************
    1565              
    1566              _LDC161x_getClkDivs:
    1567              ;* AL    assigned to _drvData
    1568              $C$DW$141       .dwtag  DW_TAG_variable, DW_AT_name("drvData")
    1569                      .dwattr $C$DW$141, DW_AT_TI_symbol_name("_drvData")
    1570                      .dwattr $C$DW$141, DW_AT_type(*$C$DW$T$21)
    1571                      .dwattr $C$DW$141, DW_AT_location[DW_OP_reg0]
    1572              ;* AR4   assigned to _obj
    1573              $C$DW$142       .dwtag  DW_TAG_variable, DW_AT_name("obj")
    1574                      .dwattr $C$DW$142, DW_AT_TI_symbol_name("_obj")
    1575                      .dwattr $C$DW$142, DW_AT_type(*$C$DW$T$125)
    1576                      .dwattr $C$DW$142, DW_AT_location[DW_OP_reg12]
    1577              ;* AR5   assigned to _drvDataGet
    1578              $C$DW$143       .dwtag  DW_TAG_variable, DW_AT_name("drvDataGet")
    1579                      .dwattr $C$DW$143, DW_AT_TI_symbol_name("_drvDataGet")
    1580                      .dwattr $C$DW$143, DW_AT_type(*$C$DW$T$167)
    1581                      .dwattr $C$DW$143, DW_AT_location[DW_OP_reg14]
    1582              ;* AL    assigned to _Channel
    1583              $C$DW$144       .dwtag  DW_TAG_variable, DW_AT_name("Channel")
    1584                      .dwattr $C$DW$144, DW_AT_TI_symbol_name("_Channel")
    1585                      .dwattr $C$DW$144, DW_AT_type(*$C$DW$T$136)
    1586                      .dwattr $C$DW$144, DW_AT_location[DW_OP_reg0]
    1587              ;* AR4   assigned to _handle
    1588              $C$DW$145       .dwtag  DW_TAG_variable, DW_AT_name("handle")
    1589                      .dwattr $C$DW$145, DW_AT_TI_symbol_name("_handle")
    1590                      .dwattr $C$DW$145, DW_AT_type(*$C$DW$T$109)
    1591                      .dwattr $C$DW$145, DW_AT_location[DW_OP_reg12]
    1592                      .dwcfi  cfa_offset, -2
    1593                      .dwcfi  save_reg_to_mem, 26, 0
    1594                      .dwcfi  save_reg_to_reg, 78, 26
    1595                      .dwpsn  file "D:/Foc/my_motor/sw/drivers/drvic/ldc1612.c",line 971,column 3,is_stmt
    1596 00000162 5200          CMPB      AL,#0                 ; [CPU_] |971| 
    1597 00000163 B2BD          MOVL      *SP++,XAR1            ; [CPU_] 
    1598                      .dwcfi  save_reg_to_mem, 7, 2
TMS320C2000 Assembler PC v6.2.5 Mon Jul 10 09:53:39 2017

Tools Copyright (c) 1996-2014 Texas Instruments Incorporated
C:\Users\wmj\AppData\Local\Temp\1375610                              PAGE   31

    1599                      .dwcfi  cfa_offset, -4
    1600 00000164 EC12          BF        $C$L53,EQ             ; [CPU_] |971| 
    1601                      ; branchcc occurs ; [] |971| 
    1602 00000165 5201          CMPB      AL,#1                 ; [CPU_] |971| 
    1603 00000166 EC0D          BF        $C$L52,EQ             ; [CPU_] |971| 
    1604                      ; branchcc occurs ; [] |971| 
    1605 00000167 5202          CMPB      AL,#2                 ; [CPU_] |971| 
    1606 00000168 EC08          BF        $C$L51,EQ             ; [CPU_] |971| 
    1607                      ; branchcc occurs ; [] |971| 
    1608 00000169 5203          CMPB      AL,#3                 ; [CPU_] |971| 
    1609 0000016a EC03          BF        $C$L50,EQ             ; [CPU_] |971| 
    1610                      ; branchcc occurs ; [] |971| 
    1611                      .dwpsn  file "D:/Foc/my_motor/sw/drivers/drvic/ldc1612.c",line 969,column 20,is_stmt
    1612 0000016b 9A00          MOVB      AL,#0                 ; [CPU_] |969| 
    1613 0000016c 6F0F          B         $C$L55,UNC            ; [CPU_] 
    1614                      ; branch occurs ; [] 
    1615 0000016d       $C$L50:    
    1616                      .dwpsn  file "D:/Foc/my_motor/sw/drivers/drvic/ldc1612.c",line 982,column 13,is_stmt
    1617 0000016d D02A          MOVB      XAR0,#42              ; [CPU_] |982| 
    1618 0000016e D12B          MOVB      XAR1,#43              ; [CPU_] |982| 
    1619                      .dwpsn  file "D:/Foc/my_motor/sw/drivers/drvic/ldc1612.c",line 984,column 5,is_stmt
    1620 0000016f 6F09          B         $C$L54,UNC            ; [CPU_] |984| 
    1621                      ; branch occurs ; [] |984| 
    1622 00000170       $C$L51:    
    1623                      .dwpsn  file "D:/Foc/my_motor/sw/drivers/drvic/ldc1612.c",line 979,column 13,is_stmt
    1624 00000170 D028          MOVB      XAR0,#40              ; [CPU_] |979| 
    1625 00000171 D129          MOVB      XAR1,#41              ; [CPU_] |979| 
    1626                      .dwpsn  file "D:/Foc/my_motor/sw/drivers/drvic/ldc1612.c",line 981,column 5,is_stmt
    1627 00000172 6F06          B         $C$L54,UNC            ; [CPU_] |981| 
    1628                      ; branch occurs ; [] |981| 
    1629 00000173       $C$L52:    
    1630                      .dwpsn  file "D:/Foc/my_motor/sw/drivers/drvic/ldc1612.c",line 976,column 13,is_stmt
    1631 00000173 D026          MOVB      XAR0,#38              ; [CPU_] |976| 
    1632 00000174 D127          MOVB      XAR1,#39              ; [CPU_] |976| 
    1633                      .dwpsn  file "D:/Foc/my_motor/sw/drivers/drvic/ldc1612.c",line 978,column 5,is_stmt
    1634 00000175 6F03          B         $C$L54,UNC            ; [CPU_] |978| 
    1635                      ; branch occurs ; [] |978| 
    1636 00000176       $C$L53:    
    1637                      .dwpsn  file "D:/Foc/my_motor/sw/drivers/drvic/ldc1612.c",line 973,column 13,is_stmt
    1638 00000176 D024          MOVB      XAR0,#36              ; [CPU_] |973| 
    1639 00000177 D125          MOVB      XAR1,#37              ; [CPU_] |973| 
    1640 00000178       $C$L54:    
    1641 00000178 5603          MOV       ACC,*+XAR4[AR1] << #12 ; [CPU_] |973| 
         00000179 0C9C 
    1642 0000017a CA94          OR        AL,*+XAR4[AR0]        ; [CPU_] |973| 
    1643 0000017b       $C$L55:    
    1644                      .dwpsn  file "D:/Foc/my_motor/sw/drivers/drvic/ldc1612.c",line 988,column 3,is_stmt
    1645 0000017b 96C5          MOV       *+XAR5[0],AL          ; [CPU_] |988| 
    1646 0000017c 8BBE          MOVL      XAR1,*--SP            ; [CPU_] 
    1647                      .dwcfi  cfa_offset, -2
    1648                      .dwcfi  restore_reg, 7
    1649              $C$DW$146       .dwtag  DW_TAG_TI_branch
    1650                      .dwattr $C$DW$146, DW_AT_low_pc(0x00)
    1651                      .dwattr $C$DW$146, DW_AT_TI_return
    1652 0000017d 0006          LRETR     ; [CPU_] 
TMS320C2000 Assembler PC v6.2.5 Mon Jul 10 09:53:39 2017

Tools Copyright (c) 1996-2014 Texas Instruments Incorporated
C:\Users\wmj\AppData\Local\Temp\1375610                              PAGE   32

    1653                      ; return occurs ; [] 
    1654                      .dwattr $C$DW$137, DW_AT_TI_end_file("D:/Foc/my_motor/sw/drivers/drvic/ldc1612.c")
    1655                      .dwattr $C$DW$137, DW_AT_TI_end_line(0x3df)
    1656                      .dwattr $C$DW$137, DW_AT_TI_end_column(0x01)
    1657                      .dwendentry
    1658                      .dwendtag $C$DW$137
    1659              
    1660 0000017e               .sect   ".text"
    1661                      .clink
    1662                      .global _LDC161x_writeClkDivs
    1663              
    1664              $C$DW$147       .dwtag  DW_TAG_subprogram, DW_AT_name("LDC161x_writeClkDivs")
    1665                      .dwattr $C$DW$147, DW_AT_low_pc(_LDC161x_writeClkDivs)
    1666                      .dwattr $C$DW$147, DW_AT_high_pc(0x00)
    1667                      .dwattr $C$DW$147, DW_AT_TI_symbol_name("_LDC161x_writeClkDivs")
    1668                      .dwattr $C$DW$147, DW_AT_external
    1669                      .dwattr $C$DW$147, DW_AT_TI_begin_file("D:/Foc/my_motor/sw/drivers/drvic/ldc1612.c")
    1670                      .dwattr $C$DW$147, DW_AT_TI_begin_line(0x1fc)
    1671                      .dwattr $C$DW$147, DW_AT_TI_begin_column(0x06)
    1672                      .dwattr $C$DW$147, DW_AT_TI_max_frame_size(-4)
    1673                      .dwpsn  file "D:/Foc/my_motor/sw/drivers/drvic/ldc1612.c",line 509,column 1,is_stmt,address _LDC161x_
    1674              
    1675                      .dwfde $C$DW$CIE, _LDC161x_writeClkDivs
    1676              $C$DW$148       .dwtag  DW_TAG_formal_parameter, DW_AT_name("handle")
    1677                      .dwattr $C$DW$148, DW_AT_TI_symbol_name("_handle")
    1678                      .dwattr $C$DW$148, DW_AT_type(*$C$DW$T$120)
    1679                      .dwattr $C$DW$148, DW_AT_location[DW_OP_reg12]
    1680              $C$DW$149       .dwtag  DW_TAG_formal_parameter, DW_AT_name("ChannelNum")
    1681                      .dwattr $C$DW$149, DW_AT_TI_symbol_name("_ChannelNum")
    1682                      .dwattr $C$DW$149, DW_AT_type(*$C$DW$T$96)
    1683                      .dwattr $C$DW$149, DW_AT_location[DW_OP_reg0]
    1684              
    1685              ;***************************************************************
    1686              ;* FNAME: _LDC161x_writeClkDivs         FR SIZE:   2           *
    1687              ;*                                                             *
    1688              ;* FUNCTION ENVIRONMENT                                        *
    1689              ;*                                                             *
    1690              ;* FUNCTION PROPERTIES                                         *
    1691              ;*                            0 Parameter,  1 Auto,  0 SOE     *
    1692              ;***************************************************************
    1693              
    1694              _LDC161x_writeClkDivs:
    1695              ;* AL    assigned to _ChNum
    1696              $C$DW$150       .dwtag  DW_TAG_variable, DW_AT_name("ChNum")
    1697                      .dwattr $C$DW$150, DW_AT_TI_symbol_name("_ChNum")
    1698                      .dwattr $C$DW$150, DW_AT_type(*$C$DW$T$21)
    1699                      .dwattr $C$DW$150, DW_AT_location[DW_OP_reg0]
    1700              ;* AR7   assigned to _drvRegName
    1701              $C$DW$151       .dwtag  DW_TAG_variable, DW_AT_name("drvRegName")
    1702                      .dwattr $C$DW$151, DW_AT_TI_symbol_name("_drvRegName")
    1703                      .dwattr $C$DW$151, DW_AT_type(*$C$DW$T$93)
    1704                      .dwattr $C$DW$151, DW_AT_location[DW_OP_reg18]
    1705              $C$DW$152       .dwtag  DW_TAG_variable, DW_AT_name("drvDataGet")
    1706                      .dwattr $C$DW$152, DW_AT_TI_symbol_name("_drvDataGet")
    1707                      .dwattr $C$DW$152, DW_AT_type(*$C$DW$T$21)
TMS320C2000 Assembler PC v6.2.5 Mon Jul 10 09:53:39 2017

Tools Copyright (c) 1996-2014 Texas Instruments Incorporated
C:\Users\wmj\AppData\Local\Temp\1375610                              PAGE   33

    1708                      .dwattr $C$DW$152, DW_AT_location[DW_OP_breg20 -1]
    1709              ;* AL    assigned to _ChannelNum
    1710              $C$DW$153       .dwtag  DW_TAG_variable, DW_AT_name("ChannelNum")
    1711                      .dwattr $C$DW$153, DW_AT_TI_symbol_name("_ChannelNum")
    1712                      .dwattr $C$DW$153, DW_AT_type(*$C$DW$T$101)
    1713                      .dwattr $C$DW$153, DW_AT_location[DW_OP_reg0]
    1714              ;* AR6   assigned to _handle
    1715              $C$DW$154       .dwtag  DW_TAG_variable, DW_AT_name("handle")
    1716                      .dwattr $C$DW$154, DW_AT_TI_symbol_name("_handle")
    1717                      .dwattr $C$DW$154, DW_AT_type(*$C$DW$T$121)
    1718                      .dwattr $C$DW$154, DW_AT_location[DW_OP_reg16]
    1719                      .dwcfi  cfa_offset, -2
    1720                      .dwcfi  save_reg_to_mem, 26, 0
    1721                      .dwcfi  save_reg_to_reg, 78, 26
    1722 0000017e FE02          ADDB      SP,#2                 ; [CPU_U] 
    1723                      .dwcfi  cfa_offset, -4
    1724                      .dwpsn  file "D:/Foc/my_motor/sw/drivers/drvic/ldc1612.c",line 515,column 3,is_stmt
    1725 0000017f 5200          CMPB      AL,#0                 ; [CPU_] |515| 
    1726                      .dwpsn  file "D:/Foc/my_motor/sw/drivers/drvic/ldc1612.c",line 509,column 1,is_stmt
    1727 00000180 C4A4          MOVL      XAR6,XAR4             ; [CPU_] |509| 
    1728                      .dwpsn  file "D:/Foc/my_motor/sw/drivers/drvic/ldc1612.c",line 515,column 3,is_stmt
    1729 00000181 EC10          BF        $C$L58,EQ             ; [CPU_] |515| 
    1730                      ; branchcc occurs ; [] |515| 
    1731 00000182 5201          CMPB      AL,#1                 ; [CPU_] |515| 
    1732 00000183 EC0B          BF        $C$L57,EQ             ; [CPU_] |515| 
    1733                      ; branchcc occurs ; [] |515| 
    1734 00000184 5202          CMPB      AL,#2                 ; [CPU_] |515| 
    1735 00000185 EC06          BF        $C$L56,EQ             ; [CPU_] |515| 
    1736                      ; branchcc occurs ; [] |515| 
    1737 00000186 5203          CMPB      AL,#3                 ; [CPU_] |515| 
    1738 00000187 ED0C          BF        $C$L59,NEQ            ; [CPU_] |515| 
    1739                      ; branchcc occurs ; [] |515| 
    1740                      .dwpsn  file "D:/Foc/my_motor/sw/drivers/drvic/ldc1612.c",line 526,column 29,is_stmt
    1741 00000188 B617          MOVB      XAR7,#23              ; [CPU_] |526| 
    1742                      .dwpsn  file "D:/Foc/my_motor/sw/drivers/drvic/ldc1612.c",line 527,column 29,is_stmt
    1743 00000189 9A03          MOVB      AL,#3                 ; [CPU_] |527| 
    1744                      .dwpsn  file "D:/Foc/my_motor/sw/drivers/drvic/ldc1612.c",line 528,column 7,is_stmt
    1745 0000018a 6F09          B         $C$L59,UNC            ; [CPU_] |528| 
    1746                      ; branch occurs ; [] |528| 
    1747 0000018b       $C$L56:    
    1748                      .dwpsn  file "D:/Foc/my_motor/sw/drivers/drvic/ldc1612.c",line 523,column 29,is_stmt
    1749 0000018b B616          MOVB      XAR7,#22              ; [CPU_] |523| 
    1750                      .dwpsn  file "D:/Foc/my_motor/sw/drivers/drvic/ldc1612.c",line 524,column 29,is_stmt
    1751 0000018c 9A02          MOVB      AL,#2                 ; [CPU_] |524| 
    1752                      .dwpsn  file "D:/Foc/my_motor/sw/drivers/drvic/ldc1612.c",line 525,column 7,is_stmt
    1753 0000018d 6F06          B         $C$L59,UNC            ; [CPU_] |525| 
    1754                      ; branch occurs ; [] |525| 
    1755 0000018e       $C$L57:    
    1756                      .dwpsn  file "D:/Foc/my_motor/sw/drivers/drvic/ldc1612.c",line 520,column 29,is_stmt
    1757 0000018e B615          MOVB      XAR7,#21              ; [CPU_] |520| 
    1758                      .dwpsn  file "D:/Foc/my_motor/sw/drivers/drvic/ldc1612.c",line 521,column 29,is_stmt
    1759 0000018f 9A01          MOVB      AL,#1                 ; [CPU_] |521| 
    1760                      .dwpsn  file "D:/Foc/my_motor/sw/drivers/drvic/ldc1612.c",line 522,column 7,is_stmt
    1761 00000190 6F03          B         $C$L59,UNC            ; [CPU_] |522| 
    1762                      ; branch occurs ; [] |522| 
TMS320C2000 Assembler PC v6.2.5 Mon Jul 10 09:53:39 2017

Tools Copyright (c) 1996-2014 Texas Instruments Incorporated
C:\Users\wmj\AppData\Local\Temp\1375610                              PAGE   34

    1763 00000191       $C$L58:    
    1764                      .dwpsn  file "D:/Foc/my_motor/sw/drivers/drvic/ldc1612.c",line 517,column 29,is_stmt
    1765 00000191 B614          MOVB      XAR7,#20              ; [CPU_] |517| 
    1766                      .dwpsn  file "D:/Foc/my_motor/sw/drivers/drvic/ldc1612.c",line 518,column 29,is_stmt
    1767 00000192 9A00          MOVB      AL,#0                 ; [CPU_] |518| 
    1768 00000193       $C$L59:    
    1769                      .dwpsn  file "D:/Foc/my_motor/sw/drivers/drvic/ldc1612.c",line 532,column 3,is_stmt
    1770 00000193 5DAD          MOVZ      AR5,SP                ; [CPU_U] |532| 
    1771 00000194 8AE6          MOVL      XAR4,*+XAR6[4]        ; [CPU_] |532| 
    1772 00000195 DD81          SUBB      XAR5,#1               ; [CPU_U] |532| 
    1773              $C$DW$155       .dwtag  DW_TAG_TI_branch
    1774                      .dwattr $C$DW$155, DW_AT_low_pc(0x00)
    1775                      .dwattr $C$DW$155, DW_AT_name("_LDC161x_getClkDivs")
    1776                      .dwattr $C$DW$155, DW_AT_TI_call
    1777 00000196 7640'         LCR       #_LDC161x_getClkDivs  ; [CPU_] |532| 
         00000197 0162 
    1778                      ; call occurs [#_LDC161x_getClkDivs] ; [] |532| 
    1779                      .dwpsn  file "D:/Foc/my_motor/sw/drivers/drvic/ldc1612.c",line 533,column 3,is_stmt
    1780 00000198 9341          MOV       AH,*-SP[1]            ; [CPU_] |533| 
    1781 00000199 92A7          MOV       AL,AR7                ; [CPU_] |533| 
    1782 0000019a 8AA6          MOVL      XAR4,XAR6             ; [CPU_] |533| 
    1783              $C$DW$156       .dwtag  DW_TAG_TI_branch
    1784                      .dwattr $C$DW$156, DW_AT_low_pc(0x00)
    1785                      .dwattr $C$DW$156, DW_AT_name("_LDC161x_writeI2c")
    1786                      .dwattr $C$DW$156, DW_AT_TI_call
    1787 0000019b 7640'         LCR       #_LDC161x_writeI2c    ; [CPU_] |533| 
         0000019c 0014 
    1788                      ; call occurs [#_LDC161x_writeI2c] ; [] |533| 
    1789 0000019d FE82          SUBB      SP,#2                 ; [CPU_U] 
    1790                      .dwcfi  cfa_offset, -2
    1791              $C$DW$157       .dwtag  DW_TAG_TI_branch
    1792                      .dwattr $C$DW$157, DW_AT_low_pc(0x00)
    1793                      .dwattr $C$DW$157, DW_AT_TI_return
    1794 0000019e 0006          LRETR     ; [CPU_] 
    1795                      ; return occurs ; [] 
    1796                      .dwattr $C$DW$147, DW_AT_TI_end_file("D:/Foc/my_motor/sw/drivers/drvic/ldc1612.c")
    1797                      .dwattr $C$DW$147, DW_AT_TI_end_line(0x218)
    1798                      .dwattr $C$DW$147, DW_AT_TI_end_column(0x01)
    1799                      .dwendentry
    1800                      .dwendtag $C$DW$147
    1801              
    1802 0000019f               .sect   ".text"
    1803                      .clink
    1804                      .global _LDC161x_setStatus
    1805              
    1806              $C$DW$158       .dwtag  DW_TAG_subprogram, DW_AT_name("LDC161x_setStatus")
    1807                      .dwattr $C$DW$158, DW_AT_low_pc(_LDC161x_setStatus)
    1808                      .dwattr $C$DW$158, DW_AT_high_pc(0x00)
    1809                      .dwattr $C$DW$158, DW_AT_TI_symbol_name("_LDC161x_setStatus")
    1810                      .dwattr $C$DW$158, DW_AT_external
    1811                      .dwattr $C$DW$158, DW_AT_TI_begin_file("D:/Foc/my_motor/sw/drivers/drvic/ldc1612.c")
    1812                      .dwattr $C$DW$158, DW_AT_TI_begin_line(0x2ea)
    1813                      .dwattr $C$DW$158, DW_AT_TI_begin_column(0x06)
    1814                      .dwattr $C$DW$158, DW_AT_TI_max_frame_size(-2)
    1815                      .dwpsn  file "D:/Foc/my_motor/sw/drivers/drvic/ldc1612.c",line 747,column 1,is_stmt,address _LDC161x_
TMS320C2000 Assembler PC v6.2.5 Mon Jul 10 09:53:39 2017

Tools Copyright (c) 1996-2014 Texas Instruments Incorporated
C:\Users\wmj\AppData\Local\Temp\1375610                              PAGE   35

    1816              
    1817                      .dwfde $C$DW$CIE, _LDC161x_setStatus
    1818              $C$DW$159       .dwtag  DW_TAG_formal_parameter, DW_AT_name("handle")
    1819                      .dwattr $C$DW$159, DW_AT_TI_symbol_name("_handle")
    1820                      .dwattr $C$DW$159, DW_AT_type(*$C$DW$T$47)
    1821                      .dwattr $C$DW$159, DW_AT_location[DW_OP_reg12]
    1822              $C$DW$160       .dwtag  DW_TAG_formal_parameter, DW_AT_name("drvData")
    1823                      .dwattr $C$DW$160, DW_AT_TI_symbol_name("_drvData")
    1824                      .dwattr $C$DW$160, DW_AT_type(*$C$DW$T$21)
    1825                      .dwattr $C$DW$160, DW_AT_location[DW_OP_reg0]
    1826              
    1827              ;***************************************************************
    1828              ;* FNAME: _LDC161x_setStatus            FR SIZE:   0           *
    1829              ;*                                                             *
    1830              ;* FUNCTION ENVIRONMENT                                        *
    1831              ;*                                                             *
    1832              ;* FUNCTION PROPERTIES                                         *
    1833              ;*                            0 Parameter,  0 Auto,  0 SOE     *
    1834              ;***************************************************************
    1835              
    1836              _LDC161x_setStatus:
    1837              ;* AR4   assigned to _handle
    1838              $C$DW$161       .dwtag  DW_TAG_variable, DW_AT_name("handle")
    1839                      .dwattr $C$DW$161, DW_AT_TI_symbol_name("_handle")
    1840                      .dwattr $C$DW$161, DW_AT_type(*$C$DW$T$109)
    1841                      .dwattr $C$DW$161, DW_AT_location[DW_OP_reg12]
    1842              ;* AL    assigned to _drvData
    1843              $C$DW$162       .dwtag  DW_TAG_variable, DW_AT_name("drvData")
    1844                      .dwattr $C$DW$162, DW_AT_TI_symbol_name("_drvData")
    1845                      .dwattr $C$DW$162, DW_AT_type(*$C$DW$T$136)
    1846                      .dwattr $C$DW$162, DW_AT_location[DW_OP_reg0]
    1847                      .dwcfi  cfa_offset, -2
    1848                      .dwcfi  save_reg_to_mem, 26, 0
    1849                      .dwcfi  save_reg_to_reg, 78, 26
    1850                      .dwpsn  file "D:/Foc/my_motor/sw/drivers/drvic/ldc1612.c",line 750,column 3,is_stmt
    1851 0000019f D02C          MOVB      XAR0,#44              ; [CPU_] |750| 
    1852 000001a0 CDA9          AND       AH,AL,#0x0001         ; [CPU_] |750| 
         000001a1 0001 
    1853 000001a2 9794          MOV       *+XAR4[AR0],AH        ; [CPU_] |750| 
    1854                      .dwpsn  file "D:/Foc/my_motor/sw/drivers/drvic/ldc1612.c",line 751,column 3,is_stmt
    1855 000001a3 D02D          MOVB      XAR0,#45              ; [CPU_] |751| 
    1856 000001a4 CDA9          AND       AH,AL,#0x0002         ; [CPU_] |751| 
         000001a5 0002 
    1857 000001a6 9794          MOV       *+XAR4[AR0],AH        ; [CPU_] |751| 
    1858                      .dwpsn  file "D:/Foc/my_motor/sw/drivers/drvic/ldc1612.c",line 752,column 3,is_stmt
    1859 000001a7 D02E          MOVB      XAR0,#46              ; [CPU_] |752| 
    1860 000001a8 CDA9          AND       AH,AL,#0x0004         ; [CPU_] |752| 
         000001a9 0004 
    1861 000001aa 9794          MOV       *+XAR4[AR0],AH        ; [CPU_] |752| 
    1862                      .dwpsn  file "D:/Foc/my_motor/sw/drivers/drvic/ldc1612.c",line 753,column 3,is_stmt
    1863 000001ab D02F          MOVB      XAR0,#47              ; [CPU_] |753| 
    1864 000001ac CDA9          AND       AH,AL,#0x0008         ; [CPU_] |753| 
         000001ad 0008 
    1865 000001ae 9794          MOV       *+XAR4[AR0],AH        ; [CPU_] |753| 
    1866                      .dwpsn  file "D:/Foc/my_motor/sw/drivers/drvic/ldc1612.c",line 754,column 3,is_stmt
TMS320C2000 Assembler PC v6.2.5 Mon Jul 10 09:53:39 2017

Tools Copyright (c) 1996-2014 Texas Instruments Incorporated
C:\Users\wmj\AppData\Local\Temp\1375610                              PAGE   36

    1867 000001af D030          MOVB      XAR0,#48              ; [CPU_] |754| 
    1868 000001b0 CDA9          AND       AH,AL,#0x0040         ; [CPU_] |754| 
         000001b1 0040 
    1869 000001b2 9794          MOV       *+XAR4[AR0],AH        ; [CPU_] |754| 
    1870                      .dwpsn  file "D:/Foc/my_motor/sw/drivers/drvic/ldc1612.c",line 755,column 3,is_stmt
    1871 000001b3 D031          MOVB      XAR0,#49              ; [CPU_] |755| 
    1872 000001b4 CDA9          AND       AH,AL,#0x0100         ; [CPU_] |755| 
         000001b5 0100 
    1873 000001b6 9794          MOV       *+XAR4[AR0],AH        ; [CPU_] |755| 
    1874                      .dwpsn  file "D:/Foc/my_motor/sw/drivers/drvic/ldc1612.c",line 756,column 3,is_stmt
    1875 000001b7 D032          MOVB      XAR0,#50              ; [CPU_] |756| 
    1876 000001b8 CDA9          AND       AH,AL,#0x0200         ; [CPU_] |756| 
         000001b9 0200 
    1877 000001ba 9794          MOV       *+XAR4[AR0],AH        ; [CPU_] |756| 
    1878                      .dwpsn  file "D:/Foc/my_motor/sw/drivers/drvic/ldc1612.c",line 757,column 3,is_stmt
    1879 000001bb D033          MOVB      XAR0,#51              ; [CPU_] |757| 
    1880 000001bc CDA9          AND       AH,AL,#0x0400         ; [CPU_] |757| 
         000001bd 0400 
    1881 000001be 9794          MOV       *+XAR4[AR0],AH        ; [CPU_] |757| 
    1882                      .dwpsn  file "D:/Foc/my_motor/sw/drivers/drvic/ldc1612.c",line 758,column 3,is_stmt
    1883 000001bf D034          MOVB      XAR0,#52              ; [CPU_] |758| 
    1884 000001c0 CDA9          AND       AH,AL,#0x0800         ; [CPU_] |758| 
         000001c1 0800 
    1885 000001c2 9794          MOV       *+XAR4[AR0],AH        ; [CPU_] |758| 
    1886                      .dwpsn  file "D:/Foc/my_motor/sw/drivers/drvic/ldc1612.c",line 759,column 3,is_stmt
    1887 000001c3 D035          MOVB      XAR0,#53              ; [CPU_] |759| 
    1888 000001c4 CDA9          AND       AH,AL,#0x1000         ; [CPU_] |759| 
         000001c5 1000 
    1889 000001c6 9794          MOV       *+XAR4[AR0],AH        ; [CPU_] |759| 
    1890                      .dwpsn  file "D:/Foc/my_motor/sw/drivers/drvic/ldc1612.c",line 760,column 3,is_stmt
    1891 000001c7 D036          MOVB      XAR0,#54              ; [CPU_] |760| 
    1892 000001c8 CDA9          AND       AH,AL,#0x2000         ; [CPU_] |760| 
         000001c9 2000 
    1893 000001ca 9794          MOV       *+XAR4[AR0],AH        ; [CPU_] |760| 
    1894                      .dwpsn  file "D:/Foc/my_motor/sw/drivers/drvic/ldc1612.c",line 761,column 3,is_stmt
    1895 000001cb CDA9          AND       AH,AL,#0x4000         ; [CPU_] |761| 
         000001cc 4000 
    1896 000001cd D037          MOVB      XAR0,#55              ; [CPU_] |761| 
    1897                      .dwpsn  file "D:/Foc/my_motor/sw/drivers/drvic/ldc1612.c",line 762,column 3,is_stmt
    1898 000001ce CCA9          AND       AL,AL,#0x8000         ; [CPU_] |762| 
         000001cf 8000 
    1899                      .dwpsn  file "D:/Foc/my_motor/sw/drivers/drvic/ldc1612.c",line 761,column 3,is_stmt
    1900 000001d0 9794          MOV       *+XAR4[AR0],AH        ; [CPU_] |761| 
    1901                      .dwpsn  file "D:/Foc/my_motor/sw/drivers/drvic/ldc1612.c",line 762,column 3,is_stmt
    1902 000001d1 D038          MOVB      XAR0,#56              ; [CPU_] |762| 
    1903 000001d2 9694          MOV       *+XAR4[AR0],AL        ; [CPU_] |762| 
    1904              $C$DW$163       .dwtag  DW_TAG_TI_branch
    1905                      .dwattr $C$DW$163, DW_AT_low_pc(0x00)
    1906                      .dwattr $C$DW$163, DW_AT_TI_return
    1907 000001d3 0006          LRETR     ; [CPU_] 
    1908                      ; return occurs ; [] 
    1909                      .dwattr $C$DW$158, DW_AT_TI_end_file("D:/Foc/my_motor/sw/drivers/drvic/ldc1612.c")
    1910                      .dwattr $C$DW$158, DW_AT_TI_end_line(0x2fd)
    1911                      .dwattr $C$DW$158, DW_AT_TI_end_column(0x01)
    1912                      .dwendentry
TMS320C2000 Assembler PC v6.2.5 Mon Jul 10 09:53:39 2017

Tools Copyright (c) 1996-2014 Texas Instruments Incorporated
C:\Users\wmj\AppData\Local\Temp\1375610                              PAGE   37

    1913                      .dwendtag $C$DW$158
    1914              
    1915 000001d4               .sect   ".text"
    1916                      .clink
    1917                      .global _LDC161x_setSettleCnt
    1918              
    1919              $C$DW$164       .dwtag  DW_TAG_subprogram, DW_AT_name("LDC161x_setSettleCnt")
    1920                      .dwattr $C$DW$164, DW_AT_low_pc(_LDC161x_setSettleCnt)
    1921                      .dwattr $C$DW$164, DW_AT_high_pc(0x00)
    1922                      .dwattr $C$DW$164, DW_AT_TI_symbol_name("_LDC161x_setSettleCnt")
    1923                      .dwattr $C$DW$164, DW_AT_external
    1924                      .dwattr $C$DW$164, DW_AT_TI_begin_file("D:/Foc/my_motor/sw/drivers/drvic/ldc1612.c")
    1925                      .dwattr $C$DW$164, DW_AT_TI_begin_line(0x2bb)
    1926                      .dwattr $C$DW$164, DW_AT_TI_begin_column(0x06)
    1927                      .dwattr $C$DW$164, DW_AT_TI_max_frame_size(-2)
    1928                      .dwpsn  file "D:/Foc/my_motor/sw/drivers/drvic/ldc1612.c",line 700,column 1,is_stmt,address _LDC161x_
    1929              
    1930                      .dwfde $C$DW$CIE, _LDC161x_setSettleCnt
    1931              $C$DW$165       .dwtag  DW_TAG_formal_parameter, DW_AT_name("handle")
    1932                      .dwattr $C$DW$165, DW_AT_TI_symbol_name("_handle")
    1933                      .dwattr $C$DW$165, DW_AT_type(*$C$DW$T$47)
    1934                      .dwattr $C$DW$165, DW_AT_location[DW_OP_reg12]
    1935              $C$DW$166       .dwtag  DW_TAG_formal_parameter, DW_AT_name("Channel")
    1936                      .dwattr $C$DW$166, DW_AT_TI_symbol_name("_Channel")
    1937                      .dwattr $C$DW$166, DW_AT_type(*$C$DW$T$136)
    1938                      .dwattr $C$DW$166, DW_AT_location[DW_OP_reg0]
    1939              $C$DW$167       .dwtag  DW_TAG_formal_parameter, DW_AT_name("drvData")
    1940                      .dwattr $C$DW$167, DW_AT_TI_symbol_name("_drvData")
    1941                      .dwattr $C$DW$167, DW_AT_type(*$C$DW$T$21)
    1942                      .dwattr $C$DW$167, DW_AT_location[DW_OP_reg1]
    1943              
    1944              ;***************************************************************
    1945              ;* FNAME: _LDC161x_setSettleCnt         FR SIZE:   0           *
    1946              ;*                                                             *
    1947              ;* FUNCTION ENVIRONMENT                                        *
    1948              ;*                                                             *
    1949              ;* FUNCTION PROPERTIES                                         *
    1950              ;*                            0 Parameter,  0 Auto,  0 SOE     *
    1951              ;***************************************************************
    1952              
    1953              _LDC161x_setSettleCnt:
    1954              ;* AR4   assigned to _obj
    1955              $C$DW$168       .dwtag  DW_TAG_variable, DW_AT_name("obj")
    1956                      .dwattr $C$DW$168, DW_AT_TI_symbol_name("_obj")
    1957                      .dwattr $C$DW$168, DW_AT_type(*$C$DW$T$125)
    1958                      .dwattr $C$DW$168, DW_AT_location[DW_OP_reg12]
    1959              ;* AH    assigned to _drvData
    1960              $C$DW$169       .dwtag  DW_TAG_variable, DW_AT_name("drvData")
    1961                      .dwattr $C$DW$169, DW_AT_TI_symbol_name("_drvData")
    1962                      .dwattr $C$DW$169, DW_AT_type(*$C$DW$T$136)
    1963                      .dwattr $C$DW$169, DW_AT_location[DW_OP_reg1]
    1964              ;* AL    assigned to _Channel
    1965              $C$DW$170       .dwtag  DW_TAG_variable, DW_AT_name("Channel")
    1966                      .dwattr $C$DW$170, DW_AT_TI_symbol_name("_Channel")
    1967                      .dwattr $C$DW$170, DW_AT_type(*$C$DW$T$136)
TMS320C2000 Assembler PC v6.2.5 Mon Jul 10 09:53:39 2017

Tools Copyright (c) 1996-2014 Texas Instruments Incorporated
C:\Users\wmj\AppData\Local\Temp\1375610                              PAGE   38

    1968                      .dwattr $C$DW$170, DW_AT_location[DW_OP_reg0]
    1969              ;* AR4   assigned to _handle
    1970              $C$DW$171       .dwtag  DW_TAG_variable, DW_AT_name("handle")
    1971                      .dwattr $C$DW$171, DW_AT_TI_symbol_name("_handle")
    1972                      .dwattr $C$DW$171, DW_AT_type(*$C$DW$T$109)
    1973                      .dwattr $C$DW$171, DW_AT_location[DW_OP_reg12]
    1974                      .dwcfi  cfa_offset, -2
    1975                      .dwcfi  save_reg_to_mem, 26, 0
    1976                      .dwcfi  save_reg_to_reg, 78, 26
    1977                      .dwpsn  file "D:/Foc/my_motor/sw/drivers/drvic/ldc1612.c",line 703,column 3,is_stmt
    1978 000001d4 5200          CMPB      AL,#0                 ; [CPU_] |703| 
    1979 000001d5 EC0F          BF        $C$L62,EQ             ; [CPU_] |703| 
    1980                      ; branchcc occurs ; [] |703| 
    1981 000001d6 5201          CMPB      AL,#1                 ; [CPU_] |703| 
    1982 000001d7 EC0B          BF        $C$L61,EQ             ; [CPU_] |703| 
    1983                      ; branchcc occurs ; [] |703| 
    1984 000001d8 5202          CMPB      AL,#2                 ; [CPU_] |703| 
    1985 000001d9 EC07          BF        $C$L60,EQ             ; [CPU_] |703| 
    1986                      ; branchcc occurs ; [] |703| 
    1987 000001da 5203          CMPB      AL,#3                 ; [CPU_] |703| 
    1988                      .dwpsn  file "D:/Foc/my_motor/sw/drivers/drvic/ldc1612.c",line 708,column 14,is_stmt
    1989 000001db 56B1          MOVB      XAR0,#35,EQ           ; [CPU_] |708| 
         000001dc 23A0 
    1990 000001dd 562B          MOV       *+XAR4[AR0],AH,EQ     ; [CPU_] |708| 
         000001de 0194 
    1991              $C$DW$172       .dwtag  DW_TAG_TI_branch
    1992                      .dwattr $C$DW$172, DW_AT_low_pc(0x00)
    1993                      .dwattr $C$DW$172, DW_AT_TI_return
    1994 000001df 0006          LRETR     ; [CPU_] 
    1995                      ; return occurs ; [] 
    1996 000001e0       $C$L60:    
    1997                      .dwpsn  file "D:/Foc/my_motor/sw/drivers/drvic/ldc1612.c",line 707,column 14,is_stmt
    1998 000001e0 D022          MOVB      XAR0,#34              ; [CPU_] |707| 
    1999                      .dwpsn  file "D:/Foc/my_motor/sw/drivers/drvic/ldc1612.c",line 707,column 59,is_stmt
    2000 000001e1 6F04          B         $C$L63,UNC            ; [CPU_] |707| 
    2001                      ; branch occurs ; [] |707| 
    2002 000001e2       $C$L61:    
    2003                      .dwpsn  file "D:/Foc/my_motor/sw/drivers/drvic/ldc1612.c",line 706,column 14,is_stmt
    2004 000001e2 D021          MOVB      XAR0,#33              ; [CPU_] |706| 
    2005                      .dwpsn  file "D:/Foc/my_motor/sw/drivers/drvic/ldc1612.c",line 706,column 59,is_stmt
    2006 000001e3 6F02          B         $C$L63,UNC            ; [CPU_] |706| 
    2007                      ; branch occurs ; [] |706| 
    2008 000001e4       $C$L62:    
    2009                      .dwpsn  file "D:/Foc/my_motor/sw/drivers/drvic/ldc1612.c",line 705,column 14,is_stmt
    2010 000001e4 D020          MOVB      XAR0,#32              ; [CPU_] |705| 
    2011 000001e5       $C$L63:    
    2012 000001e5 9794          MOV       *+XAR4[AR0],AH        ; [CPU_] |705| 
    2013              $C$DW$173       .dwtag  DW_TAG_TI_branch
    2014                      .dwattr $C$DW$173, DW_AT_low_pc(0x00)
    2015                      .dwattr $C$DW$173, DW_AT_TI_return
    2016 000001e6 0006          LRETR     ; [CPU_] 
    2017                      ; return occurs ; [] 
    2018                      .dwattr $C$DW$164, DW_AT_TI_end_file("D:/Foc/my_motor/sw/drivers/drvic/ldc1612.c")
    2019                      .dwattr $C$DW$164, DW_AT_TI_end_line(0x2c8)
    2020                      .dwattr $C$DW$164, DW_AT_TI_end_column(0x01)
TMS320C2000 Assembler PC v6.2.5 Mon Jul 10 09:53:39 2017

Tools Copyright (c) 1996-2014 Texas Instruments Incorporated
C:\Users\wmj\AppData\Local\Temp\1375610                              PAGE   39

    2021                      .dwendentry
    2022                      .dwendtag $C$DW$164
    2023              
    2024 000001e7               .sect   ".text"
    2025                      .clink
    2026                      .global _LDC161x_setRcount
    2027              
    2028              $C$DW$174       .dwtag  DW_TAG_subprogram, DW_AT_name("LDC161x_setRcount")
    2029                      .dwattr $C$DW$174, DW_AT_low_pc(_LDC161x_setRcount)
    2030                      .dwattr $C$DW$174, DW_AT_high_pc(0x00)
    2031                      .dwattr $C$DW$174, DW_AT_TI_symbol_name("_LDC161x_setRcount")
    2032                      .dwattr $C$DW$174, DW_AT_external
    2033                      .dwattr $C$DW$174, DW_AT_TI_begin_file("D:/Foc/my_motor/sw/drivers/drvic/ldc1612.c")
    2034                      .dwattr $C$DW$174, DW_AT_TI_begin_line(0x293)
    2035                      .dwattr $C$DW$174, DW_AT_TI_begin_column(0x06)
    2036                      .dwattr $C$DW$174, DW_AT_TI_max_frame_size(-2)
    2037                      .dwpsn  file "D:/Foc/my_motor/sw/drivers/drvic/ldc1612.c",line 660,column 1,is_stmt,address _LDC161x_
    2038              
    2039                      .dwfde $C$DW$CIE, _LDC161x_setRcount
    2040              $C$DW$175       .dwtag  DW_TAG_formal_parameter, DW_AT_name("handle")
    2041                      .dwattr $C$DW$175, DW_AT_TI_symbol_name("_handle")
    2042                      .dwattr $C$DW$175, DW_AT_type(*$C$DW$T$47)
    2043                      .dwattr $C$DW$175, DW_AT_location[DW_OP_reg12]
    2044              $C$DW$176       .dwtag  DW_TAG_formal_parameter, DW_AT_name("Channel")
    2045                      .dwattr $C$DW$176, DW_AT_TI_symbol_name("_Channel")
    2046                      .dwattr $C$DW$176, DW_AT_type(*$C$DW$T$136)
    2047                      .dwattr $C$DW$176, DW_AT_location[DW_OP_reg0]
    2048              $C$DW$177       .dwtag  DW_TAG_formal_parameter, DW_AT_name("drvData")
    2049                      .dwattr $C$DW$177, DW_AT_TI_symbol_name("_drvData")
    2050                      .dwattr $C$DW$177, DW_AT_type(*$C$DW$T$21)
    2051                      .dwattr $C$DW$177, DW_AT_location[DW_OP_reg1]
    2052              
    2053              ;***************************************************************
    2054              ;* FNAME: _LDC161x_setRcount            FR SIZE:   0           *
    2055              ;*                                                             *
    2056              ;* FUNCTION ENVIRONMENT                                        *
    2057              ;*                                                             *
    2058              ;* FUNCTION PROPERTIES                                         *
    2059              ;*                            0 Parameter,  0 Auto,  0 SOE     *
    2060              ;***************************************************************
    2061              
    2062              _LDC161x_setRcount:
    2063              ;* AR4   assigned to _obj
    2064              $C$DW$178       .dwtag  DW_TAG_variable, DW_AT_name("obj")
    2065                      .dwattr $C$DW$178, DW_AT_TI_symbol_name("_obj")
    2066                      .dwattr $C$DW$178, DW_AT_type(*$C$DW$T$125)
    2067                      .dwattr $C$DW$178, DW_AT_location[DW_OP_reg12]
    2068              ;* AH    assigned to _drvData
    2069              $C$DW$179       .dwtag  DW_TAG_variable, DW_AT_name("drvData")
    2070                      .dwattr $C$DW$179, DW_AT_TI_symbol_name("_drvData")
    2071                      .dwattr $C$DW$179, DW_AT_type(*$C$DW$T$136)
    2072                      .dwattr $C$DW$179, DW_AT_location[DW_OP_reg1]
    2073              ;* AL    assigned to _Channel
    2074              $C$DW$180       .dwtag  DW_TAG_variable, DW_AT_name("Channel")
    2075                      .dwattr $C$DW$180, DW_AT_TI_symbol_name("_Channel")
TMS320C2000 Assembler PC v6.2.5 Mon Jul 10 09:53:39 2017

Tools Copyright (c) 1996-2014 Texas Instruments Incorporated
C:\Users\wmj\AppData\Local\Temp\1375610                              PAGE   40

    2076                      .dwattr $C$DW$180, DW_AT_type(*$C$DW$T$136)
    2077                      .dwattr $C$DW$180, DW_AT_location[DW_OP_reg0]
    2078              ;* AR4   assigned to _handle
    2079              $C$DW$181       .dwtag  DW_TAG_variable, DW_AT_name("handle")
    2080                      .dwattr $C$DW$181, DW_AT_TI_symbol_name("_handle")
    2081                      .dwattr $C$DW$181, DW_AT_type(*$C$DW$T$109)
    2082                      .dwattr $C$DW$181, DW_AT_location[DW_OP_reg12]
    2083                      .dwcfi  cfa_offset, -2
    2084                      .dwcfi  save_reg_to_mem, 26, 0
    2085                      .dwcfi  save_reg_to_reg, 78, 26
    2086                      .dwpsn  file "D:/Foc/my_motor/sw/drivers/drvic/ldc1612.c",line 663,column 3,is_stmt
    2087 000001e7 5200          CMPB      AL,#0                 ; [CPU_] |663| 
    2088 000001e8 EC0F          BF        $C$L66,EQ             ; [CPU_] |663| 
    2089                      ; branchcc occurs ; [] |663| 
    2090 000001e9 5201          CMPB      AL,#1                 ; [CPU_] |663| 
    2091 000001ea EC0B          BF        $C$L65,EQ             ; [CPU_] |663| 
    2092                      ; branchcc occurs ; [] |663| 
    2093 000001eb 5202          CMPB      AL,#2                 ; [CPU_] |663| 
    2094 000001ec EC07          BF        $C$L64,EQ             ; [CPU_] |663| 
    2095                      ; branchcc occurs ; [] |663| 
    2096 000001ed 5203          CMPB      AL,#3                 ; [CPU_] |663| 
    2097                      .dwpsn  file "D:/Foc/my_motor/sw/drivers/drvic/ldc1612.c",line 668,column 14,is_stmt
    2098 000001ee 56B1          MOVB      XAR0,#27,EQ           ; [CPU_] |668| 
         000001ef 1BA0 
    2099 000001f0 562B          MOV       *+XAR4[AR0],AH,EQ     ; [CPU_] |668| 
         000001f1 0194 
    2100              $C$DW$182       .dwtag  DW_TAG_TI_branch
    2101                      .dwattr $C$DW$182, DW_AT_low_pc(0x00)
    2102                      .dwattr $C$DW$182, DW_AT_TI_return
    2103 000001f2 0006          LRETR     ; [CPU_] 
    2104                      ; return occurs ; [] 
    2105 000001f3       $C$L64:    
    2106                      .dwpsn  file "D:/Foc/my_motor/sw/drivers/drvic/ldc1612.c",line 667,column 14,is_stmt
    2107 000001f3 D01A          MOVB      XAR0,#26              ; [CPU_] |667| 
    2108                      .dwpsn  file "D:/Foc/my_motor/sw/drivers/drvic/ldc1612.c",line 667,column 51,is_stmt
    2109 000001f4 6F04          B         $C$L67,UNC            ; [CPU_] |667| 
    2110                      ; branch occurs ; [] |667| 
    2111 000001f5       $C$L65:    
    2112                      .dwpsn  file "D:/Foc/my_motor/sw/drivers/drvic/ldc1612.c",line 666,column 14,is_stmt
    2113 000001f5 D019          MOVB      XAR0,#25              ; [CPU_] |666| 
    2114                      .dwpsn  file "D:/Foc/my_motor/sw/drivers/drvic/ldc1612.c",line 666,column 51,is_stmt
    2115 000001f6 6F02          B         $C$L67,UNC            ; [CPU_] |666| 
    2116                      ; branch occurs ; [] |666| 
    2117 000001f7       $C$L66:    
    2118                      .dwpsn  file "D:/Foc/my_motor/sw/drivers/drvic/ldc1612.c",line 665,column 14,is_stmt
    2119 000001f7 D018          MOVB      XAR0,#24              ; [CPU_] |665| 
    2120 000001f8       $C$L67:    
    2121 000001f8 9794          MOV       *+XAR4[AR0],AH        ; [CPU_] |665| 
    2122              $C$DW$183       .dwtag  DW_TAG_TI_branch
    2123                      .dwattr $C$DW$183, DW_AT_low_pc(0x00)
    2124                      .dwattr $C$DW$183, DW_AT_TI_return
    2125 000001f9 0006          LRETR     ; [CPU_] 
    2126                      ; return occurs ; [] 
    2127                      .dwattr $C$DW$174, DW_AT_TI_end_file("D:/Foc/my_motor/sw/drivers/drvic/ldc1612.c")
    2128                      .dwattr $C$DW$174, DW_AT_TI_end_line(0x2a0)
TMS320C2000 Assembler PC v6.2.5 Mon Jul 10 09:53:39 2017

Tools Copyright (c) 1996-2014 Texas Instruments Incorporated
C:\Users\wmj\AppData\Local\Temp\1375610                              PAGE   41

    2129                      .dwattr $C$DW$174, DW_AT_TI_end_column(0x01)
    2130                      .dwendentry
    2131                      .dwendtag $C$DW$174
    2132              
    2133 000001fa               .sect   ".text"
    2134                      .clink
    2135                      .global _LDC161x_setOffset
    2136              
    2137              $C$DW$184       .dwtag  DW_TAG_subprogram, DW_AT_name("LDC161x_setOffset")
    2138                      .dwattr $C$DW$184, DW_AT_low_pc(_LDC161x_setOffset)
    2139                      .dwattr $C$DW$184, DW_AT_high_pc(0x00)
    2140                      .dwattr $C$DW$184, DW_AT_TI_symbol_name("_LDC161x_setOffset")
    2141                      .dwattr $C$DW$184, DW_AT_external
    2142                      .dwattr $C$DW$184, DW_AT_TI_begin_file("D:/Foc/my_motor/sw/drivers/drvic/ldc1612.c")
    2143                      .dwattr $C$DW$184, DW_AT_TI_begin_line(0x2a7)
    2144                      .dwattr $C$DW$184, DW_AT_TI_begin_column(0x06)
    2145                      .dwattr $C$DW$184, DW_AT_TI_max_frame_size(-2)
    2146                      .dwpsn  file "D:/Foc/my_motor/sw/drivers/drvic/ldc1612.c",line 680,column 1,is_stmt,address _LDC161x_
    2147              
    2148                      .dwfde $C$DW$CIE, _LDC161x_setOffset
    2149              $C$DW$185       .dwtag  DW_TAG_formal_parameter, DW_AT_name("handle")
    2150                      .dwattr $C$DW$185, DW_AT_TI_symbol_name("_handle")
    2151                      .dwattr $C$DW$185, DW_AT_type(*$C$DW$T$47)
    2152                      .dwattr $C$DW$185, DW_AT_location[DW_OP_reg12]
    2153              $C$DW$186       .dwtag  DW_TAG_formal_parameter, DW_AT_name("Channel")
    2154                      .dwattr $C$DW$186, DW_AT_TI_symbol_name("_Channel")
    2155                      .dwattr $C$DW$186, DW_AT_type(*$C$DW$T$136)
    2156                      .dwattr $C$DW$186, DW_AT_location[DW_OP_reg0]
    2157              $C$DW$187       .dwtag  DW_TAG_formal_parameter, DW_AT_name("drvData")
    2158                      .dwattr $C$DW$187, DW_AT_TI_symbol_name("_drvData")
    2159                      .dwattr $C$DW$187, DW_AT_type(*$C$DW$T$21)
    2160                      .dwattr $C$DW$187, DW_AT_location[DW_OP_reg1]
    2161              
    2162              ;***************************************************************
    2163              ;* FNAME: _LDC161x_setOffset            FR SIZE:   0           *
    2164              ;*                                                             *
    2165              ;* FUNCTION ENVIRONMENT                                        *
    2166              ;*                                                             *
    2167              ;* FUNCTION PROPERTIES                                         *
    2168              ;*                            0 Parameter,  0 Auto,  0 SOE     *
    2169              ;***************************************************************
    2170              
    2171              _LDC161x_setOffset:
    2172              ;* AR4   assigned to _obj
    2173              $C$DW$188       .dwtag  DW_TAG_variable, DW_AT_name("obj")
    2174                      .dwattr $C$DW$188, DW_AT_TI_symbol_name("_obj")
    2175                      .dwattr $C$DW$188, DW_AT_type(*$C$DW$T$125)
    2176                      .dwattr $C$DW$188, DW_AT_location[DW_OP_reg12]
    2177              ;* AH    assigned to _drvData
    2178              $C$DW$189       .dwtag  DW_TAG_variable, DW_AT_name("drvData")
    2179                      .dwattr $C$DW$189, DW_AT_TI_symbol_name("_drvData")
    2180                      .dwattr $C$DW$189, DW_AT_type(*$C$DW$T$136)
    2181                      .dwattr $C$DW$189, DW_AT_location[DW_OP_reg1]
    2182              ;* AL    assigned to _Channel
    2183              $C$DW$190       .dwtag  DW_TAG_variable, DW_AT_name("Channel")
TMS320C2000 Assembler PC v6.2.5 Mon Jul 10 09:53:39 2017

Tools Copyright (c) 1996-2014 Texas Instruments Incorporated
C:\Users\wmj\AppData\Local\Temp\1375610                              PAGE   42

    2184                      .dwattr $C$DW$190, DW_AT_TI_symbol_name("_Channel")
    2185                      .dwattr $C$DW$190, DW_AT_type(*$C$DW$T$136)
    2186                      .dwattr $C$DW$190, DW_AT_location[DW_OP_reg0]
    2187              ;* AR4   assigned to _handle
    2188              $C$DW$191       .dwtag  DW_TAG_variable, DW_AT_name("handle")
    2189                      .dwattr $C$DW$191, DW_AT_TI_symbol_name("_handle")
    2190                      .dwattr $C$DW$191, DW_AT_type(*$C$DW$T$109)
    2191                      .dwattr $C$DW$191, DW_AT_location[DW_OP_reg12]
    2192                      .dwcfi  cfa_offset, -2
    2193                      .dwcfi  save_reg_to_mem, 26, 0
    2194                      .dwcfi  save_reg_to_reg, 78, 26
    2195                      .dwpsn  file "D:/Foc/my_motor/sw/drivers/drvic/ldc1612.c",line 683,column 3,is_stmt
    2196 000001fa 5200          CMPB      AL,#0                 ; [CPU_] |683| 
    2197 000001fb EC0F          BF        $C$L70,EQ             ; [CPU_] |683| 
    2198                      ; branchcc occurs ; [] |683| 
    2199 000001fc 5201          CMPB      AL,#1                 ; [CPU_] |683| 
    2200 000001fd EC0B          BF        $C$L69,EQ             ; [CPU_] |683| 
    2201                      ; branchcc occurs ; [] |683| 
    2202 000001fe 5202          CMPB      AL,#2                 ; [CPU_] |683| 
    2203 000001ff EC07          BF        $C$L68,EQ             ; [CPU_] |683| 
    2204                      ; branchcc occurs ; [] |683| 
    2205 00000200 5203          CMPB      AL,#3                 ; [CPU_] |683| 
    2206                      .dwpsn  file "D:/Foc/my_motor/sw/drivers/drvic/ldc1612.c",line 688,column 14,is_stmt
    2207 00000201 56B1          MOVB      XAR0,#31,EQ           ; [CPU_] |688| 
         00000202 1FA0 
    2208 00000203 562B          MOV       *+XAR4[AR0],AH,EQ     ; [CPU_] |688| 
         00000204 0194 
    2209              $C$DW$192       .dwtag  DW_TAG_TI_branch
    2210                      .dwattr $C$DW$192, DW_AT_low_pc(0x00)
    2211                      .dwattr $C$DW$192, DW_AT_TI_return
    2212 00000205 0006          LRETR     ; [CPU_] 
    2213                      ; return occurs ; [] 
    2214 00000206       $C$L68:    
    2215                      .dwpsn  file "D:/Foc/my_motor/sw/drivers/drvic/ldc1612.c",line 687,column 14,is_stmt
    2216 00000206 D01E          MOVB      XAR0,#30              ; [CPU_] |687| 
    2217                      .dwpsn  file "D:/Foc/my_motor/sw/drivers/drvic/ldc1612.c",line 687,column 51,is_stmt
    2218 00000207 6F04          B         $C$L71,UNC            ; [CPU_] |687| 
    2219                      ; branch occurs ; [] |687| 
    2220 00000208       $C$L69:    
    2221                      .dwpsn  file "D:/Foc/my_motor/sw/drivers/drvic/ldc1612.c",line 686,column 14,is_stmt
    2222 00000208 D01D          MOVB      XAR0,#29              ; [CPU_] |686| 
    2223                      .dwpsn  file "D:/Foc/my_motor/sw/drivers/drvic/ldc1612.c",line 686,column 51,is_stmt
    2224 00000209 6F02          B         $C$L71,UNC            ; [CPU_] |686| 
    2225                      ; branch occurs ; [] |686| 
    2226 0000020a       $C$L70:    
    2227                      .dwpsn  file "D:/Foc/my_motor/sw/drivers/drvic/ldc1612.c",line 685,column 14,is_stmt
    2228 0000020a D01C          MOVB      XAR0,#28              ; [CPU_] |685| 
    2229 0000020b       $C$L71:    
    2230 0000020b 9794          MOV       *+XAR4[AR0],AH        ; [CPU_] |685| 
    2231              $C$DW$193       .dwtag  DW_TAG_TI_branch
    2232                      .dwattr $C$DW$193, DW_AT_low_pc(0x00)
    2233                      .dwattr $C$DW$193, DW_AT_TI_return
    2234 0000020c 0006          LRETR     ; [CPU_] 
    2235                      ; return occurs ; [] 
    2236                      .dwattr $C$DW$184, DW_AT_TI_end_file("D:/Foc/my_motor/sw/drivers/drvic/ldc1612.c")
TMS320C2000 Assembler PC v6.2.5 Mon Jul 10 09:53:39 2017

Tools Copyright (c) 1996-2014 Texas Instruments Incorporated
C:\Users\wmj\AppData\Local\Temp\1375610                              PAGE   43

    2237                      .dwattr $C$DW$184, DW_AT_TI_end_line(0x2b4)
    2238                      .dwattr $C$DW$184, DW_AT_TI_end_column(0x01)
    2239                      .dwendentry
    2240                      .dwendtag $C$DW$184
    2241              
    2242 0000020d               .sect   ".text"
    2243                      .clink
    2244                      .global _LDC161x_setMuxConfig
    2245              
    2246              $C$DW$194       .dwtag  DW_TAG_subprogram, DW_AT_name("LDC161x_setMuxConfig")
    2247                      .dwattr $C$DW$194, DW_AT_low_pc(_LDC161x_setMuxConfig)
    2248                      .dwattr $C$DW$194, DW_AT_high_pc(0x00)
    2249                      .dwattr $C$DW$194, DW_AT_TI_symbol_name("_LDC161x_setMuxConfig")
    2250                      .dwattr $C$DW$194, DW_AT_external
    2251                      .dwattr $C$DW$194, DW_AT_TI_begin_file("D:/Foc/my_motor/sw/drivers/drvic/ldc1612.c")
    2252                      .dwattr $C$DW$194, DW_AT_TI_begin_line(0x324)
    2253                      .dwattr $C$DW$194, DW_AT_TI_begin_column(0x06)
    2254                      .dwattr $C$DW$194, DW_AT_TI_max_frame_size(-2)
    2255                      .dwpsn  file "D:/Foc/my_motor/sw/drivers/drvic/ldc1612.c",line 805,column 1,is_stmt,address _LDC161x_
    2256              
    2257                      .dwfde $C$DW$CIE, _LDC161x_setMuxConfig
    2258              $C$DW$195       .dwtag  DW_TAG_formal_parameter, DW_AT_name("handle")
    2259                      .dwattr $C$DW$195, DW_AT_TI_symbol_name("_handle")
    2260                      .dwattr $C$DW$195, DW_AT_type(*$C$DW$T$47)
    2261                      .dwattr $C$DW$195, DW_AT_location[DW_OP_reg12]
    2262              $C$DW$196       .dwtag  DW_TAG_formal_parameter, DW_AT_name("drvData")
    2263                      .dwattr $C$DW$196, DW_AT_TI_symbol_name("_drvData")
    2264                      .dwattr $C$DW$196, DW_AT_type(*$C$DW$T$21)
    2265                      .dwattr $C$DW$196, DW_AT_location[DW_OP_reg0]
    2266              
    2267              ;***************************************************************
    2268              ;* FNAME: _LDC161x_setMuxConfig         FR SIZE:   0           *
    2269              ;*                                                             *
    2270              ;* FUNCTION ENVIRONMENT                                        *
    2271              ;*                                                             *
    2272              ;* FUNCTION PROPERTIES                                         *
    2273              ;*                            0 Parameter,  0 Auto,  0 SOE     *
    2274              ;***************************************************************
    2275              
    2276              _LDC161x_setMuxConfig:
    2277              ;* AR4   assigned to _handle
    2278              $C$DW$197       .dwtag  DW_TAG_variable, DW_AT_name("handle")
    2279                      .dwattr $C$DW$197, DW_AT_TI_symbol_name("_handle")
    2280                      .dwattr $C$DW$197, DW_AT_type(*$C$DW$T$109)
    2281                      .dwattr $C$DW$197, DW_AT_location[DW_OP_reg12]
    2282              ;* AL    assigned to _drvData
    2283              $C$DW$198       .dwtag  DW_TAG_variable, DW_AT_name("drvData")
    2284                      .dwattr $C$DW$198, DW_AT_TI_symbol_name("_drvData")
    2285                      .dwattr $C$DW$198, DW_AT_type(*$C$DW$T$136)
    2286                      .dwattr $C$DW$198, DW_AT_location[DW_OP_reg0]
    2287                      .dwcfi  cfa_offset, -2
    2288                      .dwcfi  save_reg_to_mem, 26, 0
    2289                      .dwcfi  save_reg_to_reg, 78, 26
    2290                      .dwpsn  file "D:/Foc/my_motor/sw/drivers/drvic/ldc1612.c",line 808,column 3,is_stmt
    2291 0000020d D04E          MOVB      XAR0,#78              ; [CPU_] |808| 
TMS320C2000 Assembler PC v6.2.5 Mon Jul 10 09:53:39 2017

Tools Copyright (c) 1996-2014 Texas Instruments Incorporated
C:\Users\wmj\AppData\Local\Temp\1375610                              PAGE   44

    2292 0000020e CDA9          AND       AH,AL,#0x8000         ; [CPU_] |808| 
         0000020f 8000 
    2293 00000210 9794          MOV       *+XAR4[AR0],AH        ; [CPU_] |808| 
    2294                      .dwpsn  file "D:/Foc/my_motor/sw/drivers/drvic/ldc1612.c",line 809,column 3,is_stmt
    2295 00000211 D04F          MOVB      XAR0,#79              ; [CPU_] |809| 
    2296 00000212 CDA9          AND       AH,AL,#0x2000         ; [CPU_] |809| 
         00000213 2000 
    2297 00000214 9794          MOV       *+XAR4[AR0],AH        ; [CPU_] |809| 
    2298                      .dwpsn  file "D:/Foc/my_motor/sw/drivers/drvic/ldc1612.c",line 810,column 3,is_stmt
    2299 00000215 D050          MOVB      XAR0,#80              ; [CPU_] |810| 
    2300 00000216 CDA9          AND       AH,AL,#0x4000         ; [CPU_] |810| 
         00000217 4000 
    2301 00000218 9794          MOV       *+XAR4[AR0],AH        ; [CPU_] |810| 
    2302                      .dwpsn  file "D:/Foc/my_motor/sw/drivers/drvic/ldc1612.c",line 811,column 3,is_stmt
    2303 00000219 D051          MOVB      XAR0,#81              ; [CPU_] |811| 
    2304 0000021a CDA9          AND       AH,AL,#0x0001         ; [CPU_] |811| 
         0000021b 0001 
    2305 0000021c 9794          MOV       *+XAR4[AR0],AH        ; [CPU_] |811| 
    2306                      .dwpsn  file "D:/Foc/my_motor/sw/drivers/drvic/ldc1612.c",line 812,column 3,is_stmt
    2307 0000021d CDA9          AND       AH,AL,#0x0002         ; [CPU_] |812| 
         0000021e 0002 
    2308 0000021f D052          MOVB      XAR0,#82              ; [CPU_] |812| 
    2309                      .dwpsn  file "D:/Foc/my_motor/sw/drivers/drvic/ldc1612.c",line 813,column 3,is_stmt
    2310 00000220 9004          ANDB      AL,#4                 ; [CPU_] |813| 
    2311                      .dwpsn  file "D:/Foc/my_motor/sw/drivers/drvic/ldc1612.c",line 812,column 3,is_stmt
    2312 00000221 9794          MOV       *+XAR4[AR0],AH        ; [CPU_] |812| 
    2313                      .dwpsn  file "D:/Foc/my_motor/sw/drivers/drvic/ldc1612.c",line 813,column 3,is_stmt
    2314 00000222 D053          MOVB      XAR0,#83              ; [CPU_] |813| 
    2315 00000223 9694          MOV       *+XAR4[AR0],AL        ; [CPU_] |813| 
    2316              $C$DW$199       .dwtag  DW_TAG_TI_branch
    2317                      .dwattr $C$DW$199, DW_AT_low_pc(0x00)
    2318                      .dwattr $C$DW$199, DW_AT_TI_return
    2319 00000224 0006          LRETR     ; [CPU_] 
    2320                      ; return occurs ; [] 
    2321                      .dwattr $C$DW$194, DW_AT_TI_end_file("D:/Foc/my_motor/sw/drivers/drvic/ldc1612.c")
    2322                      .dwattr $C$DW$194, DW_AT_TI_end_line(0x330)
    2323                      .dwattr $C$DW$194, DW_AT_TI_end_column(0x01)
    2324                      .dwendentry
    2325                      .dwendtag $C$DW$194
    2326              
    2327 00000225               .sect   ".text"
    2328                      .clink
    2329                      .global _LDC161x_setI2cHandle
    2330              
    2331              $C$DW$200       .dwtag  DW_TAG_subprogram, DW_AT_name("LDC161x_setI2cHandle")
    2332                      .dwattr $C$DW$200, DW_AT_low_pc(_LDC161x_setI2cHandle)
    2333                      .dwattr $C$DW$200, DW_AT_high_pc(0x00)
    2334                      .dwattr $C$DW$200, DW_AT_TI_symbol_name("_LDC161x_setI2cHandle")
    2335                      .dwattr $C$DW$200, DW_AT_external
    2336                      .dwattr $C$DW$200, DW_AT_TI_begin_file("D:/Foc/my_motor/sw/drivers/drvic/ldc1612.c")
    2337                      .dwattr $C$DW$200, DW_AT_TI_begin_line(0x464)
    2338                      .dwattr $C$DW$200, DW_AT_TI_begin_column(0x06)
    2339                      .dwattr $C$DW$200, DW_AT_TI_max_frame_size(-2)
    2340                      .dwpsn  file "D:/Foc/my_motor/sw/drivers/drvic/ldc1612.c",line 1125,column 1,is_stmt,address _LDC161x
    2341              
TMS320C2000 Assembler PC v6.2.5 Mon Jul 10 09:53:39 2017

Tools Copyright (c) 1996-2014 Texas Instruments Incorporated
C:\Users\wmj\AppData\Local\Temp\1375610                              PAGE   45

    2342                      .dwfde $C$DW$CIE, _LDC161x_setI2cHandle
    2343              $C$DW$201       .dwtag  DW_TAG_formal_parameter, DW_AT_name("handle")
    2344                      .dwattr $C$DW$201, DW_AT_TI_symbol_name("_handle")
    2345                      .dwattr $C$DW$201, DW_AT_type(*$C$DW$T$120)
    2346                      .dwattr $C$DW$201, DW_AT_location[DW_OP_reg12]
    2347              $C$DW$202       .dwtag  DW_TAG_formal_parameter, DW_AT_name("i2cHandle")
    2348                      .dwattr $C$DW$202, DW_AT_TI_symbol_name("_i2cHandle")
    2349                      .dwattr $C$DW$202, DW_AT_type(*$C$DW$T$43)
    2350                      .dwattr $C$DW$202, DW_AT_location[DW_OP_reg14]
    2351              
    2352              ;***************************************************************
    2353              ;* FNAME: _LDC161x_setI2cHandle         FR SIZE:   0           *
    2354              ;*                                                             *
    2355              ;* FUNCTION ENVIRONMENT                                        *
    2356              ;*                                                             *
    2357              ;* FUNCTION PROPERTIES                                         *
    2358              ;*                            0 Parameter,  0 Auto,  0 SOE     *
    2359              ;***************************************************************
    2360              
    2361              _LDC161x_setI2cHandle:
    2362              ;* AR4   assigned to _handle
    2363              $C$DW$203       .dwtag  DW_TAG_variable, DW_AT_name("handle")
    2364                      .dwattr $C$DW$203, DW_AT_TI_symbol_name("_handle")
    2365                      .dwattr $C$DW$203, DW_AT_type(*$C$DW$T$121)
    2366                      .dwattr $C$DW$203, DW_AT_location[DW_OP_reg12]
    2367              ;* AR5   assigned to _i2cHandle
    2368              $C$DW$204       .dwtag  DW_TAG_variable, DW_AT_name("i2cHandle")
    2369                      .dwattr $C$DW$204, DW_AT_TI_symbol_name("_i2cHandle")
    2370                      .dwattr $C$DW$204, DW_AT_type(*$C$DW$T$107)
    2371                      .dwattr $C$DW$204, DW_AT_location[DW_OP_reg14]
    2372                      .dwcfi  cfa_offset, -2
    2373                      .dwcfi  save_reg_to_mem, 26, 0
    2374                      .dwcfi  save_reg_to_reg, 78, 26
    2375                      .dwpsn  file "D:/Foc/my_motor/sw/drivers/drvic/ldc1612.c",line 1128,column 3,is_stmt
    2376 00000225 A0C4          MOVL      *+XAR4[0],XAR5        ; [CPU_] |1128| 
    2377              $C$DW$205       .dwtag  DW_TAG_TI_branch
    2378                      .dwattr $C$DW$205, DW_AT_low_pc(0x00)
    2379                      .dwattr $C$DW$205, DW_AT_TI_return
    2380 00000226 0006          LRETR     ; [CPU_] 
    2381                      ; return occurs ; [] 
    2382                      .dwattr $C$DW$200, DW_AT_TI_end_file("D:/Foc/my_motor/sw/drivers/drvic/ldc1612.c")
    2383                      .dwattr $C$DW$200, DW_AT_TI_end_line(0x46c)
    2384                      .dwattr $C$DW$200, DW_AT_TI_end_column(0x01)
    2385                      .dwendentry
    2386                      .dwendtag $C$DW$200
    2387              
    2388 00000227               .sect   ".text"
    2389                      .clink
    2390                      .global _LDC161x_setGpioHandle
    2391              
    2392              $C$DW$206       .dwtag  DW_TAG_subprogram, DW_AT_name("LDC161x_setGpioHandle")
    2393                      .dwattr $C$DW$206, DW_AT_low_pc(_LDC161x_setGpioHandle)
    2394                      .dwattr $C$DW$206, DW_AT_high_pc(0x00)
    2395                      .dwattr $C$DW$206, DW_AT_TI_symbol_name("_LDC161x_setGpioHandle")
    2396                      .dwattr $C$DW$206, DW_AT_external
TMS320C2000 Assembler PC v6.2.5 Mon Jul 10 09:53:39 2017

Tools Copyright (c) 1996-2014 Texas Instruments Incorporated
C:\Users\wmj\AppData\Local\Temp\1375610                              PAGE   46

    2397                      .dwattr $C$DW$206, DW_AT_TI_begin_file("D:/Foc/my_motor/sw/drivers/drvic/ldc1612.c")
    2398                      .dwattr $C$DW$206, DW_AT_TI_begin_line(0x45a)
    2399                      .dwattr $C$DW$206, DW_AT_TI_begin_column(0x06)
    2400                      .dwattr $C$DW$206, DW_AT_TI_max_frame_size(-2)
    2401                      .dwpsn  file "D:/Foc/my_motor/sw/drivers/drvic/ldc1612.c",line 1115,column 1,is_stmt,address _LDC161x
    2402              
    2403                      .dwfde $C$DW$CIE, _LDC161x_setGpioHandle
    2404              $C$DW$207       .dwtag  DW_TAG_formal_parameter, DW_AT_name("handle")
    2405                      .dwattr $C$DW$207, DW_AT_TI_symbol_name("_handle")
    2406                      .dwattr $C$DW$207, DW_AT_type(*$C$DW$T$120)
    2407                      .dwattr $C$DW$207, DW_AT_location[DW_OP_reg12]
    2408              $C$DW$208       .dwtag  DW_TAG_formal_parameter, DW_AT_name("gpioHandle")
    2409                      .dwattr $C$DW$208, DW_AT_TI_symbol_name("_gpioHandle")
    2410                      .dwattr $C$DW$208, DW_AT_type(*$C$DW$T$45)
    2411                      .dwattr $C$DW$208, DW_AT_location[DW_OP_reg14]
    2412              
    2413              ;***************************************************************
    2414              ;* FNAME: _LDC161x_setGpioHandle        FR SIZE:   0           *
    2415              ;*                                                             *
    2416              ;* FUNCTION ENVIRONMENT                                        *
    2417              ;*                                                             *
    2418              ;* FUNCTION PROPERTIES                                         *
    2419              ;*                            0 Parameter,  0 Auto,  0 SOE     *
    2420              ;***************************************************************
    2421              
    2422              _LDC161x_setGpioHandle:
    2423              ;* AR4   assigned to _handle
    2424              $C$DW$209       .dwtag  DW_TAG_variable, DW_AT_name("handle")
    2425                      .dwattr $C$DW$209, DW_AT_TI_symbol_name("_handle")
    2426                      .dwattr $C$DW$209, DW_AT_type(*$C$DW$T$121)
    2427                      .dwattr $C$DW$209, DW_AT_location[DW_OP_reg12]
    2428              ;* AR5   assigned to _gpioHandle
    2429              $C$DW$210       .dwtag  DW_TAG_variable, DW_AT_name("gpioHandle")
    2430                      .dwattr $C$DW$210, DW_AT_TI_symbol_name("_gpioHandle")
    2431                      .dwattr $C$DW$210, DW_AT_type(*$C$DW$T$116)
    2432                      .dwattr $C$DW$210, DW_AT_location[DW_OP_reg14]
    2433                      .dwcfi  cfa_offset, -2
    2434                      .dwcfi  save_reg_to_mem, 26, 0
    2435                      .dwcfi  save_reg_to_reg, 78, 26
    2436                      .dwpsn  file "D:/Foc/my_motor/sw/drivers/drvic/ldc1612.c",line 1118,column 3,is_stmt
    2437 00000227 A0D4          MOVL      *+XAR4[2],XAR5        ; [CPU_] |1118| 
    2438              $C$DW$211       .dwtag  DW_TAG_TI_branch
    2439                      .dwattr $C$DW$211, DW_AT_low_pc(0x00)
    2440                      .dwattr $C$DW$211, DW_AT_TI_return
    2441 00000228 0006          LRETR     ; [CPU_] 
    2442                      ; return occurs ; [] 
    2443                      .dwattr $C$DW$206, DW_AT_TI_end_file("D:/Foc/my_motor/sw/drivers/drvic/ldc1612.c")
    2444                      .dwattr $C$DW$206, DW_AT_TI_end_line(0x462)
    2445                      .dwattr $C$DW$206, DW_AT_TI_end_column(0x01)
    2446                      .dwendentry
    2447                      .dwendtag $C$DW$206
    2448              
    2449 00000229               .sect   ".text"
    2450                      .clink
    2451                      .global _LDC161x_setErrors
TMS320C2000 Assembler PC v6.2.5 Mon Jul 10 09:53:39 2017

Tools Copyright (c) 1996-2014 Texas Instruments Incorporated
C:\Users\wmj\AppData\Local\Temp\1375610                              PAGE   47

    2452              
    2453              $C$DW$212       .dwtag  DW_TAG_subprogram, DW_AT_name("LDC161x_setErrors")
    2454                      .dwattr $C$DW$212, DW_AT_low_pc(_LDC161x_setErrors)
    2455                      .dwattr $C$DW$212, DW_AT_high_pc(0x00)
    2456                      .dwattr $C$DW$212, DW_AT_TI_symbol_name("_LDC161x_setErrors")
    2457                      .dwattr $C$DW$212, DW_AT_external
    2458                      .dwattr $C$DW$212, DW_AT_TI_begin_file("D:/Foc/my_motor/sw/drivers/drvic/ldc1612.c")
    2459                      .dwattr $C$DW$212, DW_AT_TI_begin_line(0x2ff)
    2460                      .dwattr $C$DW$212, DW_AT_TI_begin_column(0x06)
    2461                      .dwattr $C$DW$212, DW_AT_TI_max_frame_size(-2)
    2462                      .dwpsn  file "D:/Foc/my_motor/sw/drivers/drvic/ldc1612.c",line 768,column 1,is_stmt,address _LDC161x_
    2463              
    2464                      .dwfde $C$DW$CIE, _LDC161x_setErrors
    2465              $C$DW$213       .dwtag  DW_TAG_formal_parameter, DW_AT_name("handle")
    2466                      .dwattr $C$DW$213, DW_AT_TI_symbol_name("_handle")
    2467                      .dwattr $C$DW$213, DW_AT_type(*$C$DW$T$47)
    2468                      .dwattr $C$DW$213, DW_AT_location[DW_OP_reg12]
    2469              $C$DW$214       .dwtag  DW_TAG_formal_parameter, DW_AT_name("drvData")
    2470                      .dwattr $C$DW$214, DW_AT_TI_symbol_name("_drvData")
    2471                      .dwattr $C$DW$214, DW_AT_type(*$C$DW$T$21)
    2472                      .dwattr $C$DW$214, DW_AT_location[DW_OP_reg0]
    2473              
    2474              ;***************************************************************
    2475              ;* FNAME: _LDC161x_setErrors            FR SIZE:   0           *
    2476              ;*                                                             *
    2477              ;* FUNCTION ENVIRONMENT                                        *
    2478              ;*                                                             *
    2479              ;* FUNCTION PROPERTIES                                         *
    2480              ;*                            0 Parameter,  0 Auto,  0 SOE     *
    2481              ;***************************************************************
    2482              
    2483              _LDC161x_setErrors:
    2484              ;* AR4   assigned to _handle
    2485              $C$DW$215       .dwtag  DW_TAG_variable, DW_AT_name("handle")
    2486                      .dwattr $C$DW$215, DW_AT_TI_symbol_name("_handle")
    2487                      .dwattr $C$DW$215, DW_AT_type(*$C$DW$T$109)
    2488                      .dwattr $C$DW$215, DW_AT_location[DW_OP_reg12]
    2489              ;* AL    assigned to _drvData
    2490              $C$DW$216       .dwtag  DW_TAG_variable, DW_AT_name("drvData")
    2491                      .dwattr $C$DW$216, DW_AT_TI_symbol_name("_drvData")
    2492                      .dwattr $C$DW$216, DW_AT_type(*$C$DW$T$136)
    2493                      .dwattr $C$DW$216, DW_AT_location[DW_OP_reg0]
    2494                      .dwcfi  cfa_offset, -2
    2495                      .dwcfi  save_reg_to_mem, 26, 0
    2496                      .dwcfi  save_reg_to_reg, 78, 26
    2497                      .dwpsn  file "D:/Foc/my_motor/sw/drivers/drvic/ldc1612.c",line 771,column 3,is_stmt
    2498 00000229 D039          MOVB      XAR0,#57              ; [CPU_] |771| 
    2499 0000022a CDA9          AND       AH,AL,#0x8000         ; [CPU_] |771| 
         0000022b 8000 
    2500 0000022c 9794          MOV       *+XAR4[AR0],AH        ; [CPU_] |771| 
    2501                      .dwpsn  file "D:/Foc/my_motor/sw/drivers/drvic/ldc1612.c",line 772,column 3,is_stmt
    2502 0000022d D03A          MOVB      XAR0,#58              ; [CPU_] |772| 
    2503 0000022e CDA9          AND       AH,AL,#0x4000         ; [CPU_] |772| 
         0000022f 4000 
    2504 00000230 9794          MOV       *+XAR4[AR0],AH        ; [CPU_] |772| 
TMS320C2000 Assembler PC v6.2.5 Mon Jul 10 09:53:39 2017

Tools Copyright (c) 1996-2014 Texas Instruments Incorporated
C:\Users\wmj\AppData\Local\Temp\1375610                              PAGE   48

    2505                      .dwpsn  file "D:/Foc/my_motor/sw/drivers/drvic/ldc1612.c",line 773,column 3,is_stmt
    2506 00000231 D03B          MOVB      XAR0,#59              ; [CPU_] |773| 
    2507 00000232 CDA9          AND       AH,AL,#0x2000         ; [CPU_] |773| 
         00000233 2000 
    2508 00000234 9794          MOV       *+XAR4[AR0],AH        ; [CPU_] |773| 
    2509                      .dwpsn  file "D:/Foc/my_motor/sw/drivers/drvic/ldc1612.c",line 774,column 3,is_stmt
    2510 00000235 D03C          MOVB      XAR0,#60              ; [CPU_] |774| 
    2511 00000236 CDA9          AND       AH,AL,#0x1000         ; [CPU_] |774| 
         00000237 1000 
    2512 00000238 9794          MOV       *+XAR4[AR0],AH        ; [CPU_] |774| 
    2513                      .dwpsn  file "D:/Foc/my_motor/sw/drivers/drvic/ldc1612.c",line 775,column 3,is_stmt
    2514 00000239 D03D          MOVB      XAR0,#61              ; [CPU_] |775| 
    2515 0000023a CDA9          AND       AH,AL,#0x0800         ; [CPU_] |775| 
         0000023b 0800 
    2516 0000023c 9794          MOV       *+XAR4[AR0],AH        ; [CPU_] |775| 
    2517                      .dwpsn  file "D:/Foc/my_motor/sw/drivers/drvic/ldc1612.c",line 776,column 3,is_stmt
    2518 0000023d D03E          MOVB      XAR0,#62              ; [CPU_] |776| 
    2519 0000023e CDA9          AND       AH,AL,#0x0080         ; [CPU_] |776| 
         0000023f 0080 
    2520 00000240 9794          MOV       *+XAR4[AR0],AH        ; [CPU_] |776| 
    2521                      .dwpsn  file "D:/Foc/my_motor/sw/drivers/drvic/ldc1612.c",line 777,column 3,is_stmt
    2522 00000241 D03F          MOVB      XAR0,#63              ; [CPU_] |777| 
    2523 00000242 CDA9          AND       AH,AL,#0x0040         ; [CPU_] |777| 
         00000243 0040 
    2524 00000244 9794          MOV       *+XAR4[AR0],AH        ; [CPU_] |777| 
    2525                      .dwpsn  file "D:/Foc/my_motor/sw/drivers/drvic/ldc1612.c",line 778,column 3,is_stmt
    2526 00000245 D040          MOVB      XAR0,#64              ; [CPU_] |778| 
    2527 00000246 CDA9          AND       AH,AL,#0x0020         ; [CPU_] |778| 
         00000247 0020 
    2528 00000248 9794          MOV       *+XAR4[AR0],AH        ; [CPU_] |778| 
    2529                      .dwpsn  file "D:/Foc/my_motor/sw/drivers/drvic/ldc1612.c",line 779,column 3,is_stmt
    2530 00000249 D041          MOVB      XAR0,#65              ; [CPU_] |779| 
    2531 0000024a CDA9          AND       AH,AL,#0x0010         ; [CPU_] |779| 
         0000024b 0010 
    2532 0000024c 9794          MOV       *+XAR4[AR0],AH        ; [CPU_] |779| 
    2533                      .dwpsn  file "D:/Foc/my_motor/sw/drivers/drvic/ldc1612.c",line 780,column 3,is_stmt
    2534 0000024d D042          MOVB      XAR0,#66              ; [CPU_] |780| 
    2535 0000024e CDA9          AND       AH,AL,#0x0008         ; [CPU_] |780| 
         0000024f 0008 
    2536 00000250 9794          MOV       *+XAR4[AR0],AH        ; [CPU_] |780| 
    2537                      .dwpsn  file "D:/Foc/my_motor/sw/drivers/drvic/ldc1612.c",line 781,column 3,is_stmt
    2538 00000251 CDA9          AND       AH,AL,#0x0004         ; [CPU_] |781| 
         00000252 0004 
    2539 00000253 D043          MOVB      XAR0,#67              ; [CPU_] |781| 
    2540                      .dwpsn  file "D:/Foc/my_motor/sw/drivers/drvic/ldc1612.c",line 782,column 3,is_stmt
    2541 00000254 9001          ANDB      AL,#1                 ; [CPU_] |782| 
    2542                      .dwpsn  file "D:/Foc/my_motor/sw/drivers/drvic/ldc1612.c",line 781,column 3,is_stmt
    2543 00000255 9794          MOV       *+XAR4[AR0],AH        ; [CPU_] |781| 
    2544                      .dwpsn  file "D:/Foc/my_motor/sw/drivers/drvic/ldc1612.c",line 782,column 3,is_stmt
    2545 00000256 D044          MOVB      XAR0,#68              ; [CPU_] |782| 
    2546 00000257 9694          MOV       *+XAR4[AR0],AL        ; [CPU_] |782| 
    2547              $C$DW$217       .dwtag  DW_TAG_TI_branch
    2548                      .dwattr $C$DW$217, DW_AT_low_pc(0x00)
    2549                      .dwattr $C$DW$217, DW_AT_TI_return
    2550 00000258 0006          LRETR     ; [CPU_] 
TMS320C2000 Assembler PC v6.2.5 Mon Jul 10 09:53:39 2017

Tools Copyright (c) 1996-2014 Texas Instruments Incorporated
C:\Users\wmj\AppData\Local\Temp\1375610                              PAGE   49

    2551                      ; return occurs ; [] 
    2552                      .dwattr $C$DW$212, DW_AT_TI_end_file("D:/Foc/my_motor/sw/drivers/drvic/ldc1612.c")
    2553                      .dwattr $C$DW$212, DW_AT_TI_end_line(0x311)
    2554                      .dwattr $C$DW$212, DW_AT_TI_end_column(0x01)
    2555                      .dwendentry
    2556                      .dwendtag $C$DW$212
    2557              
    2558 00000259               .sect   ".text"
    2559                      .clink
    2560                      .global _LDC161x_setConfig
    2561              
    2562              $C$DW$218       .dwtag  DW_TAG_subprogram, DW_AT_name("LDC161x_setConfig")
    2563                      .dwattr $C$DW$218, DW_AT_low_pc(_LDC161x_setConfig)
    2564                      .dwattr $C$DW$218, DW_AT_high_pc(0x00)
    2565                      .dwattr $C$DW$218, DW_AT_TI_symbol_name("_LDC161x_setConfig")
    2566                      .dwattr $C$DW$218, DW_AT_external
    2567                      .dwattr $C$DW$218, DW_AT_TI_begin_file("D:/Foc/my_motor/sw/drivers/drvic/ldc1612.c")
    2568                      .dwattr $C$DW$218, DW_AT_TI_begin_line(0x313)
    2569                      .dwattr $C$DW$218, DW_AT_TI_begin_column(0x06)
    2570                      .dwattr $C$DW$218, DW_AT_TI_max_frame_size(-2)
    2571                      .dwpsn  file "D:/Foc/my_motor/sw/drivers/drvic/ldc1612.c",line 788,column 1,is_stmt,address _LDC161x_
    2572              
    2573                      .dwfde $C$DW$CIE, _LDC161x_setConfig
    2574              $C$DW$219       .dwtag  DW_TAG_formal_parameter, DW_AT_name("handle")
    2575                      .dwattr $C$DW$219, DW_AT_TI_symbol_name("_handle")
    2576                      .dwattr $C$DW$219, DW_AT_type(*$C$DW$T$47)
    2577                      .dwattr $C$DW$219, DW_AT_location[DW_OP_reg12]
    2578              $C$DW$220       .dwtag  DW_TAG_formal_parameter, DW_AT_name("drvData")
    2579                      .dwattr $C$DW$220, DW_AT_TI_symbol_name("_drvData")
    2580                      .dwattr $C$DW$220, DW_AT_type(*$C$DW$T$21)
    2581                      .dwattr $C$DW$220, DW_AT_location[DW_OP_reg0]
    2582              
    2583              ;***************************************************************
    2584              ;* FNAME: _LDC161x_setConfig            FR SIZE:   0           *
    2585              ;*                                                             *
    2586              ;* FUNCTION ENVIRONMENT                                        *
    2587              ;*                                                             *
    2588              ;* FUNCTION PROPERTIES                                         *
    2589              ;*                            0 Parameter,  0 Auto,  0 SOE     *
    2590              ;***************************************************************
    2591              
    2592              _LDC161x_setConfig:
    2593              ;* AR4   assigned to _handle
    2594              $C$DW$221       .dwtag  DW_TAG_variable, DW_AT_name("handle")
    2595                      .dwattr $C$DW$221, DW_AT_TI_symbol_name("_handle")
    2596                      .dwattr $C$DW$221, DW_AT_type(*$C$DW$T$109)
    2597                      .dwattr $C$DW$221, DW_AT_location[DW_OP_reg12]
    2598              ;* AL    assigned to _drvData
    2599              $C$DW$222       .dwtag  DW_TAG_variable, DW_AT_name("drvData")
    2600                      .dwattr $C$DW$222, DW_AT_TI_symbol_name("_drvData")
    2601                      .dwattr $C$DW$222, DW_AT_type(*$C$DW$T$136)
    2602                      .dwattr $C$DW$222, DW_AT_location[DW_OP_reg0]
    2603                      .dwcfi  cfa_offset, -2
    2604                      .dwcfi  save_reg_to_mem, 26, 0
    2605                      .dwcfi  save_reg_to_reg, 78, 26
TMS320C2000 Assembler PC v6.2.5 Mon Jul 10 09:53:39 2017

Tools Copyright (c) 1996-2014 Texas Instruments Incorporated
C:\Users\wmj\AppData\Local\Temp\1375610                              PAGE   50

    2606                      .dwpsn  file "D:/Foc/my_motor/sw/drivers/drvic/ldc1612.c",line 791,column 3,is_stmt
    2607 00000259 D045          MOVB      XAR0,#69              ; [CPU_] |791| 
    2608 0000025a CDA9          AND       AH,AL,#0x4000         ; [CPU_] |791| 
         0000025b 4000 
    2609 0000025c 9794          MOV       *+XAR4[AR0],AH        ; [CPU_] |791| 
    2610                      .dwpsn  file "D:/Foc/my_motor/sw/drivers/drvic/ldc1612.c",line 792,column 3,is_stmt
    2611 0000025d D046          MOVB      XAR0,#70              ; [CPU_] |792| 
    2612 0000025e CDA9          AND       AH,AL,#0x8000         ; [CPU_] |792| 
         0000025f 8000 
    2613 00000260 9794          MOV       *+XAR4[AR0],AH        ; [CPU_] |792| 
    2614                      .dwpsn  file "D:/Foc/my_motor/sw/drivers/drvic/ldc1612.c",line 793,column 3,is_stmt
    2615 00000261 D047          MOVB      XAR0,#71              ; [CPU_] |793| 
    2616 00000262 CDA9          AND       AH,AL,#0x2000         ; [CPU_] |793| 
         00000263 2000 
    2617 00000264 9794          MOV       *+XAR4[AR0],AH        ; [CPU_] |793| 
    2618                      .dwpsn  file "D:/Foc/my_motor/sw/drivers/drvic/ldc1612.c",line 794,column 3,is_stmt
    2619 00000265 D048          MOVB      XAR0,#72              ; [CPU_] |794| 
    2620 00000266 CDA9          AND       AH,AL,#0x1000         ; [CPU_] |794| 
         00000267 1000 
    2621 00000268 9794          MOV       *+XAR4[AR0],AH        ; [CPU_] |794| 
    2622                      .dwpsn  file "D:/Foc/my_motor/sw/drivers/drvic/ldc1612.c",line 795,column 3,is_stmt
    2623 00000269 D049          MOVB      XAR0,#73              ; [CPU_] |795| 
    2624 0000026a CDA9          AND       AH,AL,#0x0800         ; [CPU_] |795| 
         0000026b 0800 
    2625 0000026c 9794          MOV       *+XAR4[AR0],AH        ; [CPU_] |795| 
    2626                      .dwpsn  file "D:/Foc/my_motor/sw/drivers/drvic/ldc1612.c",line 796,column 3,is_stmt
    2627 0000026d D04A          MOVB      XAR0,#74              ; [CPU_] |796| 
    2628 0000026e CDA9          AND       AH,AL,#0x0400         ; [CPU_] |796| 
         0000026f 0400 
    2629 00000270 9794          MOV       *+XAR4[AR0],AH        ; [CPU_] |796| 
    2630                      .dwpsn  file "D:/Foc/my_motor/sw/drivers/drvic/ldc1612.c",line 797,column 3,is_stmt
    2631 00000271 D04B          MOVB      XAR0,#75              ; [CPU_] |797| 
    2632 00000272 CDA9          AND       AH,AL,#0x0200         ; [CPU_] |797| 
         00000273 0200 
    2633 00000274 9794          MOV       *+XAR4[AR0],AH        ; [CPU_] |797| 
    2634                      .dwpsn  file "D:/Foc/my_motor/sw/drivers/drvic/ldc1612.c",line 798,column 3,is_stmt
    2635 00000275 CDA9          AND       AH,AL,#0x0080         ; [CPU_] |798| 
         00000276 0080 
    2636 00000277 D04C          MOVB      XAR0,#76              ; [CPU_] |798| 
    2637                      .dwpsn  file "D:/Foc/my_motor/sw/drivers/drvic/ldc1612.c",line 799,column 3,is_stmt
    2638 00000278 9040          ANDB      AL,#64                ; [CPU_] |799| 
    2639                      .dwpsn  file "D:/Foc/my_motor/sw/drivers/drvic/ldc1612.c",line 798,column 3,is_stmt
    2640 00000279 9794          MOV       *+XAR4[AR0],AH        ; [CPU_] |798| 
    2641                      .dwpsn  file "D:/Foc/my_motor/sw/drivers/drvic/ldc1612.c",line 799,column 3,is_stmt
    2642 0000027a D04D          MOVB      XAR0,#77              ; [CPU_] |799| 
    2643 0000027b 9694          MOV       *+XAR4[AR0],AL        ; [CPU_] |799| 
    2644              $C$DW$223       .dwtag  DW_TAG_TI_branch
    2645                      .dwattr $C$DW$223, DW_AT_low_pc(0x00)
    2646                      .dwattr $C$DW$223, DW_AT_TI_return
    2647 0000027c 0006          LRETR     ; [CPU_] 
    2648                      ; return occurs ; [] 
    2649                      .dwattr $C$DW$218, DW_AT_TI_end_file("D:/Foc/my_motor/sw/drivers/drvic/ldc1612.c")
    2650                      .dwattr $C$DW$218, DW_AT_TI_end_line(0x322)
    2651                      .dwattr $C$DW$218, DW_AT_TI_end_column(0x01)
    2652                      .dwendentry
TMS320C2000 Assembler PC v6.2.5 Mon Jul 10 09:53:39 2017

Tools Copyright (c) 1996-2014 Texas Instruments Incorporated
C:\Users\wmj\AppData\Local\Temp\1375610                              PAGE   51

    2653                      .dwendtag $C$DW$218
    2654              
    2655 0000027d               .sect   ".text"
    2656                      .clink
    2657                      .global _LDC161x_setClkDivs
    2658              
    2659              $C$DW$224       .dwtag  DW_TAG_subprogram, DW_AT_name("LDC161x_setClkDivs")
    2660                      .dwattr $C$DW$224, DW_AT_low_pc(_LDC161x_setClkDivs)
    2661                      .dwattr $C$DW$224, DW_AT_high_pc(0x00)
    2662                      .dwattr $C$DW$224, DW_AT_TI_symbol_name("_LDC161x_setClkDivs")
    2663                      .dwattr $C$DW$224, DW_AT_external
    2664                      .dwattr $C$DW$224, DW_AT_TI_begin_file("D:/Foc/my_motor/sw/drivers/drvic/ldc1612.c")
    2665                      .dwattr $C$DW$224, DW_AT_TI_begin_line(0x2cf)
    2666                      .dwattr $C$DW$224, DW_AT_TI_begin_column(0x06)
    2667                      .dwattr $C$DW$224, DW_AT_TI_max_frame_size(-2)
    2668                      .dwpsn  file "D:/Foc/my_motor/sw/drivers/drvic/ldc1612.c",line 720,column 1,is_stmt,address _LDC161x_
    2669              
    2670                      .dwfde $C$DW$CIE, _LDC161x_setClkDivs
    2671              $C$DW$225       .dwtag  DW_TAG_formal_parameter, DW_AT_name("handle")
    2672                      .dwattr $C$DW$225, DW_AT_TI_symbol_name("_handle")
    2673                      .dwattr $C$DW$225, DW_AT_type(*$C$DW$T$47)
    2674                      .dwattr $C$DW$225, DW_AT_location[DW_OP_reg12]
    2675              $C$DW$226       .dwtag  DW_TAG_formal_parameter, DW_AT_name("Channel")
    2676                      .dwattr $C$DW$226, DW_AT_TI_symbol_name("_Channel")
    2677                      .dwattr $C$DW$226, DW_AT_type(*$C$DW$T$136)
    2678                      .dwattr $C$DW$226, DW_AT_location[DW_OP_reg0]
    2679              $C$DW$227       .dwtag  DW_TAG_formal_parameter, DW_AT_name("drvData")
    2680                      .dwattr $C$DW$227, DW_AT_TI_symbol_name("_drvData")
    2681                      .dwattr $C$DW$227, DW_AT_type(*$C$DW$T$21)
    2682                      .dwattr $C$DW$227, DW_AT_location[DW_OP_reg1]
    2683              
    2684              ;***************************************************************
    2685              ;* FNAME: _LDC161x_setClkDivs           FR SIZE:   0           *
    2686              ;*                                                             *
    2687              ;* FUNCTION ENVIRONMENT                                        *
    2688              ;*                                                             *
    2689              ;* FUNCTION PROPERTIES                                         *
    2690              ;*                            0 Parameter,  0 Auto,  0 SOE     *
    2691              ;***************************************************************
    2692              
    2693              _LDC161x_setClkDivs:
    2694              ;* AR4   assigned to _obj
    2695              $C$DW$228       .dwtag  DW_TAG_variable, DW_AT_name("obj")
    2696                      .dwattr $C$DW$228, DW_AT_TI_symbol_name("_obj")
    2697                      .dwattr $C$DW$228, DW_AT_type(*$C$DW$T$125)
    2698                      .dwattr $C$DW$228, DW_AT_location[DW_OP_reg12]
    2699              ;* AH    assigned to _drvData
    2700              $C$DW$229       .dwtag  DW_TAG_variable, DW_AT_name("drvData")
    2701                      .dwattr $C$DW$229, DW_AT_TI_symbol_name("_drvData")
    2702                      .dwattr $C$DW$229, DW_AT_type(*$C$DW$T$136)
    2703                      .dwattr $C$DW$229, DW_AT_location[DW_OP_reg1]
    2704              ;* AL    assigned to _Channel
    2705              $C$DW$230       .dwtag  DW_TAG_variable, DW_AT_name("Channel")
    2706                      .dwattr $C$DW$230, DW_AT_TI_symbol_name("_Channel")
    2707                      .dwattr $C$DW$230, DW_AT_type(*$C$DW$T$136)
TMS320C2000 Assembler PC v6.2.5 Mon Jul 10 09:53:39 2017

Tools Copyright (c) 1996-2014 Texas Instruments Incorporated
C:\Users\wmj\AppData\Local\Temp\1375610                              PAGE   52

    2708                      .dwattr $C$DW$230, DW_AT_location[DW_OP_reg0]
    2709              ;* AR4   assigned to _handle
    2710              $C$DW$231       .dwtag  DW_TAG_variable, DW_AT_name("handle")
    2711                      .dwattr $C$DW$231, DW_AT_TI_symbol_name("_handle")
    2712                      .dwattr $C$DW$231, DW_AT_type(*$C$DW$T$109)
    2713                      .dwattr $C$DW$231, DW_AT_location[DW_OP_reg12]
    2714                      .dwcfi  cfa_offset, -2
    2715                      .dwcfi  save_reg_to_mem, 26, 0
    2716                      .dwcfi  save_reg_to_reg, 78, 26
    2717                      .dwpsn  file "D:/Foc/my_motor/sw/drivers/drvic/ldc1612.c",line 723,column 3,is_stmt
    2718 0000027d 5200          CMPB      AL,#0                 ; [CPU_] |723| 
    2719 0000027e EC19          BF        $C$L74,EQ             ; [CPU_] |723| 
    2720                      ; branchcc occurs ; [] |723| 
    2721 0000027f 5201          CMPB      AL,#1                 ; [CPU_] |723| 
    2722 00000280 EC11          BF        $C$L73,EQ             ; [CPU_] |723| 
    2723                      ; branchcc occurs ; [] |723| 
    2724 00000281 5202          CMPB      AL,#2                 ; [CPU_] |723| 
    2725 00000282 EC09          BF        $C$L72,EQ             ; [CPU_] |723| 
    2726                      ; branchcc occurs ; [] |723| 
    2727 00000283 5203          CMPB      AL,#3                 ; [CPU_] |723| 
    2728 00000284 ED1B          BF        $C$L76,NEQ            ; [CPU_] |723| 
    2729                      ; branchcc occurs ; [] |723| 
    2730                      .dwpsn  file "D:/Foc/my_motor/sw/drivers/drvic/ldc1612.c",line 738,column 10,is_stmt
    2731 00000285 D02A          MOVB      XAR0,#42              ; [CPU_] |738| 
    2732 00000286 CCA8          AND       AL,AH,#0x03ff         ; [CPU_] |738| 
         00000287 03FF 
    2733 00000288 9694          MOV       *+XAR4[AR0],AL        ; [CPU_] |738| 
    2734                      .dwpsn  file "D:/Foc/my_motor/sw/drivers/drvic/ldc1612.c",line 739,column 10,is_stmt
    2735 00000289 D02B          MOVB      XAR0,#43              ; [CPU_] |739| 
    2736                      .dwpsn  file "D:/Foc/my_motor/sw/drivers/drvic/ldc1612.c",line 740,column 8,is_stmt
    2737 0000028a 6F12          B         $C$L75,UNC            ; [CPU_] |740| 
    2738                      ; branch occurs ; [] |740| 
    2739 0000028b       $C$L72:    
    2740                      .dwpsn  file "D:/Foc/my_motor/sw/drivers/drvic/ldc1612.c",line 734,column 10,is_stmt
    2741 0000028b D028          MOVB      XAR0,#40              ; [CPU_] |734| 
    2742 0000028c CCA8          AND       AL,AH,#0x03ff         ; [CPU_] |734| 
         0000028d 03FF 
    2743 0000028e 9694          MOV       *+XAR4[AR0],AL        ; [CPU_] |734| 
    2744                      .dwpsn  file "D:/Foc/my_motor/sw/drivers/drvic/ldc1612.c",line 735,column 10,is_stmt
    2745 0000028f D029          MOVB      XAR0,#41              ; [CPU_] |735| 
    2746                      .dwpsn  file "D:/Foc/my_motor/sw/drivers/drvic/ldc1612.c",line 736,column 8,is_stmt
    2747 00000290 6F0C          B         $C$L75,UNC            ; [CPU_] |736| 
    2748                      ; branch occurs ; [] |736| 
    2749 00000291       $C$L73:    
    2750                      .dwpsn  file "D:/Foc/my_motor/sw/drivers/drvic/ldc1612.c",line 730,column 10,is_stmt
    2751 00000291 D026          MOVB      XAR0,#38              ; [CPU_] |730| 
    2752 00000292 CCA8          AND       AL,AH,#0x03ff         ; [CPU_] |730| 
         00000293 03FF 
    2753 00000294 9694          MOV       *+XAR4[AR0],AL        ; [CPU_] |730| 
    2754                      .dwpsn  file "D:/Foc/my_motor/sw/drivers/drvic/ldc1612.c",line 731,column 10,is_stmt
    2755 00000295 D027          MOVB      XAR0,#39              ; [CPU_] |731| 
    2756                      .dwpsn  file "D:/Foc/my_motor/sw/drivers/drvic/ldc1612.c",line 732,column 8,is_stmt
    2757 00000296 6F06          B         $C$L75,UNC            ; [CPU_] |732| 
    2758                      ; branch occurs ; [] |732| 
    2759 00000297       $C$L74:    
TMS320C2000 Assembler PC v6.2.5 Mon Jul 10 09:53:39 2017

Tools Copyright (c) 1996-2014 Texas Instruments Incorporated
C:\Users\wmj\AppData\Local\Temp\1375610                              PAGE   53

    2760                      .dwpsn  file "D:/Foc/my_motor/sw/drivers/drvic/ldc1612.c",line 726,column 10,is_stmt
    2761 00000297 D024          MOVB      XAR0,#36              ; [CPU_] |726| 
    2762 00000298 CCA8          AND       AL,AH,#0x03ff         ; [CPU_] |726| 
         00000299 03FF 
    2763 0000029a 9694          MOV       *+XAR4[AR0],AL        ; [CPU_] |726| 
    2764                      .dwpsn  file "D:/Foc/my_motor/sw/drivers/drvic/ldc1612.c",line 727,column 10,is_stmt
    2765 0000029b D025          MOVB      XAR0,#37              ; [CPU_] |727| 
    2766 0000029c       $C$L75:    
    2767 0000029c 92A8          MOV       AL,AH                 ; [CPU_] |727| 
    2768 0000029d FFCB          LSR       AL,12                 ; [CPU_] |727| 
    2769 0000029e 9694          MOV       *+XAR4[AR0],AL        ; [CPU_] |727| 
    2770              $C$L76:    
    2771              $C$DW$232       .dwtag  DW_TAG_TI_branch
    2772                      .dwattr $C$DW$232, DW_AT_low_pc(0x00)
    2773                      .dwattr $C$DW$232, DW_AT_TI_return
    2774 0000029f 0006          LRETR     ; [CPU_] 
    2775                      ; return occurs ; [] 
    2776                      .dwattr $C$DW$224, DW_AT_TI_end_file("D:/Foc/my_motor/sw/drivers/drvic/ldc1612.c")
    2777                      .dwattr $C$DW$224, DW_AT_TI_end_line(0x2e8)
    2778                      .dwattr $C$DW$224, DW_AT_TI_end_column(0x01)
    2779                      .dwendentry
    2780                      .dwendtag $C$DW$224
    2781              
    2782 000002a0               .sect   ".text"
    2783                      .clink
    2784                      .global _LDC161x_setChData_MSB
    2785              
    2786              $C$DW$233       .dwtag  DW_TAG_subprogram, DW_AT_name("LDC161x_setChData_MSB")
    2787                      .dwattr $C$DW$233, DW_AT_low_pc(_LDC161x_setChData_MSB)
    2788                      .dwattr $C$DW$233, DW_AT_high_pc(0x00)
    2789                      .dwattr $C$DW$233, DW_AT_TI_symbol_name("_LDC161x_setChData_MSB")
    2790                      .dwattr $C$DW$233, DW_AT_external
    2791                      .dwattr $C$DW$233, DW_AT_TI_begin_file("D:/Foc/my_motor/sw/drivers/drvic/ldc1612.c")
    2792                      .dwattr $C$DW$233, DW_AT_TI_begin_line(0x253)
    2793                      .dwattr $C$DW$233, DW_AT_TI_begin_column(0x06)
    2794                      .dwattr $C$DW$233, DW_AT_TI_max_frame_size(-2)
    2795                      .dwpsn  file "D:/Foc/my_motor/sw/drivers/drvic/ldc1612.c",line 596,column 1,is_stmt,address _LDC161x_
    2796              
    2797                      .dwfde $C$DW$CIE, _LDC161x_setChData_MSB
    2798              $C$DW$234       .dwtag  DW_TAG_formal_parameter, DW_AT_name("handle")
    2799                      .dwattr $C$DW$234, DW_AT_TI_symbol_name("_handle")
    2800                      .dwattr $C$DW$234, DW_AT_type(*$C$DW$T$47)
    2801                      .dwattr $C$DW$234, DW_AT_location[DW_OP_reg12]
    2802              $C$DW$235       .dwtag  DW_TAG_formal_parameter, DW_AT_name("Channel")
    2803                      .dwattr $C$DW$235, DW_AT_TI_symbol_name("_Channel")
    2804                      .dwattr $C$DW$235, DW_AT_type(*$C$DW$T$136)
    2805                      .dwattr $C$DW$235, DW_AT_location[DW_OP_reg0]
    2806              $C$DW$236       .dwtag  DW_TAG_formal_parameter, DW_AT_name("drvData")
    2807                      .dwattr $C$DW$236, DW_AT_TI_symbol_name("_drvData")
    2808                      .dwattr $C$DW$236, DW_AT_type(*$C$DW$T$21)
    2809                      .dwattr $C$DW$236, DW_AT_location[DW_OP_reg1]
    2810              
    2811              ;***************************************************************
    2812              ;* FNAME: _LDC161x_setChData_MSB        FR SIZE:   0           *
    2813              ;*                                                             *
TMS320C2000 Assembler PC v6.2.5 Mon Jul 10 09:53:39 2017

Tools Copyright (c) 1996-2014 Texas Instruments Incorporated
C:\Users\wmj\AppData\Local\Temp\1375610                              PAGE   54

    2814              ;* FUNCTION ENVIRONMENT                                        *
    2815              ;*                                                             *
    2816              ;* FUNCTION PROPERTIES                                         *
    2817              ;*                            0 Parameter,  0 Auto,  0 SOE     *
    2818              ;***************************************************************
    2819              
    2820              _LDC161x_setChData_MSB:
    2821              ;* AL    assigned to $O$C1
    2822              ;* AL    assigned to $O$C2
    2823              ;* AL    assigned to $O$C3
    2824              ;* AL    assigned to $O$C4
    2825              ;* AR4   assigned to _obj
    2826              $C$DW$237       .dwtag  DW_TAG_variable, DW_AT_name("obj")
    2827                      .dwattr $C$DW$237, DW_AT_TI_symbol_name("_obj")
    2828                      .dwattr $C$DW$237, DW_AT_type(*$C$DW$T$125)
    2829                      .dwattr $C$DW$237, DW_AT_location[DW_OP_reg12]
    2830              ;* AH    assigned to _drvData
    2831              $C$DW$238       .dwtag  DW_TAG_variable, DW_AT_name("drvData")
    2832                      .dwattr $C$DW$238, DW_AT_TI_symbol_name("_drvData")
    2833                      .dwattr $C$DW$238, DW_AT_type(*$C$DW$T$136)
    2834                      .dwattr $C$DW$238, DW_AT_location[DW_OP_reg1]
    2835              ;* AL    assigned to _Channel
    2836              $C$DW$239       .dwtag  DW_TAG_variable, DW_AT_name("Channel")
    2837                      .dwattr $C$DW$239, DW_AT_TI_symbol_name("_Channel")
    2838                      .dwattr $C$DW$239, DW_AT_type(*$C$DW$T$136)
    2839                      .dwattr $C$DW$239, DW_AT_location[DW_OP_reg0]
    2840              ;* AR4   assigned to _handle
    2841              $C$DW$240       .dwtag  DW_TAG_variable, DW_AT_name("handle")
    2842                      .dwattr $C$DW$240, DW_AT_TI_symbol_name("_handle")
    2843                      .dwattr $C$DW$240, DW_AT_type(*$C$DW$T$109)
    2844                      .dwattr $C$DW$240, DW_AT_location[DW_OP_reg12]
    2845                      .dwcfi  cfa_offset, -2
    2846                      .dwcfi  save_reg_to_mem, 26, 0
    2847                      .dwcfi  save_reg_to_reg, 78, 26
    2848                      .dwpsn  file "D:/Foc/my_motor/sw/drivers/drvic/ldc1612.c",line 598,column 3,is_stmt
    2849 000002a0 5200          CMPB      AL,#0                 ; [CPU_] |598| 
    2850 000002a1 EC38          BF        $C$L80,EQ             ; [CPU_] |598| 
    2851                      ; branchcc occurs ; [] |598| 
    2852 000002a2 5201          CMPB      AL,#1                 ; [CPU_] |598| 
    2853 000002a3 EC25          BF        $C$L78,EQ             ; [CPU_] |598| 
    2854                      ; branchcc occurs ; [] |598| 
    2855 000002a4 5202          CMPB      AL,#2                 ; [CPU_] |598| 
    2856 000002a5 EC13          BF        $C$L77,EQ             ; [CPU_] |598| 
    2857                      ; branchcc occurs ; [] |598| 
    2858 000002a6 5203          CMPB      AL,#3                 ; [CPU_] |598| 
    2859 000002a7 ED3F          BF        $C$L81,NEQ            ; [CPU_] |598| 
    2860                      ; branchcc occurs ; [] |598| 
    2861                      .dwpsn  file "D:/Foc/my_motor/sw/drivers/drvic/ldc1612.c",line 622,column 7,is_stmt
    2862 000002a8 D012          MOVB      XAR0,#18              ; [CPU_] |622| 
    2863 000002a9 CCA8          AND       AL,AH,#0x8000         ; [CPU_] |622| 
         000002aa 8000 
    2864 000002ab 9694          MOV       *+XAR4[AR0],AL        ; [CPU_] |622| 
    2865                      .dwpsn  file "D:/Foc/my_motor/sw/drivers/drvic/ldc1612.c",line 623,column 7,is_stmt
    2866 000002ac D013          MOVB      XAR0,#19              ; [CPU_] |623| 
    2867 000002ad CCA8          AND       AL,AH,#0x4000         ; [CPU_] |623| 
TMS320C2000 Assembler PC v6.2.5 Mon Jul 10 09:53:39 2017

Tools Copyright (c) 1996-2014 Texas Instruments Incorporated
C:\Users\wmj\AppData\Local\Temp\1375610                              PAGE   55

         000002ae 4000 
    2868 000002af 9694          MOV       *+XAR4[AR0],AL        ; [CPU_] |623| 
    2869                      .dwpsn  file "D:/Foc/my_motor/sw/drivers/drvic/ldc1612.c",line 624,column 7,is_stmt
    2870 000002b0 D014          MOVB      XAR0,#20              ; [CPU_] |624| 
    2871 000002b1 CCA8          AND       AL,AH,#0x2000         ; [CPU_] |624| 
         000002b2 2000 
    2872 000002b3 9694          MOV       *+XAR4[AR0],AL        ; [CPU_] |624| 
    2873                      .dwpsn  file "D:/Foc/my_motor/sw/drivers/drvic/ldc1612.c",line 625,column 7,is_stmt
    2874 000002b4 D015          MOVB      XAR0,#21              ; [CPU_] |625| 
    2875 000002b5 9694          MOV       *+XAR4[AR0],AL        ; [CPU_] |625| 
    2876                      .dwpsn  file "D:/Foc/my_motor/sw/drivers/drvic/ldc1612.c",line 626,column 7,is_stmt
    2877 000002b6 D016          MOVB      XAR0,#22              ; [CPU_] |626| 
    2878                      .dwpsn  file "D:/Foc/my_motor/sw/drivers/drvic/ldc1612.c",line 627,column 5,is_stmt
    2879 000002b7 6F1E          B         $C$L79,UNC            ; [CPU_] |627| 
    2880                      ; branch occurs ; [] |627| 
    2881 000002b8       $C$L77:    
    2882                      .dwpsn  file "D:/Foc/my_motor/sw/drivers/drvic/ldc1612.c",line 615,column 7,is_stmt
    2883 000002b8 D00C          MOVB      XAR0,#12              ; [CPU_] |615| 
    2884 000002b9 CCA8          AND       AL,AH,#0x8000         ; [CPU_] |615| 
         000002ba 8000 
    2885 000002bb 9694          MOV       *+XAR4[AR0],AL        ; [CPU_] |615| 
    2886                      .dwpsn  file "D:/Foc/my_motor/sw/drivers/drvic/ldc1612.c",line 616,column 7,is_stmt
    2887 000002bc D00D          MOVB      XAR0,#13              ; [CPU_] |616| 
    2888 000002bd CCA8          AND       AL,AH,#0x4000         ; [CPU_] |616| 
         000002be 4000 
    2889 000002bf 9694          MOV       *+XAR4[AR0],AL        ; [CPU_] |616| 
    2890                      .dwpsn  file "D:/Foc/my_motor/sw/drivers/drvic/ldc1612.c",line 617,column 7,is_stmt
    2891 000002c0 D00E          MOVB      XAR0,#14              ; [CPU_] |617| 
    2892 000002c1 CCA8          AND       AL,AH,#0x2000         ; [CPU_] |617| 
         000002c2 2000 
    2893 000002c3 9694          MOV       *+XAR4[AR0],AL        ; [CPU_] |617| 
    2894                      .dwpsn  file "D:/Foc/my_motor/sw/drivers/drvic/ldc1612.c",line 618,column 7,is_stmt
    2895 000002c4 D00F          MOVB      XAR0,#15              ; [CPU_] |618| 
    2896 000002c5 9694          MOV       *+XAR4[AR0],AL        ; [CPU_] |618| 
    2897                      .dwpsn  file "D:/Foc/my_motor/sw/drivers/drvic/ldc1612.c",line 619,column 7,is_stmt
    2898 000002c6 D010          MOVB      XAR0,#16              ; [CPU_] |619| 
    2899                      .dwpsn  file "D:/Foc/my_motor/sw/drivers/drvic/ldc1612.c",line 620,column 5,is_stmt
    2900 000002c7 6F0E          B         $C$L79,UNC            ; [CPU_] |620| 
    2901                      ; branch occurs ; [] |620| 
    2902 000002c8       $C$L78:    
    2903                      .dwpsn  file "D:/Foc/my_motor/sw/drivers/drvic/ldc1612.c",line 608,column 7,is_stmt
    2904 000002c8 CCA8          AND       AL,AH,#0x8000         ; [CPU_] |608| 
         000002c9 8000 
    2905 000002ca 96F4          MOV       *+XAR4[6],AL          ; [CPU_] |608| 
    2906                      .dwpsn  file "D:/Foc/my_motor/sw/drivers/drvic/ldc1612.c",line 610,column 7,is_stmt
    2907 000002cb D008          MOVB      XAR0,#8               ; [CPU_] |610| 
    2908                      .dwpsn  file "D:/Foc/my_motor/sw/drivers/drvic/ldc1612.c",line 609,column 7,is_stmt
    2909 000002cc CCA8          AND       AL,AH,#0x4000         ; [CPU_] |609| 
         000002cd 4000 
    2910 000002ce 96FC          MOV       *+XAR4[7],AL          ; [CPU_] |609| 
    2911                      .dwpsn  file "D:/Foc/my_motor/sw/drivers/drvic/ldc1612.c",line 610,column 7,is_stmt
    2912 000002cf CCA8          AND       AL,AH,#0x2000         ; [CPU_] |610| 
         000002d0 2000 
    2913 000002d1 9694          MOV       *+XAR4[AR0],AL        ; [CPU_] |610| 
    2914                      .dwpsn  file "D:/Foc/my_motor/sw/drivers/drvic/ldc1612.c",line 611,column 7,is_stmt
TMS320C2000 Assembler PC v6.2.5 Mon Jul 10 09:53:39 2017

Tools Copyright (c) 1996-2014 Texas Instruments Incorporated
C:\Users\wmj\AppData\Local\Temp\1375610                              PAGE   56

    2915 000002d2 D009          MOVB      XAR0,#9               ; [CPU_] |611| 
    2916 000002d3 9694          MOV       *+XAR4[AR0],AL        ; [CPU_] |611| 
    2917                      .dwpsn  file "D:/Foc/my_motor/sw/drivers/drvic/ldc1612.c",line 612,column 7,is_stmt
    2918 000002d4 D00A          MOVB      XAR0,#10              ; [CPU_] |612| 
    2919 000002d5       $C$L79:    
    2920 000002d5 CCA8          AND       AL,AH,#0x0fff         ; [CPU_] |612| 
         000002d6 0FFF 
    2921 000002d7 9694          MOV       *+XAR4[AR0],AL        ; [CPU_] |612| 
    2922              $C$DW$241       .dwtag  DW_TAG_TI_branch
    2923                      .dwattr $C$DW$241, DW_AT_low_pc(0x00)
    2924                      .dwattr $C$DW$241, DW_AT_TI_return
    2925 000002d8 0006          LRETR     ; [CPU_] 
    2926                      ; return occurs ; [] 
    2927 000002d9       $C$L80:    
    2928                      .dwpsn  file "D:/Foc/my_motor/sw/drivers/drvic/ldc1612.c",line 601,column 7,is_stmt
    2929 000002d9 CCA8          AND       AL,AH,#0x8000         ; [CPU_] |601| 
         000002da 8000 
    2930 000002db 96C4          MOV       *+XAR4[0],AL          ; [CPU_] |601| 
    2931                      .dwpsn  file "D:/Foc/my_motor/sw/drivers/drvic/ldc1612.c",line 602,column 7,is_stmt
    2932 000002dc CCA8          AND       AL,AH,#0x4000         ; [CPU_] |602| 
         000002dd 4000 
    2933 000002de 96CC          MOV       *+XAR4[1],AL          ; [CPU_] |602| 
    2934                      .dwpsn  file "D:/Foc/my_motor/sw/drivers/drvic/ldc1612.c",line 603,column 7,is_stmt
    2935 000002df CCA8          AND       AL,AH,#0x2000         ; [CPU_] |603| 
         000002e0 2000 
    2936 000002e1 96D4          MOV       *+XAR4[2],AL          ; [CPU_] |603| 
    2937                      .dwpsn  file "D:/Foc/my_motor/sw/drivers/drvic/ldc1612.c",line 604,column 7,is_stmt
    2938 000002e2 96DC          MOV       *+XAR4[3],AL          ; [CPU_] |604| 
    2939                      .dwpsn  file "D:/Foc/my_motor/sw/drivers/drvic/ldc1612.c",line 605,column 7,is_stmt
    2940 000002e3 CCA8          AND       AL,AH,#0x0fff         ; [CPU_] |605| 
         000002e4 0FFF 
    2941 000002e5 96E4          MOV       *+XAR4[4],AL          ; [CPU_] |605| 
    2942              $C$L81:    
    2943              $C$DW$242       .dwtag  DW_TAG_TI_branch
    2944                      .dwattr $C$DW$242, DW_AT_low_pc(0x00)
    2945                      .dwattr $C$DW$242, DW_AT_TI_return
    2946 000002e6 0006          LRETR     ; [CPU_] 
    2947                      ; return occurs ; [] 
    2948                      .dwattr $C$DW$233, DW_AT_TI_end_file("D:/Foc/my_motor/sw/drivers/drvic/ldc1612.c")
    2949                      .dwattr $C$DW$233, DW_AT_TI_end_line(0x279)
    2950                      .dwattr $C$DW$233, DW_AT_TI_end_column(0x01)
    2951                      .dwendentry
    2952                      .dwendtag $C$DW$233
    2953              
    2954 000002e7               .sect   ".text"
    2955                      .clink
    2956                      .global _LDC161x_setChData_LSB
    2957              
    2958              $C$DW$243       .dwtag  DW_TAG_subprogram, DW_AT_name("LDC161x_setChData_LSB")
    2959                      .dwattr $C$DW$243, DW_AT_low_pc(_LDC161x_setChData_LSB)
    2960                      .dwattr $C$DW$243, DW_AT_high_pc(0x00)
    2961                      .dwattr $C$DW$243, DW_AT_TI_symbol_name("_LDC161x_setChData_LSB")
    2962                      .dwattr $C$DW$243, DW_AT_external
    2963                      .dwattr $C$DW$243, DW_AT_TI_begin_file("D:/Foc/my_motor/sw/drivers/drvic/ldc1612.c")
    2964                      .dwattr $C$DW$243, DW_AT_TI_begin_line(0x280)
TMS320C2000 Assembler PC v6.2.5 Mon Jul 10 09:53:39 2017

Tools Copyright (c) 1996-2014 Texas Instruments Incorporated
C:\Users\wmj\AppData\Local\Temp\1375610                              PAGE   57

    2965                      .dwattr $C$DW$243, DW_AT_TI_begin_column(0x06)
    2966                      .dwattr $C$DW$243, DW_AT_TI_max_frame_size(-2)
    2967                      .dwpsn  file "D:/Foc/my_motor/sw/drivers/drvic/ldc1612.c",line 641,column 1,is_stmt,address _LDC161x_
    2968              
    2969                      .dwfde $C$DW$CIE, _LDC161x_setChData_LSB
    2970              $C$DW$244       .dwtag  DW_TAG_formal_parameter, DW_AT_name("handle")
    2971                      .dwattr $C$DW$244, DW_AT_TI_symbol_name("_handle")
    2972                      .dwattr $C$DW$244, DW_AT_type(*$C$DW$T$47)
    2973                      .dwattr $C$DW$244, DW_AT_location[DW_OP_reg12]
    2974              $C$DW$245       .dwtag  DW_TAG_formal_parameter, DW_AT_name("Channel")
    2975                      .dwattr $C$DW$245, DW_AT_TI_symbol_name("_Channel")
    2976                      .dwattr $C$DW$245, DW_AT_type(*$C$DW$T$136)
    2977                      .dwattr $C$DW$245, DW_AT_location[DW_OP_reg0]
    2978              $C$DW$246       .dwtag  DW_TAG_formal_parameter, DW_AT_name("drvData")
    2979                      .dwattr $C$DW$246, DW_AT_TI_symbol_name("_drvData")
    2980                      .dwattr $C$DW$246, DW_AT_type(*$C$DW$T$21)
    2981                      .dwattr $C$DW$246, DW_AT_location[DW_OP_reg1]
    2982              
    2983              ;***************************************************************
    2984              ;* FNAME: _LDC161x_setChData_LSB        FR SIZE:   0           *
    2985              ;*                                                             *
    2986              ;* FUNCTION ENVIRONMENT                                        *
    2987              ;*                                                             *
    2988              ;* FUNCTION PROPERTIES                                         *
    2989              ;*                            0 Parameter,  0 Auto,  0 SOE     *
    2990              ;***************************************************************
    2991              
    2992              _LDC161x_setChData_LSB:
    2993              ;* AR4   assigned to _obj
    2994              $C$DW$247       .dwtag  DW_TAG_variable, DW_AT_name("obj")
    2995                      .dwattr $C$DW$247, DW_AT_TI_symbol_name("_obj")
    2996                      .dwattr $C$DW$247, DW_AT_type(*$C$DW$T$125)
    2997                      .dwattr $C$DW$247, DW_AT_location[DW_OP_reg12]
    2998              ;* AH    assigned to _drvData
    2999              $C$DW$248       .dwtag  DW_TAG_variable, DW_AT_name("drvData")
    3000                      .dwattr $C$DW$248, DW_AT_TI_symbol_name("_drvData")
    3001                      .dwattr $C$DW$248, DW_AT_type(*$C$DW$T$136)
    3002                      .dwattr $C$DW$248, DW_AT_location[DW_OP_reg1]
    3003              ;* AL    assigned to _Channel
    3004              $C$DW$249       .dwtag  DW_TAG_variable, DW_AT_name("Channel")
    3005                      .dwattr $C$DW$249, DW_AT_TI_symbol_name("_Channel")
    3006                      .dwattr $C$DW$249, DW_AT_type(*$C$DW$T$136)
    3007                      .dwattr $C$DW$249, DW_AT_location[DW_OP_reg0]
    3008              ;* AR4   assigned to _handle
    3009              $C$DW$250       .dwtag  DW_TAG_variable, DW_AT_name("handle")
    3010                      .dwattr $C$DW$250, DW_AT_TI_symbol_name("_handle")
    3011                      .dwattr $C$DW$250, DW_AT_type(*$C$DW$T$109)
    3012                      .dwattr $C$DW$250, DW_AT_location[DW_OP_reg12]
    3013                      .dwcfi  cfa_offset, -2
    3014                      .dwcfi  save_reg_to_mem, 26, 0
    3015                      .dwcfi  save_reg_to_reg, 78, 26
    3016                      .dwpsn  file "D:/Foc/my_motor/sw/drivers/drvic/ldc1612.c",line 644,column 3,is_stmt
    3017 000002e7 5200          CMPB      AL,#0                 ; [CPU_] |644| 
    3018 000002e8 EC10          BF        $C$L85,EQ             ; [CPU_] |644| 
    3019                      ; branchcc occurs ; [] |644| 
TMS320C2000 Assembler PC v6.2.5 Mon Jul 10 09:53:39 2017

Tools Copyright (c) 1996-2014 Texas Instruments Incorporated
C:\Users\wmj\AppData\Local\Temp\1375610                              PAGE   58

    3020 000002e9 5201          CMPB      AL,#1                 ; [CPU_] |644| 
    3021 000002ea EC0B          BF        $C$L83,EQ             ; [CPU_] |644| 
    3022                      ; branchcc occurs ; [] |644| 
    3023 000002eb 5202          CMPB      AL,#2                 ; [CPU_] |644| 
    3024 000002ec EC07          BF        $C$L82,EQ             ; [CPU_] |644| 
    3025                      ; branchcc occurs ; [] |644| 
    3026 000002ed 5203          CMPB      AL,#3                 ; [CPU_] |644| 
    3027                      .dwpsn  file "D:/Foc/my_motor/sw/drivers/drvic/ldc1612.c",line 649,column 14,is_stmt
    3028 000002ee 56B1          MOVB      XAR0,#23,EQ           ; [CPU_] |649| 
         000002ef 17A0 
    3029 000002f0 562B          MOV       *+XAR4[AR0],AH,EQ     ; [CPU_] |649| 
         000002f1 0194 
    3030              $C$DW$251       .dwtag  DW_TAG_TI_branch
    3031                      .dwattr $C$DW$251, DW_AT_low_pc(0x00)
    3032                      .dwattr $C$DW$251, DW_AT_TI_return
    3033 000002f2 0006          LRETR     ; [CPU_] 
    3034                      ; return occurs ; [] 
    3035 000002f3       $C$L82:    
    3036                      .dwpsn  file "D:/Foc/my_motor/sw/drivers/drvic/ldc1612.c",line 648,column 14,is_stmt
    3037 000002f3 D011          MOVB      XAR0,#17              ; [CPU_] |648| 
    3038                      .dwpsn  file "D:/Foc/my_motor/sw/drivers/drvic/ldc1612.c",line 648,column 55,is_stmt
    3039 000002f4 6F02          B         $C$L84,UNC            ; [CPU_] |648| 
    3040                      ; branch occurs ; [] |648| 
    3041 000002f5       $C$L83:    
    3042                      .dwpsn  file "D:/Foc/my_motor/sw/drivers/drvic/ldc1612.c",line 647,column 14,is_stmt
    3043 000002f5 D00B          MOVB      XAR0,#11              ; [CPU_] |647| 
    3044 000002f6       $C$L84:    
    3045 000002f6 9794          MOV       *+XAR4[AR0],AH        ; [CPU_] |647| 
    3046              $C$DW$252       .dwtag  DW_TAG_TI_branch
    3047                      .dwattr $C$DW$252, DW_AT_low_pc(0x00)
    3048                      .dwattr $C$DW$252, DW_AT_TI_return
    3049 000002f7 0006          LRETR     ; [CPU_] 
    3050                      ; return occurs ; [] 
    3051 000002f8       $C$L85:    
    3052                      .dwpsn  file "D:/Foc/my_motor/sw/drivers/drvic/ldc1612.c",line 646,column 14,is_stmt
    3053 000002f8 97EC          MOV       *+XAR4[5],AH          ; [CPU_] |646| 
    3054              $C$DW$253       .dwtag  DW_TAG_TI_branch
    3055                      .dwattr $C$DW$253, DW_AT_low_pc(0x00)
    3056                      .dwattr $C$DW$253, DW_AT_TI_return
    3057 000002f9 0006          LRETR     ; [CPU_] 
    3058                      ; return occurs ; [] 
    3059                      .dwattr $C$DW$243, DW_AT_TI_end_file("D:/Foc/my_motor/sw/drivers/drvic/ldc1612.c")
    3060                      .dwattr $C$DW$243, DW_AT_TI_end_line(0x28d)
    3061                      .dwattr $C$DW$243, DW_AT_TI_end_column(0x01)
    3062                      .dwendentry
    3063                      .dwendtag $C$DW$243
    3064              
    3065 000002fa               .sect   ".text"
    3066                      .clink
    3067                      .global _LDC161x_readI2c
    3068              
    3069              $C$DW$254       .dwtag  DW_TAG_subprogram, DW_AT_name("LDC161x_readI2c")
    3070                      .dwattr $C$DW$254, DW_AT_low_pc(_LDC161x_readI2c)
    3071                      .dwattr $C$DW$254, DW_AT_high_pc(0x00)
    3072                      .dwattr $C$DW$254, DW_AT_TI_symbol_name("_LDC161x_readI2c")
TMS320C2000 Assembler PC v6.2.5 Mon Jul 10 09:53:39 2017

Tools Copyright (c) 1996-2014 Texas Instruments Incorporated
C:\Users\wmj\AppData\Local\Temp\1375610                              PAGE   59

    3073                      .dwattr $C$DW$254, DW_AT_external
    3074                      .dwattr $C$DW$254, DW_AT_type(*$C$DW$T$21)
    3075                      .dwattr $C$DW$254, DW_AT_TI_begin_file("D:/Foc/my_motor/sw/drivers/drvic/ldc1612.c")
    3076                      .dwattr $C$DW$254, DW_AT_TI_begin_line(0x54)
    3077                      .dwattr $C$DW$254, DW_AT_TI_begin_column(0x0a)
    3078                      .dwattr $C$DW$254, DW_AT_TI_max_frame_size(-8)
    3079                      .dwpsn  file "D:/Foc/my_motor/sw/drivers/drvic/ldc1612.c",line 85,column 1,is_stmt,address _LDC161x_r
    3080              
    3081                      .dwfde $C$DW$CIE, _LDC161x_readI2c
    3082              $C$DW$255       .dwtag  DW_TAG_variable, DW_AT_name("WaitTimeOut")
    3083                      .dwattr $C$DW$255, DW_AT_TI_symbol_name("_WaitTimeOut$2")
    3084                      .dwattr $C$DW$255, DW_AT_type(*$C$DW$T$27)
    3085                      .dwattr $C$DW$255, DW_AT_location[DW_OP_addr _WaitTimeOut$2]
    3086              $C$DW$256       .dwtag  DW_TAG_formal_parameter, DW_AT_name("handle")
    3087                      .dwattr $C$DW$256, DW_AT_TI_symbol_name("_handle")
    3088                      .dwattr $C$DW$256, DW_AT_type(*$C$DW$T$120)
    3089                      .dwattr $C$DW$256, DW_AT_location[DW_OP_reg12]
    3090              $C$DW$257       .dwtag  DW_TAG_formal_parameter, DW_AT_name("regName")
    3091                      .dwattr $C$DW$257, DW_AT_TI_symbol_name("_regName")
    3092                      .dwattr $C$DW$257, DW_AT_type(*$C$DW$T$94)
    3093                      .dwattr $C$DW$257, DW_AT_location[DW_OP_reg0]
    3094              
    3095              ;***************************************************************
    3096              ;* FNAME: _LDC161x_readI2c              FR SIZE:   6           *
    3097              ;*                                                             *
    3098              ;* FUNCTION ENVIRONMENT                                        *
    3099              ;*                                                             *
    3100              ;* FUNCTION PROPERTIES                                         *
    3101              ;*                            0 Parameter,  1 Auto,  4 SOE     *
    3102              ;***************************************************************
    3103              
    3104              _LDC161x_readI2c:
    3105              ;* AR1   assigned to _regName
    3106              $C$DW$258       .dwtag  DW_TAG_variable, DW_AT_name("regName")
    3107                      .dwattr $C$DW$258, DW_AT_TI_symbol_name("_regName")
    3108                      .dwattr $C$DW$258, DW_AT_type(*$C$DW$T$94)
    3109                      .dwattr $C$DW$258, DW_AT_location[DW_OP_reg6]
    3110              ;* AR2   assigned to _handle
    3111              $C$DW$259       .dwtag  DW_TAG_variable, DW_AT_name("handle")
    3112                      .dwattr $C$DW$259, DW_AT_TI_symbol_name("_handle")
    3113                      .dwattr $C$DW$259, DW_AT_type(*$C$DW$T$121)
    3114                      .dwattr $C$DW$259, DW_AT_location[DW_OP_reg8]
    3115              $C$DW$260       .dwtag  DW_TAG_variable, DW_AT_name("readWord")
    3116                      .dwattr $C$DW$260, DW_AT_TI_symbol_name("_readWord")
    3117                      .dwattr $C$DW$260, DW_AT_type(*$C$DW$T$27)
    3118                      .dwattr $C$DW$260, DW_AT_location[DW_OP_breg20 -1]
    3119                      .dwcfi  cfa_offset, -2
    3120                      .dwcfi  save_reg_to_mem, 26, 0
    3121                      .dwcfi  save_reg_to_reg, 78, 26
    3122 000002fa B2BD          MOVL      *SP++,XAR1            ; [CPU_] 
    3123                      .dwcfi  save_reg_to_mem, 7, 2
    3124                      .dwcfi  cfa_offset, -4
    3125 000002fb AABD          MOVL      *SP++,XAR2            ; [CPU_] 
    3126                      .dwcfi  save_reg_to_mem, 9, 4
    3127                      .dwcfi  cfa_offset, -6
TMS320C2000 Assembler PC v6.2.5 Mon Jul 10 09:53:39 2017

Tools Copyright (c) 1996-2014 Texas Instruments Incorporated
C:\Users\wmj\AppData\Local\Temp\1375610                              PAGE   60

    3128 000002fc FE02          ADDB      SP,#2                 ; [CPU_U] 
    3129                      .dwcfi  cfa_offset, -8
    3130 000002fd 59A9          MOVZ      AR1,AL                ; [CPU_] |85| 
    3131 000002fe 86A4          MOVL      XAR2,XAR4             ; [CPU_] |85| 
    3132                      .dwpsn  file "D:/Foc/my_motor/sw/drivers/drvic/ldc1612.c",line 90,column 3,is_stmt
    3133 000002ff 6F08          B         $C$L87,UNC            ; [CPU_] |90| 
    3134                      ; branch occurs ; [] |90| 
    3135 00000300       $C$L86:    
    3136                      .dwpsn  file "D:/Foc/my_motor/sw/drivers/drvic/ldc1612.c",line 91,column 5,is_stmt
    3137 00000300 8AC2          MOVL      XAR4,*+XAR2[0]        ; [CPU_] |91| 
    3138 00000301 9B00          MOVB      AH,#0                 ; [CPU_] |91| 
    3139 00000302 D501          MOVB      XAR5,#1               ; [CPU_] |91| 
    3140 00000303 28A9          MOV       AL,#3072              ; [CPU_] |91| 
         00000304 0C00 
    3141              $C$DW$261       .dwtag  DW_TAG_TI_branch
    3142                      .dwattr $C$DW$261, DW_AT_low_pc(0x00)
    3143                      .dwattr $C$DW$261, DW_AT_name("_I2C_MasterControl")
    3144                      .dwattr $C$DW$261, DW_AT_TI_call
    3145 00000305 7640!         LCR       #_I2C_MasterControl   ; [CPU_] |91| 
         00000306 0000 
    3146                      ; call occurs [#_I2C_MasterControl] ; [] |91| 
    3147 00000307       $C$L87:    
    3148 00000307 8AC2          MOVL      XAR4,*+XAR2[0]        ; [CPU_] |91| 
    3149              $C$DW$262       .dwtag  DW_TAG_TI_branch
    3150                      .dwattr $C$DW$262, DW_AT_low_pc(0x00)
    3151                      .dwattr $C$DW$262, DW_AT_name("_I2C_isMasterBusy")
    3152                      .dwattr $C$DW$262, DW_AT_TI_call
    3153 00000308 7640!         LCR       #_I2C_isMasterBusy    ; [CPU_] |91| 
         00000309 0000 
    3154                      ; call occurs [#_I2C_isMasterBusy] ; [] |91| 
    3155 0000030a 5200          CMPB      AL,#0                 ; [CPU_] |91| 
    3156 0000030b EDF5          BF        $C$L86,NEQ            ; [CPU_] |91| 
    3157                      ; branchcc occurs ; [] |91| 
    3158                      .dwpsn  file "D:/Foc/my_motor/sw/drivers/drvic/ldc1612.c",line 93,column 4,is_stmt
    3159 0000030c D05E          MOVB      XAR0,#94              ; [CPU_] |93| 
