TMS320C2000 Assembler PC v6.2.5 Mon Jul 10 09:53:39 2017

Tools Copyright (c) 1996-2014 Texas Instruments Incorporated
C:\Users\wmj\AppData\Local\Temp\1375610                              PAGE    1

       1              ;***************************************************************
       2              ;* TMS320C2000 C/C++ Codegen                         PC v6.2.5 *
       3              ;* Date/Time created: Mon Jul 10 09:53:38 2017                 *
       4              ;***************************************************************
       5                      .compiler_opts --float_support=softlib --hll_source=on --mem_model:code=flat --mem_model:data=large -
       6        0002  FP      .set    XAR2
       7              
       8              $C$DW$CU        .dwtag  DW_TAG_compile_unit
       9                      .dwattr $C$DW$CU, DW_AT_name("D:/Foc/my_motor/sw/drivers/drvic/ldc1612.c")
      10                      .dwattr $C$DW$CU, DW_AT_producer("TMS320C2000 C/C++ Codegen PC v6.2.5 Copyright (c) 1996-2014 Texas I
      11                      .dwattr $C$DW$CU, DW_AT_TI_version(0x01)
      12                      .dwattr $C$DW$CU, DW_AT_comp_dir("D:\Foc\my_motor\sw\solutions\instaspin_foc\boards\hvkit_rev1p1\f28x
      13              ;**************************************************************
      14              ;* CINIT RECORDS                                              *
      15              ;**************************************************************
      16 00000000               .sect   ".cinit"
      17                      .align  1
      18 00000000 FFFE          .field          -2,16
      19 00000001 0002-         .field          _x_Last$5+0,32
         00000002 0000 
      20 00000003 0000          .bits   0,32                    ; _x_Last$5 @ 0
         00000004 0000 
      21              
      22 00000005               .sect   ".cinit"
      23                      .align  1
      24 00000005 FFFE          .field          -2,16
      25 00000006 0004-         .field          _Sum$4+0,32
         00000007 0000 
      26 00000008 0000          .bits   1073741824,32                   ; _Sum$4 @ 0
         00000009 4000 
      27              
      28 0000000a               .sect   ".cinit"
      29                      .align  1
      30 0000000a FFFE          .field          -2,16
      31 0000000b 000A-         .field          _Avage$3+0,32
         0000000c 0000 
      32 0000000d 0000          .bits   67108864,32                     ; _Avage$3 @ 0
         0000000e 0400 
      33              
      34              
      35              $C$DW$1 .dwtag  DW_TAG_subprogram, DW_AT_name("GPIO_setLow")
      36                      .dwattr $C$DW$1, DW_AT_TI_symbol_name("_GPIO_setLow")
      37                      .dwattr $C$DW$1, DW_AT_declaration
      38                      .dwattr $C$DW$1, DW_AT_external
      39              $C$DW$2 .dwtag  DW_TAG_formal_parameter
      40                      .dwattr $C$DW$2, DW_AT_type(*$C$DW$T$45)
      41              $C$DW$3 .dwtag  DW_TAG_formal_parameter
      42                      .dwattr $C$DW$3, DW_AT_type(*$C$DW$T$85)
      43                      .dwendtag $C$DW$1
      44              
      45              
      46              $C$DW$4 .dwtag  DW_TAG_subprogram, DW_AT_name("GPIO_setDirection")
      47                      .dwattr $C$DW$4, DW_AT_TI_symbol_name("_GPIO_setDirection")
      48                      .dwattr $C$DW$4, DW_AT_declaration
      49                      .dwattr $C$DW$4, DW_AT_external
TMS320C2000 Assembler PC v6.2.5 Mon Jul 10 09:53:39 2017

Tools Copyright (c) 1996-2014 Texas Instruments Incorporated
C:\Users\wmj\AppData\Local\Temp\1375610                              PAGE    2

      50              $C$DW$5 .dwtag  DW_TAG_formal_parameter
      51                      .dwattr $C$DW$5, DW_AT_type(*$C$DW$T$45)
      52              $C$DW$6 .dwtag  DW_TAG_formal_parameter
      53                      .dwattr $C$DW$6, DW_AT_type(*$C$DW$T$85)
      54              $C$DW$7 .dwtag  DW_TAG_formal_parameter
      55                      .dwattr $C$DW$7, DW_AT_type(*$C$DW$T$88)
      56                      .dwendtag $C$DW$4
      57              
      58              
      59              $C$DW$8 .dwtag  DW_TAG_subprogram, DW_AT_name("GPIO_setMode")
      60                      .dwattr $C$DW$8, DW_AT_TI_symbol_name("_GPIO_setMode")
      61                      .dwattr $C$DW$8, DW_AT_declaration
      62                      .dwattr $C$DW$8, DW_AT_external
      63              $C$DW$9 .dwtag  DW_TAG_formal_parameter
      64                      .dwattr $C$DW$9, DW_AT_type(*$C$DW$T$45)
      65              $C$DW$10        .dwtag  DW_TAG_formal_parameter
      66                      .dwattr $C$DW$10, DW_AT_type(*$C$DW$T$85)
      67              $C$DW$11        .dwtag  DW_TAG_formal_parameter
      68                      .dwattr $C$DW$11, DW_AT_type(*$C$DW$T$91)
      69                      .dwendtag $C$DW$8
      70              
      71              
      72              $C$DW$12        .dwtag  DW_TAG_subprogram, DW_AT_name("I2C_MasterControl")
      73                      .dwattr $C$DW$12, DW_AT_TI_symbol_name("_I2C_MasterControl")
      74                      .dwattr $C$DW$12, DW_AT_declaration
      75                      .dwattr $C$DW$12, DW_AT_external
      76              $C$DW$13        .dwtag  DW_TAG_formal_parameter
      77                      .dwattr $C$DW$13, DW_AT_type(*$C$DW$T$43)
      78              $C$DW$14        .dwtag  DW_TAG_formal_parameter
      79                      .dwattr $C$DW$14, DW_AT_type(*$C$DW$T$75)
      80              $C$DW$15        .dwtag  DW_TAG_formal_parameter
      81                      .dwattr $C$DW$15, DW_AT_type(*$C$DW$T$77)
      82              $C$DW$16        .dwtag  DW_TAG_formal_parameter
      83                      .dwattr $C$DW$16, DW_AT_type(*$C$DW$T$21)
      84                      .dwendtag $C$DW$12
      85              
      86              
      87              $C$DW$17        .dwtag  DW_TAG_subprogram, DW_AT_name("_nop")
      88                      .dwattr $C$DW$17, DW_AT_TI_symbol_name("__nop")
      89                      .dwattr $C$DW$17, DW_AT_declaration
      90                      .dwattr $C$DW$17, DW_AT_external
      91              
      92              $C$DW$18        .dwtag  DW_TAG_subprogram, DW_AT_name("I2C_enable")
      93                      .dwattr $C$DW$18, DW_AT_TI_symbol_name("_I2C_enable")
      94                      .dwattr $C$DW$18, DW_AT_declaration
      95                      .dwattr $C$DW$18, DW_AT_external
      96              $C$DW$19        .dwtag  DW_TAG_formal_parameter
      97                      .dwattr $C$DW$19, DW_AT_type(*$C$DW$T$43)
      98                      .dwendtag $C$DW$18
      99              
     100              
     101              $C$DW$20        .dwtag  DW_TAG_subprogram, DW_AT_name("I2C_setMasterSlaveAddr")
     102                      .dwattr $C$DW$20, DW_AT_TI_symbol_name("_I2C_setMasterSlaveAddr")
     103                      .dwattr $C$DW$20, DW_AT_declaration
     104                      .dwattr $C$DW$20, DW_AT_external
TMS320C2000 Assembler PC v6.2.5 Mon Jul 10 09:53:39 2017

Tools Copyright (c) 1996-2014 Texas Instruments Incorporated
C:\Users\wmj\AppData\Local\Temp\1375610                              PAGE    3

     105              $C$DW$21        .dwtag  DW_TAG_formal_parameter
     106                      .dwattr $C$DW$21, DW_AT_type(*$C$DW$T$43)
     107              $C$DW$22        .dwtag  DW_TAG_formal_parameter
     108                      .dwattr $C$DW$22, DW_AT_type(*$C$DW$T$136)
     109                      .dwendtag $C$DW$20
     110              
     111              
     112              $C$DW$23        .dwtag  DW_TAG_subprogram, DW_AT_name("I2C_putData")
     113                      .dwattr $C$DW$23, DW_AT_TI_symbol_name("_I2C_putData")
     114                      .dwattr $C$DW$23, DW_AT_declaration
     115                      .dwattr $C$DW$23, DW_AT_external
     116              $C$DW$24        .dwtag  DW_TAG_formal_parameter
     117                      .dwattr $C$DW$24, DW_AT_type(*$C$DW$T$43)
     118              $C$DW$25        .dwtag  DW_TAG_formal_parameter
     119                      .dwattr $C$DW$25, DW_AT_type(*$C$DW$T$21)
     120                      .dwendtag $C$DW$23
     121              
     122 00000000       _WaitTimeOut$2: .usect  ".ebss",1,1,0
     123 00000001       _WaitTimeOut$1: .usect  ".ebss",1,1,0
     124              
     125              $C$DW$26        .dwtag  DW_TAG_subprogram, DW_AT_name("I2C_getData")
     126                      .dwattr $C$DW$26, DW_AT_TI_symbol_name("_I2C_getData")
     127                      .dwattr $C$DW$26, DW_AT_type(*$C$DW$T$21)
     128                      .dwattr $C$DW$26, DW_AT_declaration
     129                      .dwattr $C$DW$26, DW_AT_external
     130              $C$DW$27        .dwtag  DW_TAG_formal_parameter
     131                      .dwattr $C$DW$27, DW_AT_type(*$C$DW$T$43)
     132                      .dwendtag $C$DW$26
     133              
     134              
     135              $C$DW$28        .dwtag  DW_TAG_subprogram, DW_AT_name("I2C_getStatus")
     136                      .dwattr $C$DW$28, DW_AT_TI_symbol_name("_I2C_getStatus")
     137                      .dwattr $C$DW$28, DW_AT_type(*$C$DW$T$79)
     138                      .dwattr $C$DW$28, DW_AT_declaration
     139                      .dwattr $C$DW$28, DW_AT_external
     140              $C$DW$29        .dwtag  DW_TAG_formal_parameter
     141                      .dwattr $C$DW$29, DW_AT_type(*$C$DW$T$43)
     142                      .dwendtag $C$DW$28
     143              
     144              
     145              $C$DW$30        .dwtag  DW_TAG_subprogram, DW_AT_name("I2C_isMasterBusy")
     146                      .dwattr $C$DW$30, DW_AT_TI_symbol_name("_I2C_isMasterBusy")
     147                      .dwattr $C$DW$30, DW_AT_type(*$C$DW$T$35)
     148                      .dwattr $C$DW$30, DW_AT_declaration
     149                      .dwattr $C$DW$30, DW_AT_external
     150              $C$DW$31        .dwtag  DW_TAG_formal_parameter
     151                      .dwattr $C$DW$31, DW_AT_type(*$C$DW$T$43)
     152                      .dwendtag $C$DW$30
     153              
     154 00000002       _x_Last$5:      .usect  ".ebss",2,1,1
     155 00000004       _Sum$4: .usect  ".ebss",2,1,1
     156 00000006       _p_Last$6:      .usect  ".ebss",2,1,1
     157 00000008       _DataTmp_Last$7:        .usect  ".ebss",2,1,1
     158 0000000a       _Avage$3:       .usect  ".ebss",2,1,1
     159              ;       c:\ti\ccsv6\tools\compiler\c2000_6.2.5\bin\opt2000.exe C:\\Users\\wmj\\AppData\\Local\\Temp\\137562 C
TMS320C2000 Assembler PC v6.2.5 Mon Jul 10 09:53:39 2017

Tools Copyright (c) 1996-2014 Texas Instruments Incorporated
C:\Users\wmj\AppData\Local\Temp\1375610                              PAGE    4

     160              ;       c:\ti\ccsv6\tools\compiler\c2000_6.2.5\bin\ac2000.exe -@C:\\Users\\wmj\\AppData\\Local\\Temp\\1375616
     161 00000000               .sect   ".text"
     162                      .clink
     163                      .global _LDC161x_getSettleCnt
     164              
     165              $C$DW$32        .dwtag  DW_TAG_subprogram, DW_AT_name("LDC161x_getSettleCnt")
     166                      .dwattr $C$DW$32, DW_AT_low_pc(_LDC161x_getSettleCnt)
     167                      .dwattr $C$DW$32, DW_AT_high_pc(0x00)
     168                      .dwattr $C$DW$32, DW_AT_TI_symbol_name("_LDC161x_getSettleCnt")
     169                      .dwattr $C$DW$32, DW_AT_external
     170                      .dwattr $C$DW$32, DW_AT_TI_begin_file("D:/Foc/my_motor/sw/drivers/drvic/ldc1612.c")
     171                      .dwattr $C$DW$32, DW_AT_TI_begin_line(0x3b3)
     172                      .dwattr $C$DW$32, DW_AT_TI_begin_column(0x06)
     173                      .dwattr $C$DW$32, DW_AT_TI_max_frame_size(-2)
     174                      .dwpsn  file "D:/Foc/my_motor/sw/drivers/drvic/ldc1612.c",line 948,column 1,is_stmt,address _LDC161x_
     175              
     176                      .dwfde $C$DW$CIE, _LDC161x_getSettleCnt
     177              $C$DW$33        .dwtag  DW_TAG_formal_parameter, DW_AT_name("handle")
     178                      .dwattr $C$DW$33, DW_AT_TI_symbol_name("_handle")
     179                      .dwattr $C$DW$33, DW_AT_type(*$C$DW$T$47)
     180                      .dwattr $C$DW$33, DW_AT_location[DW_OP_reg12]
     181              $C$DW$34        .dwtag  DW_TAG_formal_parameter, DW_AT_name("Channel")
     182                      .dwattr $C$DW$34, DW_AT_TI_symbol_name("_Channel")
     183                      .dwattr $C$DW$34, DW_AT_type(*$C$DW$T$136)
     184                      .dwattr $C$DW$34, DW_AT_location[DW_OP_reg0]
     185              $C$DW$35        .dwtag  DW_TAG_formal_parameter, DW_AT_name("drvDataGet")
     186                      .dwattr $C$DW$35, DW_AT_TI_symbol_name("_drvDataGet")
     187                      .dwattr $C$DW$35, DW_AT_type(*$C$DW$T$155)
     188                      .dwattr $C$DW$35, DW_AT_location[DW_OP_reg14]
     189              
     190              ;***************************************************************
     191              ;* FNAME: _LDC161x_getSettleCnt         FR SIZE:   0           *
     192              ;*                                                             *
     193              ;* FUNCTION ENVIRONMENT                                        *
     194              ;*                                                             *
     195              ;* FUNCTION PROPERTIES                                         *
     196              ;*                            0 Parameter,  0 Auto,  0 SOE     *
     197              ;***************************************************************
     198              
     199              _LDC161x_getSettleCnt:
     200              ;* AL    assigned to _drvData
     201              $C$DW$36        .dwtag  DW_TAG_variable, DW_AT_name("drvData")
     202                      .dwattr $C$DW$36, DW_AT_TI_symbol_name("_drvData")
     203                      .dwattr $C$DW$36, DW_AT_type(*$C$DW$T$21)
     204                      .dwattr $C$DW$36, DW_AT_location[DW_OP_reg0]
     205              ;* AR4   assigned to _obj
     206              $C$DW$37        .dwtag  DW_TAG_variable, DW_AT_name("obj")
     207                      .dwattr $C$DW$37, DW_AT_TI_symbol_name("_obj")
     208                      .dwattr $C$DW$37, DW_AT_type(*$C$DW$T$125)
     209                      .dwattr $C$DW$37, DW_AT_location[DW_OP_reg12]
     210              ;* AR5   assigned to _drvDataGet
     211              $C$DW$38        .dwtag  DW_TAG_variable, DW_AT_name("drvDataGet")
     212                      .dwattr $C$DW$38, DW_AT_TI_symbol_name("_drvDataGet")
     213                      .dwattr $C$DW$38, DW_AT_type(*$C$DW$T$167)
     214                      .dwattr $C$DW$38, DW_AT_location[DW_OP_reg14]
TMS320C2000 Assembler PC v6.2.5 Mon Jul 10 09:53:39 2017

Tools Copyright (c) 1996-2014 Texas Instruments Incorporated
C:\Users\wmj\AppData\Local\Temp\1375610                              PAGE    5

     215              ;* AL    assigned to _Channel
     216              $C$DW$39        .dwtag  DW_TAG_variable, DW_AT_name("Channel")
     217                      .dwattr $C$DW$39, DW_AT_TI_symbol_name("_Channel")
     218                      .dwattr $C$DW$39, DW_AT_type(*$C$DW$T$136)
     219                      .dwattr $C$DW$39, DW_AT_location[DW_OP_reg0]
     220              ;* AR4   assigned to _handle
     221              $C$DW$40        .dwtag  DW_TAG_variable, DW_AT_name("handle")
     222                      .dwattr $C$DW$40, DW_AT_TI_symbol_name("_handle")
     223                      .dwattr $C$DW$40, DW_AT_type(*$C$DW$T$109)
     224                      .dwattr $C$DW$40, DW_AT_location[DW_OP_reg12]
     225                      .dwcfi  cfa_offset, -2
     226                      .dwcfi  save_reg_to_mem, 26, 0
     227                      .dwcfi  save_reg_to_reg, 78, 26
     228                      .dwpsn  file "D:/Foc/my_motor/sw/drivers/drvic/ldc1612.c",line 952,column 3,is_stmt
     229 00000000 5200          CMPB      AL,#0                 ; [CPU_] |952| 
     230 00000001 EC0F          BF        $C$L4,EQ              ; [CPU_] |952| 
     231                      ; branchcc occurs ; [] |952| 
     232 00000002 5201          CMPB      AL,#1                 ; [CPU_] |952| 
     233 00000003 EC0B          BF        $C$L3,EQ              ; [CPU_] |952| 
     234                      ; branchcc occurs ; [] |952| 
     235 00000004 5202          CMPB      AL,#2                 ; [CPU_] |952| 
     236 00000005 EC07          BF        $C$L2,EQ              ; [CPU_] |952| 
     237                      ; branchcc occurs ; [] |952| 
     238 00000006 5203          CMPB      AL,#3                 ; [CPU_] |952| 
     239 00000007 EC03          BF        $C$L1,EQ              ; [CPU_] |952| 
     240                      ; branchcc occurs ; [] |952| 
     241                      .dwpsn  file "D:/Foc/my_motor/sw/drivers/drvic/ldc1612.c",line 950,column 20,is_stmt
     242 00000008 9A00          MOVB      AL,#0                 ; [CPU_] |950| 
     243 00000009 6F09          B         $C$L6,UNC             ; [CPU_] 
     244                      ; branch occurs ; [] 
     245 0000000a       $C$L1:    
     246                      .dwpsn  file "D:/Foc/my_motor/sw/drivers/drvic/ldc1612.c",line 957,column 13,is_stmt
     247 0000000a D023          MOVB      XAR0,#35              ; [CPU_] |957| 
     248                      .dwpsn  file "D:/Foc/my_motor/sw/drivers/drvic/ldc1612.c",line 957,column 58,is_stmt
     249 0000000b 6F06          B         $C$L5,UNC             ; [CPU_] |957| 
     250                      ; branch occurs ; [] |957| 
     251 0000000c       $C$L2:    
     252                      .dwpsn  file "D:/Foc/my_motor/sw/drivers/drvic/ldc1612.c",line 956,column 13,is_stmt
     253 0000000c D022          MOVB      XAR0,#34              ; [CPU_] |956| 
     254                      .dwpsn  file "D:/Foc/my_motor/sw/drivers/drvic/ldc1612.c",line 956,column 58,is_stmt
     255 0000000d 6F04          B         $C$L5,UNC             ; [CPU_] |956| 
     256                      ; branch occurs ; [] |956| 
     257 0000000e       $C$L3:    
     258                      .dwpsn  file "D:/Foc/my_motor/sw/drivers/drvic/ldc1612.c",line 955,column 13,is_stmt
     259 0000000e D021          MOVB      XAR0,#33              ; [CPU_] |955| 
     260                      .dwpsn  file "D:/Foc/my_motor/sw/drivers/drvic/ldc1612.c",line 955,column 58,is_stmt
     261 0000000f 6F02          B         $C$L5,UNC             ; [CPU_] |955| 
     262                      ; branch occurs ; [] |955| 
     263 00000010       $C$L4:    
     264                      .dwpsn  file "D:/Foc/my_motor/sw/drivers/drvic/ldc1612.c",line 954,column 13,is_stmt
     265 00000010 D020          MOVB      XAR0,#32              ; [CPU_] |954| 
     266 00000011       $C$L5:    
     267 00000011 9294          MOV       AL,*+XAR4[AR0]        ; [CPU_] |954| 
     268 00000012       $C$L6:    
     269                      .dwpsn  file "D:/Foc/my_motor/sw/drivers/drvic/ldc1612.c",line 961,column 3,is_stmt
TMS320C2000 Assembler PC v6.2.5 Mon Jul 10 09:53:39 2017

Tools Copyright (c) 1996-2014 Texas Instruments Incorporated
C:\Users\wmj\AppData\Local\Temp\1375610                              PAGE    6

     270 00000012 96C5          MOV       *+XAR5[0],AL          ; [CPU_] |961| 
     271              $C$DW$41        .dwtag  DW_TAG_TI_branch
     272                      .dwattr $C$DW$41, DW_AT_low_pc(0x00)
     273                      .dwattr $C$DW$41, DW_AT_TI_return
     274 00000013 0006          LRETR     ; [CPU_] 
     275                      ; return occurs ; [] 
     276                      .dwattr $C$DW$32, DW_AT_TI_end_file("D:/Foc/my_motor/sw/drivers/drvic/ldc1612.c")
     277                      .dwattr $C$DW$32, DW_AT_TI_end_line(0x3c4)
     278                      .dwattr $C$DW$32, DW_AT_TI_end_column(0x01)
     279                      .dwendentry
     280                      .dwendtag $C$DW$32
     281              
     282 00000014               .sect   ".text"
     283                      .clink
     284                      .global _LDC161x_writeI2c
     285              
     286              $C$DW$42        .dwtag  DW_TAG_subprogram, DW_AT_name("LDC161x_writeI2c")
     287                      .dwattr $C$DW$42, DW_AT_low_pc(_LDC161x_writeI2c)
     288                      .dwattr $C$DW$42, DW_AT_high_pc(0x00)
     289                      .dwattr $C$DW$42, DW_AT_TI_symbol_name("_LDC161x_writeI2c")
     290                      .dwattr $C$DW$42, DW_AT_external
     291                      .dwattr $C$DW$42, DW_AT_TI_begin_file("D:/Foc/my_motor/sw/drivers/drvic/ldc1612.c")
     292                      .dwattr $C$DW$42, DW_AT_TI_begin_line(0x10)
     293                      .dwattr $C$DW$42, DW_AT_TI_begin_column(0x06)
     294                      .dwattr $C$DW$42, DW_AT_TI_max_frame_size(-8)
     295                      .dwpsn  file "D:/Foc/my_motor/sw/drivers/drvic/ldc1612.c",line 17,column 1,is_stmt,address _LDC161x_w
     296              
     297                      .dwfde $C$DW$CIE, _LDC161x_writeI2c
     298              $C$DW$43        .dwtag  DW_TAG_variable, DW_AT_name("WaitTimeOut")
     299                      .dwattr $C$DW$43, DW_AT_TI_symbol_name("_WaitTimeOut$1")
     300                      .dwattr $C$DW$43, DW_AT_type(*$C$DW$T$27)
     301                      .dwattr $C$DW$43, DW_AT_location[DW_OP_addr _WaitTimeOut$1]
     302              $C$DW$44        .dwtag  DW_TAG_formal_parameter, DW_AT_name("handle")
     303                      .dwattr $C$DW$44, DW_AT_TI_symbol_name("_handle")
     304                      .dwattr $C$DW$44, DW_AT_type(*$C$DW$T$120)
     305                      .dwattr $C$DW$44, DW_AT_location[DW_OP_reg12]
     306              $C$DW$45        .dwtag  DW_TAG_formal_parameter, DW_AT_name("regName")
     307                      .dwattr $C$DW$45, DW_AT_TI_symbol_name("_regName")
     308                      .dwattr $C$DW$45, DW_AT_type(*$C$DW$T$94)
     309                      .dwattr $C$DW$45, DW_AT_location[DW_OP_reg0]
     310              $C$DW$46        .dwtag  DW_TAG_formal_parameter, DW_AT_name("data")
     311                      .dwattr $C$DW$46, DW_AT_TI_symbol_name("_data")
     312                      .dwattr $C$DW$46, DW_AT_type(*$C$DW$T$136)
     313                      .dwattr $C$DW$46, DW_AT_location[DW_OP_reg1]
     314              
     315              ;***************************************************************
     316              ;* FNAME: _LDC161x_writeI2c             FR SIZE:   6           *
     317              ;*                                                             *
     318              ;* FUNCTION ENVIRONMENT                                        *
     319              ;*                                                             *
     320              ;* FUNCTION PROPERTIES                                         *
     321              ;*                            0 Parameter,  0 Auto,  6 SOE     *
     322              ;***************************************************************
     323              
     324              _LDC161x_writeI2c:
TMS320C2000 Assembler PC v6.2.5 Mon Jul 10 09:53:39 2017

Tools Copyright (c) 1996-2014 Texas Instruments Incorporated
C:\Users\wmj\AppData\Local\Temp\1375610                              PAGE    7

     325              ;* AR1   assigned to _data
     326              $C$DW$47        .dwtag  DW_TAG_variable, DW_AT_name("data")
     327                      .dwattr $C$DW$47, DW_AT_TI_symbol_name("_data")
     328                      .dwattr $C$DW$47, DW_AT_type(*$C$DW$T$136)
     329                      .dwattr $C$DW$47, DW_AT_location[DW_OP_reg6]
     330              ;* AR2   assigned to _regName
     331              $C$DW$48        .dwtag  DW_TAG_variable, DW_AT_name("regName")
     332                      .dwattr $C$DW$48, DW_AT_TI_symbol_name("_regName")
     333                      .dwattr $C$DW$48, DW_AT_type(*$C$DW$T$94)
     334                      .dwattr $C$DW$48, DW_AT_location[DW_OP_reg8]
     335              ;* AR3   assigned to _handle
     336              $C$DW$49        .dwtag  DW_TAG_variable, DW_AT_name("handle")
     337                      .dwattr $C$DW$49, DW_AT_TI_symbol_name("_handle")
     338                      .dwattr $C$DW$49, DW_AT_type(*$C$DW$T$121)
     339                      .dwattr $C$DW$49, DW_AT_location[DW_OP_reg10]
     340                      .dwcfi  cfa_offset, -2
     341                      .dwcfi  save_reg_to_mem, 26, 0
     342                      .dwcfi  save_reg_to_reg, 78, 26
     343 00000014 B2BD          MOVL      *SP++,XAR1            ; [CPU_] 
     344                      .dwcfi  save_reg_to_mem, 7, 2
     345                      .dwcfi  cfa_offset, -4
     346 00000015 59A8          MOVZ      AR1,AH                ; [CPU_] |17| 
     347 00000016 AABD          MOVL      *SP++,XAR2            ; [CPU_] 
     348                      .dwcfi  save_reg_to_mem, 9, 4
     349                      .dwcfi  cfa_offset, -6
     350 00000017 5AA9          MOVZ      AR2,AL                ; [CPU_] |17| 
     351 00000018 A2BD          MOVL      *SP++,XAR3            ; [CPU_] 
     352                      .dwcfi  save_reg_to_mem, 11, 6
     353                      .dwcfi  cfa_offset, -8
     354 00000019 82A4          MOVL      XAR3,XAR4             ; [CPU_] |17| 
     355                      .dwpsn  file "D:/Foc/my_motor/sw/drivers/drvic/ldc1612.c",line 22,column 4,is_stmt
     356 0000001a 6F08          B         $C$L8,UNC             ; [CPU_] |22| 
     357                      ; branch occurs ; [] |22| 
     358 0000001b       $C$L7:    
     359                      .dwpsn  file "D:/Foc/my_motor/sw/drivers/drvic/ldc1612.c",line 23,column 8,is_stmt
     360 0000001b 8AC3          MOVL      XAR4,*+XAR3[0]        ; [CPU_] |23| 
     361 0000001c 9B00          MOVB      AH,#0                 ; [CPU_] |23| 
     362 0000001d D501          MOVB      XAR5,#1               ; [CPU_] |23| 
     363 0000001e 28A9          MOV       AL,#3072              ; [CPU_] |23| 
         0000001f 0C00 
     364              $C$DW$50        .dwtag  DW_TAG_TI_branch
     365                      .dwattr $C$DW$50, DW_AT_low_pc(0x00)
     366                      .dwattr $C$DW$50, DW_AT_name("_I2C_MasterControl")
     367                      .dwattr $C$DW$50, DW_AT_TI_call
     368 00000020 7640!         LCR       #_I2C_MasterControl   ; [CPU_] |23| 
         00000021 0000 
     369                      ; call occurs [#_I2C_MasterControl] ; [] |23| 
     370 00000022       $C$L8:    
     371 00000022 8AC3          MOVL      XAR4,*+XAR3[0]        ; [CPU_] |23| 
     372              $C$DW$51        .dwtag  DW_TAG_TI_branch
     373                      .dwattr $C$DW$51, DW_AT_low_pc(0x00)
     374                      .dwattr $C$DW$51, DW_AT_name("_I2C_isMasterBusy")
     375                      .dwattr $C$DW$51, DW_AT_TI_call
     376 00000023 7640!         LCR       #_I2C_isMasterBusy    ; [CPU_] |23| 
         00000024 0000 
TMS320C2000 Assembler PC v6.2.5 Mon Jul 10 09:53:39 2017

Tools Copyright (c) 1996-2014 Texas Instruments Incorporated
C:\Users\wmj\AppData\Local\Temp\1375610                              PAGE    8

     377                      ; call occurs [#_I2C_isMasterBusy] ; [] |23| 
     378 00000025 5200          CMPB      AL,#0                 ; [CPU_] |23| 
     379 00000026 EDF5          BF        $C$L7,NEQ             ; [CPU_] |23| 
     380                      ; branchcc occurs ; [] |23| 
     381                      .dwpsn  file "D:/Foc/my_motor/sw/drivers/drvic/ldc1612.c",line 25,column 4,is_stmt
     382 00000027 D05E          MOVB      XAR0,#94              ; [CPU_] |25| 
     383 00000028 9293          MOV       AL,*+XAR3[AR0]        ; [CPU_] |25| 
     384 00000029 5201          CMPB      AL,#1                 ; [CPU_] |25| 
     385 0000002a EC5A          BF        $C$L15,EQ             ; [CPU_] |25| 
     386                      ; branchcc occurs ; [] |25| 
     387 0000002b D05F          MOVB      XAR0,#95              ; [CPU_] |25| 
     388 0000002c 9293          MOV       AL,*+XAR3[AR0]        ; [CPU_] |25| 
     389 0000002d 5201          CMPB      AL,#1                 ; [CPU_] |25| 
     390 0000002e EC56          BF        $C$L15,EQ             ; [CPU_] |25| 
     391                      ; branchcc occurs ; [] |25| 
     392                      .dwpsn  file "D:/Foc/my_motor/sw/drivers/drvic/ldc1612.c",line 31,column 4,is_stmt
     393 0000002f D05D          MOVB      XAR0,#93              ; [CPU_] |31| 
     394 00000030 8AC3          MOVL      XAR4,*+XAR3[0]        ; [CPU_] |31| 
     395 00000031 9293          MOV       AL,*+XAR3[AR0]        ; [CPU_] |31| 
     396              $C$DW$52        .dwtag  DW_TAG_TI_branch
     397                      .dwattr $C$DW$52, DW_AT_low_pc(0x00)
     398                      .dwattr $C$DW$52, DW_AT_name("_I2C_setMasterSlaveAddr")
     399                      .dwattr $C$DW$52, DW_AT_TI_call
     400 00000032 7640!         LCR       #_I2C_setMasterSlaveAddr ; [CPU_] |31| 
         00000033 0000 
     401                      ; call occurs [#_I2C_setMasterSlaveAddr] ; [] |31| 
     402                      .dwpsn  file "D:/Foc/my_motor/sw/drivers/drvic/ldc1612.c",line 32,column 4,is_stmt
     403 00000034 9B00          MOVB      AH,#0                 ; [CPU_] |32| 
     404 00000035 D503          MOVB      XAR5,#3               ; [CPU_] |32| 
     405 00000036 28A9          MOV       AL,#11776             ; [CPU_] |32| 
         00000037 2E00 
     406 00000038 8AC3          MOVL      XAR4,*+XAR3[0]        ; [CPU_] |32| 
     407              $C$DW$53        .dwtag  DW_TAG_TI_branch
     408                      .dwattr $C$DW$53, DW_AT_low_pc(0x00)
     409                      .dwattr $C$DW$53, DW_AT_name("_I2C_MasterControl")
     410                      .dwattr $C$DW$53, DW_AT_TI_call
     411 00000039 7640!         LCR       #_I2C_MasterControl   ; [CPU_] |32| 
         0000003a 0000 
     412                      ; call occurs [#_I2C_MasterControl] ; [] |32| 
     413                      .dwpsn  file "D:/Foc/my_motor/sw/drivers/drvic/ldc1612.c",line 33,column 4,is_stmt
     414 0000003b 8AC3          MOVL      XAR4,*+XAR3[0]        ; [CPU_] |33| 
     415              $C$DW$54        .dwtag  DW_TAG_TI_branch
     416                      .dwattr $C$DW$54, DW_AT_low_pc(0x00)
     417                      .dwattr $C$DW$54, DW_AT_name("_I2C_enable")
     418                      .dwattr $C$DW$54, DW_AT_TI_call
     419 0000003c 7640!         LCR       #_I2C_enable          ; [CPU_] |33| 
         0000003d 0000 
     420                      ; call occurs [#_I2C_enable] ; [] |33| 
     421                      .dwpsn  file "D:/Foc/my_motor/sw/drivers/drvic/ldc1612.c",line 36,column 4,is_stmt
     422 0000003e 92A2          MOV       AL,AR2                ; [CPU_] |36| 
     423 0000003f 8AC3          MOVL      XAR4,*+XAR3[0]        ; [CPU_] |36| 
     424              $C$DW$55        .dwtag  DW_TAG_TI_branch
     425                      .dwattr $C$DW$55, DW_AT_low_pc(0x00)
     426                      .dwattr $C$DW$55, DW_AT_name("_I2C_putData")
     427                      .dwattr $C$DW$55, DW_AT_TI_call
TMS320C2000 Assembler PC v6.2.5 Mon Jul 10 09:53:39 2017

Tools Copyright (c) 1996-2014 Texas Instruments Incorporated
C:\Users\wmj\AppData\Local\Temp\1375610                              PAGE    9

     428 00000040 7640!         LCR       #_I2C_putData         ; [CPU_] |36| 
         00000041 0000 
     429                      ; call occurs [#_I2C_putData] ; [] |36| 
     430 00000042 761F-         MOVW      DP,#_WaitTimeOut$1    ; [CPU_U] 
         00000043 0000 
     431                      .dwpsn  file "D:/Foc/my_motor/sw/drivers/drvic/ldc1612.c",line 38,column 4,is_stmt
     432 00000044 2B01-         MOV       @_WaitTimeOut$1,#0    ; [CPU_] |38| 
     433 00000045       $C$L9:    
     434                      .dwpsn  file "D:/Foc/my_motor/sw/drivers/drvic/ldc1612.c",line 39,column 10,is_stmt
     435 00000045 8AC3          MOVL      XAR4,*+XAR3[0]        ; [CPU_] |39| 
     436              $C$DW$56        .dwtag  DW_TAG_TI_branch
     437                      .dwattr $C$DW$56, DW_AT_low_pc(0x00)
     438                      .dwattr $C$DW$56, DW_AT_name("_I2C_getStatus")
     439                      .dwattr $C$DW$56, DW_AT_TI_call
     440 00000046 7640!         LCR       #_I2C_getStatus       ; [CPU_] |39| 
         00000047 0000 
     441                      ; call occurs [#_I2C_getStatus] ; [] |39| 
     442 00000048 44A9          TBIT      AL,#4                 ; [CPU_] |39| 
     443 00000049 EE0B          BF        $C$L10,TC             ; [CPU_] |39| 
     444                      ; branchcc occurs ; [] |39| 
     445 0000004a 761F-         MOVW      DP,#_WaitTimeOut$1    ; [CPU_U] 
         0000004b 0000 
     446 0000004c 1B01-         CMP       @_WaitTimeOut$1,#8191 ; [CPU_] |39| 
         0000004d 1FFF 
     447 0000004e 6706          B         $C$L10,HIS            ; [CPU_] |39| 
     448                      ; branchcc occurs ; [] |39| 
     449                      .dwpsn  file "D:/Foc/my_motor/sw/drivers/drvic/ldc1612.c",line 42,column 8,is_stmt
     450 0000004f 0A01-         INC       @_WaitTimeOut$1       ; [CPU_] |42| 
     451 00000050 1B01-         CMP       @_WaitTimeOut$1,#8190 ; [CPU_] |42| 
         00000051 1FFE 
     452 00000052 69F3          B         $C$L9,LOS             ; [CPU_] |42| 
     453                      ; branchcc occurs ; [] |42| 
     454 00000053 6F2E          B         $C$L14,UNC            ; [CPU_] |42| 
     455                      ; branch occurs ; [] |42| 
     456 00000054       $C$L10:    
     457                      .dwpsn  file "D:/Foc/my_motor/sw/drivers/drvic/ldc1612.c",line 50,column 4,is_stmt
     458 00000054 92A1          MOV       AL,AR1                ; [CPU_] |50| 
     459 00000055 8AC3          MOVL      XAR4,*+XAR3[0]        ; [CPU_] |50| 
     460 00000056 FFC7          LSR       AL,8                  ; [CPU_] |50| 
     461              $C$DW$57        .dwtag  DW_TAG_TI_branch
     462                      .dwattr $C$DW$57, DW_AT_low_pc(0x00)
     463                      .dwattr $C$DW$57, DW_AT_name("_I2C_putData")
     464                      .dwattr $C$DW$57, DW_AT_TI_call
     465 00000057 7640!         LCR       #_I2C_putData         ; [CPU_] |50| 
         00000058 0000 
     466                      ; call occurs [#_I2C_putData] ; [] |50| 
     467 00000059 761F-         MOVW      DP,#_WaitTimeOut$1    ; [CPU_U] 
         0000005a 0000 
     468                      .dwpsn  file "D:/Foc/my_motor/sw/drivers/drvic/ldc1612.c",line 52,column 4,is_stmt
     469 0000005b 2B01-         MOV       @_WaitTimeOut$1,#0    ; [CPU_] |52| 
     470 0000005c       $C$L11:    
     471                      .dwpsn  file "D:/Foc/my_motor/sw/drivers/drvic/ldc1612.c",line 53,column 10,is_stmt
     472 0000005c 8AC3          MOVL      XAR4,*+XAR3[0]        ; [CPU_] |53| 
     473              $C$DW$58        .dwtag  DW_TAG_TI_branch
     474                      .dwattr $C$DW$58, DW_AT_low_pc(0x00)
TMS320C2000 Assembler PC v6.2.5 Mon Jul 10 09:53:39 2017

Tools Copyright (c) 1996-2014 Texas Instruments Incorporated
C:\Users\wmj\AppData\Local\Temp\1375610                              PAGE   10

     475                      .dwattr $C$DW$58, DW_AT_name("_I2C_getStatus")
     476                      .dwattr $C$DW$58, DW_AT_TI_call
     477 0000005d 7640!         LCR       #_I2C_getStatus       ; [CPU_] |53| 
         0000005e 0000 
     478                      ; call occurs [#_I2C_getStatus] ; [] |53| 
     479 0000005f 44A9          TBIT      AL,#4                 ; [CPU_] |53| 
     480 00000060 EE0B          BF        $C$L12,TC             ; [CPU_] |53| 
     481                      ; branchcc occurs ; [] |53| 
     482 00000061 761F-         MOVW      DP,#_WaitTimeOut$1    ; [CPU_U] 
         00000062 0000 
     483 00000063 1B01-         CMP       @_WaitTimeOut$1,#8191 ; [CPU_] |53| 
         00000064 1FFF 
     484 00000065 6706          B         $C$L12,HIS            ; [CPU_] |53| 
     485                      ; branchcc occurs ; [] |53| 
     486                      .dwpsn  file "D:/Foc/my_motor/sw/drivers/drvic/ldc1612.c",line 56,column 8,is_stmt
     487 00000066 0A01-         INC       @_WaitTimeOut$1       ; [CPU_] |56| 
     488 00000067 1B01-         CMP       @_WaitTimeOut$1,#8190 ; [CPU_] |56| 
         00000068 1FFE 
     489 00000069 69F3          B         $C$L11,LOS            ; [CPU_] |56| 
     490                      ; branchcc occurs ; [] |56| 
     491 0000006a 6F17          B         $C$L14,UNC            ; [CPU_] |56| 
     492                      ; branch occurs ; [] |56| 
     493 0000006b       $C$L12:    
     494                      .dwpsn  file "D:/Foc/my_motor/sw/drivers/drvic/ldc1612.c",line 64,column 4,is_stmt
     495 0000006b 8AC3          MOVL      XAR4,*+XAR3[0]        ; [CPU_] |64| 
     496 0000006c CCA1          AND       AL,AR1,#0x00ff        ; [CPU_] |64| 
         0000006d 00FF 
     497              $C$DW$59        .dwtag  DW_TAG_TI_branch
     498                      .dwattr $C$DW$59, DW_AT_low_pc(0x00)
     499                      .dwattr $C$DW$59, DW_AT_name("_I2C_putData")
     500                      .dwattr $C$DW$59, DW_AT_TI_call
     501 0000006e 7640!         LCR       #_I2C_putData         ; [CPU_] |64| 
         0000006f 0000 
     502                      ; call occurs [#_I2C_putData] ; [] |64| 
     503 00000070 761F-         MOVW      DP,#_WaitTimeOut$1    ; [CPU_U] 
         00000071 0000 
     504                      .dwpsn  file "D:/Foc/my_motor/sw/drivers/drvic/ldc1612.c",line 66,column 4,is_stmt
     505 00000072 2B01-         MOV       @_WaitTimeOut$1,#0    ; [CPU_] |66| 
     506 00000073       $C$L13:    
     507                      .dwpsn  file "D:/Foc/my_motor/sw/drivers/drvic/ldc1612.c",line 67,column 10,is_stmt
     508 00000073 8AC3          MOVL      XAR4,*+XAR3[0]        ; [CPU_] |67| 
     509              $C$DW$60        .dwtag  DW_TAG_TI_branch
     510                      .dwattr $C$DW$60, DW_AT_low_pc(0x00)
     511                      .dwattr $C$DW$60, DW_AT_name("_I2C_getStatus")
     512                      .dwattr $C$DW$60, DW_AT_TI_call
     513 00000074 7640!         LCR       #_I2C_getStatus       ; [CPU_] |67| 
         00000075 0000 
     514                      ; call occurs [#_I2C_getStatus] ; [] |67| 
     515 00000076 45A9          TBIT      AL,#5                 ; [CPU_] |67| 
     516 00000077 EE0D          BF        $C$L15,TC             ; [CPU_] |67| 
     517                      ; branchcc occurs ; [] |67| 
     518 00000078 761F-         MOVW      DP,#_WaitTimeOut$1    ; [CPU_U] 
         00000079 0000 
     519 0000007a 1B01-         CMP       @_WaitTimeOut$1,#8191 ; [CPU_] |67| 
         0000007b 1FFF 
TMS320C2000 Assembler PC v6.2.5 Mon Jul 10 09:53:39 2017

Tools Copyright (c) 1996-2014 Texas Instruments Incorporated
C:\Users\wmj\AppData\Local\Temp\1375610                              PAGE   11

     520 0000007c 6708          B         $C$L15,HIS            ; [CPU_] |67| 
     521                      ; branchcc occurs ; [] |67| 
     522                      .dwpsn  file "D:/Foc/my_motor/sw/drivers/drvic/ldc1612.c",line 70,column 8,is_stmt
     523 0000007d 0A01-         INC       @_WaitTimeOut$1       ; [CPU_] |70| 
     524 0000007e 1B01-         CMP       @_WaitTimeOut$1,#8190 ; [CPU_] |70| 
         0000007f 1FFE 
     525 00000080 69F3          B         $C$L13,LOS            ; [CPU_] |70| 
     526                      ; branchcc occurs ; [] |70| 
     527 00000081       $C$L14:    
     528                      .dwpsn  file "D:/Foc/my_motor/sw/drivers/drvic/ldc1612.c",line 72,column 10,is_stmt
     529 00000081 D05F          MOVB      XAR0,#95              ; [CPU_] |72| 
     530 00000082 56BF          MOVB      *+XAR3[AR0],#1,UNC    ; [CPU_] |72| 
         00000083 0193 
     531 00000084       $C$L15:    
     532 00000084 82BE          MOVL      XAR3,*--SP            ; [CPU_] 
     533                      .dwcfi  cfa_offset, -6
     534                      .dwcfi  restore_reg, 11
     535 00000085 86BE          MOVL      XAR2,*--SP            ; [CPU_] 
     536                      .dwcfi  cfa_offset, -4
     537                      .dwcfi  restore_reg, 9
     538 00000086 8BBE          MOVL      XAR1,*--SP            ; [CPU_] 
     539                      .dwcfi  cfa_offset, -2
     540                      .dwcfi  restore_reg, 7
     541              $C$DW$61        .dwtag  DW_TAG_TI_branch
     542                      .dwattr $C$DW$61, DW_AT_low_pc(0x00)
     543                      .dwattr $C$DW$61, DW_AT_TI_return
     544 00000087 0006          LRETR     ; [CPU_] 
     545                      ; return occurs ; [] 
     546                      .dwattr $C$DW$42, DW_AT_TI_end_file("D:/Foc/my_motor/sw/drivers/drvic/ldc1612.c")
     547                      .dwattr $C$DW$42, DW_AT_TI_end_line(0x4e)
     548                      .dwattr $C$DW$42, DW_AT_TI_end_column(0x01)
     549                      .dwendentry
     550                      .dwendtag $C$DW$42
     551              
     552 00000088               .sect   ".text"
     553                      .clink
     554                      .global _LDC161x_writeSettleCnt
     555              
     556              $C$DW$62        .dwtag  DW_TAG_subprogram, DW_AT_name("LDC161x_writeSettleCnt")
     557                      .dwattr $C$DW$62, DW_AT_low_pc(_LDC161x_writeSettleCnt)
     558                      .dwattr $C$DW$62, DW_AT_high_pc(0x00)
     559                      .dwattr $C$DW$62, DW_AT_TI_symbol_name("_LDC161x_writeSettleCnt")
     560                      .dwattr $C$DW$62, DW_AT_external
     561                      .dwattr $C$DW$62, DW_AT_TI_begin_file("D:/Foc/my_motor/sw/drivers/drvic/ldc1612.c")
     562                      .dwattr $C$DW$62, DW_AT_TI_begin_line(0x1da)
     563                      .dwattr $C$DW$62, DW_AT_TI_begin_column(0x06)
     564                      .dwattr $C$DW$62, DW_AT_TI_max_frame_size(-4)
     565                      .dwpsn  file "D:/Foc/my_motor/sw/drivers/drvic/ldc1612.c",line 475,column 1,is_stmt,address _LDC161x_
     566              
     567                      .dwfde $C$DW$CIE, _LDC161x_writeSettleCnt
     568              $C$DW$63        .dwtag  DW_TAG_formal_parameter, DW_AT_name("handle")
     569                      .dwattr $C$DW$63, DW_AT_TI_symbol_name("_handle")
     570                      .dwattr $C$DW$63, DW_AT_type(*$C$DW$T$120)
     571                      .dwattr $C$DW$63, DW_AT_location[DW_OP_reg12]
     572              $C$DW$64        .dwtag  DW_TAG_formal_parameter, DW_AT_name("ChannelNum")
TMS320C2000 Assembler PC v6.2.5 Mon Jul 10 09:53:39 2017

Tools Copyright (c) 1996-2014 Texas Instruments Incorporated
C:\Users\wmj\AppData\Local\Temp\1375610                              PAGE   12

     573                      .dwattr $C$DW$64, DW_AT_TI_symbol_name("_ChannelNum")
     574                      .dwattr $C$DW$64, DW_AT_type(*$C$DW$T$96)
     575                      .dwattr $C$DW$64, DW_AT_location[DW_OP_reg0]
     576              
     577              ;***************************************************************
     578              ;* FNAME: _LDC161x_writeSettleCnt       FR SIZE:   2           *
     579              ;*                                                             *
     580              ;* FUNCTION ENVIRONMENT                                        *
     581              ;*                                                             *
     582              ;* FUNCTION PROPERTIES                                         *
     583              ;*                            0 Parameter,  1 Auto,  0 SOE     *
     584              ;***************************************************************
     585              
     586              _LDC161x_writeSettleCnt:
     587              ;* AL    assigned to _ChNum
     588              $C$DW$65        .dwtag  DW_TAG_variable, DW_AT_name("ChNum")
     589                      .dwattr $C$DW$65, DW_AT_TI_symbol_name("_ChNum")
     590                      .dwattr $C$DW$65, DW_AT_type(*$C$DW$T$21)
     591                      .dwattr $C$DW$65, DW_AT_location[DW_OP_reg0]
     592              ;* AH    assigned to _drvRegName
     593              $C$DW$66        .dwtag  DW_TAG_variable, DW_AT_name("drvRegName")
     594                      .dwattr $C$DW$66, DW_AT_TI_symbol_name("_drvRegName")
     595                      .dwattr $C$DW$66, DW_AT_type(*$C$DW$T$93)
     596                      .dwattr $C$DW$66, DW_AT_location[DW_OP_reg1]
     597              $C$DW$67        .dwtag  DW_TAG_variable, DW_AT_name("drvDataGet")
     598                      .dwattr $C$DW$67, DW_AT_TI_symbol_name("_drvDataGet")
     599                      .dwattr $C$DW$67, DW_AT_type(*$C$DW$T$21)
     600                      .dwattr $C$DW$67, DW_AT_location[DW_OP_breg20 -1]
     601              ;* AL    assigned to _ChannelNum
     602              $C$DW$68        .dwtag  DW_TAG_variable, DW_AT_name("ChannelNum")
     603                      .dwattr $C$DW$68, DW_AT_TI_symbol_name("_ChannelNum")
     604                      .dwattr $C$DW$68, DW_AT_type(*$C$DW$T$98)
     605                      .dwattr $C$DW$68, DW_AT_location[DW_OP_reg0]
     606              ;* AR6   assigned to _handle
     607              $C$DW$69        .dwtag  DW_TAG_variable, DW_AT_name("handle")
     608                      .dwattr $C$DW$69, DW_AT_TI_symbol_name("_handle")
     609                      .dwattr $C$DW$69, DW_AT_type(*$C$DW$T$121)
     610                      .dwattr $C$DW$69, DW_AT_location[DW_OP_reg16]
     611                      .dwcfi  cfa_offset, -2
     612                      .dwcfi  save_reg_to_mem, 26, 0
     613                      .dwcfi  save_reg_to_reg, 78, 26
     614 00000088 FE02          ADDB      SP,#2                 ; [CPU_U] 
     615                      .dwcfi  cfa_offset, -4
     616                      .dwpsn  file "D:/Foc/my_motor/sw/drivers/drvic/ldc1612.c",line 481,column 3,is_stmt
     617 00000089 5200          CMPB      AL,#0                 ; [CPU_] |481| 
     618                      .dwpsn  file "D:/Foc/my_motor/sw/drivers/drvic/ldc1612.c",line 475,column 1,is_stmt
     619 0000008a C4A4          MOVL      XAR6,XAR4             ; [CPU_] |475| 
     620                      .dwpsn  file "D:/Foc/my_motor/sw/drivers/drvic/ldc1612.c",line 481,column 3,is_stmt
     621 0000008b EC10          BF        $C$L18,EQ             ; [CPU_] |481| 
     622                      ; branchcc occurs ; [] |481| 
     623 0000008c 5201          CMPB      AL,#1                 ; [CPU_] |481| 
     624 0000008d EC0B          BF        $C$L17,EQ             ; [CPU_] |481| 
     625                      ; branchcc occurs ; [] |481| 
     626 0000008e 5202          CMPB      AL,#2                 ; [CPU_] |481| 
     627 0000008f EC06          BF        $C$L16,EQ             ; [CPU_] |481| 
TMS320C2000 Assembler PC v6.2.5 Mon Jul 10 09:53:39 2017

Tools Copyright (c) 1996-2014 Texas Instruments Incorporated
C:\Users\wmj\AppData\Local\Temp\1375610                              PAGE   13

     628                      ; branchcc occurs ; [] |481| 
     629 00000090 5203          CMPB      AL,#3                 ; [CPU_] |481| 
     630 00000091 ED0C          BF        $C$L19,NEQ            ; [CPU_] |481| 
     631                      ; branchcc occurs ; [] |481| 
     632                      .dwpsn  file "D:/Foc/my_motor/sw/drivers/drvic/ldc1612.c",line 492,column 29,is_stmt
     633 00000092 9B13          MOVB      AH,#19                ; [CPU_] |492| 
     634                      .dwpsn  file "D:/Foc/my_motor/sw/drivers/drvic/ldc1612.c",line 493,column 29,is_stmt
     635 00000093 9A03          MOVB      AL,#3                 ; [CPU_] |493| 
     636                      .dwpsn  file "D:/Foc/my_motor/sw/drivers/drvic/ldc1612.c",line 494,column 7,is_stmt
     637 00000094 6F09          B         $C$L19,UNC            ; [CPU_] |494| 
     638                      ; branch occurs ; [] |494| 
     639 00000095       $C$L16:    
     640                      .dwpsn  file "D:/Foc/my_motor/sw/drivers/drvic/ldc1612.c",line 489,column 29,is_stmt
     641 00000095 9B12          MOVB      AH,#18                ; [CPU_] |489| 
     642                      .dwpsn  file "D:/Foc/my_motor/sw/drivers/drvic/ldc1612.c",line 490,column 29,is_stmt
     643 00000096 9A02          MOVB      AL,#2                 ; [CPU_] |490| 
     644                      .dwpsn  file "D:/Foc/my_motor/sw/drivers/drvic/ldc1612.c",line 491,column 7,is_stmt
     645 00000097 6F06          B         $C$L19,UNC            ; [CPU_] |491| 
     646                      ; branch occurs ; [] |491| 
     647 00000098       $C$L17:    
     648                      .dwpsn  file "D:/Foc/my_motor/sw/drivers/drvic/ldc1612.c",line 486,column 29,is_stmt
     649 00000098 9B11          MOVB      AH,#17                ; [CPU_] |486| 
     650                      .dwpsn  file "D:/Foc/my_motor/sw/drivers/drvic/ldc1612.c",line 487,column 29,is_stmt
     651 00000099 9A01          MOVB      AL,#1                 ; [CPU_] |487| 
     652                      .dwpsn  file "D:/Foc/my_motor/sw/drivers/drvic/ldc1612.c",line 488,column 7,is_stmt
     653 0000009a 6F03          B         $C$L19,UNC            ; [CPU_] |488| 
     654                      ; branch occurs ; [] |488| 
     655 0000009b       $C$L18:    
     656                      .dwpsn  file "D:/Foc/my_motor/sw/drivers/drvic/ldc1612.c",line 483,column 29,is_stmt
     657 0000009b 9B10          MOVB      AH,#16                ; [CPU_] |483| 
     658                      .dwpsn  file "D:/Foc/my_motor/sw/drivers/drvic/ldc1612.c",line 484,column 29,is_stmt
     659 0000009c 9A00          MOVB      AL,#0                 ; [CPU_] |484| 
     660 0000009d       $C$L19:    
     661                      .dwpsn  file "D:/Foc/my_motor/sw/drivers/drvic/ldc1612.c",line 498,column 3,is_stmt
     662 0000009d 5DAD          MOVZ      AR5,SP                ; [CPU_U] |498| 
     663 0000009e 8AE6          MOVL      XAR4,*+XAR6[4]        ; [CPU_] |498| 
     664 0000009f DD81          SUBB      XAR5,#1               ; [CPU_U] |498| 
     665              $C$DW$70        .dwtag  DW_TAG_TI_branch
     666                      .dwattr $C$DW$70, DW_AT_low_pc(0x00)
     667                      .dwattr $C$DW$70, DW_AT_name("_LDC161x_getSettleCnt")
     668                      .dwattr $C$DW$70, DW_AT_TI_call
     669 000000a0 7640'         LCR       #_LDC161x_getSettleCnt ; [CPU_] |498| 
         000000a1 0000 
     670                      ; call occurs [#_LDC161x_getSettleCnt] ; [] |498| 
     671                      .dwpsn  file "D:/Foc/my_motor/sw/drivers/drvic/ldc1612.c",line 499,column 3,is_stmt
     672 000000a2 92A8          MOV       AL,AH                 ; [CPU_] |499| 
     673 000000a3 9341          MOV       AH,*-SP[1]            ; [CPU_] |499| 
     674 000000a4 8AA6          MOVL      XAR4,XAR6             ; [CPU_] |499| 
     675              $C$DW$71        .dwtag  DW_TAG_TI_branch
     676                      .dwattr $C$DW$71, DW_AT_low_pc(0x00)
     677                      .dwattr $C$DW$71, DW_AT_name("_LDC161x_writeI2c")
     678                      .dwattr $C$DW$71, DW_AT_TI_call
     679 000000a5 7640'         LCR       #_LDC161x_writeI2c    ; [CPU_] |499| 
         000000a6 0014 
     680                      ; call occurs [#_LDC161x_writeI2c] ; [] |499| 
TMS320C2000 Assembler PC v6.2.5 Mon Jul 10 09:53:39 2017

Tools Copyright (c) 1996-2014 Texas Instruments Incorporated
C:\Users\wmj\AppData\Local\Temp\1375610                              PAGE   14

     681 000000a7 FE82          SUBB      SP,#2                 ; [CPU_U] 
     682                      .dwcfi  cfa_offset, -2
     683              $C$DW$72        .dwtag  DW_TAG_TI_branch
     684                      .dwattr $C$DW$72, DW_AT_low_pc(0x00)
     685                      .dwattr $C$DW$72, DW_AT_TI_return
     686 000000a8 0006          LRETR     ; [CPU_] 
     687                      ; return occurs ; [] 
     688                      .dwattr $C$DW$62, DW_AT_TI_end_file("D:/Foc/my_motor/sw/drivers/drvic/ldc1612.c")
     689                      .dwattr $C$DW$62, DW_AT_TI_end_line(0x1f6)
     690                      .dwattr $C$DW$62, DW_AT_TI_end_column(0x01)
     691                      .dwendentry
     692                      .dwendtag $C$DW$62
     693              
     694 000000a9               .sect   ".text"
     695                      .clink
     696                      .global _LDC161x_getRcount
     697              
     698              $C$DW$73        .dwtag  DW_TAG_subprogram, DW_AT_name("LDC161x_getRcount")
     699                      .dwattr $C$DW$73, DW_AT_low_pc(_LDC161x_getRcount)
     700                      .dwattr $C$DW$73, DW_AT_high_pc(0x00)
     701                      .dwattr $C$DW$73, DW_AT_TI_symbol_name("_LDC161x_getRcount")
     702                      .dwattr $C$DW$73, DW_AT_external
     703                      .dwattr $C$DW$73, DW_AT_TI_begin_file("D:/Foc/my_motor/sw/drivers/drvic/ldc1612.c")
     704                      .dwattr $C$DW$73, DW_AT_TI_begin_line(0x38d)
     705                      .dwattr $C$DW$73, DW_AT_TI_begin_column(0x06)
     706                      .dwattr $C$DW$73, DW_AT_TI_max_frame_size(-2)
     707                      .dwpsn  file "D:/Foc/my_motor/sw/drivers/drvic/ldc1612.c",line 910,column 1,is_stmt,address _LDC161x_
     708              
     709                      .dwfde $C$DW$CIE, _LDC161x_getRcount
     710              $C$DW$74        .dwtag  DW_TAG_formal_parameter, DW_AT_name("handle")
     711                      .dwattr $C$DW$74, DW_AT_TI_symbol_name("_handle")
     712                      .dwattr $C$DW$74, DW_AT_type(*$C$DW$T$47)
     713                      .dwattr $C$DW$74, DW_AT_location[DW_OP_reg12]
     714              $C$DW$75        .dwtag  DW_TAG_formal_parameter, DW_AT_name("Channel")
     715                      .dwattr $C$DW$75, DW_AT_TI_symbol_name("_Channel")
     716                      .dwattr $C$DW$75, DW_AT_type(*$C$DW$T$136)
     717                      .dwattr $C$DW$75, DW_AT_location[DW_OP_reg0]
     718              $C$DW$76        .dwtag  DW_TAG_formal_parameter, DW_AT_name("drvDataGet")
     719                      .dwattr $C$DW$76, DW_AT_TI_symbol_name("_drvDataGet")
     720                      .dwattr $C$DW$76, DW_AT_type(*$C$DW$T$155)
     721                      .dwattr $C$DW$76, DW_AT_location[DW_OP_reg14]
     722              
     723              ;***************************************************************
     724              ;* FNAME: _LDC161x_getRcount            FR SIZE:   0           *
     725              ;*                                                             *
     726              ;* FUNCTION ENVIRONMENT                                        *
     727              ;*                                                             *
     728              ;* FUNCTION PROPERTIES                                         *
     729              ;*                            0 Parameter,  0 Auto,  0 SOE     *
     730              ;***************************************************************
     731              
     732              _LDC161x_getRcount:
     733              ;* AL    assigned to _drvData
     734              $C$DW$77        .dwtag  DW_TAG_variable, DW_AT_name("drvData")
     735                      .dwattr $C$DW$77, DW_AT_TI_symbol_name("_drvData")
TMS320C2000 Assembler PC v6.2.5 Mon Jul 10 09:53:39 2017

Tools Copyright (c) 1996-2014 Texas Instruments Incorporated
C:\Users\wmj\AppData\Local\Temp\1375610                              PAGE   15

     736                      .dwattr $C$DW$77, DW_AT_type(*$C$DW$T$21)
     737                      .dwattr $C$DW$77, DW_AT_location[DW_OP_reg0]
     738              ;* AR4   assigned to _obj
     739              $C$DW$78        .dwtag  DW_TAG_variable, DW_AT_name("obj")
     740                      .dwattr $C$DW$78, DW_AT_TI_symbol_name("_obj")
     741                      .dwattr $C$DW$78, DW_AT_type(*$C$DW$T$125)
     742                      .dwattr $C$DW$78, DW_AT_location[DW_OP_reg12]
     743              ;* AR5   assigned to _drvDataGet
     744              $C$DW$79        .dwtag  DW_TAG_variable, DW_AT_name("drvDataGet")
     745                      .dwattr $C$DW$79, DW_AT_TI_symbol_name("_drvDataGet")
     746                      .dwattr $C$DW$79, DW_AT_type(*$C$DW$T$167)
     747                      .dwattr $C$DW$79, DW_AT_location[DW_OP_reg14]
     748              ;* AL    assigned to _Channel
     749              $C$DW$80        .dwtag  DW_TAG_variable, DW_AT_name("Channel")
     750                      .dwattr $C$DW$80, DW_AT_TI_symbol_name("_Channel")
     751                      .dwattr $C$DW$80, DW_AT_type(*$C$DW$T$136)
     752                      .dwattr $C$DW$80, DW_AT_location[DW_OP_reg0]
     753              ;* AR4   assigned to _handle
     754              $C$DW$81        .dwtag  DW_TAG_variable, DW_AT_name("handle")
     755                      .dwattr $C$DW$81, DW_AT_TI_symbol_name("_handle")
     756                      .dwattr $C$DW$81, DW_AT_type(*$C$DW$T$109)
     757                      .dwattr $C$DW$81, DW_AT_location[DW_OP_reg12]
     758                      .dwcfi  cfa_offset, -2
     759                      .dwcfi  save_reg_to_mem, 26, 0
     760                      .dwcfi  save_reg_to_reg, 78, 26
     761                      .dwpsn  file "D:/Foc/my_motor/sw/drivers/drvic/ldc1612.c",line 914,column 3,is_stmt
     762 000000a9 5200          CMPB      AL,#0                 ; [CPU_] |914| 
     763 000000aa EC0F          BF        $C$L23,EQ             ; [CPU_] |914| 
     764                      ; branchcc occurs ; [] |914| 
     765 000000ab 5201          CMPB      AL,#1                 ; [CPU_] |914| 
     766 000000ac EC0B          BF        $C$L22,EQ             ; [CPU_] |914| 
     767                      ; branchcc occurs ; [] |914| 
     768 000000ad 5202          CMPB      AL,#2                 ; [CPU_] |914| 
     769 000000ae EC07          BF        $C$L21,EQ             ; [CPU_] |914| 
     770                      ; branchcc occurs ; [] |914| 
     771 000000af 5203          CMPB      AL,#3                 ; [CPU_] |914| 
     772 000000b0 EC03          BF        $C$L20,EQ             ; [CPU_] |914| 
     773                      ; branchcc occurs ; [] |914| 
     774                      .dwpsn  file "D:/Foc/my_motor/sw/drivers/drvic/ldc1612.c",line 912,column 20,is_stmt
     775 000000b1 9A00          MOVB      AL,#0                 ; [CPU_] |912| 
     776 000000b2 6F09          B         $C$L25,UNC            ; [CPU_] 
     777                      ; branch occurs ; [] 
     778 000000b3       $C$L20:    
     779                      .dwpsn  file "D:/Foc/my_motor/sw/drivers/drvic/ldc1612.c",line 919,column 13,is_stmt
     780 000000b3 D01B          MOVB      XAR0,#27              ; [CPU_] |919| 
     781                      .dwpsn  file "D:/Foc/my_motor/sw/drivers/drvic/ldc1612.c",line 919,column 50,is_stmt
     782 000000b4 6F06          B         $C$L24,UNC            ; [CPU_] |919| 
     783                      ; branch occurs ; [] |919| 
     784 000000b5       $C$L21:    
     785                      .dwpsn  file "D:/Foc/my_motor/sw/drivers/drvic/ldc1612.c",line 918,column 13,is_stmt
     786 000000b5 D01A          MOVB      XAR0,#26              ; [CPU_] |918| 
     787                      .dwpsn  file "D:/Foc/my_motor/sw/drivers/drvic/ldc1612.c",line 918,column 50,is_stmt
     788 000000b6 6F04          B         $C$L24,UNC            ; [CPU_] |918| 
     789                      ; branch occurs ; [] |918| 
     790 000000b7       $C$L22:    
TMS320C2000 Assembler PC v6.2.5 Mon Jul 10 09:53:39 2017

Tools Copyright (c) 1996-2014 Texas Instruments Incorporated
C:\Users\wmj\AppData\Local\Temp\1375610                              PAGE   16

     791                      .dwpsn  file "D:/Foc/my_motor/sw/drivers/drvic/ldc1612.c",line 917,column 13,is_stmt
     792 000000b7 D019          MOVB      XAR0,#25              ; [CPU_] |917| 
     793                      .dwpsn  file "D:/Foc/my_motor/sw/drivers/drvic/ldc1612.c",line 917,column 50,is_stmt
     794 000000b8 6F02          B         $C$L24,UNC            ; [CPU_] |917| 
     795                      ; branch occurs ; [] |917| 
     796 000000b9       $C$L23:    
     797                      .dwpsn  file "D:/Foc/my_motor/sw/drivers/drvic/ldc1612.c",line 916,column 13,is_stmt
     798 000000b9 D018          MOVB      XAR0,#24              ; [CPU_] |916| 
     799 000000ba       $C$L24:    
     800 000000ba 9294          MOV       AL,*+XAR4[AR0]        ; [CPU_] |916| 
     801 000000bb       $C$L25:    
     802                      .dwpsn  file "D:/Foc/my_motor/sw/drivers/drvic/ldc1612.c",line 923,column 3,is_stmt
     803 000000bb 96C5          MOV       *+XAR5[0],AL          ; [CPU_] |923| 
     804              $C$DW$82        .dwtag  DW_TAG_TI_branch
     805                      .dwattr $C$DW$82, DW_AT_low_pc(0x00)
     806                      .dwattr $C$DW$82, DW_AT_TI_return
     807 000000bc 0006          LRETR     ; [CPU_] 
     808                      ; return occurs ; [] 
     809                      .dwattr $C$DW$73, DW_AT_TI_end_file("D:/Foc/my_motor/sw/drivers/drvic/ldc1612.c")
     810                      .dwattr $C$DW$73, DW_AT_TI_end_line(0x39e)
     811                      .dwattr $C$DW$73, DW_AT_TI_end_column(0x01)
     812                      .dwendentry
     813                      .dwendtag $C$DW$73
     814              
     815 000000bd               .sect   ".text"
     816                      .clink
     817                      .global _LDC161x_writeRcount
     818              
     819              $C$DW$83        .dwtag  DW_TAG_subprogram, DW_AT_name("LDC161x_writeRcount")
     820                      .dwattr $C$DW$83, DW_AT_low_pc(_LDC161x_writeRcount)
     821                      .dwattr $C$DW$83, DW_AT_high_pc(0x00)
     822                      .dwattr $C$DW$83, DW_AT_TI_symbol_name("_LDC161x_writeRcount")
     823                      .dwattr $C$DW$83, DW_AT_external
     824                      .dwattr $C$DW$83, DW_AT_TI_begin_file("D:/Foc/my_motor/sw/drivers/drvic/ldc1612.c")
     825                      .dwattr $C$DW$83, DW_AT_TI_begin_line(0x196)
     826                      .dwattr $C$DW$83, DW_AT_TI_begin_column(0x06)
     827                      .dwattr $C$DW$83, DW_AT_TI_max_frame_size(-4)
     828                      .dwpsn  file "D:/Foc/my_motor/sw/drivers/drvic/ldc1612.c",line 407,column 1,is_stmt,address _LDC161x_
     829              
     830                      .dwfde $C$DW$CIE, _LDC161x_writeRcount
     831              $C$DW$84        .dwtag  DW_TAG_formal_parameter, DW_AT_name("handle")
     832                      .dwattr $C$DW$84, DW_AT_TI_symbol_name("_handle")
     833                      .dwattr $C$DW$84, DW_AT_type(*$C$DW$T$120)
     834                      .dwattr $C$DW$84, DW_AT_location[DW_OP_reg12]
     835              $C$DW$85        .dwtag  DW_TAG_formal_parameter, DW_AT_name("ChannelNum")
     836                      .dwattr $C$DW$85, DW_AT_TI_symbol_name("_ChannelNum")
     837                      .dwattr $C$DW$85, DW_AT_type(*$C$DW$T$96)
     838                      .dwattr $C$DW$85, DW_AT_location[DW_OP_reg0]
     839              
     840              ;***************************************************************
     841              ;* FNAME: _LDC161x_writeRcount          FR SIZE:   2           *
     842              ;*                                                             *
     843              ;* FUNCTION ENVIRONMENT                                        *
     844              ;*                                                             *
     845              ;* FUNCTION PROPERTIES                                         *
TMS320C2000 Assembler PC v6.2.5 Mon Jul 10 09:53:39 2017

Tools Copyright (c) 1996-2014 Texas Instruments Incorporated
C:\Users\wmj\AppData\Local\Temp\1375610                              PAGE   17

     846              ;*                            0 Parameter,  1 Auto,  0 SOE     *
     847              ;***************************************************************
     848              
     849              _LDC161x_writeRcount:
     850              ;* AL    assigned to _ChNum
     851              $C$DW$86        .dwtag  DW_TAG_variable, DW_AT_name("ChNum")
     852                      .dwattr $C$DW$86, DW_AT_TI_symbol_name("_ChNum")
     853                      .dwattr $C$DW$86, DW_AT_type(*$C$DW$T$21)
     854                      .dwattr $C$DW$86, DW_AT_location[DW_OP_reg0]
     855              ;* AH    assigned to _drvRegName
     856              $C$DW$87        .dwtag  DW_TAG_variable, DW_AT_name("drvRegName")
     857                      .dwattr $C$DW$87, DW_AT_TI_symbol_name("_drvRegName")
     858                      .dwattr $C$DW$87, DW_AT_type(*$C$DW$T$93)
     859                      .dwattr $C$DW$87, DW_AT_location[DW_OP_reg1]
     860              $C$DW$88        .dwtag  DW_TAG_variable, DW_AT_name("drvDataGet")
     861                      .dwattr $C$DW$88, DW_AT_TI_symbol_name("_drvDataGet")
     862                      .dwattr $C$DW$88, DW_AT_type(*$C$DW$T$21)
     863                      .dwattr $C$DW$88, DW_AT_location[DW_OP_breg20 -1]
     864              ;* AL    assigned to _ChannelNum
     865              $C$DW$89        .dwtag  DW_TAG_variable, DW_AT_name("ChannelNum")
     866                      .dwattr $C$DW$89, DW_AT_TI_symbol_name("_ChannelNum")
     867                      .dwattr $C$DW$89, DW_AT_type(*$C$DW$T$99)
     868                      .dwattr $C$DW$89, DW_AT_location[DW_OP_reg0]
     869              ;* AR6   assigned to _handle
     870              $C$DW$90        .dwtag  DW_TAG_variable, DW_AT_name("handle")
     871                      .dwattr $C$DW$90, DW_AT_TI_symbol_name("_handle")
     872                      .dwattr $C$DW$90, DW_AT_type(*$C$DW$T$121)
     873                      .dwattr $C$DW$90, DW_AT_location[DW_OP_reg16]
     874                      .dwcfi  cfa_offset, -2
     875                      .dwcfi  save_reg_to_mem, 26, 0
     876                      .dwcfi  save_reg_to_reg, 78, 26
     877 000000bd FE02          ADDB      SP,#2                 ; [CPU_U] 
     878                      .dwcfi  cfa_offset, -4
     879                      .dwpsn  file "D:/Foc/my_motor/sw/drivers/drvic/ldc1612.c",line 413,column 3,is_stmt
     880 000000be 5200          CMPB      AL,#0                 ; [CPU_] |413| 
     881                      .dwpsn  file "D:/Foc/my_motor/sw/drivers/drvic/ldc1612.c",line 407,column 1,is_stmt
     882 000000bf C4A4          MOVL      XAR6,XAR4             ; [CPU_] |407| 
     883                      .dwpsn  file "D:/Foc/my_motor/sw/drivers/drvic/ldc1612.c",line 413,column 3,is_stmt
     884 000000c0 EC10          BF        $C$L28,EQ             ; [CPU_] |413| 
     885                      ; branchcc occurs ; [] |413| 
     886 000000c1 5201          CMPB      AL,#1                 ; [CPU_] |413| 
     887 000000c2 EC0B          BF        $C$L27,EQ             ; [CPU_] |413| 
     888                      ; branchcc occurs ; [] |413| 
     889 000000c3 5202          CMPB      AL,#2                 ; [CPU_] |413| 
     890 000000c4 EC06          BF        $C$L26,EQ             ; [CPU_] |413| 
     891                      ; branchcc occurs ; [] |413| 
     892 000000c5 5203          CMPB      AL,#3                 ; [CPU_] |413| 
     893 000000c6 ED0C          BF        $C$L29,NEQ            ; [CPU_] |413| 
     894                      ; branchcc occurs ; [] |413| 
     895                      .dwpsn  file "D:/Foc/my_motor/sw/drivers/drvic/ldc1612.c",line 424,column 29,is_stmt
     896 000000c7 9B0B          MOVB      AH,#11                ; [CPU_] |424| 
     897                      .dwpsn  file "D:/Foc/my_motor/sw/drivers/drvic/ldc1612.c",line 425,column 29,is_stmt
     898 000000c8 9A03          MOVB      AL,#3                 ; [CPU_] |425| 
     899                      .dwpsn  file "D:/Foc/my_motor/sw/drivers/drvic/ldc1612.c",line 426,column 7,is_stmt
     900 000000c9 6F09          B         $C$L29,UNC            ; [CPU_] |426| 
TMS320C2000 Assembler PC v6.2.5 Mon Jul 10 09:53:39 2017

Tools Copyright (c) 1996-2014 Texas Instruments Incorporated
C:\Users\wmj\AppData\Local\Temp\1375610                              PAGE   18

     901                      ; branch occurs ; [] |426| 
     902 000000ca       $C$L26:    
     903                      .dwpsn  file "D:/Foc/my_motor/sw/drivers/drvic/ldc1612.c",line 421,column 29,is_stmt
     904 000000ca 9B0A          MOVB      AH,#10                ; [CPU_] |421| 
     905                      .dwpsn  file "D:/Foc/my_motor/sw/drivers/drvic/ldc1612.c",line 422,column 29,is_stmt
     906 000000cb 9A02          MOVB      AL,#2                 ; [CPU_] |422| 
     907                      .dwpsn  file "D:/Foc/my_motor/sw/drivers/drvic/ldc1612.c",line 423,column 7,is_stmt
     908 000000cc 6F06          B         $C$L29,UNC            ; [CPU_] |423| 
     909                      ; branch occurs ; [] |423| 
     910 000000cd       $C$L27:    
     911                      .dwpsn  file "D:/Foc/my_motor/sw/drivers/drvic/ldc1612.c",line 418,column 29,is_stmt
     912 000000cd 9B09          MOVB      AH,#9                 ; [CPU_] |418| 
     913                      .dwpsn  file "D:/Foc/my_motor/sw/drivers/drvic/ldc1612.c",line 419,column 29,is_stmt
     914 000000ce 9A01          MOVB      AL,#1                 ; [CPU_] |419| 
     915                      .dwpsn  file "D:/Foc/my_motor/sw/drivers/drvic/ldc1612.c",line 420,column 7,is_stmt
     916 000000cf 6F03          B         $C$L29,UNC            ; [CPU_] |420| 
     917                      ; branch occurs ; [] |420| 
     918 000000d0       $C$L28:    
     919                      .dwpsn  file "D:/Foc/my_motor/sw/drivers/drvic/ldc1612.c",line 415,column 29,is_stmt
     920 000000d0 9B08          MOVB      AH,#8                 ; [CPU_] |415| 
     921                      .dwpsn  file "D:/Foc/my_motor/sw/drivers/drvic/ldc1612.c",line 416,column 29,is_stmt
     922 000000d1 9A00          MOVB      AL,#0                 ; [CPU_] |416| 
     923 000000d2       $C$L29:    
     924                      .dwpsn  file "D:/Foc/my_motor/sw/drivers/drvic/ldc1612.c",line 430,column 3,is_stmt
     925 000000d2 5DAD          MOVZ      AR5,SP                ; [CPU_U] |430| 
     926 000000d3 8AE6          MOVL      XAR4,*+XAR6[4]        ; [CPU_] |430| 
     927 000000d4 DD81          SUBB      XAR5,#1               ; [CPU_U] |430| 
     928              $C$DW$91        .dwtag  DW_TAG_TI_branch
     929                      .dwattr $C$DW$91, DW_AT_low_pc(0x00)
     930                      .dwattr $C$DW$91, DW_AT_name("_LDC161x_getRcount")
     931                      .dwattr $C$DW$91, DW_AT_TI_call
     932 000000d5 7640'         LCR       #_LDC161x_getRcount   ; [CPU_] |430| 
         000000d6 00A9 
     933                      ; call occurs [#_LDC161x_getRcount] ; [] |430| 
     934                      .dwpsn  file "D:/Foc/my_motor/sw/drivers/drvic/ldc1612.c",line 431,column 3,is_stmt
     935 000000d7 92A8          MOV       AL,AH                 ; [CPU_] |431| 
     936 000000d8 9341          MOV       AH,*-SP[1]            ; [CPU_] |431| 
     937 000000d9 8AA6          MOVL      XAR4,XAR6             ; [CPU_] |431| 
     938              $C$DW$92        .dwtag  DW_TAG_TI_branch
     939                      .dwattr $C$DW$92, DW_AT_low_pc(0x00)
     940                      .dwattr $C$DW$92, DW_AT_name("_LDC161x_writeI2c")
     941                      .dwattr $C$DW$92, DW_AT_TI_call
     942 000000da 7640'         LCR       #_LDC161x_writeI2c    ; [CPU_] |431| 
         000000db 0014 
     943                      ; call occurs [#_LDC161x_writeI2c] ; [] |431| 
     944 000000dc FE82          SUBB      SP,#2                 ; [CPU_U] 
     945                      .dwcfi  cfa_offset, -2
     946              $C$DW$93        .dwtag  DW_TAG_TI_branch
     947                      .dwattr $C$DW$93, DW_AT_low_pc(0x00)
     948                      .dwattr $C$DW$93, DW_AT_TI_return
     949 000000dd 0006          LRETR     ; [CPU_] 
     950                      ; return occurs ; [] 
     951                      .dwattr $C$DW$83, DW_AT_TI_end_file("D:/Foc/my_motor/sw/drivers/drvic/ldc1612.c")
     952                      .dwattr $C$DW$83, DW_AT_TI_end_line(0x1b2)
     953                      .dwattr $C$DW$83, DW_AT_TI_end_column(0x01)
TMS320C2000 Assembler PC v6.2.5 Mon Jul 10 09:53:39 2017

Tools Copyright (c) 1996-2014 Texas Instruments Incorporated
C:\Users\wmj\AppData\Local\Temp\1375610                              PAGE   19

     954                      .dwendentry
     955                      .dwendtag $C$DW$83
     956              
     957 000000de               .sect   ".text"
     958                      .clink
     959                      .global _LDC161x_getOffset
     960              
     961              $C$DW$94        .dwtag  DW_TAG_subprogram, DW_AT_name("LDC161x_getOffset")
     962                      .dwattr $C$DW$94, DW_AT_low_pc(_LDC161x_getOffset)
     963                      .dwattr $C$DW$94, DW_AT_high_pc(0x00)
     964                      .dwattr $C$DW$94, DW_AT_TI_symbol_name("_LDC161x_getOffset")
     965                      .dwattr $C$DW$94, DW_AT_external
     966                      .dwattr $C$DW$94, DW_AT_TI_begin_file("D:/Foc/my_motor/sw/drivers/drvic/ldc1612.c")
     967                      .dwattr $C$DW$94, DW_AT_TI_begin_line(0x3a0)
     968                      .dwattr $C$DW$94, DW_AT_TI_begin_column(0x06)
     969                      .dwattr $C$DW$94, DW_AT_TI_max_frame_size(-2)
     970                      .dwpsn  file "D:/Foc/my_motor/sw/drivers/drvic/ldc1612.c",line 929,column 1,is_stmt,address _LDC161x_
     971              
     972                      .dwfde $C$DW$CIE, _LDC161x_getOffset
     973              $C$DW$95        .dwtag  DW_TAG_formal_parameter, DW_AT_name("handle")
     974                      .dwattr $C$DW$95, DW_AT_TI_symbol_name("_handle")
     975                      .dwattr $C$DW$95, DW_AT_type(*$C$DW$T$47)
     976                      .dwattr $C$DW$95, DW_AT_location[DW_OP_reg12]
     977              $C$DW$96        .dwtag  DW_TAG_formal_parameter, DW_AT_name("Channel")
     978                      .dwattr $C$DW$96, DW_AT_TI_symbol_name("_Channel")
     979                      .dwattr $C$DW$96, DW_AT_type(*$C$DW$T$136)
     980                      .dwattr $C$DW$96, DW_AT_location[DW_OP_reg0]
     981              $C$DW$97        .dwtag  DW_TAG_formal_parameter, DW_AT_name("drvDataGet")
     982                      .dwattr $C$DW$97, DW_AT_TI_symbol_name("_drvDataGet")
     983                      .dwattr $C$DW$97, DW_AT_type(*$C$DW$T$155)
     984                      .dwattr $C$DW$97, DW_AT_location[DW_OP_reg14]
     985              
     986              ;***************************************************************
     987              ;* FNAME: _LDC161x_getOffset            FR SIZE:   0           *
     988              ;*                                                             *
     989              ;* FUNCTION ENVIRONMENT                                        *
     990              ;*                                                             *
     991              ;* FUNCTION PROPERTIES                                         *
     992              ;*                            0 Parameter,  0 Auto,  0 SOE     *
     993              ;***************************************************************
     994              
     995              _LDC161x_getOffset:
     996              ;* AL    assigned to _drvData
     997              $C$DW$98        .dwtag  DW_TAG_variable, DW_AT_name("drvData")
     998                      .dwattr $C$DW$98, DW_AT_TI_symbol_name("_drvData")
     999                      .dwattr $C$DW$98, DW_AT_type(*$C$DW$T$21)
    1000                      .dwattr $C$DW$98, DW_AT_location[DW_OP_reg0]
    1001              ;* AR4   assigned to _obj
    1002              $C$DW$99        .dwtag  DW_TAG_variable, DW_AT_name("obj")
    1003                      .dwattr $C$DW$99, DW_AT_TI_symbol_name("_obj")
    1004                      .dwattr $C$DW$99, DW_AT_type(*$C$DW$T$125)
    1005                      .dwattr $C$DW$99, DW_AT_location[DW_OP_reg12]
    1006              ;* AR5   assigned to _drvDataGet
    1007              $C$DW$100       .dwtag  DW_TAG_variable, DW_AT_name("drvDataGet")
    1008                      .dwattr $C$DW$100, DW_AT_TI_symbol_name("_drvDataGet")
TMS320C2000 Assembler PC v6.2.5 Mon Jul 10 09:53:39 2017

Tools Copyright (c) 1996-2014 Texas Instruments Incorporated
C:\Users\wmj\AppData\Local\Temp\1375610                              PAGE   20

    1009                      .dwattr $C$DW$100, DW_AT_type(*$C$DW$T$167)
    1010                      .dwattr $C$DW$100, DW_AT_location[DW_OP_reg14]
    1011              ;* AL    assigned to _Channel
    1012              $C$DW$101       .dwtag  DW_TAG_variable, DW_AT_name("Channel")
    1013                      .dwattr $C$DW$101, DW_AT_TI_symbol_name("_Channel")
    1014                      .dwattr $C$DW$101, DW_AT_type(*$C$DW$T$136)
    1015                      .dwattr $C$DW$101, DW_AT_location[DW_OP_reg0]
    1016              ;* AR4   assigned to _handle
    1017              $C$DW$102       .dwtag  DW_TAG_variable, DW_AT_name("handle")
    1018                      .dwattr $C$DW$102, DW_AT_TI_symbol_name("_handle")
    1019                      .dwattr $C$DW$102, DW_AT_type(*$C$DW$T$109)
    1020                      .dwattr $C$DW$102, DW_AT_location[DW_OP_reg12]
    1021                      .dwcfi  cfa_offset, -2
    1022                      .dwcfi  save_reg_to_mem, 26, 0
    1023                      .dwcfi  save_reg_to_reg, 78, 26
    1024                      .dwpsn  file "D:/Foc/my_motor/sw/drivers/drvic/ldc1612.c",line 933,column 3,is_stmt
    1025 000000de 5200          CMPB      AL,#0                 ; [CPU_] |933| 
    1026 000000df EC0F          BF        $C$L33,EQ             ; [CPU_] |933| 
    1027                      ; branchcc occurs ; [] |933| 
    1028 000000e0 5201          CMPB      AL,#1                 ; [CPU_] |933| 
    1029 000000e1 EC0B          BF        $C$L32,EQ             ; [CPU_] |933| 
    1030                      ; branchcc occurs ; [] |933| 
    1031 000000e2 5202          CMPB      AL,#2                 ; [CPU_] |933| 
    1032 000000e3 EC07          BF        $C$L31,EQ             ; [CPU_] |933| 
    1033                      ; branchcc occurs ; [] |933| 
    1034 000000e4 5203          CMPB      AL,#3                 ; [CPU_] |933| 
    1035 000000e5 EC03          BF        $C$L30,EQ             ; [CPU_] |933| 
    1036                      ; branchcc occurs ; [] |933| 
    1037                      .dwpsn  file "D:/Foc/my_motor/sw/drivers/drvic/ldc1612.c",line 931,column 20,is_stmt
    1038 000000e6 9A00          MOVB      AL,#0                 ; [CPU_] |931| 
    1039 000000e7 6F09          B         $C$L35,UNC            ; [CPU_] 
    1040                      ; branch occurs ; [] 
    1041 000000e8       $C$L30:    
    1042                      .dwpsn  file "D:/Foc/my_motor/sw/drivers/drvic/ldc1612.c",line 938,column 13,is_stmt
    1043 000000e8 D01F          MOVB      XAR0,#31              ; [CPU_] |938| 
    1044                      .dwpsn  file "D:/Foc/my_motor/sw/drivers/drvic/ldc1612.c",line 938,column 50,is_stmt
    1045 000000e9 6F06          B         $C$L34,UNC            ; [CPU_] |938| 
    1046                      ; branch occurs ; [] |938| 
    1047 000000ea       $C$L31:    
    1048                      .dwpsn  file "D:/Foc/my_motor/sw/drivers/drvic/ldc1612.c",line 937,column 13,is_stmt
    1049 000000ea D01E          MOVB      XAR0,#30              ; [CPU_] |937| 
    1050                      .dwpsn  file "D:/Foc/my_motor/sw/drivers/drvic/ldc1612.c",line 937,column 50,is_stmt
    1051 000000eb 6F04          B         $C$L34,UNC            ; [CPU_] |937| 
    1052                      ; branch occurs ; [] |937| 
    1053 000000ec       $C$L32:    
    1054                      .dwpsn  file "D:/Foc/my_motor/sw/drivers/drvic/ldc1612.c",line 936,column 13,is_stmt
    1055 000000ec D01D          MOVB      XAR0,#29              ; [CPU_] |936| 
    1056                      .dwpsn  file "D:/Foc/my_motor/sw/drivers/drvic/ldc1612.c",line 936,column 50,is_stmt
    1057 000000ed 6F02          B         $C$L34,UNC            ; [CPU_] |936| 
    1058                      ; branch occurs ; [] |936| 
    1059 000000ee       $C$L33:    
    1060                      .dwpsn  file "D:/Foc/my_motor/sw/drivers/drvic/ldc1612.c",line 935,column 13,is_stmt
    1061 000000ee D01C          MOVB      XAR0,#28              ; [CPU_] |935| 
    1062 000000ef       $C$L34:    
    1063 000000ef 9294          MOV       AL,*+XAR4[AR0]        ; [CPU_] |935| 
TMS320C2000 Assembler PC v6.2.5 Mon Jul 10 09:53:39 2017

Tools Copyright (c) 1996-2014 Texas Instruments Incorporated
C:\Users\wmj\AppData\Local\Temp\1375610                              PAGE   21

    1064 000000f0       $C$L35:    
    1065                      .dwpsn  file "D:/Foc/my_motor/sw/drivers/drvic/ldc1612.c",line 942,column 3,is_stmt
    1066 000000f0 96C5          MOV       *+XAR5[0],AL          ; [CPU_] |942| 
    1067              $C$DW$103       .dwtag  DW_TAG_TI_branch
    1068                      .dwattr $C$DW$103, DW_AT_low_pc(0x00)
    1069                      .dwattr $C$DW$103, DW_AT_TI_return
    1070 000000f1 0006          LRETR     ; [CPU_] 
    1071                      ; return occurs ; [] 
    1072                      .dwattr $C$DW$94, DW_AT_TI_end_file("D:/Foc/my_motor/sw/drivers/drvic/ldc1612.c")
    1073                      .dwattr $C$DW$94, DW_AT_TI_end_line(0x3b1)
    1074                      .dwattr $C$DW$94, DW_AT_TI_end_column(0x01)
    1075                      .dwendentry
    1076                      .dwendtag $C$DW$94
    1077              
    1078 000000f2               .sect   ".text"
    1079                      .clink
    1080                      .global _LDC161x_writeOffset
    1081              
    1082              $C$DW$104       .dwtag  DW_TAG_subprogram, DW_AT_name("LDC161x_writeOffset")
    1083                      .dwattr $C$DW$104, DW_AT_low_pc(_LDC161x_writeOffset)
    1084                      .dwattr $C$DW$104, DW_AT_high_pc(0x00)
    1085                      .dwattr $C$DW$104, DW_AT_TI_symbol_name("_LDC161x_writeOffset")
    1086                      .dwattr $C$DW$104, DW_AT_external
    1087                      .dwattr $C$DW$104, DW_AT_TI_begin_file("D:/Foc/my_motor/sw/drivers/drvic/ldc1612.c")
    1088                      .dwattr $C$DW$104, DW_AT_TI_begin_line(0x1b8)
    1089                      .dwattr $C$DW$104, DW_AT_TI_begin_column(0x06)
    1090                      .dwattr $C$DW$104, DW_AT_TI_max_frame_size(-4)
    1091                      .dwpsn  file "D:/Foc/my_motor/sw/drivers/drvic/ldc1612.c",line 441,column 1,is_stmt,address _LDC161x_
    1092              
    1093                      .dwfde $C$DW$CIE, _LDC161x_writeOffset
    1094              $C$DW$105       .dwtag  DW_TAG_formal_parameter, DW_AT_name("handle")
    1095                      .dwattr $C$DW$105, DW_AT_TI_symbol_name("_handle")
    1096                      .dwattr $C$DW$105, DW_AT_type(*$C$DW$T$120)
    1097                      .dwattr $C$DW$105, DW_AT_location[DW_OP_reg12]
    1098              $C$DW$106       .dwtag  DW_TAG_formal_parameter, DW_AT_name("ChannelNum")
    1099                      .dwattr $C$DW$106, DW_AT_TI_symbol_name("_ChannelNum")
    1100                      .dwattr $C$DW$106, DW_AT_type(*$C$DW$T$96)
    1101                      .dwattr $C$DW$106, DW_AT_location[DW_OP_reg0]
    1102              
    1103              ;***************************************************************
    1104              ;* FNAME: _LDC161x_writeOffset          FR SIZE:   2           *
    1105              ;*                                                             *
    1106              ;* FUNCTION ENVIRONMENT                                        *
    1107              ;*                                                             *
    1108              ;* FUNCTION PROPERTIES                                         *
    1109              ;*                            0 Parameter,  1 Auto,  0 SOE     *
    1110              ;***************************************************************
    1111              
    1112              _LDC161x_writeOffset:
    1113              ;* AL    assigned to _ChNum
    1114              $C$DW$107       .dwtag  DW_TAG_variable, DW_AT_name("ChNum")
    1115                      .dwattr $C$DW$107, DW_AT_TI_symbol_name("_ChNum")
    1116                      .dwattr $C$DW$107, DW_AT_type(*$C$DW$T$21)
    1117                      .dwattr $C$DW$107, DW_AT_location[DW_OP_reg0]
    1118              ;* AH    assigned to _drvRegName
TMS320C2000 Assembler PC v6.2.5 Mon Jul 10 09:53:39 2017

Tools Copyright (c) 1996-2014 Texas Instruments Incorporated
C:\Users\wmj\AppData\Local\Temp\1375610                              PAGE   22

    1119              $C$DW$108       .dwtag  DW_TAG_variable, DW_AT_name("drvRegName")
    1120                      .dwattr $C$DW$108, DW_AT_TI_symbol_name("_drvRegName")
    1121                      .dwattr $C$DW$108, DW_AT_type(*$C$DW$T$93)
    1122                      .dwattr $C$DW$108, DW_AT_location[DW_OP_reg1]
    1123              $C$DW$109       .dwtag  DW_TAG_variable, DW_AT_name("drvDataGet")
    1124                      .dwattr $C$DW$109, DW_AT_TI_symbol_name("_drvDataGet")
    1125                      .dwattr $C$DW$109, DW_AT_type(*$C$DW$T$21)
    1126                      .dwattr $C$DW$109, DW_AT_location[DW_OP_breg20 -1]
    1127              ;* AL    assigned to _ChannelNum
    1128              $C$DW$110       .dwtag  DW_TAG_variable, DW_AT_name("ChannelNum")
    1129                      .dwattr $C$DW$110, DW_AT_TI_symbol_name("_ChannelNum")
    1130                      .dwattr $C$DW$110, DW_AT_type(*$C$DW$T$100)
    1131                      .dwattr $C$DW$110, DW_AT_location[DW_OP_reg0]
    1132              ;* AR6   assigned to _handle
    1133              $C$DW$111       .dwtag  DW_TAG_variable, DW_AT_name("handle")
    1134                      .dwattr $C$DW$111, DW_AT_TI_symbol_name("_handle")
    1135                      .dwattr $C$DW$111, DW_AT_type(*$C$DW$T$121)
    1136                      .dwattr $C$DW$111, DW_AT_location[DW_OP_reg16]
    1137                      .dwcfi  cfa_offset, -2
    1138                      .dwcfi  save_reg_to_mem, 26, 0
    1139                      .dwcfi  save_reg_to_reg, 78, 26
    1140 000000f2 FE02          ADDB      SP,#2                 ; [CPU_U] 
    1141                      .dwcfi  cfa_offset, -4
    1142                      .dwpsn  file "D:/Foc/my_motor/sw/drivers/drvic/ldc1612.c",line 447,column 3,is_stmt
    1143 000000f3 5200          CMPB      AL,#0                 ; [CPU_] |447| 
    1144                      .dwpsn  file "D:/Foc/my_motor/sw/drivers/drvic/ldc1612.c",line 441,column 1,is_stmt
    1145 000000f4 C4A4          MOVL      XAR6,XAR4             ; [CPU_] |441| 
    1146                      .dwpsn  file "D:/Foc/my_motor/sw/drivers/drvic/ldc1612.c",line 447,column 3,is_stmt
    1147 000000f5 EC10          BF        $C$L38,EQ             ; [CPU_] |447| 
    1148                      ; branchcc occurs ; [] |447| 
    1149 000000f6 5201          CMPB      AL,#1                 ; [CPU_] |447| 
    1150 000000f7 EC0B          BF        $C$L37,EQ             ; [CPU_] |447| 
    1151                      ; branchcc occurs ; [] |447| 
    1152 000000f8 5202          CMPB      AL,#2                 ; [CPU_] |447| 
    1153 000000f9 EC06          BF        $C$L36,EQ             ; [CPU_] |447| 
    1154                      ; branchcc occurs ; [] |447| 
    1155 000000fa 5203          CMPB      AL,#3                 ; [CPU_] |447| 
    1156 000000fb ED0C          BF        $C$L39,NEQ            ; [CPU_] |447| 
    1157                      ; branchcc occurs ; [] |447| 
    1158                      .dwpsn  file "D:/Foc/my_motor/sw/drivers/drvic/ldc1612.c",line 458,column 29,is_stmt
    1159 000000fc 9B0F          MOVB      AH,#15                ; [CPU_] |458| 
    1160                      .dwpsn  file "D:/Foc/my_motor/sw/drivers/drvic/ldc1612.c",line 459,column 29,is_stmt
    1161 000000fd 9A03          MOVB      AL,#3                 ; [CPU_] |459| 
    1162                      .dwpsn  file "D:/Foc/my_motor/sw/drivers/drvic/ldc1612.c",line 460,column 7,is_stmt
    1163 000000fe 6F09          B         $C$L39,UNC            ; [CPU_] |460| 
    1164                      ; branch occurs ; [] |460| 
    1165 000000ff       $C$L36:    
    1166                      .dwpsn  file "D:/Foc/my_motor/sw/drivers/drvic/ldc1612.c",line 455,column 29,is_stmt
    1167 000000ff 9B0E          MOVB      AH,#14                ; [CPU_] |455| 
    1168                      .dwpsn  file "D:/Foc/my_motor/sw/drivers/drvic/ldc1612.c",line 456,column 29,is_stmt
    1169 00000100 9A02          MOVB      AL,#2                 ; [CPU_] |456| 
    1170                      .dwpsn  file "D:/Foc/my_motor/sw/drivers/drvic/ldc1612.c",line 457,column 7,is_stmt
    1171 00000101 6F06          B         $C$L39,UNC            ; [CPU_] |457| 
    1172                      ; branch occurs ; [] |457| 
    1173 00000102       $C$L37:    
TMS320C2000 Assembler PC v6.2.5 Mon Jul 10 09:53:39 2017

Tools Copyright (c) 1996-2014 Texas Instruments Incorporated
C:\Users\wmj\AppData\Local\Temp\1375610                              PAGE   23

    1174                      .dwpsn  file "D:/Foc/my_motor/sw/drivers/drvic/ldc1612.c",line 452,column 29,is_stmt
    1175 00000102 9B0D          MOVB      AH,#13                ; [CPU_] |452| 
    1176                      .dwpsn  file "D:/Foc/my_motor/sw/drivers/drvic/ldc1612.c",line 453,column 29,is_stmt
    1177 00000103 9A01          MOVB      AL,#1                 ; [CPU_] |453| 
    1178                      .dwpsn  file "D:/Foc/my_motor/sw/drivers/drvic/ldc1612.c",line 454,column 7,is_stmt
    1179 00000104 6F03          B         $C$L39,UNC            ; [CPU_] |454| 
    1180                      ; branch occurs ; [] |454| 
    1181 00000105       $C$L38:    
    1182                      .dwpsn  file "D:/Foc/my_motor/sw/drivers/drvic/ldc1612.c",line 449,column 29,is_stmt
    1183 00000105 9B0C          MOVB      AH,#12                ; [CPU_] |449| 
    1184                      .dwpsn  file "D:/Foc/my_motor/sw/drivers/drvic/ldc1612.c",line 450,column 29,is_stmt
    1185 00000106 9A00          MOVB      AL,#0                 ; [CPU_] |450| 
    1186 00000107       $C$L39:    
    1187                      .dwpsn  file "D:/Foc/my_motor/sw/drivers/drvic/ldc1612.c",line 464,column 3,is_stmt
    1188 00000107 5DAD          MOVZ      AR5,SP                ; [CPU_U] |464| 
    1189 00000108 8AE6          MOVL      XAR4,*+XAR6[4]        ; [CPU_] |464| 
    1190 00000109 DD81          SUBB      XAR5,#1               ; [CPU_U] |464| 
    1191              $C$DW$112       .dwtag  DW_TAG_TI_branch
    1192                      .dwattr $C$DW$112, DW_AT_low_pc(0x00)
    1193                      .dwattr $C$DW$112, DW_AT_name("_LDC161x_getOffset")
    1194                      .dwattr $C$DW$112, DW_AT_TI_call
    1195 0000010a 7640'         LCR       #_LDC161x_getOffset   ; [CPU_] |464| 
         0000010b 00DE 
    1196                      ; call occurs [#_LDC161x_getOffset] ; [] |464| 
    1197                      .dwpsn  file "D:/Foc/my_motor/sw/drivers/drvic/ldc1612.c",line 465,column 3,is_stmt
    1198 0000010c 92A8          MOV       AL,AH                 ; [CPU_] |465| 
    1199 0000010d 9341          MOV       AH,*-SP[1]            ; [CPU_] |465| 
    1200 0000010e 8AA6          MOVL      XAR4,XAR6             ; [CPU_] |465| 
    1201              $C$DW$113       .dwtag  DW_TAG_TI_branch
    1202                      .dwattr $C$DW$113, DW_AT_low_pc(0x00)
    1203                      .dwattr $C$DW$113, DW_AT_name("_LDC161x_writeI2c")
    1204                      .dwattr $C$DW$113, DW_AT_TI_call
    1205 0000010f 7640'         LCR       #_LDC161x_writeI2c    ; [CPU_] |465| 
         00000110 0014 
    1206                      ; call occurs [#_LDC161x_writeI2c] ; [] |465| 
    1207 00000111 FE82          SUBB      SP,#2                 ; [CPU_U] 
    1208                      .dwcfi  cfa_offset, -2
    1209              $C$DW$114       .dwtag  DW_TAG_TI_branch
    1210                      .dwattr $C$DW$114, DW_AT_low_pc(0x00)
    1211                      .dwattr $C$DW$114, DW_AT_TI_return
    1212 00000112 0006          LRETR     ; [CPU_] 
    1213                      ; return occurs ; [] 
    1214                      .dwattr $C$DW$104, DW_AT_TI_end_file("D:/Foc/my_motor/sw/drivers/drvic/ldc1612.c")
    1215                      .dwattr $C$DW$104, DW_AT_TI_end_line(0x1d4)
    1216                      .dwattr $C$DW$104, DW_AT_TI_end_column(0x01)
    1217                      .dwendentry
    1218                      .dwendtag $C$DW$104
    1219              
    1220 00000113               .sect   ".text"
    1221                      .clink
    1222                      .global _LDC161x_getConfig
    1223              
    1224              $C$DW$115       .dwtag  DW_TAG_subprogram, DW_AT_name("LDC161x_getConfig")
    1225                      .dwattr $C$DW$115, DW_AT_low_pc(_LDC161x_getConfig)
    1226                      .dwattr $C$DW$115, DW_AT_high_pc(0x00)
TMS320C2000 Assembler PC v6.2.5 Mon Jul 10 09:53:39 2017

Tools Copyright (c) 1996-2014 Texas Instruments Incorporated
C:\Users\wmj\AppData\Local\Temp\1375610                              PAGE   24

    1227                      .dwattr $C$DW$115, DW_AT_TI_symbol_name("_LDC161x_getConfig")
    1228                      .dwattr $C$DW$115, DW_AT_external
    1229                      .dwattr $C$DW$115, DW_AT_TI_begin_file("D:/Foc/my_motor/sw/drivers/drvic/ldc1612.c")
    1230                      .dwattr $C$DW$115, DW_AT_TI_begin_line(0x348)
    1231                      .dwattr $C$DW$115, DW_AT_TI_begin_column(0x06)
    1232                      .dwattr $C$DW$115, DW_AT_TI_max_frame_size(-2)
    1233                      .dwpsn  file "D:/Foc/my_motor/sw/drivers/drvic/ldc1612.c",line 841,column 1,is_stmt,address _LDC161x_
    1234              
    1235                      .dwfde $C$DW$CIE, _LDC161x_getConfig
    1236              $C$DW$116       .dwtag  DW_TAG_formal_parameter, DW_AT_name("handle")
    1237                      .dwattr $C$DW$116, DW_AT_TI_symbol_name("_handle")
    1238                      .dwattr $C$DW$116, DW_AT_type(*$C$DW$T$47)
    1239                      .dwattr $C$DW$116, DW_AT_location[DW_OP_reg12]
    1240              $C$DW$117       .dwtag  DW_TAG_formal_parameter, DW_AT_name("drvDataGet")
    1241                      .dwattr $C$DW$117, DW_AT_TI_symbol_name("_drvDataGet")
    1242                      .dwattr $C$DW$117, DW_AT_type(*$C$DW$T$155)
    1243                      .dwattr $C$DW$117, DW_AT_location[DW_OP_reg14]
    1244              
    1245              ;***************************************************************
    1246              ;* FNAME: _LDC161x_getConfig            FR SIZE:   0           *
    1247              ;*                                                             *
    1248              ;* FUNCTION ENVIRONMENT                                        *
    1249              ;*                                                             *
    1250              ;* FUNCTION PROPERTIES                                         *
    1251              ;*                            0 Parameter,  0 Auto,  0 SOE     *
    1252              ;***************************************************************
    1253              
    1254              _LDC161x_getConfig:
    1255              ;* AL    assigned to _drvData
    1256              $C$DW$118       .dwtag  DW_TAG_variable, DW_AT_name("drvData")
    1257                      .dwattr $C$DW$118, DW_AT_TI_symbol_name("_drvData")
    1258                      .dwattr $C$DW$118, DW_AT_type(*$C$DW$T$21)
    1259                      .dwattr $C$DW$118, DW_AT_location[DW_OP_reg0]
    1260              ;* AR4   assigned to _obj
    1261              $C$DW$119       .dwtag  DW_TAG_variable, DW_AT_name("obj")
    1262                      .dwattr $C$DW$119, DW_AT_TI_symbol_name("_obj")
    1263                      .dwattr $C$DW$119, DW_AT_type(*$C$DW$T$125)
    1264                      .dwattr $C$DW$119, DW_AT_location[DW_OP_reg12]
    1265              ;* AR5   assigned to _drvDataGet
    1266              $C$DW$120       .dwtag  DW_TAG_variable, DW_AT_name("drvDataGet")
    1267                      .dwattr $C$DW$120, DW_AT_TI_symbol_name("_drvDataGet")
    1268                      .dwattr $C$DW$120, DW_AT_type(*$C$DW$T$167)
    1269                      .dwattr $C$DW$120, DW_AT_location[DW_OP_reg14]
    1270              ;* AR4   assigned to _handle
    1271              $C$DW$121       .dwtag  DW_TAG_variable, DW_AT_name("handle")
    1272                      .dwattr $C$DW$121, DW_AT_TI_symbol_name("_handle")
    1273                      .dwattr $C$DW$121, DW_AT_type(*$C$DW$T$109)
    1274                      .dwattr $C$DW$121, DW_AT_location[DW_OP_reg12]
    1275                      .dwcfi  cfa_offset, -2
    1276                      .dwcfi  save_reg_to_mem, 26, 0
    1277                      .dwcfi  save_reg_to_reg, 78, 26
    1278                      .dwpsn  file "D:/Foc/my_motor/sw/drivers/drvic/ldc1612.c",line 845,column 5,is_stmt
    1279 00000113 D045          MOVB      XAR0,#69              ; [CPU_] |845| 
    1280 00000114 9294          MOV       AL,*+XAR4[AR0]        ; [CPU_] |845| 
    1281 00000115 EC04          BF        $C$L40,EQ             ; [CPU_] |845| 
TMS320C2000 Assembler PC v6.2.5 Mon Jul 10 09:53:39 2017

Tools Copyright (c) 1996-2014 Texas Instruments Incorporated
C:\Users\wmj\AppData\Local\Temp\1375610                              PAGE   25

    1282                      ; branchcc occurs ; [] |845| 
    1283 00000116 28A9          MOV       AL,#16384             ; [CPU_] |845| 
         00000117 4000 
    1284 00000118 6F02          B         $C$L41,UNC            ; [CPU_] |845| 
    1285                      ; branch occurs ; [] |845| 
    1286 00000119       $C$L40:    
    1287 00000119 9A00          MOVB      AL,#0                 ; [CPU_] |845| 
    1288 0000011a       $C$L41:    
    1289                      .dwpsn  file "D:/Foc/my_motor/sw/drivers/drvic/ldc1612.c",line 846,column 3,is_stmt
    1290 0000011a D046          MOVB      XAR0,#70              ; [CPU_] |846| 
    1291 0000011b 9394          MOV       AH,*+XAR4[AR0]        ; [CPU_] |846| 
    1292 0000011c EC03          BF        $C$L42,EQ             ; [CPU_] |846| 
    1293                      ; branchcc occurs ; [] |846| 
    1294                      .dwpsn  file "D:/Foc/my_motor/sw/drivers/drvic/ldc1612.c",line 847,column 5,is_stmt
    1295 0000011d 1AA9          OR        AL,#0x8000            ; [CPU_] |847| 
         0000011e 8000 
    1296 0000011f       $C$L42:    
    1297                      .dwpsn  file "D:/Foc/my_motor/sw/drivers/drvic/ldc1612.c",line 848,column 3,is_stmt
    1298 0000011f D047          MOVB      XAR0,#71              ; [CPU_] |848| 
    1299 00000120 9394          MOV       AH,*+XAR4[AR0]        ; [CPU_] |848| 
    1300 00000121 EC03          BF        $C$L43,EQ             ; [CPU_] |848| 
    1301                      ; branchcc occurs ; [] |848| 
    1302                      .dwpsn  file "D:/Foc/my_motor/sw/drivers/drvic/ldc1612.c",line 849,column 5,is_stmt
    1303 00000122 1AA9          OR        AL,#0x2000            ; [CPU_] |849| 
         00000123 2000 
    1304 00000124       $C$L43:    
    1305                      .dwpsn  file "D:/Foc/my_motor/sw/drivers/drvic/ldc1612.c",line 850,column 3,is_stmt
    1306 00000124 D048          MOVB      XAR0,#72              ; [CPU_] |850| 
    1307 00000125 9394          MOV       AH,*+XAR4[AR0]        ; [CPU_] |850| 
    1308 00000126 EC03          BF        $C$L44,EQ             ; [CPU_] |850| 
    1309                      ; branchcc occurs ; [] |850| 
    1310                      .dwpsn  file "D:/Foc/my_motor/sw/drivers/drvic/ldc1612.c",line 851,column 5,is_stmt
    1311 00000127 1AA9          OR        AL,#0x1000            ; [CPU_] |851| 
         00000128 1000 
    1312 00000129       $C$L44:    
    1313                      .dwpsn  file "D:/Foc/my_motor/sw/drivers/drvic/ldc1612.c",line 852,column 3,is_stmt
    1314 00000129 D049          MOVB      XAR0,#73              ; [CPU_] |852| 
    1315 0000012a 9394          MOV       AH,*+XAR4[AR0]        ; [CPU_] |852| 
    1316 0000012b EC03          BF        $C$L45,EQ             ; [CPU_] |852| 
    1317                      ; branchcc occurs ; [] |852| 
    1318                      .dwpsn  file "D:/Foc/my_motor/sw/drivers/drvic/ldc1612.c",line 853,column 5,is_stmt
    1319 0000012c 1AA9          OR        AL,#0x0800            ; [CPU_] |853| 
         0000012d 0800 
    1320 0000012e       $C$L45:    
    1321                      .dwpsn  file "D:/Foc/my_motor/sw/drivers/drvic/ldc1612.c",line 854,column 3,is_stmt
    1322 0000012e D04A          MOVB      XAR0,#74              ; [CPU_] |854| 
    1323 0000012f 9394          MOV       AH,*+XAR4[AR0]        ; [CPU_] |854| 
    1324 00000130 EC03          BF        $C$L46,EQ             ; [CPU_] |854| 
    1325                      ; branchcc occurs ; [] |854| 
    1326                      .dwpsn  file "D:/Foc/my_motor/sw/drivers/drvic/ldc1612.c",line 855,column 5,is_stmt
    1327 00000131 1AA9          OR        AL,#0x0400            ; [CPU_] |855| 
         00000132 0400 
    1328 00000133       $C$L46:    
    1329                      .dwpsn  file "D:/Foc/my_motor/sw/drivers/drvic/ldc1612.c",line 856,column 3,is_stmt
    1330 00000133 D04B          MOVB      XAR0,#75              ; [CPU_] |856| 
TMS320C2000 Assembler PC v6.2.5 Mon Jul 10 09:53:39 2017

Tools Copyright (c) 1996-2014 Texas Instruments Incorporated
C:\Users\wmj\AppData\Local\Temp\1375610                              PAGE   26

    1331 00000134 9394          MOV       AH,*+XAR4[AR0]        ; [CPU_] |856| 
    1332 00000135 EC03          BF        $C$L47,EQ             ; [CPU_] |856| 
    1333                      ; branchcc occurs ; [] |856| 
    1334                      .dwpsn  file "D:/Foc/my_motor/sw/drivers/drvic/ldc1612.c",line 857,column 5,is_stmt
    1335 00000136 1AA9          OR        AL,#0x0200            ; [CPU_] |857| 
         00000137 0200 
    1336 00000138       $C$L47:    
    1337                      .dwpsn  file "D:/Foc/my_motor/sw/drivers/drvic/ldc1612.c",line 858,column 3,is_stmt
    1338 00000138 D04C          MOVB      XAR0,#76              ; [CPU_] |858| 
    1339 00000139 9394          MOV       AH,*+XAR4[AR0]        ; [CPU_] |858| 
    1340 0000013a EC02          BF        $C$L48,EQ             ; [CPU_] |858| 
    1341                      ; branchcc occurs ; [] |858| 
    1342                      .dwpsn  file "D:/Foc/my_motor/sw/drivers/drvic/ldc1612.c",line 859,column 5,is_stmt
    1343 0000013b 5080          ORB       AL,#0x80              ; [CPU_] |859| 
    1344 0000013c       $C$L48:    
    1345                      .dwpsn  file "D:/Foc/my_motor/sw/drivers/drvic/ldc1612.c",line 860,column 3,is_stmt
    1346 0000013c D04D          MOVB      XAR0,#77              ; [CPU_] |860| 
    1347 0000013d 9394          MOV       AH,*+XAR4[AR0]        ; [CPU_] |860| 
    1348 0000013e EC02          BF        $C$L49,EQ             ; [CPU_] |860| 
    1349                      ; branchcc occurs ; [] |860| 
    1350                      .dwpsn  file "D:/Foc/my_motor/sw/drivers/drvic/ldc1612.c",line 861,column 5,is_stmt
    1351 0000013f 5040          ORB       AL,#0x40              ; [CPU_] |861| 
    1352 00000140       $C$L49:    
    1353                      .dwpsn  file "D:/Foc/my_motor/sw/drivers/drvic/ldc1612.c",line 863,column 3,is_stmt
    1354 00000140 96C5          MOV       *+XAR5[0],AL          ; [CPU_] |863| 
    1355              $C$DW$122       .dwtag  DW_TAG_TI_branch
    1356                      .dwattr $C$DW$122, DW_AT_low_pc(0x00)
    1357                      .dwattr $C$DW$122, DW_AT_TI_return
    1358 00000141 0006          LRETR     ; [CPU_] 
    1359                      ; return occurs ; [] 
    1360                      .dwattr $C$DW$115, DW_AT_TI_end_file("D:/Foc/my_motor/sw/drivers/drvic/ldc1612.c")
    1361                      .dwattr $C$DW$115, DW_AT_TI_end_line(0x362)
    1362                      .dwattr $C$DW$115, DW_AT_TI_end_column(0x01)
    1363                      .dwendentry
    1364                      .dwendtag $C$DW$115
    1365              
    1366 00000142               .sect   ".text"
    1367                      .clink
    1368                      .global _LDC161x_writeMuxConfig
    1369              
    1370              $C$DW$123       .dwtag  DW_TAG_subprogram, DW_AT_name("LDC161x_writeMuxConfig")
    1371                      .dwattr $C$DW$123, DW_AT_low_pc(_LDC161x_writeMuxConfig)
    1372                      .dwattr $C$DW$123, DW_AT_high_pc(0x00)
    1373                      .dwattr $C$DW$123, DW_AT_TI_symbol_name("_LDC161x_writeMuxConfig")
    1374                      .dwattr $C$DW$123, DW_AT_external
    1375                      .dwattr $C$DW$123, DW_AT_TI_begin_file("D:/Foc/my_motor/sw/drivers/drvic/ldc1612.c")
    1376                      .dwattr $C$DW$123, DW_AT_TI_begin_line(0x230)
    1377                      .dwattr $C$DW$123, DW_AT_TI_begin_column(0x06)
    1378                      .dwattr $C$DW$123, DW_AT_TI_max_frame_size(-4)
    1379                      .dwpsn  file "D:/Foc/my_motor/sw/drivers/drvic/ldc1612.c",line 561,column 1,is_stmt,address _LDC161x_
    1380              
    1381                      .dwfde $C$DW$CIE, _LDC161x_writeMuxConfig
    1382              $C$DW$124       .dwtag  DW_TAG_formal_parameter, DW_AT_name("handle")
    1383                      .dwattr $C$DW$124, DW_AT_TI_symbol_name("_handle")
    1384                      .dwattr $C$DW$124, DW_AT_type(*$C$DW$T$120)
TMS320C2000 Assembler PC v6.2.5 Mon Jul 10 09:53:39 2017

Tools Copyright (c) 1996-2014 Texas Instruments Incorporated
C:\Users\wmj\AppData\Local\Temp\1375610                              PAGE   27

    1385                      .dwattr $C$DW$124, DW_AT_location[DW_OP_reg12]
    1386              
    1387              ;***************************************************************
    1388              ;* FNAME: _LDC161x_writeMuxConfig       FR SIZE:   2           *
    1389              ;*                                                             *
    1390              ;* FUNCTION ENVIRONMENT                                        *
    1391              ;*                                                             *
    1392              ;* FUNCTION PROPERTIES                                         *
    1393              ;*                            0 Parameter,  1 Auto,  0 SOE     *
    1394              ;***************************************************************
    1395              
    1396              _LDC161x_writeMuxConfig:
    1397              ;* AR6   assigned to _handle
    1398              $C$DW$125       .dwtag  DW_TAG_variable, DW_AT_name("handle")
    1399                      .dwattr $C$DW$125, DW_AT_TI_symbol_name("_handle")
    1400                      .dwattr $C$DW$125, DW_AT_type(*$C$DW$T$121)
    1401                      .dwattr $C$DW$125, DW_AT_location[DW_OP_reg16]
    1402              $C$DW$126       .dwtag  DW_TAG_variable, DW_AT_name("drvDataGet")
    1403                      .dwattr $C$DW$126, DW_AT_TI_symbol_name("_drvDataGet")
    1404                      .dwattr $C$DW$126, DW_AT_type(*$C$DW$T$21)
    1405                      .dwattr $C$DW$126, DW_AT_location[DW_OP_breg20 -1]
    1406                      .dwcfi  cfa_offset, -2
    1407                      .dwcfi  save_reg_to_mem, 26, 0
    1408                      .dwcfi  save_reg_to_reg, 78, 26
    1409 00000142 FE02          ADDB      SP,#2                 ; [CPU_U] 
    1410                      .dwcfi  cfa_offset, -4
    1411 00000143 C4A4          MOVL      XAR6,XAR4             ; [CPU_] |561| 
    1412                      .dwpsn  file "D:/Foc/my_motor/sw/drivers/drvic/ldc1612.c",line 567,column 3,is_stmt
    1413 00000144 5DAD          MOVZ      AR5,SP                ; [CPU_U] |567| 
    1414 00000145 8AE6          MOVL      XAR4,*+XAR6[4]        ; [CPU_] |567| 
    1415 00000146 DD81          SUBB      XAR5,#1               ; [CPU_U] |567| 
    1416              $C$DW$127       .dwtag  DW_TAG_TI_branch
    1417                      .dwattr $C$DW$127, DW_AT_low_pc(0x00)
    1418                      .dwattr $C$DW$127, DW_AT_name("_LDC161x_getConfig")
    1419                      .dwattr $C$DW$127, DW_AT_TI_call
    1420 00000147 7640'         LCR       #_LDC161x_getConfig   ; [CPU_] |567| 
         00000148 0113 
    1421                      ; call occurs [#_LDC161x_getConfig] ; [] |567| 
    1422                      .dwpsn  file "D:/Foc/my_motor/sw/drivers/drvic/ldc1612.c",line 568,column 3,is_stmt
    1423 00000149 1A41          OR        *-SP[1],#0x0208       ; [CPU_] |568| 
         0000014a 0208 
    1424                      .dwpsn  file "D:/Foc/my_motor/sw/drivers/drvic/ldc1612.c",line 569,column 3,is_stmt
    1425 0000014b 9341          MOV       AH,*-SP[1]            ; [CPU_] |569| 
    1426 0000014c 9A1B          MOVB      AL,#27                ; [CPU_] |569| 
    1427 0000014d 8AA6          MOVL      XAR4,XAR6             ; [CPU_] |569| 
    1428              $C$DW$128       .dwtag  DW_TAG_TI_branch
    1429                      .dwattr $C$DW$128, DW_AT_low_pc(0x00)
    1430                      .dwattr $C$DW$128, DW_AT_name("_LDC161x_writeI2c")
    1431                      .dwattr $C$DW$128, DW_AT_TI_call
    1432 0000014e 7640'         LCR       #_LDC161x_writeI2c    ; [CPU_] |569| 
         0000014f 0014 
    1433                      ; call occurs [#_LDC161x_writeI2c] ; [] |569| 
    1434 00000150 FE82          SUBB      SP,#2                 ; [CPU_U] 
    1435                      .dwcfi  cfa_offset, -2
    1436              $C$DW$129       .dwtag  DW_TAG_TI_branch
TMS320C2000 Assembler PC v6.2.5 Mon Jul 10 09:53:39 2017

Tools Copyright (c) 1996-2014 Texas Instruments Incorporated
C:\Users\wmj\AppData\Local\Temp\1375610                              PAGE   28

    1437                      .dwattr $C$DW$129, DW_AT_low_pc(0x00)
    1438                      .dwattr $C$DW$129, DW_AT_TI_return
    1439 00000151 0006          LRETR     ; [CPU_] 
    1440                      ; return occurs ; [] 
    1441                      .dwattr $C$DW$123, DW_AT_TI_end_file("D:/Foc/my_motor/sw/drivers/drvic/ldc1612.c")
    1442                      .dwattr $C$DW$123, DW_AT_TI_end_line(0x23c)
    1443                      .dwattr $C$DW$123, DW_AT_TI_end_column(0x01)
    1444                      .dwendentry
    1445                      .dwendtag $C$DW$123
    1446              
    1447 00000152               .sect   ".text"
    1448                      .clink
    1449                      .global _LDC161x_writeConfig
    1450              
    1451              $C$DW$130       .dwtag  DW_TAG_subprogram, DW_AT_name("LDC161x_writeConfig")
    1452                      .dwattr $C$DW$130, DW_AT_low_pc(_LDC161x_writeConfig)
    1453                      .dwattr $C$DW$130, DW_AT_high_pc(0x00)
    1454                      .dwattr $C$DW$130, DW_AT_TI_symbol_name("_LDC161x_writeConfig")
    1455                      .dwattr $C$DW$130, DW_AT_external
    1456                      .dwattr $C$DW$130, DW_AT_TI_begin_file("D:/Foc/my_motor/sw/drivers/drvic/ldc1612.c")
    1457                      .dwattr $C$DW$130, DW_AT_TI_begin_line(0x21e)
    1458                      .dwattr $C$DW$130, DW_AT_TI_begin_column(0x06)
    1459                      .dwattr $C$DW$130, DW_AT_TI_max_frame_size(-4)
    1460                      .dwpsn  file "D:/Foc/my_motor/sw/drivers/drvic/ldc1612.c",line 543,column 1,is_stmt,address _LDC161x_
    1461              
    1462                      .dwfde $C$DW$CIE, _LDC161x_writeConfig
    1463              $C$DW$131       .dwtag  DW_TAG_formal_parameter, DW_AT_name("handle")
    1464                      .dwattr $C$DW$131, DW_AT_TI_symbol_name("_handle")
    1465                      .dwattr $C$DW$131, DW_AT_type(*$C$DW$T$120)
    1466                      .dwattr $C$DW$131, DW_AT_location[DW_OP_reg12]
    1467              
    1468              ;***************************************************************
    1469              ;* FNAME: _LDC161x_writeConfig          FR SIZE:   2           *
    1470              ;*                                                             *
    1471              ;* FUNCTION ENVIRONMENT                                        *
    1472              ;*                                                             *
    1473              ;* FUNCTION PROPERTIES                                         *
    1474              ;*                            0 Parameter,  1 Auto,  0 SOE     *
    1475              ;***************************************************************
    1476              
    1477              _LDC161x_writeConfig:
    1478              ;* AR6   assigned to _handle
    1479              $C$DW$132       .dwtag  DW_TAG_variable, DW_AT_name("handle")
    1480                      .dwattr $C$DW$132, DW_AT_TI_symbol_name("_handle")
    1481                      .dwattr $C$DW$132, DW_AT_type(*$C$DW$T$121)
    1482                      .dwattr $C$DW$132, DW_AT_location[DW_OP_reg16]
    1483              $C$DW$133       .dwtag  DW_TAG_variable, DW_AT_name("drvDataGet")
    1484                      .dwattr $C$DW$133, DW_AT_TI_symbol_name("_drvDataGet")
    1485                      .dwattr $C$DW$133, DW_AT_type(*$C$DW$T$21)
    1486                      .dwattr $C$DW$133, DW_AT_location[DW_OP_breg20 -1]
    1487                      .dwcfi  cfa_offset, -2
    1488                      .dwcfi  save_reg_to_mem, 26, 0
    1489                      .dwcfi  save_reg_to_reg, 78, 26
    1490 00000152 FE02          ADDB      SP,#2                 ; [CPU_U] 
    1491                      .dwcfi  cfa_offset, -4
TMS320C2000 Assembler PC v6.2.5 Mon Jul 10 09:53:39 2017

Tools Copyright (c) 1996-2014 Texas Instruments Incorporated
C:\Users\wmj\AppData\Local\Temp\1375610                              PAGE   29

    1492 00000153 C4A4          MOVL      XAR6,XAR4             ; [CPU_] |543| 
    1493                      .dwpsn  file "D:/Foc/my_motor/sw/drivers/drvic/ldc1612.c",line 549,column 3,is_stmt
    1494 00000154 5DAD          MOVZ      AR5,SP                ; [CPU_U] |549| 
    1495 00000155 8AE6          MOVL      XAR4,*+XAR6[4]        ; [CPU_] |549| 
    1496 00000156 DD81          SUBB      XAR5,#1               ; [CPU_U] |549| 
    1497              $C$DW$134       .dwtag  DW_TAG_TI_branch
    1498                      .dwattr $C$DW$134, DW_AT_low_pc(0x00)
    1499                      .dwattr $C$DW$134, DW_AT_name("_LDC161x_getConfig")
    1500                      .dwattr $C$DW$134, DW_AT_TI_call
    1501 00000157 7640'         LCR       #_LDC161x_getConfig   ; [CPU_] |549| 
         00000158 0113 
    1502                      ; call occurs [#_LDC161x_getConfig] ; [] |549| 
    1503                      .dwpsn  file "D:/Foc/my_motor/sw/drivers/drvic/ldc1612.c",line 550,column 3,is_stmt
    1504 00000159 1A41          OR        *-SP[1],#0x0001       ; [CPU_] |550| 
         0000015a 0001 
    1505                      .dwpsn  file "D:/Foc/my_motor/sw/drivers/drvic/ldc1612.c",line 551,column 3,is_stmt
    1506 0000015b 9341          MOV       AH,*-SP[1]            ; [CPU_] |551| 
    1507 0000015c 9A1A          MOVB      AL,#26                ; [CPU_] |551| 
    1508 0000015d 8AA6          MOVL      XAR4,XAR6             ; [CPU_] |551| 
    1509              $C$DW$135       .dwtag  DW_TAG_TI_branch
    1510                      .dwattr $C$DW$135, DW_AT_low_pc(0x00)
    1511                      .dwattr $C$DW$135, DW_AT_name("_LDC161x_writeI2c")
    1512                      .dwattr $C$DW$135, DW_AT_TI_call
    1513 0000015e 7640'         LCR       #_LDC161x_writeI2c    ; [CPU_] |551| 
         0000015f 0014 
    1514                      ; call occurs [#_LDC161x_writeI2c] ; [] |551| 
    1515 00000160 FE82          SUBB      SP,#2                 ; [CPU_U] 
    1516                      .dwcfi  cfa_offset, -2
    1517              $C$DW$136       .dwtag  DW_TAG_TI_branch
    1518                      .dwattr $C$DW$136, DW_AT_low_pc(0x00)
    1519                      .dwattr $C$DW$136, DW_AT_TI_return
    1520 00000161 0006          LRETR     ; [CPU_] 
    1521                      ; return occurs ; [] 
    1522                      .dwattr $C$DW$130, DW_AT_TI_end_file("D:/Foc/my_motor/sw/drivers/drvic/ldc1612.c")
    1523                      .dwattr $C$DW$130, DW_AT_TI_end_line(0x22a)
    1524                      .dwattr $C$DW$130, DW_AT_TI_end_column(0x01)
    1525                      .dwendentry
    1526                      .dwendtag $C$DW$130
    1527              
    1528 00000162               .sect   ".text"
    1529                      .clink
    1530                      .global _LDC161x_getClkDivs
    1531              
    1532              $C$DW$137       .dwtag  DW_TAG_subprogram, DW_AT_name("LDC161x_getClkDivs")
    1533                      .dwattr $C$DW$137, DW_AT_low_pc(_LDC161x_getClkDivs)
    1534                      .dwattr $C$DW$137, DW_AT_high_pc(0x00)
    1535                      .dwattr $C$DW$137, DW_AT_TI_symbol_name("_LDC161x_getClkDivs")
    1536                      .dwattr $C$DW$137, DW_AT_external
    1537                      .dwattr $C$DW$137, DW_AT_TI_begin_file("D:/Foc/my_motor/sw/drivers/drvic/ldc1612.c")
    1538                      .dwattr $C$DW$137, DW_AT_TI_begin_line(0x3c6)
    1539                      .dwattr $C$DW$137, DW_AT_TI_begin_column(0x06)
    1540                      .dwattr $C$DW$137, DW_AT_TI_max_frame_size(-4)
    1541                      .dwpsn  file "D:/Foc/my_motor/sw/drivers/drvic/ldc1612.c",line 967,column 1,is_stmt,address _LDC161x_
    1542              
    1543                      .dwfde $C$DW$CIE, _LDC161x_getClkDivs
TMS320C2000 Assembler PC v6.2.5 Mon Jul 10 09:53:39 2017

Tools Copyright (c) 1996-2014 Texas Instruments Incorporated
C:\Users\wmj\AppData\Local\Temp\1375610                              PAGE   30

    1544              $C$DW$138       .dwtag  DW_TAG_formal_parameter, DW_AT_name("handle")
    1545                      .dwattr $C$DW$138, DW_AT_TI_symbol_name("_handle")
    1546                      .dwattr $C$DW$138, DW_AT_type(*$C$DW$T$47)
    1547                      .dwattr $C$DW$138, DW_AT_location[DW_OP_reg12]
    1548              $C$DW$139       .dwtag  DW_TAG_formal_parameter, DW_AT_name("Channel")
    1549                      .dwattr $C$DW$139, DW_AT_TI_symbol_name("_Channel")
    1550                      .dwattr $C$DW$139, DW_AT_type(*$C$DW$T$136)
    1551                      .dwattr $C$DW$139, DW_AT_location[DW_OP_reg0]
    1552              $C$DW$140       .dwtag  DW_TAG_formal_parameter, DW_AT_name("drvDataGet")
    1553                      .dwattr $C$DW$140, DW_AT_TI_symbol_name("_drvDataGet")
    1554                      .dwattr $C$DW$140, DW_AT_type(*$C$DW$T$155)
    1555                      .dwattr $C$DW$140, DW_AT_location[DW_OP_reg14]
    1556              
    1557              ;***************************************************************
    1558              ;* FNAME: _LDC161x_getClkDivs           FR SIZE:   2           *
    1559              ;*                                                             *
    1560              ;* FUNCTION ENVIRONMENT                                        *
    1561              ;*                                                             *
    1562              ;* FUNCTION PROPERTIES                                         *
    1563              ;*                            0 Parameter,  0 Auto,  2 SOE     *
    1564              ;***************************************************************
    1565              
    1566              _LDC161x_getClkDivs:
    1567              ;* AL    assigned to _drvData
    1568              $C$DW$141       .dwtag  DW_TAG_variable, DW_AT_name("drvData")
    1569                      .dwattr $C$DW$141, DW_AT_TI_symbol_name("_drvData")
    1570                      .dwattr $C$DW$141, DW_AT_type(*$C$DW$T$21)
    1571                      .dwattr $C$DW$141, DW_AT_location[DW_OP_reg0]
    1572              ;* AR4   assigned to _obj
    1573              $C$DW$142       .dwtag  DW_TAG_variable, DW_AT_name("obj")
    1574                      .dwattr $C$DW$142, DW_AT_TI_symbol_name("_obj")
    1575                      .dwattr $C$DW$142, DW_AT_type(*$C$DW$T$125)
    1576                      .dwattr $C$DW$142, DW_AT_location[DW_OP_reg12]
    1577              ;* AR5   assigned to _drvDataGet
    1578              $C$DW$143       .dwtag  DW_TAG_variable, DW_AT_name("drvDataGet")
    1579                      .dwattr $C$DW$143, DW_AT_TI_symbol_name("_drvDataGet")
    1580                      .dwattr $C$DW$143, DW_AT_type(*$C$DW$T$167)
    1581                      .dwattr $C$DW$143, DW_AT_location[DW_OP_reg14]
    1582              ;* AL    assigned to _Channel
    1583              $C$DW$144       .dwtag  DW_TAG_variable, DW_AT_name("Channel")
    1584                      .dwattr $C$DW$144, DW_AT_TI_symbol_name("_Channel")
    1585                      .dwattr $C$DW$144, DW_AT_type(*$C$DW$T$136)
    1586                      .dwattr $C$DW$144, DW_AT_location[DW_OP_reg0]
    1587              ;* AR4   assigned to _handle
    1588              $C$DW$145       .dwtag  DW_TAG_variable, DW_AT_name("handle")
    1589                      .dwattr $C$DW$145, DW_AT_TI_symbol_name("_handle")
    1590                      .dwattr $C$DW$145, DW_AT_type(*$C$DW$T$109)
    1591                      .dwattr $C$DW$145, DW_AT_location[DW_OP_reg12]
    1592                      .dwcfi  cfa_offset, -2
    1593                      .dwcfi  save_reg_to_mem, 26, 0
    1594                      .dwcfi  save_reg_to_reg, 78, 26
    1595                      .dwpsn  file "D:/Foc/my_motor/sw/drivers/drvic/ldc1612.c",line 971,column 3,is_stmt
    1596 00000162 5200          CMPB      AL,#0                 ; [CPU_] |971| 
    1597 00000163 B2BD          MOVL      *SP++,XAR1            ; [CPU_] 
    1598                      .dwcfi  save_reg_to_mem, 7, 2
TMS320C2000 Assembler PC v6.2.5 Mon Jul 10 09:53:39 2017

Tools Copyright (c) 1996-2014 Texas Instruments Incorporated
C:\Users\wmj\AppData\Local\Temp\1375610                              PAGE   31

    1599                      .dwcfi  cfa_offset, -4
    1600 00000164 EC12          BF        $C$L53,EQ             ; [CPU_] |971| 
    1601                      ; branchcc occurs ; [] |971| 
    1602 00000165 5201          CMPB      AL,#1                 ; [CPU_] |971| 
    1603 00000166 EC0D          BF        $C$L52,EQ             ; [CPU_] |971| 
    1604                      ; branchcc occurs ; [] |971| 
    1605 00000167 5202          CMPB      AL,#2                 ; [CPU_] |971| 
    1606 00000168 EC08          BF        $C$L51,EQ             ; [CPU_] |971| 
    1607                      ; branchcc occurs ; [] |971| 
    1608 00000169 5203          CMPB      AL,#3                 ; [CPU_] |971| 
    1609 0000016a EC03          BF        $C$L50,EQ             ; [CPU_] |971| 
    1610                      ; branchcc occurs ; [] |971| 
    1611                      .dwpsn  file "D:/Foc/my_motor/sw/drivers/drvic/ldc1612.c",line 969,column 20,is_stmt
    1612 0000016b 9A00          MOVB      AL,#0                 ; [CPU_] |969| 
    1613 0000016c 6F0F          B         $C$L55,UNC            ; [CPU_] 
    1614                      ; branch occurs ; [] 
    1615 0000016d       $C$L50:    
    1616                      .dwpsn  file "D:/Foc/my_motor/sw/drivers/drvic/ldc1612.c",line 982,column 13,is_stmt
    1617 0000016d D02A          MOVB      XAR0,#42              ; [CPU_] |982| 
    1618 0000016e D12B          MOVB      XAR1,#43              ; [CPU_] |982| 
    1619                      .dwpsn  file "D:/Foc/my_motor/sw/drivers/drvic/ldc1612.c",line 984,column 5,is_stmt
    1620 0000016f 6F09          B         $C$L54,UNC            ; [CPU_] |984| 
    1621                      ; branch occurs ; [] |984| 
    1622 00000170       $C$L51:    
    1623                      .dwpsn  file "D:/Foc/my_motor/sw/drivers/drvic/ldc1612.c",line 979,column 13,is_stmt
    1624 00000170 D028          MOVB      XAR0,#40              ; [CPU_] |979| 
    1625 00000171 D129          MOVB      XAR1,#41              ; [CPU_] |979| 
    1626                      .dwpsn  file "D:/Foc/my_motor/sw/drivers/drvic/ldc1612.c",line 981,column 5,is_stmt
    1627 00000172 6F06          B         $C$L54,UNC            ; [CPU_] |981| 
    1628                      ; branch occurs ; [] |981| 
    1629 00000173       $C$L52:    
    1630                      .dwpsn  file "D:/Foc/my_motor/sw/drivers/drvic/ldc1612.c",line 976,column 13,is_stmt
    1631 00000173 D026          MOVB      XAR0,#38              ; [CPU_] |976| 
    1632 00000174 D127          MOVB      XAR1,#39              ; [CPU_] |976| 
    1633                      .dwpsn  file "D:/Foc/my_motor/sw/drivers/drvic/ldc1612.c",line 978,column 5,is_stmt
    1634 00000175 6F03          B         $C$L54,UNC            ; [CPU_] |978| 
    1635                      ; branch occurs ; [] |978| 
    1636 00000176       $C$L53:    
    1637                      .dwpsn  file "D:/Foc/my_motor/sw/drivers/drvic/ldc1612.c",line 973,column 13,is_stmt
    1638 00000176 D024          MOVB      XAR0,#36              ; [CPU_] |973| 
    1639 00000177 D125          MOVB      XAR1,#37              ; [CPU_] |973| 
    1640 00000178       $C$L54:    
    1641 00000178 5603          MOV       ACC,*+XAR4[AR1] << #12 ; [CPU_] |973| 
         00000179 0C9C 
    1642 0000017a CA94          OR        AL,*+XAR4[AR0]        ; [CPU_] |973| 
    1643 0000017b       $C$L55:    
    1644                      .dwpsn  file "D:/Foc/my_motor/sw/drivers/drvic/ldc1612.c",line 988,column 3,is_stmt
    1645 0000017b 96C5          MOV       *+XAR5[0],AL          ; [CPU_] |988| 
    1646 0000017c 8BBE          MOVL      XAR1,*--SP            ; [CPU_] 
    1647                      .dwcfi  cfa_offset, -2
    1648                      .dwcfi  restore_reg, 7
    1649              $C$DW$146       .dwtag  DW_TAG_TI_branch
    1650                      .dwattr $C$DW$146, DW_AT_low_pc(0x00)
    1651                      .dwattr $C$DW$146, DW_AT_TI_return
    1652 0000017d 0006          LRETR     ; [CPU_] 
TMS320C2000 Assembler PC v6.2.5 Mon Jul 10 09:53:39 2017

Tools Copyright (c) 1996-2014 Texas Instruments Incorporated
C:\Users\wmj\AppData\Local\Temp\1375610                              PAGE   32

    1653                      ; return occurs ; [] 
    1654                      .dwattr $C$DW$137, DW_AT_TI_end_file("D:/Foc/my_motor/sw/drivers/drvic/ldc1612.c")
    1655                      .dwattr $C$DW$137, DW_AT_TI_end_line(0x3df)
    1656                      .dwattr $C$DW$137, DW_AT_TI_end_column(0x01)
    1657                      .dwendentry
    1658                      .dwendtag $C$DW$137
    1659              
    1660 0000017e               .sect   ".text"
    1661                      .clink
    1662                      .global _LDC161x_writeClkDivs
    1663              
    1664              $C$DW$147       .dwtag  DW_TAG_subprogram, DW_AT_name("LDC161x_writeClkDivs")
    1665                      .dwattr $C$DW$147, DW_AT_low_pc(_LDC161x_writeClkDivs)
    1666                      .dwattr $C$DW$147, DW_AT_high_pc(0x00)
    1667                      .dwattr $C$DW$147, DW_AT_TI_symbol_name("_LDC161x_writeClkDivs")
    1668                      .dwattr $C$DW$147, DW_AT_external
    1669                      .dwattr $C$DW$147, DW_AT_TI_begin_file("D:/Foc/my_motor/sw/drivers/drvic/ldc1612.c")
    1670                      .dwattr $C$DW$147, DW_AT_TI_begin_line(0x1fc)
    1671                      .dwattr $C$DW$147, DW_AT_TI_begin_column(0x06)
    1672                      .dwattr $C$DW$147, DW_AT_TI_max_frame_size(-4)
    1673                      .dwpsn  file "D:/Foc/my_motor/sw/drivers/drvic/ldc1612.c",line 509,column 1,is_stmt,address _LDC161x_
    1674              
    1675                      .dwfde $C$DW$CIE, _LDC161x_writeClkDivs
    1676              $C$DW$148       .dwtag  DW_TAG_formal_parameter, DW_AT_name("handle")
    1677                      .dwattr $C$DW$148, DW_AT_TI_symbol_name("_handle")
    1678                      .dwattr $C$DW$148, DW_AT_type(*$C$DW$T$120)
    1679                      .dwattr $C$DW$148, DW_AT_location[DW_OP_reg12]
    1680              $C$DW$149       .dwtag  DW_TAG_formal_parameter, DW_AT_name("ChannelNum")
    1681                      .dwattr $C$DW$149, DW_AT_TI_symbol_name("_ChannelNum")
    1682                      .dwattr $C$DW$149, DW_AT_type(*$C$DW$T$96)
    1683                      .dwattr $C$DW$149, DW_AT_location[DW_OP_reg0]
    1684              
    1685              ;***************************************************************
    1686              ;* FNAME: _LDC161x_writeClkDivs         FR SIZE:   2           *
    1687              ;*                                                             *
    1688              ;* FUNCTION ENVIRONMENT                                        *
    1689              ;*                                                             *
    1690              ;* FUNCTION PROPERTIES                                         *
    1691              ;*                            0 Parameter,  1 Auto,  0 SOE     *
    1692              ;***************************************************************
    1693              
    1694              _LDC161x_writeClkDivs:
    1695              ;* AL    assigned to _ChNum
    1696              $C$DW$150       .dwtag  DW_TAG_variable, DW_AT_name("ChNum")
    1697                      .dwattr $C$DW$150, DW_AT_TI_symbol_name("_ChNum")
    1698                      .dwattr $C$DW$150, DW_AT_type(*$C$DW$T$21)
    1699                      .dwattr $C$DW$150, DW_AT_location[DW_OP_reg0]
    1700              ;* AR7   assigned to _drvRegName
    1701              $C$DW$151       .dwtag  DW_TAG_variable, DW_AT_name("drvRegName")
    1702                      .dwattr $C$DW$151, DW_AT_TI_symbol_name("_drvRegName")
    1703                      .dwattr $C$DW$151, DW_AT_type(*$C$DW$T$93)
    1704                      .dwattr $C$DW$151, DW_AT_location[DW_OP_reg18]
    1705              $C$DW$152       .dwtag  DW_TAG_variable, DW_AT_name("drvDataGet")
    1706                      .dwattr $C$DW$152, DW_AT_TI_symbol_name("_drvDataGet")
    1707                      .dwattr $C$DW$152, DW_AT_type(*$C$DW$T$21)
TMS320C2000 Assembler PC v6.2.5 Mon Jul 10 09:53:39 2017

Tools Copyright (c) 1996-2014 Texas Instruments Incorporated
C:\Users\wmj\AppData\Local\Temp\1375610                              PAGE   33

    1708                      .dwattr $C$DW$152, DW_AT_location[DW_OP_breg20 -1]
    1709              ;* AL    assigned to _ChannelNum
    1710              $C$DW$153       .dwtag  DW_TAG_variable, DW_AT_name("ChannelNum")
    1711                      .dwattr $C$DW$153, DW_AT_TI_symbol_name("_ChannelNum")
    1712                      .dwattr $C$DW$153, DW_AT_type(*$C$DW$T$101)
    1713                      .dwattr $C$DW$153, DW_AT_location[DW_OP_reg0]
    1714              ;* AR6   assigned to _handle
    1715              $C$DW$154       .dwtag  DW_TAG_variable, DW_AT_name("handle")
    1716                      .dwattr $C$DW$154, DW_AT_TI_symbol_name("_handle")
    1717                      .dwattr $C$DW$154, DW_AT_type(*$C$DW$T$121)
    1718                      .dwattr $C$DW$154, DW_AT_location[DW_OP_reg16]
    1719                      .dwcfi  cfa_offset, -2
    1720                      .dwcfi  save_reg_to_mem, 26, 0
    1721                      .dwcfi  save_reg_to_reg, 78, 26
    1722 0000017e FE02          ADDB      SP,#2                 ; [CPU_U] 
    1723                      .dwcfi  cfa_offset, -4
    1724                      .dwpsn  file "D:/Foc/my_motor/sw/drivers/drvic/ldc1612.c",line 515,column 3,is_stmt
    1725 0000017f 5200          CMPB      AL,#0                 ; [CPU_] |515| 
    1726                      .dwpsn  file "D:/Foc/my_motor/sw/drivers/drvic/ldc1612.c",line 509,column 1,is_stmt
    1727 00000180 C4A4          MOVL      XAR6,XAR4             ; [CPU_] |509| 
    1728                      .dwpsn  file "D:/Foc/my_motor/sw/drivers/drvic/ldc1612.c",line 515,column 3,is_stmt
    1729 00000181 EC10          BF        $C$L58,EQ             ; [CPU_] |515| 
    1730                      ; branchcc occurs ; [] |515| 
    1731 00000182 5201          CMPB      AL,#1                 ; [CPU_] |515| 
    1732 00000183 EC0B          BF        $C$L57,EQ             ; [CPU_] |515| 
    1733                      ; branchcc occurs ; [] |515| 
    1734 00000184 5202          CMPB      AL,#2                 ; [CPU_] |515| 
    1735 00000185 EC06          BF        $C$L56,EQ             ; [CPU_] |515| 
    1736                      ; branchcc occurs ; [] |515| 
    1737 00000186 5203          CMPB      AL,#3                 ; [CPU_] |515| 
    1738 00000187 ED0C          BF        $C$L59,NEQ            ; [CPU_] |515| 
    1739                      ; branchcc occurs ; [] |515| 
    1740                      .dwpsn  file "D:/Foc/my_motor/sw/drivers/drvic/ldc1612.c",line 526,column 29,is_stmt
    1741 00000188 B617          MOVB      XAR7,#23              ; [CPU_] |526| 
    1742                      .dwpsn  file "D:/Foc/my_motor/sw/drivers/drvic/ldc1612.c",line 527,column 29,is_stmt
    1743 00000189 9A03          MOVB      AL,#3                 ; [CPU_] |527| 
    1744                      .dwpsn  file "D:/Foc/my_motor/sw/drivers/drvic/ldc1612.c",line 528,column 7,is_stmt
    1745 0000018a 6F09          B         $C$L59,UNC            ; [CPU_] |528| 
    1746                      ; branch occurs ; [] |528| 
    1747 0000018b       $C$L56:    
    1748                      .dwpsn  file "D:/Foc/my_motor/sw/drivers/drvic/ldc1612.c",line 523,column 29,is_stmt
    1749 0000018b B616          MOVB      XAR7,#22              ; [CPU_] |523| 
    1750                      .dwpsn  file "D:/Foc/my_motor/sw/drivers/drvic/ldc1612.c",line 524,column 29,is_stmt
    1751 0000018c 9A02          MOVB      AL,#2                 ; [CPU_] |524| 
    1752                      .dwpsn  file "D:/Foc/my_motor/sw/drivers/drvic/ldc1612.c",line 525,column 7,is_stmt
    1753 0000018d 6F06          B         $C$L59,UNC            ; [CPU_] |525| 
    1754                      ; branch occurs ; [] |525| 
    1755 0000018e       $C$L57:    
    1756                      .dwpsn  file "D:/Foc/my_motor/sw/drivers/drvic/ldc1612.c",line 520,column 29,is_stmt
    1757 0000018e B615          MOVB      XAR7,#21              ; [CPU_] |520| 
    1758                      .dwpsn  file "D:/Foc/my_motor/sw/drivers/drvic/ldc1612.c",line 521,column 29,is_stmt
    1759 0000018f 9A01          MOVB      AL,#1                 ; [CPU_] |521| 
    1760                      .dwpsn  file "D:/Foc/my_motor/sw/drivers/drvic/ldc1612.c",line 522,column 7,is_stmt
    1761 00000190 6F03          B         $C$L59,UNC            ; [CPU_] |522| 
    1762                      ; branch occurs ; [] |522| 
TMS320C2000 Assembler PC v6.2.5 Mon Jul 10 09:53:39 2017

Tools Copyright (c) 1996-2014 Texas Instruments Incorporated
C:\Users\wmj\AppData\Local\Temp\1375610                              PAGE   34

    1763 00000191       $C$L58:    
    1764                      .dwpsn  file "D:/Foc/my_motor/sw/drivers/drvic/ldc1612.c",line 517,column 29,is_stmt
    1765 00000191 B614          MOVB      XAR7,#20              ; [CPU_] |517| 
    1766                      .dwpsn  file "D:/Foc/my_motor/sw/drivers/drvic/ldc1612.c",line 518,column 29,is_stmt
    1767 00000192 9A00          MOVB      AL,#0                 ; [CPU_] |518| 
    1768 00000193       $C$L59:    
    1769                      .dwpsn  file "D:/Foc/my_motor/sw/drivers/drvic/ldc1612.c",line 532,column 3,is_stmt
    1770 00000193 5DAD          MOVZ      AR5,SP                ; [CPU_U] |532| 
    1771 00000194 8AE6          MOVL      XAR4,*+XAR6[4]        ; [CPU_] |532| 
    1772 00000195 DD81          SUBB      XAR5,#1               ; [CPU_U] |532| 
    1773              $C$DW$155       .dwtag  DW_TAG_TI_branch
    1774                      .dwattr $C$DW$155, DW_AT_low_pc(0x00)
    1775                      .dwattr $C$DW$155, DW_AT_name("_LDC161x_getClkDivs")
    1776                      .dwattr $C$DW$155, DW_AT_TI_call
    1777 00000196 7640'         LCR       #_LDC161x_getClkDivs  ; [CPU_] |532| 
         00000197 0162 
    1778                      ; call occurs [#_LDC161x_getClkDivs] ; [] |532| 
    1779                      .dwpsn  file "D:/Foc/my_motor/sw/drivers/drvic/ldc1612.c",line 533,column 3,is_stmt
    1780 00000198 9341          MOV       AH,*-SP[1]            ; [CPU_] |533| 
    1781 00000199 92A7          MOV       AL,AR7                ; [CPU_] |533| 
    1782 0000019a 8AA6          MOVL      XAR4,XAR6             ; [CPU_] |533| 
    1783              $C$DW$156       .dwtag  DW_TAG_TI_branch
    1784                      .dwattr $C$DW$156, DW_AT_low_pc(0x00)
    1785                      .dwattr $C$DW$156, DW_AT_name("_LDC161x_writeI2c")
    1786                      .dwattr $C$DW$156, DW_AT_TI_call
    1787 0000019b 7640'         LCR       #_LDC161x_writeI2c    ; [CPU_] |533| 
         0000019c 0014 
    1788                      ; call occurs [#_LDC161x_writeI2c] ; [] |533| 
    1789 0000019d FE82          SUBB      SP,#2                 ; [CPU_U] 
    1790                      .dwcfi  cfa_offset, -2
    1791              $C$DW$157       .dwtag  DW_TAG_TI_branch
    1792                      .dwattr $C$DW$157, DW_AT_low_pc(0x00)
    1793                      .dwattr $C$DW$157, DW_AT_TI_return
    1794 0000019e 0006          LRETR     ; [CPU_] 
    1795                      ; return occurs ; [] 
    1796                      .dwattr $C$DW$147, DW_AT_TI_end_file("D:/Foc/my_motor/sw/drivers/drvic/ldc1612.c")
    1797                      .dwattr $C$DW$147, DW_AT_TI_end_line(0x218)
    1798                      .dwattr $C$DW$147, DW_AT_TI_end_column(0x01)
    1799                      .dwendentry
    1800                      .dwendtag $C$DW$147
    1801              
    1802 0000019f               .sect   ".text"
    1803                      .clink
    1804                      .global _LDC161x_setStatus
    1805              
    1806              $C$DW$158       .dwtag  DW_TAG_subprogram, DW_AT_name("LDC161x_setStatus")
    1807                      .dwattr $C$DW$158, DW_AT_low_pc(_LDC161x_setStatus)
    1808                      .dwattr $C$DW$158, DW_AT_high_pc(0x00)
    1809                      .dwattr $C$DW$158, DW_AT_TI_symbol_name("_LDC161x_setStatus")
    1810                      .dwattr $C$DW$158, DW_AT_external
    1811                      .dwattr $C$DW$158, DW_AT_TI_begin_file("D:/Foc/my_motor/sw/drivers/drvic/ldc1612.c")
    1812                      .dwattr $C$DW$158, DW_AT_TI_begin_line(0x2ea)
    1813                      .dwattr $C$DW$158, DW_AT_TI_begin_column(0x06)
    1814                      .dwattr $C$DW$158, DW_AT_TI_max_frame_size(-2)
    1815                      .dwpsn  file "D:/Foc/my_motor/sw/drivers/drvic/ldc1612.c",line 747,column 1,is_stmt,address _LDC161x_
TMS320C2000 Assembler PC v6.2.5 Mon Jul 10 09:53:39 2017

Tools Copyright (c) 1996-2014 Texas Instruments Incorporated
C:\Users\wmj\AppData\Local\Temp\1375610                              PAGE   35

    1816              
    1817                      .dwfde $C$DW$CIE, _LDC161x_setStatus
    1818              $C$DW$159       .dwtag  DW_TAG_formal_parameter, DW_AT_name("handle")
    1819                      .dwattr $C$DW$159, DW_AT_TI_symbol_name("_handle")
    1820                      .dwattr $C$DW$159, DW_AT_type(*$C$DW$T$47)
    1821                      .dwattr $C$DW$159, DW_AT_location[DW_OP_reg12]
    1822              $C$DW$160       .dwtag  DW_TAG_formal_parameter, DW_AT_name("drvData")
    1823                      .dwattr $C$DW$160, DW_AT_TI_symbol_name("_drvData")
    1824                      .dwattr $C$DW$160, DW_AT_type(*$C$DW$T$21)
    1825                      .dwattr $C$DW$160, DW_AT_location[DW_OP_reg0]
    1826              
    1827              ;***************************************************************
    1828              ;* FNAME: _LDC161x_setStatus            FR SIZE:   0           *
    1829              ;*                                                             *
    1830              ;* FUNCTION ENVIRONMENT                                        *
    1831              ;*                                                             *
    1832              ;* FUNCTION PROPERTIES                                         *
    1833              ;*                            0 Parameter,  0 Auto,  0 SOE     *
    1834              ;***************************************************************
    1835              
    1836              _LDC161x_setStatus:
    1837              ;* AR4   assigned to _handle
    1838              $C$DW$161       .dwtag  DW_TAG_variable, DW_AT_name("handle")
    1839                      .dwattr $C$DW$161, DW_AT_TI_symbol_name("_handle")
    1840                      .dwattr $C$DW$161, DW_AT_type(*$C$DW$T$109)
    1841                      .dwattr $C$DW$161, DW_AT_location[DW_OP_reg12]
    1842              ;* AL    assigned to _drvData
    1843              $C$DW$162       .dwtag  DW_TAG_variable, DW_AT_name("drvData")
    1844                      .dwattr $C$DW$162, DW_AT_TI_symbol_name("_drvData")
    1845                      .dwattr $C$DW$162, DW_AT_type(*$C$DW$T$136)
    1846                      .dwattr $C$DW$162, DW_AT_location[DW_OP_reg0]
    1847                      .dwcfi  cfa_offset, -2
    1848                      .dwcfi  save_reg_to_mem, 26, 0
    1849                      .dwcfi  save_reg_to_reg, 78, 26
    1850                      .dwpsn  file "D:/Foc/my_motor/sw/drivers/drvic/ldc1612.c",line 750,column 3,is_stmt
    1851 0000019f D02C          MOVB      XAR0,#44              ; [CPU_] |750| 
    1852 000001a0 CDA9          AND       AH,AL,#0x0001         ; [CPU_] |750| 
         000001a1 0001 
    1853 000001a2 9794          MOV       *+XAR4[AR0],AH        ; [CPU_] |750| 
    1854                      .dwpsn  file "D:/Foc/my_motor/sw/drivers/drvic/ldc1612.c",line 751,column 3,is_stmt
    1855 000001a3 D02D          MOVB      XAR0,#45              ; [CPU_] |751| 
    1856 000001a4 CDA9          AND       AH,AL,#0x0002         ; [CPU_] |751| 
         000001a5 0002 
    1857 000001a6 9794          MOV       *+XAR4[AR0],AH        ; [CPU_] |751| 
    1858                      .dwpsn  file "D:/Foc/my_motor/sw/drivers/drvic/ldc1612.c",line 752,column 3,is_stmt
    1859 000001a7 D02E          MOVB      XAR0,#46              ; [CPU_] |752| 
    1860 000001a8 CDA9          AND       AH,AL,#0x0004         ; [CPU_] |752| 
         000001a9 0004 
    1861 000001aa 9794          MOV       *+XAR4[AR0],AH        ; [CPU_] |752| 
    1862                      .dwpsn  file "D:/Foc/my_motor/sw/drivers/drvic/ldc1612.c",line 753,column 3,is_stmt
    1863 000001ab D02F          MOVB      XAR0,#47              ; [CPU_] |753| 
    1864 000001ac CDA9          AND       AH,AL,#0x0008         ; [CPU_] |753| 
         000001ad 0008 
    1865 000001ae 9794          MOV       *+XAR4[AR0],AH        ; [CPU_] |753| 
    1866                      .dwpsn  file "D:/Foc/my_motor/sw/drivers/drvic/ldc1612.c",line 754,column 3,is_stmt
TMS320C2000 Assembler PC v6.2.5 Mon Jul 10 09:53:39 2017

Tools Copyright (c) 1996-2014 Texas Instruments Incorporated
C:\Users\wmj\AppData\Local\Temp\1375610                              PAGE   36

    1867 000001af D030          MOVB      XAR0,#48              ; [CPU_] |754| 
    1868 000001b0 CDA9          AND       AH,AL,#0x0040         ; [CPU_] |754| 
         000001b1 0040 
    1869 000001b2 9794          MOV       *+XAR4[AR0],AH        ; [CPU_] |754| 
    1870                      .dwpsn  file "D:/Foc/my_motor/sw/drivers/drvic/ldc1612.c",line 755,column 3,is_stmt
    1871 000001b3 D031          MOVB      XAR0,#49              ; [CPU_] |755| 
    1872 000001b4 CDA9          AND       AH,AL,#0x0100         ; [CPU_] |755| 
         000001b5 0100 
    1873 000001b6 9794          MOV       *+XAR4[AR0],AH        ; [CPU_] |755| 
    1874                      .dwpsn  file "D:/Foc/my_motor/sw/drivers/drvic/ldc1612.c",line 756,column 3,is_stmt
    1875 000001b7 D032          MOVB      XAR0,#50              ; [CPU_] |756| 
    1876 000001b8 CDA9          AND       AH,AL,#0x0200         ; [CPU_] |756| 
         000001b9 0200 
    1877 000001ba 9794          MOV       *+XAR4[AR0],AH        ; [CPU_] |756| 
    1878                      .dwpsn  file "D:/Foc/my_motor/sw/drivers/drvic/ldc1612.c",line 757,column 3,is_stmt
    1879 000001bb D033          MOVB      XAR0,#51              ; [CPU_] |757| 
    1880 000001bc CDA9          AND       AH,AL,#0x0400         ; [CPU_] |757| 
         000001bd 0400 
    1881 000001be 9794          MOV       *+XAR4[AR0],AH        ; [CPU_] |757| 
    1882                      .dwpsn  file "D:/Foc/my_motor/sw/drivers/drvic/ldc1612.c",line 758,column 3,is_stmt
    1883 000001bf D034          MOVB      XAR0,#52              ; [CPU_] |758| 
    1884 000001c0 CDA9          AND       AH,AL,#0x0800         ; [CPU_] |758| 
         000001c1 0800 
    1885 000001c2 9794          MOV       *+XAR4[AR0],AH        ; [CPU_] |758| 
    1886                      .dwpsn  file "D:/Foc/my_motor/sw/drivers/drvic/ldc1612.c",line 759,column 3,is_stmt
    1887 000001c3 D035          MOVB      XAR0,#53              ; [CPU_] |759| 
    1888 000001c4 CDA9          AND       AH,AL,#0x1000         ; [CPU_] |759| 
         000001c5 1000 
    1889 000001c6 9794          MOV       *+XAR4[AR0],AH        ; [CPU_] |759| 
    1890                      .dwpsn  file "D:/Foc/my_motor/sw/drivers/drvic/ldc1612.c",line 760,column 3,is_stmt
    1891 000001c7 D036          MOVB      XAR0,#54              ; [CPU_] |760| 
    1892 000001c8 CDA9          AND       AH,AL,#0x2000         ; [CPU_] |760| 
         000001c9 2000 
    1893 000001ca 9794          MOV       *+XAR4[AR0],AH        ; [CPU_] |760| 
    1894                      .dwpsn  file "D:/Foc/my_motor/sw/drivers/drvic/ldc1612.c",line 761,column 3,is_stmt
    1895 000001cb CDA9          AND       AH,AL,#0x4000         ; [CPU_] |761| 
         000001cc 4000 
    1896 000001cd D037          MOVB      XAR0,#55              ; [CPU_] |761| 
    1897                      .dwpsn  file "D:/Foc/my_motor/sw/drivers/drvic/ldc1612.c",line 762,column 3,is_stmt
    1898 000001ce CCA9          AND       AL,AL,#0x8000         ; [CPU_] |762| 
         000001cf 8000 
    1899                      .dwpsn  file "D:/Foc/my_motor/sw/drivers/drvic/ldc1612.c",line 761,column 3,is_stmt
    1900 000001d0 9794          MOV       *+XAR4[AR0],AH        ; [CPU_] |761| 
    1901                      .dwpsn  file "D:/Foc/my_motor/sw/drivers/drvic/ldc1612.c",line 762,column 3,is_stmt
    1902 000001d1 D038          MOVB      XAR0,#56              ; [CPU_] |762| 
    1903 000001d2 9694          MOV       *+XAR4[AR0],AL        ; [CPU_] |762| 
    1904              $C$DW$163       .dwtag  DW_TAG_TI_branch
    1905                      .dwattr $C$DW$163, DW_AT_low_pc(0x00)
    1906                      .dwattr $C$DW$163, DW_AT_TI_return
    1907 000001d3 0006          LRETR     ; [CPU_] 
    1908                      ; return occurs ; [] 
    1909                      .dwattr $C$DW$158, DW_AT_TI_end_file("D:/Foc/my_motor/sw/drivers/drvic/ldc1612.c")
    1910                      .dwattr $C$DW$158, DW_AT_TI_end_line(0x2fd)
    1911                      .dwattr $C$DW$158, DW_AT_TI_end_column(0x01)
    1912                      .dwendentry
TMS320C2000 Assembler PC v6.2.5 Mon Jul 10 09:53:39 2017

Tools Copyright (c) 1996-2014 Texas Instruments Incorporated
C:\Users\wmj\AppData\Local\Temp\1375610                              PAGE   37

    1913                      .dwendtag $C$DW$158
    1914              
    1915 000001d4               .sect   ".text"
    1916                      .clink
    1917                      .global _LDC161x_setSettleCnt
    1918              
    1919              $C$DW$164       .dwtag  DW_TAG_subprogram, DW_AT_name("LDC161x_setSettleCnt")
    1920                      .dwattr $C$DW$164, DW_AT_low_pc(_LDC161x_setSettleCnt)
    1921                      .dwattr $C$DW$164, DW_AT_high_pc(0x00)
    1922                      .dwattr $C$DW$164, DW_AT_TI_symbol_name("_LDC161x_setSettleCnt")
    1923                      .dwattr $C$DW$164, DW_AT_external
    1924                      .dwattr $C$DW$164, DW_AT_TI_begin_file("D:/Foc/my_motor/sw/drivers/drvic/ldc1612.c")
    1925                      .dwattr $C$DW$164, DW_AT_TI_begin_line(0x2bb)
    1926                      .dwattr $C$DW$164, DW_AT_TI_begin_column(0x06)
    1927                      .dwattr $C$DW$164, DW_AT_TI_max_frame_size(-2)
    1928                      .dwpsn  file "D:/Foc/my_motor/sw/drivers/drvic/ldc1612.c",line 700,column 1,is_stmt,address _LDC161x_
    1929              
    1930                      .dwfde $C$DW$CIE, _LDC161x_setSettleCnt
    1931              $C$DW$165       .dwtag  DW_TAG_formal_parameter, DW_AT_name("handle")
    1932                      .dwattr $C$DW$165, DW_AT_TI_symbol_name("_handle")
    1933                      .dwattr $C$DW$165, DW_AT_type(*$C$DW$T$47)
    1934                      .dwattr $C$DW$165, DW_AT_location[DW_OP_reg12]
    1935              $C$DW$166       .dwtag  DW_TAG_formal_parameter, DW_AT_name("Channel")
    1936                      .dwattr $C$DW$166, DW_AT_TI_symbol_name("_Channel")
    1937                      .dwattr $C$DW$166, DW_AT_type(*$C$DW$T$136)
    1938                      .dwattr $C$DW$166, DW_AT_location[DW_OP_reg0]
    1939              $C$DW$167       .dwtag  DW_TAG_formal_parameter, DW_AT_name("drvData")
    1940                      .dwattr $C$DW$167, DW_AT_TI_symbol_name("_drvData")
    1941                      .dwattr $C$DW$167, DW_AT_type(*$C$DW$T$21)
    1942                      .dwattr $C$DW$167, DW_AT_location[DW_OP_reg1]
    1943              
    1944              ;***************************************************************
    1945              ;* FNAME: _LDC161x_setSettleCnt         FR SIZE:   0           *
    1946              ;*                                                             *
    1947              ;* FUNCTION ENVIRONMENT                                        *
    1948              ;*                                                             *
    1949              ;* FUNCTION PROPERTIES                                         *
    1950              ;*                            0 Parameter,  0 Auto,  0 SOE     *
    1951              ;***************************************************************
    1952              
    1953              _LDC161x_setSettleCnt:
    1954              ;* AR4   assigned to _obj
    1955              $C$DW$168       .dwtag  DW_TAG_variable, DW_AT_name("obj")
    1956                      .dwattr $C$DW$168, DW_AT_TI_symbol_name("_obj")
    1957                      .dwattr $C$DW$168, DW_AT_type(*$C$DW$T$125)
    1958                      .dwattr $C$DW$168, DW_AT_location[DW_OP_reg12]
    1959              ;* AH    assigned to _drvData
    1960              $C$DW$169       .dwtag  DW_TAG_variable, DW_AT_name("drvData")
    1961                      .dwattr $C$DW$169, DW_AT_TI_symbol_name("_drvData")
    1962                      .dwattr $C$DW$169, DW_AT_type(*$C$DW$T$136)
    1963                      .dwattr $C$DW$169, DW_AT_location[DW_OP_reg1]
    1964              ;* AL    assigned to _Channel
    1965              $C$DW$170       .dwtag  DW_TAG_variable, DW_AT_name("Channel")
    1966                      .dwattr $C$DW$170, DW_AT_TI_symbol_name("_Channel")
    1967                      .dwattr $C$DW$170, DW_AT_type(*$C$DW$T$136)
TMS320C2000 Assembler PC v6.2.5 Mon Jul 10 09:53:39 2017

Tools Copyright (c) 1996-2014 Texas Instruments Incorporated
C:\Users\wmj\AppData\Local\Temp\1375610                              PAGE   38

    1968                      .dwattr $C$DW$170, DW_AT_location[DW_OP_reg0]
    1969              ;* AR4   assigned to _handle
    1970              $C$DW$171       .dwtag  DW_TAG_variable, DW_AT_name("handle")
    1971                      .dwattr $C$DW$171, DW_AT_TI_symbol_name("_handle")
    1972                      .dwattr $C$DW$171, DW_AT_type(*$C$DW$T$109)
    1973                      .dwattr $C$DW$171, DW_AT_location[DW_OP_reg12]
    1974                      .dwcfi  cfa_offset, -2
    1975                      .dwcfi  save_reg_to_mem, 26, 0
    1976                      .dwcfi  save_reg_to_reg, 78, 26
    1977                      .dwpsn  file "D:/Foc/my_motor/sw/drivers/drvic/ldc1612.c",line 703,column 3,is_stmt
    1978 000001d4 5200          CMPB      AL,#0                 ; [CPU_] |703| 
    1979 000001d5 EC0F          BF        $C$L62,EQ             ; [CPU_] |703| 
    1980                      ; branchcc occurs ; [] |703| 
    1981 000001d6 5201          CMPB      AL,#1                 ; [CPU_] |703| 
    1982 000001d7 EC0B          BF        $C$L61,EQ             ; [CPU_] |703| 
    1983                      ; branchcc occurs ; [] |703| 
    1984 000001d8 5202          CMPB      AL,#2                 ; [CPU_] |703| 
    1985 000001d9 EC07          BF        $C$L60,EQ             ; [CPU_] |703| 
    1986                      ; branchcc occurs ; [] |703| 
    1987 000001da 5203          CMPB      AL,#3                 ; [CPU_] |703| 
    1988                      .dwpsn  file "D:/Foc/my_motor/sw/drivers/drvic/ldc1612.c",line 708,column 14,is_stmt
    1989 000001db 56B1          MOVB      XAR0,#35,EQ           ; [CPU_] |708| 
         000001dc 23A0 
    1990 000001dd 562B          MOV       *+XAR4[AR0],AH,EQ     ; [CPU_] |708| 
         000001de 0194 
    1991              $C$DW$172       .dwtag  DW_TAG_TI_branch
    1992                      .dwattr $C$DW$172, DW_AT_low_pc(0x00)
    1993                      .dwattr $C$DW$172, DW_AT_TI_return
    1994 000001df 0006          LRETR     ; [CPU_] 
    1995                      ; return occurs ; [] 
    1996 000001e0       $C$L60:    
    1997                      .dwpsn  file "D:/Foc/my_motor/sw/drivers/drvic/ldc1612.c",line 707,column 14,is_stmt
    1998 000001e0 D022          MOVB      XAR0,#34              ; [CPU_] |707| 
    1999                      .dwpsn  file "D:/Foc/my_motor/sw/drivers/drvic/ldc1612.c",line 707,column 59,is_stmt
    2000 000001e1 6F04          B         $C$L63,UNC            ; [CPU_] |707| 
    2001                      ; branch occurs ; [] |707| 
    2002 000001e2       $C$L61:    
    2003                      .dwpsn  file "D:/Foc/my_motor/sw/drivers/drvic/ldc1612.c",line 706,column 14,is_stmt
    2004 000001e2 D021          MOVB      XAR0,#33              ; [CPU_] |706| 
    2005                      .dwpsn  file "D:/Foc/my_motor/sw/drivers/drvic/ldc1612.c",line 706,column 59,is_stmt
    2006 000001e3 6F02          B         $C$L63,UNC            ; [CPU_] |706| 
    2007                      ; branch occurs ; [] |706| 
    2008 000001e4       $C$L62:    
    2009                      .dwpsn  file "D:/Foc/my_motor/sw/drivers/drvic/ldc1612.c",line 705,column 14,is_stmt
    2010 000001e4 D020          MOVB      XAR0,#32              ; [CPU_] |705| 
    2011 000001e5       $C$L63:    
    2012 000001e5 9794          MOV       *+XAR4[AR0],AH        ; [CPU_] |705| 
    2013              $C$DW$173       .dwtag  DW_TAG_TI_branch
    2014                      .dwattr $C$DW$173, DW_AT_low_pc(0x00)
    2015                      .dwattr $C$DW$173, DW_AT_TI_return
    2016 000001e6 0006          LRETR     ; [CPU_] 
    2017                      ; return occurs ; [] 
    2018                      .dwattr $C$DW$164, DW_AT_TI_end_file("D:/Foc/my_motor/sw/drivers/drvic/ldc1612.c")
    2019                      .dwattr $C$DW$164, DW_AT_TI_end_line(0x2c8)
    2020                      .dwattr $C$DW$164, DW_AT_TI_end_column(0x01)
TMS320C2000 Assembler PC v6.2.5 Mon Jul 10 09:53:39 2017

Tools Copyright (c) 1996-2014 Texas Instruments Incorporated
C:\Users\wmj\AppData\Local\Temp\1375610                              PAGE   39

    2021                      .dwendentry
    2022                      .dwendtag $C$DW$164
    2023              
    2024 000001e7               .sect   ".text"
    2025                      .clink
    2026                      .global _LDC161x_setRcount
    2027              
    2028              $C$DW$174       .dwtag  DW_TAG_subprogram, DW_AT_name("LDC161x_setRcount")
    2029                      .dwattr $C$DW$174, DW_AT_low_pc(_LDC161x_setRcount)
    2030                      .dwattr $C$DW$174, DW_AT_high_pc(0x00)
    2031                      .dwattr $C$DW$174, DW_AT_TI_symbol_name("_LDC161x_setRcount")
    2032                      .dwattr $C$DW$174, DW_AT_external
    2033                      .dwattr $C$DW$174, DW_AT_TI_begin_file("D:/Foc/my_motor/sw/drivers/drvic/ldc1612.c")
    2034                      .dwattr $C$DW$174, DW_AT_TI_begin_line(0x293)
    2035                      .dwattr $C$DW$174, DW_AT_TI_begin_column(0x06)
    2036                      .dwattr $C$DW$174, DW_AT_TI_max_frame_size(-2)
    2037                      .dwpsn  file "D:/Foc/my_motor/sw/drivers/drvic/ldc1612.c",line 660,column 1,is_stmt,address _LDC161x_
    2038              
    2039                      .dwfde $C$DW$CIE, _LDC161x_setRcount
    2040              $C$DW$175       .dwtag  DW_TAG_formal_parameter, DW_AT_name("handle")
    2041                      .dwattr $C$DW$175, DW_AT_TI_symbol_name("_handle")
    2042                      .dwattr $C$DW$175, DW_AT_type(*$C$DW$T$47)
    2043                      .dwattr $C$DW$175, DW_AT_location[DW_OP_reg12]
    2044              $C$DW$176       .dwtag  DW_TAG_formal_parameter, DW_AT_name("Channel")
    2045                      .dwattr $C$DW$176, DW_AT_TI_symbol_name("_Channel")
    2046                      .dwattr $C$DW$176, DW_AT_type(*$C$DW$T$136)
    2047                      .dwattr $C$DW$176, DW_AT_location[DW_OP_reg0]
    2048              $C$DW$177       .dwtag  DW_TAG_formal_parameter, DW_AT_name("drvData")
    2049                      .dwattr $C$DW$177, DW_AT_TI_symbol_name("_drvData")
    2050                      .dwattr $C$DW$177, DW_AT_type(*$C$DW$T$21)
    2051                      .dwattr $C$DW$177, DW_AT_location[DW_OP_reg1]
    2052              
    2053              ;***************************************************************
    2054              ;* FNAME: _LDC161x_setRcount            FR SIZE:   0           *
    2055              ;*                                                             *
    2056              ;* FUNCTION ENVIRONMENT                                        *
    2057              ;*                                                             *
    2058              ;* FUNCTION PROPERTIES                                         *
    2059              ;*                            0 Parameter,  0 Auto,  0 SOE     *
    2060              ;***************************************************************
    2061              
    2062              _LDC161x_setRcount:
    2063              ;* AR4   assigned to _obj
    2064              $C$DW$178       .dwtag  DW_TAG_variable, DW_AT_name("obj")
    2065                      .dwattr $C$DW$178, DW_AT_TI_symbol_name("_obj")
    2066                      .dwattr $C$DW$178, DW_AT_type(*$C$DW$T$125)
    2067                      .dwattr $C$DW$178, DW_AT_location[DW_OP_reg12]
    2068              ;* AH    assigned to _drvData
    2069              $C$DW$179       .dwtag  DW_TAG_variable, DW_AT_name("drvData")
    2070                      .dwattr $C$DW$179, DW_AT_TI_symbol_name("_drvData")
    2071                      .dwattr $C$DW$179, DW_AT_type(*$C$DW$T$136)
    2072                      .dwattr $C$DW$179, DW_AT_location[DW_OP_reg1]
    2073              ;* AL    assigned to _Channel
    2074              $C$DW$180       .dwtag  DW_TAG_variable, DW_AT_name("Channel")
    2075                      .dwattr $C$DW$180, DW_AT_TI_symbol_name("_Channel")
TMS320C2000 Assembler PC v6.2.5 Mon Jul 10 09:53:39 2017

Tools Copyright (c) 1996-2014 Texas Instruments Incorporated
C:\Users\wmj\AppData\Local\Temp\1375610                              PAGE   40

    2076                      .dwattr $C$DW$180, DW_AT_type(*$C$DW$T$136)
    2077                      .dwattr $C$DW$180, DW_AT_location[DW_OP_reg0]
    2078              ;* AR4   assigned to _handle
    2079              $C$DW$181       .dwtag  DW_TAG_variable, DW_AT_name("handle")
    2080                      .dwattr $C$DW$181, DW_AT_TI_symbol_name("_handle")
    2081                      .dwattr $C$DW$181, DW_AT_type(*$C$DW$T$109)
    2082                      .dwattr $C$DW$181, DW_AT_location[DW_OP_reg12]
    2083                      .dwcfi  cfa_offset, -2
    2084                      .dwcfi  save_reg_to_mem, 26, 0
    2085                      .dwcfi  save_reg_to_reg, 78, 26
    2086                      .dwpsn  file "D:/Foc/my_motor/sw/drivers/drvic/ldc1612.c",line 663,column 3,is_stmt
    2087 000001e7 5200          CMPB      AL,#0                 ; [CPU_] |663| 
    2088 000001e8 EC0F          BF        $C$L66,EQ             ; [CPU_] |663| 
    2089                      ; branchcc occurs ; [] |663| 
    2090 000001e9 5201          CMPB      AL,#1                 ; [CPU_] |663| 
    2091 000001ea EC0B          BF        $C$L65,EQ             ; [CPU_] |663| 
    2092                      ; branchcc occurs ; [] |663| 
    2093 000001eb 5202          CMPB      AL,#2                 ; [CPU_] |663| 
    2094 000001ec EC07          BF        $C$L64,EQ             ; [CPU_] |663| 
    2095                      ; branchcc occurs ; [] |663| 
    2096 000001ed 5203          CMPB      AL,#3                 ; [CPU_] |663| 
    2097                      .dwpsn  file "D:/Foc/my_motor/sw/drivers/drvic/ldc1612.c",line 668,column 14,is_stmt
    2098 000001ee 56B1          MOVB      XAR0,#27,EQ           ; [CPU_] |668| 
         000001ef 1BA0 
    2099 000001f0 562B          MOV       *+XAR4[AR0],AH,EQ     ; [CPU_] |668| 
         000001f1 0194 
    2100              $C$DW$182       .dwtag  DW_TAG_TI_branch
    2101                      .dwattr $C$DW$182, DW_AT_low_pc(0x00)
    2102                      .dwattr $C$DW$182, DW_AT_TI_return
    2103 000001f2 0006          LRETR     ; [CPU_] 
    2104                      ; return occurs ; [] 
    2105 000001f3       $C$L64:    
    2106                      .dwpsn  file "D:/Foc/my_motor/sw/drivers/drvic/ldc1612.c",line 667,column 14,is_stmt
    2107 000001f3 D01A          MOVB      XAR0,#26              ; [CPU_] |667| 
    2108                      .dwpsn  file "D:/Foc/my_motor/sw/drivers/drvic/ldc1612.c",line 667,column 51,is_stmt
    2109 000001f4 6F04          B         $C$L67,UNC            ; [CPU_] |667| 
    2110                      ; branch occurs ; [] |667| 
    2111 000001f5       $C$L65:    
    2112                      .dwpsn  file "D:/Foc/my_motor/sw/drivers/drvic/ldc1612.c",line 666,column 14,is_stmt
    2113 000001f5 D019          MOVB      XAR0,#25              ; [CPU_] |666| 
    2114                      .dwpsn  file "D:/Foc/my_motor/sw/drivers/drvic/ldc1612.c",line 666,column 51,is_stmt
    2115 000001f6 6F02          B         $C$L67,UNC            ; [CPU_] |666| 
    2116                      ; branch occurs ; [] |666| 
    2117 000001f7       $C$L66:    
    2118                      .dwpsn  file "D:/Foc/my_motor/sw/drivers/drvic/ldc1612.c",line 665,column 14,is_stmt
    2119 000001f7 D018          MOVB      XAR0,#24              ; [CPU_] |665| 
    2120 000001f8       $C$L67:    
    2121 000001f8 9794          MOV       *+XAR4[AR0],AH        ; [CPU_] |665| 
    2122              $C$DW$183       .dwtag  DW_TAG_TI_branch
    2123                      .dwattr $C$DW$183, DW_AT_low_pc(0x00)
    2124                      .dwattr $C$DW$183, DW_AT_TI_return
    2125 000001f9 0006          LRETR     ; [CPU_] 
    2126                      ; return occurs ; [] 
    2127                      .dwattr $C$DW$174, DW_AT_TI_end_file("D:/Foc/my_motor/sw/drivers/drvic/ldc1612.c")
    2128                      .dwattr $C$DW$174, DW_AT_TI_end_line(0x2a0)
TMS320C2000 Assembler PC v6.2.5 Mon Jul 10 09:53:39 2017

Tools Copyright (c) 1996-2014 Texas Instruments Incorporated
C:\Users\wmj\AppData\Local\Temp\1375610                              PAGE   41

    2129                      .dwattr $C$DW$174, DW_AT_TI_end_column(0x01)
    2130                      .dwendentry
    2131                      .dwendtag $C$DW$174
    2132              
    2133 000001fa               .sect   ".text"
    2134                      .clink
    2135                      .global _LDC161x_setOffset
    2136              
    2137              $C$DW$184       .dwtag  DW_TAG_subprogram, DW_AT_name("LDC161x_setOffset")
    2138                      .dwattr $C$DW$184, DW_AT_low_pc(_LDC161x_setOffset)
    2139                      .dwattr $C$DW$184, DW_AT_high_pc(0x00)
    2140                      .dwattr $C$DW$184, DW_AT_TI_symbol_name("_LDC161x_setOffset")
    2141                      .dwattr $C$DW$184, DW_AT_external
    2142                      .dwattr $C$DW$184, DW_AT_TI_begin_file("D:/Foc/my_motor/sw/drivers/drvic/ldc1612.c")
    2143                      .dwattr $C$DW$184, DW_AT_TI_begin_line(0x2a7)
    2144                      .dwattr $C$DW$184, DW_AT_TI_begin_column(0x06)
    2145                      .dwattr $C$DW$184, DW_AT_TI_max_frame_size(-2)
    2146                      .dwpsn  file "D:/Foc/my_motor/sw/drivers/drvic/ldc1612.c",line 680,column 1,is_stmt,address _LDC161x_
    2147              
    2148                      .dwfde $C$DW$CIE, _LDC161x_setOffset
    2149              $C$DW$185       .dwtag  DW_TAG_formal_parameter, DW_AT_name("handle")
    2150                      .dwattr $C$DW$185, DW_AT_TI_symbol_name("_handle")
    2151                      .dwattr $C$DW$185, DW_AT_type(*$C$DW$T$47)
    2152                      .dwattr $C$DW$185, DW_AT_location[DW_OP_reg12]
    2153              $C$DW$186       .dwtag  DW_TAG_formal_parameter, DW_AT_name("Channel")
    2154                      .dwattr $C$DW$186, DW_AT_TI_symbol_name("_Channel")
    2155                      .dwattr $C$DW$186, DW_AT_type(*$C$DW$T$136)
    2156                      .dwattr $C$DW$186, DW_AT_location[DW_OP_reg0]
    2157              $C$DW$187       .dwtag  DW_TAG_formal_parameter, DW_AT_name("drvData")
    2158                      .dwattr $C$DW$187, DW_AT_TI_symbol_name("_drvData")
    2159                      .dwattr $C$DW$187, DW_AT_type(*$C$DW$T$21)
    2160                      .dwattr $C$DW$187, DW_AT_location[DW_OP_reg1]
    2161              
    2162              ;***************************************************************
    2163              ;* FNAME: _LDC161x_setOffset            FR SIZE:   0           *
    2164              ;*                                                             *
    2165              ;* FUNCTION ENVIRONMENT                                        *
    2166              ;*                                                             *
    2167              ;* FUNCTION PROPERTIES                                         *
    2168              ;*                            0 Parameter,  0 Auto,  0 SOE     *
    2169              ;***************************************************************
    2170              
    2171              _LDC161x_setOffset:
    2172              ;* AR4   assigned to _obj
    2173              $C$DW$188       .dwtag  DW_TAG_variable, DW_AT_name("obj")
    2174                      .dwattr $C$DW$188, DW_AT_TI_symbol_name("_obj")
    2175                      .dwattr $C$DW$188, DW_AT_type(*$C$DW$T$125)
    2176                      .dwattr $C$DW$188, DW_AT_location[DW_OP_reg12]
    2177              ;* AH    assigned to _drvData
    2178              $C$DW$189       .dwtag  DW_TAG_variable, DW_AT_name("drvData")
    2179                      .dwattr $C$DW$189, DW_AT_TI_symbol_name("_drvData")
    2180                      .dwattr $C$DW$189, DW_AT_type(*$C$DW$T$136)
    2181                      .dwattr $C$DW$189, DW_AT_location[DW_OP_reg1]
    2182              ;* AL    assigned to _Channel
    2183              $C$DW$190       .dwtag  DW_TAG_variable, DW_AT_name("Channel")
TMS320C2000 Assembler PC v6.2.5 Mon Jul 10 09:53:39 2017

Tools Copyright (c) 1996-2014 Texas Instruments Incorporated
C:\Users\wmj\AppData\Local\Temp\1375610                              PAGE   42

    2184                      .dwattr $C$DW$190, DW_AT_TI_symbol_name("_Channel")
    2185                      .dwattr $C$DW$190, DW_AT_type(*$C$DW$T$136)
    2186                      .dwattr $C$DW$190, DW_AT_location[DW_OP_reg0]
    2187              ;* AR4   assigned to _handle
    2188              $C$DW$191       .dwtag  DW_TAG_variable, DW_AT_name("handle")
    2189                      .dwattr $C$DW$191, DW_AT_TI_symbol_name("_handle")
    2190                      .dwattr $C$DW$191, DW_AT_type(*$C$DW$T$109)
    2191                      .dwattr $C$DW$191, DW_AT_location[DW_OP_reg12]
    2192                      .dwcfi  cfa_offset, -2
    2193                      .dwcfi  save_reg_to_mem, 26, 0
    2194                      .dwcfi  save_reg_to_reg, 78, 26
    2195                      .dwpsn  file "D:/Foc/my_motor/sw/drivers/drvic/ldc1612.c",line 683,column 3,is_stmt
    2196 000001fa 5200          CMPB      AL,#0                 ; [CPU_] |683| 
    2197 000001fb EC0F          BF        $C$L70,EQ             ; [CPU_] |683| 
    2198                      ; branchcc occurs ; [] |683| 
    2199 000001fc 5201          CMPB      AL,#1                 ; [CPU_] |683| 
    2200 000001fd EC0B          BF        $C$L69,EQ             ; [CPU_] |683| 
    2201                      ; branchcc occurs ; [] |683| 
    2202 000001fe 5202          CMPB      AL,#2                 ; [CPU_] |683| 
    2203 000001ff EC07          BF        $C$L68,EQ             ; [CPU_] |683| 
    2204                      ; branchcc occurs ; [] |683| 
    2205 00000200 5203          CMPB      AL,#3                 ; [CPU_] |683| 
    2206                      .dwpsn  file "D:/Foc/my_motor/sw/drivers/drvic/ldc1612.c",line 688,column 14,is_stmt
    2207 00000201 56B1          MOVB      XAR0,#31,EQ           ; [CPU_] |688| 
         00000202 1FA0 
    2208 00000203 562B          MOV       *+XAR4[AR0],AH,EQ     ; [CPU_] |688| 
         00000204 0194 
    2209              $C$DW$192       .dwtag  DW_TAG_TI_branch
    2210                      .dwattr $C$DW$192, DW_AT_low_pc(0x00)
    2211                      .dwattr $C$DW$192, DW_AT_TI_return
    2212 00000205 0006          LRETR     ; [CPU_] 
    2213                      ; return occurs ; [] 
    2214 00000206       $C$L68:    
    2215                      .dwpsn  file "D:/Foc/my_motor/sw/drivers/drvic/ldc1612.c",line 687,column 14,is_stmt
    2216 00000206 D01E          MOVB      XAR0,#30              ; [CPU_] |687| 
    2217                      .dwpsn  file "D:/Foc/my_motor/sw/drivers/drvic/ldc1612.c",line 687,column 51,is_stmt
    2218 00000207 6F04          B         $C$L71,UNC            ; [CPU_] |687| 
    2219                      ; branch occurs ; [] |687| 
    2220 00000208       $C$L69:    
    2221                      .dwpsn  file "D:/Foc/my_motor/sw/drivers/drvic/ldc1612.c",line 686,column 14,is_stmt
    2222 00000208 D01D          MOVB      XAR0,#29              ; [CPU_] |686| 
    2223                      .dwpsn  file "D:/Foc/my_motor/sw/drivers/drvic/ldc1612.c",line 686,column 51,is_stmt
    2224 00000209 6F02          B         $C$L71,UNC            ; [CPU_] |686| 
    2225                      ; branch occurs ; [] |686| 
    2226 0000020a       $C$L70:    
    2227                      .dwpsn  file "D:/Foc/my_motor/sw/drivers/drvic/ldc1612.c",line 685,column 14,is_stmt
    2228 0000020a D01C          MOVB      XAR0,#28              ; [CPU_] |685| 
    2229 0000020b       $C$L71:    
    2230 0000020b 9794          MOV       *+XAR4[AR0],AH        ; [CPU_] |685| 
    2231              $C$DW$193       .dwtag  DW_TAG_TI_branch
    2232                      .dwattr $C$DW$193, DW_AT_low_pc(0x00)
    2233                      .dwattr $C$DW$193, DW_AT_TI_return
    2234 0000020c 0006          LRETR     ; [CPU_] 
    2235                      ; return occurs ; [] 
    2236                      .dwattr $C$DW$184, DW_AT_TI_end_file("D:/Foc/my_motor/sw/drivers/drvic/ldc1612.c")
TMS320C2000 Assembler PC v6.2.5 Mon Jul 10 09:53:39 2017

Tools Copyright (c) 1996-2014 Texas Instruments Incorporated
C:\Users\wmj\AppData\Local\Temp\1375610                              PAGE   43

    2237                      .dwattr $C$DW$184, DW_AT_TI_end_line(0x2b4)
    2238                      .dwattr $C$DW$184, DW_AT_TI_end_column(0x01)
    2239                      .dwendentry
    2240                      .dwendtag $C$DW$184
    2241              
    2242 0000020d               .sect   ".text"
    2243                      .clink
    2244                      .global _LDC161x_setMuxConfig
    2245              
    2246              $C$DW$194       .dwtag  DW_TAG_subprogram, DW_AT_name("LDC161x_setMuxConfig")
    2247                      .dwattr $C$DW$194, DW_AT_low_pc(_LDC161x_setMuxConfig)
    2248                      .dwattr $C$DW$194, DW_AT_high_pc(0x00)
    2249                      .dwattr $C$DW$194, DW_AT_TI_symbol_name("_LDC161x_setMuxConfig")
    2250                      .dwattr $C$DW$194, DW_AT_external
    2251                      .dwattr $C$DW$194, DW_AT_TI_begin_file("D:/Foc/my_motor/sw/drivers/drvic/ldc1612.c")
    2252                      .dwattr $C$DW$194, DW_AT_TI_begin_line(0x324)
    2253                      .dwattr $C$DW$194, DW_AT_TI_begin_column(0x06)
    2254                      .dwattr $C$DW$194, DW_AT_TI_max_frame_size(-2)
    2255                      .dwpsn  file "D:/Foc/my_motor/sw/drivers/drvic/ldc1612.c",line 805,column 1,is_stmt,address _LDC161x_
    2256              
    2257                      .dwfde $C$DW$CIE, _LDC161x_setMuxConfig
    2258              $C$DW$195       .dwtag  DW_TAG_formal_parameter, DW_AT_name("handle")
    2259                      .dwattr $C$DW$195, DW_AT_TI_symbol_name("_handle")
    2260                      .dwattr $C$DW$195, DW_AT_type(*$C$DW$T$47)
    2261                      .dwattr $C$DW$195, DW_AT_location[DW_OP_reg12]
    2262              $C$DW$196       .dwtag  DW_TAG_formal_parameter, DW_AT_name("drvData")
    2263                      .dwattr $C$DW$196, DW_AT_TI_symbol_name("_drvData")
    2264                      .dwattr $C$DW$196, DW_AT_type(*$C$DW$T$21)
    2265                      .dwattr $C$DW$196, DW_AT_location[DW_OP_reg0]
    2266              
    2267              ;***************************************************************
    2268              ;* FNAME: _LDC161x_setMuxConfig         FR SIZE:   0           *
    2269              ;*                                                             *
    2270              ;* FUNCTION ENVIRONMENT                                        *
    2271              ;*                                                             *
    2272              ;* FUNCTION PROPERTIES                                         *
    2273              ;*                            0 Parameter,  0 Auto,  0 SOE     *
    2274              ;***************************************************************
    2275              
    2276              _LDC161x_setMuxConfig:
    2277              ;* AR4   assigned to _handle
    2278              $C$DW$197       .dwtag  DW_TAG_variable, DW_AT_name("handle")
    2279                      .dwattr $C$DW$197, DW_AT_TI_symbol_name("_handle")
    2280                      .dwattr $C$DW$197, DW_AT_type(*$C$DW$T$109)
    2281                      .dwattr $C$DW$197, DW_AT_location[DW_OP_reg12]
    2282              ;* AL    assigned to _drvData
    2283              $C$DW$198       .dwtag  DW_TAG_variable, DW_AT_name("drvData")
    2284                      .dwattr $C$DW$198, DW_AT_TI_symbol_name("_drvData")
    2285                      .dwattr $C$DW$198, DW_AT_type(*$C$DW$T$136)
    2286                      .dwattr $C$DW$198, DW_AT_location[DW_OP_reg0]
    2287                      .dwcfi  cfa_offset, -2
    2288                      .dwcfi  save_reg_to_mem, 26, 0
    2289                      .dwcfi  save_reg_to_reg, 78, 26
    2290                      .dwpsn  file "D:/Foc/my_motor/sw/drivers/drvic/ldc1612.c",line 808,column 3,is_stmt
    2291 0000020d D04E          MOVB      XAR0,#78              ; [CPU_] |808| 
TMS320C2000 Assembler PC v6.2.5 Mon Jul 10 09:53:39 2017

Tools Copyright (c) 1996-2014 Texas Instruments Incorporated
C:\Users\wmj\AppData\Local\Temp\1375610                              PAGE   44

    2292 0000020e CDA9          AND       AH,AL,#0x8000         ; [CPU_] |808| 
         0000020f 8000 
    2293 00000210 9794          MOV       *+XAR4[AR0],AH        ; [CPU_] |808| 
    2294                      .dwpsn  file "D:/Foc/my_motor/sw/drivers/drvic/ldc1612.c",line 809,column 3,is_stmt
    2295 00000211 D04F          MOVB      XAR0,#79              ; [CPU_] |809| 
    2296 00000212 CDA9          AND       AH,AL,#0x2000         ; [CPU_] |809| 
         00000213 2000 
    2297 00000214 9794          MOV       *+XAR4[AR0],AH        ; [CPU_] |809| 
    2298                      .dwpsn  file "D:/Foc/my_motor/sw/drivers/drvic/ldc1612.c",line 810,column 3,is_stmt
    2299 00000215 D050          MOVB      XAR0,#80              ; [CPU_] |810| 
    2300 00000216 CDA9          AND       AH,AL,#0x4000         ; [CPU_] |810| 
         00000217 4000 
    2301 00000218 9794          MOV       *+XAR4[AR0],AH        ; [CPU_] |810| 
    2302                      .dwpsn  file "D:/Foc/my_motor/sw/drivers/drvic/ldc1612.c",line 811,column 3,is_stmt
    2303 00000219 D051          MOVB      XAR0,#81              ; [CPU_] |811| 
    2304 0000021a CDA9          AND       AH,AL,#0x0001         ; [CPU_] |811| 
         0000021b 0001 
    2305 0000021c 9794          MOV       *+XAR4[AR0],AH        ; [CPU_] |811| 
    2306                      .dwpsn  file "D:/Foc/my_motor/sw/drivers/drvic/ldc1612.c",line 812,column 3,is_stmt
    2307 0000021d CDA9          AND       AH,AL,#0x0002         ; [CPU_] |812| 
         0000021e 0002 
    2308 0000021f D052          MOVB      XAR0,#82              ; [CPU_] |812| 
    2309                      .dwpsn  file "D:/Foc/my_motor/sw/drivers/drvic/ldc1612.c",line 813,column 3,is_stmt
    2310 00000220 9004          ANDB      AL,#4                 ; [CPU_] |813| 
    2311                      .dwpsn  file "D:/Foc/my_motor/sw/drivers/drvic/ldc1612.c",line 812,column 3,is_stmt
    2312 00000221 9794          MOV       *+XAR4[AR0],AH        ; [CPU_] |812| 
    2313                      .dwpsn  file "D:/Foc/my_motor/sw/drivers/drvic/ldc1612.c",line 813,column 3,is_stmt
    2314 00000222 D053          MOVB      XAR0,#83              ; [CPU_] |813| 
    2315 00000223 9694          MOV       *+XAR4[AR0],AL        ; [CPU_] |813| 
    2316              $C$DW$199       .dwtag  DW_TAG_TI_branch
    2317                      .dwattr $C$DW$199, DW_AT_low_pc(0x00)
    2318                      .dwattr $C$DW$199, DW_AT_TI_return
    2319 00000224 0006          LRETR     ; [CPU_] 
    2320                      ; return occurs ; [] 
    2321                      .dwattr $C$DW$194, DW_AT_TI_end_file("D:/Foc/my_motor/sw/drivers/drvic/ldc1612.c")
    2322                      .dwattr $C$DW$194, DW_AT_TI_end_line(0x330)
    2323                      .dwattr $C$DW$194, DW_AT_TI_end_column(0x01)
    2324                      .dwendentry
    2325                      .dwendtag $C$DW$194
    2326              
    2327 00000225               .sect   ".text"
    2328                      .clink
    2329                      .global _LDC161x_setI2cHandle
    2330              
    2331              $C$DW$200       .dwtag  DW_TAG_subprogram, DW_AT_name("LDC161x_setI2cHandle")
    2332                      .dwattr $C$DW$200, DW_AT_low_pc(_LDC161x_setI2cHandle)
    2333                      .dwattr $C$DW$200, DW_AT_high_pc(0x00)
    2334                      .dwattr $C$DW$200, DW_AT_TI_symbol_name("_LDC161x_setI2cHandle")
    2335                      .dwattr $C$DW$200, DW_AT_external
    2336                      .dwattr $C$DW$200, DW_AT_TI_begin_file("D:/Foc/my_motor/sw/drivers/drvic/ldc1612.c")
    2337                      .dwattr $C$DW$200, DW_AT_TI_begin_line(0x464)
    2338                      .dwattr $C$DW$200, DW_AT_TI_begin_column(0x06)
    2339                      .dwattr $C$DW$200, DW_AT_TI_max_frame_size(-2)
    2340                      .dwpsn  file "D:/Foc/my_motor/sw/drivers/drvic/ldc1612.c",line 1125,column 1,is_stmt,address _LDC161x
    2341              
TMS320C2000 Assembler PC v6.2.5 Mon Jul 10 09:53:39 2017

Tools Copyright (c) 1996-2014 Texas Instruments Incorporated
C:\Users\wmj\AppData\Local\Temp\1375610                              PAGE   45

    2342                      .dwfde $C$DW$CIE, _LDC161x_setI2cHandle
    2343              $C$DW$201       .dwtag  DW_TAG_formal_parameter, DW_AT_name("handle")
    2344                      .dwattr $C$DW$201, DW_AT_TI_symbol_name("_handle")
    2345                      .dwattr $C$DW$201, DW_AT_type(*$C$DW$T$120)
    2346                      .dwattr $C$DW$201, DW_AT_location[DW_OP_reg12]
    2347              $C$DW$202       .dwtag  DW_TAG_formal_parameter, DW_AT_name("i2cHandle")
    2348                      .dwattr $C$DW$202, DW_AT_TI_symbol_name("_i2cHandle")
    2349                      .dwattr $C$DW$202, DW_AT_type(*$C$DW$T$43)
    2350                      .dwattr $C$DW$202, DW_AT_location[DW_OP_reg14]
    2351              
    2352              ;***************************************************************
    2353              ;* FNAME: _LDC161x_setI2cHandle         FR SIZE:   0           *
    2354              ;*                                                             *
    2355              ;* FUNCTION ENVIRONMENT                                        *
    2356              ;*                                                             *
    2357              ;* FUNCTION PROPERTIES                                         *
    2358              ;*                            0 Parameter,  0 Auto,  0 SOE     *
    2359              ;***************************************************************
    2360              
    2361              _LDC161x_setI2cHandle:
    2362              ;* AR4   assigned to _handle
    2363              $C$DW$203       .dwtag  DW_TAG_variable, DW_AT_name("handle")
    2364                      .dwattr $C$DW$203, DW_AT_TI_symbol_name("_handle")
    2365                      .dwattr $C$DW$203, DW_AT_type(*$C$DW$T$121)
    2366                      .dwattr $C$DW$203, DW_AT_location[DW_OP_reg12]
    2367              ;* AR5   assigned to _i2cHandle
    2368              $C$DW$204       .dwtag  DW_TAG_variable, DW_AT_name("i2cHandle")
    2369                      .dwattr $C$DW$204, DW_AT_TI_symbol_name("_i2cHandle")
    2370                      .dwattr $C$DW$204, DW_AT_type(*$C$DW$T$107)
    2371                      .dwattr $C$DW$204, DW_AT_location[DW_OP_reg14]
    2372                      .dwcfi  cfa_offset, -2
    2373                      .dwcfi  save_reg_to_mem, 26, 0
    2374                      .dwcfi  save_reg_to_reg, 78, 26
    2375                      .dwpsn  file "D:/Foc/my_motor/sw/drivers/drvic/ldc1612.c",line 1128,column 3,is_stmt
    2376 00000225 A0C4          MOVL      *+XAR4[0],XAR5        ; [CPU_] |1128| 
    2377              $C$DW$205       .dwtag  DW_TAG_TI_branch
    2378                      .dwattr $C$DW$205, DW_AT_low_pc(0x00)
    2379                      .dwattr $C$DW$205, DW_AT_TI_return
    2380 00000226 0006          LRETR     ; [CPU_] 
    2381                      ; return occurs ; [] 
    2382                      .dwattr $C$DW$200, DW_AT_TI_end_file("D:/Foc/my_motor/sw/drivers/drvic/ldc1612.c")
    2383                      .dwattr $C$DW$200, DW_AT_TI_end_line(0x46c)
    2384                      .dwattr $C$DW$200, DW_AT_TI_end_column(0x01)
    2385                      .dwendentry
    2386                      .dwendtag $C$DW$200
    2387              
    2388 00000227               .sect   ".text"
    2389                      .clink
    2390                      .global _LDC161x_setGpioHandle
    2391              
    2392              $C$DW$206       .dwtag  DW_TAG_subprogram, DW_AT_name("LDC161x_setGpioHandle")
    2393                      .dwattr $C$DW$206, DW_AT_low_pc(_LDC161x_setGpioHandle)
    2394                      .dwattr $C$DW$206, DW_AT_high_pc(0x00)
    2395                      .dwattr $C$DW$206, DW_AT_TI_symbol_name("_LDC161x_setGpioHandle")
    2396                      .dwattr $C$DW$206, DW_AT_external
TMS320C2000 Assembler PC v6.2.5 Mon Jul 10 09:53:39 2017

Tools Copyright (c) 1996-2014 Texas Instruments Incorporated
C:\Users\wmj\AppData\Local\Temp\1375610                              PAGE   46

    2397                      .dwattr $C$DW$206, DW_AT_TI_begin_file("D:/Foc/my_motor/sw/drivers/drvic/ldc1612.c")
    2398                      .dwattr $C$DW$206, DW_AT_TI_begin_line(0x45a)
    2399                      .dwattr $C$DW$206, DW_AT_TI_begin_column(0x06)
    2400                      .dwattr $C$DW$206, DW_AT_TI_max_frame_size(-2)
    2401                      .dwpsn  file "D:/Foc/my_motor/sw/drivers/drvic/ldc1612.c",line 1115,column 1,is_stmt,address _LDC161x
    2402              
    2403                      .dwfde $C$DW$CIE, _LDC161x_setGpioHandle
    2404              $C$DW$207       .dwtag  DW_TAG_formal_parameter, DW_AT_name("handle")
    2405                      .dwattr $C$DW$207, DW_AT_TI_symbol_name("_handle")
    2406                      .dwattr $C$DW$207, DW_AT_type(*$C$DW$T$120)
    2407                      .dwattr $C$DW$207, DW_AT_location[DW_OP_reg12]
    2408              $C$DW$208       .dwtag  DW_TAG_formal_parameter, DW_AT_name("gpioHandle")
    2409                      .dwattr $C$DW$208, DW_AT_TI_symbol_name("_gpioHandle")
    2410                      .dwattr $C$DW$208, DW_AT_type(*$C$DW$T$45)
    2411                      .dwattr $C$DW$208, DW_AT_location[DW_OP_reg14]
    2412              
    2413              ;***************************************************************
    2414              ;* FNAME: _LDC161x_setGpioHandle        FR SIZE:   0           *
    2415              ;*                                                             *
    2416              ;* FUNCTION ENVIRONMENT                                        *
    2417              ;*                                                             *
    2418              ;* FUNCTION PROPERTIES                                         *
    2419              ;*                            0 Parameter,  0 Auto,  0 SOE     *
    2420              ;***************************************************************
    2421              
    2422              _LDC161x_setGpioHandle:
    2423              ;* AR4   assigned to _handle
    2424              $C$DW$209       .dwtag  DW_TAG_variable, DW_AT_name("handle")
    2425                      .dwattr $C$DW$209, DW_AT_TI_symbol_name("_handle")
    2426                      .dwattr $C$DW$209, DW_AT_type(*$C$DW$T$121)
    2427                      .dwattr $C$DW$209, DW_AT_location[DW_OP_reg12]
    2428              ;* AR5   assigned to _gpioHandle
    2429              $C$DW$210       .dwtag  DW_TAG_variable, DW_AT_name("gpioHandle")
    2430                      .dwattr $C$DW$210, DW_AT_TI_symbol_name("_gpioHandle")
    2431                      .dwattr $C$DW$210, DW_AT_type(*$C$DW$T$116)
    2432                      .dwattr $C$DW$210, DW_AT_location[DW_OP_reg14]
    2433                      .dwcfi  cfa_offset, -2
    2434                      .dwcfi  save_reg_to_mem, 26, 0
    2435                      .dwcfi  save_reg_to_reg, 78, 26
    2436                      .dwpsn  file "D:/Foc/my_motor/sw/drivers/drvic/ldc1612.c",line 1118,column 3,is_stmt
    2437 00000227 A0D4          MOVL      *+XAR4[2],XAR5        ; [CPU_] |1118| 
    2438              $C$DW$211       .dwtag  DW_TAG_TI_branch
    2439                      .dwattr $C$DW$211, DW_AT_low_pc(0x00)
    2440                      .dwattr $C$DW$211, DW_AT_TI_return
    2441 00000228 0006          LRETR     ; [CPU_] 
    2442                      ; return occurs ; [] 
    2443                      .dwattr $C$DW$206, DW_AT_TI_end_file("D:/Foc/my_motor/sw/drivers/drvic/ldc1612.c")
    2444                      .dwattr $C$DW$206, DW_AT_TI_end_line(0x462)
    2445                      .dwattr $C$DW$206, DW_AT_TI_end_column(0x01)
    2446                      .dwendentry
    2447                      .dwendtag $C$DW$206
    2448              
    2449 00000229               .sect   ".text"
    2450                      .clink
    2451                      .global _LDC161x_setErrors
TMS320C2000 Assembler PC v6.2.5 Mon Jul 10 09:53:39 2017

Tools Copyright (c) 1996-2014 Texas Instruments Incorporated
C:\Users\wmj\AppData\Local\Temp\1375610                              PAGE   47

    2452              
    2453              $C$DW$212       .dwtag  DW_TAG_subprogram, DW_AT_name("LDC161x_setErrors")
    2454                      .dwattr $C$DW$212, DW_AT_low_pc(_LDC161x_setErrors)
    2455                      .dwattr $C$DW$212, DW_AT_high_pc(0x00)
    2456                      .dwattr $C$DW$212, DW_AT_TI_symbol_name("_LDC161x_setErrors")
    2457                      .dwattr $C$DW$212, DW_AT_external
    2458                      .dwattr $C$DW$212, DW_AT_TI_begin_file("D:/Foc/my_motor/sw/drivers/drvic/ldc1612.c")
    2459                      .dwattr $C$DW$212, DW_AT_TI_begin_line(0x2ff)
    2460                      .dwattr $C$DW$212, DW_AT_TI_begin_column(0x06)
    2461                      .dwattr $C$DW$212, DW_AT_TI_max_frame_size(-2)
    2462                      .dwpsn  file "D:/Foc/my_motor/sw/drivers/drvic/ldc1612.c",line 768,column 1,is_stmt,address _LDC161x_
    2463              
    2464                      .dwfde $C$DW$CIE, _LDC161x_setErrors
    2465              $C$DW$213       .dwtag  DW_TAG_formal_parameter, DW_AT_name("handle")
    2466                      .dwattr $C$DW$213, DW_AT_TI_symbol_name("_handle")
    2467                      .dwattr $C$DW$213, DW_AT_type(*$C$DW$T$47)
    2468                      .dwattr $C$DW$213, DW_AT_location[DW_OP_reg12]
    2469              $C$DW$214       .dwtag  DW_TAG_formal_parameter, DW_AT_name("drvData")
    2470                      .dwattr $C$DW$214, DW_AT_TI_symbol_name("_drvData")
    2471                      .dwattr $C$DW$214, DW_AT_type(*$C$DW$T$21)
    2472                      .dwattr $C$DW$214, DW_AT_location[DW_OP_reg0]
    2473              
    2474              ;***************************************************************
    2475              ;* FNAME: _LDC161x_setErrors            FR SIZE:   0           *
    2476              ;*                                                             *
    2477              ;* FUNCTION ENVIRONMENT                                        *
    2478              ;*                                                             *
    2479              ;* FUNCTION PROPERTIES                                         *
    2480              ;*                            0 Parameter,  0 Auto,  0 SOE     *
    2481              ;***************************************************************
    2482              
    2483              _LDC161x_setErrors:
    2484              ;* AR4   assigned to _handle
    2485              $C$DW$215       .dwtag  DW_TAG_variable, DW_AT_name("handle")
    2486                      .dwattr $C$DW$215, DW_AT_TI_symbol_name("_handle")
    2487                      .dwattr $C$DW$215, DW_AT_type(*$C$DW$T$109)
    2488                      .dwattr $C$DW$215, DW_AT_location[DW_OP_reg12]
    2489              ;* AL    assigned to _drvData
    2490              $C$DW$216       .dwtag  DW_TAG_variable, DW_AT_name("drvData")
    2491                      .dwattr $C$DW$216, DW_AT_TI_symbol_name("_drvData")
    2492                      .dwattr $C$DW$216, DW_AT_type(*$C$DW$T$136)
    2493                      .dwattr $C$DW$216, DW_AT_location[DW_OP_reg0]
    2494                      .dwcfi  cfa_offset, -2
    2495                      .dwcfi  save_reg_to_mem, 26, 0
    2496                      .dwcfi  save_reg_to_reg, 78, 26
    2497                      .dwpsn  file "D:/Foc/my_motor/sw/drivers/drvic/ldc1612.c",line 771,column 3,is_stmt
    2498 00000229 D039          MOVB      XAR0,#57              ; [CPU_] |771| 
    2499 0000022a CDA9          AND       AH,AL,#0x8000         ; [CPU_] |771| 
         0000022b 8000 
    2500 0000022c 9794          MOV       *+XAR4[AR0],AH        ; [CPU_] |771| 
    2501                      .dwpsn  file "D:/Foc/my_motor/sw/drivers/drvic/ldc1612.c",line 772,column 3,is_stmt
    2502 0000022d D03A          MOVB      XAR0,#58              ; [CPU_] |772| 
    2503 0000022e CDA9          AND       AH,AL,#0x4000         ; [CPU_] |772| 
         0000022f 4000 
    2504 00000230 9794          MOV       *+XAR4[AR0],AH        ; [CPU_] |772| 
TMS320C2000 Assembler PC v6.2.5 Mon Jul 10 09:53:39 2017

Tools Copyright (c) 1996-2014 Texas Instruments Incorporated
C:\Users\wmj\AppData\Local\Temp\1375610                              PAGE   48

    2505                      .dwpsn  file "D:/Foc/my_motor/sw/drivers/drvic/ldc1612.c",line 773,column 3,is_stmt
    2506 00000231 D03B          MOVB      XAR0,#59              ; [CPU_] |773| 
    2507 00000232 CDA9          AND       AH,AL,#0x2000         ; [CPU_] |773| 
         00000233 2000 
    2508 00000234 9794          MOV       *+XAR4[AR0],AH        ; [CPU_] |773| 
    2509                      .dwpsn  file "D:/Foc/my_motor/sw/drivers/drvic/ldc1612.c",line 774,column 3,is_stmt
    2510 00000235 D03C          MOVB      XAR0,#60              ; [CPU_] |774| 
    2511 00000236 CDA9          AND       AH,AL,#0x1000         ; [CPU_] |774| 
         00000237 1000 
    2512 00000238 9794          MOV       *+XAR4[AR0],AH        ; [CPU_] |774| 
    2513                      .dwpsn  file "D:/Foc/my_motor/sw/drivers/drvic/ldc1612.c",line 775,column 3,is_stmt
    2514 00000239 D03D          MOVB      XAR0,#61              ; [CPU_] |775| 
    2515 0000023a CDA9          AND       AH,AL,#0x0800         ; [CPU_] |775| 
         0000023b 0800 
    2516 0000023c 9794          MOV       *+XAR4[AR0],AH        ; [CPU_] |775| 
    2517                      .dwpsn  file "D:/Foc/my_motor/sw/drivers/drvic/ldc1612.c",line 776,column 3,is_stmt
    2518 0000023d D03E          MOVB      XAR0,#62              ; [CPU_] |776| 
    2519 0000023e CDA9          AND       AH,AL,#0x0080         ; [CPU_] |776| 
         0000023f 0080 
    2520 00000240 9794          MOV       *+XAR4[AR0],AH        ; [CPU_] |776| 
    2521                      .dwpsn  file "D:/Foc/my_motor/sw/drivers/drvic/ldc1612.c",line 777,column 3,is_stmt
    2522 00000241 D03F          MOVB      XAR0,#63              ; [CPU_] |777| 
    2523 00000242 CDA9          AND       AH,AL,#0x0040         ; [CPU_] |777| 
         00000243 0040 
    2524 00000244 9794          MOV       *+XAR4[AR0],AH        ; [CPU_] |777| 
    2525                      .dwpsn  file "D:/Foc/my_motor/sw/drivers/drvic/ldc1612.c",line 778,column 3,is_stmt
    2526 00000245 D040          MOVB      XAR0,#64              ; [CPU_] |778| 
    2527 00000246 CDA9          AND       AH,AL,#0x0020         ; [CPU_] |778| 
         00000247 0020 
    2528 00000248 9794          MOV       *+XAR4[AR0],AH        ; [CPU_] |778| 
    2529                      .dwpsn  file "D:/Foc/my_motor/sw/drivers/drvic/ldc1612.c",line 779,column 3,is_stmt
    2530 00000249 D041          MOVB      XAR0,#65              ; [CPU_] |779| 
    2531 0000024a CDA9          AND       AH,AL,#0x0010         ; [CPU_] |779| 
         0000024b 0010 
    2532 0000024c 9794          MOV       *+XAR4[AR0],AH        ; [CPU_] |779| 
    2533                      .dwpsn  file "D:/Foc/my_motor/sw/drivers/drvic/ldc1612.c",line 780,column 3,is_stmt
    2534 0000024d D042          MOVB      XAR0,#66              ; [CPU_] |780| 
    2535 0000024e CDA9          AND       AH,AL,#0x0008         ; [CPU_] |780| 
         0000024f 0008 
    2536 00000250 9794          MOV       *+XAR4[AR0],AH        ; [CPU_] |780| 
    2537                      .dwpsn  file "D:/Foc/my_motor/sw/drivers/drvic/ldc1612.c",line 781,column 3,is_stmt
    2538 00000251 CDA9          AND       AH,AL,#0x0004         ; [CPU_] |781| 
         00000252 0004 
    2539 00000253 D043          MOVB      XAR0,#67              ; [CPU_] |781| 
    2540                      .dwpsn  file "D:/Foc/my_motor/sw/drivers/drvic/ldc1612.c",line 782,column 3,is_stmt
    2541 00000254 9001          ANDB      AL,#1                 ; [CPU_] |782| 
    2542                      .dwpsn  file "D:/Foc/my_motor/sw/drivers/drvic/ldc1612.c",line 781,column 3,is_stmt
    2543 00000255 9794          MOV       *+XAR4[AR0],AH        ; [CPU_] |781| 
    2544                      .dwpsn  file "D:/Foc/my_motor/sw/drivers/drvic/ldc1612.c",line 782,column 3,is_stmt
    2545 00000256 D044          MOVB      XAR0,#68              ; [CPU_] |782| 
    2546 00000257 9694          MOV       *+XAR4[AR0],AL        ; [CPU_] |782| 
    2547              $C$DW$217       .dwtag  DW_TAG_TI_branch
    2548                      .dwattr $C$DW$217, DW_AT_low_pc(0x00)
    2549                      .dwattr $C$DW$217, DW_AT_TI_return
    2550 00000258 0006          LRETR     ; [CPU_] 
TMS320C2000 Assembler PC v6.2.5 Mon Jul 10 09:53:39 2017

Tools Copyright (c) 1996-2014 Texas Instruments Incorporated
C:\Users\wmj\AppData\Local\Temp\1375610                              PAGE   49

    2551                      ; return occurs ; [] 
    2552                      .dwattr $C$DW$212, DW_AT_TI_end_file("D:/Foc/my_motor/sw/drivers/drvic/ldc1612.c")
    2553                      .dwattr $C$DW$212, DW_AT_TI_end_line(0x311)
    2554                      .dwattr $C$DW$212, DW_AT_TI_end_column(0x01)
    2555                      .dwendentry
    2556                      .dwendtag $C$DW$212
    2557              
    2558 00000259               .sect   ".text"
    2559                      .clink
    2560                      .global _LDC161x_setConfig
    2561              
    2562              $C$DW$218       .dwtag  DW_TAG_subprogram, DW_AT_name("LDC161x_setConfig")
    2563                      .dwattr $C$DW$218, DW_AT_low_pc(_LDC161x_setConfig)
    2564                      .dwattr $C$DW$218, DW_AT_high_pc(0x00)
    2565                      .dwattr $C$DW$218, DW_AT_TI_symbol_name("_LDC161x_setConfig")
    2566                      .dwattr $C$DW$218, DW_AT_external
    2567                      .dwattr $C$DW$218, DW_AT_TI_begin_file("D:/Foc/my_motor/sw/drivers/drvic/ldc1612.c")
    2568                      .dwattr $C$DW$218, DW_AT_TI_begin_line(0x313)
    2569                      .dwattr $C$DW$218, DW_AT_TI_begin_column(0x06)
    2570                      .dwattr $C$DW$218, DW_AT_TI_max_frame_size(-2)
    2571                      .dwpsn  file "D:/Foc/my_motor/sw/drivers/drvic/ldc1612.c",line 788,column 1,is_stmt,address _LDC161x_
    2572              
    2573                      .dwfde $C$DW$CIE, _LDC161x_setConfig
    2574              $C$DW$219       .dwtag  DW_TAG_formal_parameter, DW_AT_name("handle")
    2575                      .dwattr $C$DW$219, DW_AT_TI_symbol_name("_handle")
    2576                      .dwattr $C$DW$219, DW_AT_type(*$C$DW$T$47)
    2577                      .dwattr $C$DW$219, DW_AT_location[DW_OP_reg12]
    2578              $C$DW$220       .dwtag  DW_TAG_formal_parameter, DW_AT_name("drvData")
    2579                      .dwattr $C$DW$220, DW_AT_TI_symbol_name("_drvData")
    2580                      .dwattr $C$DW$220, DW_AT_type(*$C$DW$T$21)
    2581                      .dwattr $C$DW$220, DW_AT_location[DW_OP_reg0]
    2582              
    2583              ;***************************************************************
    2584              ;* FNAME: _LDC161x_setConfig            FR SIZE:   0           *
    2585              ;*                                                             *
    2586              ;* FUNCTION ENVIRONMENT                                        *
    2587              ;*                                                             *
    2588              ;* FUNCTION PROPERTIES                                         *
    2589              ;*                            0 Parameter,  0 Auto,  0 SOE     *
    2590              ;***************************************************************
    2591              
    2592              _LDC161x_setConfig:
    2593              ;* AR4   assigned to _handle
    2594              $C$DW$221       .dwtag  DW_TAG_variable, DW_AT_name("handle")
    2595                      .dwattr $C$DW$221, DW_AT_TI_symbol_name("_handle")
    2596                      .dwattr $C$DW$221, DW_AT_type(*$C$DW$T$109)
    2597                      .dwattr $C$DW$221, DW_AT_location[DW_OP_reg12]
    2598              ;* AL    assigned to _drvData
    2599              $C$DW$222       .dwtag  DW_TAG_variable, DW_AT_name("drvData")
    2600                      .dwattr $C$DW$222, DW_AT_TI_symbol_name("_drvData")
    2601                      .dwattr $C$DW$222, DW_AT_type(*$C$DW$T$136)
    2602                      .dwattr $C$DW$222, DW_AT_location[DW_OP_reg0]
    2603                      .dwcfi  cfa_offset, -2
    2604                      .dwcfi  save_reg_to_mem, 26, 0
    2605                      .dwcfi  save_reg_to_reg, 78, 26
TMS320C2000 Assembler PC v6.2.5 Mon Jul 10 09:53:39 2017

Tools Copyright (c) 1996-2014 Texas Instruments Incorporated
C:\Users\wmj\AppData\Local\Temp\1375610                              PAGE   50

    2606                      .dwpsn  file "D:/Foc/my_motor/sw/drivers/drvic/ldc1612.c",line 791,column 3,is_stmt
    2607 00000259 D045          MOVB      XAR0,#69              ; [CPU_] |791| 
    2608 0000025a CDA9          AND       AH,AL,#0x4000         ; [CPU_] |791| 
         0000025b 4000 
    2609 0000025c 9794          MOV       *+XAR4[AR0],AH        ; [CPU_] |791| 
    2610                      .dwpsn  file "D:/Foc/my_motor/sw/drivers/drvic/ldc1612.c",line 792,column 3,is_stmt
    2611 0000025d D046          MOVB      XAR0,#70              ; [CPU_] |792| 
    2612 0000025e CDA9          AND       AH,AL,#0x8000         ; [CPU_] |792| 
         0000025f 8000 
    2613 00000260 9794          MOV       *+XAR4[AR0],AH        ; [CPU_] |792| 
    2614                      .dwpsn  file "D:/Foc/my_motor/sw/drivers/drvic/ldc1612.c",line 793,column 3,is_stmt
    2615 00000261 D047          MOVB      XAR0,#71              ; [CPU_] |793| 
    2616 00000262 CDA9          AND       AH,AL,#0x2000         ; [CPU_] |793| 
         00000263 2000 
    2617 00000264 9794          MOV       *+XAR4[AR0],AH        ; [CPU_] |793| 
    2618                      .dwpsn  file "D:/Foc/my_motor/sw/drivers/drvic/ldc1612.c",line 794,column 3,is_stmt
    2619 00000265 D048          MOVB      XAR0,#72              ; [CPU_] |794| 
    2620 00000266 CDA9          AND       AH,AL,#0x1000         ; [CPU_] |794| 
         00000267 1000 
    2621 00000268 9794          MOV       *+XAR4[AR0],AH        ; [CPU_] |794| 
    2622                      .dwpsn  file "D:/Foc/my_motor/sw/drivers/drvic/ldc1612.c",line 795,column 3,is_stmt
    2623 00000269 D049          MOVB      XAR0,#73              ; [CPU_] |795| 
    2624 0000026a CDA9          AND       AH,AL,#0x0800         ; [CPU_] |795| 
         0000026b 0800 
    2625 0000026c 9794          MOV       *+XAR4[AR0],AH        ; [CPU_] |795| 
    2626                      .dwpsn  file "D:/Foc/my_motor/sw/drivers/drvic/ldc1612.c",line 796,column 3,is_stmt
    2627 0000026d D04A          MOVB      XAR0,#74              ; [CPU_] |796| 
    2628 0000026e CDA9          AND       AH,AL,#0x0400         ; [CPU_] |796| 
         0000026f 0400 
    2629 00000270 9794          MOV       *+XAR4[AR0],AH        ; [CPU_] |796| 
    2630                      .dwpsn  file "D:/Foc/my_motor/sw/drivers/drvic/ldc1612.c",line 797,column 3,is_stmt
    2631 00000271 D04B          MOVB      XAR0,#75              ; [CPU_] |797| 
    2632 00000272 CDA9          AND       AH,AL,#0x0200         ; [CPU_] |797| 
         00000273 0200 
    2633 00000274 9794          MOV       *+XAR4[AR0],AH        ; [CPU_] |797| 
    2634                      .dwpsn  file "D:/Foc/my_motor/sw/drivers/drvic/ldc1612.c",line 798,column 3,is_stmt
    2635 00000275 CDA9          AND       AH,AL,#0x0080         ; [CPU_] |798| 
         00000276 0080 
    2636 00000277 D04C          MOVB      XAR0,#76              ; [CPU_] |798| 
    2637                      .dwpsn  file "D:/Foc/my_motor/sw/drivers/drvic/ldc1612.c",line 799,column 3,is_stmt
    2638 00000278 9040          ANDB      AL,#64                ; [CPU_] |799| 
    2639                      .dwpsn  file "D:/Foc/my_motor/sw/drivers/drvic/ldc1612.c",line 798,column 3,is_stmt
    2640 00000279 9794          MOV       *+XAR4[AR0],AH        ; [CPU_] |798| 
    2641                      .dwpsn  file "D:/Foc/my_motor/sw/drivers/drvic/ldc1612.c",line 799,column 3,is_stmt
    2642 0000027a D04D          MOVB      XAR0,#77              ; [CPU_] |799| 
    2643 0000027b 9694          MOV       *+XAR4[AR0],AL        ; [CPU_] |799| 
    2644              $C$DW$223       .dwtag  DW_TAG_TI_branch
    2645                      .dwattr $C$DW$223, DW_AT_low_pc(0x00)
    2646                      .dwattr $C$DW$223, DW_AT_TI_return
    2647 0000027c 0006          LRETR     ; [CPU_] 
    2648                      ; return occurs ; [] 
    2649                      .dwattr $C$DW$218, DW_AT_TI_end_file("D:/Foc/my_motor/sw/drivers/drvic/ldc1612.c")
    2650                      .dwattr $C$DW$218, DW_AT_TI_end_line(0x322)
    2651                      .dwattr $C$DW$218, DW_AT_TI_end_column(0x01)
    2652                      .dwendentry
TMS320C2000 Assembler PC v6.2.5 Mon Jul 10 09:53:39 2017

Tools Copyright (c) 1996-2014 Texas Instruments Incorporated
C:\Users\wmj\AppData\Local\Temp\1375610                              PAGE   51

    2653                      .dwendtag $C$DW$218
    2654              
    2655 0000027d               .sect   ".text"
    2656                      .clink
    2657                      .global _LDC161x_setClkDivs
    2658              
    2659              $C$DW$224       .dwtag  DW_TAG_subprogram, DW_AT_name("LDC161x_setClkDivs")
    2660                      .dwattr $C$DW$224, DW_AT_low_pc(_LDC161x_setClkDivs)
    2661                      .dwattr $C$DW$224, DW_AT_high_pc(0x00)
    2662                      .dwattr $C$DW$224, DW_AT_TI_symbol_name("_LDC161x_setClkDivs")
    2663                      .dwattr $C$DW$224, DW_AT_external
    2664                      .dwattr $C$DW$224, DW_AT_TI_begin_file("D:/Foc/my_motor/sw/drivers/drvic/ldc1612.c")
    2665                      .dwattr $C$DW$224, DW_AT_TI_begin_line(0x2cf)
    2666                      .dwattr $C$DW$224, DW_AT_TI_begin_column(0x06)
    2667                      .dwattr $C$DW$224, DW_AT_TI_max_frame_size(-2)
    2668                      .dwpsn  file "D:/Foc/my_motor/sw/drivers/drvic/ldc1612.c",line 720,column 1,is_stmt,address _LDC161x_
    2669              
    2670                      .dwfde $C$DW$CIE, _LDC161x_setClkDivs
    2671              $C$DW$225       .dwtag  DW_TAG_formal_parameter, DW_AT_name("handle")
    2672                      .dwattr $C$DW$225, DW_AT_TI_symbol_name("_handle")
    2673                      .dwattr $C$DW$225, DW_AT_type(*$C$DW$T$47)
    2674                      .dwattr $C$DW$225, DW_AT_location[DW_OP_reg12]
    2675              $C$DW$226       .dwtag  DW_TAG_formal_parameter, DW_AT_name("Channel")
    2676                      .dwattr $C$DW$226, DW_AT_TI_symbol_name("_Channel")
    2677                      .dwattr $C$DW$226, DW_AT_type(*$C$DW$T$136)
    2678                      .dwattr $C$DW$226, DW_AT_location[DW_OP_reg0]
    2679              $C$DW$227       .dwtag  DW_TAG_formal_parameter, DW_AT_name("drvData")
    2680                      .dwattr $C$DW$227, DW_AT_TI_symbol_name("_drvData")
    2681                      .dwattr $C$DW$227, DW_AT_type(*$C$DW$T$21)
    2682                      .dwattr $C$DW$227, DW_AT_location[DW_OP_reg1]
    2683              
    2684              ;***************************************************************
    2685              ;* FNAME: _LDC161x_setClkDivs           FR SIZE:   0           *
    2686              ;*                                                             *
    2687              ;* FUNCTION ENVIRONMENT                                        *
    2688              ;*                                                             *
    2689              ;* FUNCTION PROPERTIES                                         *
    2690              ;*                            0 Parameter,  0 Auto,  0 SOE     *
    2691              ;***************************************************************
    2692              
    2693              _LDC161x_setClkDivs:
    2694              ;* AR4   assigned to _obj
    2695              $C$DW$228       .dwtag  DW_TAG_variable, DW_AT_name("obj")
    2696                      .dwattr $C$DW$228, DW_AT_TI_symbol_name("_obj")
    2697                      .dwattr $C$DW$228, DW_AT_type(*$C$DW$T$125)
    2698                      .dwattr $C$DW$228, DW_AT_location[DW_OP_reg12]
    2699              ;* AH    assigned to _drvData
    2700              $C$DW$229       .dwtag  DW_TAG_variable, DW_AT_name("drvData")
    2701                      .dwattr $C$DW$229, DW_AT_TI_symbol_name("_drvData")
    2702                      .dwattr $C$DW$229, DW_AT_type(*$C$DW$T$136)
    2703                      .dwattr $C$DW$229, DW_AT_location[DW_OP_reg1]
    2704              ;* AL    assigned to _Channel
    2705              $C$DW$230       .dwtag  DW_TAG_variable, DW_AT_name("Channel")
    2706                      .dwattr $C$DW$230, DW_AT_TI_symbol_name("_Channel")
    2707                      .dwattr $C$DW$230, DW_AT_type(*$C$DW$T$136)
TMS320C2000 Assembler PC v6.2.5 Mon Jul 10 09:53:39 2017

Tools Copyright (c) 1996-2014 Texas Instruments Incorporated
C:\Users\wmj\AppData\Local\Temp\1375610                              PAGE   52

    2708                      .dwattr $C$DW$230, DW_AT_location[DW_OP_reg0]
    2709              ;* AR4   assigned to _handle
    2710              $C$DW$231       .dwtag  DW_TAG_variable, DW_AT_name("handle")
    2711                      .dwattr $C$DW$231, DW_AT_TI_symbol_name("_handle")
    2712                      .dwattr $C$DW$231, DW_AT_type(*$C$DW$T$109)
    2713                      .dwattr $C$DW$231, DW_AT_location[DW_OP_reg12]
    2714                      .dwcfi  cfa_offset, -2
    2715                      .dwcfi  save_reg_to_mem, 26, 0
    2716                      .dwcfi  save_reg_to_reg, 78, 26
    2717                      .dwpsn  file "D:/Foc/my_motor/sw/drivers/drvic/ldc1612.c",line 723,column 3,is_stmt
    2718 0000027d 5200          CMPB      AL,#0                 ; [CPU_] |723| 
    2719 0000027e EC19          BF        $C$L74,EQ             ; [CPU_] |723| 
    2720                      ; branchcc occurs ; [] |723| 
    2721 0000027f 5201          CMPB      AL,#1                 ; [CPU_] |723| 
    2722 00000280 EC11          BF        $C$L73,EQ             ; [CPU_] |723| 
    2723                      ; branchcc occurs ; [] |723| 
    2724 00000281 5202          CMPB      AL,#2                 ; [CPU_] |723| 
    2725 00000282 EC09          BF        $C$L72,EQ             ; [CPU_] |723| 
    2726                      ; branchcc occurs ; [] |723| 
    2727 00000283 5203          CMPB      AL,#3                 ; [CPU_] |723| 
    2728 00000284 ED1B          BF        $C$L76,NEQ            ; [CPU_] |723| 
    2729                      ; branchcc occurs ; [] |723| 
    2730                      .dwpsn  file "D:/Foc/my_motor/sw/drivers/drvic/ldc1612.c",line 738,column 10,is_stmt
    2731 00000285 D02A          MOVB      XAR0,#42              ; [CPU_] |738| 
    2732 00000286 CCA8          AND       AL,AH,#0x03ff         ; [CPU_] |738| 
         00000287 03FF 
    2733 00000288 9694          MOV       *+XAR4[AR0],AL        ; [CPU_] |738| 
    2734                      .dwpsn  file "D:/Foc/my_motor/sw/drivers/drvic/ldc1612.c",line 739,column 10,is_stmt
    2735 00000289 D02B          MOVB      XAR0,#43              ; [CPU_] |739| 
    2736                      .dwpsn  file "D:/Foc/my_motor/sw/drivers/drvic/ldc1612.c",line 740,column 8,is_stmt
    2737 0000028a 6F12          B         $C$L75,UNC            ; [CPU_] |740| 
    2738                      ; branch occurs ; [] |740| 
    2739 0000028b       $C$L72:    
    2740                      .dwpsn  file "D:/Foc/my_motor/sw/drivers/drvic/ldc1612.c",line 734,column 10,is_stmt
    2741 0000028b D028          MOVB      XAR0,#40              ; [CPU_] |734| 
    2742 0000028c CCA8          AND       AL,AH,#0x03ff         ; [CPU_] |734| 
         0000028d 03FF 
    2743 0000028e 9694          MOV       *+XAR4[AR0],AL        ; [CPU_] |734| 
    2744                      .dwpsn  file "D:/Foc/my_motor/sw/drivers/drvic/ldc1612.c",line 735,column 10,is_stmt
    2745 0000028f D029          MOVB      XAR0,#41              ; [CPU_] |735| 
    2746                      .dwpsn  file "D:/Foc/my_motor/sw/drivers/drvic/ldc1612.c",line 736,column 8,is_stmt
    2747 00000290 6F0C          B         $C$L75,UNC            ; [CPU_] |736| 
    2748                      ; branch occurs ; [] |736| 
    2749 00000291       $C$L73:    
    2750                      .dwpsn  file "D:/Foc/my_motor/sw/drivers/drvic/ldc1612.c",line 730,column 10,is_stmt
    2751 00000291 D026          MOVB      XAR0,#38              ; [CPU_] |730| 
    2752 00000292 CCA8          AND       AL,AH,#0x03ff         ; [CPU_] |730| 
         00000293 03FF 
    2753 00000294 9694          MOV       *+XAR4[AR0],AL        ; [CPU_] |730| 
    2754                      .dwpsn  file "D:/Foc/my_motor/sw/drivers/drvic/ldc1612.c",line 731,column 10,is_stmt
    2755 00000295 D027          MOVB      XAR0,#39              ; [CPU_] |731| 
    2756                      .dwpsn  file "D:/Foc/my_motor/sw/drivers/drvic/ldc1612.c",line 732,column 8,is_stmt
    2757 00000296 6F06          B         $C$L75,UNC            ; [CPU_] |732| 
    2758                      ; branch occurs ; [] |732| 
    2759 00000297       $C$L74:    
TMS320C2000 Assembler PC v6.2.5 Mon Jul 10 09:53:39 2017

Tools Copyright (c) 1996-2014 Texas Instruments Incorporated
C:\Users\wmj\AppData\Local\Temp\1375610                              PAGE   53

    2760                      .dwpsn  file "D:/Foc/my_motor/sw/drivers/drvic/ldc1612.c",line 726,column 10,is_stmt
    2761 00000297 D024          MOVB      XAR0,#36              ; [CPU_] |726| 
    2762 00000298 CCA8          AND       AL,AH,#0x03ff         ; [CPU_] |726| 
         00000299 03FF 
    2763 0000029a 9694          MOV       *+XAR4[AR0],AL        ; [CPU_] |726| 
    2764                      .dwpsn  file "D:/Foc/my_motor/sw/drivers/drvic/ldc1612.c",line 727,column 10,is_stmt
    2765 0000029b D025          MOVB      XAR0,#37              ; [CPU_] |727| 
    2766 0000029c       $C$L75:    
    2767 0000029c 92A8          MOV       AL,AH                 ; [CPU_] |727| 
    2768 0000029d FFCB          LSR       AL,12                 ; [CPU_] |727| 
    2769 0000029e 9694          MOV       *+XAR4[AR0],AL        ; [CPU_] |727| 
    2770              $C$L76:    
    2771              $C$DW$232       .dwtag  DW_TAG_TI_branch
    2772                      .dwattr $C$DW$232, DW_AT_low_pc(0x00)
    2773                      .dwattr $C$DW$232, DW_AT_TI_return
    2774 0000029f 0006          LRETR     ; [CPU_] 
    2775                      ; return occurs ; [] 
    2776                      .dwattr $C$DW$224, DW_AT_TI_end_file("D:/Foc/my_motor/sw/drivers/drvic/ldc1612.c")
    2777                      .dwattr $C$DW$224, DW_AT_TI_end_line(0x2e8)
    2778                      .dwattr $C$DW$224, DW_AT_TI_end_column(0x01)
    2779                      .dwendentry
    2780                      .dwendtag $C$DW$224
    2781              
    2782 000002a0               .sect   ".text"
    2783                      .clink
    2784                      .global _LDC161x_setChData_MSB
    2785              
    2786              $C$DW$233       .dwtag  DW_TAG_subprogram, DW_AT_name("LDC161x_setChData_MSB")
    2787                      .dwattr $C$DW$233, DW_AT_low_pc(_LDC161x_setChData_MSB)
    2788                      .dwattr $C$DW$233, DW_AT_high_pc(0x00)
    2789                      .dwattr $C$DW$233, DW_AT_TI_symbol_name("_LDC161x_setChData_MSB")
    2790                      .dwattr $C$DW$233, DW_AT_external
    2791                      .dwattr $C$DW$233, DW_AT_TI_begin_file("D:/Foc/my_motor/sw/drivers/drvic/ldc1612.c")
    2792                      .dwattr $C$DW$233, DW_AT_TI_begin_line(0x253)
    2793                      .dwattr $C$DW$233, DW_AT_TI_begin_column(0x06)
    2794                      .dwattr $C$DW$233, DW_AT_TI_max_frame_size(-2)
    2795                      .dwpsn  file "D:/Foc/my_motor/sw/drivers/drvic/ldc1612.c",line 596,column 1,is_stmt,address _LDC161x_
    2796              
    2797                      .dwfde $C$DW$CIE, _LDC161x_setChData_MSB
    2798              $C$DW$234       .dwtag  DW_TAG_formal_parameter, DW_AT_name("handle")
    2799                      .dwattr $C$DW$234, DW_AT_TI_symbol_name("_handle")
    2800                      .dwattr $C$DW$234, DW_AT_type(*$C$DW$T$47)
    2801                      .dwattr $C$DW$234, DW_AT_location[DW_OP_reg12]
    2802              $C$DW$235       .dwtag  DW_TAG_formal_parameter, DW_AT_name("Channel")
    2803                      .dwattr $C$DW$235, DW_AT_TI_symbol_name("_Channel")
    2804                      .dwattr $C$DW$235, DW_AT_type(*$C$DW$T$136)
    2805                      .dwattr $C$DW$235, DW_AT_location[DW_OP_reg0]
    2806              $C$DW$236       .dwtag  DW_TAG_formal_parameter, DW_AT_name("drvData")
    2807                      .dwattr $C$DW$236, DW_AT_TI_symbol_name("_drvData")
    2808                      .dwattr $C$DW$236, DW_AT_type(*$C$DW$T$21)
    2809                      .dwattr $C$DW$236, DW_AT_location[DW_OP_reg1]
    2810              
    2811              ;***************************************************************
    2812              ;* FNAME: _LDC161x_setChData_MSB        FR SIZE:   0           *
    2813              ;*                                                             *
TMS320C2000 Assembler PC v6.2.5 Mon Jul 10 09:53:39 2017

Tools Copyright (c) 1996-2014 Texas Instruments Incorporated
C:\Users\wmj\AppData\Local\Temp\1375610                              PAGE   54

    2814              ;* FUNCTION ENVIRONMENT                                        *
    2815              ;*                                                             *
    2816              ;* FUNCTION PROPERTIES                                         *
    2817              ;*                            0 Parameter,  0 Auto,  0 SOE     *
    2818              ;***************************************************************
    2819              
    2820              _LDC161x_setChData_MSB:
    2821              ;* AL    assigned to $O$C1
    2822              ;* AL    assigned to $O$C2
    2823              ;* AL    assigned to $O$C3
    2824              ;* AL    assigned to $O$C4
    2825              ;* AR4   assigned to _obj
    2826              $C$DW$237       .dwtag  DW_TAG_variable, DW_AT_name("obj")
    2827                      .dwattr $C$DW$237, DW_AT_TI_symbol_name("_obj")
    2828                      .dwattr $C$DW$237, DW_AT_type(*$C$DW$T$125)
    2829                      .dwattr $C$DW$237, DW_AT_location[DW_OP_reg12]
    2830              ;* AH    assigned to _drvData
    2831              $C$DW$238       .dwtag  DW_TAG_variable, DW_AT_name("drvData")
    2832                      .dwattr $C$DW$238, DW_AT_TI_symbol_name("_drvData")
    2833                      .dwattr $C$DW$238, DW_AT_type(*$C$DW$T$136)
    2834                      .dwattr $C$DW$238, DW_AT_location[DW_OP_reg1]
    2835              ;* AL    assigned to _Channel
    2836              $C$DW$239       .dwtag  DW_TAG_variable, DW_AT_name("Channel")
    2837                      .dwattr $C$DW$239, DW_AT_TI_symbol_name("_Channel")
    2838                      .dwattr $C$DW$239, DW_AT_type(*$C$DW$T$136)
    2839                      .dwattr $C$DW$239, DW_AT_location[DW_OP_reg0]
    2840              ;* AR4   assigned to _handle
    2841              $C$DW$240       .dwtag  DW_TAG_variable, DW_AT_name("handle")
    2842                      .dwattr $C$DW$240, DW_AT_TI_symbol_name("_handle")
    2843                      .dwattr $C$DW$240, DW_AT_type(*$C$DW$T$109)
    2844                      .dwattr $C$DW$240, DW_AT_location[DW_OP_reg12]
    2845                      .dwcfi  cfa_offset, -2
    2846                      .dwcfi  save_reg_to_mem, 26, 0
    2847                      .dwcfi  save_reg_to_reg, 78, 26
    2848                      .dwpsn  file "D:/Foc/my_motor/sw/drivers/drvic/ldc1612.c",line 598,column 3,is_stmt
    2849 000002a0 5200          CMPB      AL,#0                 ; [CPU_] |598| 
    2850 000002a1 EC38          BF        $C$L80,EQ             ; [CPU_] |598| 
    2851                      ; branchcc occurs ; [] |598| 
    2852 000002a2 5201          CMPB      AL,#1                 ; [CPU_] |598| 
    2853 000002a3 EC25          BF        $C$L78,EQ             ; [CPU_] |598| 
    2854                      ; branchcc occurs ; [] |598| 
    2855 000002a4 5202          CMPB      AL,#2                 ; [CPU_] |598| 
    2856 000002a5 EC13          BF        $C$L77,EQ             ; [CPU_] |598| 
    2857                      ; branchcc occurs ; [] |598| 
    2858 000002a6 5203          CMPB      AL,#3                 ; [CPU_] |598| 
    2859 000002a7 ED3F          BF        $C$L81,NEQ            ; [CPU_] |598| 
    2860                      ; branchcc occurs ; [] |598| 
    2861                      .dwpsn  file "D:/Foc/my_motor/sw/drivers/drvic/ldc1612.c",line 622,column 7,is_stmt
    2862 000002a8 D012          MOVB      XAR0,#18              ; [CPU_] |622| 
    2863 000002a9 CCA8          AND       AL,AH,#0x8000         ; [CPU_] |622| 
         000002aa 8000 
    2864 000002ab 9694          MOV       *+XAR4[AR0],AL        ; [CPU_] |622| 
    2865                      .dwpsn  file "D:/Foc/my_motor/sw/drivers/drvic/ldc1612.c",line 623,column 7,is_stmt
    2866 000002ac D013          MOVB      XAR0,#19              ; [CPU_] |623| 
    2867 000002ad CCA8          AND       AL,AH,#0x4000         ; [CPU_] |623| 
TMS320C2000 Assembler PC v6.2.5 Mon Jul 10 09:53:39 2017

Tools Copyright (c) 1996-2014 Texas Instruments Incorporated
C:\Users\wmj\AppData\Local\Temp\1375610                              PAGE   55

         000002ae 4000 
    2868 000002af 9694          MOV       *+XAR4[AR0],AL        ; [CPU_] |623| 
    2869                      .dwpsn  file "D:/Foc/my_motor/sw/drivers/drvic/ldc1612.c",line 624,column 7,is_stmt
    2870 000002b0 D014          MOVB      XAR0,#20              ; [CPU_] |624| 
    2871 000002b1 CCA8          AND       AL,AH,#0x2000         ; [CPU_] |624| 
         000002b2 2000 
    2872 000002b3 9694          MOV       *+XAR4[AR0],AL        ; [CPU_] |624| 
    2873                      .dwpsn  file "D:/Foc/my_motor/sw/drivers/drvic/ldc1612.c",line 625,column 7,is_stmt
    2874 000002b4 D015          MOVB      XAR0,#21              ; [CPU_] |625| 
    2875 000002b5 9694          MOV       *+XAR4[AR0],AL        ; [CPU_] |625| 
    2876                      .dwpsn  file "D:/Foc/my_motor/sw/drivers/drvic/ldc1612.c",line 626,column 7,is_stmt
    2877 000002b6 D016          MOVB      XAR0,#22              ; [CPU_] |626| 
    2878                      .dwpsn  file "D:/Foc/my_motor/sw/drivers/drvic/ldc1612.c",line 627,column 5,is_stmt
    2879 000002b7 6F1E          B         $C$L79,UNC            ; [CPU_] |627| 
    2880                      ; branch occurs ; [] |627| 
    2881 000002b8       $C$L77:    
    2882                      .dwpsn  file "D:/Foc/my_motor/sw/drivers/drvic/ldc1612.c",line 615,column 7,is_stmt
    2883 000002b8 D00C          MOVB      XAR0,#12              ; [CPU_] |615| 
    2884 000002b9 CCA8          AND       AL,AH,#0x8000         ; [CPU_] |615| 
         000002ba 8000 
    2885 000002bb 9694          MOV       *+XAR4[AR0],AL        ; [CPU_] |615| 
    2886                      .dwpsn  file "D:/Foc/my_motor/sw/drivers/drvic/ldc1612.c",line 616,column 7,is_stmt
    2887 000002bc D00D          MOVB      XAR0,#13              ; [CPU_] |616| 
    2888 000002bd CCA8          AND       AL,AH,#0x4000         ; [CPU_] |616| 
         000002be 4000 
    2889 000002bf 9694          MOV       *+XAR4[AR0],AL        ; [CPU_] |616| 
    2890                      .dwpsn  file "D:/Foc/my_motor/sw/drivers/drvic/ldc1612.c",line 617,column 7,is_stmt
    2891 000002c0 D00E          MOVB      XAR0,#14              ; [CPU_] |617| 
    2892 000002c1 CCA8          AND       AL,AH,#0x2000         ; [CPU_] |617| 
         000002c2 2000 
    2893 000002c3 9694          MOV       *+XAR4[AR0],AL        ; [CPU_] |617| 
    2894                      .dwpsn  file "D:/Foc/my_motor/sw/drivers/drvic/ldc1612.c",line 618,column 7,is_stmt
    2895 000002c4 D00F          MOVB      XAR0,#15              ; [CPU_] |618| 
    2896 000002c5 9694          MOV       *+XAR4[AR0],AL        ; [CPU_] |618| 
    2897                      .dwpsn  file "D:/Foc/my_motor/sw/drivers/drvic/ldc1612.c",line 619,column 7,is_stmt
    2898 000002c6 D010          MOVB      XAR0,#16              ; [CPU_] |619| 
    2899                      .dwpsn  file "D:/Foc/my_motor/sw/drivers/drvic/ldc1612.c",line 620,column 5,is_stmt
    2900 000002c7 6F0E          B         $C$L79,UNC            ; [CPU_] |620| 
    2901                      ; branch occurs ; [] |620| 
    2902 000002c8       $C$L78:    
    2903                      .dwpsn  file "D:/Foc/my_motor/sw/drivers/drvic/ldc1612.c",line 608,column 7,is_stmt
    2904 000002c8 CCA8          AND       AL,AH,#0x8000         ; [CPU_] |608| 
         000002c9 8000 
    2905 000002ca 96F4          MOV       *+XAR4[6],AL          ; [CPU_] |608| 
    2906                      .dwpsn  file "D:/Foc/my_motor/sw/drivers/drvic/ldc1612.c",line 610,column 7,is_stmt
    2907 000002cb D008          MOVB      XAR0,#8               ; [CPU_] |610| 
    2908                      .dwpsn  file "D:/Foc/my_motor/sw/drivers/drvic/ldc1612.c",line 609,column 7,is_stmt
    2909 000002cc CCA8          AND       AL,AH,#0x4000         ; [CPU_] |609| 
         000002cd 4000 
    2910 000002ce 96FC          MOV       *+XAR4[7],AL          ; [CPU_] |609| 
    2911                      .dwpsn  file "D:/Foc/my_motor/sw/drivers/drvic/ldc1612.c",line 610,column 7,is_stmt
    2912 000002cf CCA8          AND       AL,AH,#0x2000         ; [CPU_] |610| 
         000002d0 2000 
    2913 000002d1 9694          MOV       *+XAR4[AR0],AL        ; [CPU_] |610| 
    2914                      .dwpsn  file "D:/Foc/my_motor/sw/drivers/drvic/ldc1612.c",line 611,column 7,is_stmt
TMS320C2000 Assembler PC v6.2.5 Mon Jul 10 09:53:39 2017

Tools Copyright (c) 1996-2014 Texas Instruments Incorporated
C:\Users\wmj\AppData\Local\Temp\1375610                              PAGE   56

    2915 000002d2 D009          MOVB      XAR0,#9               ; [CPU_] |611| 
    2916 000002d3 9694          MOV       *+XAR4[AR0],AL        ; [CPU_] |611| 
    2917                      .dwpsn  file "D:/Foc/my_motor/sw/drivers/drvic/ldc1612.c",line 612,column 7,is_stmt
    2918 000002d4 D00A          MOVB      XAR0,#10              ; [CPU_] |612| 
    2919 000002d5       $C$L79:    
    2920 000002d5 CCA8          AND       AL,AH,#0x0fff         ; [CPU_] |612| 
         000002d6 0FFF 
    2921 000002d7 9694          MOV       *+XAR4[AR0],AL        ; [CPU_] |612| 
    2922              $C$DW$241       .dwtag  DW_TAG_TI_branch
    2923                      .dwattr $C$DW$241, DW_AT_low_pc(0x00)
    2924                      .dwattr $C$DW$241, DW_AT_TI_return
    2925 000002d8 0006          LRETR     ; [CPU_] 
    2926                      ; return occurs ; [] 
    2927 000002d9       $C$L80:    
    2928                      .dwpsn  file "D:/Foc/my_motor/sw/drivers/drvic/ldc1612.c",line 601,column 7,is_stmt
    2929 000002d9 CCA8          AND       AL,AH,#0x8000         ; [CPU_] |601| 
         000002da 8000 
    2930 000002db 96C4          MOV       *+XAR4[0],AL          ; [CPU_] |601| 
    2931                      .dwpsn  file "D:/Foc/my_motor/sw/drivers/drvic/ldc1612.c",line 602,column 7,is_stmt
    2932 000002dc CCA8          AND       AL,AH,#0x4000         ; [CPU_] |602| 
         000002dd 4000 
    2933 000002de 96CC          MOV       *+XAR4[1],AL          ; [CPU_] |602| 
    2934                      .dwpsn  file "D:/Foc/my_motor/sw/drivers/drvic/ldc1612.c",line 603,column 7,is_stmt
    2935 000002df CCA8          AND       AL,AH,#0x2000         ; [CPU_] |603| 
         000002e0 2000 
    2936 000002e1 96D4          MOV       *+XAR4[2],AL          ; [CPU_] |603| 
    2937                      .dwpsn  file "D:/Foc/my_motor/sw/drivers/drvic/ldc1612.c",line 604,column 7,is_stmt
    2938 000002e2 96DC          MOV       *+XAR4[3],AL          ; [CPU_] |604| 
    2939                      .dwpsn  file "D:/Foc/my_motor/sw/drivers/drvic/ldc1612.c",line 605,column 7,is_stmt
    2940 000002e3 CCA8          AND       AL,AH,#0x0fff         ; [CPU_] |605| 
         000002e4 0FFF 
    2941 000002e5 96E4          MOV       *+XAR4[4],AL          ; [CPU_] |605| 
    2942              $C$L81:    
    2943              $C$DW$242       .dwtag  DW_TAG_TI_branch
    2944                      .dwattr $C$DW$242, DW_AT_low_pc(0x00)
    2945                      .dwattr $C$DW$242, DW_AT_TI_return
    2946 000002e6 0006          LRETR     ; [CPU_] 
    2947                      ; return occurs ; [] 
    2948                      .dwattr $C$DW$233, DW_AT_TI_end_file("D:/Foc/my_motor/sw/drivers/drvic/ldc1612.c")
    2949                      .dwattr $C$DW$233, DW_AT_TI_end_line(0x279)
    2950                      .dwattr $C$DW$233, DW_AT_TI_end_column(0x01)
    2951                      .dwendentry
    2952                      .dwendtag $C$DW$233
    2953              
    2954 000002e7               .sect   ".text"
    2955                      .clink
    2956                      .global _LDC161x_setChData_LSB
    2957              
    2958              $C$DW$243       .dwtag  DW_TAG_subprogram, DW_AT_name("LDC161x_setChData_LSB")
    2959                      .dwattr $C$DW$243, DW_AT_low_pc(_LDC161x_setChData_LSB)
    2960                      .dwattr $C$DW$243, DW_AT_high_pc(0x00)
    2961                      .dwattr $C$DW$243, DW_AT_TI_symbol_name("_LDC161x_setChData_LSB")
    2962                      .dwattr $C$DW$243, DW_AT_external
    2963                      .dwattr $C$DW$243, DW_AT_TI_begin_file("D:/Foc/my_motor/sw/drivers/drvic/ldc1612.c")
    2964                      .dwattr $C$DW$243, DW_AT_TI_begin_line(0x280)
TMS320C2000 Assembler PC v6.2.5 Mon Jul 10 09:53:39 2017

Tools Copyright (c) 1996-2014 Texas Instruments Incorporated
C:\Users\wmj\AppData\Local\Temp\1375610                              PAGE   57

    2965                      .dwattr $C$DW$243, DW_AT_TI_begin_column(0x06)
    2966                      .dwattr $C$DW$243, DW_AT_TI_max_frame_size(-2)
    2967                      .dwpsn  file "D:/Foc/my_motor/sw/drivers/drvic/ldc1612.c",line 641,column 1,is_stmt,address _LDC161x_
    2968              
    2969                      .dwfde $C$DW$CIE, _LDC161x_setChData_LSB
    2970              $C$DW$244       .dwtag  DW_TAG_formal_parameter, DW_AT_name("handle")
    2971                      .dwattr $C$DW$244, DW_AT_TI_symbol_name("_handle")
    2972                      .dwattr $C$DW$244, DW_AT_type(*$C$DW$T$47)
    2973                      .dwattr $C$DW$244, DW_AT_location[DW_OP_reg12]
    2974              $C$DW$245       .dwtag  DW_TAG_formal_parameter, DW_AT_name("Channel")
    2975                      .dwattr $C$DW$245, DW_AT_TI_symbol_name("_Channel")
    2976                      .dwattr $C$DW$245, DW_AT_type(*$C$DW$T$136)
    2977                      .dwattr $C$DW$245, DW_AT_location[DW_OP_reg0]
    2978              $C$DW$246       .dwtag  DW_TAG_formal_parameter, DW_AT_name("drvData")
    2979                      .dwattr $C$DW$246, DW_AT_TI_symbol_name("_drvData")
    2980                      .dwattr $C$DW$246, DW_AT_type(*$C$DW$T$21)
    2981                      .dwattr $C$DW$246, DW_AT_location[DW_OP_reg1]
    2982              
    2983              ;***************************************************************
    2984              ;* FNAME: _LDC161x_setChData_LSB        FR SIZE:   0           *
    2985              ;*                                                             *
    2986              ;* FUNCTION ENVIRONMENT                                        *
    2987              ;*                                                             *
    2988              ;* FUNCTION PROPERTIES                                         *
    2989              ;*                            0 Parameter,  0 Auto,  0 SOE     *
    2990              ;***************************************************************
    2991              
    2992              _LDC161x_setChData_LSB:
    2993              ;* AR4   assigned to _obj
    2994              $C$DW$247       .dwtag  DW_TAG_variable, DW_AT_name("obj")
    2995                      .dwattr $C$DW$247, DW_AT_TI_symbol_name("_obj")
    2996                      .dwattr $C$DW$247, DW_AT_type(*$C$DW$T$125)
    2997                      .dwattr $C$DW$247, DW_AT_location[DW_OP_reg12]
    2998              ;* AH    assigned to _drvData
    2999              $C$DW$248       .dwtag  DW_TAG_variable, DW_AT_name("drvData")
    3000                      .dwattr $C$DW$248, DW_AT_TI_symbol_name("_drvData")
    3001                      .dwattr $C$DW$248, DW_AT_type(*$C$DW$T$136)
    3002                      .dwattr $C$DW$248, DW_AT_location[DW_OP_reg1]
    3003              ;* AL    assigned to _Channel
    3004              $C$DW$249       .dwtag  DW_TAG_variable, DW_AT_name("Channel")
    3005                      .dwattr $C$DW$249, DW_AT_TI_symbol_name("_Channel")
    3006                      .dwattr $C$DW$249, DW_AT_type(*$C$DW$T$136)
    3007                      .dwattr $C$DW$249, DW_AT_location[DW_OP_reg0]
    3008              ;* AR4   assigned to _handle
    3009              $C$DW$250       .dwtag  DW_TAG_variable, DW_AT_name("handle")
    3010                      .dwattr $C$DW$250, DW_AT_TI_symbol_name("_handle")
    3011                      .dwattr $C$DW$250, DW_AT_type(*$C$DW$T$109)
    3012                      .dwattr $C$DW$250, DW_AT_location[DW_OP_reg12]
    3013                      .dwcfi  cfa_offset, -2
    3014                      .dwcfi  save_reg_to_mem, 26, 0
    3015                      .dwcfi  save_reg_to_reg, 78, 26
    3016                      .dwpsn  file "D:/Foc/my_motor/sw/drivers/drvic/ldc1612.c",line 644,column 3,is_stmt
    3017 000002e7 5200          CMPB      AL,#0                 ; [CPU_] |644| 
    3018 000002e8 EC10          BF        $C$L85,EQ             ; [CPU_] |644| 
    3019                      ; branchcc occurs ; [] |644| 
TMS320C2000 Assembler PC v6.2.5 Mon Jul 10 09:53:39 2017

Tools Copyright (c) 1996-2014 Texas Instruments Incorporated
C:\Users\wmj\AppData\Local\Temp\1375610                              PAGE   58

    3020 000002e9 5201          CMPB      AL,#1                 ; [CPU_] |644| 
    3021 000002ea EC0B          BF        $C$L83,EQ             ; [CPU_] |644| 
    3022                      ; branchcc occurs ; [] |644| 
    3023 000002eb 5202          CMPB      AL,#2                 ; [CPU_] |644| 
    3024 000002ec EC07          BF        $C$L82,EQ             ; [CPU_] |644| 
    3025                      ; branchcc occurs ; [] |644| 
    3026 000002ed 5203          CMPB      AL,#3                 ; [CPU_] |644| 
    3027                      .dwpsn  file "D:/Foc/my_motor/sw/drivers/drvic/ldc1612.c",line 649,column 14,is_stmt
    3028 000002ee 56B1          MOVB      XAR0,#23,EQ           ; [CPU_] |649| 
         000002ef 17A0 
    3029 000002f0 562B          MOV       *+XAR4[AR0],AH,EQ     ; [CPU_] |649| 
         000002f1 0194 
    3030              $C$DW$251       .dwtag  DW_TAG_TI_branch
    3031                      .dwattr $C$DW$251, DW_AT_low_pc(0x00)
    3032                      .dwattr $C$DW$251, DW_AT_TI_return
    3033 000002f2 0006          LRETR     ; [CPU_] 
    3034                      ; return occurs ; [] 
    3035 000002f3       $C$L82:    
    3036                      .dwpsn  file "D:/Foc/my_motor/sw/drivers/drvic/ldc1612.c",line 648,column 14,is_stmt
    3037 000002f3 D011          MOVB      XAR0,#17              ; [CPU_] |648| 
    3038                      .dwpsn  file "D:/Foc/my_motor/sw/drivers/drvic/ldc1612.c",line 648,column 55,is_stmt
    3039 000002f4 6F02          B         $C$L84,UNC            ; [CPU_] |648| 
    3040                      ; branch occurs ; [] |648| 
    3041 000002f5       $C$L83:    
    3042                      .dwpsn  file "D:/Foc/my_motor/sw/drivers/drvic/ldc1612.c",line 647,column 14,is_stmt
    3043 000002f5 D00B          MOVB      XAR0,#11              ; [CPU_] |647| 
    3044 000002f6       $C$L84:    
    3045 000002f6 9794          MOV       *+XAR4[AR0],AH        ; [CPU_] |647| 
    3046              $C$DW$252       .dwtag  DW_TAG_TI_branch
    3047                      .dwattr $C$DW$252, DW_AT_low_pc(0x00)
    3048                      .dwattr $C$DW$252, DW_AT_TI_return
    3049 000002f7 0006          LRETR     ; [CPU_] 
    3050                      ; return occurs ; [] 
    3051 000002f8       $C$L85:    
    3052                      .dwpsn  file "D:/Foc/my_motor/sw/drivers/drvic/ldc1612.c",line 646,column 14,is_stmt
    3053 000002f8 97EC          MOV       *+XAR4[5],AH          ; [CPU_] |646| 
    3054              $C$DW$253       .dwtag  DW_TAG_TI_branch
    3055                      .dwattr $C$DW$253, DW_AT_low_pc(0x00)
    3056                      .dwattr $C$DW$253, DW_AT_TI_return
    3057 000002f9 0006          LRETR     ; [CPU_] 
    3058                      ; return occurs ; [] 
    3059                      .dwattr $C$DW$243, DW_AT_TI_end_file("D:/Foc/my_motor/sw/drivers/drvic/ldc1612.c")
    3060                      .dwattr $C$DW$243, DW_AT_TI_end_line(0x28d)
    3061                      .dwattr $C$DW$243, DW_AT_TI_end_column(0x01)
    3062                      .dwendentry
    3063                      .dwendtag $C$DW$243
    3064              
    3065 000002fa               .sect   ".text"
    3066                      .clink
    3067                      .global _LDC161x_readI2c
    3068              
    3069              $C$DW$254       .dwtag  DW_TAG_subprogram, DW_AT_name("LDC161x_readI2c")
    3070                      .dwattr $C$DW$254, DW_AT_low_pc(_LDC161x_readI2c)
    3071                      .dwattr $C$DW$254, DW_AT_high_pc(0x00)
    3072                      .dwattr $C$DW$254, DW_AT_TI_symbol_name("_LDC161x_readI2c")
TMS320C2000 Assembler PC v6.2.5 Mon Jul 10 09:53:39 2017

Tools Copyright (c) 1996-2014 Texas Instruments Incorporated
C:\Users\wmj\AppData\Local\Temp\1375610                              PAGE   59

    3073                      .dwattr $C$DW$254, DW_AT_external
    3074                      .dwattr $C$DW$254, DW_AT_type(*$C$DW$T$21)
    3075                      .dwattr $C$DW$254, DW_AT_TI_begin_file("D:/Foc/my_motor/sw/drivers/drvic/ldc1612.c")
    3076                      .dwattr $C$DW$254, DW_AT_TI_begin_line(0x54)
    3077                      .dwattr $C$DW$254, DW_AT_TI_begin_column(0x0a)
    3078                      .dwattr $C$DW$254, DW_AT_TI_max_frame_size(-8)
    3079                      .dwpsn  file "D:/Foc/my_motor/sw/drivers/drvic/ldc1612.c",line 85,column 1,is_stmt,address _LDC161x_r
    3080              
    3081                      .dwfde $C$DW$CIE, _LDC161x_readI2c
    3082              $C$DW$255       .dwtag  DW_TAG_variable, DW_AT_name("WaitTimeOut")
    3083                      .dwattr $C$DW$255, DW_AT_TI_symbol_name("_WaitTimeOut$2")
    3084                      .dwattr $C$DW$255, DW_AT_type(*$C$DW$T$27)
    3085                      .dwattr $C$DW$255, DW_AT_location[DW_OP_addr _WaitTimeOut$2]
    3086              $C$DW$256       .dwtag  DW_TAG_formal_parameter, DW_AT_name("handle")
    3087                      .dwattr $C$DW$256, DW_AT_TI_symbol_name("_handle")
    3088                      .dwattr $C$DW$256, DW_AT_type(*$C$DW$T$120)
    3089                      .dwattr $C$DW$256, DW_AT_location[DW_OP_reg12]
    3090              $C$DW$257       .dwtag  DW_TAG_formal_parameter, DW_AT_name("regName")
    3091                      .dwattr $C$DW$257, DW_AT_TI_symbol_name("_regName")
    3092                      .dwattr $C$DW$257, DW_AT_type(*$C$DW$T$94)
    3093                      .dwattr $C$DW$257, DW_AT_location[DW_OP_reg0]
    3094              
    3095              ;***************************************************************
    3096              ;* FNAME: _LDC161x_readI2c              FR SIZE:   6           *
    3097              ;*                                                             *
    3098              ;* FUNCTION ENVIRONMENT                                        *
    3099              ;*                                                             *
    3100              ;* FUNCTION PROPERTIES                                         *
    3101              ;*                            0 Parameter,  1 Auto,  4 SOE     *
    3102              ;***************************************************************
    3103              
    3104              _LDC161x_readI2c:
    3105              ;* AR1   assigned to _regName
    3106              $C$DW$258       .dwtag  DW_TAG_variable, DW_AT_name("regName")
    3107                      .dwattr $C$DW$258, DW_AT_TI_symbol_name("_regName")
    3108                      .dwattr $C$DW$258, DW_AT_type(*$C$DW$T$94)
    3109                      .dwattr $C$DW$258, DW_AT_location[DW_OP_reg6]
    3110              ;* AR2   assigned to _handle
    3111              $C$DW$259       .dwtag  DW_TAG_variable, DW_AT_name("handle")
    3112                      .dwattr $C$DW$259, DW_AT_TI_symbol_name("_handle")
    3113                      .dwattr $C$DW$259, DW_AT_type(*$C$DW$T$121)
    3114                      .dwattr $C$DW$259, DW_AT_location[DW_OP_reg8]
    3115              $C$DW$260       .dwtag  DW_TAG_variable, DW_AT_name("readWord")
    3116                      .dwattr $C$DW$260, DW_AT_TI_symbol_name("_readWord")
    3117                      .dwattr $C$DW$260, DW_AT_type(*$C$DW$T$27)
    3118                      .dwattr $C$DW$260, DW_AT_location[DW_OP_breg20 -1]
    3119                      .dwcfi  cfa_offset, -2
    3120                      .dwcfi  save_reg_to_mem, 26, 0
    3121                      .dwcfi  save_reg_to_reg, 78, 26
    3122 000002fa B2BD          MOVL      *SP++,XAR1            ; [CPU_] 
    3123                      .dwcfi  save_reg_to_mem, 7, 2
    3124                      .dwcfi  cfa_offset, -4
    3125 000002fb AABD          MOVL      *SP++,XAR2            ; [CPU_] 
    3126                      .dwcfi  save_reg_to_mem, 9, 4
    3127                      .dwcfi  cfa_offset, -6
TMS320C2000 Assembler PC v6.2.5 Mon Jul 10 09:53:39 2017

Tools Copyright (c) 1996-2014 Texas Instruments Incorporated
C:\Users\wmj\AppData\Local\Temp\1375610                              PAGE   60

    3128 000002fc FE02          ADDB      SP,#2                 ; [CPU_U] 
    3129                      .dwcfi  cfa_offset, -8
    3130 000002fd 59A9          MOVZ      AR1,AL                ; [CPU_] |85| 
    3131 000002fe 86A4          MOVL      XAR2,XAR4             ; [CPU_] |85| 
    3132                      .dwpsn  file "D:/Foc/my_motor/sw/drivers/drvic/ldc1612.c",line 90,column 3,is_stmt
    3133 000002ff 6F08          B         $C$L87,UNC            ; [CPU_] |90| 
    3134                      ; branch occurs ; [] |90| 
    3135 00000300       $C$L86:    
    3136                      .dwpsn  file "D:/Foc/my_motor/sw/drivers/drvic/ldc1612.c",line 91,column 5,is_stmt
    3137 00000300 8AC2          MOVL      XAR4,*+XAR2[0]        ; [CPU_] |91| 
    3138 00000301 9B00          MOVB      AH,#0                 ; [CPU_] |91| 
    3139 00000302 D501          MOVB      XAR5,#1               ; [CPU_] |91| 
    3140 00000303 28A9          MOV       AL,#3072              ; [CPU_] |91| 
         00000304 0C00 
    3141              $C$DW$261       .dwtag  DW_TAG_TI_branch
    3142                      .dwattr $C$DW$261, DW_AT_low_pc(0x00)
    3143                      .dwattr $C$DW$261, DW_AT_name("_I2C_MasterControl")
    3144                      .dwattr $C$DW$261, DW_AT_TI_call
    3145 00000305 7640!         LCR       #_I2C_MasterControl   ; [CPU_] |91| 
         00000306 0000 
    3146                      ; call occurs [#_I2C_MasterControl] ; [] |91| 
    3147 00000307       $C$L87:    
    3148 00000307 8AC2          MOVL      XAR4,*+XAR2[0]        ; [CPU_] |91| 
    3149              $C$DW$262       .dwtag  DW_TAG_TI_branch
    3150                      .dwattr $C$DW$262, DW_AT_low_pc(0x00)
    3151                      .dwattr $C$DW$262, DW_AT_name("_I2C_isMasterBusy")
    3152                      .dwattr $C$DW$262, DW_AT_TI_call
    3153 00000308 7640!         LCR       #_I2C_isMasterBusy    ; [CPU_] |91| 
         00000309 0000 
    3154                      ; call occurs [#_I2C_isMasterBusy] ; [] |91| 
    3155 0000030a 5200          CMPB      AL,#0                 ; [CPU_] |91| 
    3156 0000030b EDF5          BF        $C$L86,NEQ            ; [CPU_] |91| 
    3157                      ; branchcc occurs ; [] |91| 
    3158                      .dwpsn  file "D:/Foc/my_motor/sw/drivers/drvic/ldc1612.c",line 93,column 4,is_stmt
    3159 0000030c D05E          MOVB      XAR0,#94              ; [CPU_] |93| 
    3160 0000030d 9292          MOV       AL,*+XAR2[AR0]        ; [CPU_] |93| 
    3161 0000030e 5201          CMPB      AL,#1                 ; [CPU_] |93| 
    3162 0000030f 56C1          BF        $C$L102,EQ            ; [CPU_] |93| 
         00000310 0093 
    3163                      ; branchcc occurs ; [] |93| 
    3164 00000311 D05F          MOVB      XAR0,#95              ; [CPU_] |93| 
    3165 00000312 9292          MOV       AL,*+XAR2[AR0]        ; [CPU_] |93| 
    3166 00000313 5201          CMPB      AL,#1                 ; [CPU_] |93| 
    3167 00000314 56C1          BF        $C$L102,EQ            ; [CPU_] |93| 
         00000315 008E 
    3168                      ; branchcc occurs ; [] |93| 
    3169                      .dwpsn  file "D:/Foc/my_motor/sw/drivers/drvic/ldc1612.c",line 98,column 3,is_stmt
    3170 00000316 D05D          MOVB      XAR0,#93              ; [CPU_] |98| 
    3171 00000317 8AC2          MOVL      XAR4,*+XAR2[0]        ; [CPU_] |98| 
    3172 00000318 9292          MOV       AL,*+XAR2[AR0]        ; [CPU_] |98| 
    3173              $C$DW$263       .dwtag  DW_TAG_TI_branch
    3174                      .dwattr $C$DW$263, DW_AT_low_pc(0x00)
    3175                      .dwattr $C$DW$263, DW_AT_name("_I2C_setMasterSlaveAddr")
    3176                      .dwattr $C$DW$263, DW_AT_TI_call
    3177 00000319 7640!         LCR       #_I2C_setMasterSlaveAddr ; [CPU_] |98| 
TMS320C2000 Assembler PC v6.2.5 Mon Jul 10 09:53:39 2017

Tools Copyright (c) 1996-2014 Texas Instruments Incorporated
C:\Users\wmj\AppData\Local\Temp\1375610                              PAGE   61

         0000031a 0000 
    3178                      ; call occurs [#_I2C_setMasterSlaveAddr] ; [] |98| 
    3179                      .dwpsn  file "D:/Foc/my_motor/sw/drivers/drvic/ldc1612.c",line 99,column 3,is_stmt
    3180 0000031b 9B00          MOVB      AH,#0                 ; [CPU_] |99| 
    3181 0000031c D501          MOVB      XAR5,#1               ; [CPU_] |99| 
    3182 0000031d 28A9          MOV       AL,#11776             ; [CPU_] |99| 
         0000031e 2E00 
    3183 0000031f 8AC2          MOVL      XAR4,*+XAR2[0]        ; [CPU_] |99| 
    3184              $C$DW$264       .dwtag  DW_TAG_TI_branch
    3185                      .dwattr $C$DW$264, DW_AT_low_pc(0x00)
    3186                      .dwattr $C$DW$264, DW_AT_name("_I2C_MasterControl")
    3187                      .dwattr $C$DW$264, DW_AT_TI_call
    3188 00000320 7640!         LCR       #_I2C_MasterControl   ; [CPU_] |99| 
         00000321 0000 
    3189                      ; call occurs [#_I2C_MasterControl] ; [] |99| 
    3190                      .dwpsn  file "D:/Foc/my_motor/sw/drivers/drvic/ldc1612.c",line 100,column 3,is_stmt
    3191 00000322 8AC2          MOVL      XAR4,*+XAR2[0]        ; [CPU_] |100| 
    3192              $C$DW$265       .dwtag  DW_TAG_TI_branch
    3193                      .dwattr $C$DW$265, DW_AT_low_pc(0x00)
    3194                      .dwattr $C$DW$265, DW_AT_name("_I2C_enable")
    3195                      .dwattr $C$DW$265, DW_AT_TI_call
    3196 00000323 7640!         LCR       #_I2C_enable          ; [CPU_] |100| 
         00000324 0000 
    3197                      ; call occurs [#_I2C_enable] ; [] |100| 
    3198                      .dwpsn  file "D:/Foc/my_motor/sw/drivers/drvic/ldc1612.c",line 101,column 3,is_stmt
    3199 00000325 92A1          MOV       AL,AR1                ; [CPU_] |101| 
    3200 00000326 8AC2          MOVL      XAR4,*+XAR2[0]        ; [CPU_] |101| 
    3201              $C$DW$266       .dwtag  DW_TAG_TI_branch
    3202                      .dwattr $C$DW$266, DW_AT_low_pc(0x00)
    3203                      .dwattr $C$DW$266, DW_AT_name("_I2C_putData")
    3204                      .dwattr $C$DW$266, DW_AT_TI_call
    3205 00000327 7640!         LCR       #_I2C_putData         ; [CPU_] |101| 
         00000328 0000 
    3206                      ; call occurs [#_I2C_putData] ; [] |101| 
    3207 00000329 761F-         MOVW      DP,#_WaitTimeOut$2    ; [CPU_U] 
         0000032a 0000 
    3208                      .dwpsn  file "D:/Foc/my_motor/sw/drivers/drvic/ldc1612.c",line 103,column 3,is_stmt
    3209 0000032b 2B00-         MOV       @_WaitTimeOut$2,#0    ; [CPU_] |103| 
    3210 0000032c       $C$L88:    
    3211                      .dwpsn  file "D:/Foc/my_motor/sw/drivers/drvic/ldc1612.c",line 104,column 9,is_stmt
    3212 0000032c 8AC2          MOVL      XAR4,*+XAR2[0]        ; [CPU_] |104| 
    3213              $C$DW$267       .dwtag  DW_TAG_TI_branch
    3214                      .dwattr $C$DW$267, DW_AT_low_pc(0x00)
    3215                      .dwattr $C$DW$267, DW_AT_name("_I2C_getStatus")
    3216                      .dwattr $C$DW$267, DW_AT_TI_call
    3217 0000032d 7640!         LCR       #_I2C_getStatus       ; [CPU_] |104| 
         0000032e 0000 
    3218                      ; call occurs [#_I2C_getStatus] ; [] |104| 
    3219 0000032f 44A9          TBIT      AL,#4                 ; [CPU_] |104| 
    3220 00000330 EE0B          BF        $C$L89,TC             ; [CPU_] |104| 
    3221                      ; branchcc occurs ; [] |104| 
    3222 00000331 761F-         MOVW      DP,#_WaitTimeOut$2    ; [CPU_U] 
         00000332 0000 
    3223 00000333 1B00-         CMP       @_WaitTimeOut$2,#8191 ; [CPU_] |104| 
         00000334 1FFF 
TMS320C2000 Assembler PC v6.2.5 Mon Jul 10 09:53:39 2017

Tools Copyright (c) 1996-2014 Texas Instruments Incorporated
C:\Users\wmj\AppData\Local\Temp\1375610                              PAGE   62

    3224 00000335 6706          B         $C$L89,HIS            ; [CPU_] |104| 
    3225                      ; branchcc occurs ; [] |104| 
    3226                      .dwpsn  file "D:/Foc/my_motor/sw/drivers/drvic/ldc1612.c",line 107,column 8,is_stmt
    3227 00000336 0A00-         INC       @_WaitTimeOut$2       ; [CPU_] |107| 
    3228 00000337 1B00-         CMP       @_WaitTimeOut$2,#8190 ; [CPU_] |107| 
         00000338 1FFE 
    3229 00000339 69F3          B         $C$L88,LOS            ; [CPU_] |107| 
    3230                      ; branchcc occurs ; [] |107| 
    3231 0000033a 6F12          B         $C$L91,UNC            ; [CPU_] |107| 
    3232                      ; branch occurs ; [] |107| 
    3233 0000033b       $C$L89:    
    3234 0000033b 761F-         MOVW      DP,#_WaitTimeOut$2    ; [CPU_U] 
         0000033c 0000 
    3235                      .dwpsn  file "D:/Foc/my_motor/sw/drivers/drvic/ldc1612.c",line 114,column 3,is_stmt
    3236 0000033d 2B00-         MOV       @_WaitTimeOut$2,#0    ; [CPU_] |114| 
    3237 0000033e       $C$L90:    
    3238                      .dwpsn  file "D:/Foc/my_motor/sw/drivers/drvic/ldc1612.c",line 115,column 9,is_stmt
    3239 0000033e 8AC2          MOVL      XAR4,*+XAR2[0]        ; [CPU_] |115| 
    3240              $C$DW$268       .dwtag  DW_TAG_TI_branch
    3241                      .dwattr $C$DW$268, DW_AT_low_pc(0x00)
    3242                      .dwattr $C$DW$268, DW_AT_name("_I2C_isMasterBusy")
    3243                      .dwattr $C$DW$268, DW_AT_TI_call
    3244 0000033f 7640!         LCR       #_I2C_isMasterBusy    ; [CPU_] |115| 
         00000340 0000 
    3245                      ; call occurs [#_I2C_isMasterBusy] ; [] |115| 
    3246 00000341 5200          CMPB      AL,#0                 ; [CPU_] |115| 
    3247 00000342 EC0C          BF        $C$L92,EQ             ; [CPU_] |115| 
    3248                      ; branchcc occurs ; [] |115| 
    3249 00000343 761F-         MOVW      DP,#_WaitTimeOut$2    ; [CPU_U] 
         00000344 0000 
    3250 00000345 1B00-         CMP       @_WaitTimeOut$2,#8191 ; [CPU_] |115| 
         00000346 1FFF 
    3251 00000347 6707          B         $C$L92,HIS            ; [CPU_] |115| 
    3252                      ; branchcc occurs ; [] |115| 
    3253                      .dwpsn  file "D:/Foc/my_motor/sw/drivers/drvic/ldc1612.c",line 118,column 8,is_stmt
    3254 00000348 0A00-         INC       @_WaitTimeOut$2       ; [CPU_] |118| 
    3255 00000349 1B00-         CMP       @_WaitTimeOut$2,#8190 ; [CPU_] |118| 
         0000034a 1FFE 
    3256 0000034b 69F3          B         $C$L90,LOS            ; [CPU_] |118| 
    3257                      ; branchcc occurs ; [] |118| 
    3258 0000034c       $C$L91:    
    3259                      .dwpsn  file "D:/Foc/my_motor/sw/drivers/drvic/ldc1612.c",line 120,column 10,is_stmt
    3260 0000034c D05F          MOVB      XAR0,#95              ; [CPU_] |120| 
    3261                      .dwpsn  file "D:/Foc/my_motor/sw/drivers/drvic/ldc1612.c",line 121,column 10,is_stmt
    3262 0000034d 6F53          B         $C$L101,UNC           ; [CPU_] |121| 
    3263                      ; branch occurs ; [] |121| 
    3264 0000034e       $C$L92:    
    3265                      .dwpsn  file "D:/Foc/my_motor/sw/drivers/drvic/ldc1612.c",line 125,column 3,is_stmt
    3266 0000034e D05D          MOVB      XAR0,#93              ; [CPU_] |125| 
    3267 0000034f 8AC2          MOVL      XAR4,*+XAR2[0]        ; [CPU_] |125| 
    3268 00000350 9292          MOV       AL,*+XAR2[AR0]        ; [CPU_] |125| 
    3269              $C$DW$269       .dwtag  DW_TAG_TI_branch
    3270                      .dwattr $C$DW$269, DW_AT_low_pc(0x00)
    3271                      .dwattr $C$DW$269, DW_AT_name("_I2C_setMasterSlaveAddr")
    3272                      .dwattr $C$DW$269, DW_AT_TI_call
TMS320C2000 Assembler PC v6.2.5 Mon Jul 10 09:53:39 2017

Tools Copyright (c) 1996-2014 Texas Instruments Incorporated
C:\Users\wmj\AppData\Local\Temp\1375610                              PAGE   63

    3273 00000351 7640!         LCR       #_I2C_setMasterSlaveAddr ; [CPU_] |125| 
         00000352 0000 
    3274                      ; call occurs [#_I2C_setMasterSlaveAddr] ; [] |125| 
    3275                      .dwpsn  file "D:/Foc/my_motor/sw/drivers/drvic/ldc1612.c",line 126,column 3,is_stmt
    3276 00000353 9B00          MOVB      AH,#0                 ; [CPU_] |126| 
    3277 00000354 D502          MOVB      XAR5,#2               ; [CPU_] |126| 
    3278 00000355 28A9          MOV       AL,#11264             ; [CPU_] |126| 
         00000356 2C00 
    3279 00000357 8AC2          MOVL      XAR4,*+XAR2[0]        ; [CPU_] |126| 
    3280              $C$DW$270       .dwtag  DW_TAG_TI_branch
    3281                      .dwattr $C$DW$270, DW_AT_low_pc(0x00)
    3282                      .dwattr $C$DW$270, DW_AT_name("_I2C_MasterControl")
    3283                      .dwattr $C$DW$270, DW_AT_TI_call
    3284 00000358 7640!         LCR       #_I2C_MasterControl   ; [CPU_] |126| 
         00000359 0000 
    3285                      ; call occurs [#_I2C_MasterControl] ; [] |126| 
    3286                      .dwpsn  file "D:/Foc/my_motor/sw/drivers/drvic/ldc1612.c",line 127,column 3,is_stmt
    3287 0000035a 8AC2          MOVL      XAR4,*+XAR2[0]        ; [CPU_] |127| 
    3288              $C$DW$271       .dwtag  DW_TAG_TI_branch
    3289                      .dwattr $C$DW$271, DW_AT_low_pc(0x00)
    3290                      .dwattr $C$DW$271, DW_AT_name("_I2C_enable")
    3291                      .dwattr $C$DW$271, DW_AT_TI_call
    3292 0000035b 7640!         LCR       #_I2C_enable          ; [CPU_] |127| 
         0000035c 0000 
    3293                      ; call occurs [#_I2C_enable] ; [] |127| 
    3294 0000035d 761F-         MOVW      DP,#_WaitTimeOut$2    ; [CPU_U] 
         0000035e 0000 
    3295                      .dwpsn  file "D:/Foc/my_motor/sw/drivers/drvic/ldc1612.c",line 129,column 3,is_stmt
    3296 0000035f 2B00-         MOV       @_WaitTimeOut$2,#0    ; [CPU_] |129| 
    3297 00000360       $C$L93:    
    3298                      .dwpsn  file "D:/Foc/my_motor/sw/drivers/drvic/ldc1612.c",line 130,column 9,is_stmt
    3299 00000360 8AC2          MOVL      XAR4,*+XAR2[0]        ; [CPU_] |130| 
    3300              $C$DW$272       .dwtag  DW_TAG_TI_branch
    3301                      .dwattr $C$DW$272, DW_AT_low_pc(0x00)
    3302                      .dwattr $C$DW$272, DW_AT_name("_I2C_getStatus")
    3303                      .dwattr $C$DW$272, DW_AT_TI_call
    3304 00000361 7640!         LCR       #_I2C_getStatus       ; [CPU_] |130| 
         00000362 0000 
    3305                      ; call occurs [#_I2C_getStatus] ; [] |130| 
    3306 00000363 43A9          TBIT      AL,#3                 ; [CPU_] |130| 
    3307 00000364 EE0B          BF        $C$L94,TC             ; [CPU_] |130| 
    3308                      ; branchcc occurs ; [] |130| 
    3309 00000365 761F-         MOVW      DP,#_WaitTimeOut$2    ; [CPU_U] 
         00000366 0000 
    3310 00000367 1B00-         CMP       @_WaitTimeOut$2,#8191 ; [CPU_] |130| 
         00000368 1FFF 
    3311 00000369 6706          B         $C$L94,HIS            ; [CPU_] |130| 
    3312                      ; branchcc occurs ; [] |130| 
    3313                      .dwpsn  file "D:/Foc/my_motor/sw/drivers/drvic/ldc1612.c",line 133,column 8,is_stmt
    3314 0000036a 0A00-         INC       @_WaitTimeOut$2       ; [CPU_] |133| 
    3315 0000036b 1B00-         CMP       @_WaitTimeOut$2,#8190 ; [CPU_] |133| 
         0000036c 1FFE 
    3316 0000036d 69F3          B         $C$L93,LOS            ; [CPU_] |133| 
    3317                      ; branchcc occurs ; [] |133| 
    3318 0000036e 6F31          B         $C$L100,UNC           ; [CPU_] |133| 
TMS320C2000 Assembler PC v6.2.5 Mon Jul 10 09:53:39 2017

Tools Copyright (c) 1996-2014 Texas Instruments Incorporated
C:\Users\wmj\AppData\Local\Temp\1375610                              PAGE   64

    3319                      ; branch occurs ; [] |133| 
    3320 0000036f       $C$L94:    
    3321                      .dwpsn  file "D:/Foc/my_motor/sw/drivers/drvic/ldc1612.c",line 140,column 3,is_stmt
    3322 0000036f 8AC2          MOVL      XAR4,*+XAR2[0]        ; [CPU_] |140| 
    3323              $C$DW$273       .dwtag  DW_TAG_TI_branch
    3324                      .dwattr $C$DW$273, DW_AT_low_pc(0x00)
    3325                      .dwattr $C$DW$273, DW_AT_name("_I2C_getData")
    3326                      .dwattr $C$DW$273, DW_AT_TI_call
    3327 00000370 7640!         LCR       #_I2C_getData         ; [CPU_] |140| 
         00000371 0000 
    3328                      ; call occurs [#_I2C_getData] ; [] |140| 
    3329 00000372 761F-         MOVW      DP,#_WaitTimeOut$2    ; [CPU_U] 
         00000373 0000 
    3330 00000374 9641          MOV       *-SP[1],AL            ; [CPU_] |140| 
    3331                      .dwpsn  file "D:/Foc/my_motor/sw/drivers/drvic/ldc1612.c",line 141,column 3,is_stmt
    3332 00000375 5603          MOV       ACC,*-SP[1] << #8     ; [CPU_] |141| 
         00000376 0841 
    3333 00000377 9641          MOV       *-SP[1],AL            ; [CPU_] |141| 
    3334                      .dwpsn  file "D:/Foc/my_motor/sw/drivers/drvic/ldc1612.c",line 143,column 3,is_stmt
    3335 00000378 2B00-         MOV       @_WaitTimeOut$2,#0    ; [CPU_] |143| 
    3336 00000379       $C$L95:    
    3337                      .dwpsn  file "D:/Foc/my_motor/sw/drivers/drvic/ldc1612.c",line 144,column 9,is_stmt
    3338 00000379 8AC2          MOVL      XAR4,*+XAR2[0]        ; [CPU_] |144| 
    3339              $C$DW$274       .dwtag  DW_TAG_TI_branch
    3340                      .dwattr $C$DW$274, DW_AT_low_pc(0x00)
    3341                      .dwattr $C$DW$274, DW_AT_name("_I2C_getStatus")
    3342                      .dwattr $C$DW$274, DW_AT_TI_call
    3343 0000037a 7640!         LCR       #_I2C_getStatus       ; [CPU_] |144| 
         0000037b 0000 
    3344                      ; call occurs [#_I2C_getStatus] ; [] |144| 
    3345 0000037c 43A9          TBIT      AL,#3                 ; [CPU_] |144| 
    3346 0000037d EE0B          BF        $C$L96,TC             ; [CPU_] |144| 
    3347                      ; branchcc occurs ; [] |144| 
    3348 0000037e 761F-         MOVW      DP,#_WaitTimeOut$2    ; [CPU_U] 
         0000037f 0000 
    3349 00000380 1B00-         CMP       @_WaitTimeOut$2,#8191 ; [CPU_] |144| 
         00000381 1FFF 
    3350 00000382 6706          B         $C$L96,HIS            ; [CPU_] |144| 
    3351                      ; branchcc occurs ; [] |144| 
    3352                      .dwpsn  file "D:/Foc/my_motor/sw/drivers/drvic/ldc1612.c",line 147,column 8,is_stmt
    3353 00000383 0A00-         INC       @_WaitTimeOut$2       ; [CPU_] |147| 
    3354 00000384 1B00-         CMP       @_WaitTimeOut$2,#8190 ; [CPU_] |147| 
         00000385 1FFE 
    3355 00000386 69F3          B         $C$L95,LOS            ; [CPU_] |147| 
    3356                      ; branchcc occurs ; [] |147| 
    3357 00000387 6F18          B         $C$L100,UNC           ; [CPU_] |147| 
    3358                      ; branch occurs ; [] |147| 
    3359 00000388       $C$L96:    
    3360                      .dwpsn  file "D:/Foc/my_motor/sw/drivers/drvic/ldc1612.c",line 154,column 3,is_stmt
    3361 00000388 8AC2          MOVL      XAR4,*+XAR2[0]        ; [CPU_] |154| 
    3362              $C$DW$275       .dwtag  DW_TAG_TI_branch
    3363                      .dwattr $C$DW$275, DW_AT_low_pc(0x00)
    3364                      .dwattr $C$DW$275, DW_AT_name("_I2C_getData")
    3365                      .dwattr $C$DW$275, DW_AT_TI_call
    3366 00000389 7640!         LCR       #_I2C_getData         ; [CPU_] |154| 
TMS320C2000 Assembler PC v6.2.5 Mon Jul 10 09:53:39 2017

Tools Copyright (c) 1996-2014 Texas Instruments Incorporated
C:\Users\wmj\AppData\Local\Temp\1375610                              PAGE   65

         0000038a 0000 
    3367                      ; call occurs [#_I2C_getData] ; [] |154| 
    3368 0000038b 761F-         MOVW      DP,#_WaitTimeOut$2    ; [CPU_U] 
         0000038c 0000 
    3369 0000038d 9841          OR        *-SP[1],AL            ; [CPU_] |154| 
    3370                      .dwpsn  file "D:/Foc/my_motor/sw/drivers/drvic/ldc1612.c",line 156,column 3,is_stmt
    3371 0000038e 2B00-         MOV       @_WaitTimeOut$2,#0    ; [CPU_] |156| 
    3372 0000038f       $C$L97:    
    3373                      .dwpsn  file "D:/Foc/my_motor/sw/drivers/drvic/ldc1612.c",line 157,column 9,is_stmt
    3374 0000038f 8AC2          MOVL      XAR4,*+XAR2[0]        ; [CPU_] |157| 
    3375              $C$DW$276       .dwtag  DW_TAG_TI_branch
    3376                      .dwattr $C$DW$276, DW_AT_low_pc(0x00)
    3377                      .dwattr $C$DW$276, DW_AT_name("_I2C_getStatus")
    3378                      .dwattr $C$DW$276, DW_AT_TI_call
    3379 00000390 7640!         LCR       #_I2C_getStatus       ; [CPU_] |157| 
         00000391 0000 
    3380                      ; call occurs [#_I2C_getStatus] ; [] |157| 
    3381 00000392 45A9          TBIT      AL,#5                 ; [CPU_] |157| 
    3382 00000393 EE06          BF        $C$L98,TC             ; [CPU_] |157| 
    3383                      ; branchcc occurs ; [] |157| 
    3384 00000394 761F-         MOVW      DP,#_WaitTimeOut$2    ; [CPU_U] 
         00000395 0000 
    3385 00000396 1B00-         CMP       @_WaitTimeOut$2,#8191 ; [CPU_] |157| 
         00000397 1FFF 
    3386 00000398 6803          B         $C$L99,LO             ; [CPU_] |157| 
    3387                      ; branchcc occurs ; [] |157| 
    3388 00000399       $C$L98:    
    3389                      .dwpsn  file "D:/Foc/my_motor/sw/drivers/drvic/ldc1612.c",line 167,column 3,is_stmt
    3390 00000399 9241          MOV       AL,*-SP[1]            ; [CPU_] |167| 
    3391 0000039a 6F09          B         $C$L103,UNC           ; [CPU_] |167| 
    3392                      ; branch occurs ; [] |167| 
    3393 0000039b       $C$L99:    
    3394                      .dwpsn  file "D:/Foc/my_motor/sw/drivers/drvic/ldc1612.c",line 160,column 8,is_stmt
    3395 0000039b 0A00-         INC       @_WaitTimeOut$2       ; [CPU_] |160| 
    3396 0000039c 1B00-         CMP       @_WaitTimeOut$2,#8190 ; [CPU_] |160| 
         0000039d 1FFE 
    3397 0000039e 69F1          B         $C$L97,LOS            ; [CPU_] |160| 
    3398                      ; branchcc occurs ; [] |160| 
    3399 0000039f       $C$L100:    
    3400                      .dwpsn  file "D:/Foc/my_motor/sw/drivers/drvic/ldc1612.c",line 162,column 10,is_stmt
    3401 0000039f D05E          MOVB      XAR0,#94              ; [CPU_] |162| 
    3402 000003a0       $C$L101:    
    3403 000003a0 56BF          MOVB      *+XAR2[AR0],#1,UNC    ; [CPU_] |162| 
         000003a1 0192 
    3404 000003a2       $C$L102:    
    3405                      .dwpsn  file "D:/Foc/my_motor/sw/drivers/drvic/ldc1612.c",line 163,column 10,is_stmt
    3406 000003a2 9A00          MOVB      AL,#0                 ; [CPU_] |163| 
    3407 000003a3       $C$L103:    
    3408 000003a3 FE82          SUBB      SP,#2                 ; [CPU_U] 
    3409                      .dwcfi  cfa_offset, -6
    3410 000003a4 86BE          MOVL      XAR2,*--SP            ; [CPU_] 
    3411                      .dwcfi  cfa_offset, -4
    3412                      .dwcfi  restore_reg, 9
    3413 000003a5 8BBE          MOVL      XAR1,*--SP            ; [CPU_] 
    3414                      .dwcfi  cfa_offset, -2
TMS320C2000 Assembler PC v6.2.5 Mon Jul 10 09:53:39 2017

Tools Copyright (c) 1996-2014 Texas Instruments Incorporated
C:\Users\wmj\AppData\Local\Temp\1375610                              PAGE   66

    3415                      .dwcfi  restore_reg, 7
    3416              $C$DW$277       .dwtag  DW_TAG_TI_branch
    3417                      .dwattr $C$DW$277, DW_AT_low_pc(0x00)
    3418                      .dwattr $C$DW$277, DW_AT_TI_return
    3419 000003a6 0006          LRETR     ; [CPU_] 
    3420                      ; return occurs ; [] 
    3421                      .dwattr $C$DW$254, DW_AT_TI_end_file("D:/Foc/my_motor/sw/drivers/drvic/ldc1612.c")
    3422                      .dwattr $C$DW$254, DW_AT_TI_end_line(0xa9)
    3423                      .dwattr $C$DW$254, DW_AT_TI_end_column(0x01)
    3424                      .dwendentry
    3425                      .dwendtag $C$DW$254
    3426              
    3427 000003a7               .sect   ".text"
    3428                      .clink
    3429                      .global _LDC161x_readStatus
    3430              
    3431              $C$DW$278       .dwtag  DW_TAG_subprogram, DW_AT_name("LDC161x_readStatus")
    3432                      .dwattr $C$DW$278, DW_AT_low_pc(_LDC161x_readStatus)
    3433                      .dwattr $C$DW$278, DW_AT_high_pc(0x00)
    3434                      .dwattr $C$DW$278, DW_AT_TI_symbol_name("_LDC161x_readStatus")
    3435                      .dwattr $C$DW$278, DW_AT_external
    3436                      .dwattr $C$DW$278, DW_AT_TI_begin_file("D:/Foc/my_motor/sw/drivers/drvic/ldc1612.c")
    3437                      .dwattr $C$DW$278, DW_AT_TI_begin_line(0x163)
    3438                      .dwattr $C$DW$278, DW_AT_TI_begin_column(0x06)
    3439                      .dwattr $C$DW$278, DW_AT_TI_max_frame_size(-4)
    3440                      .dwpsn  file "D:/Foc/my_motor/sw/drivers/drvic/ldc1612.c",line 356,column 1,is_stmt,address _LDC161x_
    3441              
    3442                      .dwfde $C$DW$CIE, _LDC161x_readStatus
    3443              $C$DW$279       .dwtag  DW_TAG_formal_parameter, DW_AT_name("handle")
    3444                      .dwattr $C$DW$279, DW_AT_TI_symbol_name("_handle")
    3445                      .dwattr $C$DW$279, DW_AT_type(*$C$DW$T$120)
    3446                      .dwattr $C$DW$279, DW_AT_location[DW_OP_reg12]
    3447              
    3448              ;***************************************************************
    3449              ;* FNAME: _LDC161x_readStatus           FR SIZE:   2           *
    3450              ;*                                                             *
    3451              ;* FUNCTION ENVIRONMENT                                        *
    3452              ;*                                                             *
    3453              ;* FUNCTION PROPERTIES                                         *
    3454              ;*                            0 Parameter,  0 Auto,  2 SOE     *
    3455              ;***************************************************************
    3456              
    3457              _LDC161x_readStatus:
    3458              ;* AR1   assigned to _handle
    3459              $C$DW$280       .dwtag  DW_TAG_variable, DW_AT_name("handle")
    3460                      .dwattr $C$DW$280, DW_AT_TI_symbol_name("_handle")
    3461                      .dwattr $C$DW$280, DW_AT_type(*$C$DW$T$121)
    3462                      .dwattr $C$DW$280, DW_AT_location[DW_OP_reg6]
    3463              ;* AL    assigned to _drvDataNew
    3464              $C$DW$281       .dwtag  DW_TAG_variable, DW_AT_name("drvDataNew")
    3465                      .dwattr $C$DW$281, DW_AT_TI_symbol_name("_drvDataNew")
    3466                      .dwattr $C$DW$281, DW_AT_type(*$C$DW$T$21)
    3467                      .dwattr $C$DW$281, DW_AT_location[DW_OP_reg0]
    3468                      .dwcfi  cfa_offset, -2
    3469                      .dwcfi  save_reg_to_mem, 26, 0
TMS320C2000 Assembler PC v6.2.5 Mon Jul 10 09:53:39 2017

Tools Copyright (c) 1996-2014 Texas Instruments Incorporated
C:\Users\wmj\AppData\Local\Temp\1375610                              PAGE   67

    3470                      .dwcfi  save_reg_to_reg, 78, 26
    3471 000003a7 B2BD          MOVL      *SP++,XAR1            ; [CPU_] 
    3472                      .dwcfi  save_reg_to_mem, 7, 2
    3473                      .dwcfi  cfa_offset, -4
    3474                      .dwpsn  file "D:/Foc/my_motor/sw/drivers/drvic/ldc1612.c",line 362,column 3,is_stmt
    3475 000003a8 9A18          MOVB      AL,#24                ; [CPU_] |362| 
    3476                      .dwpsn  file "D:/Foc/my_motor/sw/drivers/drvic/ldc1612.c",line 356,column 1,is_stmt
    3477 000003a9 8BA4          MOVL      XAR1,XAR4             ; [CPU_] |356| 
    3478                      .dwpsn  file "D:/Foc/my_motor/sw/drivers/drvic/ldc1612.c",line 362,column 3,is_stmt
    3479              $C$DW$282       .dwtag  DW_TAG_TI_branch
    3480                      .dwattr $C$DW$282, DW_AT_low_pc(0x00)
    3481                      .dwattr $C$DW$282, DW_AT_name("_LDC161x_readI2c")
    3482                      .dwattr $C$DW$282, DW_AT_TI_call
    3483 000003aa 7640'         LCR       #_LDC161x_readI2c     ; [CPU_] |362| 
         000003ab 02FA 
    3484                      ; call occurs [#_LDC161x_readI2c] ; [] |362| 
    3485                      .dwpsn  file "D:/Foc/my_motor/sw/drivers/drvic/ldc1612.c",line 363,column 3,is_stmt
    3486 000003ac 8AE1          MOVL      XAR4,*+XAR1[4]        ; [CPU_] |363| 
    3487              $C$DW$283       .dwtag  DW_TAG_TI_branch
    3488                      .dwattr $C$DW$283, DW_AT_low_pc(0x00)
    3489                      .dwattr $C$DW$283, DW_AT_name("_LDC161x_setStatus")
    3490                      .dwattr $C$DW$283, DW_AT_TI_call
    3491 000003ad 7640'         LCR       #_LDC161x_setStatus   ; [CPU_] |363| 
         000003ae 019F 
    3492                      ; call occurs [#_LDC161x_setStatus] ; [] |363| 
    3493 000003af 8BBE          MOVL      XAR1,*--SP            ; [CPU_] 
    3494                      .dwcfi  cfa_offset, -2
    3495                      .dwcfi  restore_reg, 7
    3496              $C$DW$284       .dwtag  DW_TAG_TI_branch
    3497                      .dwattr $C$DW$284, DW_AT_low_pc(0x00)
    3498                      .dwattr $C$DW$284, DW_AT_TI_return
    3499 000003b0 0006          LRETR     ; [CPU_] 
    3500                      ; return occurs ; [] 
    3501                      .dwattr $C$DW$278, DW_AT_TI_end_file("D:/Foc/my_motor/sw/drivers/drvic/ldc1612.c")
    3502                      .dwattr $C$DW$278, DW_AT_TI_end_line(0x16e)
    3503                      .dwattr $C$DW$278, DW_AT_TI_end_column(0x01)
    3504                      .dwendentry
    3505                      .dwendtag $C$DW$278
    3506              
    3507 000003b1               .sect   ".text"
    3508                      .clink
    3509                      .global _LDC161x_readSettleCnt
    3510              
    3511              $C$DW$285       .dwtag  DW_TAG_subprogram, DW_AT_name("LDC161x_readSettleCnt")
    3512                      .dwattr $C$DW$285, DW_AT_low_pc(_LDC161x_readSettleCnt)
    3513                      .dwattr $C$DW$285, DW_AT_high_pc(0x00)
    3514                      .dwattr $C$DW$285, DW_AT_TI_symbol_name("_LDC161x_readSettleCnt")
    3515                      .dwattr $C$DW$285, DW_AT_external
    3516                      .dwattr $C$DW$285, DW_AT_TI_begin_file("D:/Foc/my_motor/sw/drivers/drvic/ldc1612.c")
    3517                      .dwattr $C$DW$285, DW_AT_TI_begin_line(0x11f)
    3518                      .dwattr $C$DW$285, DW_AT_TI_begin_column(0x06)
    3519                      .dwattr $C$DW$285, DW_AT_TI_max_frame_size(-6)
    3520                      .dwpsn  file "D:/Foc/my_motor/sw/drivers/drvic/ldc1612.c",line 288,column 1,is_stmt,address _LDC161x_
    3521              
    3522                      .dwfde $C$DW$CIE, _LDC161x_readSettleCnt
TMS320C2000 Assembler PC v6.2.5 Mon Jul 10 09:53:39 2017

Tools Copyright (c) 1996-2014 Texas Instruments Incorporated
C:\Users\wmj\AppData\Local\Temp\1375610                              PAGE   68

    3523              $C$DW$286       .dwtag  DW_TAG_formal_parameter, DW_AT_name("handle")
    3524                      .dwattr $C$DW$286, DW_AT_TI_symbol_name("_handle")
    3525                      .dwattr $C$DW$286, DW_AT_type(*$C$DW$T$120)
    3526                      .dwattr $C$DW$286, DW_AT_location[DW_OP_reg12]
    3527              $C$DW$287       .dwtag  DW_TAG_formal_parameter, DW_AT_name("ChannelNum")
    3528                      .dwattr $C$DW$287, DW_AT_TI_symbol_name("_ChannelNum")
    3529                      .dwattr $C$DW$287, DW_AT_type(*$C$DW$T$96)
    3530                      .dwattr $C$DW$287, DW_AT_location[DW_OP_reg0]
    3531              
    3532              ;***************************************************************
    3533              ;* FNAME: _LDC161x_readSettleCnt        FR SIZE:   4           *
    3534              ;*                                                             *
    3535              ;* FUNCTION ENVIRONMENT                                        *
    3536              ;*                                                             *
    3537              ;* FUNCTION PROPERTIES                                         *
    3538              ;*                            0 Parameter,  0 Auto,  4 SOE     *
    3539              ;***************************************************************
    3540              
    3541              _LDC161x_readSettleCnt:
    3542              ;* AR2   assigned to _ChNum
    3543              $C$DW$288       .dwtag  DW_TAG_variable, DW_AT_name("ChNum")
    3544                      .dwattr $C$DW$288, DW_AT_TI_symbol_name("_ChNum")
    3545                      .dwattr $C$DW$288, DW_AT_type(*$C$DW$T$21)
    3546                      .dwattr $C$DW$288, DW_AT_location[DW_OP_reg8]
    3547              ;* AL    assigned to _drvRegName
    3548              $C$DW$289       .dwtag  DW_TAG_variable, DW_AT_name("drvRegName")
    3549                      .dwattr $C$DW$289, DW_AT_TI_symbol_name("_drvRegName")
    3550                      .dwattr $C$DW$289, DW_AT_type(*$C$DW$T$93)
    3551                      .dwattr $C$DW$289, DW_AT_location[DW_OP_reg0]
    3552              ;* AH    assigned to _drvDataNew
    3553              $C$DW$290       .dwtag  DW_TAG_variable, DW_AT_name("drvDataNew")
    3554                      .dwattr $C$DW$290, DW_AT_TI_symbol_name("_drvDataNew")
    3555                      .dwattr $C$DW$290, DW_AT_type(*$C$DW$T$21)
    3556                      .dwattr $C$DW$290, DW_AT_location[DW_OP_reg1]
    3557              ;* AL    assigned to _ChannelNum
    3558              $C$DW$291       .dwtag  DW_TAG_variable, DW_AT_name("ChannelNum")
    3559                      .dwattr $C$DW$291, DW_AT_TI_symbol_name("_ChannelNum")
    3560                      .dwattr $C$DW$291, DW_AT_type(*$C$DW$T$102)
    3561                      .dwattr $C$DW$291, DW_AT_location[DW_OP_reg0]
    3562              ;* AR1   assigned to _handle
    3563              $C$DW$292       .dwtag  DW_TAG_variable, DW_AT_name("handle")
    3564                      .dwattr $C$DW$292, DW_AT_TI_symbol_name("_handle")
    3565                      .dwattr $C$DW$292, DW_AT_type(*$C$DW$T$121)
    3566                      .dwattr $C$DW$292, DW_AT_location[DW_OP_reg6]
    3567                      .dwcfi  cfa_offset, -2
    3568                      .dwcfi  save_reg_to_mem, 26, 0
    3569                      .dwcfi  save_reg_to_reg, 78, 26
    3570 000003b1 B2BD          MOVL      *SP++,XAR1            ; [CPU_] 
    3571                      .dwcfi  save_reg_to_mem, 7, 2
    3572                      .dwcfi  cfa_offset, -4
    3573                      .dwpsn  file "D:/Foc/my_motor/sw/drivers/drvic/ldc1612.c",line 294,column 3,is_stmt
    3574 000003b2 5200          CMPB      AL,#0                 ; [CPU_] |294| 
    3575                      .dwpsn  file "D:/Foc/my_motor/sw/drivers/drvic/ldc1612.c",line 288,column 1,is_stmt
    3576 000003b3 8BA4          MOVL      XAR1,XAR4             ; [CPU_] |288| 
    3577 000003b4 AABD          MOVL      *SP++,XAR2            ; [CPU_] 
TMS320C2000 Assembler PC v6.2.5 Mon Jul 10 09:53:39 2017

Tools Copyright (c) 1996-2014 Texas Instruments Incorporated
C:\Users\wmj\AppData\Local\Temp\1375610                              PAGE   69

    3578                      .dwcfi  save_reg_to_mem, 9, 4
    3579                      .dwcfi  cfa_offset, -6
    3580                      .dwpsn  file "D:/Foc/my_motor/sw/drivers/drvic/ldc1612.c",line 294,column 3,is_stmt
    3581 000003b5 EC10          BF        $C$L106,EQ            ; [CPU_] |294| 
    3582                      ; branchcc occurs ; [] |294| 
    3583 000003b6 5201          CMPB      AL,#1                 ; [CPU_] |294| 
    3584 000003b7 EC0B          BF        $C$L105,EQ            ; [CPU_] |294| 
    3585                      ; branchcc occurs ; [] |294| 
    3586 000003b8 5202          CMPB      AL,#2                 ; [CPU_] |294| 
    3587 000003b9 EC06          BF        $C$L104,EQ            ; [CPU_] |294| 
    3588                      ; branchcc occurs ; [] |294| 
    3589 000003ba 5203          CMPB      AL,#3                 ; [CPU_] |294| 
    3590 000003bb ED0C          BF        $C$L107,NEQ           ; [CPU_] |294| 
    3591                      ; branchcc occurs ; [] |294| 
    3592                      .dwpsn  file "D:/Foc/my_motor/sw/drivers/drvic/ldc1612.c",line 305,column 29,is_stmt
    3593 000003bc 9A13          MOVB      AL,#19                ; [CPU_] |305| 
    3594                      .dwpsn  file "D:/Foc/my_motor/sw/drivers/drvic/ldc1612.c",line 306,column 29,is_stmt
    3595 000003bd D203          MOVB      XAR2,#3               ; [CPU_] |306| 
    3596                      .dwpsn  file "D:/Foc/my_motor/sw/drivers/drvic/ldc1612.c",line 307,column 7,is_stmt
    3597 000003be 6F09          B         $C$L107,UNC           ; [CPU_] |307| 
    3598                      ; branch occurs ; [] |307| 
    3599 000003bf       $C$L104:    
    3600                      .dwpsn  file "D:/Foc/my_motor/sw/drivers/drvic/ldc1612.c",line 302,column 29,is_stmt
    3601 000003bf 9A12          MOVB      AL,#18                ; [CPU_] |302| 
    3602                      .dwpsn  file "D:/Foc/my_motor/sw/drivers/drvic/ldc1612.c",line 303,column 29,is_stmt
    3603 000003c0 D202          MOVB      XAR2,#2               ; [CPU_] |303| 
    3604                      .dwpsn  file "D:/Foc/my_motor/sw/drivers/drvic/ldc1612.c",line 304,column 7,is_stmt
    3605 000003c1 6F06          B         $C$L107,UNC           ; [CPU_] |304| 
    3606                      ; branch occurs ; [] |304| 
    3607 000003c2       $C$L105:    
    3608                      .dwpsn  file "D:/Foc/my_motor/sw/drivers/drvic/ldc1612.c",line 299,column 29,is_stmt
    3609 000003c2 9A11          MOVB      AL,#17                ; [CPU_] |299| 
    3610                      .dwpsn  file "D:/Foc/my_motor/sw/drivers/drvic/ldc1612.c",line 300,column 29,is_stmt
    3611 000003c3 D201          MOVB      XAR2,#1               ; [CPU_] |300| 
    3612                      .dwpsn  file "D:/Foc/my_motor/sw/drivers/drvic/ldc1612.c",line 301,column 7,is_stmt
    3613 000003c4 6F03          B         $C$L107,UNC           ; [CPU_] |301| 
    3614                      ; branch occurs ; [] |301| 
    3615 000003c5       $C$L106:    
    3616                      .dwpsn  file "D:/Foc/my_motor/sw/drivers/drvic/ldc1612.c",line 296,column 29,is_stmt
    3617 000003c5 9A10          MOVB      AL,#16                ; [CPU_] |296| 
    3618                      .dwpsn  file "D:/Foc/my_motor/sw/drivers/drvic/ldc1612.c",line 297,column 29,is_stmt
    3619 000003c6 D200          MOVB      XAR2,#0               ; [CPU_] |297| 
    3620 000003c7       $C$L107:    
    3621                      .dwpsn  file "D:/Foc/my_motor/sw/drivers/drvic/ldc1612.c",line 311,column 3,is_stmt
    3622              $C$DW$293       .dwtag  DW_TAG_TI_branch
    3623                      .dwattr $C$DW$293, DW_AT_low_pc(0x00)
    3624                      .dwattr $C$DW$293, DW_AT_name("_LDC161x_readI2c")
    3625                      .dwattr $C$DW$293, DW_AT_TI_call
    3626 000003c7 7640'         LCR       #_LDC161x_readI2c     ; [CPU_] |311| 
         000003c8 02FA 
    3627                      ; call occurs [#_LDC161x_readI2c] ; [] |311| 
    3628 000003c9 93A9          MOV       AH,AL                 ; [CPU_] |311| 
    3629                      .dwpsn  file "D:/Foc/my_motor/sw/drivers/drvic/ldc1612.c",line 312,column 3,is_stmt
    3630 000003ca 8AE1          MOVL      XAR4,*+XAR1[4]        ; [CPU_] |312| 
    3631 000003cb 92A2          MOV       AL,AR2                ; [CPU_] |312| 
TMS320C2000 Assembler PC v6.2.5 Mon Jul 10 09:53:39 2017

Tools Copyright (c) 1996-2014 Texas Instruments Incorporated
C:\Users\wmj\AppData\Local\Temp\1375610                              PAGE   70

    3632              $C$DW$294       .dwtag  DW_TAG_TI_branch
    3633                      .dwattr $C$DW$294, DW_AT_low_pc(0x00)
    3634                      .dwattr $C$DW$294, DW_AT_name("_LDC161x_setSettleCnt")
    3635                      .dwattr $C$DW$294, DW_AT_TI_call
    3636 000003cc 7640'         LCR       #_LDC161x_setSettleCnt ; [CPU_] |312| 
         000003cd 01D4 
    3637                      ; call occurs [#_LDC161x_setSettleCnt] ; [] |312| 
    3638 000003ce 86BE          MOVL      XAR2,*--SP            ; [CPU_] 
    3639                      .dwcfi  cfa_offset, -4
    3640                      .dwcfi  restore_reg, 9
    3641 000003cf 8BBE          MOVL      XAR1,*--SP            ; [CPU_] 
    3642                      .dwcfi  cfa_offset, -2
    3643                      .dwcfi  restore_reg, 7
    3644              $C$DW$295       .dwtag  DW_TAG_TI_branch
    3645                      .dwattr $C$DW$295, DW_AT_low_pc(0x00)
    3646                      .dwattr $C$DW$295, DW_AT_TI_return
    3647 000003d0 0006          LRETR     ; [CPU_] 
    3648                      ; return occurs ; [] 
    3649                      .dwattr $C$DW$285, DW_AT_TI_end_file("D:/Foc/my_motor/sw/drivers/drvic/ldc1612.c")
    3650                      .dwattr $C$DW$285, DW_AT_TI_end_line(0x13b)
    3651                      .dwattr $C$DW$285, DW_AT_TI_end_column(0x01)
    3652                      .dwendentry
    3653                      .dwendtag $C$DW$285
    3654              
    3655 000003d1               .sect   ".text"
    3656                      .clink
    3657                      .global _LDC161x_readRcount
    3658              
    3659              $C$DW$296       .dwtag  DW_TAG_subprogram, DW_AT_name("LDC161x_readRcount")
    3660                      .dwattr $C$DW$296, DW_AT_low_pc(_LDC161x_readRcount)
    3661                      .dwattr $C$DW$296, DW_AT_high_pc(0x00)
    3662                      .dwattr $C$DW$296, DW_AT_TI_symbol_name("_LDC161x_readRcount")
    3663                      .dwattr $C$DW$296, DW_AT_external
    3664                      .dwattr $C$DW$296, DW_AT_TI_begin_file("D:/Foc/my_motor/sw/drivers/drvic/ldc1612.c")
    3665                      .dwattr $C$DW$296, DW_AT_TI_begin_line(0xdb)
    3666                      .dwattr $C$DW$296, DW_AT_TI_begin_column(0x06)
    3667                      .dwattr $C$DW$296, DW_AT_TI_max_frame_size(-6)
    3668                      .dwpsn  file "D:/Foc/my_motor/sw/drivers/drvic/ldc1612.c",line 220,column 1,is_stmt,address _LDC161x_
    3669              
    3670                      .dwfde $C$DW$CIE, _LDC161x_readRcount
    3671              $C$DW$297       .dwtag  DW_TAG_formal_parameter, DW_AT_name("handle")
    3672                      .dwattr $C$DW$297, DW_AT_TI_symbol_name("_handle")
    3673                      .dwattr $C$DW$297, DW_AT_type(*$C$DW$T$120)
    3674                      .dwattr $C$DW$297, DW_AT_location[DW_OP_reg12]
    3675              $C$DW$298       .dwtag  DW_TAG_formal_parameter, DW_AT_name("ChannelNum")
    3676                      .dwattr $C$DW$298, DW_AT_TI_symbol_name("_ChannelNum")
    3677                      .dwattr $C$DW$298, DW_AT_type(*$C$DW$T$96)
    3678                      .dwattr $C$DW$298, DW_AT_location[DW_OP_reg0]
    3679              
    3680              ;***************************************************************
    3681              ;* FNAME: _LDC161x_readRcount           FR SIZE:   4           *
    3682              ;*                                                             *
    3683              ;* FUNCTION ENVIRONMENT                                        *
    3684              ;*                                                             *
    3685              ;* FUNCTION PROPERTIES                                         *
TMS320C2000 Assembler PC v6.2.5 Mon Jul 10 09:53:39 2017

Tools Copyright (c) 1996-2014 Texas Instruments Incorporated
C:\Users\wmj\AppData\Local\Temp\1375610                              PAGE   71

    3686              ;*                            0 Parameter,  0 Auto,  4 SOE     *
    3687              ;***************************************************************
    3688              
    3689              _LDC161x_readRcount:
    3690              ;* AR2   assigned to _ChNum
    3691              $C$DW$299       .dwtag  DW_TAG_variable, DW_AT_name("ChNum")
    3692                      .dwattr $C$DW$299, DW_AT_TI_symbol_name("_ChNum")
    3693                      .dwattr $C$DW$299, DW_AT_type(*$C$DW$T$21)
    3694                      .dwattr $C$DW$299, DW_AT_location[DW_OP_reg8]
    3695              ;* AL    assigned to _drvRegName
    3696              $C$DW$300       .dwtag  DW_TAG_variable, DW_AT_name("drvRegName")
    3697                      .dwattr $C$DW$300, DW_AT_TI_symbol_name("_drvRegName")
    3698                      .dwattr $C$DW$300, DW_AT_type(*$C$DW$T$93)
    3699                      .dwattr $C$DW$300, DW_AT_location[DW_OP_reg0]
    3700              ;* AH    assigned to _drvDataNew
    3701              $C$DW$301       .dwtag  DW_TAG_variable, DW_AT_name("drvDataNew")
    3702                      .dwattr $C$DW$301, DW_AT_TI_symbol_name("_drvDataNew")
    3703                      .dwattr $C$DW$301, DW_AT_type(*$C$DW$T$21)
    3704                      .dwattr $C$DW$301, DW_AT_location[DW_OP_reg1]
    3705              ;* AL    assigned to _ChannelNum
    3706              $C$DW$302       .dwtag  DW_TAG_variable, DW_AT_name("ChannelNum")
    3707                      .dwattr $C$DW$302, DW_AT_TI_symbol_name("_ChannelNum")
    3708                      .dwattr $C$DW$302, DW_AT_type(*$C$DW$T$103)
    3709                      .dwattr $C$DW$302, DW_AT_location[DW_OP_reg0]
    3710              ;* AR1   assigned to _handle
    3711              $C$DW$303       .dwtag  DW_TAG_variable, DW_AT_name("handle")
    3712                      .dwattr $C$DW$303, DW_AT_TI_symbol_name("_handle")
    3713                      .dwattr $C$DW$303, DW_AT_type(*$C$DW$T$121)
    3714                      .dwattr $C$DW$303, DW_AT_location[DW_OP_reg6]
    3715                      .dwcfi  cfa_offset, -2
    3716                      .dwcfi  save_reg_to_mem, 26, 0
    3717                      .dwcfi  save_reg_to_reg, 78, 26
    3718 000003d1 B2BD          MOVL      *SP++,XAR1            ; [CPU_] 
    3719                      .dwcfi  save_reg_to_mem, 7, 2
    3720                      .dwcfi  cfa_offset, -4
    3721                      .dwpsn  file "D:/Foc/my_motor/sw/drivers/drvic/ldc1612.c",line 226,column 3,is_stmt
    3722 000003d2 5200          CMPB      AL,#0                 ; [CPU_] |226| 
    3723                      .dwpsn  file "D:/Foc/my_motor/sw/drivers/drvic/ldc1612.c",line 220,column 1,is_stmt
    3724 000003d3 8BA4          MOVL      XAR1,XAR4             ; [CPU_] |220| 
    3725 000003d4 AABD          MOVL      *SP++,XAR2            ; [CPU_] 
    3726                      .dwcfi  save_reg_to_mem, 9, 4
    3727                      .dwcfi  cfa_offset, -6
    3728                      .dwpsn  file "D:/Foc/my_motor/sw/drivers/drvic/ldc1612.c",line 226,column 3,is_stmt
    3729 000003d5 EC10          BF        $C$L110,EQ            ; [CPU_] |226| 
    3730                      ; branchcc occurs ; [] |226| 
    3731 000003d6 5201          CMPB      AL,#1                 ; [CPU_] |226| 
    3732 000003d7 EC0B          BF        $C$L109,EQ            ; [CPU_] |226| 
    3733                      ; branchcc occurs ; [] |226| 
    3734 000003d8 5202          CMPB      AL,#2                 ; [CPU_] |226| 
    3735 000003d9 EC06          BF        $C$L108,EQ            ; [CPU_] |226| 
    3736                      ; branchcc occurs ; [] |226| 
    3737 000003da 5203          CMPB      AL,#3                 ; [CPU_] |226| 
    3738 000003db ED0C          BF        $C$L111,NEQ           ; [CPU_] |226| 
    3739                      ; branchcc occurs ; [] |226| 
    3740                      .dwpsn  file "D:/Foc/my_motor/sw/drivers/drvic/ldc1612.c",line 237,column 29,is_stmt
TMS320C2000 Assembler PC v6.2.5 Mon Jul 10 09:53:39 2017

Tools Copyright (c) 1996-2014 Texas Instruments Incorporated
C:\Users\wmj\AppData\Local\Temp\1375610                              PAGE   72

    3741 000003dc 9A0B          MOVB      AL,#11                ; [CPU_] |237| 
    3742                      .dwpsn  file "D:/Foc/my_motor/sw/drivers/drvic/ldc1612.c",line 238,column 29,is_stmt
    3743 000003dd D203          MOVB      XAR2,#3               ; [CPU_] |238| 
    3744                      .dwpsn  file "D:/Foc/my_motor/sw/drivers/drvic/ldc1612.c",line 239,column 7,is_stmt
    3745 000003de 6F09          B         $C$L111,UNC           ; [CPU_] |239| 
    3746                      ; branch occurs ; [] |239| 
    3747 000003df       $C$L108:    
    3748                      .dwpsn  file "D:/Foc/my_motor/sw/drivers/drvic/ldc1612.c",line 234,column 29,is_stmt
    3749 000003df 9A0A          MOVB      AL,#10                ; [CPU_] |234| 
    3750                      .dwpsn  file "D:/Foc/my_motor/sw/drivers/drvic/ldc1612.c",line 235,column 29,is_stmt
    3751 000003e0 D202          MOVB      XAR2,#2               ; [CPU_] |235| 
    3752                      .dwpsn  file "D:/Foc/my_motor/sw/drivers/drvic/ldc1612.c",line 236,column 7,is_stmt
    3753 000003e1 6F06          B         $C$L111,UNC           ; [CPU_] |236| 
    3754                      ; branch occurs ; [] |236| 
    3755 000003e2       $C$L109:    
    3756                      .dwpsn  file "D:/Foc/my_motor/sw/drivers/drvic/ldc1612.c",line 231,column 29,is_stmt
    3757 000003e2 9A09          MOVB      AL,#9                 ; [CPU_] |231| 
    3758                      .dwpsn  file "D:/Foc/my_motor/sw/drivers/drvic/ldc1612.c",line 232,column 29,is_stmt
    3759 000003e3 D201          MOVB      XAR2,#1               ; [CPU_] |232| 
    3760                      .dwpsn  file "D:/Foc/my_motor/sw/drivers/drvic/ldc1612.c",line 233,column 7,is_stmt
    3761 000003e4 6F03          B         $C$L111,UNC           ; [CPU_] |233| 
    3762                      ; branch occurs ; [] |233| 
    3763 000003e5       $C$L110:    
    3764                      .dwpsn  file "D:/Foc/my_motor/sw/drivers/drvic/ldc1612.c",line 228,column 29,is_stmt
    3765 000003e5 9A08          MOVB      AL,#8                 ; [CPU_] |228| 
    3766                      .dwpsn  file "D:/Foc/my_motor/sw/drivers/drvic/ldc1612.c",line 229,column 29,is_stmt
    3767 000003e6 D200          MOVB      XAR2,#0               ; [CPU_] |229| 
    3768 000003e7       $C$L111:    
    3769                      .dwpsn  file "D:/Foc/my_motor/sw/drivers/drvic/ldc1612.c",line 243,column 3,is_stmt
    3770              $C$DW$304       .dwtag  DW_TAG_TI_branch
    3771                      .dwattr $C$DW$304, DW_AT_low_pc(0x00)
    3772                      .dwattr $C$DW$304, DW_AT_name("_LDC161x_readI2c")
    3773                      .dwattr $C$DW$304, DW_AT_TI_call
    3774 000003e7 7640'         LCR       #_LDC161x_readI2c     ; [CPU_] |243| 
         000003e8 02FA 
    3775                      ; call occurs [#_LDC161x_readI2c] ; [] |243| 
    3776 000003e9 93A9          MOV       AH,AL                 ; [CPU_] |243| 
    3777                      .dwpsn  file "D:/Foc/my_motor/sw/drivers/drvic/ldc1612.c",line 244,column 3,is_stmt
    3778 000003ea 8AE1          MOVL      XAR4,*+XAR1[4]        ; [CPU_] |244| 
    3779 000003eb 92A2          MOV       AL,AR2                ; [CPU_] |244| 
    3780              $C$DW$305       .dwtag  DW_TAG_TI_branch
    3781                      .dwattr $C$DW$305, DW_AT_low_pc(0x00)
    3782                      .dwattr $C$DW$305, DW_AT_name("_LDC161x_setRcount")
    3783                      .dwattr $C$DW$305, DW_AT_TI_call
    3784 000003ec 7640'         LCR       #_LDC161x_setRcount   ; [CPU_] |244| 
         000003ed 01E7 
    3785                      ; call occurs [#_LDC161x_setRcount] ; [] |244| 
    3786 000003ee 86BE          MOVL      XAR2,*--SP            ; [CPU_] 
    3787                      .dwcfi  cfa_offset, -4
    3788                      .dwcfi  restore_reg, 9
    3789 000003ef 8BBE          MOVL      XAR1,*--SP            ; [CPU_] 
    3790                      .dwcfi  cfa_offset, -2
    3791                      .dwcfi  restore_reg, 7
    3792              $C$DW$306       .dwtag  DW_TAG_TI_branch
    3793                      .dwattr $C$DW$306, DW_AT_low_pc(0x00)
TMS320C2000 Assembler PC v6.2.5 Mon Jul 10 09:53:39 2017

Tools Copyright (c) 1996-2014 Texas Instruments Incorporated
C:\Users\wmj\AppData\Local\Temp\1375610                              PAGE   73

    3794                      .dwattr $C$DW$306, DW_AT_TI_return
    3795 000003f0 0006          LRETR     ; [CPU_] 
    3796                      ; return occurs ; [] 
    3797                      .dwattr $C$DW$296, DW_AT_TI_end_file("D:/Foc/my_motor/sw/drivers/drvic/ldc1612.c")
    3798                      .dwattr $C$DW$296, DW_AT_TI_end_line(0xf7)
    3799                      .dwattr $C$DW$296, DW_AT_TI_end_column(0x01)
    3800                      .dwendentry
    3801                      .dwendtag $C$DW$296
    3802              
    3803 000003f1               .sect   ".text"
    3804                      .clink
    3805                      .global _LDC161x_readOffset
    3806              
    3807              $C$DW$307       .dwtag  DW_TAG_subprogram, DW_AT_name("LDC161x_readOffset")
    3808                      .dwattr $C$DW$307, DW_AT_low_pc(_LDC161x_readOffset)
    3809                      .dwattr $C$DW$307, DW_AT_high_pc(0x00)
    3810                      .dwattr $C$DW$307, DW_AT_TI_symbol_name("_LDC161x_readOffset")
    3811                      .dwattr $C$DW$307, DW_AT_external
    3812                      .dwattr $C$DW$307, DW_AT_TI_begin_file("D:/Foc/my_motor/sw/drivers/drvic/ldc1612.c")
    3813                      .dwattr $C$DW$307, DW_AT_TI_begin_line(0xfd)
    3814                      .dwattr $C$DW$307, DW_AT_TI_begin_column(0x06)
    3815                      .dwattr $C$DW$307, DW_AT_TI_max_frame_size(-6)
    3816                      .dwpsn  file "D:/Foc/my_motor/sw/drivers/drvic/ldc1612.c",line 254,column 1,is_stmt,address _LDC161x_
    3817              
    3818                      .dwfde $C$DW$CIE, _LDC161x_readOffset
    3819              $C$DW$308       .dwtag  DW_TAG_formal_parameter, DW_AT_name("handle")
    3820                      .dwattr $C$DW$308, DW_AT_TI_symbol_name("_handle")
    3821                      .dwattr $C$DW$308, DW_AT_type(*$C$DW$T$120)
    3822                      .dwattr $C$DW$308, DW_AT_location[DW_OP_reg12]
    3823              $C$DW$309       .dwtag  DW_TAG_formal_parameter, DW_AT_name("ChannelNum")
    3824                      .dwattr $C$DW$309, DW_AT_TI_symbol_name("_ChannelNum")
    3825                      .dwattr $C$DW$309, DW_AT_type(*$C$DW$T$96)
    3826                      .dwattr $C$DW$309, DW_AT_location[DW_OP_reg0]
    3827              
    3828              ;***************************************************************
    3829              ;* FNAME: _LDC161x_readOffset           FR SIZE:   4           *
    3830              ;*                                                             *
    3831              ;* FUNCTION ENVIRONMENT                                        *
    3832              ;*                                                             *
    3833              ;* FUNCTION PROPERTIES                                         *
    3834              ;*                            0 Parameter,  0 Auto,  4 SOE     *
    3835              ;***************************************************************
    3836              
    3837              _LDC161x_readOffset:
    3838              ;* AR2   assigned to _ChNum
    3839              $C$DW$310       .dwtag  DW_TAG_variable, DW_AT_name("ChNum")
    3840                      .dwattr $C$DW$310, DW_AT_TI_symbol_name("_ChNum")
    3841                      .dwattr $C$DW$310, DW_AT_type(*$C$DW$T$21)
    3842                      .dwattr $C$DW$310, DW_AT_location[DW_OP_reg8]
    3843              ;* AL    assigned to _drvRegName
    3844              $C$DW$311       .dwtag  DW_TAG_variable, DW_AT_name("drvRegName")
    3845                      .dwattr $C$DW$311, DW_AT_TI_symbol_name("_drvRegName")
    3846                      .dwattr $C$DW$311, DW_AT_type(*$C$DW$T$93)
    3847                      .dwattr $C$DW$311, DW_AT_location[DW_OP_reg0]
    3848              ;* AH    assigned to _drvDataNew
TMS320C2000 Assembler PC v6.2.5 Mon Jul 10 09:53:39 2017

Tools Copyright (c) 1996-2014 Texas Instruments Incorporated
C:\Users\wmj\AppData\Local\Temp\1375610                              PAGE   74

    3849              $C$DW$312       .dwtag  DW_TAG_variable, DW_AT_name("drvDataNew")
    3850                      .dwattr $C$DW$312, DW_AT_TI_symbol_name("_drvDataNew")
    3851                      .dwattr $C$DW$312, DW_AT_type(*$C$DW$T$21)
    3852                      .dwattr $C$DW$312, DW_AT_location[DW_OP_reg1]
    3853              ;* AL    assigned to _ChannelNum
    3854              $C$DW$313       .dwtag  DW_TAG_variable, DW_AT_name("ChannelNum")
    3855                      .dwattr $C$DW$313, DW_AT_TI_symbol_name("_ChannelNum")
    3856                      .dwattr $C$DW$313, DW_AT_type(*$C$DW$T$104)
    3857                      .dwattr $C$DW$313, DW_AT_location[DW_OP_reg0]
    3858              ;* AR1   assigned to _handle
    3859              $C$DW$314       .dwtag  DW_TAG_variable, DW_AT_name("handle")
    3860                      .dwattr $C$DW$314, DW_AT_TI_symbol_name("_handle")
    3861                      .dwattr $C$DW$314, DW_AT_type(*$C$DW$T$121)
    3862                      .dwattr $C$DW$314, DW_AT_location[DW_OP_reg6]
    3863                      .dwcfi  cfa_offset, -2
    3864                      .dwcfi  save_reg_to_mem, 26, 0
    3865                      .dwcfi  save_reg_to_reg, 78, 26
    3866 000003f1 B2BD          MOVL      *SP++,XAR1            ; [CPU_] 
    3867                      .dwcfi  save_reg_to_mem, 7, 2
    3868                      .dwcfi  cfa_offset, -4
    3869                      .dwpsn  file "D:/Foc/my_motor/sw/drivers/drvic/ldc1612.c",line 260,column 3,is_stmt
    3870 000003f2 5200          CMPB      AL,#0                 ; [CPU_] |260| 
    3871                      .dwpsn  file "D:/Foc/my_motor/sw/drivers/drvic/ldc1612.c",line 254,column 1,is_stmt
    3872 000003f3 8BA4          MOVL      XAR1,XAR4             ; [CPU_] |254| 
    3873 000003f4 AABD          MOVL      *SP++,XAR2            ; [CPU_] 
    3874                      .dwcfi  save_reg_to_mem, 9, 4
    3875                      .dwcfi  cfa_offset, -6
    3876                      .dwpsn  file "D:/Foc/my_motor/sw/drivers/drvic/ldc1612.c",line 260,column 3,is_stmt
    3877 000003f5 EC10          BF        $C$L114,EQ            ; [CPU_] |260| 
    3878                      ; branchcc occurs ; [] |260| 
    3879 000003f6 5201          CMPB      AL,#1                 ; [CPU_] |260| 
    3880 000003f7 EC0B          BF        $C$L113,EQ            ; [CPU_] |260| 
    3881                      ; branchcc occurs ; [] |260| 
    3882 000003f8 5202          CMPB      AL,#2                 ; [CPU_] |260| 
    3883 000003f9 EC06          BF        $C$L112,EQ            ; [CPU_] |260| 
    3884                      ; branchcc occurs ; [] |260| 
    3885 000003fa 5203          CMPB      AL,#3                 ; [CPU_] |260| 
    3886 000003fb ED0C          BF        $C$L115,NEQ           ; [CPU_] |260| 
    3887                      ; branchcc occurs ; [] |260| 
    3888                      .dwpsn  file "D:/Foc/my_motor/sw/drivers/drvic/ldc1612.c",line 271,column 29,is_stmt
    3889 000003fc 9A0F          MOVB      AL,#15                ; [CPU_] |271| 
    3890                      .dwpsn  file "D:/Foc/my_motor/sw/drivers/drvic/ldc1612.c",line 272,column 29,is_stmt
    3891 000003fd D203          MOVB      XAR2,#3               ; [CPU_] |272| 
    3892                      .dwpsn  file "D:/Foc/my_motor/sw/drivers/drvic/ldc1612.c",line 273,column 7,is_stmt
    3893 000003fe 6F09          B         $C$L115,UNC           ; [CPU_] |273| 
    3894                      ; branch occurs ; [] |273| 
    3895 000003ff       $C$L112:    
    3896                      .dwpsn  file "D:/Foc/my_motor/sw/drivers/drvic/ldc1612.c",line 268,column 29,is_stmt
    3897 000003ff 9A0E          MOVB      AL,#14                ; [CPU_] |268| 
    3898                      .dwpsn  file "D:/Foc/my_motor/sw/drivers/drvic/ldc1612.c",line 269,column 29,is_stmt
    3899 00000400 D202          MOVB      XAR2,#2               ; [CPU_] |269| 
    3900                      .dwpsn  file "D:/Foc/my_motor/sw/drivers/drvic/ldc1612.c",line 270,column 7,is_stmt
    3901 00000401 6F06          B         $C$L115,UNC           ; [CPU_] |270| 
    3902                      ; branch occurs ; [] |270| 
    3903 00000402       $C$L113:    
TMS320C2000 Assembler PC v6.2.5 Mon Jul 10 09:53:39 2017

Tools Copyright (c) 1996-2014 Texas Instruments Incorporated
C:\Users\wmj\AppData\Local\Temp\1375610                              PAGE   75

    3904                      .dwpsn  file "D:/Foc/my_motor/sw/drivers/drvic/ldc1612.c",line 265,column 29,is_stmt
    3905 00000402 9A0D          MOVB      AL,#13                ; [CPU_] |265| 
    3906                      .dwpsn  file "D:/Foc/my_motor/sw/drivers/drvic/ldc1612.c",line 266,column 29,is_stmt
    3907 00000403 D201          MOVB      XAR2,#1               ; [CPU_] |266| 
    3908                      .dwpsn  file "D:/Foc/my_motor/sw/drivers/drvic/ldc1612.c",line 267,column 7,is_stmt
    3909 00000404 6F03          B         $C$L115,UNC           ; [CPU_] |267| 
    3910                      ; branch occurs ; [] |267| 
    3911 00000405       $C$L114:    
    3912                      .dwpsn  file "D:/Foc/my_motor/sw/drivers/drvic/ldc1612.c",line 262,column 29,is_stmt
    3913 00000405 9A0C          MOVB      AL,#12                ; [CPU_] |262| 
    3914                      .dwpsn  file "D:/Foc/my_motor/sw/drivers/drvic/ldc1612.c",line 263,column 29,is_stmt
    3915 00000406 D200          MOVB      XAR2,#0               ; [CPU_] |263| 
    3916 00000407       $C$L115:    
    3917                      .dwpsn  file "D:/Foc/my_motor/sw/drivers/drvic/ldc1612.c",line 277,column 3,is_stmt
    3918              $C$DW$315       .dwtag  DW_TAG_TI_branch
    3919                      .dwattr $C$DW$315, DW_AT_low_pc(0x00)
    3920                      .dwattr $C$DW$315, DW_AT_name("_LDC161x_readI2c")
    3921                      .dwattr $C$DW$315, DW_AT_TI_call
    3922 00000407 7640'         LCR       #_LDC161x_readI2c     ; [CPU_] |277| 
         00000408 02FA 
    3923                      ; call occurs [#_LDC161x_readI2c] ; [] |277| 
    3924 00000409 93A9          MOV       AH,AL                 ; [CPU_] |277| 
    3925                      .dwpsn  file "D:/Foc/my_motor/sw/drivers/drvic/ldc1612.c",line 278,column 3,is_stmt
    3926 0000040a 8AE1          MOVL      XAR4,*+XAR1[4]        ; [CPU_] |278| 
    3927 0000040b 92A2          MOV       AL,AR2                ; [CPU_] |278| 
    3928              $C$DW$316       .dwtag  DW_TAG_TI_branch
    3929                      .dwattr $C$DW$316, DW_AT_low_pc(0x00)
    3930                      .dwattr $C$DW$316, DW_AT_name("_LDC161x_setOffset")
    3931                      .dwattr $C$DW$316, DW_AT_TI_call
    3932 0000040c 7640'         LCR       #_LDC161x_setOffset   ; [CPU_] |278| 
         0000040d 01FA 
    3933                      ; call occurs [#_LDC161x_setOffset] ; [] |278| 
    3934 0000040e 86BE          MOVL      XAR2,*--SP            ; [CPU_] 
    3935                      .dwcfi  cfa_offset, -4
    3936                      .dwcfi  restore_reg, 9
    3937 0000040f 8BBE          MOVL      XAR1,*--SP            ; [CPU_] 
    3938                      .dwcfi  cfa_offset, -2
    3939                      .dwcfi  restore_reg, 7
    3940              $C$DW$317       .dwtag  DW_TAG_TI_branch
    3941                      .dwattr $C$DW$317, DW_AT_low_pc(0x00)
    3942                      .dwattr $C$DW$317, DW_AT_TI_return
    3943 00000410 0006          LRETR     ; [CPU_] 
    3944                      ; return occurs ; [] 
    3945                      .dwattr $C$DW$307, DW_AT_TI_end_file("D:/Foc/my_motor/sw/drivers/drvic/ldc1612.c")
    3946                      .dwattr $C$DW$307, DW_AT_TI_end_line(0x119)
    3947                      .dwattr $C$DW$307, DW_AT_TI_end_column(0x01)
    3948                      .dwendentry
    3949                      .dwendtag $C$DW$307
    3950              
    3951 00000411               .sect   ".text"
    3952                      .clink
    3953                      .global _LDC161x_readErrors
    3954              
    3955              $C$DW$318       .dwtag  DW_TAG_subprogram, DW_AT_name("LDC161x_readErrors")
    3956                      .dwattr $C$DW$318, DW_AT_low_pc(_LDC161x_readErrors)
TMS320C2000 Assembler PC v6.2.5 Mon Jul 10 09:53:39 2017

Tools Copyright (c) 1996-2014 Texas Instruments Incorporated
C:\Users\wmj\AppData\Local\Temp\1375610                              PAGE   76

    3957                      .dwattr $C$DW$318, DW_AT_high_pc(0x00)
    3958                      .dwattr $C$DW$318, DW_AT_TI_symbol_name("_LDC161x_readErrors")
    3959                      .dwattr $C$DW$318, DW_AT_external
    3960                      .dwattr $C$DW$318, DW_AT_TI_begin_file("D:/Foc/my_motor/sw/drivers/drvic/ldc1612.c")
    3961                      .dwattr $C$DW$318, DW_AT_TI_begin_line(0x174)
    3962                      .dwattr $C$DW$318, DW_AT_TI_begin_column(0x06)
    3963                      .dwattr $C$DW$318, DW_AT_TI_max_frame_size(-4)
    3964                      .dwpsn  file "D:/Foc/my_motor/sw/drivers/drvic/ldc1612.c",line 373,column 1,is_stmt,address _LDC161x_
    3965              
    3966                      .dwfde $C$DW$CIE, _LDC161x_readErrors
    3967              $C$DW$319       .dwtag  DW_TAG_formal_parameter, DW_AT_name("handle")
    3968                      .dwattr $C$DW$319, DW_AT_TI_symbol_name("_handle")
    3969                      .dwattr $C$DW$319, DW_AT_type(*$C$DW$T$120)
    3970                      .dwattr $C$DW$319, DW_AT_location[DW_OP_reg12]
    3971              
    3972              ;***************************************************************
    3973              ;* FNAME: _LDC161x_readErrors           FR SIZE:   2           *
    3974              ;*                                                             *
    3975              ;* FUNCTION ENVIRONMENT                                        *
    3976              ;*                                                             *
    3977              ;* FUNCTION PROPERTIES                                         *
    3978              ;*                            0 Parameter,  0 Auto,  2 SOE     *
    3979              ;***************************************************************
    3980              
    3981              _LDC161x_readErrors:
    3982              ;* AR1   assigned to _handle
    3983              $C$DW$320       .dwtag  DW_TAG_variable, DW_AT_name("handle")
    3984                      .dwattr $C$DW$320, DW_AT_TI_symbol_name("_handle")
    3985                      .dwattr $C$DW$320, DW_AT_type(*$C$DW$T$121)
    3986                      .dwattr $C$DW$320, DW_AT_location[DW_OP_reg6]
    3987              ;* AL    assigned to _drvDataNew
    3988              $C$DW$321       .dwtag  DW_TAG_variable, DW_AT_name("drvDataNew")
    3989                      .dwattr $C$DW$321, DW_AT_TI_symbol_name("_drvDataNew")
    3990                      .dwattr $C$DW$321, DW_AT_type(*$C$DW$T$21)
    3991                      .dwattr $C$DW$321, DW_AT_location[DW_OP_reg0]
    3992                      .dwcfi  cfa_offset, -2
    3993                      .dwcfi  save_reg_to_mem, 26, 0
    3994                      .dwcfi  save_reg_to_reg, 78, 26
    3995 00000411 B2BD          MOVL      *SP++,XAR1            ; [CPU_] 
    3996                      .dwcfi  save_reg_to_mem, 7, 2
    3997                      .dwcfi  cfa_offset, -4
    3998                      .dwpsn  file "D:/Foc/my_motor/sw/drivers/drvic/ldc1612.c",line 379,column 3,is_stmt
    3999 00000412 9A19          MOVB      AL,#25                ; [CPU_] |379| 
    4000                      .dwpsn  file "D:/Foc/my_motor/sw/drivers/drvic/ldc1612.c",line 373,column 1,is_stmt
    4001 00000413 8BA4          MOVL      XAR1,XAR4             ; [CPU_] |373| 
    4002                      .dwpsn  file "D:/Foc/my_motor/sw/drivers/drvic/ldc1612.c",line 379,column 3,is_stmt
    4003              $C$DW$322       .dwtag  DW_TAG_TI_branch
    4004                      .dwattr $C$DW$322, DW_AT_low_pc(0x00)
    4005                      .dwattr $C$DW$322, DW_AT_name("_LDC161x_readI2c")
    4006                      .dwattr $C$DW$322, DW_AT_TI_call
    4007 00000414 7640'         LCR       #_LDC161x_readI2c     ; [CPU_] |379| 
         00000415 02FA 
    4008                      ; call occurs [#_LDC161x_readI2c] ; [] |379| 
    4009                      .dwpsn  file "D:/Foc/my_motor/sw/drivers/drvic/ldc1612.c",line 380,column 3,is_stmt
    4010 00000416 8AE1          MOVL      XAR4,*+XAR1[4]        ; [CPU_] |380| 
TMS320C2000 Assembler PC v6.2.5 Mon Jul 10 09:53:39 2017

Tools Copyright (c) 1996-2014 Texas Instruments Incorporated
C:\Users\wmj\AppData\Local\Temp\1375610                              PAGE   77

    4011              $C$DW$323       .dwtag  DW_TAG_TI_branch
    4012                      .dwattr $C$DW$323, DW_AT_low_pc(0x00)
    4013                      .dwattr $C$DW$323, DW_AT_name("_LDC161x_setErrors")
    4014                      .dwattr $C$DW$323, DW_AT_TI_call
    4015 00000417 7640'         LCR       #_LDC161x_setErrors   ; [CPU_] |380| 
         00000418 0229 
    4016                      ; call occurs [#_LDC161x_setErrors] ; [] |380| 
    4017 00000419 8BBE          MOVL      XAR1,*--SP            ; [CPU_] 
    4018                      .dwcfi  cfa_offset, -2
    4019                      .dwcfi  restore_reg, 7
    4020              $C$DW$324       .dwtag  DW_TAG_TI_branch
    4021                      .dwattr $C$DW$324, DW_AT_low_pc(0x00)
    4022                      .dwattr $C$DW$324, DW_AT_TI_return
    4023 0000041a 0006          LRETR     ; [CPU_] 
    4024                      ; return occurs ; [] 
    4025                      .dwattr $C$DW$318, DW_AT_TI_end_file("D:/Foc/my_motor/sw/drivers/drvic/ldc1612.c")
    4026                      .dwattr $C$DW$318, DW_AT_TI_end_line(0x17f)
    4027                      .dwattr $C$DW$318, DW_AT_TI_end_column(0x01)
    4028                      .dwendentry
    4029                      .dwendtag $C$DW$318
    4030              
    4031 0000041b               .sect   ".text"
    4032                      .clink
    4033                      .global _LDC161x_readConfig
    4034              
    4035              $C$DW$325       .dwtag  DW_TAG_subprogram, DW_AT_name("LDC161x_readConfig")
    4036                      .dwattr $C$DW$325, DW_AT_low_pc(_LDC161x_readConfig)
    4037                      .dwattr $C$DW$325, DW_AT_high_pc(0x00)
    4038                      .dwattr $C$DW$325, DW_AT_TI_symbol_name("_LDC161x_readConfig")
    4039                      .dwattr $C$DW$325, DW_AT_external
    4040                      .dwattr $C$DW$325, DW_AT_TI_begin_file("D:/Foc/my_motor/sw/drivers/drvic/ldc1612.c")
    4041                      .dwattr $C$DW$325, DW_AT_TI_begin_line(0x185)
    4042                      .dwattr $C$DW$325, DW_AT_TI_begin_column(0x06)
    4043                      .dwattr $C$DW$325, DW_AT_TI_max_frame_size(-4)
    4044                      .dwpsn  file "D:/Foc/my_motor/sw/drivers/drvic/ldc1612.c",line 390,column 1,is_stmt,address _LDC161x_
    4045              
    4046                      .dwfde $C$DW$CIE, _LDC161x_readConfig
    4047              $C$DW$326       .dwtag  DW_TAG_formal_parameter, DW_AT_name("handle")
    4048                      .dwattr $C$DW$326, DW_AT_TI_symbol_name("_handle")
    4049                      .dwattr $C$DW$326, DW_AT_type(*$C$DW$T$120)
    4050                      .dwattr $C$DW$326, DW_AT_location[DW_OP_reg12]
    4051              
    4052              ;***************************************************************
    4053              ;* FNAME: _LDC161x_readConfig           FR SIZE:   2           *
    4054              ;*                                                             *
    4055              ;* FUNCTION ENVIRONMENT                                        *
    4056              ;*                                                             *
    4057              ;* FUNCTION PROPERTIES                                         *
    4058              ;*                            0 Parameter,  0 Auto,  2 SOE     *
    4059              ;***************************************************************
    4060              
    4061              _LDC161x_readConfig:
    4062              ;* AR1   assigned to _handle
    4063              $C$DW$327       .dwtag  DW_TAG_variable, DW_AT_name("handle")
    4064                      .dwattr $C$DW$327, DW_AT_TI_symbol_name("_handle")
TMS320C2000 Assembler PC v6.2.5 Mon Jul 10 09:53:39 2017

Tools Copyright (c) 1996-2014 Texas Instruments Incorporated
C:\Users\wmj\AppData\Local\Temp\1375610                              PAGE   78

    4065                      .dwattr $C$DW$327, DW_AT_type(*$C$DW$T$121)
    4066                      .dwattr $C$DW$327, DW_AT_location[DW_OP_reg6]
    4067              ;* AL    assigned to _drvDataNew
    4068              $C$DW$328       .dwtag  DW_TAG_variable, DW_AT_name("drvDataNew")
    4069                      .dwattr $C$DW$328, DW_AT_TI_symbol_name("_drvDataNew")
    4070                      .dwattr $C$DW$328, DW_AT_type(*$C$DW$T$21)
    4071                      .dwattr $C$DW$328, DW_AT_location[DW_OP_reg0]
    4072                      .dwcfi  cfa_offset, -2
    4073                      .dwcfi  save_reg_to_mem, 26, 0
    4074                      .dwcfi  save_reg_to_reg, 78, 26
    4075 0000041b B2BD          MOVL      *SP++,XAR1            ; [CPU_] 
    4076                      .dwcfi  save_reg_to_mem, 7, 2
    4077                      .dwcfi  cfa_offset, -4
    4078                      .dwpsn  file "D:/Foc/my_motor/sw/drivers/drvic/ldc1612.c",line 396,column 3,is_stmt
    4079 0000041c 9A1A          MOVB      AL,#26                ; [CPU_] |396| 
    4080                      .dwpsn  file "D:/Foc/my_motor/sw/drivers/drvic/ldc1612.c",line 390,column 1,is_stmt
    4081 0000041d 8BA4          MOVL      XAR1,XAR4             ; [CPU_] |390| 
    4082                      .dwpsn  file "D:/Foc/my_motor/sw/drivers/drvic/ldc1612.c",line 396,column 3,is_stmt
    4083              $C$DW$329       .dwtag  DW_TAG_TI_branch
    4084                      .dwattr $C$DW$329, DW_AT_low_pc(0x00)
    4085                      .dwattr $C$DW$329, DW_AT_name("_LDC161x_readI2c")
    4086                      .dwattr $C$DW$329, DW_AT_TI_call
    4087 0000041e 7640'         LCR       #_LDC161x_readI2c     ; [CPU_] |396| 
         0000041f 02FA 
    4088                      ; call occurs [#_LDC161x_readI2c] ; [] |396| 
    4089                      .dwpsn  file "D:/Foc/my_motor/sw/drivers/drvic/ldc1612.c",line 397,column 3,is_stmt
    4090 00000420 8AE1          MOVL      XAR4,*+XAR1[4]        ; [CPU_] |397| 
    4091              $C$DW$330       .dwtag  DW_TAG_TI_branch
    4092                      .dwattr $C$DW$330, DW_AT_low_pc(0x00)
    4093                      .dwattr $C$DW$330, DW_AT_name("_LDC161x_setConfig")
    4094                      .dwattr $C$DW$330, DW_AT_TI_call
    4095 00000421 7640'         LCR       #_LDC161x_setConfig   ; [CPU_] |397| 
         00000422 0259 
    4096                      ; call occurs [#_LDC161x_setConfig] ; [] |397| 
    4097 00000423 8BBE          MOVL      XAR1,*--SP            ; [CPU_] 
    4098                      .dwcfi  cfa_offset, -2
    4099                      .dwcfi  restore_reg, 7
    4100              $C$DW$331       .dwtag  DW_TAG_TI_branch
    4101                      .dwattr $C$DW$331, DW_AT_low_pc(0x00)
    4102                      .dwattr $C$DW$331, DW_AT_TI_return
    4103 00000424 0006          LRETR     ; [CPU_] 
    4104                      ; return occurs ; [] 
    4105                      .dwattr $C$DW$325, DW_AT_TI_end_file("D:/Foc/my_motor/sw/drivers/drvic/ldc1612.c")
    4106                      .dwattr $C$DW$325, DW_AT_TI_end_line(0x190)
    4107                      .dwattr $C$DW$325, DW_AT_TI_end_column(0x01)
    4108                      .dwendentry
    4109                      .dwendtag $C$DW$325
    4110              
    4111 00000425               .sect   ".text"
    4112                      .clink
    4113                      .global _LDC161x_readClkDivs
    4114              
    4115              $C$DW$332       .dwtag  DW_TAG_subprogram, DW_AT_name("LDC161x_readClkDivs")
    4116                      .dwattr $C$DW$332, DW_AT_low_pc(_LDC161x_readClkDivs)
    4117                      .dwattr $C$DW$332, DW_AT_high_pc(0x00)
TMS320C2000 Assembler PC v6.2.5 Mon Jul 10 09:53:39 2017

Tools Copyright (c) 1996-2014 Texas Instruments Incorporated
C:\Users\wmj\AppData\Local\Temp\1375610                              PAGE   79

    4118                      .dwattr $C$DW$332, DW_AT_TI_symbol_name("_LDC161x_readClkDivs")
    4119                      .dwattr $C$DW$332, DW_AT_external
    4120                      .dwattr $C$DW$332, DW_AT_TI_begin_file("D:/Foc/my_motor/sw/drivers/drvic/ldc1612.c")
    4121                      .dwattr $C$DW$332, DW_AT_TI_begin_line(0x141)
    4122                      .dwattr $C$DW$332, DW_AT_TI_begin_column(0x06)
    4123                      .dwattr $C$DW$332, DW_AT_TI_max_frame_size(-6)
    4124                      .dwpsn  file "D:/Foc/my_motor/sw/drivers/drvic/ldc1612.c",line 322,column 1,is_stmt,address _LDC161x_
    4125              
    4126                      .dwfde $C$DW$CIE, _LDC161x_readClkDivs
    4127              $C$DW$333       .dwtag  DW_TAG_formal_parameter, DW_AT_name("handle")
    4128                      .dwattr $C$DW$333, DW_AT_TI_symbol_name("_handle")
    4129                      .dwattr $C$DW$333, DW_AT_type(*$C$DW$T$120)
    4130                      .dwattr $C$DW$333, DW_AT_location[DW_OP_reg12]
    4131              $C$DW$334       .dwtag  DW_TAG_formal_parameter, DW_AT_name("ChannelNum")
    4132                      .dwattr $C$DW$334, DW_AT_TI_symbol_name("_ChannelNum")
    4133                      .dwattr $C$DW$334, DW_AT_type(*$C$DW$T$96)
    4134                      .dwattr $C$DW$334, DW_AT_location[DW_OP_reg0]
    4135              
    4136              ;***************************************************************
    4137              ;* FNAME: _LDC161x_readClkDivs          FR SIZE:   4           *
    4138              ;*                                                             *
    4139              ;* FUNCTION ENVIRONMENT                                        *
    4140              ;*                                                             *
    4141              ;* FUNCTION PROPERTIES                                         *
    4142              ;*                            0 Parameter,  0 Auto,  4 SOE     *
    4143              ;***************************************************************
    4144              
    4145              _LDC161x_readClkDivs:
    4146              ;* AR2   assigned to _ChNum
    4147              $C$DW$335       .dwtag  DW_TAG_variable, DW_AT_name("ChNum")
    4148                      .dwattr $C$DW$335, DW_AT_TI_symbol_name("_ChNum")
    4149                      .dwattr $C$DW$335, DW_AT_type(*$C$DW$T$21)
    4150                      .dwattr $C$DW$335, DW_AT_location[DW_OP_reg8]
    4151              ;* AL    assigned to _drvRegName
    4152              $C$DW$336       .dwtag  DW_TAG_variable, DW_AT_name("drvRegName")
    4153                      .dwattr $C$DW$336, DW_AT_TI_symbol_name("_drvRegName")
    4154                      .dwattr $C$DW$336, DW_AT_type(*$C$DW$T$93)
    4155                      .dwattr $C$DW$336, DW_AT_location[DW_OP_reg0]
    4156              ;* AH    assigned to _drvDataNew
    4157              $C$DW$337       .dwtag  DW_TAG_variable, DW_AT_name("drvDataNew")
    4158                      .dwattr $C$DW$337, DW_AT_TI_symbol_name("_drvDataNew")
    4159                      .dwattr $C$DW$337, DW_AT_type(*$C$DW$T$21)
    4160                      .dwattr $C$DW$337, DW_AT_location[DW_OP_reg1]
    4161              ;* AL    assigned to _ChannelNum
    4162              $C$DW$338       .dwtag  DW_TAG_variable, DW_AT_name("ChannelNum")
    4163                      .dwattr $C$DW$338, DW_AT_TI_symbol_name("_ChannelNum")
    4164                      .dwattr $C$DW$338, DW_AT_type(*$C$DW$T$105)
    4165                      .dwattr $C$DW$338, DW_AT_location[DW_OP_reg0]
    4166              ;* AR1   assigned to _handle
    4167              $C$DW$339       .dwtag  DW_TAG_variable, DW_AT_name("handle")
    4168                      .dwattr $C$DW$339, DW_AT_TI_symbol_name("_handle")
    4169                      .dwattr $C$DW$339, DW_AT_type(*$C$DW$T$121)
    4170                      .dwattr $C$DW$339, DW_AT_location[DW_OP_reg6]
    4171                      .dwcfi  cfa_offset, -2
    4172                      .dwcfi  save_reg_to_mem, 26, 0
TMS320C2000 Assembler PC v6.2.5 Mon Jul 10 09:53:39 2017

Tools Copyright (c) 1996-2014 Texas Instruments Incorporated
C:\Users\wmj\AppData\Local\Temp\1375610                              PAGE   80

    4173                      .dwcfi  save_reg_to_reg, 78, 26
    4174 00000425 B2BD          MOVL      *SP++,XAR1            ; [CPU_] 
    4175                      .dwcfi  save_reg_to_mem, 7, 2
    4176                      .dwcfi  cfa_offset, -4
    4177                      .dwpsn  file "D:/Foc/my_motor/sw/drivers/drvic/ldc1612.c",line 328,column 3,is_stmt
    4178 00000426 5200          CMPB      AL,#0                 ; [CPU_] |328| 
    4179                      .dwpsn  file "D:/Foc/my_motor/sw/drivers/drvic/ldc1612.c",line 322,column 1,is_stmt
    4180 00000427 8BA4          MOVL      XAR1,XAR4             ; [CPU_] |322| 
    4181 00000428 AABD          MOVL      *SP++,XAR2            ; [CPU_] 
    4182                      .dwcfi  save_reg_to_mem, 9, 4
    4183                      .dwcfi  cfa_offset, -6
    4184                      .dwpsn  file "D:/Foc/my_motor/sw/drivers/drvic/ldc1612.c",line 328,column 3,is_stmt
    4185 00000429 EC10          BF        $C$L118,EQ            ; [CPU_] |328| 
    4186                      ; branchcc occurs ; [] |328| 
    4187 0000042a 5201          CMPB      AL,#1                 ; [CPU_] |328| 
    4188 0000042b EC0B          BF        $C$L117,EQ            ; [CPU_] |328| 
    4189                      ; branchcc occurs ; [] |328| 
    4190 0000042c 5202          CMPB      AL,#2                 ; [CPU_] |328| 
    4191 0000042d EC06          BF        $C$L116,EQ            ; [CPU_] |328| 
    4192                      ; branchcc occurs ; [] |328| 
    4193 0000042e 5203          CMPB      AL,#3                 ; [CPU_] |328| 
    4194 0000042f ED0C          BF        $C$L119,NEQ           ; [CPU_] |328| 
    4195                      ; branchcc occurs ; [] |328| 
    4196                      .dwpsn  file "D:/Foc/my_motor/sw/drivers/drvic/ldc1612.c",line 339,column 29,is_stmt
    4197 00000430 9A17          MOVB      AL,#23                ; [CPU_] |339| 
    4198                      .dwpsn  file "D:/Foc/my_motor/sw/drivers/drvic/ldc1612.c",line 340,column 29,is_stmt
    4199 00000431 D203          MOVB      XAR2,#3               ; [CPU_] |340| 
    4200                      .dwpsn  file "D:/Foc/my_motor/sw/drivers/drvic/ldc1612.c",line 341,column 7,is_stmt
    4201 00000432 6F09          B         $C$L119,UNC           ; [CPU_] |341| 
    4202                      ; branch occurs ; [] |341| 
    4203 00000433       $C$L116:    
    4204                      .dwpsn  file "D:/Foc/my_motor/sw/drivers/drvic/ldc1612.c",line 336,column 29,is_stmt
    4205 00000433 9A16          MOVB      AL,#22                ; [CPU_] |336| 
    4206                      .dwpsn  file "D:/Foc/my_motor/sw/drivers/drvic/ldc1612.c",line 337,column 29,is_stmt
    4207 00000434 D202          MOVB      XAR2,#2               ; [CPU_] |337| 
    4208                      .dwpsn  file "D:/Foc/my_motor/sw/drivers/drvic/ldc1612.c",line 338,column 7,is_stmt
    4209 00000435 6F06          B         $C$L119,UNC           ; [CPU_] |338| 
    4210                      ; branch occurs ; [] |338| 
    4211 00000436       $C$L117:    
    4212                      .dwpsn  file "D:/Foc/my_motor/sw/drivers/drvic/ldc1612.c",line 333,column 29,is_stmt
    4213 00000436 9A15          MOVB      AL,#21                ; [CPU_] |333| 
    4214                      .dwpsn  file "D:/Foc/my_motor/sw/drivers/drvic/ldc1612.c",line 334,column 29,is_stmt
    4215 00000437 D201          MOVB      XAR2,#1               ; [CPU_] |334| 
    4216                      .dwpsn  file "D:/Foc/my_motor/sw/drivers/drvic/ldc1612.c",line 335,column 7,is_stmt
    4217 00000438 6F03          B         $C$L119,UNC           ; [CPU_] |335| 
    4218                      ; branch occurs ; [] |335| 
    4219 00000439       $C$L118:    
    4220                      .dwpsn  file "D:/Foc/my_motor/sw/drivers/drvic/ldc1612.c",line 330,column 29,is_stmt
    4221 00000439 9A14          MOVB      AL,#20                ; [CPU_] |330| 
    4222                      .dwpsn  file "D:/Foc/my_motor/sw/drivers/drvic/ldc1612.c",line 331,column 29,is_stmt
    4223 0000043a D200          MOVB      XAR2,#0               ; [CPU_] |331| 
    4224 0000043b       $C$L119:    
    4225                      .dwpsn  file "D:/Foc/my_motor/sw/drivers/drvic/ldc1612.c",line 345,column 3,is_stmt
    4226              $C$DW$340       .dwtag  DW_TAG_TI_branch
    4227                      .dwattr $C$DW$340, DW_AT_low_pc(0x00)
TMS320C2000 Assembler PC v6.2.5 Mon Jul 10 09:53:39 2017

Tools Copyright (c) 1996-2014 Texas Instruments Incorporated
C:\Users\wmj\AppData\Local\Temp\1375610                              PAGE   81

    4228                      .dwattr $C$DW$340, DW_AT_name("_LDC161x_readI2c")
    4229                      .dwattr $C$DW$340, DW_AT_TI_call
    4230 0000043b 7640'         LCR       #_LDC161x_readI2c     ; [CPU_] |345| 
         0000043c 02FA 
    4231                      ; call occurs [#_LDC161x_readI2c] ; [] |345| 
    4232 0000043d 93A9          MOV       AH,AL                 ; [CPU_] |345| 
    4233                      .dwpsn  file "D:/Foc/my_motor/sw/drivers/drvic/ldc1612.c",line 346,column 3,is_stmt
    4234 0000043e 8AE1          MOVL      XAR4,*+XAR1[4]        ; [CPU_] |346| 
    4235 0000043f 92A2          MOV       AL,AR2                ; [CPU_] |346| 
    4236              $C$DW$341       .dwtag  DW_TAG_TI_branch
    4237                      .dwattr $C$DW$341, DW_AT_low_pc(0x00)
    4238                      .dwattr $C$DW$341, DW_AT_name("_LDC161x_setClkDivs")
    4239                      .dwattr $C$DW$341, DW_AT_TI_call
    4240 00000440 7640'         LCR       #_LDC161x_setClkDivs  ; [CPU_] |346| 
         00000441 027D 
    4241                      ; call occurs [#_LDC161x_setClkDivs] ; [] |346| 
    4242 00000442 86BE          MOVL      XAR2,*--SP            ; [CPU_] 
    4243                      .dwcfi  cfa_offset, -4
    4244                      .dwcfi  restore_reg, 9
    4245 00000443 8BBE          MOVL      XAR1,*--SP            ; [CPU_] 
    4246                      .dwcfi  cfa_offset, -2
    4247                      .dwcfi  restore_reg, 7
    4248              $C$DW$342       .dwtag  DW_TAG_TI_branch
    4249                      .dwattr $C$DW$342, DW_AT_low_pc(0x00)
    4250                      .dwattr $C$DW$342, DW_AT_TI_return
    4251 00000444 0006          LRETR     ; [CPU_] 
    4252                      ; return occurs ; [] 
    4253                      .dwattr $C$DW$332, DW_AT_TI_end_file("D:/Foc/my_motor/sw/drivers/drvic/ldc1612.c")
    4254                      .dwattr $C$DW$332, DW_AT_TI_end_line(0x15d)
    4255                      .dwattr $C$DW$332, DW_AT_TI_end_column(0x01)
    4256                      .dwendentry
    4257                      .dwendtag $C$DW$332
    4258              
    4259 00000445               .sect   ".text"
    4260                      .clink
    4261                      .global _LDC161x_readChData
    4262              
    4263              $C$DW$343       .dwtag  DW_TAG_subprogram, DW_AT_name("LDC161x_readChData")
    4264                      .dwattr $C$DW$343, DW_AT_low_pc(_LDC161x_readChData)
    4265                      .dwattr $C$DW$343, DW_AT_high_pc(0x00)
    4266                      .dwattr $C$DW$343, DW_AT_TI_symbol_name("_LDC161x_readChData")
    4267                      .dwattr $C$DW$343, DW_AT_external
    4268                      .dwattr $C$DW$343, DW_AT_TI_begin_file("D:/Foc/my_motor/sw/drivers/drvic/ldc1612.c")
    4269                      .dwattr $C$DW$343, DW_AT_TI_begin_line(0xb1)
    4270                      .dwattr $C$DW$343, DW_AT_TI_begin_column(0x06)
    4271                      .dwattr $C$DW$343, DW_AT_TI_max_frame_size(-8)
    4272                      .dwpsn  file "D:/Foc/my_motor/sw/drivers/drvic/ldc1612.c",line 178,column 1,is_stmt,address _LDC161x_
    4273              
    4274                      .dwfde $C$DW$CIE, _LDC161x_readChData
    4275              $C$DW$344       .dwtag  DW_TAG_formal_parameter, DW_AT_name("handle")
    4276                      .dwattr $C$DW$344, DW_AT_TI_symbol_name("_handle")
    4277                      .dwattr $C$DW$344, DW_AT_type(*$C$DW$T$120)
    4278                      .dwattr $C$DW$344, DW_AT_location[DW_OP_reg12]
    4279              $C$DW$345       .dwtag  DW_TAG_formal_parameter, DW_AT_name("ChannelNum")
    4280                      .dwattr $C$DW$345, DW_AT_TI_symbol_name("_ChannelNum")
TMS320C2000 Assembler PC v6.2.5 Mon Jul 10 09:53:39 2017

Tools Copyright (c) 1996-2014 Texas Instruments Incorporated
C:\Users\wmj\AppData\Local\Temp\1375610                              PAGE   82

    4281                      .dwattr $C$DW$345, DW_AT_type(*$C$DW$T$96)
    4282                      .dwattr $C$DW$345, DW_AT_location[DW_OP_reg0]
    4283              
    4284              ;***************************************************************
    4285              ;* FNAME: _LDC161x_readChData           FR SIZE:   6           *
    4286              ;*                                                             *
    4287              ;* FUNCTION ENVIRONMENT                                        *
    4288              ;*                                                             *
    4289              ;* FUNCTION PROPERTIES                                         *
    4290              ;*                            0 Parameter,  0 Auto,  6 SOE     *
    4291              ;***************************************************************
    4292              
    4293              _LDC161x_readChData:
    4294              ;* AR3   assigned to _handle
    4295              $C$DW$346       .dwtag  DW_TAG_variable, DW_AT_name("handle")
    4296                      .dwattr $C$DW$346, DW_AT_TI_symbol_name("_handle")
    4297                      .dwattr $C$DW$346, DW_AT_type(*$C$DW$T$121)
    4298                      .dwattr $C$DW$346, DW_AT_location[DW_OP_reg10]
    4299              ;* AL    assigned to _ChannelNum
    4300              $C$DW$347       .dwtag  DW_TAG_variable, DW_AT_name("ChannelNum")
    4301                      .dwattr $C$DW$347, DW_AT_TI_symbol_name("_ChannelNum")
    4302                      .dwattr $C$DW$347, DW_AT_type(*$C$DW$T$106)
    4303                      .dwattr $C$DW$347, DW_AT_location[DW_OP_reg0]
    4304              ;* AL    assigned to _drvRegName1
    4305              $C$DW$348       .dwtag  DW_TAG_variable, DW_AT_name("drvRegName1")
    4306                      .dwattr $C$DW$348, DW_AT_TI_symbol_name("_drvRegName1")
    4307                      .dwattr $C$DW$348, DW_AT_type(*$C$DW$T$93)
    4308                      .dwattr $C$DW$348, DW_AT_location[DW_OP_reg0]
    4309              ;* AR2   assigned to _drvRegName2
    4310              $C$DW$349       .dwtag  DW_TAG_variable, DW_AT_name("drvRegName2")
    4311                      .dwattr $C$DW$349, DW_AT_TI_symbol_name("_drvRegName2")
    4312                      .dwattr $C$DW$349, DW_AT_type(*$C$DW$T$93)
    4313                      .dwattr $C$DW$349, DW_AT_location[DW_OP_reg8]
    4314              ;* AR1   assigned to _ChNum
    4315              $C$DW$350       .dwtag  DW_TAG_variable, DW_AT_name("ChNum")
    4316                      .dwattr $C$DW$350, DW_AT_TI_symbol_name("_ChNum")
    4317                      .dwattr $C$DW$350, DW_AT_type(*$C$DW$T$21)
    4318                      .dwattr $C$DW$350, DW_AT_location[DW_OP_reg6]
    4319              ;* AH    assigned to _drvDataNew
    4320              $C$DW$351       .dwtag  DW_TAG_variable, DW_AT_name("drvDataNew")
    4321                      .dwattr $C$DW$351, DW_AT_TI_symbol_name("_drvDataNew")
    4322                      .dwattr $C$DW$351, DW_AT_type(*$C$DW$T$21)
    4323                      .dwattr $C$DW$351, DW_AT_location[DW_OP_reg1]
    4324              ;* AH    assigned to _drvDataNew
    4325              $C$DW$352       .dwtag  DW_TAG_variable, DW_AT_name("drvDataNew")
    4326                      .dwattr $C$DW$352, DW_AT_TI_symbol_name("_drvDataNew")
    4327                      .dwattr $C$DW$352, DW_AT_type(*$C$DW$T$21)
    4328                      .dwattr $C$DW$352, DW_AT_location[DW_OP_reg1]
    4329                      .dwcfi  cfa_offset, -2
    4330                      .dwcfi  save_reg_to_mem, 26, 0
    4331                      .dwcfi  save_reg_to_reg, 78, 26
    4332 00000445 B2BD          MOVL      *SP++,XAR1            ; [CPU_] 
    4333                      .dwcfi  save_reg_to_mem, 7, 2
    4334                      .dwcfi  cfa_offset, -4
    4335                      .dwpsn  file "D:/Foc/my_motor/sw/drivers/drvic/ldc1612.c",line 185,column 3,is_stmt
TMS320C2000 Assembler PC v6.2.5 Mon Jul 10 09:53:39 2017

Tools Copyright (c) 1996-2014 Texas Instruments Incorporated
C:\Users\wmj\AppData\Local\Temp\1375610                              PAGE   83

    4336 00000446 5200          CMPB      AL,#0                 ; [CPU_] |185| 
    4337 00000447 AABD          MOVL      *SP++,XAR2            ; [CPU_] 
    4338                      .dwcfi  save_reg_to_mem, 9, 4
    4339                      .dwcfi  cfa_offset, -6
    4340 00000448 A2BD          MOVL      *SP++,XAR3            ; [CPU_] 
    4341                      .dwcfi  save_reg_to_mem, 11, 6
    4342                      .dwcfi  cfa_offset, -8
    4343                      .dwpsn  file "D:/Foc/my_motor/sw/drivers/drvic/ldc1612.c",line 178,column 1,is_stmt
    4344 00000449 82A4          MOVL      XAR3,XAR4             ; [CPU_] |178| 
    4345                      .dwpsn  file "D:/Foc/my_motor/sw/drivers/drvic/ldc1612.c",line 185,column 3,is_stmt
    4346 0000044a EC13          BF        $C$L122,EQ            ; [CPU_] |185| 
    4347                      ; branchcc occurs ; [] |185| 
    4348 0000044b 5201          CMPB      AL,#1                 ; [CPU_] |185| 
    4349 0000044c EC0D          BF        $C$L121,EQ            ; [CPU_] |185| 
    4350                      ; branchcc occurs ; [] |185| 
    4351 0000044d 5202          CMPB      AL,#2                 ; [CPU_] |185| 
    4352 0000044e EC07          BF        $C$L120,EQ            ; [CPU_] |185| 
    4353                      ; branchcc occurs ; [] |185| 
    4354 0000044f 5203          CMPB      AL,#3                 ; [CPU_] |185| 
    4355 00000450 ED10          BF        $C$L123,NEQ           ; [CPU_] |185| 
    4356                      ; branchcc occurs ; [] |185| 
    4357                      .dwpsn  file "D:/Foc/my_motor/sw/drivers/drvic/ldc1612.c",line 199,column 29,is_stmt
    4358 00000451 9A07          MOVB      AL,#7                 ; [CPU_] |199| 
    4359                      .dwpsn  file "D:/Foc/my_motor/sw/drivers/drvic/ldc1612.c",line 200,column 9,is_stmt
    4360 00000452 D206          MOVB      XAR2,#6               ; [CPU_] |200| 
    4361                      .dwpsn  file "D:/Foc/my_motor/sw/drivers/drvic/ldc1612.c",line 201,column 9,is_stmt
    4362 00000453 D103          MOVB      XAR1,#3               ; [CPU_] |201| 
    4363                      .dwpsn  file "D:/Foc/my_motor/sw/drivers/drvic/ldc1612.c",line 202,column 7,is_stmt
    4364 00000454 6F0C          B         $C$L123,UNC           ; [CPU_] |202| 
    4365                      ; branch occurs ; [] |202| 
    4366 00000455       $C$L120:    
    4367                      .dwpsn  file "D:/Foc/my_motor/sw/drivers/drvic/ldc1612.c",line 195,column 29,is_stmt
    4368 00000455 9A05          MOVB      AL,#5                 ; [CPU_] |195| 
    4369                      .dwpsn  file "D:/Foc/my_motor/sw/drivers/drvic/ldc1612.c",line 196,column 9,is_stmt
    4370 00000456 D204          MOVB      XAR2,#4               ; [CPU_] |196| 
    4371                      .dwpsn  file "D:/Foc/my_motor/sw/drivers/drvic/ldc1612.c",line 197,column 9,is_stmt
    4372 00000457 D102          MOVB      XAR1,#2               ; [CPU_] |197| 
    4373                      .dwpsn  file "D:/Foc/my_motor/sw/drivers/drvic/ldc1612.c",line 198,column 7,is_stmt
    4374 00000458 6F08          B         $C$L123,UNC           ; [CPU_] |198| 
    4375                      ; branch occurs ; [] |198| 
    4376 00000459       $C$L121:    
    4377                      .dwpsn  file "D:/Foc/my_motor/sw/drivers/drvic/ldc1612.c",line 191,column 29,is_stmt
    4378 00000459 9A03          MOVB      AL,#3                 ; [CPU_] |191| 
    4379                      .dwpsn  file "D:/Foc/my_motor/sw/drivers/drvic/ldc1612.c",line 192,column 9,is_stmt
    4380 0000045a D202          MOVB      XAR2,#2               ; [CPU_] |192| 
    4381                      .dwpsn  file "D:/Foc/my_motor/sw/drivers/drvic/ldc1612.c",line 193,column 9,is_stmt
    4382 0000045b D101          MOVB      XAR1,#1               ; [CPU_] |193| 
    4383                      .dwpsn  file "D:/Foc/my_motor/sw/drivers/drvic/ldc1612.c",line 194,column 7,is_stmt
    4384 0000045c 6F04          B         $C$L123,UNC           ; [CPU_] |194| 
    4385                      ; branch occurs ; [] |194| 
    4386 0000045d       $C$L122:    
    4387                      .dwpsn  file "D:/Foc/my_motor/sw/drivers/drvic/ldc1612.c",line 187,column 29,is_stmt
    4388 0000045d 9A01          MOVB      AL,#1                 ; [CPU_] |187| 
    4389                      .dwpsn  file "D:/Foc/my_motor/sw/drivers/drvic/ldc1612.c",line 188,column 9,is_stmt
    4390 0000045e D200          MOVB      XAR2,#0               ; [CPU_] |188| 
TMS320C2000 Assembler PC v6.2.5 Mon Jul 10 09:53:39 2017

Tools Copyright (c) 1996-2014 Texas Instruments Incorporated
C:\Users\wmj\AppData\Local\Temp\1375610                              PAGE   84

    4391                      .dwpsn  file "D:/Foc/my_motor/sw/drivers/drvic/ldc1612.c",line 189,column 9,is_stmt
    4392 0000045f D100          MOVB      XAR1,#0               ; [CPU_] |189| 
    4393 00000460       $C$L123:    
    4394                      .dwpsn  file "D:/Foc/my_motor/sw/drivers/drvic/ldc1612.c",line 206,column 3,is_stmt
    4395              $C$DW$353       .dwtag  DW_TAG_TI_branch
    4396                      .dwattr $C$DW$353, DW_AT_low_pc(0x00)
    4397                      .dwattr $C$DW$353, DW_AT_name("_LDC161x_readI2c")
    4398                      .dwattr $C$DW$353, DW_AT_TI_call
    4399 00000460 7640'         LCR       #_LDC161x_readI2c     ; [CPU_] |206| 
         00000461 02FA 
    4400                      ; call occurs [#_LDC161x_readI2c] ; [] |206| 
    4401 00000462 93A9          MOV       AH,AL                 ; [CPU_] |206| 
    4402                      .dwpsn  file "D:/Foc/my_motor/sw/drivers/drvic/ldc1612.c",line 207,column 3,is_stmt
    4403 00000463 8AE3          MOVL      XAR4,*+XAR3[4]        ; [CPU_] |207| 
    4404 00000464 92A1          MOV       AL,AR1                ; [CPU_] |207| 
    4405              $C$DW$354       .dwtag  DW_TAG_TI_branch
    4406                      .dwattr $C$DW$354, DW_AT_low_pc(0x00)
    4407                      .dwattr $C$DW$354, DW_AT_name("_LDC161x_setChData_LSB")
    4408                      .dwattr $C$DW$354, DW_AT_TI_call
    4409 00000465 7640'         LCR       #_LDC161x_setChData_LSB ; [CPU_] |207| 
         00000466 02E7 
    4410                      ; call occurs [#_LDC161x_setChData_LSB] ; [] |207| 
    4411                      .dwpsn  file "D:/Foc/my_motor/sw/drivers/drvic/ldc1612.c",line 208,column 3,is_stmt
    4412 00000467 92A2          MOV       AL,AR2                ; [CPU_] |208| 
    4413 00000468 8AA3          MOVL      XAR4,XAR3             ; [CPU_] |208| 
    4414              $C$DW$355       .dwtag  DW_TAG_TI_branch
    4415                      .dwattr $C$DW$355, DW_AT_low_pc(0x00)
    4416                      .dwattr $C$DW$355, DW_AT_name("_LDC161x_readI2c")
    4417                      .dwattr $C$DW$355, DW_AT_TI_call
    4418 00000469 7640'         LCR       #_LDC161x_readI2c     ; [CPU_] |208| 
         0000046a 02FA 
    4419                      ; call occurs [#_LDC161x_readI2c] ; [] |208| 
    4420 0000046b 93A9          MOV       AH,AL                 ; [CPU_] |208| 
    4421                      .dwpsn  file "D:/Foc/my_motor/sw/drivers/drvic/ldc1612.c",line 209,column 3,is_stmt
    4422 0000046c 8AE3          MOVL      XAR4,*+XAR3[4]        ; [CPU_] |209| 
    4423 0000046d 92A1          MOV       AL,AR1                ; [CPU_] |209| 
    4424              $C$DW$356       .dwtag  DW_TAG_TI_branch
    4425                      .dwattr $C$DW$356, DW_AT_low_pc(0x00)
    4426                      .dwattr $C$DW$356, DW_AT_name("_LDC161x_setChData_MSB")
    4427                      .dwattr $C$DW$356, DW_AT_TI_call
    4428 0000046e 7640'         LCR       #_LDC161x_setChData_MSB ; [CPU_] |209| 
         0000046f 02A0 
    4429                      ; call occurs [#_LDC161x_setChData_MSB] ; [] |209| 
    4430 00000470 82BE          MOVL      XAR3,*--SP            ; [CPU_] 
    4431                      .dwcfi  cfa_offset, -6
    4432                      .dwcfi  restore_reg, 11
    4433 00000471 86BE          MOVL      XAR2,*--SP            ; [CPU_] 
    4434                      .dwcfi  cfa_offset, -4
    4435                      .dwcfi  restore_reg, 9
    4436 00000472 8BBE          MOVL      XAR1,*--SP            ; [CPU_] 
    4437                      .dwcfi  cfa_offset, -2
    4438                      .dwcfi  restore_reg, 7
    4439              $C$DW$357       .dwtag  DW_TAG_TI_branch
    4440                      .dwattr $C$DW$357, DW_AT_low_pc(0x00)
    4441                      .dwattr $C$DW$357, DW_AT_TI_return
TMS320C2000 Assembler PC v6.2.5 Mon Jul 10 09:53:39 2017

Tools Copyright (c) 1996-2014 Texas Instruments Incorporated
C:\Users\wmj\AppData\Local\Temp\1375610                              PAGE   85

    4442 00000473 0006          LRETR     ; [CPU_] 
    4443                      ; return occurs ; [] 
    4444                      .dwattr $C$DW$343, DW_AT_TI_end_file("D:/Foc/my_motor/sw/drivers/drvic/ldc1612.c")
    4445                      .dwattr $C$DW$343, DW_AT_TI_end_line(0xd4)
    4446                      .dwattr $C$DW$343, DW_AT_TI_end_column(0x01)
    4447                      .dwendentry
    4448                      .dwendtag $C$DW$343
    4449              
    4450 00000474               .sect   ".text"
    4451                      .clink
    4452                      .global _LDC161x_getMuxConfig
    4453              
    4454              $C$DW$358       .dwtag  DW_TAG_subprogram, DW_AT_name("LDC161x_getMuxConfig")
    4455                      .dwattr $C$DW$358, DW_AT_low_pc(_LDC161x_getMuxConfig)
    4456                      .dwattr $C$DW$358, DW_AT_high_pc(0x00)
    4457                      .dwattr $C$DW$358, DW_AT_TI_symbol_name("_LDC161x_getMuxConfig")
    4458                      .dwattr $C$DW$358, DW_AT_external
    4459                      .dwattr $C$DW$358, DW_AT_TI_begin_file("D:/Foc/my_motor/sw/drivers/drvic/ldc1612.c")
    4460                      .dwattr $C$DW$358, DW_AT_TI_begin_line(0x332)
    4461                      .dwattr $C$DW$358, DW_AT_TI_begin_column(0x06)
    4462                      .dwattr $C$DW$358, DW_AT_TI_max_frame_size(-2)
    4463                      .dwpsn  file "D:/Foc/my_motor/sw/drivers/drvic/ldc1612.c",line 819,column 1,is_stmt,address _LDC161x_
    4464              
    4465                      .dwfde $C$DW$CIE, _LDC161x_getMuxConfig
    4466              $C$DW$359       .dwtag  DW_TAG_formal_parameter, DW_AT_name("handle")
    4467                      .dwattr $C$DW$359, DW_AT_TI_symbol_name("_handle")
    4468                      .dwattr $C$DW$359, DW_AT_type(*$C$DW$T$47)
    4469                      .dwattr $C$DW$359, DW_AT_location[DW_OP_reg12]
    4470              $C$DW$360       .dwtag  DW_TAG_formal_parameter, DW_AT_name("drvDataGet")
    4471                      .dwattr $C$DW$360, DW_AT_TI_symbol_name("_drvDataGet")
    4472                      .dwattr $C$DW$360, DW_AT_type(*$C$DW$T$155)
    4473                      .dwattr $C$DW$360, DW_AT_location[DW_OP_reg14]
    4474              
    4475              ;***************************************************************
    4476              ;* FNAME: _LDC161x_getMuxConfig         FR SIZE:   0           *
    4477              ;*                                                             *
    4478              ;* FUNCTION ENVIRONMENT                                        *
    4479              ;*                                                             *
    4480              ;* FUNCTION PROPERTIES                                         *
    4481              ;*                            0 Parameter,  0 Auto,  0 SOE     *
    4482              ;***************************************************************
    4483              
    4484              _LDC161x_getMuxConfig:
    4485              ;* AL    assigned to _drvData
    4486              $C$DW$361       .dwtag  DW_TAG_variable, DW_AT_name("drvData")
    4487                      .dwattr $C$DW$361, DW_AT_TI_symbol_name("_drvData")
    4488                      .dwattr $C$DW$361, DW_AT_type(*$C$DW$T$21)
    4489                      .dwattr $C$DW$361, DW_AT_location[DW_OP_reg0]
    4490              ;* AR4   assigned to _obj
    4491              $C$DW$362       .dwtag  DW_TAG_variable, DW_AT_name("obj")
    4492                      .dwattr $C$DW$362, DW_AT_TI_symbol_name("_obj")
    4493                      .dwattr $C$DW$362, DW_AT_type(*$C$DW$T$125)
    4494                      .dwattr $C$DW$362, DW_AT_location[DW_OP_reg12]
    4495              ;* AR5   assigned to _drvDataGet
    4496              $C$DW$363       .dwtag  DW_TAG_variable, DW_AT_name("drvDataGet")
TMS320C2000 Assembler PC v6.2.5 Mon Jul 10 09:53:39 2017

Tools Copyright (c) 1996-2014 Texas Instruments Incorporated
C:\Users\wmj\AppData\Local\Temp\1375610                              PAGE   86

    4497                      .dwattr $C$DW$363, DW_AT_TI_symbol_name("_drvDataGet")
    4498                      .dwattr $C$DW$363, DW_AT_type(*$C$DW$T$167)
    4499                      .dwattr $C$DW$363, DW_AT_location[DW_OP_reg14]
    4500              ;* AR4   assigned to _handle
    4501              $C$DW$364       .dwtag  DW_TAG_variable, DW_AT_name("handle")
    4502                      .dwattr $C$DW$364, DW_AT_TI_symbol_name("_handle")
    4503                      .dwattr $C$DW$364, DW_AT_type(*$C$DW$T$109)
    4504                      .dwattr $C$DW$364, DW_AT_location[DW_OP_reg12]
    4505                      .dwcfi  cfa_offset, -2
    4506                      .dwcfi  save_reg_to_mem, 26, 0
    4507                      .dwcfi  save_reg_to_reg, 78, 26
    4508                      .dwpsn  file "D:/Foc/my_motor/sw/drivers/drvic/ldc1612.c",line 823,column 5,is_stmt
    4509 00000474 D04E          MOVB      XAR0,#78              ; [CPU_] |823| 
    4510 00000475 9294          MOV       AL,*+XAR4[AR0]        ; [CPU_] |823| 
    4511 00000476 EC04          BF        $C$L124,EQ            ; [CPU_] |823| 
    4512                      ; branchcc occurs ; [] |823| 
    4513 00000477 28A9          MOV       AL,#32768             ; [CPU_] |823| 
         00000478 8000 
    4514 00000479 6F02          B         $C$L125,UNC           ; [CPU_] |823| 
    4515                      ; branch occurs ; [] |823| 
    4516 0000047a       $C$L124:    
    4517 0000047a 9A00          MOVB      AL,#0                 ; [CPU_] |823| 
    4518 0000047b       $C$L125:    
    4519                      .dwpsn  file "D:/Foc/my_motor/sw/drivers/drvic/ldc1612.c",line 824,column 3,is_stmt
    4520 0000047b D04F          MOVB      XAR0,#79              ; [CPU_] |824| 
    4521 0000047c 9394          MOV       AH,*+XAR4[AR0]        ; [CPU_] |824| 
    4522 0000047d EC03          BF        $C$L126,EQ            ; [CPU_] |824| 
    4523                      ; branchcc occurs ; [] |824| 
    4524                      .dwpsn  file "D:/Foc/my_motor/sw/drivers/drvic/ldc1612.c",line 825,column 5,is_stmt
    4525 0000047e 1AA9          OR        AL,#0x2000            ; [CPU_] |825| 
         0000047f 2000 
    4526 00000480       $C$L126:    
    4527                      .dwpsn  file "D:/Foc/my_motor/sw/drivers/drvic/ldc1612.c",line 826,column 3,is_stmt
    4528 00000480 D050          MOVB      XAR0,#80              ; [CPU_] |826| 
    4529 00000481 9394          MOV       AH,*+XAR4[AR0]        ; [CPU_] |826| 
    4530 00000482 EC03          BF        $C$L127,EQ            ; [CPU_] |826| 
    4531                      ; branchcc occurs ; [] |826| 
    4532                      .dwpsn  file "D:/Foc/my_motor/sw/drivers/drvic/ldc1612.c",line 827,column 5,is_stmt
    4533 00000483 1AA9          OR        AL,#0x4000            ; [CPU_] |827| 
         00000484 4000 
    4534 00000485       $C$L127:    
    4535                      .dwpsn  file "D:/Foc/my_motor/sw/drivers/drvic/ldc1612.c",line 828,column 3,is_stmt
    4536 00000485 D051          MOVB      XAR0,#81              ; [CPU_] |828| 
    4537 00000486 9394          MOV       AH,*+XAR4[AR0]        ; [CPU_] |828| 
    4538 00000487 EC02          BF        $C$L128,EQ            ; [CPU_] |828| 
    4539                      ; branchcc occurs ; [] |828| 
    4540                      .dwpsn  file "D:/Foc/my_motor/sw/drivers/drvic/ldc1612.c",line 829,column 5,is_stmt
    4541 00000488 5001          ORB       AL,#0x01              ; [CPU_] |829| 
    4542 00000489       $C$L128:    
    4543                      .dwpsn  file "D:/Foc/my_motor/sw/drivers/drvic/ldc1612.c",line 830,column 3,is_stmt
    4544 00000489 D052          MOVB      XAR0,#82              ; [CPU_] |830| 
    4545 0000048a 9394          MOV       AH,*+XAR4[AR0]        ; [CPU_] |830| 
    4546 0000048b EC02          BF        $C$L129,EQ            ; [CPU_] |830| 
    4547                      ; branchcc occurs ; [] |830| 
    4548                      .dwpsn  file "D:/Foc/my_motor/sw/drivers/drvic/ldc1612.c",line 831,column 5,is_stmt
TMS320C2000 Assembler PC v6.2.5 Mon Jul 10 09:53:39 2017

Tools Copyright (c) 1996-2014 Texas Instruments Incorporated
C:\Users\wmj\AppData\Local\Temp\1375610                              PAGE   87

    4549 0000048c 5002          ORB       AL,#0x02              ; [CPU_] |831| 
    4550 0000048d       $C$L129:    
    4551                      .dwpsn  file "D:/Foc/my_motor/sw/drivers/drvic/ldc1612.c",line 832,column 3,is_stmt
    4552 0000048d D053          MOVB      XAR0,#83              ; [CPU_] |832| 
    4553 0000048e 9394          MOV       AH,*+XAR4[AR0]        ; [CPU_] |832| 
    4554 0000048f EC02          BF        $C$L130,EQ            ; [CPU_] |832| 
    4555                      ; branchcc occurs ; [] |832| 
    4556                      .dwpsn  file "D:/Foc/my_motor/sw/drivers/drvic/ldc1612.c",line 833,column 5,is_stmt
    4557 00000490 5004          ORB       AL,#0x04              ; [CPU_] |833| 
    4558 00000491       $C$L130:    
    4559                      .dwpsn  file "D:/Foc/my_motor/sw/drivers/drvic/ldc1612.c",line 835,column 3,is_stmt
    4560 00000491 96C5          MOV       *+XAR5[0],AL          ; [CPU_] |835| 
    4561              $C$DW$365       .dwtag  DW_TAG_TI_branch
    4562                      .dwattr $C$DW$365, DW_AT_low_pc(0x00)
    4563                      .dwattr $C$DW$365, DW_AT_TI_return
    4564 00000492 0006          LRETR     ; [CPU_] 
    4565                      ; return occurs ; [] 
    4566                      .dwattr $C$DW$358, DW_AT_TI_end_file("D:/Foc/my_motor/sw/drivers/drvic/ldc1612.c")
    4567                      .dwattr $C$DW$358, DW_AT_TI_end_line(0x346)
    4568                      .dwattr $C$DW$358, DW_AT_TI_end_column(0x01)
    4569                      .dwendentry
    4570                      .dwendtag $C$DW$358
    4571              
    4572 00000493               .sect   ".text"
    4573                      .clink
    4574                      .global _LDC161x_getChData
    4575              
    4576              $C$DW$366       .dwtag  DW_TAG_subprogram, DW_AT_name("LDC161x_getChData")
    4577                      .dwattr $C$DW$366, DW_AT_low_pc(_LDC161x_getChData)
    4578                      .dwattr $C$DW$366, DW_AT_high_pc(0x00)
    4579                      .dwattr $C$DW$366, DW_AT_TI_symbol_name("_LDC161x_getChData")
    4580                      .dwattr $C$DW$366, DW_AT_external
    4581                      .dwattr $C$DW$366, DW_AT_TI_begin_file("D:/Foc/my_motor/sw/drivers/drvic/ldc1612.c")
    4582                      .dwattr $C$DW$366, DW_AT_TI_begin_line(0x364)
    4583                      .dwattr $C$DW$366, DW_AT_TI_begin_column(0x06)
    4584                      .dwattr $C$DW$366, DW_AT_TI_max_frame_size(-4)
    4585                      .dwpsn  file "D:/Foc/my_motor/sw/drivers/drvic/ldc1612.c",line 869,column 1,is_stmt,address _LDC161x_
    4586              
    4587                      .dwfde $C$DW$CIE, _LDC161x_getChData
    4588              $C$DW$367       .dwtag  DW_TAG_formal_parameter, DW_AT_name("handle")
    4589                      .dwattr $C$DW$367, DW_AT_TI_symbol_name("_handle")
    4590                      .dwattr $C$DW$367, DW_AT_type(*$C$DW$T$47)
    4591                      .dwattr $C$DW$367, DW_AT_location[DW_OP_reg12]
    4592              $C$DW$368       .dwtag  DW_TAG_formal_parameter, DW_AT_name("ChNum")
    4593                      .dwattr $C$DW$368, DW_AT_TI_symbol_name("_ChNum")
    4594                      .dwattr $C$DW$368, DW_AT_type(*$C$DW$T$97)
    4595                      .dwattr $C$DW$368, DW_AT_location[DW_OP_reg0]
    4596              $C$DW$369       .dwtag  DW_TAG_formal_parameter, DW_AT_name("drvDataGet")
    4597                      .dwattr $C$DW$369, DW_AT_TI_symbol_name("_drvDataGet")
    4598                      .dwattr $C$DW$369, DW_AT_type(*$C$DW$T$158)
    4599                      .dwattr $C$DW$369, DW_AT_location[DW_OP_reg14]
    4600              
    4601              ;***************************************************************
    4602              ;* FNAME: _LDC161x_getChData            FR SIZE:   2           *
    4603              ;*                                                             *
TMS320C2000 Assembler PC v6.2.5 Mon Jul 10 09:53:39 2017

Tools Copyright (c) 1996-2014 Texas Instruments Incorporated
C:\Users\wmj\AppData\Local\Temp\1375610                              PAGE   88

    4604              ;* FUNCTION ENVIRONMENT                                        *
    4605              ;*                                                             *
    4606              ;* FUNCTION PROPERTIES                                         *
    4607              ;*                            0 Parameter,  2 Auto,  0 SOE     *
    4608              ;***************************************************************
    4609              
    4610              _LDC161x_getChData:
    4611              ;* AR4   assigned to _obj
    4612              $C$DW$370       .dwtag  DW_TAG_variable, DW_AT_name("obj")
    4613                      .dwattr $C$DW$370, DW_AT_TI_symbol_name("_obj")
    4614                      .dwattr $C$DW$370, DW_AT_type(*$C$DW$T$125)
    4615                      .dwattr $C$DW$370, DW_AT_location[DW_OP_reg12]
    4616              ;* AR5   assigned to _drvDataGet
    4617              $C$DW$371       .dwtag  DW_TAG_variable, DW_AT_name("drvDataGet")
    4618                      .dwattr $C$DW$371, DW_AT_TI_symbol_name("_drvDataGet")
    4619                      .dwattr $C$DW$371, DW_AT_type(*$C$DW$T$182)
    4620                      .dwattr $C$DW$371, DW_AT_location[DW_OP_reg14]
    4621              ;* AL    assigned to _ChNum
    4622              $C$DW$372       .dwtag  DW_TAG_variable, DW_AT_name("ChNum")
    4623                      .dwattr $C$DW$372, DW_AT_TI_symbol_name("_ChNum")
    4624                      .dwattr $C$DW$372, DW_AT_type(*$C$DW$T$97)
    4625                      .dwattr $C$DW$372, DW_AT_location[DW_OP_reg0]
    4626              ;* AR4   assigned to _handle
    4627              $C$DW$373       .dwtag  DW_TAG_variable, DW_AT_name("handle")
    4628                      .dwattr $C$DW$373, DW_AT_TI_symbol_name("_handle")
    4629                      .dwattr $C$DW$373, DW_AT_type(*$C$DW$T$109)
    4630                      .dwattr $C$DW$373, DW_AT_location[DW_OP_reg12]
    4631              $C$DW$374       .dwtag  DW_TAG_variable, DW_AT_name("drvData")
    4632                      .dwattr $C$DW$374, DW_AT_TI_symbol_name("_drvData")
    4633                      .dwattr $C$DW$374, DW_AT_type(*$C$DW$T$73)
    4634                      .dwattr $C$DW$374, DW_AT_location[DW_OP_breg20 -2]
    4635                      .dwcfi  cfa_offset, -2
    4636                      .dwcfi  save_reg_to_mem, 26, 0
    4637                      .dwcfi  save_reg_to_reg, 78, 26
    4638 00000493 FE02          ADDB      SP,#2                 ; [CPU_U] 
    4639                      .dwcfi  cfa_offset, -4
    4640                      .dwpsn  file "D:/Foc/my_motor/sw/drivers/drvic/ldc1612.c",line 880,column 3,is_stmt
    4641 00000494 BE00          MOVB      XAR6,#0               ; [CPU_] |880| 
    4642                      .dwpsn  file "D:/Foc/my_motor/sw/drivers/drvic/ldc1612.c",line 882,column 3,is_stmt
    4643 00000495 5200          CMPB      AL,#0                 ; [CPU_] |882| 
    4644                      .dwpsn  file "D:/Foc/my_motor/sw/drivers/drvic/ldc1612.c",line 880,column 3,is_stmt
    4645 00000496 C242          MOVL      *-SP[2],XAR6          ; [CPU_] |880| 
    4646                      .dwpsn  file "D:/Foc/my_motor/sw/drivers/drvic/ldc1612.c",line 882,column 3,is_stmt
    4647 00000497 EC15          BF        $C$L134,EQ            ; [CPU_] |882| 
    4648                      ; branchcc occurs ; [] |882| 
    4649 00000498 5201          CMPB      AL,#1                 ; [CPU_] |882| 
    4650 00000499 EC0D          BF        $C$L132,EQ            ; [CPU_] |882| 
    4651                      ; branchcc occurs ; [] |882| 
    4652 0000049a 5202          CMPB      AL,#2                 ; [CPU_] |882| 
    4653 0000049b EC07          BF        $C$L131,EQ            ; [CPU_] |882| 
    4654                      ; branchcc occurs ; [] |882| 
    4655 0000049c 5203          CMPB      AL,#3                 ; [CPU_] |882| 
    4656 0000049d ED13          BF        $C$L136,NEQ           ; [CPU_] |882| 
    4657                      ; branchcc occurs ; [] |882| 
    4658                      .dwpsn  file "D:/Foc/my_motor/sw/drivers/drvic/ldc1612.c",line 897,column 13,is_stmt
TMS320C2000 Assembler PC v6.2.5 Mon Jul 10 09:53:39 2017

Tools Copyright (c) 1996-2014 Texas Instruments Incorporated
C:\Users\wmj\AppData\Local\Temp\1375610                              PAGE   89

    4659 0000049e D016          MOVB      XAR0,#22              ; [CPU_] |897| 
    4660 0000049f 9294          MOV       AL,*+XAR4[AR0]        ; [CPU_] |897| 
    4661                      .dwpsn  file "D:/Foc/my_motor/sw/drivers/drvic/ldc1612.c",line 898,column 13,is_stmt
    4662 000004a0 D017          MOVB      XAR0,#23              ; [CPU_] |898| 
    4663                      .dwpsn  file "D:/Foc/my_motor/sw/drivers/drvic/ldc1612.c",line 899,column 13,is_stmt
    4664 000004a1 6F08          B         $C$L133,UNC           ; [CPU_] |899| 
    4665                      ; branch occurs ; [] |899| 
    4666 000004a2       $C$L131:    
    4667                      .dwpsn  file "D:/Foc/my_motor/sw/drivers/drvic/ldc1612.c",line 893,column 13,is_stmt
    4668 000004a2 D010          MOVB      XAR0,#16              ; [CPU_] |893| 
    4669 000004a3 9294          MOV       AL,*+XAR4[AR0]        ; [CPU_] |893| 
    4670                      .dwpsn  file "D:/Foc/my_motor/sw/drivers/drvic/ldc1612.c",line 894,column 13,is_stmt
    4671 000004a4 D011          MOVB      XAR0,#17              ; [CPU_] |894| 
    4672                      .dwpsn  file "D:/Foc/my_motor/sw/drivers/drvic/ldc1612.c",line 895,column 13,is_stmt
    4673 000004a5 6F04          B         $C$L133,UNC           ; [CPU_] |895| 
    4674                      ; branch occurs ; [] |895| 
    4675 000004a6       $C$L132:    
    4676                      .dwpsn  file "D:/Foc/my_motor/sw/drivers/drvic/ldc1612.c",line 889,column 13,is_stmt
    4677 000004a6 D00A          MOVB      XAR0,#10              ; [CPU_] |889| 
    4678 000004a7 9294          MOV       AL,*+XAR4[AR0]        ; [CPU_] |889| 
    4679                      .dwpsn  file "D:/Foc/my_motor/sw/drivers/drvic/ldc1612.c",line 890,column 13,is_stmt
    4680 000004a8 D00B          MOVB      XAR0,#11              ; [CPU_] |890| 
    4681 000004a9       $C$L133:    
    4682                      .dwpsn  file "D:/Foc/my_motor/sw/drivers/drvic/ldc1612.c",line 889,column 13,is_stmt
    4683 000004a9 9841          OR        *-SP[1],AL            ; [CPU_] |889| 
    4684                      .dwpsn  file "D:/Foc/my_motor/sw/drivers/drvic/ldc1612.c",line 890,column 13,is_stmt
    4685 000004aa 9294          MOV       AL,*+XAR4[AR0]        ; [CPU_] |890| 
    4686                      .dwpsn  file "D:/Foc/my_motor/sw/drivers/drvic/ldc1612.c",line 891,column 13,is_stmt
    4687 000004ab 6F04          B         $C$L135,UNC           ; [CPU_] |891| 
    4688                      ; branch occurs ; [] |891| 
    4689 000004ac       $C$L134:    
    4690                      .dwpsn  file "D:/Foc/my_motor/sw/drivers/drvic/ldc1612.c",line 885,column 13,is_stmt
    4691 000004ac 92E4          MOV       AL,*+XAR4[4]          ; [CPU_] |885| 
    4692 000004ad 9841          OR        *-SP[1],AL            ; [CPU_] |885| 
    4693                      .dwpsn  file "D:/Foc/my_motor/sw/drivers/drvic/ldc1612.c",line 886,column 13,is_stmt
    4694 000004ae 92EC          MOV       AL,*+XAR4[5]          ; [CPU_] |886| 
    4695 000004af       $C$L135:    
    4696 000004af 9842          OR        *-SP[2],AL            ; [CPU_] |886| 
    4697 000004b0       $C$L136:    
    4698                      .dwpsn  file "D:/Foc/my_motor/sw/drivers/drvic/ldc1612.c",line 903,column 3,is_stmt
    4699 000004b0 0642          MOVL      ACC,*-SP[2]           ; [CPU_] |903| 
    4700 000004b1 1EC5          MOVL      *+XAR5[0],ACC         ; [CPU_] |903| 
    4701 000004b2 FE82          SUBB      SP,#2                 ; [CPU_U] 
    4702                      .dwcfi  cfa_offset, -2
    4703              $C$DW$375       .dwtag  DW_TAG_TI_branch
    4704                      .dwattr $C$DW$375, DW_AT_low_pc(0x00)
    4705                      .dwattr $C$DW$375, DW_AT_TI_return
    4706 000004b3 0006          LRETR     ; [CPU_] 
    4707                      ; return occurs ; [] 
    4708                      .dwattr $C$DW$366, DW_AT_TI_end_file("D:/Foc/my_motor/sw/drivers/drvic/ldc1612.c")
    4709                      .dwattr $C$DW$366, DW_AT_TI_end_line(0x38a)
    4710                      .dwattr $C$DW$366, DW_AT_TI_end_column(0x01)
    4711                      .dwendentry
    4712                      .dwendtag $C$DW$366
    4713              
TMS320C2000 Assembler PC v6.2.5 Mon Jul 10 09:53:39 2017

Tools Copyright (c) 1996-2014 Texas Instruments Incorporated
C:\Users\wmj\AppData\Local\Temp\1375610                              PAGE   90

    4714 000004b4               .sect   ".text"
    4715                      .clink
    4716                      .global _LDC161x_ResetSensor
    4717              
    4718              $C$DW$376       .dwtag  DW_TAG_subprogram, DW_AT_name("LDC161x_ResetSensor")
    4719                      .dwattr $C$DW$376, DW_AT_low_pc(_LDC161x_ResetSensor)
    4720                      .dwattr $C$DW$376, DW_AT_high_pc(0x00)
    4721                      .dwattr $C$DW$376, DW_AT_TI_symbol_name("_LDC161x_ResetSensor")
    4722                      .dwattr $C$DW$376, DW_AT_external
    4723                      .dwattr $C$DW$376, DW_AT_TI_begin_file("D:/Foc/my_motor/sw/drivers/drvic/ldc1612.c")
    4724                      .dwattr $C$DW$376, DW_AT_TI_begin_line(0x242)
    4725                      .dwattr $C$DW$376, DW_AT_TI_begin_column(0x06)
    4726                      .dwattr $C$DW$376, DW_AT_TI_max_frame_size(-2)
    4727                      .dwpsn  file "D:/Foc/my_motor/sw/drivers/drvic/ldc1612.c",line 579,column 1,is_stmt,address _LDC161x_
    4728              
    4729                      .dwfde $C$DW$CIE, _LDC161x_ResetSensor
    4730              $C$DW$377       .dwtag  DW_TAG_formal_parameter, DW_AT_name("handle")
    4731                      .dwattr $C$DW$377, DW_AT_TI_symbol_name("_handle")
    4732                      .dwattr $C$DW$377, DW_AT_type(*$C$DW$T$120)
    4733                      .dwattr $C$DW$377, DW_AT_location[DW_OP_reg12]
    4734              
    4735              ;***************************************************************
    4736              ;* FNAME: _LDC161x_ResetSensor          FR SIZE:   0           *
    4737              ;*                                                             *
    4738              ;* FUNCTION ENVIRONMENT                                        *
    4739              ;*                                                             *
    4740              ;* FUNCTION PROPERTIES                                         *
    4741              ;*                            0 Parameter,  0 Auto,  0 SOE     *
    4742              ;***************************************************************
    4743              
    4744              _LDC161x_ResetSensor:
    4745              ;* AR4   assigned to _handle
    4746              $C$DW$378       .dwtag  DW_TAG_variable, DW_AT_name("handle")
    4747                      .dwattr $C$DW$378, DW_AT_TI_symbol_name("_handle")
    4748                      .dwattr $C$DW$378, DW_AT_type(*$C$DW$T$121)
    4749                      .dwattr $C$DW$378, DW_AT_location[DW_OP_reg12]
    4750                      .dwcfi  cfa_offset, -2
    4751                      .dwcfi  save_reg_to_mem, 26, 0
    4752                      .dwcfi  save_reg_to_reg, 78, 26
    4753                      .dwpsn  file "D:/Foc/my_motor/sw/drivers/drvic/ldc1612.c",line 586,column 4,is_stmt
    4754 000004b4 9A1C          MOVB      AL,#28                ; [CPU_] |586| 
    4755 000004b5 28A8          MOV       AH,#32768             ; [CPU_] |586| 
         000004b6 8000 
    4756              $C$DW$379       .dwtag  DW_TAG_TI_branch
    4757                      .dwattr $C$DW$379, DW_AT_low_pc(0x00)
    4758                      .dwattr $C$DW$379, DW_AT_name("_LDC161x_writeI2c")
    4759                      .dwattr $C$DW$379, DW_AT_TI_call
    4760 000004b7 7640'         LCR       #_LDC161x_writeI2c    ; [CPU_] |586| 
         000004b8 0014 
    4761                      ; call occurs [#_LDC161x_writeI2c] ; [] |586| 
    4762              $C$DW$380       .dwtag  DW_TAG_TI_branch
    4763                      .dwattr $C$DW$380, DW_AT_low_pc(0x00)
    4764                      .dwattr $C$DW$380, DW_AT_TI_return
    4765 000004b9 0006          LRETR     ; [CPU_] 
    4766                      ; return occurs ; [] 
TMS320C2000 Assembler PC v6.2.5 Mon Jul 10 09:53:39 2017

Tools Copyright (c) 1996-2014 Texas Instruments Incorporated
C:\Users\wmj\AppData\Local\Temp\1375610                              PAGE   91

    4767                      .dwattr $C$DW$376, DW_AT_TI_end_file("D:/Foc/my_motor/sw/drivers/drvic/ldc1612.c")
    4768                      .dwattr $C$DW$376, DW_AT_TI_end_line(0x24d)
    4769                      .dwattr $C$DW$376, DW_AT_TI_end_column(0x01)
    4770                      .dwendentry
    4771                      .dwendtag $C$DW$376
    4772              
    4773 000004ba               .sect   ".text"
    4774                      .clink
    4775                      .global _LDC161x_ReFilter
    4776              
    4777              $C$DW$381       .dwtag  DW_TAG_subprogram, DW_AT_name("LDC161x_ReFilter")
    4778                      .dwattr $C$DW$381, DW_AT_low_pc(_LDC161x_ReFilter)
    4779                      .dwattr $C$DW$381, DW_AT_high_pc(0x00)
    4780                      .dwattr $C$DW$381, DW_AT_TI_symbol_name("_LDC161x_ReFilter")
    4781                      .dwattr $C$DW$381, DW_AT_external
    4782                      .dwattr $C$DW$381, DW_AT_TI_begin_file("D:/Foc/my_motor/sw/drivers/drvic/ldc1612.c")
    4783                      .dwattr $C$DW$381, DW_AT_TI_begin_line(0x3e1)
    4784                      .dwattr $C$DW$381, DW_AT_TI_begin_column(0x06)
    4785                      .dwattr $C$DW$381, DW_AT_TI_max_frame_size(-4)
    4786                      .dwpsn  file "D:/Foc/my_motor/sw/drivers/drvic/ldc1612.c",line 994,column 1,is_stmt,address _LDC161x_
    4787              
    4788                      .dwfde $C$DW$CIE, _LDC161x_ReFilter
    4789              $C$DW$382       .dwtag  DW_TAG_variable, DW_AT_name("Sum")
    4790                      .dwattr $C$DW$382, DW_AT_TI_symbol_name("_Sum$4")
    4791                      .dwattr $C$DW$382, DW_AT_type(*$C$DW$T$25)
    4792                      .dwattr $C$DW$382, DW_AT_location[DW_OP_addr _Sum$4]
    4793              $C$DW$383       .dwtag  DW_TAG_variable, DW_AT_name("Avage")
    4794                      .dwattr $C$DW$383, DW_AT_TI_symbol_name("_Avage$3")
    4795                      .dwattr $C$DW$383, DW_AT_type(*$C$DW$T$25)
    4796                      .dwattr $C$DW$383, DW_AT_location[DW_OP_addr _Avage$3]
    4797              $C$DW$384       .dwtag  DW_TAG_formal_parameter, DW_AT_name("handle")
    4798                      .dwattr $C$DW$384, DW_AT_TI_symbol_name("_handle")
    4799                      .dwattr $C$DW$384, DW_AT_type(*$C$DW$T$120)
    4800                      .dwattr $C$DW$384, DW_AT_location[DW_OP_reg12]
    4801              $C$DW$385       .dwtag  DW_TAG_formal_parameter, DW_AT_name("ChNum")
    4802                      .dwattr $C$DW$385, DW_AT_TI_symbol_name("_ChNum")
    4803                      .dwattr $C$DW$385, DW_AT_type(*$C$DW$T$97)
    4804                      .dwattr $C$DW$385, DW_AT_location[DW_OP_reg0]
    4805              $C$DW$386       .dwtag  DW_TAG_formal_parameter, DW_AT_name("drvDataGet")
    4806                      .dwattr $C$DW$386, DW_AT_TI_symbol_name("_drvDataGet")
    4807                      .dwattr $C$DW$386, DW_AT_type(*$C$DW$T$158)
    4808                      .dwattr $C$DW$386, DW_AT_location[DW_OP_reg14]
    4809              
    4810              ;***************************************************************
    4811              ;* FNAME: _LDC161x_ReFilter             FR SIZE:   2           *
    4812              ;*                                                             *
    4813              ;* FUNCTION ENVIRONMENT                                        *
    4814              ;*                                                             *
    4815              ;* FUNCTION PROPERTIES                                         *
    4816              ;*                            0 Parameter,  2 Auto,  0 SOE     *
    4817              ;***************************************************************
    4818              
    4819              _LDC161x_ReFilter:
    4820              ;* AL    assigned to $O$C1
    4821              $C$DW$387       .dwtag  DW_TAG_variable, DW_AT_name("DataTmp")
TMS320C2000 Assembler PC v6.2.5 Mon Jul 10 09:53:39 2017

Tools Copyright (c) 1996-2014 Texas Instruments Incorporated
C:\Users\wmj\AppData\Local\Temp\1375610                              PAGE   92

    4822                      .dwattr $C$DW$387, DW_AT_TI_symbol_name("_DataTmp")
    4823                      .dwattr $C$DW$387, DW_AT_type(*$C$DW$T$25)
    4824                      .dwattr $C$DW$387, DW_AT_location[DW_OP_breg20 -2]
    4825              ;* AR7   assigned to _drvDataGet
    4826              $C$DW$388       .dwtag  DW_TAG_variable, DW_AT_name("drvDataGet")
    4827                      .dwattr $C$DW$388, DW_AT_TI_symbol_name("_drvDataGet")
    4828                      .dwattr $C$DW$388, DW_AT_type(*$C$DW$T$182)
    4829                      .dwattr $C$DW$388, DW_AT_location[DW_OP_reg18]
    4830              ;* AL    assigned to _ChNum
    4831              $C$DW$389       .dwtag  DW_TAG_variable, DW_AT_name("ChNum")
    4832                      .dwattr $C$DW$389, DW_AT_TI_symbol_name("_ChNum")
    4833                      .dwattr $C$DW$389, DW_AT_type(*$C$DW$T$97)
    4834                      .dwattr $C$DW$389, DW_AT_location[DW_OP_reg0]
    4835              ;* AR4   assigned to _handle
    4836              $C$DW$390       .dwtag  DW_TAG_variable, DW_AT_name("handle")
    4837                      .dwattr $C$DW$390, DW_AT_TI_symbol_name("_handle")
    4838                      .dwattr $C$DW$390, DW_AT_type(*$C$DW$T$121)
    4839                      .dwattr $C$DW$390, DW_AT_location[DW_OP_reg12]
    4840                      .dwcfi  cfa_offset, -2
    4841                      .dwcfi  save_reg_to_mem, 26, 0
    4842                      .dwcfi  save_reg_to_reg, 78, 26
    4843 000004ba FE02          ADDB      SP,#2                 ; [CPU_U] 
    4844                      .dwcfi  cfa_offset, -4
    4845                      .dwpsn  file "D:/Foc/my_motor/sw/drivers/drvic/ldc1612.c",line 1000,column 5,is_stmt
    4846 000004bb D05E          MOVB      XAR0,#94              ; [CPU_] |1000| 
    4847                      .dwpsn  file "D:/Foc/my_motor/sw/drivers/drvic/ldc1612.c",line 994,column 1,is_stmt
    4848 000004bc C5A5          MOVL      XAR7,XAR5             ; [CPU_] |994| 
    4849                      .dwpsn  file "D:/Foc/my_motor/sw/drivers/drvic/ldc1612.c",line 1000,column 5,is_stmt
    4850 000004bd 9394          MOV       AH,*+XAR4[AR0]        ; [CPU_] |1000| 
    4851 000004be 5301          CMPB      AH,#1                 ; [CPU_] |1000| 
    4852 000004bf EC07          BF        $C$L137,EQ            ; [CPU_] |1000| 
    4853                      ; branchcc occurs ; [] |1000| 
    4854                      .dwpsn  file "D:/Foc/my_motor/sw/drivers/drvic/ldc1612.c",line 1012,column 7,is_stmt
    4855 000004c0 5DAD          MOVZ      AR5,SP                ; [CPU_U] |1012| 
    4856 000004c1 8AE4          MOVL      XAR4,*+XAR4[4]        ; [CPU_] |1012| 
    4857 000004c2 DD82          SUBB      XAR5,#2               ; [CPU_U] |1012| 
    4858              $C$DW$391       .dwtag  DW_TAG_TI_branch
    4859                      .dwattr $C$DW$391, DW_AT_low_pc(0x00)
    4860                      .dwattr $C$DW$391, DW_AT_name("_LDC161x_getChData")
    4861                      .dwattr $C$DW$391, DW_AT_TI_call
    4862 000004c3 7640'         LCR       #_LDC161x_getChData   ; [CPU_] |1012| 
         000004c4 0493 
    4863                      ; call occurs [#_LDC161x_getChData] ; [] |1012| 
    4864 000004c5 6F07          B         $C$L138,UNC           ; [CPU_] |1012| 
    4865                      ; branch occurs ; [] |1012| 
    4866 000004c6       $C$L137:    
    4867                      .dwpsn  file "D:/Foc/my_motor/sw/drivers/drvic/ldc1612.h",line 450,column 5,is_stmt
    4868 000004c6 D05E          MOVB      XAR0,#94              ; [CPU_] |450| 
    4869 000004c7 761F-         MOVW      DP,#_Avage$3          ; [CPU_U] 
         000004c8 0000 
    4870 000004c9 2B94          MOV       *+XAR4[AR0],#0        ; [CPU_] |450| 
    4871                      .dwpsn  file "D:/Foc/my_motor/sw/drivers/drvic/ldc1612.c",line 1003,column 8,is_stmt
    4872 000004ca 060A-         MOVL      ACC,@_Avage$3         ; [CPU_] |1003| 
    4873 000004cb 1E42          MOVL      *-SP[2],ACC           ; [CPU_] |1003| 
    4874 000004cc       $C$L138:    
TMS320C2000 Assembler PC v6.2.5 Mon Jul 10 09:53:39 2017

Tools Copyright (c) 1996-2014 Texas Instruments Incorporated
C:\Users\wmj\AppData\Local\Temp\1375610                              PAGE   93

    4875                      .dwpsn  file "D:/Foc/my_motor/sw/drivers/drvic/ldc1612.c",line 1015,column 5,is_stmt
    4876 000004cc 0642          MOVL      ACC,*-SP[2]           ; [CPU_] |1015| 
    4877 000004cd 761F-         MOVW      DP,#_Sum$4            ; [CPU_U] 
         000004ce 0000 
    4878 000004cf 2901          CLRC      SXM                   ; [CPU_] 
    4879 000004d0 0704-         ADDL      ACC,@_Sum$4           ; [CPU_] |1015| 
    4880 000004d1 030A-         SUBL      ACC,@_Avage$3         ; [CPU_] |1015| 
    4881 000004d2 1E04-         MOVL      @_Sum$4,ACC           ; [CPU_] |1015| 
    4882                      .dwpsn  file "D:/Foc/my_motor/sw/drivers/drvic/ldc1612.c",line 1017,column 5,is_stmt
    4883 000004d3 FF43          SFR       ACC,4                 ; [CPU_] |1017| 
    4884 000004d4 1E0A-         MOVL      @_Avage$3,ACC         ; [CPU_] |1017| 
    4885                      .dwpsn  file "D:/Foc/my_motor/sw/drivers/drvic/ldc1612.c",line 1019,column 5,is_stmt
    4886 000004d5 1EC7          MOVL      *+XAR7[0],ACC         ; [CPU_] |1019| 
    4887 000004d6 FE82          SUBB      SP,#2                 ; [CPU_U] 
    4888                      .dwcfi  cfa_offset, -2
    4889              $C$DW$392       .dwtag  DW_TAG_TI_branch
    4890                      .dwattr $C$DW$392, DW_AT_low_pc(0x00)
    4891                      .dwattr $C$DW$392, DW_AT_TI_return
    4892 000004d7 0006          LRETR     ; [CPU_] 
    4893                      ; return occurs ; [] 
    4894                      .dwattr $C$DW$381, DW_AT_TI_end_file("D:/Foc/my_motor/sw/drivers/drvic/ldc1612.c")
    4895                      .dwattr $C$DW$381, DW_AT_TI_end_line(0x3fe)
    4896                      .dwattr $C$DW$381, DW_AT_TI_end_column(0x01)
    4897                      .dwendentry
    4898                      .dwendtag $C$DW$381
    4899              
    4900 000004d8               .sect   ".text"
    4901                      .clink
    4902                      .global _I2C_unlockBus
    4903              
    4904              $C$DW$393       .dwtag  DW_TAG_subprogram, DW_AT_name("I2C_unlockBus")
    4905                      .dwattr $C$DW$393, DW_AT_low_pc(_I2C_unlockBus)
    4906                      .dwattr $C$DW$393, DW_AT_high_pc(0x00)
    4907                      .dwattr $C$DW$393, DW_AT_TI_symbol_name("_I2C_unlockBus")
    4908                      .dwattr $C$DW$393, DW_AT_external
    4909                      .dwattr $C$DW$393, DW_AT_TI_begin_file("D:/Foc/my_motor/sw/drivers/drvic/ldc1612.c")
    4910                      .dwattr $C$DW$393, DW_AT_TI_begin_line(0x438)
    4911                      .dwattr $C$DW$393, DW_AT_TI_begin_column(0x06)
    4912                      .dwattr $C$DW$393, DW_AT_TI_max_frame_size(-6)
    4913                      .dwpsn  file "D:/Foc/my_motor/sw/drivers/drvic/ldc1612.c",line 1081,column 1,is_stmt,address _I2C_unl
    4914              
    4915                      .dwfde $C$DW$CIE, _I2C_unlockBus
    4916              $C$DW$394       .dwtag  DW_TAG_formal_parameter, DW_AT_name("handle")
    4917                      .dwattr $C$DW$394, DW_AT_TI_symbol_name("_handle")
    4918                      .dwattr $C$DW$394, DW_AT_type(*$C$DW$T$120)
    4919                      .dwattr $C$DW$394, DW_AT_location[DW_OP_reg12]
    4920              
    4921              ;***************************************************************
    4922              ;* FNAME: _I2C_unlockBus                FR SIZE:   4           *
    4923              ;*                                                             *
    4924              ;* FUNCTION ENVIRONMENT                                        *
    4925              ;*                                                             *
    4926              ;* FUNCTION PROPERTIES                                         *
    4927              ;*                            0 Parameter,  0 Auto,  4 SOE     *
    4928              ;***************************************************************
TMS320C2000 Assembler PC v6.2.5 Mon Jul 10 09:53:39 2017

Tools Copyright (c) 1996-2014 Texas Instruments Incorporated
C:\Users\wmj\AppData\Local\Temp\1375610                              PAGE   94

    4929              
    4930              _I2C_unlockBus:
    4931              ;* AR2   assigned to _handle
    4932              $C$DW$395       .dwtag  DW_TAG_variable, DW_AT_name("handle")
    4933                      .dwattr $C$DW$395, DW_AT_TI_symbol_name("_handle")
    4934                      .dwattr $C$DW$395, DW_AT_type(*$C$DW$T$121)
    4935                      .dwattr $C$DW$395, DW_AT_location[DW_OP_reg8]
    4936              ;* AR1   assigned to _i
    4937              $C$DW$396       .dwtag  DW_TAG_variable, DW_AT_name("i")
    4938                      .dwattr $C$DW$396, DW_AT_TI_symbol_name("_i")
    4939                      .dwattr $C$DW$396, DW_AT_type(*$C$DW$T$21)
    4940                      .dwattr $C$DW$396, DW_AT_location[DW_OP_reg6]
    4941                      .dwcfi  cfa_offset, -2
    4942                      .dwcfi  save_reg_to_mem, 26, 0
    4943                      .dwcfi  save_reg_to_reg, 78, 26
    4944 000004d8 B2BD          MOVL      *SP++,XAR1            ; [CPU_] 
    4945                      .dwcfi  save_reg_to_mem, 7, 2
    4946                      .dwcfi  cfa_offset, -4
    4947                      .dwpsn  file "D:/Foc/my_motor/sw/drivers/drvic/ldc1612.c",line 1085,column 4,is_stmt
    4948 000004d9 9A21          MOVB      AL,#33                ; [CPU_] |1085| 
    4949 000004da 9B00          MOVB      AH,#0                 ; [CPU_] |1085| 
    4950 000004db AABD          MOVL      *SP++,XAR2            ; [CPU_] 
    4951                      .dwcfi  save_reg_to_mem, 9, 4
    4952                      .dwcfi  cfa_offset, -6
    4953                      .dwpsn  file "D:/Foc/my_motor/sw/drivers/drvic/ldc1612.c",line 1081,column 1,is_stmt
    4954 000004dc 86A4          MOVL      XAR2,XAR4             ; [CPU_] |1081| 
    4955                      .dwpsn  file "D:/Foc/my_motor/sw/drivers/drvic/ldc1612.c",line 1085,column 4,is_stmt
    4956 000004dd 8AD2          MOVL      XAR4,*+XAR2[2]        ; [CPU_] |1085| 
    4957              $C$DW$397       .dwtag  DW_TAG_TI_branch
    4958                      .dwattr $C$DW$397, DW_AT_low_pc(0x00)
    4959                      .dwattr $C$DW$397, DW_AT_name("_GPIO_setMode")
    4960                      .dwattr $C$DW$397, DW_AT_TI_call
    4961 000004de 7640!         LCR       #_GPIO_setMode        ; [CPU_] |1085| 
         000004df 0000 
    4962                      ; call occurs [#_GPIO_setMode] ; [] |1085| 
    4963                      .dwpsn  file "D:/Foc/my_motor/sw/drivers/drvic/ldc1612.c",line 1086,column 4,is_stmt
    4964 000004e0 9A21          MOVB      AL,#33                ; [CPU_] |1086| 
    4965 000004e1 9B01          MOVB      AH,#1                 ; [CPU_] |1086| 
    4966 000004e2 8AD2          MOVL      XAR4,*+XAR2[2]        ; [CPU_] |1086| 
    4967              $C$DW$398       .dwtag  DW_TAG_TI_branch
    4968                      .dwattr $C$DW$398, DW_AT_low_pc(0x00)
    4969                      .dwattr $C$DW$398, DW_AT_name("_GPIO_setDirection")
    4970                      .dwattr $C$DW$398, DW_AT_TI_call
    4971 000004e3 7640!         LCR       #_GPIO_setDirection   ; [CPU_] |1086| 
         000004e4 0000 
    4972                      ; call occurs [#_GPIO_setDirection] ; [] |1086| 
    4973                      .dwpsn  file "D:/Foc/my_motor/sw/drivers/drvic/ldc1612.c",line 1087,column 4,is_stmt
    4974 000004e5 9A21          MOVB      AL,#33                ; [CPU_] |1087| 
    4975 000004e6 8AD2          MOVL      XAR4,*+XAR2[2]        ; [CPU_] |1087| 
    4976              $C$DW$399       .dwtag  DW_TAG_TI_branch
    4977                      .dwattr $C$DW$399, DW_AT_low_pc(0x00)
    4978                      .dwattr $C$DW$399, DW_AT_name("_GPIO_setLow")
    4979                      .dwattr $C$DW$399, DW_AT_TI_call
    4980 000004e7 7640!         LCR       #_GPIO_setLow         ; [CPU_] |1087| 
         000004e8 0000 
TMS320C2000 Assembler PC v6.2.5 Mon Jul 10 09:53:39 2017

Tools Copyright (c) 1996-2014 Texas Instruments Incorporated
C:\Users\wmj\AppData\Local\Temp\1375610                              PAGE   95

    4981                      ; call occurs [#_GPIO_setLow] ; [] |1087| 
    4982                      .dwpsn  file "D:/Foc/my_motor/sw/drivers/drvic/ldc1612.c",line 1089,column 8,is_stmt
    4983 000004e9 D1FF          MOVB      XAR1,#255             ; [CPU_] |1089| 
    4984 000004ea       $C$L139:    
    4985                      .dwpsn  file "D:/Foc/my_motor/sw/drivers/drvic/ldc1612.c",line 1091,column 8,is_stmt
    4986              $C$DW$400       .dwtag  DW_TAG_TI_branch
    4987                      .dwattr $C$DW$400, DW_AT_low_pc(0x00)
    4988                      .dwattr $C$DW$400, DW_AT_name("__nop")
    4989                      .dwattr $C$DW$400, DW_AT_TI_call
    4990 000004ea 7640!         LCR       #__nop                ; [CPU_] |1091| 
         000004eb 0000 
    4991                      ; call occurs [#__nop] ; [] |1091| 
    4992                      .dwpsn  file "D:/Foc/my_motor/sw/drivers/drvic/ldc1612.c",line 1089,column 17,is_stmt
    4993 000004ec D981          SUBB      XAR1,#1               ; [CPU_U] |1089| 
    4994 000004ed 92A1          MOV       AL,AR1                ; [CPU_] |1089| 
    4995 000004ee EDFC          BF        $C$L139,NEQ           ; [CPU_] |1089| 
    4996                      ; branchcc occurs ; [] |1089| 
    4997                      .dwpsn  file "D:/Foc/my_motor/sw/drivers/drvic/ldc1612.c",line 1094,column 4,is_stmt
    4998 000004ef 8AD2          MOVL      XAR4,*+XAR2[2]        ; [CPU_] |1094| 
    4999 000004f0 9A21          MOVB      AL,#33                ; [CPU_] |1094| 
    5000 000004f1 9B01          MOVB      AH,#1                 ; [CPU_] |1094| 
    5001              $C$DW$401       .dwtag  DW_TAG_TI_branch
    5002                      .dwattr $C$DW$401, DW_AT_low_pc(0x00)
    5003                      .dwattr $C$DW$401, DW_AT_name("_GPIO_setMode")
    5004                      .dwattr $C$DW$401, DW_AT_TI_call
    5005 000004f2 7640!         LCR       #_GPIO_setMode        ; [CPU_] |1094| 
         000004f3 0000 
    5006                      ; call occurs [#_GPIO_setMode] ; [] |1094| 
    5007 000004f4 86BE          MOVL      XAR2,*--SP            ; [CPU_] 
    5008                      .dwcfi  cfa_offset, -4
    5009                      .dwcfi  restore_reg, 9
    5010 000004f5 8BBE          MOVL      XAR1,*--SP            ; [CPU_] 
    5011                      .dwcfi  cfa_offset, -2
    5012                      .dwcfi  restore_reg, 7
    5013              $C$DW$402       .dwtag  DW_TAG_TI_branch
    5014                      .dwattr $C$DW$402, DW_AT_low_pc(0x00)
    5015                      .dwattr $C$DW$402, DW_AT_TI_return
    5016 000004f6 0006          LRETR     ; [CPU_] 
    5017                      ; return occurs ; [] 
    5018                      .dwattr $C$DW$393, DW_AT_TI_end_file("D:/Foc/my_motor/sw/drivers/drvic/ldc1612.c")
    5019                      .dwattr $C$DW$393, DW_AT_TI_end_line(0x449)
    5020                      .dwattr $C$DW$393, DW_AT_TI_end_column(0x01)
    5021                      .dwendentry
    5022                      .dwendtag $C$DW$393
    5023              
    5024 000004f7               .sect   ".text"
    5025                      .clink
    5026                      .global _LDC161xReg_ReConfig
    5027              
    5028              $C$DW$403       .dwtag  DW_TAG_subprogram, DW_AT_name("LDC161xReg_ReConfig")
    5029                      .dwattr $C$DW$403, DW_AT_low_pc(_LDC161xReg_ReConfig)
    5030                      .dwattr $C$DW$403, DW_AT_high_pc(0x00)
    5031                      .dwattr $C$DW$403, DW_AT_TI_symbol_name("_LDC161xReg_ReConfig")
    5032                      .dwattr $C$DW$403, DW_AT_external
    5033                      .dwattr $C$DW$403, DW_AT_TI_begin_file("D:/Foc/my_motor/sw/drivers/drvic/ldc1612.c")
TMS320C2000 Assembler PC v6.2.5 Mon Jul 10 09:53:39 2017

Tools Copyright (c) 1996-2014 Texas Instruments Incorporated
C:\Users\wmj\AppData\Local\Temp\1375610                              PAGE   96

    5034                      .dwattr $C$DW$403, DW_AT_TI_begin_line(0x42d)
    5035                      .dwattr $C$DW$403, DW_AT_TI_begin_column(0x06)
    5036                      .dwattr $C$DW$403, DW_AT_TI_max_frame_size(-4)
    5037                      .dwpsn  file "D:/Foc/my_motor/sw/drivers/drvic/ldc1612.c",line 1070,column 1,is_stmt,address _LDC161x
    5038              
    5039                      .dwfde $C$DW$CIE, _LDC161xReg_ReConfig
    5040              $C$DW$404       .dwtag  DW_TAG_formal_parameter, DW_AT_name("handle")
    5041                      .dwattr $C$DW$404, DW_AT_TI_symbol_name("_handle")
    5042                      .dwattr $C$DW$404, DW_AT_type(*$C$DW$T$120)
    5043                      .dwattr $C$DW$404, DW_AT_location[DW_OP_reg12]
    5044              
    5045              ;***************************************************************
    5046              ;* FNAME: _LDC161xReg_ReConfig          FR SIZE:   2           *
    5047              ;*                                                             *
    5048              ;* FUNCTION ENVIRONMENT                                        *
    5049              ;*                                                             *
    5050              ;* FUNCTION PROPERTIES                                         *
    5051              ;*                            0 Parameter,  0 Auto,  2 SOE     *
    5052              ;***************************************************************
    5053              
    5054              _LDC161xReg_ReConfig:
    5055              ;* AR1   assigned to _handle
    5056              $C$DW$405       .dwtag  DW_TAG_variable, DW_AT_name("handle")
    5057                      .dwattr $C$DW$405, DW_AT_TI_symbol_name("_handle")
    5058                      .dwattr $C$DW$405, DW_AT_type(*$C$DW$T$121)
    5059                      .dwattr $C$DW$405, DW_AT_location[DW_OP_reg6]
    5060                      .dwcfi  cfa_offset, -2
    5061                      .dwcfi  save_reg_to_mem, 26, 0
    5062                      .dwcfi  save_reg_to_reg, 78, 26
    5063 000004f7 B2BD          MOVL      *SP++,XAR1            ; [CPU_] 
    5064                      .dwcfi  save_reg_to_mem, 7, 2
    5065                      .dwcfi  cfa_offset, -4
    5066 000004f8 8BA4          MOVL      XAR1,XAR4             ; [CPU_] |1070| 
    5067                      .dwpsn  file "D:/Foc/my_motor/sw/drivers/drvic/ldc1612.c",line 1071,column 5,is_stmt
    5068              $C$DW$406       .dwtag  DW_TAG_TI_branch
    5069                      .dwattr $C$DW$406, DW_AT_low_pc(0x00)
    5070                      .dwattr $C$DW$406, DW_AT_name("_LDC161x_ResetSensor")
    5071                      .dwattr $C$DW$406, DW_AT_TI_call
    5072 000004f9 7640'         LCR       #_LDC161x_ResetSensor ; [CPU_] |1071| 
         000004fa 04B4 
    5073                      ; call occurs [#_LDC161x_ResetSensor] ; [] |1071| 
    5074                      .dwpsn  file "D:/Foc/my_motor/sw/drivers/drvic/ldc1612.c",line 1072,column 5,is_stmt
    5075 000004fb 9A00          MOVB      AL,#0                 ; [CPU_] |1072| 
    5076 000004fc 8AA1          MOVL      XAR4,XAR1             ; [CPU_] |1072| 
    5077              $C$DW$407       .dwtag  DW_TAG_TI_branch
    5078                      .dwattr $C$DW$407, DW_AT_low_pc(0x00)
    5079                      .dwattr $C$DW$407, DW_AT_name("_LDC161x_writeRcount")
    5080                      .dwattr $C$DW$407, DW_AT_TI_call
    5081 000004fd 7640'         LCR       #_LDC161x_writeRcount ; [CPU_] |1072| 
         000004fe 00BD 
    5082                      ; call occurs [#_LDC161x_writeRcount] ; [] |1072| 
    5083                      .dwpsn  file "D:/Foc/my_motor/sw/drivers/drvic/ldc1612.c",line 1073,column 5,is_stmt
    5084 000004ff 9A00          MOVB      AL,#0                 ; [CPU_] |1073| 
    5085 00000500 8AA1          MOVL      XAR4,XAR1             ; [CPU_] |1073| 
    5086              $C$DW$408       .dwtag  DW_TAG_TI_branch
TMS320C2000 Assembler PC v6.2.5 Mon Jul 10 09:53:39 2017

Tools Copyright (c) 1996-2014 Texas Instruments Incorporated
C:\Users\wmj\AppData\Local\Temp\1375610                              PAGE   97

    5087                      .dwattr $C$DW$408, DW_AT_low_pc(0x00)
    5088                      .dwattr $C$DW$408, DW_AT_name("_LDC161x_writeSettleCnt")
    5089                      .dwattr $C$DW$408, DW_AT_TI_call
    5090 00000501 7640'         LCR       #_LDC161x_writeSettleCnt ; [CPU_] |1073| 
         00000502 0088 
    5091                      ; call occurs [#_LDC161x_writeSettleCnt] ; [] |1073| 
    5092                      .dwpsn  file "D:/Foc/my_motor/sw/drivers/drvic/ldc1612.c",line 1074,column 5,is_stmt
    5093 00000503 9A00          MOVB      AL,#0                 ; [CPU_] |1074| 
    5094 00000504 8AA1          MOVL      XAR4,XAR1             ; [CPU_] |1074| 
    5095              $C$DW$409       .dwtag  DW_TAG_TI_branch
    5096                      .dwattr $C$DW$409, DW_AT_low_pc(0x00)
    5097                      .dwattr $C$DW$409, DW_AT_name("_LDC161x_writeClkDivs")
    5098                      .dwattr $C$DW$409, DW_AT_TI_call
    5099 00000505 7640'         LCR       #_LDC161x_writeClkDivs ; [CPU_] |1074| 
         00000506 017E 
    5100                      ; call occurs [#_LDC161x_writeClkDivs] ; [] |1074| 
    5101                      .dwpsn  file "D:/Foc/my_motor/sw/drivers/drvic/ldc1612.c",line 1075,column 5,is_stmt
    5102 00000507 8AA1          MOVL      XAR4,XAR1             ; [CPU_] |1075| 
    5103              $C$DW$410       .dwtag  DW_TAG_TI_branch
    5104                      .dwattr $C$DW$410, DW_AT_low_pc(0x00)
    5105                      .dwattr $C$DW$410, DW_AT_name("_LDC161x_writeConfig")
    5106                      .dwattr $C$DW$410, DW_AT_TI_call
    5107 00000508 7640'         LCR       #_LDC161x_writeConfig ; [CPU_] |1075| 
         00000509 0152 
    5108                      ; call occurs [#_LDC161x_writeConfig] ; [] |1075| 
    5109                      .dwpsn  file "D:/Foc/my_motor/sw/drivers/drvic/ldc1612.c",line 1076,column 5,is_stmt
    5110 0000050a 8AA1          MOVL      XAR4,XAR1             ; [CPU_] |1076| 
    5111              $C$DW$411       .dwtag  DW_TAG_TI_branch
    5112                      .dwattr $C$DW$411, DW_AT_low_pc(0x00)
    5113                      .dwattr $C$DW$411, DW_AT_name("_LDC161x_writeMuxConfig")
    5114                      .dwattr $C$DW$411, DW_AT_TI_call
    5115 0000050b 7640'         LCR       #_LDC161x_writeMuxConfig ; [CPU_] |1076| 
         0000050c 0142 
    5116                      ; call occurs [#_LDC161x_writeMuxConfig] ; [] |1076| 
    5117 0000050d 8BBE          MOVL      XAR1,*--SP            ; [CPU_] 
    5118                      .dwcfi  cfa_offset, -2
    5119                      .dwcfi  restore_reg, 7
    5120              $C$DW$412       .dwtag  DW_TAG_TI_branch
    5121                      .dwattr $C$DW$412, DW_AT_low_pc(0x00)
    5122                      .dwattr $C$DW$412, DW_AT_TI_return
    5123 0000050e 0006          LRETR     ; [CPU_] 
    5124                      ; return occurs ; [] 
    5125                      .dwattr $C$DW$403, DW_AT_TI_end_file("D:/Foc/my_motor/sw/drivers/drvic/ldc1612.c")
    5126                      .dwattr $C$DW$403, DW_AT_TI_end_line(0x436)
    5127                      .dwattr $C$DW$403, DW_AT_TI_end_column(0x01)
    5128                      .dwendentry
    5129                      .dwendtag $C$DW$403
    5130              
    5131 0000050f               .sect   ".text"
    5132                      .clink
    5133                      .global _LDC161x_KalmanFilter
    5134              
    5135              $C$DW$413       .dwtag  DW_TAG_subprogram, DW_AT_name("LDC161x_KalmanFilter")
    5136                      .dwattr $C$DW$413, DW_AT_low_pc(_LDC161x_KalmanFilter)
    5137                      .dwattr $C$DW$413, DW_AT_high_pc(0x00)
TMS320C2000 Assembler PC v6.2.5 Mon Jul 10 09:53:39 2017

Tools Copyright (c) 1996-2014 Texas Instruments Incorporated
C:\Users\wmj\AppData\Local\Temp\1375610                              PAGE   98

    5138                      .dwattr $C$DW$413, DW_AT_TI_symbol_name("_LDC161x_KalmanFilter")
    5139                      .dwattr $C$DW$413, DW_AT_external
    5140                      .dwattr $C$DW$413, DW_AT_TI_begin_file("D:/Foc/my_motor/sw/drivers/drvic/ldc1612.c")
    5141                      .dwattr $C$DW$413, DW_AT_TI_begin_line(0x400)
    5142                      .dwattr $C$DW$413, DW_AT_TI_begin_column(0x06)
    5143                      .dwattr $C$DW$413, DW_AT_TI_max_frame_size(-14)
    5144                      .dwpsn  file "D:/Foc/my_motor/sw/drivers/drvic/ldc1612.c",line 1025,column 1,is_stmt,address _LDC161x
    5145              
    5146                      .dwfde $C$DW$CIE, _LDC161x_KalmanFilter
    5147              $C$DW$414       .dwtag  DW_TAG_variable, DW_AT_name("x_Last")
    5148                      .dwattr $C$DW$414, DW_AT_TI_symbol_name("_x_Last$5")
    5149                      .dwattr $C$DW$414, DW_AT_type(*$C$DW$T$25)
    5150                      .dwattr $C$DW$414, DW_AT_location[DW_OP_addr _x_Last$5]
    5151              $C$DW$415       .dwtag  DW_TAG_variable, DW_AT_name("p_Last")
    5152                      .dwattr $C$DW$415, DW_AT_TI_symbol_name("_p_Last$6")
    5153                      .dwattr $C$DW$415, DW_AT_type(*$C$DW$T$25)
    5154                      .dwattr $C$DW$415, DW_AT_location[DW_OP_addr _p_Last$6]
    5155              $C$DW$416       .dwtag  DW_TAG_variable, DW_AT_name("DataTmp_Last")
    5156                      .dwattr $C$DW$416, DW_AT_TI_symbol_name("_DataTmp_Last$7")
    5157                      .dwattr $C$DW$416, DW_AT_type(*$C$DW$T$25)
    5158                      .dwattr $C$DW$416, DW_AT_location[DW_OP_addr _DataTmp_Last$7]
    5159              $C$DW$417       .dwtag  DW_TAG_formal_parameter, DW_AT_name("handle")
    5160                      .dwattr $C$DW$417, DW_AT_TI_symbol_name("_handle")
    5161                      .dwattr $C$DW$417, DW_AT_type(*$C$DW$T$120)
    5162                      .dwattr $C$DW$417, DW_AT_location[DW_OP_reg12]
    5163              $C$DW$418       .dwtag  DW_TAG_formal_parameter, DW_AT_name("ChNum")
    5164                      .dwattr $C$DW$418, DW_AT_TI_symbol_name("_ChNum")
    5165                      .dwattr $C$DW$418, DW_AT_type(*$C$DW$T$97)
    5166                      .dwattr $C$DW$418, DW_AT_location[DW_OP_reg0]
    5167              $C$DW$419       .dwtag  DW_TAG_formal_parameter, DW_AT_name("drvDataGet")
    5168                      .dwattr $C$DW$419, DW_AT_TI_symbol_name("_drvDataGet")
    5169                      .dwattr $C$DW$419, DW_AT_type(*$C$DW$T$158)
    5170                      .dwattr $C$DW$419, DW_AT_location[DW_OP_reg14]
    5171              
    5172              ;***************************************************************
    5173              ;* FNAME: _LDC161x_KalmanFilter         FR SIZE:  12           *
    5174              ;*                                                             *
    5175              ;* FUNCTION ENVIRONMENT                                        *
    5176              ;*                                                             *
    5177              ;* FUNCTION PROPERTIES                                         *
    5178              ;*                            2 Parameter,  4 Auto,  6 SOE     *
    5179              ;***************************************************************
    5180              
    5181              _LDC161x_KalmanFilter:
    5182              ;* AR1   assigned to _Kg
    5183              $C$DW$420       .dwtag  DW_TAG_variable, DW_AT_name("Kg")
    5184                      .dwattr $C$DW$420, DW_AT_TI_symbol_name("_Kg")
    5185                      .dwattr $C$DW$420, DW_AT_type(*$C$DW$T$16)
    5186                      .dwattr $C$DW$420, DW_AT_location[DW_OP_reg6]
    5187              ;* AR2   assigned to _p_Mid
    5188              $C$DW$421       .dwtag  DW_TAG_variable, DW_AT_name("p_Mid")
    5189                      .dwattr $C$DW$421, DW_AT_TI_symbol_name("_p_Mid")
    5190                      .dwattr $C$DW$421, DW_AT_type(*$C$DW$T$25)
    5191                      .dwattr $C$DW$421, DW_AT_location[DW_OP_reg8]
    5192              $C$DW$422       .dwtag  DW_TAG_variable, DW_AT_name("x_Mid")
TMS320C2000 Assembler PC v6.2.5 Mon Jul 10 09:53:39 2017

Tools Copyright (c) 1996-2014 Texas Instruments Incorporated
C:\Users\wmj\AppData\Local\Temp\1375610                              PAGE   99

    5193                      .dwattr $C$DW$422, DW_AT_TI_symbol_name("_x_Mid")
    5194                      .dwattr $C$DW$422, DW_AT_type(*$C$DW$T$25)
    5195                      .dwattr $C$DW$422, DW_AT_location[DW_OP_breg20 -6]
    5196              $C$DW$423       .dwtag  DW_TAG_variable, DW_AT_name("DataTmp")
    5197                      .dwattr $C$DW$423, DW_AT_TI_symbol_name("_DataTmp")
    5198                      .dwattr $C$DW$423, DW_AT_type(*$C$DW$T$25)
    5199                      .dwattr $C$DW$423, DW_AT_location[DW_OP_breg20 -4]
    5200              ;* AR3   assigned to _drvDataGet
    5201              $C$DW$424       .dwtag  DW_TAG_variable, DW_AT_name("drvDataGet")
    5202                      .dwattr $C$DW$424, DW_AT_TI_symbol_name("_drvDataGet")
    5203                      .dwattr $C$DW$424, DW_AT_type(*$C$DW$T$182)
    5204                      .dwattr $C$DW$424, DW_AT_location[DW_OP_reg10]
    5205              ;* AL    assigned to _ChNum
    5206              $C$DW$425       .dwtag  DW_TAG_variable, DW_AT_name("ChNum")
    5207                      .dwattr $C$DW$425, DW_AT_TI_symbol_name("_ChNum")
    5208                      .dwattr $C$DW$425, DW_AT_type(*$C$DW$T$97)
    5209                      .dwattr $C$DW$425, DW_AT_location[DW_OP_reg0]
    5210              ;* AR1   assigned to _handle
    5211              $C$DW$426       .dwtag  DW_TAG_variable, DW_AT_name("handle")
    5212                      .dwattr $C$DW$426, DW_AT_TI_symbol_name("_handle")
    5213                      .dwattr $C$DW$426, DW_AT_type(*$C$DW$T$121)
    5214                      .dwattr $C$DW$426, DW_AT_location[DW_OP_reg6]
    5215                      .dwcfi  cfa_offset, -2
    5216                      .dwcfi  save_reg_to_mem, 26, 0
    5217                      .dwcfi  save_reg_to_reg, 78, 26
    5218 0000050f B2BD          MOVL      *SP++,XAR1            ; [CPU_] 
    5219                      .dwcfi  save_reg_to_mem, 7, 2
    5220                      .dwcfi  cfa_offset, -4
    5221 00000510 AABD          MOVL      *SP++,XAR2            ; [CPU_] 
    5222                      .dwcfi  save_reg_to_mem, 9, 4
    5223                      .dwcfi  cfa_offset, -6
    5224 00000511 A2BD          MOVL      *SP++,XAR3            ; [CPU_] 
    5225                      .dwcfi  save_reg_to_mem, 11, 6
    5226                      .dwcfi  cfa_offset, -8
    5227 00000512 FE06          ADDB      SP,#6                 ; [CPU_U] 
    5228                      .dwcfi  cfa_offset, -14
    5229                      .dwpsn  file "D:/Foc/my_motor/sw/drivers/drvic/ldc1612.c",line 1037,column 5,is_stmt
    5230 00000513 D05E          MOVB      XAR0,#94              ; [CPU_] |1037| 
    5231                      .dwpsn  file "D:/Foc/my_motor/sw/drivers/drvic/ldc1612.c",line 1025,column 1,is_stmt
    5232 00000514 8BA4          MOVL      XAR1,XAR4             ; [CPU_] |1025| 
    5233 00000515 82A5          MOVL      XAR3,XAR5             ; [CPU_] |1025| 
    5234                      .dwpsn  file "D:/Foc/my_motor/sw/drivers/drvic/ldc1612.c",line 1037,column 5,is_stmt
    5235 00000516 9391          MOV       AH,*+XAR1[AR0]        ; [CPU_] |1037| 
    5236 00000517 5301          CMPB      AH,#1                 ; [CPU_] |1037| 
    5237 00000518 EC0B          BF        $C$L140,EQ            ; [CPU_] |1037| 
    5238                      ; branchcc occurs ; [] |1037| 
    5239 00000519 D05F          MOVB      XAR0,#95              ; [CPU_] |1037| 
    5240 0000051a 9391          MOV       AH,*+XAR1[AR0]        ; [CPU_] |1037| 
    5241 0000051b 5301          CMPB      AH,#1                 ; [CPU_] |1037| 
    5242 0000051c EC07          BF        $C$L140,EQ            ; [CPU_] |1037| 
    5243                      ; branchcc occurs ; [] |1037| 
    5244                      .dwpsn  file "D:/Foc/my_motor/sw/drivers/drvic/ldc1612.c",line 1047,column 7,is_stmt
    5245 0000051d 5DAD          MOVZ      AR5,SP                ; [CPU_U] |1047| 
    5246 0000051e 8AE1          MOVL      XAR4,*+XAR1[4]        ; [CPU_] |1047| 
    5247 0000051f DD84          SUBB      XAR5,#4               ; [CPU_U] |1047| 
TMS320C2000 Assembler PC v6.2.5 Mon Jul 10 09:53:39 2017

Tools Copyright (c) 1996-2014 Texas Instruments Incorporated
C:\Users\wmj\AppData\Local\Temp\1375610                              PAGE  100

    5248              $C$DW$427       .dwtag  DW_TAG_TI_branch
    5249                      .dwattr $C$DW$427, DW_AT_low_pc(0x00)
    5250                      .dwattr $C$DW$427, DW_AT_name("_LDC161x_getChData")
    5251                      .dwattr $C$DW$427, DW_AT_TI_call
    5252 00000520 7640'         LCR       #_LDC161x_getChData   ; [CPU_] |1047| 
         00000521 0493 
    5253                      ; call occurs [#_LDC161x_getChData] ; [] |1047| 
    5254 00000522 6F0E          B         $C$L141,UNC           ; [CPU_] |1047| 
    5255                      ; branch occurs ; [] |1047| 
    5256 00000523       $C$L140:    
    5257                      .dwpsn  file "D:/Foc/my_motor/sw/drivers/drvic/ldc1612.h",line 460,column 5,is_stmt
    5258 00000523 D05F          MOVB      XAR0,#95              ; [CPU_] |460| 
    5259 00000524 2B91          MOV       *+XAR1[AR0],#0        ; [CPU_] |460| 
    5260                      .dwpsn  file "D:/Foc/my_motor/sw/drivers/drvic/ldc1612.h",line 450,column 5,is_stmt
    5261 00000525 D05E          MOVB      XAR0,#94              ; [CPU_] |450| 
    5262 00000526 2B91          MOV       *+XAR1[AR0],#0        ; [CPU_] |450| 
    5263                      .dwpsn  file "D:/Foc/my_motor/sw/drivers/drvic/ldc1612.c",line 1041,column 8,is_stmt
    5264              $C$DW$428       .dwtag  DW_TAG_TI_branch
    5265                      .dwattr $C$DW$428, DW_AT_low_pc(0x00)
    5266                      .dwattr $C$DW$428, DW_AT_name("_I2C_unlockBus")
    5267                      .dwattr $C$DW$428, DW_AT_TI_call
    5268 00000527 7640'         LCR       #_I2C_unlockBus       ; [CPU_] |1041| 
         00000528 04D8 
    5269                      ; call occurs [#_I2C_unlockBus] ; [] |1041| 
    5270                      .dwpsn  file "D:/Foc/my_motor/sw/drivers/drvic/ldc1612.c",line 1042,column 8,is_stmt
    5271 00000529 8AA1          MOVL      XAR4,XAR1             ; [CPU_] |1042| 
    5272              $C$DW$429       .dwtag  DW_TAG_TI_branch
    5273                      .dwattr $C$DW$429, DW_AT_low_pc(0x00)
    5274                      .dwattr $C$DW$429, DW_AT_name("_LDC161xReg_ReConfig")
    5275                      .dwattr $C$DW$429, DW_AT_TI_call
    5276 0000052a 7640'         LCR       #_LDC161xReg_ReConfig ; [CPU_] |1042| 
         0000052b 04F7 
    5277                      ; call occurs [#_LDC161xReg_ReConfig] ; [] |1042| 
    5278 0000052c 761F-         MOVW      DP,#_DataTmp_Last$7   ; [CPU_U] 
         0000052d 0000 
    5279                      .dwpsn  file "D:/Foc/my_motor/sw/drivers/drvic/ldc1612.c",line 1043,column 8,is_stmt
    5280 0000052e 0608-         MOVL      ACC,@_DataTmp_Last$7  ; [CPU_] |1043| 
    5281 0000052f 1E44          MOVL      *-SP[4],ACC           ; [CPU_] |1043| 
    5282 00000530       $C$L141:    
    5283 00000530 761F-         MOVW      DP,#_x_Last$5         ; [CPU_U] 
         00000531 0000 
    5284                      .dwpsn  file "D:/Foc/my_motor/sw/drivers/drvic/ldc1612.c",line 1050,column 5,is_stmt
    5285 00000532 0602-         MOVL      ACC,@_x_Last$5        ; [CPU_] |1050| 
    5286 00000533 1E46          MOVL      *-SP[6],ACC           ; [CPU_] |1050| 
    5287                      .dwpsn  file "D:/Foc/my_motor/sw/drivers/drvic/ldc1612.c",line 1051,column 5,is_stmt
    5288 00000534 0296          MOVB      ACC,#150              ; [CPU_] |1051| 
    5289 00000535 0706-         ADDL      ACC,@_p_Last$6        ; [CPU_] |1051| 
    5290 00000536 86A9          MOVL      XAR2,ACC              ; [CPU_] |1051| 
    5291                      .dwpsn  file "D:/Foc/my_motor/sw/drivers/drvic/ldc1612.c",line 1053,column 5,is_stmt
    5292              $C$DW$430       .dwtag  DW_TAG_TI_branch
    5293                      .dwattr $C$DW$430, DW_AT_low_pc(0x00)
    5294                      .dwattr $C$DW$430, DW_AT_name("UL$$TOFS")
    5295                      .dwattr $C$DW$430, DW_AT_TI_call
    5296 00000537 7640!         LCR       #UL$$TOFS             ; [CPU_] |1053| 
         00000538 0000 
TMS320C2000 Assembler PC v6.2.5 Mon Jul 10 09:53:39 2017

Tools Copyright (c) 1996-2014 Texas Instruments Incorporated
C:\Users\wmj\AppData\Local\Temp\1375610                              PAGE  101

    5297                      ; call occurs [#UL$$TOFS] ; [] |1053| 
    5298 00000539 761F-         MOVW      DP,#_p_Last$6         ; [CPU_U] 
         0000053a 0000 
    5299 0000053b 8BA9          MOVL      XAR1,ACC              ; [CPU_] |1053| 
    5300 0000053c FF20          MOV       ACC,#1150             ; [CPU_] |1053| 
         0000053d 047E 
    5301 0000053e 0706-         ADDL      ACC,@_p_Last$6        ; [CPU_] |1053| 
    5302              $C$DW$431       .dwtag  DW_TAG_TI_branch
    5303                      .dwattr $C$DW$431, DW_AT_low_pc(0x00)
    5304                      .dwattr $C$DW$431, DW_AT_name("UL$$TOFS")
    5305                      .dwattr $C$DW$431, DW_AT_TI_call
    5306 0000053f 7640!         LCR       #UL$$TOFS             ; [CPU_] |1053| 
         00000540 0000 
    5307                      ; call occurs [#UL$$TOFS] ; [] |1053| 
    5308 00000541 1E42          MOVL      *-SP[2],ACC           ; [CPU_] |1053| 
    5309 00000542 B2A9          MOVL      ACC,XAR1              ; [CPU_] |1053| 
    5310              $C$DW$432       .dwtag  DW_TAG_TI_branch
    5311                      .dwattr $C$DW$432, DW_AT_low_pc(0x00)
    5312                      .dwattr $C$DW$432, DW_AT_name("FS$$DIV")
    5313                      .dwattr $C$DW$432, DW_AT_TI_call
    5314 00000543 7640!         LCR       #FS$$DIV              ; [CPU_] |1053| 
         00000544 0000 
    5315                      ; call occurs [#FS$$DIV] ; [] |1053| 
    5316 00000545 8BA9          MOVL      XAR1,ACC              ; [CPU_] |1053| 
    5317 00000546 0646          MOVL      ACC,*-SP[6]           ; [CPU_] |1053| 
    5318                      .dwpsn  file "D:/Foc/my_motor/sw/drivers/drvic/ldc1612.c",line 1056,column 7,is_stmt
    5319 00000547 0F44          CMPL      ACC,*-SP[4]           ; [CPU_] |1056| 
    5320 00000548 670F          B         $C$L142,HIS           ; [CPU_] |1056| 
    5321                      ; branchcc occurs ; [] |1056| 
    5322 00000549 C446          MOVL      XAR6,*-SP[6]          ; [CPU_] |1056| 
    5323 0000054a 0644          MOVL      ACC,*-SP[4]           ; [CPU_] |1056| 
    5324 0000054b 03A6          SUBL      ACC,XAR6              ; [CPU_] |1056| 
    5325              $C$DW$433       .dwtag  DW_TAG_TI_branch
    5326                      .dwattr $C$DW$433, DW_AT_low_pc(0x00)
    5327                      .dwattr $C$DW$433, DW_AT_name("UL$$TOFS")
    5328                      .dwattr $C$DW$433, DW_AT_TI_call
    5329 0000054c 7640!         LCR       #UL$$TOFS             ; [CPU_] |1056| 
         0000054d 0000 
    5330                      ; call occurs [#UL$$TOFS] ; [] |1056| 
    5331 0000054e B242          MOVL      *-SP[2],XAR1          ; [CPU_] |1056| 
    5332              $C$DW$434       .dwtag  DW_TAG_TI_branch
    5333                      .dwattr $C$DW$434, DW_AT_low_pc(0x00)
    5334                      .dwattr $C$DW$434, DW_AT_name("FS$$MPY")
    5335                      .dwattr $C$DW$434, DW_AT_TI_call
    5336 0000054f 7640!         LCR       #FS$$MPY              ; [CPU_] |1056| 
         00000550 0000 
    5337                      ; call occurs [#FS$$MPY] ; [] |1056| 
    5338              $C$DW$435       .dwtag  DW_TAG_TI_branch
    5339                      .dwattr $C$DW$435, DW_AT_low_pc(0x00)
    5340                      .dwattr $C$DW$435, DW_AT_name("FS$$TOUL")
    5341                      .dwattr $C$DW$435, DW_AT_TI_call
    5342 00000551 7640!         LCR       #FS$$TOUL             ; [CPU_] |1056| 
         00000552 0000 
    5343                      ; call occurs [#FS$$TOUL] ; [] |1056| 
    5344 00000553 1EA6          MOVL      XAR6,ACC              ; [CPU_] |1056| 
TMS320C2000 Assembler PC v6.2.5 Mon Jul 10 09:53:39 2017

Tools Copyright (c) 1996-2014 Texas Instruments Incorporated
C:\Users\wmj\AppData\Local\Temp\1375610                              PAGE  102

    5345 00000554 0646          MOVL      ACC,*-SP[6]           ; [CPU_] |1056| 
    5346 00000555 07A6          ADDL      ACC,XAR6              ; [CPU_] |1056| 
    5347 00000556 6F0D          B         $C$L143,UNC           ; [CPU_] |1056| 
    5348                      ; branch occurs ; [] |1056| 
    5349 00000557       $C$L142:    
    5350 00000557 0646          MOVL      ACC,*-SP[6]           ; [CPU_] 
    5351 00000558 0344          SUBL      ACC,*-SP[4]           ; [CPU_] |1056| 
    5352              $C$DW$436       .dwtag  DW_TAG_TI_branch
    5353                      .dwattr $C$DW$436, DW_AT_low_pc(0x00)
    5354                      .dwattr $C$DW$436, DW_AT_name("UL$$TOFS")
    5355                      .dwattr $C$DW$436, DW_AT_TI_call
    5356 00000559 7640!         LCR       #UL$$TOFS             ; [CPU_] |1056| 
         0000055a 0000 
    5357                      ; call occurs [#UL$$TOFS] ; [] |1056| 
    5358 0000055b B242          MOVL      *-SP[2],XAR1          ; [CPU_] |1056| 
    5359              $C$DW$437       .dwtag  DW_TAG_TI_branch
    5360                      .dwattr $C$DW$437, DW_AT_low_pc(0x00)
    5361                      .dwattr $C$DW$437, DW_AT_name("FS$$MPY")
    5362                      .dwattr $C$DW$437, DW_AT_TI_call
    5363 0000055c 7640!         LCR       #FS$$MPY              ; [CPU_] |1056| 
         0000055d 0000 
    5364                      ; call occurs [#FS$$MPY] ; [] |1056| 
    5365              $C$DW$438       .dwtag  DW_TAG_TI_branch
    5366                      .dwattr $C$DW$438, DW_AT_low_pc(0x00)
    5367                      .dwattr $C$DW$438, DW_AT_name("FS$$TOUL")
    5368                      .dwattr $C$DW$438, DW_AT_TI_call
    5369 0000055e 7640!         LCR       #FS$$TOUL             ; [CPU_] |1056| 
         0000055f 0000 
    5370                      ; call occurs [#FS$$TOUL] ; [] |1056| 
    5371 00000560 1EA6          MOVL      XAR6,ACC              ; [CPU_] |1056| 
    5372 00000561 0646          MOVL      ACC,*-SP[6]           ; [CPU_] |1056| 
    5373 00000562 03A6          SUBL      ACC,XAR6              ; [CPU_] |1056| 
    5374 00000563       $C$L143:    
    5375 00000563 761F-         MOVW      DP,#_x_Last$5         ; [CPU_U] 
         00000564 0000 
    5376 00000565 1E02-         MOVL      @_x_Last$5,ACC        ; [CPU_] |1056| 
    5377                      .dwpsn  file "D:/Foc/my_motor/sw/drivers/drvic/ldc1612.c",line 1060,column 5,is_stmt
    5378 00000566 AAA9          MOVL      ACC,XAR2              ; [CPU_] |1060| 
    5379              $C$DW$439       .dwtag  DW_TAG_TI_branch
    5380                      .dwattr $C$DW$439, DW_AT_low_pc(0x00)
    5381                      .dwattr $C$DW$439, DW_AT_name("UL$$TOFS")
    5382                      .dwattr $C$DW$439, DW_AT_TI_call
    5383 00000567 7640!         LCR       #UL$$TOFS             ; [CPU_] |1060| 
         00000568 0000 
    5384                      ; call occurs [#UL$$TOFS] ; [] |1060| 
    5385 00000569 B242          MOVL      *-SP[2],XAR1          ; [CPU_] |1060| 
    5386              $C$DW$440       .dwtag  DW_TAG_TI_branch
    5387                      .dwattr $C$DW$440, DW_AT_low_pc(0x00)
    5388                      .dwattr $C$DW$440, DW_AT_name("FS$$MPY")
    5389                      .dwattr $C$DW$440, DW_AT_TI_call
    5390 0000056a 7640!         LCR       #FS$$MPY              ; [CPU_] |1060| 
         0000056b 0000 
    5391                      ; call occurs [#FS$$MPY] ; [] |1060| 
    5392              $C$DW$441       .dwtag  DW_TAG_TI_branch
    5393                      .dwattr $C$DW$441, DW_AT_low_pc(0x00)
TMS320C2000 Assembler PC v6.2.5 Mon Jul 10 09:53:39 2017

Tools Copyright (c) 1996-2014 Texas Instruments Incorporated
C:\Users\wmj\AppData\Local\Temp\1375610                              PAGE  103

    5394                      .dwattr $C$DW$441, DW_AT_name("FS$$TOUL")
    5395                      .dwattr $C$DW$441, DW_AT_TI_call
    5396 0000056c 7640!         LCR       #FS$$TOUL             ; [CPU_] |1060| 
         0000056d 0000 
    5397                      ; call occurs [#FS$$TOUL] ; [] |1060| 
    5398 0000056e AAAB          MOVL      P,XAR2                ; [CPU_] |1060| 
    5399 0000056f 761F-         MOVW      DP,#_p_Last$6         ; [CPU_U] 
         00000570 0000 
    5400 00000571 5641          SUBL      P,ACC                 ; [CPU_] |1060| 
         00000572 00AB 
    5401                      .dwpsn  file "D:/Foc/my_motor/sw/drivers/drvic/ldc1612.c",line 1061,column 5,is_stmt
    5402 00000573 0644          MOVL      ACC,*-SP[4]           ; [CPU_] |1061| 
    5403                      .dwpsn  file "D:/Foc/my_motor/sw/drivers/drvic/ldc1612.c",line 1060,column 5,is_stmt
    5404 00000574 A906-         MOVL      @_p_Last$6,P          ; [CPU_] |1060| 
    5405                      .dwpsn  file "D:/Foc/my_motor/sw/drivers/drvic/ldc1612.c",line 1061,column 5,is_stmt
    5406 00000575 1E08-         MOVL      @_DataTmp_Last$7,ACC  ; [CPU_] |1061| 
    5407                      .dwpsn  file "D:/Foc/my_motor/sw/drivers/drvic/ldc1612.c",line 1063,column 5,is_stmt
    5408 00000576 0602-         MOVL      ACC,@_x_Last$5        ; [CPU_] |1063| 
    5409 00000577 1EC3          MOVL      *+XAR3[0],ACC         ; [CPU_] |1063| 
    5410 00000578 FE86          SUBB      SP,#6                 ; [CPU_U] 
    5411                      .dwcfi  cfa_offset, -8
    5412 00000579 82BE          MOVL      XAR3,*--SP            ; [CPU_] 
    5413                      .dwcfi  cfa_offset, -6
    5414                      .dwcfi  restore_reg, 11
    5415 0000057a 86BE          MOVL      XAR2,*--SP            ; [CPU_] 
    5416                      .dwcfi  cfa_offset, -4
    5417                      .dwcfi  restore_reg, 9
    5418 0000057b 8BBE          MOVL      XAR1,*--SP            ; [CPU_] 
    5419                      .dwcfi  cfa_offset, -2
    5420                      .dwcfi  restore_reg, 7
    5421              $C$DW$442       .dwtag  DW_TAG_TI_branch
    5422                      .dwattr $C$DW$442, DW_AT_low_pc(0x00)
    5423                      .dwattr $C$DW$442, DW_AT_TI_return
    5424 0000057c 0006          LRETR     ; [CPU_] 
    5425                      ; return occurs ; [] 
    5426                      .dwattr $C$DW$413, DW_AT_TI_end_file("D:/Foc/my_motor/sw/drivers/drvic/ldc1612.c")
    5427                      .dwattr $C$DW$413, DW_AT_TI_end_line(0x42a)
    5428                      .dwattr $C$DW$413, DW_AT_TI_end_column(0x01)
    5429                      .dwendentry
    5430                      .dwendtag $C$DW$413
    5431              
    5432 0000057d               .sect   ".text"
    5433                      .clink
    5434                      .global _LDC161xReg_init
    5435              
    5436              $C$DW$443       .dwtag  DW_TAG_subprogram, DW_AT_name("LDC161xReg_init")
    5437                      .dwattr $C$DW$443, DW_AT_low_pc(_LDC161xReg_init)
    5438                      .dwattr $C$DW$443, DW_AT_high_pc(0x00)
    5439                      .dwattr $C$DW$443, DW_AT_TI_symbol_name("_LDC161xReg_init")
    5440                      .dwattr $C$DW$443, DW_AT_external
    5441                      .dwattr $C$DW$443, DW_AT_type(*$C$DW$T$47)
    5442                      .dwattr $C$DW$443, DW_AT_TI_begin_file("D:/Foc/my_motor/sw/drivers/drvic/ldc1612.c")
    5443                      .dwattr $C$DW$443, DW_AT_TI_begin_line(0x44d)
    5444                      .dwattr $C$DW$443, DW_AT_TI_begin_column(0x0c)
    5445                      .dwattr $C$DW$443, DW_AT_TI_max_frame_size(-2)
TMS320C2000 Assembler PC v6.2.5 Mon Jul 10 09:53:39 2017

Tools Copyright (c) 1996-2014 Texas Instruments Incorporated
C:\Users\wmj\AppData\Local\Temp\1375610                              PAGE  104

    5446                      .dwpsn  file "D:/Foc/my_motor/sw/drivers/drvic/ldc1612.c",line 1102,column 1,is_stmt,address _LDC161x
    5447              
    5448                      .dwfde $C$DW$CIE, _LDC161xReg_init
    5449              $C$DW$444       .dwtag  DW_TAG_formal_parameter, DW_AT_name("pMemory")
    5450                      .dwattr $C$DW$444, DW_AT_TI_symbol_name("_pMemory")
    5451                      .dwattr $C$DW$444, DW_AT_type(*$C$DW$T$3)
    5452                      .dwattr $C$DW$444, DW_AT_location[DW_OP_reg12]
    5453              $C$DW$445       .dwtag  DW_TAG_formal_parameter, DW_AT_name("numBytes")
    5454                      .dwattr $C$DW$445, DW_AT_TI_symbol_name("_numBytes")
    5455                      .dwattr $C$DW$445, DW_AT_type(*$C$DW$T$111)
    5456                      .dwattr $C$DW$445, DW_AT_location[DW_OP_reg0]
    5457              
    5458              ;***************************************************************
    5459              ;* FNAME: _LDC161xReg_init              FR SIZE:   0           *
    5460              ;*                                                             *
    5461              ;* FUNCTION ENVIRONMENT                                        *
    5462              ;*                                                             *
    5463              ;* FUNCTION PROPERTIES                                         *
    5464              ;*                            0 Parameter,  0 Auto,  0 SOE     *
    5465              ;***************************************************************
    5466              
    5467              _LDC161xReg_init:
    5468              ;* AR6   assigned to _numBytes
    5469              $C$DW$446       .dwtag  DW_TAG_variable, DW_AT_name("numBytes")
    5470                      .dwattr $C$DW$446, DW_AT_TI_symbol_name("_numBytes")
    5471                      .dwattr $C$DW$446, DW_AT_type(*$C$DW$T$111)
    5472                      .dwattr $C$DW$446, DW_AT_location[DW_OP_reg16]
    5473              ;* AR4   assigned to _pMemory
    5474              $C$DW$447       .dwtag  DW_TAG_variable, DW_AT_name("pMemory")
    5475                      .dwattr $C$DW$447, DW_AT_TI_symbol_name("_pMemory")
    5476                      .dwattr $C$DW$447, DW_AT_type(*$C$DW$T$127)
    5477                      .dwattr $C$DW$447, DW_AT_location[DW_OP_reg12]
    5478                      .dwcfi  cfa_offset, -2
    5479                      .dwcfi  save_reg_to_mem, 26, 0
    5480                      .dwcfi  save_reg_to_reg, 78, 26
    5481 0000057d 1EA6          MOVL      XAR6,ACC              ; [CPU_] |1102| 
    5482                      .dwpsn  file "D:/Foc/my_motor/sw/drivers/drvic/ldc1612.c",line 1106,column 5,is_stmt
    5483 0000057e 0258          MOVB      ACC,#88               ; [CPU_] |1106| 
    5484 0000057f 0FA6          CMPL      ACC,XAR6              ; [CPU_] |1106| 
    5485 00000580 6902          B         $C$L144,LOS           ; [CPU_] |1106| 
    5486                      ; branchcc occurs ; [] |1106| 
    5487 00000581 D400          MOVB      XAR4,#0               ; [CPU_] |1106| 
    5488              $C$L144:    
    5489              $C$DW$448       .dwtag  DW_TAG_TI_branch
    5490                      .dwattr $C$DW$448, DW_AT_low_pc(0x00)
    5491                      .dwattr $C$DW$448, DW_AT_TI_return
    5492 00000582 0006          LRETR     ; [CPU_] 
    5493                      ; return occurs ; [] 
    5494                      .dwattr $C$DW$443, DW_AT_TI_end_file("D:/Foc/my_motor/sw/drivers/drvic/ldc1612.c")
    5495                      .dwattr $C$DW$443, DW_AT_TI_end_line(0x458)
    5496                      .dwattr $C$DW$443, DW_AT_TI_end_column(0x01)
    5497                      .dwendentry
    5498                      .dwendtag $C$DW$443
    5499              
    5500 00000583               .sect   ".text"
TMS320C2000 Assembler PC v6.2.5 Mon Jul 10 09:53:39 2017

Tools Copyright (c) 1996-2014 Texas Instruments Incorporated
C:\Users\wmj\AppData\Local\Temp\1375610                              PAGE  105

    5501                      .clink
    5502                      .global _LDC1612_init
    5503              
    5504              $C$DW$449       .dwtag  DW_TAG_subprogram, DW_AT_name("LDC1612_init")
    5505                      .dwattr $C$DW$449, DW_AT_low_pc(_LDC1612_init)
    5506                      .dwattr $C$DW$449, DW_AT_high_pc(0x00)
    5507                      .dwattr $C$DW$449, DW_AT_TI_symbol_name("_LDC1612_init")
    5508                      .dwattr $C$DW$449, DW_AT_external
    5509                      .dwattr $C$DW$449, DW_AT_type(*$C$DW$T$120)
    5510                      .dwattr $C$DW$449, DW_AT_TI_begin_file("D:/Foc/my_motor/sw/drivers/drvic/ldc1612.c")
    5511                      .dwattr $C$DW$449, DW_AT_TI_begin_line(0x46e)
    5512                      .dwattr $C$DW$449, DW_AT_TI_begin_column(0x10)
    5513                      .dwattr $C$DW$449, DW_AT_TI_max_frame_size(-2)
    5514                      .dwpsn  file "D:/Foc/my_motor/sw/drivers/drvic/ldc1612.c",line 1135,column 1,is_stmt,address _LDC1612
    5515              
    5516                      .dwfde $C$DW$CIE, _LDC1612_init
    5517              $C$DW$450       .dwtag  DW_TAG_formal_parameter, DW_AT_name("pMemory")
    5518                      .dwattr $C$DW$450, DW_AT_TI_symbol_name("_pMemory")
    5519                      .dwattr $C$DW$450, DW_AT_type(*$C$DW$T$3)
    5520                      .dwattr $C$DW$450, DW_AT_location[DW_OP_reg12]
    5521              $C$DW$451       .dwtag  DW_TAG_formal_parameter, DW_AT_name("numBytes")
    5522                      .dwattr $C$DW$451, DW_AT_TI_symbol_name("_numBytes")
    5523                      .dwattr $C$DW$451, DW_AT_type(*$C$DW$T$111)
    5524                      .dwattr $C$DW$451, DW_AT_location[DW_OP_reg0]
    5525              
    5526              ;***************************************************************
    5527              ;* FNAME: _LDC1612_init                 FR SIZE:   0           *
    5528              ;*                                                             *
    5529              ;* FUNCTION ENVIRONMENT                                        *
    5530              ;*                                                             *
    5531              ;* FUNCTION PROPERTIES                                         *
    5532              ;*                            0 Parameter,  0 Auto,  0 SOE     *
    5533              ;***************************************************************
    5534              
    5535              _LDC1612_init:
    5536              ;* AR6   assigned to _numBytes
    5537              $C$DW$452       .dwtag  DW_TAG_variable, DW_AT_name("numBytes")
    5538                      .dwattr $C$DW$452, DW_AT_TI_symbol_name("_numBytes")
    5539                      .dwattr $C$DW$452, DW_AT_type(*$C$DW$T$111)
    5540                      .dwattr $C$DW$452, DW_AT_location[DW_OP_reg16]
    5541              ;* AR5   assigned to _pMemory
    5542              $C$DW$453       .dwtag  DW_TAG_variable, DW_AT_name("pMemory")
    5543                      .dwattr $C$DW$453, DW_AT_TI_symbol_name("_pMemory")
    5544                      .dwattr $C$DW$453, DW_AT_type(*$C$DW$T$127)
    5545                      .dwattr $C$DW$453, DW_AT_location[DW_OP_reg14]
    5546                      .dwcfi  cfa_offset, -2
    5547                      .dwcfi  save_reg_to_mem, 26, 0
    5548                      .dwcfi  save_reg_to_reg, 78, 26
    5549 00000583 1EA6          MOVL      XAR6,ACC              ; [CPU_] |1135| 
    5550 00000584 83A4          MOVL      XAR5,XAR4             ; [CPU_] |1135| 
    5551                      .dwpsn  file "D:/Foc/my_motor/sw/drivers/drvic/ldc1612.c",line 1139,column 3,is_stmt
    5552 00000585 0260          MOVB      ACC,#96               ; [CPU_] |1139| 
    5553 00000586 0FA6          CMPL      ACC,XAR6              ; [CPU_] |1139| 
    5554 00000587 6903          B         $C$L145,LOS           ; [CPU_] |1139| 
    5555                      ; branchcc occurs ; [] |1139| 
TMS320C2000 Assembler PC v6.2.5 Mon Jul 10 09:53:39 2017

Tools Copyright (c) 1996-2014 Texas Instruments Incorporated
C:\Users\wmj\AppData\Local\Temp\1375610                              PAGE  106

    5556                      .dwpsn  file "D:/Foc/my_motor/sw/drivers/drvic/ldc1612.c",line 1140,column 5,is_stmt
    5557 00000588 D400          MOVB      XAR4,#0               ; [CPU_] |1140| 
    5558              $C$DW$454       .dwtag  DW_TAG_TI_branch
    5559                      .dwattr $C$DW$454, DW_AT_low_pc(0x00)
    5560                      .dwattr $C$DW$454, DW_AT_TI_return
    5561 00000589 0006          LRETR     ; [CPU_] 
    5562                      ; return occurs ; [] 
    5563 0000058a       $C$L145:    
    5564                      .dwpsn  file "D:/Foc/my_motor/sw/drivers/drvic/ldc1612.c",line 1145,column 3,is_stmt
    5565 0000058a DC06          ADDB      XAR4,#6               ; [CPU_] |1145| 
    5566 0000058b 0258          MOVB      ACC,#88               ; [CPU_] |1145| 
    5567              $C$DW$455       .dwtag  DW_TAG_TI_branch
    5568                      .dwattr $C$DW$455, DW_AT_low_pc(0x00)
    5569                      .dwattr $C$DW$455, DW_AT_name("_LDC161xReg_init")
    5570                      .dwattr $C$DW$455, DW_AT_TI_call
    5571 0000058c 7640'         LCR       #_LDC161xReg_init     ; [CPU_] |1145| 
         0000058d 057D 
    5572                      ; call occurs [#_LDC161xReg_init] ; [] |1145| 
    5573                      .dwpsn  file "D:/Foc/my_motor/sw/drivers/drvic/ldc1612.h",line 450,column 5,is_stmt
    5574 0000058e D05E          MOVB      XAR0,#94              ; [CPU_] |450| 
    5575                      .dwpsn  file "D:/Foc/my_motor/sw/drivers/drvic/ldc1612.c",line 1145,column 3,is_stmt
    5576 0000058f A8E5          MOVL      *+XAR5[4],XAR4        ; [CPU_] |1145| 
    5577                      .dwpsn  file "D:/Foc/my_motor/sw/drivers/drvic/ldc1612.h",line 450,column 5,is_stmt
    5578 00000590 2B95          MOV       *+XAR5[AR0],#0        ; [CPU_] |450| 
    5579                      .dwpsn  file "D:/Foc/my_motor/sw/drivers/drvic/ldc1612.c",line 1152,column 3,is_stmt
    5580 00000591 8AA5          MOVL      XAR4,XAR5             ; [CPU_] |1152| 
    5581                      .dwpsn  file "D:/Foc/my_motor/sw/drivers/drvic/ldc1612.h",line 460,column 5,is_stmt
    5582 00000592 D05F          MOVB      XAR0,#95              ; [CPU_] |460| 
    5583 00000593 2B95          MOV       *+XAR5[AR0],#0        ; [CPU_] |460| 
    5584              $C$DW$456       .dwtag  DW_TAG_TI_branch
    5585                      .dwattr $C$DW$456, DW_AT_low_pc(0x00)
    5586                      .dwattr $C$DW$456, DW_AT_TI_return
    5587 00000594 0006          LRETR     ; [CPU_] 
    5588                      ; return occurs ; [] 
    5589                      .dwattr $C$DW$449, DW_AT_TI_end_file("D:/Foc/my_motor/sw/drivers/drvic/ldc1612.c")
    5590                      .dwattr $C$DW$449, DW_AT_TI_end_line(0x481)
    5591                      .dwattr $C$DW$449, DW_AT_TI_end_column(0x01)
    5592                      .dwendentry
    5593                      .dwendtag $C$DW$449
    5594              
    5595              ;**************************************************************
    5596              ;* UNDEFINED EXTERNAL REFERENCES                              *
    5597              ;**************************************************************
    5598                      .global _GPIO_setLow
    5599                      .global _GPIO_setDirection
    5600                      .global _GPIO_setMode
    5601                      .global _I2C_MasterControl
    5602                      .global __nop
    5603                      .global _I2C_enable
    5604                      .global _I2C_setMasterSlaveAddr
    5605                      .global _I2C_putData
    5606                      .global _I2C_getData
    5607                      .global _I2C_getStatus
    5608                      .global _I2C_isMasterBusy
    5609                      .global UL$$TOFS
TMS320C2000 Assembler PC v6.2.5 Mon Jul 10 09:53:39 2017

Tools Copyright (c) 1996-2014 Texas Instruments Incorporated
C:\Users\wmj\AppData\Local\Temp\1375610                              PAGE  107

    5610                      .global FS$$DIV
    5611                      .global FS$$MPY
    5612                      .global FS$$TOUL
    5613              
    5614              ;***************************************************************
    5615              ;* TYPE INFORMATION                                            *
    5616              ;***************************************************************
    5617              
    5618              $C$DW$T$61      .dwtag  DW_TAG_enumeration_type
    5619                      .dwattr $C$DW$T$61, DW_AT_byte_size(0x01)
    5620              $C$DW$457       .dwtag  DW_TAG_enumerator, DW_AT_name("LDC_Type_1612"), DW_AT_const_value(0x00)
    5621              $C$DW$458       .dwtag  DW_TAG_enumerator, DW_AT_name("LDC_Type_1614"), DW_AT_const_value(0x01)
    5622                      .dwendtag $C$DW$T$61
    5623              
    5624              $C$DW$T$62      .dwtag  DW_TAG_typedef, DW_AT_name("LDC_SensorType_e")
    5625                      .dwattr $C$DW$T$62, DW_AT_type(*$C$DW$T$61)
    5626                      .dwattr $C$DW$T$62, DW_AT_language(DW_LANG_C)
    5627              
    5628              $C$DW$T$63      .dwtag  DW_TAG_enumeration_type
    5629                      .dwattr $C$DW$T$63, DW_AT_byte_size(0x01)
    5630              $C$DW$459       .dwtag  DW_TAG_enumerator, DW_AT_name("LDC161x_Slave_Addr0"), DW_AT_const_value(0x2a)
    5631              $C$DW$460       .dwtag  DW_TAG_enumerator, DW_AT_name("LDC161x_Slave_Addr1"), DW_AT_const_value(0x2b)
    5632                      .dwendtag $C$DW$T$63
    5633              
    5634              $C$DW$T$64      .dwtag  DW_TAG_typedef, DW_AT_name("LDC_SensorSerial_e")
    5635                      .dwattr $C$DW$T$64, DW_AT_type(*$C$DW$T$63)
    5636                      .dwattr $C$DW$T$64, DW_AT_language(DW_LANG_C)
    5637              
    5638              $C$DW$T$74      .dwtag  DW_TAG_enumeration_type
    5639                      .dwattr $C$DW$T$74, DW_AT_byte_size(0x01)
    5640              $C$DW$461       .dwtag  DW_TAG_enumerator, DW_AT_name("I2C_Control_Stop"), DW_AT_const_value(0xc00)
    5641              $C$DW$462       .dwtag  DW_TAG_enumerator, DW_AT_name("I2C_Control_Single_TX"), DW_AT_const_value(0x2e00)
    5642              $C$DW$463       .dwtag  DW_TAG_enumerator, DW_AT_name("I2C_Control_Single_RX"), DW_AT_const_value(0x2c00)
    5643              $C$DW$464       .dwtag  DW_TAG_enumerator, DW_AT_name("I2C_Control_Burst_TX_Start"), DW_AT_const_value(0x2600
    5644              $C$DW$465       .dwtag  DW_TAG_enumerator, DW_AT_name("I2C_Control_Burst_TX_Stop"), DW_AT_const_value(0xe00)
    5645              $C$DW$466       .dwtag  DW_TAG_enumerator, DW_AT_name("I2C_Control_Burst_RX_Start"), DW_AT_const_value(0x2400
    5646              $C$DW$467       .dwtag  DW_TAG_enumerator, DW_AT_name("I2C_Control_Burst_RX_Stop"), DW_AT_const_value(0xc00)
    5647                      .dwendtag $C$DW$T$74
    5648              
    5649              $C$DW$T$75      .dwtag  DW_TAG_typedef, DW_AT_name("I2C_Control_e")
    5650                      .dwattr $C$DW$T$75, DW_AT_type(*$C$DW$T$74)
    5651                      .dwattr $C$DW$T$75, DW_AT_language(DW_LANG_C)
    5652              
    5653              $C$DW$T$76      .dwtag  DW_TAG_enumeration_type
    5654                      .dwattr $C$DW$T$76, DW_AT_byte_size(0x01)
    5655              $C$DW$468       .dwtag  DW_TAG_enumerator, DW_AT_name("I2C_BitCount_1_Bit"), DW_AT_const_value(0x01)
    5656              $C$DW$469       .dwtag  DW_TAG_enumerator, DW_AT_name("I2C_BitCount_2_Bits"), DW_AT_const_value(0x02)
    5657              $C$DW$470       .dwtag  DW_TAG_enumerator, DW_AT_name("I2C_BitCount_3_Bits"), DW_AT_const_value(0x03)
    5658              $C$DW$471       .dwtag  DW_TAG_enumerator, DW_AT_name("I2C_BitCount_4_Bits"), DW_AT_const_value(0x04)
    5659              $C$DW$472       .dwtag  DW_TAG_enumerator, DW_AT_name("I2C_BitCount_5_Bits"), DW_AT_const_value(0x05)
    5660              $C$DW$473       .dwtag  DW_TAG_enumerator, DW_AT_name("I2C_BitCount_6_Bits"), DW_AT_const_value(0x06)
    5661              $C$DW$474       .dwtag  DW_TAG_enumerator, DW_AT_name("I2C_BitCount_7_Bits"), DW_AT_const_value(0x07)
    5662              $C$DW$475       .dwtag  DW_TAG_enumerator, DW_AT_name("I2C_BitCount_8_Bits"), DW_AT_const_value(0x00)
    5663                      .dwendtag $C$DW$T$76
    5664              
TMS320C2000 Assembler PC v6.2.5 Mon Jul 10 09:53:39 2017

Tools Copyright (c) 1996-2014 Texas Instruments Incorporated
C:\Users\wmj\AppData\Local\Temp\1375610                              PAGE  108

    5665              $C$DW$T$77      .dwtag  DW_TAG_typedef, DW_AT_name("I2C_BitCount_e")
    5666                      .dwattr $C$DW$T$77, DW_AT_type(*$C$DW$T$76)
    5667                      .dwattr $C$DW$T$77, DW_AT_language(DW_LANG_C)
    5668              
    5669              $C$DW$T$78      .dwtag  DW_TAG_enumeration_type
    5670                      .dwattr $C$DW$T$78, DW_AT_byte_size(0x01)
    5671              $C$DW$476       .dwtag  DW_TAG_enumerator, DW_AT_name("I2C_Status_None"), DW_AT_const_value(0x00)
    5672              $C$DW$477       .dwtag  DW_TAG_enumerator, DW_AT_name("I2C_Status_Arb_Lost"), DW_AT_const_value(0x01)
    5673              $C$DW$478       .dwtag  DW_TAG_enumerator, DW_AT_name("I2C_Status_NACK"), DW_AT_const_value(0x02)
    5674              $C$DW$479       .dwtag  DW_TAG_enumerator, DW_AT_name("I2C_Status_Reg_Rdy"), DW_AT_const_value(0x04)
    5675              $C$DW$480       .dwtag  DW_TAG_enumerator, DW_AT_name("I2C_Status_Rx_Rdy"), DW_AT_const_value(0x08)
    5676              $C$DW$481       .dwtag  DW_TAG_enumerator, DW_AT_name("I2C_Status_Tx_Rdy"), DW_AT_const_value(0x10)
    5677              $C$DW$482       .dwtag  DW_TAG_enumerator, DW_AT_name("I2C_Status_Stop"), DW_AT_const_value(0x20)
    5678              $C$DW$483       .dwtag  DW_TAG_enumerator, DW_AT_name("I2C_Status_AD0"), DW_AT_const_value(0x100)
    5679              $C$DW$484       .dwtag  DW_TAG_enumerator, DW_AT_name("I2C_Status_Slave_Addr"), DW_AT_const_value(0x200)
    5680              $C$DW$485       .dwtag  DW_TAG_enumerator, DW_AT_name("I2C_Status_Tx_Empty"), DW_AT_const_value(0x400)
    5681              $C$DW$486       .dwtag  DW_TAG_enumerator, DW_AT_name("I2C_Status_Rx_Full"), DW_AT_const_value(0x800)
    5682              $C$DW$487       .dwtag  DW_TAG_enumerator, DW_AT_name("I2C_Status_Busy"), DW_AT_const_value(0x1000)
    5683              $C$DW$488       .dwtag  DW_TAG_enumerator, DW_AT_name("I2C_Status_NACK_Sent"), DW_AT_const_value(0x2000)
    5684              $C$DW$489       .dwtag  DW_TAG_enumerator, DW_AT_name("I2C_Status_Slave_Dir"), DW_AT_const_value(0x4000)
    5685                      .dwendtag $C$DW$T$78
    5686              
    5687              $C$DW$T$79      .dwtag  DW_TAG_typedef, DW_AT_name("I2C_Status_e")
    5688                      .dwattr $C$DW$T$79, DW_AT_type(*$C$DW$T$78)
    5689                      .dwattr $C$DW$T$79, DW_AT_language(DW_LANG_C)
    5690              
    5691              $C$DW$T$83      .dwtag  DW_TAG_enumeration_type
    5692                      .dwattr $C$DW$T$83, DW_AT_byte_size(0x01)
    5693              $C$DW$490       .dwtag  DW_TAG_enumerator, DW_AT_name("GPIO_Number_0"), DW_AT_const_value(0x00)
    5694              $C$DW$491       .dwtag  DW_TAG_enumerator, DW_AT_name("GPIO_Number_1"), DW_AT_const_value(0x01)
    5695              $C$DW$492       .dwtag  DW_TAG_enumerator, DW_AT_name("GPIO_Number_2"), DW_AT_const_value(0x02)
    5696              $C$DW$493       .dwtag  DW_TAG_enumerator, DW_AT_name("GPIO_Number_3"), DW_AT_const_value(0x03)
    5697              $C$DW$494       .dwtag  DW_TAG_enumerator, DW_AT_name("GPIO_Number_4"), DW_AT_const_value(0x04)
    5698              $C$DW$495       .dwtag  DW_TAG_enumerator, DW_AT_name("GPIO_Number_5"), DW_AT_const_value(0x05)
    5699              $C$DW$496       .dwtag  DW_TAG_enumerator, DW_AT_name("GPIO_Number_6"), DW_AT_const_value(0x06)
    5700              $C$DW$497       .dwtag  DW_TAG_enumerator, DW_AT_name("GPIO_Number_7"), DW_AT_const_value(0x07)
    5701              $C$DW$498       .dwtag  DW_TAG_enumerator, DW_AT_name("GPIO_Rsvd_8"), DW_AT_const_value(0x08)
    5702              $C$DW$499       .dwtag  DW_TAG_enumerator, DW_AT_name("GPIO_Rsvd_9"), DW_AT_const_value(0x09)
    5703              $C$DW$500       .dwtag  DW_TAG_enumerator, DW_AT_name("GPIO_Rsvd_10"), DW_AT_const_value(0x0a)
    5704              $C$DW$501       .dwtag  DW_TAG_enumerator, DW_AT_name("GPIO_Rsvd_11"), DW_AT_const_value(0x0b)
    5705              $C$DW$502       .dwtag  DW_TAG_enumerator, DW_AT_name("GPIO_Number_12"), DW_AT_const_value(0x0c)
    5706              $C$DW$503       .dwtag  DW_TAG_enumerator, DW_AT_name("GPIO_Rsvd_13"), DW_AT_const_value(0x0d)
    5707              $C$DW$504       .dwtag  DW_TAG_enumerator, DW_AT_name("GPIO_Rsvd_14"), DW_AT_const_value(0x0e)
    5708              $C$DW$505       .dwtag  DW_TAG_enumerator, DW_AT_name("GPIO_Rsvd_15"), DW_AT_const_value(0x0f)
    5709              $C$DW$506       .dwtag  DW_TAG_enumerator, DW_AT_name("GPIO_Number_16"), DW_AT_const_value(0x10)
    5710              $C$DW$507       .dwtag  DW_TAG_enumerator, DW_AT_name("GPIO_Number_17"), DW_AT_const_value(0x11)
    5711              $C$DW$508       .dwtag  DW_TAG_enumerator, DW_AT_name("GPIO_Number_18"), DW_AT_const_value(0x12)
    5712              $C$DW$509       .dwtag  DW_TAG_enumerator, DW_AT_name("GPIO_Number_19"), DW_AT_const_value(0x13)
    5713              $C$DW$510       .dwtag  DW_TAG_enumerator, DW_AT_name("GPIO_Rsvd_20"), DW_AT_const_value(0x14)
    5714              $C$DW$511       .dwtag  DW_TAG_enumerator, DW_AT_name("GPIO_Rsvd_21"), DW_AT_const_value(0x15)
    5715              $C$DW$512       .dwtag  DW_TAG_enumerator, DW_AT_name("GPIO_Rsvd_22"), DW_AT_const_value(0x16)
    5716              $C$DW$513       .dwtag  DW_TAG_enumerator, DW_AT_name("GPIO_Rsvd_23"), DW_AT_const_value(0x17)
    5717              $C$DW$514       .dwtag  DW_TAG_enumerator, DW_AT_name("GPIO_Rsvd_24"), DW_AT_const_value(0x18)
    5718              $C$DW$515       .dwtag  DW_TAG_enumerator, DW_AT_name("GPIO_Rsvd_25"), DW_AT_const_value(0x19)
    5719              $C$DW$516       .dwtag  DW_TAG_enumerator, DW_AT_name("GPIO_Rsvd_26"), DW_AT_const_value(0x1a)
TMS320C2000 Assembler PC v6.2.5 Mon Jul 10 09:53:39 2017

Tools Copyright (c) 1996-2014 Texas Instruments Incorporated
C:\Users\wmj\AppData\Local\Temp\1375610                              PAGE  109

    5720              $C$DW$517       .dwtag  DW_TAG_enumerator, DW_AT_name("GPIO_Rsvd_27"), DW_AT_const_value(0x1b)
    5721              $C$DW$518       .dwtag  DW_TAG_enumerator, DW_AT_name("GPIO_Number_28"), DW_AT_const_value(0x1c)
    5722              $C$DW$519       .dwtag  DW_TAG_enumerator, DW_AT_name("GPIO_Number_29"), DW_AT_const_value(0x1d)
    5723              $C$DW$520       .dwtag  DW_TAG_enumerator, DW_AT_name("GPIO_Rsvd_30"), DW_AT_const_value(0x1e)
    5724              $C$DW$521       .dwtag  DW_TAG_enumerator, DW_AT_name("GPIO_Rsvd_31"), DW_AT_const_value(0x1f)
    5725              $C$DW$522       .dwtag  DW_TAG_enumerator, DW_AT_name("GPIO_Number_32"), DW_AT_const_value(0x20)
    5726              $C$DW$523       .dwtag  DW_TAG_enumerator, DW_AT_name("GPIO_Number_33"), DW_AT_const_value(0x21)
    5727              $C$DW$524       .dwtag  DW_TAG_enumerator, DW_AT_name("GPIO_Number_34"), DW_AT_const_value(0x22)
    5728              $C$DW$525       .dwtag  DW_TAG_enumerator, DW_AT_name("GPIO_Number_35"), DW_AT_const_value(0x23)
    5729              $C$DW$526       .dwtag  DW_TAG_enumerator, DW_AT_name("GPIO_Number_36"), DW_AT_const_value(0x24)
    5730              $C$DW$527       .dwtag  DW_TAG_enumerator, DW_AT_name("GPIO_Number_37"), DW_AT_const_value(0x25)
    5731              $C$DW$528       .dwtag  DW_TAG_enumerator, DW_AT_name("GPIO_Number_38"), DW_AT_const_value(0x26)
    5732              $C$DW$529       .dwtag  DW_TAG_enumerator, DW_AT_name("GPIO_numGpios"), DW_AT_const_value(0x27)
    5733                      .dwendtag $C$DW$T$83
    5734              
    5735              $C$DW$T$84      .dwtag  DW_TAG_typedef, DW_AT_name("GPIO_Number_e")
    5736                      .dwattr $C$DW$T$84, DW_AT_type(*$C$DW$T$83)
    5737                      .dwattr $C$DW$T$84, DW_AT_language(DW_LANG_C)
    5738              $C$DW$530       .dwtag  DW_TAG_TI_far_type
    5739                      .dwattr $C$DW$530, DW_AT_type(*$C$DW$T$84)
    5740              $C$DW$T$85      .dwtag  DW_TAG_const_type
    5741                      .dwattr $C$DW$T$85, DW_AT_type(*$C$DW$530)
    5742              
    5743              $C$DW$T$86      .dwtag  DW_TAG_enumeration_type
    5744                      .dwattr $C$DW$T$86, DW_AT_byte_size(0x01)
    5745              $C$DW$531       .dwtag  DW_TAG_enumerator, DW_AT_name("GPIO_Direction_Input"), DW_AT_const_value(0x00)
    5746              $C$DW$532       .dwtag  DW_TAG_enumerator, DW_AT_name("GPIO_Direction_Output"), DW_AT_const_value(0x01)
    5747                      .dwendtag $C$DW$T$86
    5748              
    5749              $C$DW$T$87      .dwtag  DW_TAG_typedef, DW_AT_name("GPIO_Direction_e")
    5750                      .dwattr $C$DW$T$87, DW_AT_type(*$C$DW$T$86)
    5751                      .dwattr $C$DW$T$87, DW_AT_language(DW_LANG_C)
    5752              $C$DW$533       .dwtag  DW_TAG_TI_far_type
    5753                      .dwattr $C$DW$533, DW_AT_type(*$C$DW$T$87)
    5754              $C$DW$T$88      .dwtag  DW_TAG_const_type
    5755                      .dwattr $C$DW$T$88, DW_AT_type(*$C$DW$533)
    5756              
    5757              $C$DW$T$89      .dwtag  DW_TAG_enumeration_type
    5758                      .dwattr $C$DW$T$89, DW_AT_byte_size(0x01)
    5759              $C$DW$534       .dwtag  DW_TAG_enumerator, DW_AT_name("GPIO_0_Mode_GeneralPurpose"), DW_AT_const_value(0x00)
    5760              $C$DW$535       .dwtag  DW_TAG_enumerator, DW_AT_name("GPIO_0_Mode_EPWM1A"), DW_AT_const_value(0x01)
    5761              $C$DW$536       .dwtag  DW_TAG_enumerator, DW_AT_name("GPIO_0_Mode_Rsvd_2"), DW_AT_const_value(0x02)
    5762              $C$DW$537       .dwtag  DW_TAG_enumerator, DW_AT_name("GPIO_0_Mode_Rsvd_3"), DW_AT_const_value(0x03)
    5763              $C$DW$538       .dwtag  DW_TAG_enumerator, DW_AT_name("GPIO_1_Mode_GeneralPurpose"), DW_AT_const_value(0x00)
    5764              $C$DW$539       .dwtag  DW_TAG_enumerator, DW_AT_name("GPIO_1_Mode_EPWM1B"), DW_AT_const_value(0x01)
    5765              $C$DW$540       .dwtag  DW_TAG_enumerator, DW_AT_name("GPIO_1_Mode_Rsvd_2"), DW_AT_const_value(0x02)
    5766              $C$DW$541       .dwtag  DW_TAG_enumerator, DW_AT_name("GPIO_1_Mode_COMP1OUT"), DW_AT_const_value(0x03)
    5767              $C$DW$542       .dwtag  DW_TAG_enumerator, DW_AT_name("GPIO_2_Mode_GeneralPurpose"), DW_AT_const_value(0x00)
    5768              $C$DW$543       .dwtag  DW_TAG_enumerator, DW_AT_name("GPIO_2_Mode_EPWM2A"), DW_AT_const_value(0x01)
    5769              $C$DW$544       .dwtag  DW_TAG_enumerator, DW_AT_name("GPIO_2_Mode_Rsvd_2"), DW_AT_const_value(0x02)
    5770              $C$DW$545       .dwtag  DW_TAG_enumerator, DW_AT_name("GPIO_2_Mode_Rsvd_3"), DW_AT_const_value(0x03)
    5771              $C$DW$546       .dwtag  DW_TAG_enumerator, DW_AT_name("GPIO_3_Mode_GeneralPurpose"), DW_AT_const_value(0x00)
    5772              $C$DW$547       .dwtag  DW_TAG_enumerator, DW_AT_name("GPIO_3_Mode_EPWM2B"), DW_AT_const_value(0x01)
    5773              $C$DW$548       .dwtag  DW_TAG_enumerator, DW_AT_name("GPIO_3_Mode_Rsvd_2"), DW_AT_const_value(0x02)
    5774              $C$DW$549       .dwtag  DW_TAG_enumerator, DW_AT_name("GPIO_3_Mode_COMP2OUT"), DW_AT_const_value(0x03)
TMS320C2000 Assembler PC v6.2.5 Mon Jul 10 09:53:39 2017

Tools Copyright (c) 1996-2014 Texas Instruments Incorporated
C:\Users\wmj\AppData\Local\Temp\1375610                              PAGE  110

    5775              $C$DW$550       .dwtag  DW_TAG_enumerator, DW_AT_name("GPIO_4_Mode_GeneralPurpose"), DW_AT_const_value(0x00)
    5776              $C$DW$551       .dwtag  DW_TAG_enumerator, DW_AT_name("GPIO_4_Mode_EPWM3A"), DW_AT_const_value(0x01)
    5777              $C$DW$552       .dwtag  DW_TAG_enumerator, DW_AT_name("GPIO_4_Mode_Rsvd_2"), DW_AT_const_value(0x02)
    5778              $C$DW$553       .dwtag  DW_TAG_enumerator, DW_AT_name("GPIO_4_Mode_Rsvd_3"), DW_AT_const_value(0x03)
    5779              $C$DW$554       .dwtag  DW_TAG_enumerator, DW_AT_name("GPIO_5_Mode_GeneralPurpose"), DW_AT_const_value(0x00)
    5780              $C$DW$555       .dwtag  DW_TAG_enumerator, DW_AT_name("GPIO_5_Mode_EPWM3B"), DW_AT_const_value(0x01)
    5781              $C$DW$556       .dwtag  DW_TAG_enumerator, DW_AT_name("GPIO_5_Mode_Rsvd_2"), DW_AT_const_value(0x02)
    5782              $C$DW$557       .dwtag  DW_TAG_enumerator, DW_AT_name("GPIO_5_Mode_ECAP1"), DW_AT_const_value(0x03)
    5783              $C$DW$558       .dwtag  DW_TAG_enumerator, DW_AT_name("GPIO_6_Mode_GeneralPurpose"), DW_AT_const_value(0x00)
    5784              $C$DW$559       .dwtag  DW_TAG_enumerator, DW_AT_name("GPIO_6_Mode_EPWM4A"), DW_AT_const_value(0x01)
    5785              $C$DW$560       .dwtag  DW_TAG_enumerator, DW_AT_name("GPIO_6_Mode_EPWMSYNCI"), DW_AT_const_value(0x02)
    5786              $C$DW$561       .dwtag  DW_TAG_enumerator, DW_AT_name("GPIO_6_Mode_EPWMSYNCO"), DW_AT_const_value(0x03)
    5787              $C$DW$562       .dwtag  DW_TAG_enumerator, DW_AT_name("GPIO_7_Mode_GeneralPurpose"), DW_AT_const_value(0x00)
    5788              $C$DW$563       .dwtag  DW_TAG_enumerator, DW_AT_name("GPIO_7_Mode_EPWM4B"), DW_AT_const_value(0x01)
    5789              $C$DW$564       .dwtag  DW_TAG_enumerator, DW_AT_name("GPIO_7_Mode_SCIRXDA"), DW_AT_const_value(0x02)
    5790              $C$DW$565       .dwtag  DW_TAG_enumerator, DW_AT_name("GPIO_7_Mode_Rsvd_3"), DW_AT_const_value(0x03)
    5791              $C$DW$566       .dwtag  DW_TAG_enumerator, DW_AT_name("GPIO_12_Mode_GeneralPurpose"), DW_AT_const_value(0x00)
    5792              $C$DW$567       .dwtag  DW_TAG_enumerator, DW_AT_name("GPIO_12_Mode_TZ1_NOT"), DW_AT_const_value(0x01)
    5793              $C$DW$568       .dwtag  DW_TAG_enumerator, DW_AT_name("GPIO_12_Mode_SCITXDA"), DW_AT_const_value(0x02)
    5794              $C$DW$569       .dwtag  DW_TAG_enumerator, DW_AT_name("GPIO_12_Mode_Rsvd_3"), DW_AT_const_value(0x03)
    5795              $C$DW$570       .dwtag  DW_TAG_enumerator, DW_AT_name("GPIO_16_Mode_GeneralPurpose"), DW_AT_const_value(0x00)
    5796              $C$DW$571       .dwtag  DW_TAG_enumerator, DW_AT_name("GPIO_16_Mode_SPISIMOA"), DW_AT_const_value(0x01)
    5797              $C$DW$572       .dwtag  DW_TAG_enumerator, DW_AT_name("GPIO_16_Mode_Rsvd_2"), DW_AT_const_value(0x02)
    5798              $C$DW$573       .dwtag  DW_TAG_enumerator, DW_AT_name("GPIO_16_Mode_TZ2_NOT"), DW_AT_const_value(0x03)
    5799              $C$DW$574       .dwtag  DW_TAG_enumerator, DW_AT_name("GPIO_17_Mode_GeneralPurpose"), DW_AT_const_value(0x00)
    5800              $C$DW$575       .dwtag  DW_TAG_enumerator, DW_AT_name("GPIO_17_Mode_SPISOMIA"), DW_AT_const_value(0x01)
    5801              $C$DW$576       .dwtag  DW_TAG_enumerator, DW_AT_name("GPIO_17_Mode_Rsvd_2"), DW_AT_const_value(0x02)
    5802              $C$DW$577       .dwtag  DW_TAG_enumerator, DW_AT_name("GPIO_17_Mode_TZ3_NOT"), DW_AT_const_value(0x03)
    5803              $C$DW$578       .dwtag  DW_TAG_enumerator, DW_AT_name("GPIO_18_Mode_GeneralPurpose"), DW_AT_const_value(0x00)
    5804              $C$DW$579       .dwtag  DW_TAG_enumerator, DW_AT_name("GPIO_18_Mode_SPICLKA"), DW_AT_const_value(0x01)
    5805              $C$DW$580       .dwtag  DW_TAG_enumerator, DW_AT_name("GPIO_18_Mode_SCITXDA"), DW_AT_const_value(0x02)
    5806              $C$DW$581       .dwtag  DW_TAG_enumerator, DW_AT_name("GPIO_18_Mode_XCLKOUT"), DW_AT_const_value(0x03)
    5807              $C$DW$582       .dwtag  DW_TAG_enumerator, DW_AT_name("GPIO_19_Mode_GeneralPurpose"), DW_AT_const_value(0x00)
    5808              $C$DW$583       .dwtag  DW_TAG_enumerator, DW_AT_name("GPIO_19_Mode_SPISTEA_NOT"), DW_AT_const_value(0x01)
    5809              $C$DW$584       .dwtag  DW_TAG_enumerator, DW_AT_name("GPIO_19_Mode_SCIRXDA"), DW_AT_const_value(0x02)
    5810              $C$DW$585       .dwtag  DW_TAG_enumerator, DW_AT_name("GPIO_19_Mode_ECAP1"), DW_AT_const_value(0x03)
    5811              $C$DW$586       .dwtag  DW_TAG_enumerator, DW_AT_name("GPIO_28_Mode_GeneralPurpose"), DW_AT_const_value(0x00)
    5812              $C$DW$587       .dwtag  DW_TAG_enumerator, DW_AT_name("GPIO_28_Mode_SCIRXDA"), DW_AT_const_value(0x01)
    5813              $C$DW$588       .dwtag  DW_TAG_enumerator, DW_AT_name("GPIO_28_Mode_SDDA"), DW_AT_const_value(0x02)
    5814              $C$DW$589       .dwtag  DW_TAG_enumerator, DW_AT_name("GPIO_28_Mode_TZ2_NOT"), DW_AT_const_value(0x03)
    5815              $C$DW$590       .dwtag  DW_TAG_enumerator, DW_AT_name("GPIO_29_Mode_GeneralPurpose"), DW_AT_const_value(0x00)
    5816              $C$DW$591       .dwtag  DW_TAG_enumerator, DW_AT_name("GPIO_29_Mode_SCITXDA"), DW_AT_const_value(0x01)
    5817              $C$DW$592       .dwtag  DW_TAG_enumerator, DW_AT_name("GPIO_29_Mode_SCLA"), DW_AT_const_value(0x02)
    5818              $C$DW$593       .dwtag  DW_TAG_enumerator, DW_AT_name("GPIO_29_Mode_TZ3_NOT"), DW_AT_const_value(0x03)
    5819              $C$DW$594       .dwtag  DW_TAG_enumerator, DW_AT_name("GPIO_32_Mode_GeneralPurpose"), DW_AT_const_value(0x00)
    5820              $C$DW$595       .dwtag  DW_TAG_enumerator, DW_AT_name("GPIO_32_Mode_SDAA"), DW_AT_const_value(0x01)
    5821              $C$DW$596       .dwtag  DW_TAG_enumerator, DW_AT_name("GPIO_32_Mode_EPWMSYNCI"), DW_AT_const_value(0x02)
    5822              $C$DW$597       .dwtag  DW_TAG_enumerator, DW_AT_name("GPIO_32_Mode_ADCSOCAO_NOT"), DW_AT_const_value(0x03)
    5823              $C$DW$598       .dwtag  DW_TAG_enumerator, DW_AT_name("GPIO_33_Mode_GeneralPurpose"), DW_AT_const_value(0x00)
    5824              $C$DW$599       .dwtag  DW_TAG_enumerator, DW_AT_name("GPIO_33_Mode_SCLA"), DW_AT_const_value(0x01)
    5825              $C$DW$600       .dwtag  DW_TAG_enumerator, DW_AT_name("GPIO_33_Mode_EPWMSYNCO"), DW_AT_const_value(0x02)
    5826              $C$DW$601       .dwtag  DW_TAG_enumerator, DW_AT_name("GPIO_33_Mode_ADCSOCBO_NOT"), DW_AT_const_value(0x03)
    5827              $C$DW$602       .dwtag  DW_TAG_enumerator, DW_AT_name("GPIO_34_Mode_GeneralPurpose"), DW_AT_const_value(0x00)
    5828              $C$DW$603       .dwtag  DW_TAG_enumerator, DW_AT_name("GPIO_34_Mode_COMP2OUT"), DW_AT_const_value(0x01)
    5829              $C$DW$604       .dwtag  DW_TAG_enumerator, DW_AT_name("GPIO_34_Mode_Rsvd_2"), DW_AT_const_value(0x02)
TMS320C2000 Assembler PC v6.2.5 Mon Jul 10 09:53:39 2017

Tools Copyright (c) 1996-2014 Texas Instruments Incorporated
C:\Users\wmj\AppData\Local\Temp\1375610                              PAGE  111

    5830              $C$DW$605       .dwtag  DW_TAG_enumerator, DW_AT_name("GPIO_34_Mode_Rsvd_3"), DW_AT_const_value(0x03)
    5831              $C$DW$606       .dwtag  DW_TAG_enumerator, DW_AT_name("GPIO_35_Mode_JTAG_TDI"), DW_AT_const_value(0x00)
    5832              $C$DW$607       .dwtag  DW_TAG_enumerator, DW_AT_name("GPIO_35_Mode_Rsvd_1"), DW_AT_const_value(0x01)
    5833              $C$DW$608       .dwtag  DW_TAG_enumerator, DW_AT_name("GPIO_35_Mode_Rsvd_2"), DW_AT_const_value(0x02)
    5834              $C$DW$609       .dwtag  DW_TAG_enumerator, DW_AT_name("GPIO_35_Mode_Rsvd_3"), DW_AT_const_value(0x03)
    5835              $C$DW$610       .dwtag  DW_TAG_enumerator, DW_AT_name("GPIO_36_Mode_JTAG_TMS"), DW_AT_const_value(0x00)
    5836              $C$DW$611       .dwtag  DW_TAG_enumerator, DW_AT_name("GPIO_36_Mode_Rsvd_1"), DW_AT_const_value(0x01)
    5837              $C$DW$612       .dwtag  DW_TAG_enumerator, DW_AT_name("GPIO_36_Mode_Rsvd_2"), DW_AT_const_value(0x02)
    5838              $C$DW$613       .dwtag  DW_TAG_enumerator, DW_AT_name("GPIO_36_Mode_Rsvd_3"), DW_AT_const_value(0x03)
    5839              $C$DW$614       .dwtag  DW_TAG_enumerator, DW_AT_name("GPIO_37_Mode_JTAG_TDO"), DW_AT_const_value(0x00)
    5840              $C$DW$615       .dwtag  DW_TAG_enumerator, DW_AT_name("GPIO_37_Mode_Rsvd_1"), DW_AT_const_value(0x01)
    5841              $C$DW$616       .dwtag  DW_TAG_enumerator, DW_AT_name("GPIO_37_Mode_Rsvd_2"), DW_AT_const_value(0x02)
    5842              $C$DW$617       .dwtag  DW_TAG_enumerator, DW_AT_name("GPIO_37_Mode_Rsvd_3"), DW_AT_const_value(0x03)
    5843              $C$DW$618       .dwtag  DW_TAG_enumerator, DW_AT_name("GPIO_38_Mode_JTAG_TCK"), DW_AT_const_value(0x00)
    5844              $C$DW$619       .dwtag  DW_TAG_enumerator, DW_AT_name("GPIO_38_Mode_Rsvd_1"), DW_AT_const_value(0x01)
    5845              $C$DW$620       .dwtag  DW_TAG_enumerator, DW_AT_name("GPIO_38_Mode_Rsvd_2"), DW_AT_const_value(0x02)
    5846              $C$DW$621       .dwtag  DW_TAG_enumerator, DW_AT_name("GPIO_38_Mode_Rsvd_3"), DW_AT_const_value(0x03)
    5847                      .dwendtag $C$DW$T$89
    5848              
    5849              $C$DW$T$90      .dwtag  DW_TAG_typedef, DW_AT_name("GPIO_Mode_e")
    5850                      .dwattr $C$DW$T$90, DW_AT_type(*$C$DW$T$89)
    5851                      .dwattr $C$DW$T$90, DW_AT_language(DW_LANG_C)
    5852              $C$DW$622       .dwtag  DW_TAG_TI_far_type
    5853                      .dwattr $C$DW$622, DW_AT_type(*$C$DW$T$90)
    5854              $C$DW$T$91      .dwtag  DW_TAG_const_type
    5855                      .dwattr $C$DW$T$91, DW_AT_type(*$C$DW$622)
    5856              
    5857              $C$DW$T$92      .dwtag  DW_TAG_enumeration_type
    5858                      .dwattr $C$DW$T$92, DW_AT_byte_size(0x01)
    5859              $C$DW$623       .dwtag  DW_TAG_enumerator, DW_AT_name("LDC161x_RegName_Ch0DataMSB"), DW_AT_const_value(0x00)
    5860              $C$DW$624       .dwtag  DW_TAG_enumerator, DW_AT_name("LDC161x_RegName_Ch0DataLSB"), DW_AT_const_value(0x01)
    5861              $C$DW$625       .dwtag  DW_TAG_enumerator, DW_AT_name("LDC161x_RegName_Ch1DataMSB"), DW_AT_const_value(0x02)
    5862              $C$DW$626       .dwtag  DW_TAG_enumerator, DW_AT_name("LDC161x_RegName_Ch1DataLSB"), DW_AT_const_value(0x03)
    5863              $C$DW$627       .dwtag  DW_TAG_enumerator, DW_AT_name("LDC161x_RegName_Ch2DataMSB"), DW_AT_const_value(0x04)
    5864              $C$DW$628       .dwtag  DW_TAG_enumerator, DW_AT_name("LDC161x_RegName_Ch2DataLSB"), DW_AT_const_value(0x05)
    5865              $C$DW$629       .dwtag  DW_TAG_enumerator, DW_AT_name("LDC161x_RegName_Ch3DataMSB"), DW_AT_const_value(0x06)
    5866              $C$DW$630       .dwtag  DW_TAG_enumerator, DW_AT_name("LDC161x_RegName_Ch3DataLSB"), DW_AT_const_value(0x07)
    5867              $C$DW$631       .dwtag  DW_TAG_enumerator, DW_AT_name("LDC161x_RegName_Ch0Rcount"), DW_AT_const_value(0x08)
    5868              $C$DW$632       .dwtag  DW_TAG_enumerator, DW_AT_name("LDC161x_RegName_Ch1Rcount"), DW_AT_const_value(0x09)
    5869              $C$DW$633       .dwtag  DW_TAG_enumerator, DW_AT_name("LDC161x_RegName_Ch2Rcount"), DW_AT_const_value(0x0a)
    5870              $C$DW$634       .dwtag  DW_TAG_enumerator, DW_AT_name("LDC161x_RegName_Ch3Rcount"), DW_AT_const_value(0x0b)
    5871              $C$DW$635       .dwtag  DW_TAG_enumerator, DW_AT_name("LDC161x_RegName_Ch0Offset"), DW_AT_const_value(0x0c)
    5872              $C$DW$636       .dwtag  DW_TAG_enumerator, DW_AT_name("LDC161x_RegName_Ch1Offset"), DW_AT_const_value(0x0d)
    5873              $C$DW$637       .dwtag  DW_TAG_enumerator, DW_AT_name("LDC161x_RegName_Ch2Offset"), DW_AT_const_value(0x0e)
    5874              $C$DW$638       .dwtag  DW_TAG_enumerator, DW_AT_name("LDC161x_RegName_Ch3Offset"), DW_AT_const_value(0x0f)
    5875              $C$DW$639       .dwtag  DW_TAG_enumerator, DW_AT_name("LDC161x_RegName_Ch0SettleCnt"), DW_AT_const_value(0x10
    5876              $C$DW$640       .dwtag  DW_TAG_enumerator, DW_AT_name("LDC161x_RegName_Ch1SettleCnt"), DW_AT_const_value(0x11
    5877              $C$DW$641       .dwtag  DW_TAG_enumerator, DW_AT_name("LDC161x_RegName_Ch2SettleCnt"), DW_AT_const_value(0x12
    5878              $C$DW$642       .dwtag  DW_TAG_enumerator, DW_AT_name("LDC161x_RegName_Ch3SettleCnt"), DW_AT_const_value(0x13
    5879              $C$DW$643       .dwtag  DW_TAG_enumerator, DW_AT_name("LDC161x_RegName_Ch0ClkDiv"), DW_AT_const_value(0x14)
    5880              $C$DW$644       .dwtag  DW_TAG_enumerator, DW_AT_name("LDC161x_RegName_Ch1ClkDiv"), DW_AT_const_value(0x15)
    5881              $C$DW$645       .dwtag  DW_TAG_enumerator, DW_AT_name("LDC161x_RegName_Ch2ClkDiv"), DW_AT_const_value(0x16)
    5882              $C$DW$646       .dwtag  DW_TAG_enumerator, DW_AT_name("LDC161x_RegName_Ch3ClkDiv"), DW_AT_const_value(0x17)
    5883              $C$DW$647       .dwtag  DW_TAG_enumerator, DW_AT_name("LDC161x_RegName_STATUS"), DW_AT_const_value(0x18)
    5884              $C$DW$648       .dwtag  DW_TAG_enumerator, DW_AT_name("LDC161x_RegName_ERROR_CONFIG"), DW_AT_const_value(0x19
TMS320C2000 Assembler PC v6.2.5 Mon Jul 10 09:53:39 2017

Tools Copyright (c) 1996-2014 Texas Instruments Incorporated
C:\Users\wmj\AppData\Local\Temp\1375610                              PAGE  112

    5885              $C$DW$649       .dwtag  DW_TAG_enumerator, DW_AT_name("LDC161x_RegName_CONFIG"), DW_AT_const_value(0x1a)
    5886              $C$DW$650       .dwtag  DW_TAG_enumerator, DW_AT_name("LDC161x_RegName_MUX_CONFIG"), DW_AT_const_value(0x1b)
    5887              $C$DW$651       .dwtag  DW_TAG_enumerator, DW_AT_name("LDC161x_RegName_RESET_DEV"), DW_AT_const_value(0x1c)
    5888              $C$DW$652       .dwtag  DW_TAG_enumerator, DW_AT_name("LDC161x_RegName_Ch0DrvCurrent"), DW_AT_const_value(0x1
    5889              $C$DW$653       .dwtag  DW_TAG_enumerator, DW_AT_name("LDC161x_RegName_Ch1DrvCurrent"), DW_AT_const_value(0x1
    5890              $C$DW$654       .dwtag  DW_TAG_enumerator, DW_AT_name("LDC161x_RegName_Ch2DrvCurrent"), DW_AT_const_value(0x2
    5891              $C$DW$655       .dwtag  DW_TAG_enumerator, DW_AT_name("LDC161x_RegName_Ch3DrvCurrent"), DW_AT_const_value(0x2
    5892              $C$DW$656       .dwtag  DW_TAG_enumerator, DW_AT_name("LDC161x_RegName_MANUFACTURER_ID"), DW_AT_const_value(0
    5893              $C$DW$657       .dwtag  DW_TAG_enumerator, DW_AT_name("LDC161x_RegName_DEVICE_ID"), DW_AT_const_value(0x7f)
    5894                      .dwendtag $C$DW$T$92
    5895              
    5896              $C$DW$T$93      .dwtag  DW_TAG_typedef, DW_AT_name("LDC161x_RegName_e")
    5897                      .dwattr $C$DW$T$93, DW_AT_type(*$C$DW$T$92)
    5898                      .dwattr $C$DW$T$93, DW_AT_language(DW_LANG_C)
    5899              $C$DW$658       .dwtag  DW_TAG_TI_far_type
    5900                      .dwattr $C$DW$658, DW_AT_type(*$C$DW$T$93)
    5901              $C$DW$T$94      .dwtag  DW_TAG_const_type
    5902                      .dwattr $C$DW$T$94, DW_AT_type(*$C$DW$658)
    5903              
    5904              $C$DW$T$95      .dwtag  DW_TAG_enumeration_type
    5905                      .dwattr $C$DW$T$95, DW_AT_byte_size(0x01)
    5906              $C$DW$659       .dwtag  DW_TAG_enumerator, DW_AT_name("LDC161x_ChNum_CH0"), DW_AT_const_value(0x00)
    5907              $C$DW$660       .dwtag  DW_TAG_enumerator, DW_AT_name("LDC161x_ChNum_CH1"), DW_AT_const_value(0x01)
    5908              $C$DW$661       .dwtag  DW_TAG_enumerator, DW_AT_name("LDC161x_ChNum_CH2"), DW_AT_const_value(0x02)
    5909              $C$DW$662       .dwtag  DW_TAG_enumerator, DW_AT_name("LDC161x_ChNum_CH3"), DW_AT_const_value(0x03)
    5910                      .dwendtag $C$DW$T$95
    5911              
    5912              $C$DW$T$96      .dwtag  DW_TAG_typedef, DW_AT_name("LDC161x_ChNum_e")
    5913                      .dwattr $C$DW$T$96, DW_AT_type(*$C$DW$T$95)
    5914                      .dwattr $C$DW$T$96, DW_AT_language(DW_LANG_C)
    5915              $C$DW$663       .dwtag  DW_TAG_TI_far_type
    5916                      .dwattr $C$DW$663, DW_AT_type(*$C$DW$T$96)
    5917              $C$DW$T$97      .dwtag  DW_TAG_const_type
    5918                      .dwattr $C$DW$T$97, DW_AT_type(*$C$DW$663)
    5919              $C$DW$664       .dwtag  DW_TAG_TI_far_type
    5920                      .dwattr $C$DW$664, DW_AT_type(*$C$DW$T$96)
    5921              $C$DW$T$98      .dwtag  DW_TAG_const_type
    5922                      .dwattr $C$DW$T$98, DW_AT_type(*$C$DW$664)
    5923              $C$DW$665       .dwtag  DW_TAG_TI_far_type
    5924                      .dwattr $C$DW$665, DW_AT_type(*$C$DW$T$96)
    5925              $C$DW$T$99      .dwtag  DW_TAG_const_type
    5926                      .dwattr $C$DW$T$99, DW_AT_type(*$C$DW$665)
    5927              $C$DW$666       .dwtag  DW_TAG_TI_far_type
    5928                      .dwattr $C$DW$666, DW_AT_type(*$C$DW$T$96)
    5929              $C$DW$T$100     .dwtag  DW_TAG_const_type
    5930                      .dwattr $C$DW$T$100, DW_AT_type(*$C$DW$666)
    5931              $C$DW$667       .dwtag  DW_TAG_TI_far_type
    5932                      .dwattr $C$DW$667, DW_AT_type(*$C$DW$T$96)
    5933              $C$DW$T$101     .dwtag  DW_TAG_const_type
    5934                      .dwattr $C$DW$T$101, DW_AT_type(*$C$DW$667)
    5935              $C$DW$668       .dwtag  DW_TAG_TI_far_type
    5936                      .dwattr $C$DW$668, DW_AT_type(*$C$DW$T$96)
    5937              $C$DW$T$102     .dwtag  DW_TAG_const_type
    5938                      .dwattr $C$DW$T$102, DW_AT_type(*$C$DW$668)
    5939              $C$DW$669       .dwtag  DW_TAG_TI_far_type
TMS320C2000 Assembler PC v6.2.5 Mon Jul 10 09:53:39 2017

Tools Copyright (c) 1996-2014 Texas Instruments Incorporated
C:\Users\wmj\AppData\Local\Temp\1375610                              PAGE  113

    5940                      .dwattr $C$DW$669, DW_AT_type(*$C$DW$T$96)
    5941              $C$DW$T$103     .dwtag  DW_TAG_const_type
    5942                      .dwattr $C$DW$T$103, DW_AT_type(*$C$DW$669)
    5943              $C$DW$670       .dwtag  DW_TAG_TI_far_type
    5944                      .dwattr $C$DW$670, DW_AT_type(*$C$DW$T$96)
    5945              $C$DW$T$104     .dwtag  DW_TAG_const_type
    5946                      .dwattr $C$DW$T$104, DW_AT_type(*$C$DW$670)
    5947              $C$DW$671       .dwtag  DW_TAG_TI_far_type
    5948                      .dwattr $C$DW$671, DW_AT_type(*$C$DW$T$96)
    5949              $C$DW$T$105     .dwtag  DW_TAG_const_type
    5950                      .dwattr $C$DW$T$105, DW_AT_type(*$C$DW$671)
    5951              $C$DW$672       .dwtag  DW_TAG_TI_far_type
    5952                      .dwattr $C$DW$672, DW_AT_type(*$C$DW$T$96)
    5953              $C$DW$T$106     .dwtag  DW_TAG_const_type
    5954                      .dwattr $C$DW$T$106, DW_AT_type(*$C$DW$672)
    5955              
    5956              $C$DW$T$22      .dwtag  DW_TAG_structure_type
    5957                      .dwattr $C$DW$T$22, DW_AT_name("Data")
    5958                      .dwattr $C$DW$T$22, DW_AT_byte_size(0x02)
    5959              $C$DW$673       .dwtag  DW_TAG_member
    5960                      .dwattr $C$DW$673, DW_AT_type(*$C$DW$T$21)
    5961                      .dwattr $C$DW$673, DW_AT_name("LSB")
    5962                      .dwattr $C$DW$673, DW_AT_TI_symbol_name("_LSB")
    5963                      .dwattr $C$DW$673, DW_AT_data_member_location[DW_OP_plus_uconst 0x0]
    5964                      .dwattr $C$DW$673, DW_AT_accessibility(DW_ACCESS_public)
    5965              $C$DW$674       .dwtag  DW_TAG_member
    5966                      .dwattr $C$DW$674, DW_AT_type(*$C$DW$T$21)
    5967                      .dwattr $C$DW$674, DW_AT_name("MSB")
    5968                      .dwattr $C$DW$674, DW_AT_TI_symbol_name("_MSB")
    5969                      .dwattr $C$DW$674, DW_AT_data_member_location[DW_OP_plus_uconst 0x1]
    5970                      .dwattr $C$DW$674, DW_AT_accessibility(DW_ACCESS_public)
    5971                      .dwendtag $C$DW$T$22
    5972              
    5973              
    5974              $C$DW$T$19      .dwtag  DW_TAG_structure_type
    5975                      .dwattr $C$DW$T$19, DW_AT_name("I2C_Obj")
    5976                      .dwattr $C$DW$T$19, DW_AT_declaration
    5977                      .dwendtag $C$DW$T$19
    5978              
    5979              $C$DW$T$42      .dwtag  DW_TAG_pointer_type
    5980                      .dwattr $C$DW$T$42, DW_AT_type(*$C$DW$T$19)
    5981                      .dwattr $C$DW$T$42, DW_AT_address_class(0x16)
    5982              $C$DW$T$43      .dwtag  DW_TAG_typedef, DW_AT_name("I2C_Handle")
    5983                      .dwattr $C$DW$T$43, DW_AT_type(*$C$DW$T$42)
    5984                      .dwattr $C$DW$T$43, DW_AT_language(DW_LANG_C)
    5985              $C$DW$675       .dwtag  DW_TAG_TI_far_type
    5986                      .dwattr $C$DW$675, DW_AT_type(*$C$DW$T$43)
    5987              $C$DW$T$107     .dwtag  DW_TAG_const_type
    5988                      .dwattr $C$DW$T$107, DW_AT_type(*$C$DW$675)
    5989              
    5990              $C$DW$T$20      .dwtag  DW_TAG_structure_type
    5991                      .dwattr $C$DW$T$20, DW_AT_name("LDC161x_REG_Obj")
    5992                      .dwattr $C$DW$T$20, DW_AT_declaration
    5993                      .dwendtag $C$DW$T$20
    5994              
TMS320C2000 Assembler PC v6.2.5 Mon Jul 10 09:53:39 2017

Tools Copyright (c) 1996-2014 Texas Instruments Incorporated
C:\Users\wmj\AppData\Local\Temp\1375610                              PAGE  114

    5995              $C$DW$T$46      .dwtag  DW_TAG_pointer_type
    5996                      .dwattr $C$DW$T$46, DW_AT_type(*$C$DW$T$20)
    5997                      .dwattr $C$DW$T$46, DW_AT_address_class(0x16)
    5998              $C$DW$T$47      .dwtag  DW_TAG_typedef, DW_AT_name("LDC_Handle")
    5999                      .dwattr $C$DW$T$47, DW_AT_type(*$C$DW$T$46)
    6000                      .dwattr $C$DW$T$47, DW_AT_language(DW_LANG_C)
    6001              $C$DW$676       .dwtag  DW_TAG_TI_far_type
    6002                      .dwattr $C$DW$676, DW_AT_type(*$C$DW$T$47)
    6003              $C$DW$T$109     .dwtag  DW_TAG_const_type
    6004                      .dwattr $C$DW$T$109, DW_AT_type(*$C$DW$676)
    6005              
    6006              $C$DW$T$23      .dwtag  DW_TAG_structure_type
    6007                      .dwattr $C$DW$T$23, DW_AT_name("_CLK_DIV_t_")
    6008                      .dwattr $C$DW$T$23, DW_AT_byte_size(0x02)
    6009              $C$DW$677       .dwtag  DW_TAG_member
    6010                      .dwattr $C$DW$677, DW_AT_type(*$C$DW$T$21)
    6011                      .dwattr $C$DW$677, DW_AT_name("FREF_DIVIDER")
    6012                      .dwattr $C$DW$677, DW_AT_TI_symbol_name("_FREF_DIVIDER")
    6013                      .dwattr $C$DW$677, DW_AT_data_member_location[DW_OP_plus_uconst 0x0]
    6014                      .dwattr $C$DW$677, DW_AT_accessibility(DW_ACCESS_public)
    6015              $C$DW$678       .dwtag  DW_TAG_member
    6016                      .dwattr $C$DW$678, DW_AT_type(*$C$DW$T$21)
    6017                      .dwattr $C$DW$678, DW_AT_name("FIN_DIVIDER")
    6018                      .dwattr $C$DW$678, DW_AT_TI_symbol_name("_FIN_DIVIDER")
    6019                      .dwattr $C$DW$678, DW_AT_data_member_location[DW_OP_plus_uconst 0x1]
    6020                      .dwattr $C$DW$678, DW_AT_accessibility(DW_ACCESS_public)
    6021                      .dwendtag $C$DW$T$23
    6022              
    6023              $C$DW$T$37      .dwtag  DW_TAG_typedef, DW_AT_name("CLK_DIV_t_")
    6024                      .dwattr $C$DW$T$37, DW_AT_type(*$C$DW$T$23)
    6025                      .dwattr $C$DW$T$37, DW_AT_language(DW_LANG_C)
    6026              
    6027              $C$DW$T$24      .dwtag  DW_TAG_structure_type
    6028                      .dwattr $C$DW$T$24, DW_AT_name("_DRIVE_CURRENT_t_")
    6029                      .dwattr $C$DW$T$24, DW_AT_byte_size(0x02)
    6030              $C$DW$679       .dwtag  DW_TAG_member
    6031                      .dwattr $C$DW$679, DW_AT_type(*$C$DW$T$21)
    6032                      .dwattr $C$DW$679, DW_AT_name("IDRIVE")
    6033                      .dwattr $C$DW$679, DW_AT_TI_symbol_name("_IDRIVE")
    6034                      .dwattr $C$DW$679, DW_AT_data_member_location[DW_OP_plus_uconst 0x0]
    6035                      .dwattr $C$DW$679, DW_AT_accessibility(DW_ACCESS_public)
    6036              $C$DW$680       .dwtag  DW_TAG_member
    6037                      .dwattr $C$DW$680, DW_AT_type(*$C$DW$T$21)
    6038                      .dwattr $C$DW$680, DW_AT_name("INIT_IDRIVE")
    6039                      .dwattr $C$DW$680, DW_AT_TI_symbol_name("_INIT_IDRIVE")
    6040                      .dwattr $C$DW$680, DW_AT_data_member_location[DW_OP_plus_uconst 0x1]
    6041                      .dwattr $C$DW$680, DW_AT_accessibility(DW_ACCESS_public)
    6042                      .dwendtag $C$DW$T$24
    6043              
    6044              $C$DW$T$60      .dwtag  DW_TAG_typedef, DW_AT_name("DRIVE_CURRENT_t_")
    6045                      .dwattr $C$DW$T$60, DW_AT_type(*$C$DW$T$24)
    6046                      .dwattr $C$DW$T$60, DW_AT_language(DW_LANG_C)
    6047              
    6048              $C$DW$T$34      .dwtag  DW_TAG_structure_type
    6049                      .dwattr $C$DW$T$34, DW_AT_name("_GPIO_Obj_")
TMS320C2000 Assembler PC v6.2.5 Mon Jul 10 09:53:39 2017

Tools Copyright (c) 1996-2014 Texas Instruments Incorporated
C:\Users\wmj\AppData\Local\Temp\1375610                              PAGE  115

    6050                      .dwattr $C$DW$T$34, DW_AT_byte_size(0x6a)
    6051              $C$DW$681       .dwtag  DW_TAG_member
    6052                      .dwattr $C$DW$681, DW_AT_type(*$C$DW$T$26)
    6053                      .dwattr $C$DW$681, DW_AT_name("GPACTRL")
    6054                      .dwattr $C$DW$681, DW_AT_TI_symbol_name("_GPACTRL")
    6055                      .dwattr $C$DW$681, DW_AT_data_member_location[DW_OP_plus_uconst 0x0]
    6056                      .dwattr $C$DW$681, DW_AT_accessibility(DW_ACCESS_public)
    6057              $C$DW$682       .dwtag  DW_TAG_member
    6058                      .dwattr $C$DW$682, DW_AT_type(*$C$DW$T$26)
    6059                      .dwattr $C$DW$682, DW_AT_name("GPAQSEL1")
    6060                      .dwattr $C$DW$682, DW_AT_TI_symbol_name("_GPAQSEL1")
    6061                      .dwattr $C$DW$682, DW_AT_data_member_location[DW_OP_plus_uconst 0x2]
    6062                      .dwattr $C$DW$682, DW_AT_accessibility(DW_ACCESS_public)
    6063              $C$DW$683       .dwtag  DW_TAG_member
    6064                      .dwattr $C$DW$683, DW_AT_type(*$C$DW$T$26)
    6065                      .dwattr $C$DW$683, DW_AT_name("GPAQSEL2")
    6066                      .dwattr $C$DW$683, DW_AT_TI_symbol_name("_GPAQSEL2")
    6067                      .dwattr $C$DW$683, DW_AT_data_member_location[DW_OP_plus_uconst 0x4]
    6068                      .dwattr $C$DW$683, DW_AT_accessibility(DW_ACCESS_public)
    6069              $C$DW$684       .dwtag  DW_TAG_member
    6070                      .dwattr $C$DW$684, DW_AT_type(*$C$DW$T$26)
    6071                      .dwattr $C$DW$684, DW_AT_name("GPAMUX1")
    6072                      .dwattr $C$DW$684, DW_AT_TI_symbol_name("_GPAMUX1")
    6073                      .dwattr $C$DW$684, DW_AT_data_member_location[DW_OP_plus_uconst 0x6]
    6074                      .dwattr $C$DW$684, DW_AT_accessibility(DW_ACCESS_public)
    6075              $C$DW$685       .dwtag  DW_TAG_member
    6076                      .dwattr $C$DW$685, DW_AT_type(*$C$DW$T$26)
    6077                      .dwattr $C$DW$685, DW_AT_name("GPAMUX2")
    6078                      .dwattr $C$DW$685, DW_AT_TI_symbol_name("_GPAMUX2")
    6079                      .dwattr $C$DW$685, DW_AT_data_member_location[DW_OP_plus_uconst 0x8]
    6080                      .dwattr $C$DW$685, DW_AT_accessibility(DW_ACCESS_public)
    6081              $C$DW$686       .dwtag  DW_TAG_member
    6082                      .dwattr $C$DW$686, DW_AT_type(*$C$DW$T$26)
    6083                      .dwattr $C$DW$686, DW_AT_name("GPADIR")
    6084                      .dwattr $C$DW$686, DW_AT_TI_symbol_name("_GPADIR")
    6085                      .dwattr $C$DW$686, DW_AT_data_member_location[DW_OP_plus_uconst 0xa]
    6086                      .dwattr $C$DW$686, DW_AT_accessibility(DW_ACCESS_public)
    6087              $C$DW$687       .dwtag  DW_TAG_member
    6088                      .dwattr $C$DW$687, DW_AT_type(*$C$DW$T$26)
    6089                      .dwattr $C$DW$687, DW_AT_name("GPAPUD")
    6090                      .dwattr $C$DW$687, DW_AT_TI_symbol_name("_GPAPUD")
    6091                      .dwattr $C$DW$687, DW_AT_data_member_location[DW_OP_plus_uconst 0xc]
    6092                      .dwattr $C$DW$687, DW_AT_accessibility(DW_ACCESS_public)
    6093              $C$DW$688       .dwtag  DW_TAG_member
    6094                      .dwattr $C$DW$688, DW_AT_type(*$C$DW$T$28)
    6095                      .dwattr $C$DW$688, DW_AT_name("rsvd_1")
    6096                      .dwattr $C$DW$688, DW_AT_TI_symbol_name("_rsvd_1")
    6097                      .dwattr $C$DW$688, DW_AT_data_member_location[DW_OP_plus_uconst 0xe]
    6098                      .dwattr $C$DW$688, DW_AT_accessibility(DW_ACCESS_public)
    6099              $C$DW$689       .dwtag  DW_TAG_member
    6100                      .dwattr $C$DW$689, DW_AT_type(*$C$DW$T$26)
    6101                      .dwattr $C$DW$689, DW_AT_name("GPBCTRL")
    6102                      .dwattr $C$DW$689, DW_AT_TI_symbol_name("_GPBCTRL")
    6103                      .dwattr $C$DW$689, DW_AT_data_member_location[DW_OP_plus_uconst 0x10]
    6104                      .dwattr $C$DW$689, DW_AT_accessibility(DW_ACCESS_public)
TMS320C2000 Assembler PC v6.2.5 Mon Jul 10 09:53:39 2017

Tools Copyright (c) 1996-2014 Texas Instruments Incorporated
C:\Users\wmj\AppData\Local\Temp\1375610                              PAGE  116

    6105              $C$DW$690       .dwtag  DW_TAG_member
    6106                      .dwattr $C$DW$690, DW_AT_type(*$C$DW$T$26)
    6107                      .dwattr $C$DW$690, DW_AT_name("GPBQSEL1")
    6108                      .dwattr $C$DW$690, DW_AT_TI_symbol_name("_GPBQSEL1")
    6109                      .dwattr $C$DW$690, DW_AT_data_member_location[DW_OP_plus_uconst 0x12]
    6110                      .dwattr $C$DW$690, DW_AT_accessibility(DW_ACCESS_public)
    6111              $C$DW$691       .dwtag  DW_TAG_member
    6112                      .dwattr $C$DW$691, DW_AT_type(*$C$DW$T$28)
    6113                      .dwattr $C$DW$691, DW_AT_name("rsvd_2")
    6114                      .dwattr $C$DW$691, DW_AT_TI_symbol_name("_rsvd_2")
    6115                      .dwattr $C$DW$691, DW_AT_data_member_location[DW_OP_plus_uconst 0x14]
    6116                      .dwattr $C$DW$691, DW_AT_accessibility(DW_ACCESS_public)
    6117              $C$DW$692       .dwtag  DW_TAG_member
    6118                      .dwattr $C$DW$692, DW_AT_type(*$C$DW$T$26)
    6119                      .dwattr $C$DW$692, DW_AT_name("GPBMUX1")
    6120                      .dwattr $C$DW$692, DW_AT_TI_symbol_name("_GPBMUX1")
    6121                      .dwattr $C$DW$692, DW_AT_data_member_location[DW_OP_plus_uconst 0x16]
    6122                      .dwattr $C$DW$692, DW_AT_accessibility(DW_ACCESS_public)
    6123              $C$DW$693       .dwtag  DW_TAG_member
    6124                      .dwattr $C$DW$693, DW_AT_type(*$C$DW$T$28)
    6125                      .dwattr $C$DW$693, DW_AT_name("rsvd_3")
    6126                      .dwattr $C$DW$693, DW_AT_TI_symbol_name("_rsvd_3")
    6127                      .dwattr $C$DW$693, DW_AT_data_member_location[DW_OP_plus_uconst 0x18]
    6128                      .dwattr $C$DW$693, DW_AT_accessibility(DW_ACCESS_public)
    6129              $C$DW$694       .dwtag  DW_TAG_member
    6130                      .dwattr $C$DW$694, DW_AT_type(*$C$DW$T$26)
    6131                      .dwattr $C$DW$694, DW_AT_name("GPBDIR")
    6132                      .dwattr $C$DW$694, DW_AT_TI_symbol_name("_GPBDIR")
    6133                      .dwattr $C$DW$694, DW_AT_data_member_location[DW_OP_plus_uconst 0x1a]
    6134                      .dwattr $C$DW$694, DW_AT_accessibility(DW_ACCESS_public)
    6135              $C$DW$695       .dwtag  DW_TAG_member
    6136                      .dwattr $C$DW$695, DW_AT_type(*$C$DW$T$26)
    6137                      .dwattr $C$DW$695, DW_AT_name("GPBPUD")
    6138                      .dwattr $C$DW$695, DW_AT_TI_symbol_name("_GPBPUD")
    6139                      .dwattr $C$DW$695, DW_AT_data_member_location[DW_OP_plus_uconst 0x1c]
    6140                      .dwattr $C$DW$695, DW_AT_accessibility(DW_ACCESS_public)
    6141              $C$DW$696       .dwtag  DW_TAG_member
    6142                      .dwattr $C$DW$696, DW_AT_type(*$C$DW$T$29)
    6143                      .dwattr $C$DW$696, DW_AT_name("rsvd_4")
    6144                      .dwattr $C$DW$696, DW_AT_TI_symbol_name("_rsvd_4")
    6145                      .dwattr $C$DW$696, DW_AT_data_member_location[DW_OP_plus_uconst 0x1e]
    6146                      .dwattr $C$DW$696, DW_AT_accessibility(DW_ACCESS_public)
    6147              $C$DW$697       .dwtag  DW_TAG_member
    6148                      .dwattr $C$DW$697, DW_AT_type(*$C$DW$T$26)
    6149                      .dwattr $C$DW$697, DW_AT_name("AIOMUX1")
    6150                      .dwattr $C$DW$697, DW_AT_TI_symbol_name("_AIOMUX1")
    6151                      .dwattr $C$DW$697, DW_AT_data_member_location[DW_OP_plus_uconst 0x36]
    6152                      .dwattr $C$DW$697, DW_AT_accessibility(DW_ACCESS_public)
    6153              $C$DW$698       .dwtag  DW_TAG_member
    6154                      .dwattr $C$DW$698, DW_AT_type(*$C$DW$T$28)
    6155                      .dwattr $C$DW$698, DW_AT_name("rsvd_5")
    6156                      .dwattr $C$DW$698, DW_AT_TI_symbol_name("_rsvd_5")
    6157                      .dwattr $C$DW$698, DW_AT_data_member_location[DW_OP_plus_uconst 0x38]
    6158                      .dwattr $C$DW$698, DW_AT_accessibility(DW_ACCESS_public)
    6159              $C$DW$699       .dwtag  DW_TAG_member
TMS320C2000 Assembler PC v6.2.5 Mon Jul 10 09:53:39 2017

Tools Copyright (c) 1996-2014 Texas Instruments Incorporated
C:\Users\wmj\AppData\Local\Temp\1375610                              PAGE  117

    6160                      .dwattr $C$DW$699, DW_AT_type(*$C$DW$T$26)
    6161                      .dwattr $C$DW$699, DW_AT_name("AIODIR")
    6162                      .dwattr $C$DW$699, DW_AT_TI_symbol_name("_AIODIR")
    6163                      .dwattr $C$DW$699, DW_AT_data_member_location[DW_OP_plus_uconst 0x3a]
    6164                      .dwattr $C$DW$699, DW_AT_accessibility(DW_ACCESS_public)
    6165              $C$DW$700       .dwtag  DW_TAG_member
    6166                      .dwattr $C$DW$700, DW_AT_type(*$C$DW$T$30)
    6167                      .dwattr $C$DW$700, DW_AT_name("rsvd_6")
    6168                      .dwattr $C$DW$700, DW_AT_TI_symbol_name("_rsvd_6")
    6169                      .dwattr $C$DW$700, DW_AT_data_member_location[DW_OP_plus_uconst 0x3c]
    6170                      .dwattr $C$DW$700, DW_AT_accessibility(DW_ACCESS_public)
    6171              $C$DW$701       .dwtag  DW_TAG_member
    6172                      .dwattr $C$DW$701, DW_AT_type(*$C$DW$T$26)
    6173                      .dwattr $C$DW$701, DW_AT_name("GPADAT")
    6174                      .dwattr $C$DW$701, DW_AT_TI_symbol_name("_GPADAT")
    6175                      .dwattr $C$DW$701, DW_AT_data_member_location[DW_OP_plus_uconst 0x40]
    6176                      .dwattr $C$DW$701, DW_AT_accessibility(DW_ACCESS_public)
    6177              $C$DW$702       .dwtag  DW_TAG_member
    6178                      .dwattr $C$DW$702, DW_AT_type(*$C$DW$T$26)
    6179                      .dwattr $C$DW$702, DW_AT_name("GPASET")
    6180                      .dwattr $C$DW$702, DW_AT_TI_symbol_name("_GPASET")
    6181                      .dwattr $C$DW$702, DW_AT_data_member_location[DW_OP_plus_uconst 0x42]
    6182                      .dwattr $C$DW$702, DW_AT_accessibility(DW_ACCESS_public)
    6183              $C$DW$703       .dwtag  DW_TAG_member
    6184                      .dwattr $C$DW$703, DW_AT_type(*$C$DW$T$26)
    6185                      .dwattr $C$DW$703, DW_AT_name("GPACLEAR")
    6186                      .dwattr $C$DW$703, DW_AT_TI_symbol_name("_GPACLEAR")
    6187                      .dwattr $C$DW$703, DW_AT_data_member_location[DW_OP_plus_uconst 0x44]
    6188                      .dwattr $C$DW$703, DW_AT_accessibility(DW_ACCESS_public)
    6189              $C$DW$704       .dwtag  DW_TAG_member
    6190                      .dwattr $C$DW$704, DW_AT_type(*$C$DW$T$26)
    6191                      .dwattr $C$DW$704, DW_AT_name("GPATOGGLE")
    6192                      .dwattr $C$DW$704, DW_AT_TI_symbol_name("_GPATOGGLE")
    6193                      .dwattr $C$DW$704, DW_AT_data_member_location[DW_OP_plus_uconst 0x46]
    6194                      .dwattr $C$DW$704, DW_AT_accessibility(DW_ACCESS_public)
    6195              $C$DW$705       .dwtag  DW_TAG_member
    6196                      .dwattr $C$DW$705, DW_AT_type(*$C$DW$T$26)
    6197                      .dwattr $C$DW$705, DW_AT_name("GPBDAT")
    6198                      .dwattr $C$DW$705, DW_AT_TI_symbol_name("_GPBDAT")
    6199                      .dwattr $C$DW$705, DW_AT_data_member_location[DW_OP_plus_uconst 0x48]
    6200                      .dwattr $C$DW$705, DW_AT_accessibility(DW_ACCESS_public)
    6201              $C$DW$706       .dwtag  DW_TAG_member
    6202                      .dwattr $C$DW$706, DW_AT_type(*$C$DW$T$26)
    6203                      .dwattr $C$DW$706, DW_AT_name("GPBSET")
    6204                      .dwattr $C$DW$706, DW_AT_TI_symbol_name("_GPBSET")
    6205                      .dwattr $C$DW$706, DW_AT_data_member_location[DW_OP_plus_uconst 0x4a]
    6206                      .dwattr $C$DW$706, DW_AT_accessibility(DW_ACCESS_public)
    6207              $C$DW$707       .dwtag  DW_TAG_member
    6208                      .dwattr $C$DW$707, DW_AT_type(*$C$DW$T$26)
    6209                      .dwattr $C$DW$707, DW_AT_name("GPBCLEAR")
    6210                      .dwattr $C$DW$707, DW_AT_TI_symbol_name("_GPBCLEAR")
    6211                      .dwattr $C$DW$707, DW_AT_data_member_location[DW_OP_plus_uconst 0x4c]
    6212                      .dwattr $C$DW$707, DW_AT_accessibility(DW_ACCESS_public)
    6213              $C$DW$708       .dwtag  DW_TAG_member
    6214                      .dwattr $C$DW$708, DW_AT_type(*$C$DW$T$26)
TMS320C2000 Assembler PC v6.2.5 Mon Jul 10 09:53:39 2017

Tools Copyright (c) 1996-2014 Texas Instruments Incorporated
C:\Users\wmj\AppData\Local\Temp\1375610                              PAGE  118

    6215                      .dwattr $C$DW$708, DW_AT_name("GPBTOGGLE")
    6216                      .dwattr $C$DW$708, DW_AT_TI_symbol_name("_GPBTOGGLE")
    6217                      .dwattr $C$DW$708, DW_AT_data_member_location[DW_OP_plus_uconst 0x4e]
    6218                      .dwattr $C$DW$708, DW_AT_accessibility(DW_ACCESS_public)
    6219              $C$DW$709       .dwtag  DW_TAG_member
    6220                      .dwattr $C$DW$709, DW_AT_type(*$C$DW$T$31)
    6221                      .dwattr $C$DW$709, DW_AT_name("rsvd_7")
    6222                      .dwattr $C$DW$709, DW_AT_TI_symbol_name("_rsvd_7")
    6223                      .dwattr $C$DW$709, DW_AT_data_member_location[DW_OP_plus_uconst 0x50]
    6224                      .dwattr $C$DW$709, DW_AT_accessibility(DW_ACCESS_public)
    6225              $C$DW$710       .dwtag  DW_TAG_member
    6226                      .dwattr $C$DW$710, DW_AT_type(*$C$DW$T$26)
    6227                      .dwattr $C$DW$710, DW_AT_name("AIODAT")
    6228                      .dwattr $C$DW$710, DW_AT_TI_symbol_name("_AIODAT")
    6229                      .dwattr $C$DW$710, DW_AT_data_member_location[DW_OP_plus_uconst 0x58]
    6230                      .dwattr $C$DW$710, DW_AT_accessibility(DW_ACCESS_public)
    6231              $C$DW$711       .dwtag  DW_TAG_member
    6232                      .dwattr $C$DW$711, DW_AT_type(*$C$DW$T$26)
    6233                      .dwattr $C$DW$711, DW_AT_name("AIOSET")
    6234                      .dwattr $C$DW$711, DW_AT_TI_symbol_name("_AIOSET")
    6235                      .dwattr $C$DW$711, DW_AT_data_member_location[DW_OP_plus_uconst 0x5a]
    6236                      .dwattr $C$DW$711, DW_AT_accessibility(DW_ACCESS_public)
    6237              $C$DW$712       .dwtag  DW_TAG_member
    6238                      .dwattr $C$DW$712, DW_AT_type(*$C$DW$T$26)
    6239                      .dwattr $C$DW$712, DW_AT_name("AIOCLEAR")
    6240                      .dwattr $C$DW$712, DW_AT_TI_symbol_name("_AIOCLEAR")
    6241                      .dwattr $C$DW$712, DW_AT_data_member_location[DW_OP_plus_uconst 0x5c]
    6242                      .dwattr $C$DW$712, DW_AT_accessibility(DW_ACCESS_public)
    6243              $C$DW$713       .dwtag  DW_TAG_member
    6244                      .dwattr $C$DW$713, DW_AT_type(*$C$DW$T$26)
    6245                      .dwattr $C$DW$713, DW_AT_name("AIOTOGGLE")
    6246                      .dwattr $C$DW$713, DW_AT_TI_symbol_name("_AIOTOGGLE")
    6247                      .dwattr $C$DW$713, DW_AT_data_member_location[DW_OP_plus_uconst 0x5e]
    6248                      .dwattr $C$DW$713, DW_AT_accessibility(DW_ACCESS_public)
    6249              $C$DW$714       .dwtag  DW_TAG_member
    6250                      .dwattr $C$DW$714, DW_AT_type(*$C$DW$T$32)
    6251                      .dwattr $C$DW$714, DW_AT_name("GPIOXINTnSEL")
    6252                      .dwattr $C$DW$714, DW_AT_TI_symbol_name("_GPIOXINTnSEL")
    6253                      .dwattr $C$DW$714, DW_AT_data_member_location[DW_OP_plus_uconst 0x60]
    6254                      .dwattr $C$DW$714, DW_AT_accessibility(DW_ACCESS_public)
    6255              $C$DW$715       .dwtag  DW_TAG_member
    6256                      .dwattr $C$DW$715, DW_AT_type(*$C$DW$T$33)
    6257                      .dwattr $C$DW$715, DW_AT_name("rsvd_8")
    6258                      .dwattr $C$DW$715, DW_AT_TI_symbol_name("_rsvd_8")
    6259                      .dwattr $C$DW$715, DW_AT_data_member_location[DW_OP_plus_uconst 0x63]
    6260                      .dwattr $C$DW$715, DW_AT_accessibility(DW_ACCESS_public)
    6261              $C$DW$716       .dwtag  DW_TAG_member
    6262                      .dwattr $C$DW$716, DW_AT_type(*$C$DW$T$26)
    6263                      .dwattr $C$DW$716, DW_AT_name("GPIOLPMSEL")
    6264                      .dwattr $C$DW$716, DW_AT_TI_symbol_name("_GPIOLPMSEL")
    6265                      .dwattr $C$DW$716, DW_AT_data_member_location[DW_OP_plus_uconst 0x68]
    6266                      .dwattr $C$DW$716, DW_AT_accessibility(DW_ACCESS_public)
    6267                      .dwendtag $C$DW$T$34
    6268              
    6269              $C$DW$T$44      .dwtag  DW_TAG_pointer_type
TMS320C2000 Assembler PC v6.2.5 Mon Jul 10 09:53:39 2017

Tools Copyright (c) 1996-2014 Texas Instruments Incorporated
C:\Users\wmj\AppData\Local\Temp\1375610                              PAGE  119

    6270                      .dwattr $C$DW$T$44, DW_AT_type(*$C$DW$T$34)
    6271                      .dwattr $C$DW$T$44, DW_AT_address_class(0x16)
    6272              $C$DW$T$45      .dwtag  DW_TAG_typedef, DW_AT_name("GPIO_Handle")
    6273                      .dwattr $C$DW$T$45, DW_AT_type(*$C$DW$T$44)
    6274                      .dwattr $C$DW$T$45, DW_AT_language(DW_LANG_C)
    6275              $C$DW$717       .dwtag  DW_TAG_TI_far_type
    6276                      .dwattr $C$DW$717, DW_AT_type(*$C$DW$T$45)
    6277              $C$DW$T$116     .dwtag  DW_TAG_const_type
    6278                      .dwattr $C$DW$T$116, DW_AT_type(*$C$DW$717)
    6279              
    6280              $C$DW$T$36      .dwtag  DW_TAG_structure_type
    6281                      .dwattr $C$DW$T$36, DW_AT_name("_LDC1612_CONFIG_t_")
    6282                      .dwattr $C$DW$T$36, DW_AT_byte_size(0x09)
    6283              $C$DW$718       .dwtag  DW_TAG_member
    6284                      .dwattr $C$DW$718, DW_AT_type(*$C$DW$T$35)
    6285                      .dwattr $C$DW$718, DW_AT_name("ACTIVE_CHAN_0")
    6286                      .dwattr $C$DW$718, DW_AT_TI_symbol_name("_ACTIVE_CHAN_0")
    6287                      .dwattr $C$DW$718, DW_AT_data_member_location[DW_OP_plus_uconst 0x0]
    6288                      .dwattr $C$DW$718, DW_AT_accessibility(DW_ACCESS_public)
    6289              $C$DW$719       .dwtag  DW_TAG_member
    6290                      .dwattr $C$DW$719, DW_AT_type(*$C$DW$T$35)
    6291                      .dwattr $C$DW$719, DW_AT_name("ACTIVE_CHAN_1")
    6292                      .dwattr $C$DW$719, DW_AT_TI_symbol_name("_ACTIVE_CHAN_1")
    6293                      .dwattr $C$DW$719, DW_AT_data_member_location[DW_OP_plus_uconst 0x1]
    6294                      .dwattr $C$DW$719, DW_AT_accessibility(DW_ACCESS_public)
    6295              $C$DW$720       .dwtag  DW_TAG_member
    6296                      .dwattr $C$DW$720, DW_AT_type(*$C$DW$T$35)
    6297                      .dwattr $C$DW$720, DW_AT_name("SLEEP_MODE_EN")
    6298                      .dwattr $C$DW$720, DW_AT_TI_symbol_name("_SLEEP_MODE_EN")
    6299                      .dwattr $C$DW$720, DW_AT_data_member_location[DW_OP_plus_uconst 0x2]
    6300                      .dwattr $C$DW$720, DW_AT_accessibility(DW_ACCESS_public)
    6301              $C$DW$721       .dwtag  DW_TAG_member
    6302                      .dwattr $C$DW$721, DW_AT_type(*$C$DW$T$35)
    6303                      .dwattr $C$DW$721, DW_AT_name("RP_OVERRIDE_EN")
    6304                      .dwattr $C$DW$721, DW_AT_TI_symbol_name("_RP_OVERRIDE_EN")
    6305                      .dwattr $C$DW$721, DW_AT_data_member_location[DW_OP_plus_uconst 0x3]
    6306                      .dwattr $C$DW$721, DW_AT_accessibility(DW_ACCESS_public)
    6307              $C$DW$722       .dwtag  DW_TAG_member
    6308                      .dwattr $C$DW$722, DW_AT_type(*$C$DW$T$35)
    6309                      .dwattr $C$DW$722, DW_AT_name("SENSOR_ACTV_SEL")
    6310                      .dwattr $C$DW$722, DW_AT_TI_symbol_name("_SENSOR_ACTV_SEL")
    6311                      .dwattr $C$DW$722, DW_AT_data_member_location[DW_OP_plus_uconst 0x4]
    6312                      .dwattr $C$DW$722, DW_AT_accessibility(DW_ACCESS_public)
    6313              $C$DW$723       .dwtag  DW_TAG_member
    6314                      .dwattr $C$DW$723, DW_AT_type(*$C$DW$T$35)
    6315                      .dwattr $C$DW$723, DW_AT_name("AUTO_AMP_DIS")
    6316                      .dwattr $C$DW$723, DW_AT_TI_symbol_name("_AUTO_AMP_DIS")
    6317                      .dwattr $C$DW$723, DW_AT_data_member_location[DW_OP_plus_uconst 0x5]
    6318                      .dwattr $C$DW$723, DW_AT_accessibility(DW_ACCESS_public)
    6319              $C$DW$724       .dwtag  DW_TAG_member
    6320                      .dwattr $C$DW$724, DW_AT_type(*$C$DW$T$35)
    6321                      .dwattr $C$DW$724, DW_AT_name("REF_CLK_SRC")
    6322                      .dwattr $C$DW$724, DW_AT_TI_symbol_name("_REF_CLK_SRC")
    6323                      .dwattr $C$DW$724, DW_AT_data_member_location[DW_OP_plus_uconst 0x6]
    6324                      .dwattr $C$DW$724, DW_AT_accessibility(DW_ACCESS_public)
TMS320C2000 Assembler PC v6.2.5 Mon Jul 10 09:53:39 2017

Tools Copyright (c) 1996-2014 Texas Instruments Incorporated
C:\Users\wmj\AppData\Local\Temp\1375610                              PAGE  120

    6325              $C$DW$725       .dwtag  DW_TAG_member
    6326                      .dwattr $C$DW$725, DW_AT_type(*$C$DW$T$35)
    6327                      .dwattr $C$DW$725, DW_AT_name("INTB_DIS")
    6328                      .dwattr $C$DW$725, DW_AT_TI_symbol_name("_INTB_DIS")
    6329                      .dwattr $C$DW$725, DW_AT_data_member_location[DW_OP_plus_uconst 0x7]
    6330                      .dwattr $C$DW$725, DW_AT_accessibility(DW_ACCESS_public)
    6331              $C$DW$726       .dwtag  DW_TAG_member
    6332                      .dwattr $C$DW$726, DW_AT_type(*$C$DW$T$35)
    6333                      .dwattr $C$DW$726, DW_AT_name("HIGH_CURRENT_DRV")
    6334                      .dwattr $C$DW$726, DW_AT_TI_symbol_name("_HIGH_CURRENT_DRV")
    6335                      .dwattr $C$DW$726, DW_AT_data_member_location[DW_OP_plus_uconst 0x8]
    6336                      .dwattr $C$DW$726, DW_AT_accessibility(DW_ACCESS_public)
    6337                      .dwendtag $C$DW$T$36
    6338              
    6339              $C$DW$T$58      .dwtag  DW_TAG_typedef, DW_AT_name("LDC1612_CONFIG_t_")
    6340                      .dwattr $C$DW$T$58, DW_AT_type(*$C$DW$T$36)
    6341                      .dwattr $C$DW$T$58, DW_AT_language(DW_LANG_C)
    6342              
    6343              $C$DW$T$38      .dwtag  DW_TAG_structure_type
    6344                      .dwattr $C$DW$T$38, DW_AT_name("_LDC161x_CLK_DIVS_t_")
    6345                      .dwattr $C$DW$T$38, DW_AT_byte_size(0x08)
    6346              $C$DW$727       .dwtag  DW_TAG_member
    6347                      .dwattr $C$DW$727, DW_AT_type(*$C$DW$T$37)
    6348                      .dwattr $C$DW$727, DW_AT_name("CLK_DIVS_CH0")
    6349                      .dwattr $C$DW$727, DW_AT_TI_symbol_name("_CLK_DIVS_CH0")
    6350                      .dwattr $C$DW$727, DW_AT_data_member_location[DW_OP_plus_uconst 0x0]
    6351                      .dwattr $C$DW$727, DW_AT_accessibility(DW_ACCESS_public)
    6352              $C$DW$728       .dwtag  DW_TAG_member
    6353                      .dwattr $C$DW$728, DW_AT_type(*$C$DW$T$37)
    6354                      .dwattr $C$DW$728, DW_AT_name("CLK_DIVS_CH1")
    6355                      .dwattr $C$DW$728, DW_AT_TI_symbol_name("_CLK_DIVS_CH1")
    6356                      .dwattr $C$DW$728, DW_AT_data_member_location[DW_OP_plus_uconst 0x2]
    6357                      .dwattr $C$DW$728, DW_AT_accessibility(DW_ACCESS_public)
    6358              $C$DW$729       .dwtag  DW_TAG_member
    6359                      .dwattr $C$DW$729, DW_AT_type(*$C$DW$T$37)
    6360                      .dwattr $C$DW$729, DW_AT_name("CLK_DIVS_CH2")
    6361                      .dwattr $C$DW$729, DW_AT_TI_symbol_name("_CLK_DIVS_CH2")
    6362                      .dwattr $C$DW$729, DW_AT_data_member_location[DW_OP_plus_uconst 0x4]
    6363                      .dwattr $C$DW$729, DW_AT_accessibility(DW_ACCESS_public)
    6364              $C$DW$730       .dwtag  DW_TAG_member
    6365                      .dwattr $C$DW$730, DW_AT_type(*$C$DW$T$37)
    6366                      .dwattr $C$DW$730, DW_AT_name("CLK_DIVS_CH3")
    6367                      .dwattr $C$DW$730, DW_AT_TI_symbol_name("_CLK_DIVS_CH3")
    6368                      .dwattr $C$DW$730, DW_AT_data_member_location[DW_OP_plus_uconst 0x6]
    6369                      .dwattr $C$DW$730, DW_AT_accessibility(DW_ACCESS_public)
    6370                      .dwendtag $C$DW$T$38
    6371              
    6372              $C$DW$T$55      .dwtag  DW_TAG_typedef, DW_AT_name("LDC161x_CLK_DIVS_t_")
    6373                      .dwattr $C$DW$T$55, DW_AT_type(*$C$DW$T$38)
    6374                      .dwattr $C$DW$T$55, DW_AT_language(DW_LANG_C)
    6375              
    6376              $C$DW$T$39      .dwtag  DW_TAG_structure_type
    6377                      .dwattr $C$DW$T$39, DW_AT_name("_LDC161x_ERROR_CONFIG_t_")
    6378                      .dwattr $C$DW$T$39, DW_AT_byte_size(0x0c)
    6379              $C$DW$731       .dwtag  DW_TAG_member
TMS320C2000 Assembler PC v6.2.5 Mon Jul 10 09:53:39 2017

Tools Copyright (c) 1996-2014 Texas Instruments Incorporated
C:\Users\wmj\AppData\Local\Temp\1375610                              PAGE  121

    6380                      .dwattr $C$DW$731, DW_AT_type(*$C$DW$T$35)
    6381                      .dwattr $C$DW$731, DW_AT_name("UR_ERR2OUT")
    6382                      .dwattr $C$DW$731, DW_AT_TI_symbol_name("_UR_ERR2OUT")
    6383                      .dwattr $C$DW$731, DW_AT_data_member_location[DW_OP_plus_uconst 0x0]
    6384                      .dwattr $C$DW$731, DW_AT_accessibility(DW_ACCESS_public)
    6385              $C$DW$732       .dwtag  DW_TAG_member
    6386                      .dwattr $C$DW$732, DW_AT_type(*$C$DW$T$35)
    6387                      .dwattr $C$DW$732, DW_AT_name("OR_ERR2OUT")
    6388                      .dwattr $C$DW$732, DW_AT_TI_symbol_name("_OR_ERR2OUT")
    6389                      .dwattr $C$DW$732, DW_AT_data_member_location[DW_OP_plus_uconst 0x1]
    6390                      .dwattr $C$DW$732, DW_AT_accessibility(DW_ACCESS_public)
    6391              $C$DW$733       .dwtag  DW_TAG_member
    6392                      .dwattr $C$DW$733, DW_AT_type(*$C$DW$T$35)
    6393                      .dwattr $C$DW$733, DW_AT_name("WD_ERR2OUT")
    6394                      .dwattr $C$DW$733, DW_AT_TI_symbol_name("_WD_ERR2OUT")
    6395                      .dwattr $C$DW$733, DW_AT_data_member_location[DW_OP_plus_uconst 0x2]
    6396                      .dwattr $C$DW$733, DW_AT_accessibility(DW_ACCESS_public)
    6397              $C$DW$734       .dwtag  DW_TAG_member
    6398                      .dwattr $C$DW$734, DW_AT_type(*$C$DW$T$35)
    6399                      .dwattr $C$DW$734, DW_AT_name("AH_ERR2OUT")
    6400                      .dwattr $C$DW$734, DW_AT_TI_symbol_name("_AH_ERR2OUT")
    6401                      .dwattr $C$DW$734, DW_AT_data_member_location[DW_OP_plus_uconst 0x3]
    6402                      .dwattr $C$DW$734, DW_AT_accessibility(DW_ACCESS_public)
    6403              $C$DW$735       .dwtag  DW_TAG_member
    6404                      .dwattr $C$DW$735, DW_AT_type(*$C$DW$T$35)
    6405                      .dwattr $C$DW$735, DW_AT_name("AL_ERR2OUT")
    6406                      .dwattr $C$DW$735, DW_AT_TI_symbol_name("_AL_ERR2OUT")
    6407                      .dwattr $C$DW$735, DW_AT_data_member_location[DW_OP_plus_uconst 0x4]
    6408                      .dwattr $C$DW$735, DW_AT_accessibility(DW_ACCESS_public)
    6409              $C$DW$736       .dwtag  DW_TAG_member
    6410                      .dwattr $C$DW$736, DW_AT_type(*$C$DW$T$35)
    6411                      .dwattr $C$DW$736, DW_AT_name("UR_ERR2INT")
    6412                      .dwattr $C$DW$736, DW_AT_TI_symbol_name("_UR_ERR2INT")
    6413                      .dwattr $C$DW$736, DW_AT_data_member_location[DW_OP_plus_uconst 0x5]
    6414                      .dwattr $C$DW$736, DW_AT_accessibility(DW_ACCESS_public)
    6415              $C$DW$737       .dwtag  DW_TAG_member
    6416                      .dwattr $C$DW$737, DW_AT_type(*$C$DW$T$35)
    6417                      .dwattr $C$DW$737, DW_AT_name("OR_ERR2INT")
    6418                      .dwattr $C$DW$737, DW_AT_TI_symbol_name("_OR_ERR2INT")
    6419                      .dwattr $C$DW$737, DW_AT_data_member_location[DW_OP_plus_uconst 0x6]
    6420                      .dwattr $C$DW$737, DW_AT_accessibility(DW_ACCESS_public)
    6421              $C$DW$738       .dwtag  DW_TAG_member
    6422                      .dwattr $C$DW$738, DW_AT_type(*$C$DW$T$35)
    6423                      .dwattr $C$DW$738, DW_AT_name("WD_ERR2INT")
    6424                      .dwattr $C$DW$738, DW_AT_TI_symbol_name("_WD_ERR2INT")
    6425                      .dwattr $C$DW$738, DW_AT_data_member_location[DW_OP_plus_uconst 0x7]
    6426                      .dwattr $C$DW$738, DW_AT_accessibility(DW_ACCESS_public)
    6427              $C$DW$739       .dwtag  DW_TAG_member
    6428                      .dwattr $C$DW$739, DW_AT_type(*$C$DW$T$35)
    6429                      .dwattr $C$DW$739, DW_AT_name("AH_ERR2INT")
    6430                      .dwattr $C$DW$739, DW_AT_TI_symbol_name("_AH_ERR2INT")
    6431                      .dwattr $C$DW$739, DW_AT_data_member_location[DW_OP_plus_uconst 0x8]
    6432                      .dwattr $C$DW$739, DW_AT_accessibility(DW_ACCESS_public)
    6433              $C$DW$740       .dwtag  DW_TAG_member
    6434                      .dwattr $C$DW$740, DW_AT_type(*$C$DW$T$35)
TMS320C2000 Assembler PC v6.2.5 Mon Jul 10 09:53:39 2017

Tools Copyright (c) 1996-2014 Texas Instruments Incorporated
C:\Users\wmj\AppData\Local\Temp\1375610                              PAGE  122

    6435                      .dwattr $C$DW$740, DW_AT_name("AL_ERR2INT")
    6436                      .dwattr $C$DW$740, DW_AT_TI_symbol_name("_AL_ERR2INT")
    6437                      .dwattr $C$DW$740, DW_AT_data_member_location[DW_OP_plus_uconst 0x9]
    6438                      .dwattr $C$DW$740, DW_AT_accessibility(DW_ACCESS_public)
    6439              $C$DW$741       .dwtag  DW_TAG_member
    6440                      .dwattr $C$DW$741, DW_AT_type(*$C$DW$T$35)
    6441                      .dwattr $C$DW$741, DW_AT_name("ZC_ERR2INT")
    6442                      .dwattr $C$DW$741, DW_AT_TI_symbol_name("_ZC_ERR2INT")
    6443                      .dwattr $C$DW$741, DW_AT_data_member_location[DW_OP_plus_uconst 0xa]
    6444                      .dwattr $C$DW$741, DW_AT_accessibility(DW_ACCESS_public)
    6445              $C$DW$742       .dwtag  DW_TAG_member
    6446                      .dwattr $C$DW$742, DW_AT_type(*$C$DW$T$35)
    6447                      .dwattr $C$DW$742, DW_AT_name("DRDY_2INT")
    6448                      .dwattr $C$DW$742, DW_AT_TI_symbol_name("_DRDY_2INT")
    6449                      .dwattr $C$DW$742, DW_AT_data_member_location[DW_OP_plus_uconst 0xb]
    6450                      .dwattr $C$DW$742, DW_AT_accessibility(DW_ACCESS_public)
    6451                      .dwendtag $C$DW$T$39
    6452              
    6453              $C$DW$T$57      .dwtag  DW_TAG_typedef, DW_AT_name("LDC161x_ERROR_CONFIG_t_")
    6454                      .dwattr $C$DW$T$57, DW_AT_type(*$C$DW$T$39)
    6455                      .dwattr $C$DW$T$57, DW_AT_language(DW_LANG_C)
    6456              
    6457              $C$DW$T$40      .dwtag  DW_TAG_structure_type
    6458                      .dwattr $C$DW$T$40, DW_AT_name("_LDC161x_MUX_CONFIG_t_")
    6459                      .dwattr $C$DW$T$40, DW_AT_byte_size(0x06)
    6460              $C$DW$743       .dwtag  DW_TAG_member
    6461                      .dwattr $C$DW$743, DW_AT_type(*$C$DW$T$35)
    6462                      .dwattr $C$DW$743, DW_AT_name("AUTOSCAN_EN")
    6463                      .dwattr $C$DW$743, DW_AT_TI_symbol_name("_AUTOSCAN_EN")
    6464                      .dwattr $C$DW$743, DW_AT_data_member_location[DW_OP_plus_uconst 0x0]
    6465                      .dwattr $C$DW$743, DW_AT_accessibility(DW_ACCESS_public)
    6466              $C$DW$744       .dwtag  DW_TAG_member
    6467                      .dwattr $C$DW$744, DW_AT_type(*$C$DW$T$35)
    6468                      .dwattr $C$DW$744, DW_AT_name("RR_SEQUENCE_0")
    6469                      .dwattr $C$DW$744, DW_AT_TI_symbol_name("_RR_SEQUENCE_0")
    6470                      .dwattr $C$DW$744, DW_AT_data_member_location[DW_OP_plus_uconst 0x1]
    6471                      .dwattr $C$DW$744, DW_AT_accessibility(DW_ACCESS_public)
    6472              $C$DW$745       .dwtag  DW_TAG_member
    6473                      .dwattr $C$DW$745, DW_AT_type(*$C$DW$T$35)
    6474                      .dwattr $C$DW$745, DW_AT_name("RR_SEQUENCE_1")
    6475                      .dwattr $C$DW$745, DW_AT_TI_symbol_name("_RR_SEQUENCE_1")
    6476                      .dwattr $C$DW$745, DW_AT_data_member_location[DW_OP_plus_uconst 0x2]
    6477                      .dwattr $C$DW$745, DW_AT_accessibility(DW_ACCESS_public)
    6478              $C$DW$746       .dwtag  DW_TAG_member
    6479                      .dwattr $C$DW$746, DW_AT_type(*$C$DW$T$35)
    6480                      .dwattr $C$DW$746, DW_AT_name("DEGLITCH_0")
    6481                      .dwattr $C$DW$746, DW_AT_TI_symbol_name("_DEGLITCH_0")
    6482                      .dwattr $C$DW$746, DW_AT_data_member_location[DW_OP_plus_uconst 0x3]
    6483                      .dwattr $C$DW$746, DW_AT_accessibility(DW_ACCESS_public)
    6484              $C$DW$747       .dwtag  DW_TAG_member
    6485                      .dwattr $C$DW$747, DW_AT_type(*$C$DW$T$35)
    6486                      .dwattr $C$DW$747, DW_AT_name("DEGLITCH_1")
    6487                      .dwattr $C$DW$747, DW_AT_TI_symbol_name("_DEGLITCH_1")
    6488                      .dwattr $C$DW$747, DW_AT_data_member_location[DW_OP_plus_uconst 0x4]
    6489                      .dwattr $C$DW$747, DW_AT_accessibility(DW_ACCESS_public)
TMS320C2000 Assembler PC v6.2.5 Mon Jul 10 09:53:39 2017

Tools Copyright (c) 1996-2014 Texas Instruments Incorporated
C:\Users\wmj\AppData\Local\Temp\1375610                              PAGE  123

    6490              $C$DW$748       .dwtag  DW_TAG_member
    6491                      .dwattr $C$DW$748, DW_AT_type(*$C$DW$T$35)
    6492                      .dwattr $C$DW$748, DW_AT_name("DEGLITCH_2")
    6493                      .dwattr $C$DW$748, DW_AT_TI_symbol_name("_DEGLITCH_2")
    6494                      .dwattr $C$DW$748, DW_AT_data_member_location[DW_OP_plus_uconst 0x5]
    6495                      .dwattr $C$DW$748, DW_AT_accessibility(DW_ACCESS_public)
    6496                      .dwendtag $C$DW$T$40
    6497              
    6498              $C$DW$T$59      .dwtag  DW_TAG_typedef, DW_AT_name("LDC161x_MUX_CONFIG_t_")
    6499                      .dwattr $C$DW$T$59, DW_AT_type(*$C$DW$T$40)
    6500                      .dwattr $C$DW$T$59, DW_AT_language(DW_LANG_C)
    6501              
    6502              $C$DW$T$41      .dwtag  DW_TAG_structure_type
    6503                      .dwattr $C$DW$T$41, DW_AT_name("_LDC161x_OFFSET_t_")
    6504                      .dwattr $C$DW$T$41, DW_AT_byte_size(0x04)
    6505              $C$DW$749       .dwtag  DW_TAG_member
    6506                      .dwattr $C$DW$749, DW_AT_type(*$C$DW$T$21)
    6507                      .dwattr $C$DW$749, DW_AT_name("OFFSET_CH0")
    6508                      .dwattr $C$DW$749, DW_AT_TI_symbol_name("_OFFSET_CH0")
    6509                      .dwattr $C$DW$749, DW_AT_data_member_location[DW_OP_plus_uconst 0x0]
    6510                      .dwattr $C$DW$749, DW_AT_accessibility(DW_ACCESS_public)
    6511              $C$DW$750       .dwtag  DW_TAG_member
    6512                      .dwattr $C$DW$750, DW_AT_type(*$C$DW$T$21)
    6513                      .dwattr $C$DW$750, DW_AT_name("OFFSET_CH1")
    6514                      .dwattr $C$DW$750, DW_AT_TI_symbol_name("_OFFSET_CH1")
    6515                      .dwattr $C$DW$750, DW_AT_data_member_location[DW_OP_plus_uconst 0x1]
    6516                      .dwattr $C$DW$750, DW_AT_accessibility(DW_ACCESS_public)
    6517              $C$DW$751       .dwtag  DW_TAG_member
    6518                      .dwattr $C$DW$751, DW_AT_type(*$C$DW$T$21)
    6519                      .dwattr $C$DW$751, DW_AT_name("OFFSET_CH2")
    6520                      .dwattr $C$DW$751, DW_AT_TI_symbol_name("_OFFSET_CH2")
    6521                      .dwattr $C$DW$751, DW_AT_data_member_location[DW_OP_plus_uconst 0x2]
    6522                      .dwattr $C$DW$751, DW_AT_accessibility(DW_ACCESS_public)
    6523              $C$DW$752       .dwtag  DW_TAG_member
    6524                      .dwattr $C$DW$752, DW_AT_type(*$C$DW$T$21)
    6525                      .dwattr $C$DW$752, DW_AT_name("OFFSET_CH3")
    6526                      .dwattr $C$DW$752, DW_AT_TI_symbol_name("_OFFSET_CH3")
    6527                      .dwattr $C$DW$752, DW_AT_data_member_location[DW_OP_plus_uconst 0x3]
    6528                      .dwattr $C$DW$752, DW_AT_accessibility(DW_ACCESS_public)
    6529                      .dwendtag $C$DW$T$41
    6530              
    6531              $C$DW$T$53      .dwtag  DW_TAG_typedef, DW_AT_name("LDC161x_OFFSET_t_")
    6532                      .dwattr $C$DW$T$53, DW_AT_type(*$C$DW$T$41)
    6533                      .dwattr $C$DW$T$53, DW_AT_language(DW_LANG_C)
    6534              
    6535              $C$DW$T$49      .dwtag  DW_TAG_structure_type
    6536                      .dwattr $C$DW$T$49, DW_AT_name("_LDC161x_Obj_")
    6537                      .dwattr $C$DW$T$49, DW_AT_byte_size(0x60)
    6538              $C$DW$753       .dwtag  DW_TAG_member
    6539                      .dwattr $C$DW$753, DW_AT_type(*$C$DW$T$43)
    6540                      .dwattr $C$DW$753, DW_AT_name("i2cHandle")
    6541                      .dwattr $C$DW$753, DW_AT_TI_symbol_name("_i2cHandle")
    6542                      .dwattr $C$DW$753, DW_AT_data_member_location[DW_OP_plus_uconst 0x0]
    6543                      .dwattr $C$DW$753, DW_AT_accessibility(DW_ACCESS_public)
    6544              $C$DW$754       .dwtag  DW_TAG_member
TMS320C2000 Assembler PC v6.2.5 Mon Jul 10 09:53:39 2017

Tools Copyright (c) 1996-2014 Texas Instruments Incorporated
C:\Users\wmj\AppData\Local\Temp\1375610                              PAGE  124

    6545                      .dwattr $C$DW$754, DW_AT_type(*$C$DW$T$45)
    6546                      .dwattr $C$DW$754, DW_AT_name("gpioHandle")
    6547                      .dwattr $C$DW$754, DW_AT_TI_symbol_name("_gpioHandle")
    6548                      .dwattr $C$DW$754, DW_AT_data_member_location[DW_OP_plus_uconst 0x2]
    6549                      .dwattr $C$DW$754, DW_AT_accessibility(DW_ACCESS_public)
    6550              $C$DW$755       .dwtag  DW_TAG_member
    6551                      .dwattr $C$DW$755, DW_AT_type(*$C$DW$T$47)
    6552                      .dwattr $C$DW$755, DW_AT_name("ldcHandle")
    6553                      .dwattr $C$DW$755, DW_AT_TI_symbol_name("_ldcHandle")
    6554                      .dwattr $C$DW$755, DW_AT_data_member_location[DW_OP_plus_uconst 0x4]
    6555                      .dwattr $C$DW$755, DW_AT_accessibility(DW_ACCESS_public)
    6556              $C$DW$756       .dwtag  DW_TAG_member
    6557                      .dwattr $C$DW$756, DW_AT_type(*$C$DW$T$48)
    6558                      .dwattr $C$DW$756, DW_AT_name("ldc161x")
    6559                      .dwattr $C$DW$756, DW_AT_TI_symbol_name("_ldc161x")
    6560                      .dwattr $C$DW$756, DW_AT_data_member_location[DW_OP_plus_uconst 0x6]
    6561                      .dwattr $C$DW$756, DW_AT_accessibility(DW_ACCESS_public)
    6562              $C$DW$757       .dwtag  DW_TAG_member
    6563                      .dwattr $C$DW$757, DW_AT_type(*$C$DW$T$35)
    6564                      .dwattr $C$DW$757, DW_AT_name("RxTimeOut")
    6565                      .dwattr $C$DW$757, DW_AT_TI_symbol_name("_RxTimeOut")
    6566                      .dwattr $C$DW$757, DW_AT_data_member_location[DW_OP_plus_uconst 0x5e]
    6567                      .dwattr $C$DW$757, DW_AT_accessibility(DW_ACCESS_public)
    6568              $C$DW$758       .dwtag  DW_TAG_member
    6569                      .dwattr $C$DW$758, DW_AT_type(*$C$DW$T$35)
    6570                      .dwattr $C$DW$758, DW_AT_name("TxTimeOut")
    6571                      .dwattr $C$DW$758, DW_AT_TI_symbol_name("_TxTimeOut")
    6572                      .dwattr $C$DW$758, DW_AT_data_member_location[DW_OP_plus_uconst 0x5f]
    6573                      .dwattr $C$DW$758, DW_AT_accessibility(DW_ACCESS_public)
    6574                      .dwendtag $C$DW$T$49
    6575              
    6576              $C$DW$T$118     .dwtag  DW_TAG_typedef, DW_AT_name("LDC161x_Obj")
    6577                      .dwattr $C$DW$T$118, DW_AT_type(*$C$DW$T$49)
    6578                      .dwattr $C$DW$T$118, DW_AT_language(DW_LANG_C)
    6579              $C$DW$T$119     .dwtag  DW_TAG_pointer_type
    6580                      .dwattr $C$DW$T$119, DW_AT_type(*$C$DW$T$49)
    6581                      .dwattr $C$DW$T$119, DW_AT_address_class(0x16)
    6582              $C$DW$T$120     .dwtag  DW_TAG_typedef, DW_AT_name("LDC161x_Handle")
    6583                      .dwattr $C$DW$T$120, DW_AT_type(*$C$DW$T$119)
    6584                      .dwattr $C$DW$T$120, DW_AT_language(DW_LANG_C)
    6585              $C$DW$759       .dwtag  DW_TAG_TI_far_type
    6586                      .dwattr $C$DW$759, DW_AT_type(*$C$DW$T$120)
    6587              $C$DW$T$121     .dwtag  DW_TAG_const_type
    6588                      .dwattr $C$DW$T$121, DW_AT_type(*$C$DW$759)
    6589              
    6590              $C$DW$T$50      .dwtag  DW_TAG_structure_type
    6591                      .dwattr $C$DW$T$50, DW_AT_name("_LDC161x_RCOUNT_t_")
    6592                      .dwattr $C$DW$T$50, DW_AT_byte_size(0x04)
    6593              $C$DW$760       .dwtag  DW_TAG_member
    6594                      .dwattr $C$DW$760, DW_AT_type(*$C$DW$T$21)
    6595                      .dwattr $C$DW$760, DW_AT_name("RCOUNT_CH0")
    6596                      .dwattr $C$DW$760, DW_AT_TI_symbol_name("_RCOUNT_CH0")
    6597                      .dwattr $C$DW$760, DW_AT_data_member_location[DW_OP_plus_uconst 0x0]
    6598                      .dwattr $C$DW$760, DW_AT_accessibility(DW_ACCESS_public)
    6599              $C$DW$761       .dwtag  DW_TAG_member
TMS320C2000 Assembler PC v6.2.5 Mon Jul 10 09:53:39 2017

Tools Copyright (c) 1996-2014 Texas Instruments Incorporated
C:\Users\wmj\AppData\Local\Temp\1375610                              PAGE  125

    6600                      .dwattr $C$DW$761, DW_AT_type(*$C$DW$T$21)
    6601                      .dwattr $C$DW$761, DW_AT_name("RCOUNT_CH1")
    6602                      .dwattr $C$DW$761, DW_AT_TI_symbol_name("_RCOUNT_CH1")
    6603                      .dwattr $C$DW$761, DW_AT_data_member_location[DW_OP_plus_uconst 0x1]
    6604                      .dwattr $C$DW$761, DW_AT_accessibility(DW_ACCESS_public)
    6605              $C$DW$762       .dwtag  DW_TAG_member
    6606                      .dwattr $C$DW$762, DW_AT_type(*$C$DW$T$21)
    6607                      .dwattr $C$DW$762, DW_AT_name("RCOUNT_CH2")
    6608                      .dwattr $C$DW$762, DW_AT_TI_symbol_name("_RCOUNT_CH2")
    6609                      .dwattr $C$DW$762, DW_AT_data_member_location[DW_OP_plus_uconst 0x2]
    6610                      .dwattr $C$DW$762, DW_AT_accessibility(DW_ACCESS_public)
    6611              $C$DW$763       .dwtag  DW_TAG_member
    6612                      .dwattr $C$DW$763, DW_AT_type(*$C$DW$T$21)
    6613                      .dwattr $C$DW$763, DW_AT_name("RCOUNT_CH3")
    6614                      .dwattr $C$DW$763, DW_AT_TI_symbol_name("_RCOUNT_CH3")
    6615                      .dwattr $C$DW$763, DW_AT_data_member_location[DW_OP_plus_uconst 0x3]
    6616                      .dwattr $C$DW$763, DW_AT_accessibility(DW_ACCESS_public)
    6617                      .dwendtag $C$DW$T$50
    6618              
    6619              $C$DW$T$52      .dwtag  DW_TAG_typedef, DW_AT_name("LDC161x_RCOUNT_t_")
    6620                      .dwattr $C$DW$T$52, DW_AT_type(*$C$DW$T$50)
    6621                      .dwattr $C$DW$T$52, DW_AT_language(DW_LANG_C)
    6622              
    6623              $C$DW$T$65      .dwtag  DW_TAG_structure_type
    6624                      .dwattr $C$DW$T$65, DW_AT_name("_LDC161x_REG_Obj_")
    6625                      .dwattr $C$DW$T$65, DW_AT_byte_size(0x58)
    6626              $C$DW$764       .dwtag  DW_TAG_member
    6627                      .dwattr $C$DW$764, DW_AT_type(*$C$DW$T$51)
    6628                      .dwattr $C$DW$764, DW_AT_name("LdcChData")
    6629                      .dwattr $C$DW$764, DW_AT_TI_symbol_name("_LdcChData")
    6630                      .dwattr $C$DW$764, DW_AT_data_member_location[DW_OP_plus_uconst 0x0]
    6631                      .dwattr $C$DW$764, DW_AT_accessibility(DW_ACCESS_public)
    6632              $C$DW$765       .dwtag  DW_TAG_member
    6633                      .dwattr $C$DW$765, DW_AT_type(*$C$DW$T$52)
    6634                      .dwattr $C$DW$765, DW_AT_name("LdcRcount")
    6635                      .dwattr $C$DW$765, DW_AT_TI_symbol_name("_LdcRcount")
    6636                      .dwattr $C$DW$765, DW_AT_data_member_location[DW_OP_plus_uconst 0x18]
    6637                      .dwattr $C$DW$765, DW_AT_accessibility(DW_ACCESS_public)
    6638              $C$DW$766       .dwtag  DW_TAG_member
    6639                      .dwattr $C$DW$766, DW_AT_type(*$C$DW$T$53)
    6640                      .dwattr $C$DW$766, DW_AT_name("LdcOffset")
    6641                      .dwattr $C$DW$766, DW_AT_TI_symbol_name("_LdcOffset")
    6642                      .dwattr $C$DW$766, DW_AT_data_member_location[DW_OP_plus_uconst 0x1c]
    6643                      .dwattr $C$DW$766, DW_AT_accessibility(DW_ACCESS_public)
    6644              $C$DW$767       .dwtag  DW_TAG_member
    6645                      .dwattr $C$DW$767, DW_AT_type(*$C$DW$T$54)
    6646                      .dwattr $C$DW$767, DW_AT_name("LdcSettleCnt")
    6647                      .dwattr $C$DW$767, DW_AT_TI_symbol_name("_LdcSettleCnt")
    6648                      .dwattr $C$DW$767, DW_AT_data_member_location[DW_OP_plus_uconst 0x20]
    6649                      .dwattr $C$DW$767, DW_AT_accessibility(DW_ACCESS_public)
    6650              $C$DW$768       .dwtag  DW_TAG_member
    6651                      .dwattr $C$DW$768, DW_AT_type(*$C$DW$T$55)
    6652                      .dwattr $C$DW$768, DW_AT_name("LdcClkDiv")
    6653                      .dwattr $C$DW$768, DW_AT_TI_symbol_name("_LdcClkDiv")
    6654                      .dwattr $C$DW$768, DW_AT_data_member_location[DW_OP_plus_uconst 0x24]
TMS320C2000 Assembler PC v6.2.5 Mon Jul 10 09:53:39 2017

Tools Copyright (c) 1996-2014 Texas Instruments Incorporated
C:\Users\wmj\AppData\Local\Temp\1375610                              PAGE  126

    6655                      .dwattr $C$DW$768, DW_AT_accessibility(DW_ACCESS_public)
    6656              $C$DW$769       .dwtag  DW_TAG_member
    6657                      .dwattr $C$DW$769, DW_AT_type(*$C$DW$T$56)
    6658                      .dwattr $C$DW$769, DW_AT_name("LdcStatus")
    6659                      .dwattr $C$DW$769, DW_AT_TI_symbol_name("_LdcStatus")
    6660                      .dwattr $C$DW$769, DW_AT_data_member_location[DW_OP_plus_uconst 0x2c]
    6661                      .dwattr $C$DW$769, DW_AT_accessibility(DW_ACCESS_public)
    6662              $C$DW$770       .dwtag  DW_TAG_member
    6663                      .dwattr $C$DW$770, DW_AT_type(*$C$DW$T$57)
    6664                      .dwattr $C$DW$770, DW_AT_name("LdcError")
    6665                      .dwattr $C$DW$770, DW_AT_TI_symbol_name("_LdcError")
    6666                      .dwattr $C$DW$770, DW_AT_data_member_location[DW_OP_plus_uconst 0x39]
    6667                      .dwattr $C$DW$770, DW_AT_accessibility(DW_ACCESS_public)
    6668              $C$DW$771       .dwtag  DW_TAG_member
    6669                      .dwattr $C$DW$771, DW_AT_type(*$C$DW$T$58)
    6670                      .dwattr $C$DW$771, DW_AT_name("LdcConfig")
    6671                      .dwattr $C$DW$771, DW_AT_TI_symbol_name("_LdcConfig")
    6672                      .dwattr $C$DW$771, DW_AT_data_member_location[DW_OP_plus_uconst 0x45]
    6673                      .dwattr $C$DW$771, DW_AT_accessibility(DW_ACCESS_public)
    6674              $C$DW$772       .dwtag  DW_TAG_member
    6675                      .dwattr $C$DW$772, DW_AT_type(*$C$DW$T$59)
    6676                      .dwattr $C$DW$772, DW_AT_name("LdcMuxConf")
    6677                      .dwattr $C$DW$772, DW_AT_TI_symbol_name("_LdcMuxConf")
    6678                      .dwattr $C$DW$772, DW_AT_data_member_location[DW_OP_plus_uconst 0x4e]
    6679                      .dwattr $C$DW$772, DW_AT_accessibility(DW_ACCESS_public)
    6680              $C$DW$773       .dwtag  DW_TAG_member
    6681                      .dwattr $C$DW$773, DW_AT_type(*$C$DW$T$60)
    6682                      .dwattr $C$DW$773, DW_AT_name("LdcDriveCurrent")
    6683                      .dwattr $C$DW$773, DW_AT_TI_symbol_name("_LdcDriveCurrent")
    6684                      .dwattr $C$DW$773, DW_AT_data_member_location[DW_OP_plus_uconst 0x54]
    6685                      .dwattr $C$DW$773, DW_AT_accessibility(DW_ACCESS_public)
    6686              $C$DW$774       .dwtag  DW_TAG_member
    6687                      .dwattr $C$DW$774, DW_AT_type(*$C$DW$T$62)
    6688                      .dwattr $C$DW$774, DW_AT_name("LdcType")
    6689                      .dwattr $C$DW$774, DW_AT_TI_symbol_name("_LdcType")
    6690                      .dwattr $C$DW$774, DW_AT_data_member_location[DW_OP_plus_uconst 0x56]
    6691                      .dwattr $C$DW$774, DW_AT_accessibility(DW_ACCESS_public)
    6692              $C$DW$775       .dwtag  DW_TAG_member
    6693                      .dwattr $C$DW$775, DW_AT_type(*$C$DW$T$64)
    6694                      .dwattr $C$DW$775, DW_AT_name("LdcSerial")
    6695                      .dwattr $C$DW$775, DW_AT_TI_symbol_name("_LdcSerial")
    6696                      .dwattr $C$DW$775, DW_AT_data_member_location[DW_OP_plus_uconst 0x57]
    6697                      .dwattr $C$DW$775, DW_AT_accessibility(DW_ACCESS_public)
    6698                      .dwendtag $C$DW$T$65
    6699              
    6700              $C$DW$T$48      .dwtag  DW_TAG_typedef, DW_AT_name("LDC161x_REG_Obj")
    6701                      .dwattr $C$DW$T$48, DW_AT_type(*$C$DW$T$65)
    6702                      .dwattr $C$DW$T$48, DW_AT_language(DW_LANG_C)
    6703              $C$DW$T$125     .dwtag  DW_TAG_pointer_type
    6704                      .dwattr $C$DW$T$125, DW_AT_type(*$C$DW$T$48)
    6705                      .dwattr $C$DW$T$125, DW_AT_address_class(0x16)
    6706              
    6707              $C$DW$T$66      .dwtag  DW_TAG_structure_type
    6708                      .dwattr $C$DW$T$66, DW_AT_name("_LDC161x_SETTLECOUNT_t_")
    6709                      .dwattr $C$DW$T$66, DW_AT_byte_size(0x04)
TMS320C2000 Assembler PC v6.2.5 Mon Jul 10 09:53:39 2017

Tools Copyright (c) 1996-2014 Texas Instruments Incorporated
C:\Users\wmj\AppData\Local\Temp\1375610                              PAGE  127

    6710              $C$DW$776       .dwtag  DW_TAG_member
    6711                      .dwattr $C$DW$776, DW_AT_type(*$C$DW$T$21)
    6712                      .dwattr $C$DW$776, DW_AT_name("SETTLECOUNT_CH0")
    6713                      .dwattr $C$DW$776, DW_AT_TI_symbol_name("_SETTLECOUNT_CH0")
    6714                      .dwattr $C$DW$776, DW_AT_data_member_location[DW_OP_plus_uconst 0x0]
    6715                      .dwattr $C$DW$776, DW_AT_accessibility(DW_ACCESS_public)
    6716              $C$DW$777       .dwtag  DW_TAG_member
    6717                      .dwattr $C$DW$777, DW_AT_type(*$C$DW$T$21)
    6718                      .dwattr $C$DW$777, DW_AT_name("SETTLECOUNT_CH1")
    6719                      .dwattr $C$DW$777, DW_AT_TI_symbol_name("_SETTLECOUNT_CH1")
    6720                      .dwattr $C$DW$777, DW_AT_data_member_location[DW_OP_plus_uconst 0x1]
    6721                      .dwattr $C$DW$777, DW_AT_accessibility(DW_ACCESS_public)
    6722              $C$DW$778       .dwtag  DW_TAG_member
    6723                      .dwattr $C$DW$778, DW_AT_type(*$C$DW$T$21)
    6724                      .dwattr $C$DW$778, DW_AT_name("SETTLECOUNT_CH2")
    6725                      .dwattr $C$DW$778, DW_AT_TI_symbol_name("_SETTLECOUNT_CH2")
    6726                      .dwattr $C$DW$778, DW_AT_data_member_location[DW_OP_plus_uconst 0x2]
    6727                      .dwattr $C$DW$778, DW_AT_accessibility(DW_ACCESS_public)
    6728              $C$DW$779       .dwtag  DW_TAG_member
    6729                      .dwattr $C$DW$779, DW_AT_type(*$C$DW$T$21)
    6730                      .dwattr $C$DW$779, DW_AT_name("SETTLECOUNT_CH3")
    6731                      .dwattr $C$DW$779, DW_AT_TI_symbol_name("_SETTLECOUNT_CH3")
    6732                      .dwattr $C$DW$779, DW_AT_data_member_location[DW_OP_plus_uconst 0x3]
    6733                      .dwattr $C$DW$779, DW_AT_accessibility(DW_ACCESS_public)
    6734                      .dwendtag $C$DW$T$66
    6735              
    6736              $C$DW$T$54      .dwtag  DW_TAG_typedef, DW_AT_name("LDC161x_SETTLECOUNT_t_")
    6737                      .dwattr $C$DW$T$54, DW_AT_type(*$C$DW$T$66)
    6738                      .dwattr $C$DW$T$54, DW_AT_language(DW_LANG_C)
    6739              
    6740              $C$DW$T$67      .dwtag  DW_TAG_structure_type
    6741                      .dwattr $C$DW$T$67, DW_AT_name("_LDC161x_STATUS_t_")
    6742                      .dwattr $C$DW$T$67, DW_AT_byte_size(0x0d)
    6743              $C$DW$780       .dwtag  DW_TAG_member
    6744                      .dwattr $C$DW$780, DW_AT_type(*$C$DW$T$35)
    6745                      .dwattr $C$DW$780, DW_AT_name("UNRDCONV_CH3")
    6746                      .dwattr $C$DW$780, DW_AT_TI_symbol_name("_UNRDCONV_CH3")
    6747                      .dwattr $C$DW$780, DW_AT_data_member_location[DW_OP_plus_uconst 0x0]
    6748                      .dwattr $C$DW$780, DW_AT_accessibility(DW_ACCESS_public)
    6749              $C$DW$781       .dwtag  DW_TAG_member
    6750                      .dwattr $C$DW$781, DW_AT_type(*$C$DW$T$35)
    6751                      .dwattr $C$DW$781, DW_AT_name("UNRDCONV_CH2")
    6752                      .dwattr $C$DW$781, DW_AT_TI_symbol_name("_UNRDCONV_CH2")
    6753                      .dwattr $C$DW$781, DW_AT_data_member_location[DW_OP_plus_uconst 0x1]
    6754                      .dwattr $C$DW$781, DW_AT_accessibility(DW_ACCESS_public)
    6755              $C$DW$782       .dwtag  DW_TAG_member
    6756                      .dwattr $C$DW$782, DW_AT_type(*$C$DW$T$35)
    6757                      .dwattr $C$DW$782, DW_AT_name("UNRDCONV_CH1")
    6758                      .dwattr $C$DW$782, DW_AT_TI_symbol_name("_UNRDCONV_CH1")
    6759                      .dwattr $C$DW$782, DW_AT_data_member_location[DW_OP_plus_uconst 0x2]
    6760                      .dwattr $C$DW$782, DW_AT_accessibility(DW_ACCESS_public)
    6761              $C$DW$783       .dwtag  DW_TAG_member
    6762                      .dwattr $C$DW$783, DW_AT_type(*$C$DW$T$35)
    6763                      .dwattr $C$DW$783, DW_AT_name("UNRDCONV_CH0")
    6764                      .dwattr $C$DW$783, DW_AT_TI_symbol_name("_UNRDCONV_CH0")
TMS320C2000 Assembler PC v6.2.5 Mon Jul 10 09:53:39 2017

Tools Copyright (c) 1996-2014 Texas Instruments Incorporated
C:\Users\wmj\AppData\Local\Temp\1375610                              PAGE  128

    6765                      .dwattr $C$DW$783, DW_AT_data_member_location[DW_OP_plus_uconst 0x3]
    6766                      .dwattr $C$DW$783, DW_AT_accessibility(DW_ACCESS_public)
    6767              $C$DW$784       .dwtag  DW_TAG_member
    6768                      .dwattr $C$DW$784, DW_AT_type(*$C$DW$T$35)
    6769                      .dwattr $C$DW$784, DW_AT_name("DRDY")
    6770                      .dwattr $C$DW$784, DW_AT_TI_symbol_name("_DRDY")
    6771                      .dwattr $C$DW$784, DW_AT_data_member_location[DW_OP_plus_uconst 0x4]
    6772                      .dwattr $C$DW$784, DW_AT_accessibility(DW_ACCESS_public)
    6773              $C$DW$785       .dwtag  DW_TAG_member
    6774                      .dwattr $C$DW$785, DW_AT_type(*$C$DW$T$35)
    6775                      .dwattr $C$DW$785, DW_AT_name("ERR_ZC")
    6776                      .dwattr $C$DW$785, DW_AT_TI_symbol_name("_ERR_ZC")
    6777                      .dwattr $C$DW$785, DW_AT_data_member_location[DW_OP_plus_uconst 0x5]
    6778                      .dwattr $C$DW$785, DW_AT_accessibility(DW_ACCESS_public)
    6779              $C$DW$786       .dwtag  DW_TAG_member
    6780                      .dwattr $C$DW$786, DW_AT_type(*$C$DW$T$35)
    6781                      .dwattr $C$DW$786, DW_AT_name("ERR_ALE")
    6782                      .dwattr $C$DW$786, DW_AT_TI_symbol_name("_ERR_ALE")
    6783                      .dwattr $C$DW$786, DW_AT_data_member_location[DW_OP_plus_uconst 0x6]
    6784                      .dwattr $C$DW$786, DW_AT_accessibility(DW_ACCESS_public)
    6785              $C$DW$787       .dwtag  DW_TAG_member
    6786                      .dwattr $C$DW$787, DW_AT_type(*$C$DW$T$35)
    6787                      .dwattr $C$DW$787, DW_AT_name("ERR_AHE")
    6788                      .dwattr $C$DW$787, DW_AT_TI_symbol_name("_ERR_AHE")
    6789                      .dwattr $C$DW$787, DW_AT_data_member_location[DW_OP_plus_uconst 0x7]
    6790                      .dwattr $C$DW$787, DW_AT_accessibility(DW_ACCESS_public)
    6791              $C$DW$788       .dwtag  DW_TAG_member
    6792                      .dwattr $C$DW$788, DW_AT_type(*$C$DW$T$35)
    6793                      .dwattr $C$DW$788, DW_AT_name("ERR_WD")
    6794                      .dwattr $C$DW$788, DW_AT_TI_symbol_name("_ERR_WD")
    6795                      .dwattr $C$DW$788, DW_AT_data_member_location[DW_OP_plus_uconst 0x8]
    6796                      .dwattr $C$DW$788, DW_AT_accessibility(DW_ACCESS_public)
    6797              $C$DW$789       .dwtag  DW_TAG_member
    6798                      .dwattr $C$DW$789, DW_AT_type(*$C$DW$T$35)
    6799                      .dwattr $C$DW$789, DW_AT_name("ERR_OR")
    6800                      .dwattr $C$DW$789, DW_AT_TI_symbol_name("_ERR_OR")
    6801                      .dwattr $C$DW$789, DW_AT_data_member_location[DW_OP_plus_uconst 0x9]
    6802                      .dwattr $C$DW$789, DW_AT_accessibility(DW_ACCESS_public)
    6803              $C$DW$790       .dwtag  DW_TAG_member
    6804                      .dwattr $C$DW$790, DW_AT_type(*$C$DW$T$35)
    6805                      .dwattr $C$DW$790, DW_AT_name("ERR_UR")
    6806                      .dwattr $C$DW$790, DW_AT_TI_symbol_name("_ERR_UR")
    6807                      .dwattr $C$DW$790, DW_AT_data_member_location[DW_OP_plus_uconst 0xa]
    6808                      .dwattr $C$DW$790, DW_AT_accessibility(DW_ACCESS_public)
    6809              $C$DW$791       .dwtag  DW_TAG_member
    6810                      .dwattr $C$DW$791, DW_AT_type(*$C$DW$T$35)
    6811                      .dwattr $C$DW$791, DW_AT_name("ERR_CHAN_0")
    6812                      .dwattr $C$DW$791, DW_AT_TI_symbol_name("_ERR_CHAN_0")
    6813                      .dwattr $C$DW$791, DW_AT_data_member_location[DW_OP_plus_uconst 0xb]
    6814                      .dwattr $C$DW$791, DW_AT_accessibility(DW_ACCESS_public)
    6815              $C$DW$792       .dwtag  DW_TAG_member
    6816                      .dwattr $C$DW$792, DW_AT_type(*$C$DW$T$35)
    6817                      .dwattr $C$DW$792, DW_AT_name("ERR_CHAN_1")
    6818                      .dwattr $C$DW$792, DW_AT_TI_symbol_name("_ERR_CHAN_1")
    6819                      .dwattr $C$DW$792, DW_AT_data_member_location[DW_OP_plus_uconst 0xc]
TMS320C2000 Assembler PC v6.2.5 Mon Jul 10 09:53:39 2017

Tools Copyright (c) 1996-2014 Texas Instruments Incorporated
C:\Users\wmj\AppData\Local\Temp\1375610                              PAGE  129

    6820                      .dwattr $C$DW$792, DW_AT_accessibility(DW_ACCESS_public)
    6821                      .dwendtag $C$DW$T$67
    6822              
    6823              $C$DW$T$56      .dwtag  DW_TAG_typedef, DW_AT_name("LDC161x_STATUS_t_")
    6824                      .dwattr $C$DW$T$56, DW_AT_type(*$C$DW$T$67)
    6825                      .dwattr $C$DW$T$56, DW_AT_language(DW_LANG_C)
    6826              
    6827              $C$DW$T$68      .dwtag  DW_TAG_structure_type
    6828                      .dwattr $C$DW$T$68, DW_AT_name("_LDC_161x_CHDATA_MSB_t_")
    6829                      .dwattr $C$DW$T$68, DW_AT_byte_size(0x05)
    6830              $C$DW$793       .dwtag  DW_TAG_member
    6831                      .dwattr $C$DW$793, DW_AT_type(*$C$DW$T$35)
    6832                      .dwattr $C$DW$793, DW_AT_name("ERR_UR")
    6833                      .dwattr $C$DW$793, DW_AT_TI_symbol_name("_ERR_UR")
    6834                      .dwattr $C$DW$793, DW_AT_data_member_location[DW_OP_plus_uconst 0x0]
    6835                      .dwattr $C$DW$793, DW_AT_accessibility(DW_ACCESS_public)
    6836              $C$DW$794       .dwtag  DW_TAG_member
    6837                      .dwattr $C$DW$794, DW_AT_type(*$C$DW$T$35)
    6838                      .dwattr $C$DW$794, DW_AT_name("ERR_OR")
    6839                      .dwattr $C$DW$794, DW_AT_TI_symbol_name("_ERR_OR")
    6840                      .dwattr $C$DW$794, DW_AT_data_member_location[DW_OP_plus_uconst 0x1]
    6841                      .dwattr $C$DW$794, DW_AT_accessibility(DW_ACCESS_public)
    6842              $C$DW$795       .dwtag  DW_TAG_member
    6843                      .dwattr $C$DW$795, DW_AT_type(*$C$DW$T$35)
    6844                      .dwattr $C$DW$795, DW_AT_name("ERR_WD")
    6845                      .dwattr $C$DW$795, DW_AT_TI_symbol_name("_ERR_WD")
    6846                      .dwattr $C$DW$795, DW_AT_data_member_location[DW_OP_plus_uconst 0x2]
    6847                      .dwattr $C$DW$795, DW_AT_accessibility(DW_ACCESS_public)
    6848              $C$DW$796       .dwtag  DW_TAG_member
    6849                      .dwattr $C$DW$796, DW_AT_type(*$C$DW$T$35)
    6850                      .dwattr $C$DW$796, DW_AT_name("ERR_AE")
    6851                      .dwattr $C$DW$796, DW_AT_TI_symbol_name("_ERR_AE")
    6852                      .dwattr $C$DW$796, DW_AT_data_member_location[DW_OP_plus_uconst 0x3]
    6853                      .dwattr $C$DW$796, DW_AT_accessibility(DW_ACCESS_public)
    6854              $C$DW$797       .dwtag  DW_TAG_member
    6855                      .dwattr $C$DW$797, DW_AT_type(*$C$DW$T$21)
    6856                      .dwattr $C$DW$797, DW_AT_name("DAT_MB")
    6857                      .dwattr $C$DW$797, DW_AT_TI_symbol_name("_DAT_MB")
    6858                      .dwattr $C$DW$797, DW_AT_data_member_location[DW_OP_plus_uconst 0x4]
    6859                      .dwattr $C$DW$797, DW_AT_accessibility(DW_ACCESS_public)
    6860                      .dwendtag $C$DW$T$68
    6861              
    6862              $C$DW$T$69      .dwtag  DW_TAG_typedef, DW_AT_name("LDC_161x_CHDATA_MSB_t_")
    6863                      .dwattr $C$DW$T$69, DW_AT_type(*$C$DW$T$68)
    6864                      .dwattr $C$DW$T$69, DW_AT_language(DW_LANG_C)
    6865              
    6866              $C$DW$T$70      .dwtag  DW_TAG_structure_type
    6867                      .dwattr $C$DW$T$70, DW_AT_name("_LDC_161x_CHDATA_t_")
    6868                      .dwattr $C$DW$T$70, DW_AT_byte_size(0x06)
    6869              $C$DW$798       .dwtag  DW_TAG_member
    6870                      .dwattr $C$DW$798, DW_AT_type(*$C$DW$T$69)
    6871                      .dwattr $C$DW$798, DW_AT_name("MSB")
    6872                      .dwattr $C$DW$798, DW_AT_TI_symbol_name("_MSB")
    6873                      .dwattr $C$DW$798, DW_AT_data_member_location[DW_OP_plus_uconst 0x0]
    6874                      .dwattr $C$DW$798, DW_AT_accessibility(DW_ACCESS_public)
TMS320C2000 Assembler PC v6.2.5 Mon Jul 10 09:53:39 2017

Tools Copyright (c) 1996-2014 Texas Instruments Incorporated
C:\Users\wmj\AppData\Local\Temp\1375610                              PAGE  130

    6875              $C$DW$799       .dwtag  DW_TAG_member
    6876                      .dwattr $C$DW$799, DW_AT_type(*$C$DW$T$21)
    6877                      .dwattr $C$DW$799, DW_AT_name("LSB")
    6878                      .dwattr $C$DW$799, DW_AT_TI_symbol_name("_LSB")
    6879                      .dwattr $C$DW$799, DW_AT_data_member_location[DW_OP_plus_uconst 0x5]
    6880                      .dwattr $C$DW$799, DW_AT_accessibility(DW_ACCESS_public)
    6881                      .dwendtag $C$DW$T$70
    6882              
    6883              $C$DW$T$71      .dwtag  DW_TAG_typedef, DW_AT_name("LDC_161x_CHDATA_t_")
    6884                      .dwattr $C$DW$T$71, DW_AT_type(*$C$DW$T$70)
    6885                      .dwattr $C$DW$T$71, DW_AT_language(DW_LANG_C)
    6886              
    6887              $C$DW$T$72      .dwtag  DW_TAG_structure_type
    6888                      .dwattr $C$DW$T$72, DW_AT_name("_LDC_161x_DATA_t_")
    6889                      .dwattr $C$DW$T$72, DW_AT_byte_size(0x18)
    6890              $C$DW$800       .dwtag  DW_TAG_member
    6891                      .dwattr $C$DW$800, DW_AT_type(*$C$DW$T$71)
    6892                      .dwattr $C$DW$800, DW_AT_name("CH0_DATA")
    6893                      .dwattr $C$DW$800, DW_AT_TI_symbol_name("_CH0_DATA")
    6894                      .dwattr $C$DW$800, DW_AT_data_member_location[DW_OP_plus_uconst 0x0]
    6895                      .dwattr $C$DW$800, DW_AT_accessibility(DW_ACCESS_public)
    6896              $C$DW$801       .dwtag  DW_TAG_member
    6897                      .dwattr $C$DW$801, DW_AT_type(*$C$DW$T$71)
    6898                      .dwattr $C$DW$801, DW_AT_name("CH1_DATA")
    6899                      .dwattr $C$DW$801, DW_AT_TI_symbol_name("_CH1_DATA")
    6900                      .dwattr $C$DW$801, DW_AT_data_member_location[DW_OP_plus_uconst 0x6]
    6901                      .dwattr $C$DW$801, DW_AT_accessibility(DW_ACCESS_public)
    6902              $C$DW$802       .dwtag  DW_TAG_member
    6903                      .dwattr $C$DW$802, DW_AT_type(*$C$DW$T$71)
    6904                      .dwattr $C$DW$802, DW_AT_name("CH2_DATA")
    6905                      .dwattr $C$DW$802, DW_AT_TI_symbol_name("_CH2_DATA")
    6906                      .dwattr $C$DW$802, DW_AT_data_member_location[DW_OP_plus_uconst 0xc]
    6907                      .dwattr $C$DW$802, DW_AT_accessibility(DW_ACCESS_public)
    6908              $C$DW$803       .dwtag  DW_TAG_member
    6909                      .dwattr $C$DW$803, DW_AT_type(*$C$DW$T$71)
    6910                      .dwattr $C$DW$803, DW_AT_name("CH3_DATA")
    6911                      .dwattr $C$DW$803, DW_AT_TI_symbol_name("_CH3_DATA")
    6912                      .dwattr $C$DW$803, DW_AT_data_member_location[DW_OP_plus_uconst 0x12]
    6913                      .dwattr $C$DW$803, DW_AT_accessibility(DW_ACCESS_public)
    6914                      .dwendtag $C$DW$T$72
    6915              
    6916              $C$DW$T$51      .dwtag  DW_TAG_typedef, DW_AT_name("LDC_161x_DATA_t_")
    6917                      .dwattr $C$DW$T$51, DW_AT_type(*$C$DW$T$72)
    6918                      .dwattr $C$DW$T$51, DW_AT_language(DW_LANG_C)
    6919              $C$DW$T$3       .dwtag  DW_TAG_pointer_type
    6920                      .dwattr $C$DW$T$3, DW_AT_address_class(0x16)
    6921              $C$DW$804       .dwtag  DW_TAG_TI_far_type
    6922                      .dwattr $C$DW$804, DW_AT_type(*$C$DW$T$3)
    6923              $C$DW$T$127     .dwtag  DW_TAG_const_type
    6924                      .dwattr $C$DW$T$127, DW_AT_type(*$C$DW$804)
    6925              $C$DW$T$4       .dwtag  DW_TAG_base_type
    6926                      .dwattr $C$DW$T$4, DW_AT_encoding(DW_ATE_boolean)
    6927                      .dwattr $C$DW$T$4, DW_AT_name("bool")
    6928                      .dwattr $C$DW$T$4, DW_AT_byte_size(0x01)
    6929              $C$DW$T$5       .dwtag  DW_TAG_base_type
TMS320C2000 Assembler PC v6.2.5 Mon Jul 10 09:53:39 2017

Tools Copyright (c) 1996-2014 Texas Instruments Incorporated
C:\Users\wmj\AppData\Local\Temp\1375610                              PAGE  131

    6930                      .dwattr $C$DW$T$5, DW_AT_encoding(DW_ATE_signed_char)
    6931                      .dwattr $C$DW$T$5, DW_AT_name("signed char")
    6932                      .dwattr $C$DW$T$5, DW_AT_byte_size(0x01)
    6933              $C$DW$T$6       .dwtag  DW_TAG_base_type
    6934                      .dwattr $C$DW$T$6, DW_AT_encoding(DW_ATE_unsigned_char)
    6935                      .dwattr $C$DW$T$6, DW_AT_name("unsigned char")
    6936                      .dwattr $C$DW$T$6, DW_AT_byte_size(0x01)
    6937              $C$DW$T$35      .dwtag  DW_TAG_typedef, DW_AT_name("_Bool")
    6938                      .dwattr $C$DW$T$35, DW_AT_type(*$C$DW$T$6)
    6939                      .dwattr $C$DW$T$35, DW_AT_language(DW_LANG_C)
    6940              $C$DW$T$7       .dwtag  DW_TAG_base_type
    6941                      .dwattr $C$DW$T$7, DW_AT_encoding(DW_ATE_signed_char)
    6942                      .dwattr $C$DW$T$7, DW_AT_name("wchar_t")
    6943                      .dwattr $C$DW$T$7, DW_AT_byte_size(0x01)
    6944              $C$DW$T$8       .dwtag  DW_TAG_base_type
    6945                      .dwattr $C$DW$T$8, DW_AT_encoding(DW_ATE_signed)
    6946                      .dwattr $C$DW$T$8, DW_AT_name("short")
    6947                      .dwattr $C$DW$T$8, DW_AT_byte_size(0x01)
    6948              $C$DW$T$9       .dwtag  DW_TAG_base_type
    6949                      .dwattr $C$DW$T$9, DW_AT_encoding(DW_ATE_unsigned)
    6950                      .dwattr $C$DW$T$9, DW_AT_name("unsigned short")
    6951                      .dwattr $C$DW$T$9, DW_AT_byte_size(0x01)
    6952              $C$DW$T$21      .dwtag  DW_TAG_typedef, DW_AT_name("uint16_t")
    6953                      .dwattr $C$DW$T$21, DW_AT_type(*$C$DW$T$9)
    6954                      .dwattr $C$DW$T$21, DW_AT_language(DW_LANG_C)
    6955              $C$DW$T$155     .dwtag  DW_TAG_pointer_type
    6956                      .dwattr $C$DW$T$155, DW_AT_type(*$C$DW$T$21)
    6957                      .dwattr $C$DW$T$155, DW_AT_address_class(0x16)
    6958              $C$DW$805       .dwtag  DW_TAG_TI_far_type
    6959                      .dwattr $C$DW$805, DW_AT_type(*$C$DW$T$155)
    6960              $C$DW$T$167     .dwtag  DW_TAG_const_type
    6961                      .dwattr $C$DW$T$167, DW_AT_type(*$C$DW$805)
    6962              $C$DW$806       .dwtag  DW_TAG_TI_far_type
    6963                      .dwattr $C$DW$806, DW_AT_type(*$C$DW$T$21)
    6964              $C$DW$T$27      .dwtag  DW_TAG_volatile_type
    6965                      .dwattr $C$DW$T$27, DW_AT_type(*$C$DW$806)
    6966              
    6967              $C$DW$T$28      .dwtag  DW_TAG_array_type
    6968                      .dwattr $C$DW$T$28, DW_AT_type(*$C$DW$T$27)
    6969                      .dwattr $C$DW$T$28, DW_AT_language(DW_LANG_C)
    6970                      .dwattr $C$DW$T$28, DW_AT_byte_size(0x02)
    6971              $C$DW$807       .dwtag  DW_TAG_subrange_type
    6972                      .dwattr $C$DW$807, DW_AT_upper_bound(0x01)
    6973                      .dwendtag $C$DW$T$28
    6974              
    6975              
    6976              $C$DW$T$29      .dwtag  DW_TAG_array_type
    6977                      .dwattr $C$DW$T$29, DW_AT_type(*$C$DW$T$27)
    6978                      .dwattr $C$DW$T$29, DW_AT_language(DW_LANG_C)
    6979                      .dwattr $C$DW$T$29, DW_AT_byte_size(0x18)
    6980              $C$DW$808       .dwtag  DW_TAG_subrange_type
    6981                      .dwattr $C$DW$808, DW_AT_upper_bound(0x17)
    6982                      .dwendtag $C$DW$T$29
    6983              
    6984              
TMS320C2000 Assembler PC v6.2.5 Mon Jul 10 09:53:39 2017

Tools Copyright (c) 1996-2014 Texas Instruments Incorporated
C:\Users\wmj\AppData\Local\Temp\1375610                              PAGE  132

    6985              $C$DW$T$30      .dwtag  DW_TAG_array_type
    6986                      .dwattr $C$DW$T$30, DW_AT_type(*$C$DW$T$27)
    6987                      .dwattr $C$DW$T$30, DW_AT_language(DW_LANG_C)
    6988                      .dwattr $C$DW$T$30, DW_AT_byte_size(0x04)
    6989              $C$DW$809       .dwtag  DW_TAG_subrange_type
    6990                      .dwattr $C$DW$809, DW_AT_upper_bound(0x03)
    6991                      .dwendtag $C$DW$T$30
    6992              
    6993              
    6994              $C$DW$T$31      .dwtag  DW_TAG_array_type
    6995                      .dwattr $C$DW$T$31, DW_AT_type(*$C$DW$T$27)
    6996                      .dwattr $C$DW$T$31, DW_AT_language(DW_LANG_C)
    6997                      .dwattr $C$DW$T$31, DW_AT_byte_size(0x08)
    6998              $C$DW$810       .dwtag  DW_TAG_subrange_type
    6999                      .dwattr $C$DW$810, DW_AT_upper_bound(0x07)
    7000                      .dwendtag $C$DW$T$31
    7001              
    7002              
    7003              $C$DW$T$32      .dwtag  DW_TAG_array_type
    7004                      .dwattr $C$DW$T$32, DW_AT_type(*$C$DW$T$27)
    7005                      .dwattr $C$DW$T$32, DW_AT_language(DW_LANG_C)
    7006                      .dwattr $C$DW$T$32, DW_AT_byte_size(0x03)
    7007              $C$DW$811       .dwtag  DW_TAG_subrange_type
    7008                      .dwattr $C$DW$811, DW_AT_upper_bound(0x02)
    7009                      .dwendtag $C$DW$T$32
    7010              
    7011              
    7012              $C$DW$T$33      .dwtag  DW_TAG_array_type
    7013                      .dwattr $C$DW$T$33, DW_AT_type(*$C$DW$T$27)
    7014                      .dwattr $C$DW$T$33, DW_AT_language(DW_LANG_C)
    7015                      .dwattr $C$DW$T$33, DW_AT_byte_size(0x05)
    7016              $C$DW$812       .dwtag  DW_TAG_subrange_type
    7017                      .dwattr $C$DW$812, DW_AT_upper_bound(0x04)
    7018                      .dwendtag $C$DW$T$33
    7019              
    7020              $C$DW$813       .dwtag  DW_TAG_TI_far_type
    7021                      .dwattr $C$DW$813, DW_AT_type(*$C$DW$T$21)
    7022              $C$DW$T$136     .dwtag  DW_TAG_const_type
    7023                      .dwattr $C$DW$T$136, DW_AT_type(*$C$DW$813)
    7024              $C$DW$T$10      .dwtag  DW_TAG_base_type
    7025                      .dwattr $C$DW$T$10, DW_AT_encoding(DW_ATE_signed)
    7026                      .dwattr $C$DW$T$10, DW_AT_name("int")
    7027                      .dwattr $C$DW$T$10, DW_AT_byte_size(0x01)
    7028              $C$DW$T$11      .dwtag  DW_TAG_base_type
    7029                      .dwattr $C$DW$T$11, DW_AT_encoding(DW_ATE_unsigned)
    7030                      .dwattr $C$DW$T$11, DW_AT_name("unsigned int")
    7031                      .dwattr $C$DW$T$11, DW_AT_byte_size(0x01)
    7032              $C$DW$T$12      .dwtag  DW_TAG_base_type
    7033                      .dwattr $C$DW$T$12, DW_AT_encoding(DW_ATE_signed)
    7034                      .dwattr $C$DW$T$12, DW_AT_name("long")
    7035                      .dwattr $C$DW$T$12, DW_AT_byte_size(0x02)
    7036              $C$DW$T$13      .dwtag  DW_TAG_base_type
    7037                      .dwattr $C$DW$T$13, DW_AT_encoding(DW_ATE_unsigned)
    7038                      .dwattr $C$DW$T$13, DW_AT_name("unsigned long")
    7039                      .dwattr $C$DW$T$13, DW_AT_byte_size(0x02)
TMS320C2000 Assembler PC v6.2.5 Mon Jul 10 09:53:39 2017

Tools Copyright (c) 1996-2014 Texas Instruments Incorporated
C:\Users\wmj\AppData\Local\Temp\1375610                              PAGE  133

    7040              $C$DW$T$110     .dwtag  DW_TAG_typedef, DW_AT_name("size_t")
    7041                      .dwattr $C$DW$T$110, DW_AT_type(*$C$DW$T$13)
    7042                      .dwattr $C$DW$T$110, DW_AT_language(DW_LANG_C)
    7043              $C$DW$814       .dwtag  DW_TAG_TI_far_type
    7044                      .dwattr $C$DW$814, DW_AT_type(*$C$DW$T$110)
    7045              $C$DW$T$111     .dwtag  DW_TAG_const_type
    7046                      .dwattr $C$DW$T$111, DW_AT_type(*$C$DW$814)
    7047              $C$DW$T$25      .dwtag  DW_TAG_typedef, DW_AT_name("uint32_t")
    7048                      .dwattr $C$DW$T$25, DW_AT_type(*$C$DW$T$13)
    7049                      .dwattr $C$DW$T$25, DW_AT_language(DW_LANG_C)
    7050              $C$DW$T$158     .dwtag  DW_TAG_pointer_type
    7051                      .dwattr $C$DW$T$158, DW_AT_type(*$C$DW$T$25)
    7052                      .dwattr $C$DW$T$158, DW_AT_address_class(0x16)
    7053              $C$DW$815       .dwtag  DW_TAG_TI_far_type
    7054                      .dwattr $C$DW$815, DW_AT_type(*$C$DW$T$158)
    7055              $C$DW$T$182     .dwtag  DW_TAG_const_type
    7056                      .dwattr $C$DW$T$182, DW_AT_type(*$C$DW$815)
    7057              $C$DW$816       .dwtag  DW_TAG_TI_far_type
    7058                      .dwattr $C$DW$816, DW_AT_type(*$C$DW$T$25)
    7059              $C$DW$T$26      .dwtag  DW_TAG_volatile_type
    7060                      .dwattr $C$DW$T$26, DW_AT_type(*$C$DW$816)
    7061              $C$DW$T$14      .dwtag  DW_TAG_base_type
    7062                      .dwattr $C$DW$T$14, DW_AT_encoding(DW_ATE_signed)
    7063                      .dwattr $C$DW$T$14, DW_AT_name("long long")
    7064                      .dwattr $C$DW$T$14, DW_AT_byte_size(0x04)
    7065              $C$DW$T$15      .dwtag  DW_TAG_base_type
    7066                      .dwattr $C$DW$T$15, DW_AT_encoding(DW_ATE_unsigned)
    7067                      .dwattr $C$DW$T$15, DW_AT_name("unsigned long long")
    7068                      .dwattr $C$DW$T$15, DW_AT_byte_size(0x04)
    7069              $C$DW$T$16      .dwtag  DW_TAG_base_type
    7070                      .dwattr $C$DW$T$16, DW_AT_encoding(DW_ATE_float)
    7071                      .dwattr $C$DW$T$16, DW_AT_name("float")
    7072                      .dwattr $C$DW$T$16, DW_AT_byte_size(0x02)
    7073              $C$DW$T$17      .dwtag  DW_TAG_base_type
    7074                      .dwattr $C$DW$T$17, DW_AT_encoding(DW_ATE_float)
    7075                      .dwattr $C$DW$T$17, DW_AT_name("double")
    7076                      .dwattr $C$DW$T$17, DW_AT_byte_size(0x02)
    7077              $C$DW$T$18      .dwtag  DW_TAG_base_type
    7078                      .dwattr $C$DW$T$18, DW_AT_encoding(DW_ATE_float)
    7079                      .dwattr $C$DW$T$18, DW_AT_name("long double")
    7080                      .dwattr $C$DW$T$18, DW_AT_byte_size(0x04)
    7081              
    7082              $C$DW$T$73      .dwtag  DW_TAG_union_type
    7083                      .dwattr $C$DW$T$73, DW_AT_name("data_u")
    7084                      .dwattr $C$DW$T$73, DW_AT_byte_size(0x02)
    7085              $C$DW$817       .dwtag  DW_TAG_member
    7086                      .dwattr $C$DW$817, DW_AT_type(*$C$DW$T$22)
    7087                      .dwattr $C$DW$817, DW_AT_name("Data_t")
    7088                      .dwattr $C$DW$817, DW_AT_TI_symbol_name("_Data_t")
    7089                      .dwattr $C$DW$817, DW_AT_data_member_location[DW_OP_plus_uconst 0x0]
    7090                      .dwattr $C$DW$817, DW_AT_accessibility(DW_ACCESS_public)
    7091              $C$DW$818       .dwtag  DW_TAG_member
    7092                      .dwattr $C$DW$818, DW_AT_type(*$C$DW$T$25)
    7093                      .dwattr $C$DW$818, DW_AT_name("Data_u32")
    7094                      .dwattr $C$DW$818, DW_AT_TI_symbol_name("_Data_u32")
TMS320C2000 Assembler PC v6.2.5 Mon Jul 10 09:53:39 2017

Tools Copyright (c) 1996-2014 Texas Instruments Incorporated
C:\Users\wmj\AppData\Local\Temp\1375610                              PAGE  134

    7095                      .dwattr $C$DW$818, DW_AT_data_member_location[DW_OP_plus_uconst 0x0]
    7096                      .dwattr $C$DW$818, DW_AT_accessibility(DW_ACCESS_public)
    7097                      .dwendtag $C$DW$T$73
    7098              
    7099                      .dwattr $C$DW$CU, DW_AT_language(DW_LANG_C)
    7100              
    7101              ;***************************************************************
    7102              ;* DWARF CIE ENTRIES                                           *
    7103              ;***************************************************************
    7104              
    7105              $C$DW$CIE       .dwcie 78
    7106                      .dwcfi  cfa_register, 20
    7107                      .dwcfi  cfa_offset, 0
    7108                      .dwcfi  undefined, 0
    7109                      .dwcfi  undefined, 1
    7110                      .dwcfi  undefined, 2
    7111                      .dwcfi  undefined, 3
    7112                      .dwcfi  undefined, 20
    7113                      .dwcfi  undefined, 21
    7114                      .dwcfi  undefined, 22
    7115                      .dwcfi  undefined, 23
    7116                      .dwcfi  undefined, 24
    7117                      .dwcfi  undefined, 25
    7118                      .dwcfi  undefined, 26
    7119                      .dwcfi  same_value, 28
    7120                      .dwcfi  undefined, 29
    7121                      .dwcfi  undefined, 30
    7122                      .dwcfi  undefined, 31
    7123                      .dwcfi  undefined, 32
    7124                      .dwcfi  undefined, 33
    7125                      .dwcfi  undefined, 34
    7126                      .dwcfi  undefined, 35
    7127                      .dwcfi  undefined, 36
    7128                      .dwcfi  undefined, 37
    7129                      .dwcfi  undefined, 38
    7130                      .dwcfi  undefined, 75
    7131                      .dwcfi  undefined, 76
    7132                      .dwcfi  undefined, 77
    7133                      .dwcfi  undefined, 4
    7134                      .dwcfi  same_value, 6
    7135                      .dwcfi  same_value, 8
    7136                      .dwcfi  same_value, 10
    7137                      .dwcfi  undefined, 12
    7138                      .dwcfi  undefined, 14
    7139                      .dwcfi  undefined, 16
    7140                      .dwcfi  undefined, 17
    7141                      .dwcfi  undefined, 18
    7142                      .dwcfi  undefined, 19
    7143                      .dwcfi  undefined, 5
    7144                      .dwcfi  same_value, 7
    7145                      .dwcfi  same_value, 9
    7146                      .dwcfi  same_value, 11
    7147                      .dwcfi  undefined, 13
    7148                      .dwcfi  undefined, 15
    7149                      .dwcfi  undefined, 78
TMS320C2000 Assembler PC v6.2.5 Mon Jul 10 09:53:39 2017

Tools Copyright (c) 1996-2014 Texas Instruments Incorporated
C:\Users\wmj\AppData\Local\Temp\1375610                              PAGE  135

    7150                      .dwendentry
    7151              
    7152              ;***************************************************************
    7153              ;* DWARF REGISTER MAP                                          *
    7154              ;***************************************************************
    7155              
    7156              $C$DW$819       .dwtag  DW_TAG_TI_assign_register, DW_AT_name("AL")
    7157                      .dwattr $C$DW$819, DW_AT_location[DW_OP_reg0]
    7158              $C$DW$820       .dwtag  DW_TAG_TI_assign_register, DW_AT_name("AH")
    7159                      .dwattr $C$DW$820, DW_AT_location[DW_OP_reg1]
    7160              $C$DW$821       .dwtag  DW_TAG_TI_assign_register, DW_AT_name("PL")
    7161                      .dwattr $C$DW$821, DW_AT_location[DW_OP_reg2]
    7162              $C$DW$822       .dwtag  DW_TAG_TI_assign_register, DW_AT_name("PH")
    7163                      .dwattr $C$DW$822, DW_AT_location[DW_OP_reg3]
    7164              $C$DW$823       .dwtag  DW_TAG_TI_assign_register, DW_AT_name("SP")
    7165                      .dwattr $C$DW$823, DW_AT_location[DW_OP_reg20]
    7166              $C$DW$824       .dwtag  DW_TAG_TI_assign_register, DW_AT_name("XT")
    7167                      .dwattr $C$DW$824, DW_AT_location[DW_OP_reg21]
    7168              $C$DW$825       .dwtag  DW_TAG_TI_assign_register, DW_AT_name("T")
    7169                      .dwattr $C$DW$825, DW_AT_location[DW_OP_reg22]
    7170              $C$DW$826       .dwtag  DW_TAG_TI_assign_register, DW_AT_name("ST0")
    7171                      .dwattr $C$DW$826, DW_AT_location[DW_OP_reg23]
    7172              $C$DW$827       .dwtag  DW_TAG_TI_assign_register, DW_AT_name("ST1")
    7173                      .dwattr $C$DW$827, DW_AT_location[DW_OP_reg24]
    7174              $C$DW$828       .dwtag  DW_TAG_TI_assign_register, DW_AT_name("PC")
    7175                      .dwattr $C$DW$828, DW_AT_location[DW_OP_reg25]
    7176              $C$DW$829       .dwtag  DW_TAG_TI_assign_register, DW_AT_name("RPC")
    7177                      .dwattr $C$DW$829, DW_AT_location[DW_OP_reg26]
    7178              $C$DW$830       .dwtag  DW_TAG_TI_assign_register, DW_AT_name("FP")
    7179                      .dwattr $C$DW$830, DW_AT_location[DW_OP_reg28]
    7180              $C$DW$831       .dwtag  DW_TAG_TI_assign_register, DW_AT_name("DP")
    7181                      .dwattr $C$DW$831, DW_AT_location[DW_OP_reg29]
    7182              $C$DW$832       .dwtag  DW_TAG_TI_assign_register, DW_AT_name("SXM")
    7183                      .dwattr $C$DW$832, DW_AT_location[DW_OP_reg30]
    7184              $C$DW$833       .dwtag  DW_TAG_TI_assign_register, DW_AT_name("PM")
    7185                      .dwattr $C$DW$833, DW_AT_location[DW_OP_reg31]
    7186              $C$DW$834       .dwtag  DW_TAG_TI_assign_register, DW_AT_name("OVM")
    7187                      .dwattr $C$DW$834, DW_AT_location[DW_OP_regx 0x20]
    7188              $C$DW$835       .dwtag  DW_TAG_TI_assign_register, DW_AT_name("PAGE0")
    7189                      .dwattr $C$DW$835, DW_AT_location[DW_OP_regx 0x21]
    7190              $C$DW$836       .dwtag  DW_TAG_TI_assign_register, DW_AT_name("AMODE")
    7191                      .dwattr $C$DW$836, DW_AT_location[DW_OP_regx 0x22]
    7192              $C$DW$837       .dwtag  DW_TAG_TI_assign_register, DW_AT_name("INTM")
    7193                      .dwattr $C$DW$837, DW_AT_location[DW_OP_regx 0x23]
    7194              $C$DW$838       .dwtag  DW_TAG_TI_assign_register, DW_AT_name("IFR")
    7195                      .dwattr $C$DW$838, DW_AT_location[DW_OP_regx 0x24]
    7196              $C$DW$839       .dwtag  DW_TAG_TI_assign_register, DW_AT_name("IER")
    7197                      .dwattr $C$DW$839, DW_AT_location[DW_OP_regx 0x25]
    7198              $C$DW$840       .dwtag  DW_TAG_TI_assign_register, DW_AT_name("V")
    7199                      .dwattr $C$DW$840, DW_AT_location[DW_OP_regx 0x26]
    7200              $C$DW$841       .dwtag  DW_TAG_TI_assign_register, DW_AT_name("PSEUDOH")
    7201                      .dwattr $C$DW$841, DW_AT_location[DW_OP_regx 0x4c]
    7202              $C$DW$842       .dwtag  DW_TAG_TI_assign_register, DW_AT_name("VOL")
    7203                      .dwattr $C$DW$842, DW_AT_location[DW_OP_regx 0x4d]
    7204              $C$DW$843       .dwtag  DW_TAG_TI_assign_register, DW_AT_name("AR0")
TMS320C2000 Assembler PC v6.2.5 Mon Jul 10 09:53:39 2017

Tools Copyright (c) 1996-2014 Texas Instruments Incorporated
C:\Users\wmj\AppData\Local\Temp\1375610                              PAGE  136

    7205                      .dwattr $C$DW$843, DW_AT_location[DW_OP_reg4]
    7206              $C$DW$844       .dwtag  DW_TAG_TI_assign_register, DW_AT_name("AR1")
    7207                      .dwattr $C$DW$844, DW_AT_location[DW_OP_reg6]
    7208              $C$DW$845       .dwtag  DW_TAG_TI_assign_register, DW_AT_name("AR2")
    7209                      .dwattr $C$DW$845, DW_AT_location[DW_OP_reg8]
    7210              $C$DW$846       .dwtag  DW_TAG_TI_assign_register, DW_AT_name("AR3")
    7211                      .dwattr $C$DW$846, DW_AT_location[DW_OP_reg10]
    7212              $C$DW$847       .dwtag  DW_TAG_TI_assign_register, DW_AT_name("AR4")
    7213                      .dwattr $C$DW$847, DW_AT_location[DW_OP_reg12]
    7214              $C$DW$848       .dwtag  DW_TAG_TI_assign_register, DW_AT_name("AR5")
    7215                      .dwattr $C$DW$848, DW_AT_location[DW_OP_reg14]
    7216              $C$DW$849       .dwtag  DW_TAG_TI_assign_register, DW_AT_name("AR6")
    7217                      .dwattr $C$DW$849, DW_AT_location[DW_OP_reg16]
    7218              $C$DW$850       .dwtag  DW_TAG_TI_assign_register, DW_AT_name("XAR6")
    7219                      .dwattr $C$DW$850, DW_AT_location[DW_OP_reg17]
    7220              $C$DW$851       .dwtag  DW_TAG_TI_assign_register, DW_AT_name("AR7")
    7221                      .dwattr $C$DW$851, DW_AT_location[DW_OP_reg18]
    7222              $C$DW$852       .dwtag  DW_TAG_TI_assign_register, DW_AT_name("XAR7")
    7223                      .dwattr $C$DW$852, DW_AT_location[DW_OP_reg19]
    7224              $C$DW$853       .dwtag  DW_TAG_TI_assign_register, DW_AT_name("XAR0")
    7225                      .dwattr $C$DW$853, DW_AT_location[DW_OP_reg5]
    7226              $C$DW$854       .dwtag  DW_TAG_TI_assign_register, DW_AT_name("XAR1")
    7227                      .dwattr $C$DW$854, DW_AT_location[DW_OP_reg7]
    7228              $C$DW$855       .dwtag  DW_TAG_TI_assign_register, DW_AT_name("XAR2")
    7229                      .dwattr $C$DW$855, DW_AT_location[DW_OP_reg9]
    7230              $C$DW$856       .dwtag  DW_TAG_TI_assign_register, DW_AT_name("XAR3")
    7231                      .dwattr $C$DW$856, DW_AT_location[DW_OP_reg11]
    7232              $C$DW$857       .dwtag  DW_TAG_TI_assign_register, DW_AT_name("XAR4")
    7233                      .dwattr $C$DW$857, DW_AT_location[DW_OP_reg13]
    7234              $C$DW$858       .dwtag  DW_TAG_TI_assign_register, DW_AT_name("XAR5")
    7235                      .dwattr $C$DW$858, DW_AT_location[DW_OP_reg15]
    7236              $C$DW$859       .dwtag  DW_TAG_TI_assign_register, DW_AT_name("CIE_RETA")
    7237                      .dwattr $C$DW$859, DW_AT_location[DW_OP_regx 0x4e]
    7238                      .dwendtag $C$DW$CU
    7239              

No Assembly Errors, No Assembly Warnings
