TMS320C2000 Assembler PC v6.2.5 Thu Jun 22 08:44:25 2017

Tools Copyright (c) 1996-2014 Texas Instruments Incorporated
C:\Users\wmj\AppData\Local\Temp\0846811                              PAGE    1

       1              ;***************************************************************
       2              ;* TMS320C2000 C/C++ Codegen                         PC v6.2.5 *
       3              ;* Date/Time created: Thu Jun 22 08:44:24 2017                 *
       4              ;***************************************************************
       5                      .compiler_opts --float_support=softlib --hll_source=on --mem_model:code=flat --mem_model:data=large -
       6        0002  FP      .set    XAR2
       7              
       8              $C$DW$CU        .dwtag  DW_TAG_compile_unit
       9                      .dwattr $C$DW$CU, DW_AT_name("C:/ti/motorware/motorware_1_01_00_18/sw/solutions/instaspin_foc/src/pro
      10                      .dwattr $C$DW$CU, DW_AT_producer("TMS320C2000 C/C++ Codegen PC v6.2.5 Copyright (c) 1996-2014 Texas I
      11                      .dwattr $C$DW$CU, DW_AT_TI_version(0x01)
      12                      .dwattr $C$DW$CU, DW_AT_comp_dir("C:\ti\motorware\motorware_1_01_00_18\sw\solutions\instaspin_foc\boa
      13              ;**************************************************************
      14              ;* CINIT RECORDS                                              *
      15              ;**************************************************************
      16 00000000               .sect   ".cinit"
      17                      .align  1
      18 00000000 FFFE          .field          -2,16
      19 00000001 0004-         .field          _gSpeed_hz_to_krpm_sf+0,32
         00000002 0000 
      20 00000003 D70A          .bits   251658,32                       ; _gSpeed_hz_to_krpm_sf @ 0
         00000004 0003 
      21              
      22 00000005               .sect   ".cinit"
      23                      .align  1
      24 00000005 FFFE          .field          -2,16
      25 00000006 0006-         .field          _gSpeed_krpm_to_pu_sf+0,32
         00000007 0000 
      26 00000008 AAAB          .bits   11184811,32                     ; _gSpeed_krpm_to_pu_sf @ 0
         00000009 00AA 
      27              
      28 0000000a               .sect   ".cinit"
      29                      .align  1
      30 0000000a FFFC          .field          -$C$IR_1,16
      31 0000000b 001C-         .field          _gVdq_out_pu+0,32
         0000000c 0000 
      32 0000000d 0000          .bits   0,32                    ; _gVdq_out_pu._value[0] @ 0
         0000000e 0000 
      33 0000000f 0000          .bits   0,32                    ; _gVdq_out_pu._value[1] @ 32
         00000010 0000 
      34        0004  $C$IR_1:        .set    4
      35              
      36 00000011               .sect   ".cinit"
      37                      .align  1
      38 00000011 FFFC          .field          -$C$IR_2,16
      39 00000012 0020-         .field          _gIdq_pu+0,32
         00000013 0000 
      40 00000014 0000          .bits   0,32                    ; _gIdq_pu._value[0] @ 0
         00000015 0000 
      41 00000016 0000          .bits   0,32                    ; _gIdq_pu._value[1] @ 32
         00000017 0000 
      42        0004  $C$IR_2:        .set    4
      43              
      44 00000018               .sect   ".cinit"
      45                      .align  1
TMS320C2000 Assembler PC v6.2.5 Thu Jun 22 08:44:25 2017

Tools Copyright (c) 1996-2014 Texas Instruments Incorporated
C:\Users\wmj\AppData\Local\Temp\0846811                              PAGE    2

      46 00000018 FFFC          .field          -$C$IR_3,16
      47 00000019 0028-         .field          _gIdq_ref_pu+0,32
         0000001a 0000 
      48 0000001b 0000          .bits   0,32                    ; _gIdq_ref_pu._value[0] @ 0
         0000001c 0000 
      49 0000001d 0000          .bits   0,32                    ; _gIdq_ref_pu._value[1] @ 32
         0000001e 0000 
      50        0004  $C$IR_3:        .set    4
      51              
      52 0000001f               .sect   ".cinit"
      53                      .align  1
      54 0000001f FFFA          .field          -$C$IR_4,16
      55 00000020 0032-         .field          _gPwmData+0,32
         00000021 0000 
      56 00000022 0000          .bits   0,32                    ; _gPwmData._Tabc._value[0] @ 0
         00000023 0000 
      57 00000024 0000          .bits   0,32                    ; _gPwmData._Tabc._value[1] @ 32
         00000025 0000 
      58 00000026 0000          .bits   0,32                    ; _gPwmData._Tabc._value[2] @ 64
         00000027 0000 
      59        0006  $C$IR_4:        .set    6
      60              
      61 00000028               .sect   ".cinit"
      62                      .align  1
      63 00000028 FFFA          .field          -$C$IR_5,16
      64 00000029 0040-         .field          _gOffsets_I_pu+0,32
         0000002a 0000 
      65 0000002b 0000          .bits   0,32                    ; _gOffsets_I_pu._value[0] @ 0
         0000002c 0000 
      66 0000002d 0000          .bits   0,32                    ; _gOffsets_I_pu._value[1] @ 32
         0000002e 0000 
      67 0000002f 0000          .bits   0,32                    ; _gOffsets_I_pu._value[2] @ 64
         00000030 0000 
      68        0006  $C$IR_5:        .set    6
      69              
      70 00000031               .sect   ".cinit"
      71                      .align  1
      72 00000031 FFFA          .field          -$C$IR_6,16
      73 00000032 0046-         .field          _gOffsets_V_pu+0,32
         00000033 0000 
      74 00000034 0000          .bits   0,32                    ; _gOffsets_V_pu._value[0] @ 0
         00000035 0000 
      75 00000036 0000          .bits   0,32                    ; _gOffsets_V_pu._value[1] @ 32
         00000037 0000 
      76 00000038 0000          .bits   0,32                    ; _gOffsets_V_pu._value[2] @ 64
         00000039 0000 
      77        0006  $C$IR_6:        .set    6
      78              
      79 0000003a               .sect   ".cinit"
      80                      .align  1
      81 0000003a FF80          .field          -$C$IR_7,16
      82 0000003b 00C0-         .field          _gMotorVars+0,32
         0000003c 0000 
      83 0000003d 0000          .bits   0,16                    ; _gMotorVars._Flag_enableSys @ 0
      84 0000003e 0000          .bits   0,16                    ; _gMotorVars._Flag_Run_Identify @ 16
TMS320C2000 Assembler PC v6.2.5 Thu Jun 22 08:44:25 2017

Tools Copyright (c) 1996-2014 Texas Instruments Incorporated
C:\Users\wmj\AppData\Local\Temp\0846811                              PAGE    3

      85 0000003f 0000          .bits   0,16                    ; _gMotorVars._Flag_MotorIdentified @ 32
      86 00000040 0001          .bits   1,16                    ; _gMotorVars._Flag_enableForceAngle @ 48
      87 00000041 0000          .bits   0,16                    ; _gMotorVars._Flag_enableFieldWeakening @ 64
      88 00000042 0000          .bits   0,16                    ; _gMotorVars._Flag_enableRsRecalc @ 80
      89 00000043 0001          .bits   1,16                    ; _gMotorVars._Flag_enableUserParams @ 96
      90 00000044 0001          .bits   1,16                    ; _gMotorVars._Flag_enableOffsetcalc @ 112
      91 00000045 0000          .bits   0,16                    ; _gMotorVars._Flag_enablePowerWarp @ 128
      92 00000046 0000          .bits   0,16                    ; _gMotorVars._Flag_enableSpeedCtrl @ 144
      93 00000047 0000          .bits   0,16                    ; _gMotorVars._Flag_enableRun @ 160
      94 00000048 0000          .bits   0,16                    ; _gMotorVars._Flag_RunState @ 176
      95 00000049 0000          .bits   0,16                    ; _gMotorVars._Flag_enableFlyingStart @ 192
      96 0000004a 0001          .bits   1,16                    ; _gMotorVars._CtrlState @ 208
      97 0000004b 0001          .bits   1,16                    ; _gMotorVars._EstState @ 224
      98 0000004c 0000          .bits   0,16                    ; _gMotorVars._UserErrorCode @ 240
      99 0000004d 0000          .bits   0,16                    ; _gMotorVars._CtrlVersion._rsvd @ 256
     100 0000004e 0004          .bits   4,16                    ; _gMotorVars._CtrlVersion._targetProc @ 272
     101 0000004f 0000          .bits   0,16                    ; _gMotorVars._CtrlVersion._major @ 288
     102 00000050 0000          .bits   0,16                    ; _gMotorVars._CtrlVersion._minor @ 304
     103 00000051 0000          .bits   0,32                    ; _gMotorVars._IdRef_A @ 320
         00000052 0000 
     104 00000053 0000          .bits   0,32                    ; _gMotorVars._IqRef_A @ 352
         00000054 0000 
     105 00000055 0000          .bits   0,32                    ; _gMotorVars._SpeedRef_pu @ 384
         00000056 0000 
     106 00000057 9999          .bits   1677721,32                      ; _gMotorVars._SpeedRef_krpm @ 416
         00000058 0019 
     107 00000059 0000          .bits   0,32                    ; _gMotorVars._SpeedTraj_krpm @ 448
         0000005a 0000 
     108 0000005b 3333          .bits   3355443,32                      ; _gMotorVars._MaxAccel_krpmps @ 480
         0000005c 0033 
     109 0000005d 0000          .bits   0,32                    ; _gMotorVars._Speed_krpm @ 512
         0000005e 0000 
     110 0000005f D07D          .bits   9687165,32                      ; _gMotorVars._OverModulation @ 544
         00000060 0093 
     111 00000061 3333          .bits   5452595,32                      ; _gMotorVars._RsOnLineCurrent_A @ 576
         00000062 0053 
     112 00000063 0190          .bits   400,32                  ; _gMotorVars._SvgenMaxModulation_ticks @ 608
         00000064 0000 
     113 00000065 0000          .bits   0,32                    ; _gMotorVars._Flux_Wb @ 640
         00000066 0000 
     114 00000067 0000          .bits   0,32                    ; _gMotorVars._Torque_Nm @ 672
         00000068 0000 
     115 00000069 0000          .xfloat $strtod("0x0p+0")               ; _gMotorVars._MagnCurr_A @ 704
         0000006a 0000 
     116 0000006b 0000          .xfloat $strtod("0x0p+0")               ; _gMotorVars._Rr_Ohm @ 736
         0000006c 0000 
     117 0000006d 0000          .xfloat $strtod("0x0p+0")               ; _gMotorVars._Rs_Ohm @ 768
         0000006e 0000 
     118 0000006f 0000          .xfloat $strtod("0x0p+0")               ; _gMotorVars._RsOnLine_Ohm @ 800
         00000070 0000 
     119 00000071 0000          .xfloat $strtod("0x0p+0")               ; _gMotorVars._Lsd_H @ 832
         00000072 0000 
     120 00000073 0000          .xfloat $strtod("0x0p+0")               ; _gMotorVars._Lsq_H @ 864
         00000074 0000 
     121 00000075 0000          .xfloat $strtod("0x0p+0")               ; _gMotorVars._Flux_VpHz @ 896
TMS320C2000 Assembler PC v6.2.5 Thu Jun 22 08:44:25 2017

Tools Copyright (c) 1996-2014 Texas Instruments Incorporated
C:\Users\wmj\AppData\Local\Temp\0846811                              PAGE    4

         00000076 0000 
     122 00000077 0000          .xfloat $strtod("0x0p+0")               ; _gMotorVars._ipd_excFreq_Hz @ 928
         00000078 0000 
     123 00000079 0000          .bits   0,32                    ; _gMotorVars._ipd_Kspd @ 960
         0000007a 0000 
     124 0000007b 0000          .bits   0,32                    ; _gMotorVars._ipd_excMag_coarse_pu @ 992
         0000007c 0000 
     125 0000007d 0000          .bits   0,32                    ; _gMotorVars._ipd_excMag_fine_pu @ 1024
         0000007e 0000 
     126 0000007f 0000          .xfloat $strtod("0x0p+0")               ; _gMotorVars._ipd_waitTime_coarse_sec @ 1056
         00000080 0000 
     127 00000081 0000          .xfloat $strtod("0x0p+0")               ; _gMotorVars._ipd_waitTime_fine_sec @ 1088
         00000082 0000 
     128 00000083 0000          .bits   0,32                    ; _gMotorVars._Kp_spd @ 1120
         00000084 0000 
     129 00000085 0000          .bits   0,32                    ; _gMotorVars._Ki_spd @ 1152
         00000086 0000 
     130 00000087 0000          .bits   0,32                    ; _gMotorVars._Kp_Idq @ 1184
         00000088 0000 
     131 00000089 0000          .bits   0,32                    ; _gMotorVars._Ki_Idq @ 1216
         0000008a 0000 
     132 0000008b 0000          .bits   0,32                    ; _gMotorVars._Vd @ 1248
         0000008c 0000 
     133 0000008d 0000          .bits   0,32                    ; _gMotorVars._Vq @ 1280
         0000008e 0000 
     134 0000008f 0000          .bits   0,32                    ; _gMotorVars._Vs @ 1312
         00000090 0000 
     135 00000091 4064          .bits   7749732,32                      ; _gMotorVars._VsRef @ 1344
         00000092 0076 
     136 00000093 0000          .bits   0,32                    ; _gMotorVars._VdcBus_kV @ 1376
         00000094 0000 
     137 00000095 0000          .bits   0,32                    ; _gMotorVars._Id_A @ 1408
         00000096 0000 
     138 00000097 0000          .bits   0,32                    ; _gMotorVars._Iq_A @ 1440
         00000098 0000 
     139 00000099 0000          .bits   0,32                    ; _gMotorVars._Is_A @ 1472
         0000009a 0000 
     140 0000009b 0000          .bits   0,32                    ; _gMotorVars._I_bias._value[0] @ 1504
         0000009c 0000 
     141 0000009d 0000          .bits   0,32                    ; _gMotorVars._I_bias._value[1] @ 1536
         0000009e 0000 
     142 0000009f 0000          .bits   0,32                    ; _gMotorVars._I_bias._value[2] @ 1568
         000000a0 0000 
     143 000000a1 0000          .bits   0,32                    ; _gMotorVars._V_bias._value[0] @ 1600
         000000a2 0000 
     144 000000a3 0000          .bits   0,32                    ; _gMotorVars._V_bias._value[1] @ 1632
         000000a4 0000 
     145 000000a5 0000          .bits   0,32                    ; _gMotorVars._V_bias._value[2] @ 1664
         000000a6 0000 
     146 000000a7 999A          .bits   10066330,32                     ; _gMotorVars._SpeedSet_krpm @ 1696
         000000a8 0099 
     147 000000a9 0000          .bits   0,32                    ; _gMotorVars._angle_sen_pu @ 1728
         000000aa 0000 
     148 000000ab 0000          .bits   0,32                    ; _gMotorVars._angle_est_pu @ 1760
         000000ac 0000 
TMS320C2000 Assembler PC v6.2.5 Thu Jun 22 08:44:25 2017

Tools Copyright (c) 1996-2014 Texas Instruments Incorporated
C:\Users\wmj\AppData\Local\Temp\0846811                              PAGE    5

     149 000000ad 0000          .bits   0,32                    ; _gMotorVars._speed_sen_pu @ 1792
         000000ae 0000 
     150 000000af 0000          .bits   0,32                    ; _gMotorVars._speed_est_pu @ 1824
         000000b0 0000 
     151 000000b1 0000          .bits   0,32                    ; _gMotorVars._speedHigh_hall2fast_pu @ 1856
         000000b2 0000 
     152 000000b3 0000          .bits   0,32                    ; _gMotorVars._speedLow_hall2fast_pu @ 1888
         000000b4 0000 
     153 000000b5 0000          .bits   0,32                    ; _gMotorVars._IdSet_A @ 1920
         000000b6 0000 
     154 000000b7 0000          .bits   0,32                    ; _gMotorVars._IqSet_A @ 1952
         000000b8 0000 
     155 000000b9 0000          .bits   0,32                    ; _gMotorVars._IdRef_pu @ 1984
         000000ba 0000 
     156 000000bb 0000          .bits   0,32                    ; _gMotorVars._IqRef_pu @ 2016
         000000bc 0000 
     157        0080  $C$IR_7:        .set    128
     158              
     159              
     160              $C$DW$1 .dwtag  DW_TAG_subprogram, DW_AT_name("EST_setEstParams")
     161                      .dwattr $C$DW$1, DW_AT_TI_symbol_name("_EST_setEstParams")
     162                      .dwattr $C$DW$1, DW_AT_declaration
     163                      .dwattr $C$DW$1, DW_AT_external
     164              $C$DW$2 .dwtag  DW_TAG_formal_parameter
     165                      .dwattr $C$DW$2, DW_AT_type(*$C$DW$T$135)
     166              $C$DW$3 .dwtag  DW_TAG_formal_parameter
     167                      .dwattr $C$DW$3, DW_AT_type(*$C$DW$T$140)
     168                      .dwendtag $C$DW$1
     169              
     170              
     171              $C$DW$4 .dwtag  DW_TAG_subprogram, DW_AT_name("EST_getIdq_pu")
     172                      .dwattr $C$DW$4, DW_AT_TI_symbol_name("_EST_getIdq_pu")
     173                      .dwattr $C$DW$4, DW_AT_declaration
     174                      .dwattr $C$DW$4, DW_AT_external
     175              $C$DW$5 .dwtag  DW_TAG_formal_parameter
     176                      .dwattr $C$DW$5, DW_AT_type(*$C$DW$T$135)
     177              $C$DW$6 .dwtag  DW_TAG_formal_parameter
     178                      .dwattr $C$DW$6, DW_AT_type(*$C$DW$T$191)
     179                      .dwendtag $C$DW$4
     180              
     181              
     182              $C$DW$7 .dwtag  DW_TAG_subprogram, DW_AT_name("HAL_I2c_Pca9555_WrData")
     183                      .dwattr $C$DW$7, DW_AT_TI_symbol_name("_HAL_I2c_Pca9555_WrData")
     184                      .dwattr $C$DW$7, DW_AT_declaration
     185                      .dwattr $C$DW$7, DW_AT_external
     186              $C$DW$8 .dwtag  DW_TAG_formal_parameter
     187                      .dwattr $C$DW$8, DW_AT_type(*$C$DW$T$174)
     188              $C$DW$9 .dwtag  DW_TAG_formal_parameter
     189                      .dwattr $C$DW$9, DW_AT_type(*$C$DW$T$23)
     190              $C$DW$10        .dwtag  DW_TAG_formal_parameter
     191                      .dwattr $C$DW$10, DW_AT_type(*$C$DW$T$23)
     192                      .dwendtag $C$DW$7
     193              
     194              
     195              $C$DW$11        .dwtag  DW_TAG_subprogram, DW_AT_name("HAL_enableAdcInts")
TMS320C2000 Assembler PC v6.2.5 Thu Jun 22 08:44:25 2017

Tools Copyright (c) 1996-2014 Texas Instruments Incorporated
C:\Users\wmj\AppData\Local\Temp\0846811                              PAGE    6

     196                      .dwattr $C$DW$11, DW_AT_TI_symbol_name("_HAL_enableAdcInts")
     197                      .dwattr $C$DW$11, DW_AT_declaration
     198                      .dwattr $C$DW$11, DW_AT_external
     199              $C$DW$12        .dwtag  DW_TAG_formal_parameter
     200                      .dwattr $C$DW$12, DW_AT_type(*$C$DW$T$174)
     201                      .dwendtag $C$DW$11
     202              
     203              
     204              $C$DW$13        .dwtag  DW_TAG_subprogram, DW_AT_name("HAL_setupFaults")
     205                      .dwattr $C$DW$13, DW_AT_TI_symbol_name("_HAL_setupFaults")
     206                      .dwattr $C$DW$13, DW_AT_declaration
     207                      .dwattr $C$DW$13, DW_AT_external
     208              $C$DW$14        .dwtag  DW_TAG_formal_parameter
     209                      .dwattr $C$DW$14, DW_AT_type(*$C$DW$T$174)
     210                      .dwendtag $C$DW$13
     211              
     212              
     213              $C$DW$15        .dwtag  DW_TAG_subprogram, DW_AT_name("HAL_enableDebugInt")
     214                      .dwattr $C$DW$15, DW_AT_TI_symbol_name("_HAL_enableDebugInt")
     215                      .dwattr $C$DW$15, DW_AT_declaration
     216                      .dwattr $C$DW$15, DW_AT_external
     217              $C$DW$16        .dwtag  DW_TAG_formal_parameter
     218                      .dwattr $C$DW$16, DW_AT_type(*$C$DW$T$174)
     219                      .dwendtag $C$DW$15
     220              
     221              
     222              $C$DW$17        .dwtag  DW_TAG_subprogram, DW_AT_name("HAL_enableGlobalInts")
     223                      .dwattr $C$DW$17, DW_AT_TI_symbol_name("_HAL_enableGlobalInts")
     224                      .dwattr $C$DW$17, DW_AT_declaration
     225                      .dwattr $C$DW$17, DW_AT_external
     226              $C$DW$18        .dwtag  DW_TAG_formal_parameter
     227                      .dwattr $C$DW$18, DW_AT_type(*$C$DW$T$174)
     228                      .dwendtag $C$DW$17
     229              
     230              
     231              $C$DW$19        .dwtag  DW_TAG_subprogram, DW_AT_name("HAL_setParams")
     232                      .dwattr $C$DW$19, DW_AT_TI_symbol_name("_HAL_setParams")
     233                      .dwattr $C$DW$19, DW_AT_declaration
     234                      .dwattr $C$DW$19, DW_AT_external
     235              $C$DW$20        .dwtag  DW_TAG_formal_parameter
     236                      .dwattr $C$DW$20, DW_AT_type(*$C$DW$T$174)
     237              $C$DW$21        .dwtag  DW_TAG_formal_parameter
     238                      .dwattr $C$DW$21, DW_AT_type(*$C$DW$T$223)
     239                      .dwendtag $C$DW$19
     240              
     241              
     242              $C$DW$22        .dwtag  DW_TAG_subprogram, DW_AT_name("USER_setParams")
     243                      .dwattr $C$DW$22, DW_AT_TI_symbol_name("_USER_setParams")
     244                      .dwattr $C$DW$22, DW_AT_declaration
     245                      .dwattr $C$DW$22, DW_AT_external
     246              $C$DW$23        .dwtag  DW_TAG_formal_parameter
     247                      .dwattr $C$DW$23, DW_AT_type(*$C$DW$T$140)
     248                      .dwendtag $C$DW$22
     249              
     250              
TMS320C2000 Assembler PC v6.2.5 Thu Jun 22 08:44:25 2017

Tools Copyright (c) 1996-2014 Texas Instruments Incorporated
C:\Users\wmj\AppData\Local\Temp\0846811                              PAGE    7

     251              $C$DW$24        .dwtag  DW_TAG_subprogram, DW_AT_name("USER_checkForErrors")
     252                      .dwattr $C$DW$24, DW_AT_TI_symbol_name("_USER_checkForErrors")
     253                      .dwattr $C$DW$24, DW_AT_declaration
     254                      .dwattr $C$DW$24, DW_AT_external
     255              $C$DW$25        .dwtag  DW_TAG_formal_parameter
     256                      .dwattr $C$DW$25, DW_AT_type(*$C$DW$T$140)
     257                      .dwendtag $C$DW$24
     258              
     259              
     260              $C$DW$26        .dwtag  DW_TAG_subprogram, DW_AT_name("EST_setupEstIdleState")
     261                      .dwattr $C$DW$26, DW_AT_TI_symbol_name("_EST_setupEstIdleState")
     262                      .dwattr $C$DW$26, DW_AT_declaration
     263                      .dwattr $C$DW$26, DW_AT_external
     264              $C$DW$27        .dwtag  DW_TAG_formal_parameter
     265                      .dwattr $C$DW$27, DW_AT_type(*$C$DW$T$135)
     266                      .dwendtag $C$DW$26
     267              
     268              
     269              $C$DW$28        .dwtag  DW_TAG_subprogram, DW_AT_name("EST_setLs_qFmt")
     270                      .dwattr $C$DW$28, DW_AT_TI_symbol_name("_EST_setLs_qFmt")
     271                      .dwattr $C$DW$28, DW_AT_declaration
     272                      .dwattr $C$DW$28, DW_AT_external
     273              $C$DW$29        .dwtag  DW_TAG_formal_parameter
     274                      .dwattr $C$DW$29, DW_AT_type(*$C$DW$T$135)
     275              $C$DW$30        .dwtag  DW_TAG_formal_parameter
     276                      .dwattr $C$DW$30, DW_AT_type(*$C$DW$T$239)
     277                      .dwendtag $C$DW$28
     278              
     279              
     280              $C$DW$31        .dwtag  DW_TAG_subprogram, DW_AT_name("memCopy")
     281                      .dwattr $C$DW$31, DW_AT_TI_symbol_name("_memCopy")
     282                      .dwattr $C$DW$31, DW_AT_declaration
     283                      .dwattr $C$DW$31, DW_AT_external
     284              $C$DW$32        .dwtag  DW_TAG_formal_parameter
     285                      .dwattr $C$DW$32, DW_AT_type(*$C$DW$T$226)
     286              $C$DW$33        .dwtag  DW_TAG_formal_parameter
     287                      .dwattr $C$DW$33, DW_AT_type(*$C$DW$T$226)
     288              $C$DW$34        .dwtag  DW_TAG_formal_parameter
     289                      .dwattr $C$DW$34, DW_AT_type(*$C$DW$T$226)
     290                      .dwendtag $C$DW$31
     291              
     292              
     293              $C$DW$35        .dwtag  DW_TAG_subprogram, DW_AT_name("EST_setIdle")
     294                      .dwattr $C$DW$35, DW_AT_TI_symbol_name("_EST_setIdle")
     295                      .dwattr $C$DW$35, DW_AT_declaration
     296                      .dwattr $C$DW$35, DW_AT_external
     297              $C$DW$36        .dwtag  DW_TAG_formal_parameter
     298                      .dwattr $C$DW$36, DW_AT_type(*$C$DW$T$135)
     299                      .dwendtag $C$DW$35
     300              
     301              
     302              $C$DW$37        .dwtag  DW_TAG_subprogram, DW_AT_name("EST_setFlag_enableRsRecalc")
     303                      .dwattr $C$DW$37, DW_AT_TI_symbol_name("_EST_setFlag_enableRsRecalc")
     304                      .dwattr $C$DW$37, DW_AT_declaration
     305                      .dwattr $C$DW$37, DW_AT_external
TMS320C2000 Assembler PC v6.2.5 Thu Jun 22 08:44:25 2017

Tools Copyright (c) 1996-2014 Texas Instruments Incorporated
C:\Users\wmj\AppData\Local\Temp\0846811                              PAGE    8

     306              $C$DW$38        .dwtag  DW_TAG_formal_parameter
     307                      .dwattr $C$DW$38, DW_AT_type(*$C$DW$T$135)
     308              $C$DW$39        .dwtag  DW_TAG_formal_parameter
     309                      .dwattr $C$DW$39, DW_AT_type(*$C$DW$T$232)
     310                      .dwendtag $C$DW$37
     311              
     312              
     313              $C$DW$40        .dwtag  DW_TAG_subprogram, DW_AT_name("EST_setLs_q_pu")
     314                      .dwattr $C$DW$40, DW_AT_TI_symbol_name("_EST_setLs_q_pu")
     315                      .dwattr $C$DW$40, DW_AT_declaration
     316                      .dwattr $C$DW$40, DW_AT_external
     317              $C$DW$41        .dwtag  DW_TAG_formal_parameter
     318                      .dwattr $C$DW$41, DW_AT_type(*$C$DW$T$135)
     319              $C$DW$42        .dwtag  DW_TAG_formal_parameter
     320                      .dwattr $C$DW$42, DW_AT_type(*$C$DW$T$229)
     321                      .dwendtag $C$DW$40
     322              
     323              
     324              $C$DW$43        .dwtag  DW_TAG_subprogram, DW_AT_name("EST_setLs_d_pu")
     325                      .dwattr $C$DW$43, DW_AT_TI_symbol_name("_EST_setLs_d_pu")
     326                      .dwattr $C$DW$43, DW_AT_declaration
     327                      .dwattr $C$DW$43, DW_AT_external
     328              $C$DW$44        .dwtag  DW_TAG_formal_parameter
     329                      .dwattr $C$DW$44, DW_AT_type(*$C$DW$T$135)
     330              $C$DW$45        .dwtag  DW_TAG_formal_parameter
     331                      .dwattr $C$DW$45, DW_AT_type(*$C$DW$T$229)
     332                      .dwendtag $C$DW$43
     333              
     334              
     335              $C$DW$46        .dwtag  DW_TAG_subprogram, DW_AT_name("EST_setFlag_enableForceAngle")
     336                      .dwattr $C$DW$46, DW_AT_TI_symbol_name("_EST_setFlag_enableForceAngle")
     337                      .dwattr $C$DW$46, DW_AT_declaration
     338                      .dwattr $C$DW$46, DW_AT_external
     339              $C$DW$47        .dwtag  DW_TAG_formal_parameter
     340                      .dwattr $C$DW$47, DW_AT_type(*$C$DW$T$135)
     341              $C$DW$48        .dwtag  DW_TAG_formal_parameter
     342                      .dwattr $C$DW$48, DW_AT_type(*$C$DW$T$232)
     343                      .dwendtag $C$DW$46
     344              
     345              
     346              $C$DW$49        .dwtag  DW_TAG_subprogram, DW_AT_name("EST_run")
     347                      .dwattr $C$DW$49, DW_AT_TI_symbol_name("_EST_run")
     348                      .dwattr $C$DW$49, DW_AT_declaration
     349                      .dwattr $C$DW$49, DW_AT_external
     350              $C$DW$50        .dwtag  DW_TAG_formal_parameter
     351                      .dwattr $C$DW$50, DW_AT_type(*$C$DW$T$135)
     352              $C$DW$51        .dwtag  DW_TAG_formal_parameter
     353                      .dwattr $C$DW$51, DW_AT_type(*$C$DW$T$190)
     354              $C$DW$52        .dwtag  DW_TAG_formal_parameter
     355                      .dwattr $C$DW$52, DW_AT_type(*$C$DW$T$190)
     356              $C$DW$53        .dwtag  DW_TAG_formal_parameter
     357                      .dwattr $C$DW$53, DW_AT_type(*$C$DW$T$229)
     358              $C$DW$54        .dwtag  DW_TAG_formal_parameter
     359                      .dwattr $C$DW$54, DW_AT_type(*$C$DW$T$229)
     360                      .dwendtag $C$DW$49
TMS320C2000 Assembler PC v6.2.5 Thu Jun 22 08:44:25 2017

Tools Copyright (c) 1996-2014 Texas Instruments Incorporated
C:\Users\wmj\AppData\Local\Temp\0846811                              PAGE    9

     361              
     362              
     363              $C$DW$55        .dwtag  DW_TAG_subprogram, DW_AT_name("EST_updateState")
     364                      .dwattr $C$DW$55, DW_AT_TI_symbol_name("_EST_updateState")
     365                      .dwattr $C$DW$55, DW_AT_type(*$C$DW$T$91)
     366                      .dwattr $C$DW$55, DW_AT_declaration
     367                      .dwattr $C$DW$55, DW_AT_external
     368              $C$DW$56        .dwtag  DW_TAG_formal_parameter
     369                      .dwattr $C$DW$56, DW_AT_type(*$C$DW$T$135)
     370              $C$DW$57        .dwtag  DW_TAG_formal_parameter
     371                      .dwattr $C$DW$57, DW_AT_type(*$C$DW$T$229)
     372                      .dwendtag $C$DW$55
     373              
     374                      .global _pidCntSpeed
     375 00000000       _pidCntSpeed:   .usect  ".ebss",1,1,0
     376              $C$DW$58        .dwtag  DW_TAG_variable, DW_AT_name("pidCntSpeed")
     377                      .dwattr $C$DW$58, DW_AT_TI_symbol_name("_pidCntSpeed")
     378                      .dwattr $C$DW$58, DW_AT_location[DW_OP_addr _pidCntSpeed]
     379                      .dwattr $C$DW$58, DW_AT_type(*$C$DW$T$23)
     380                      .dwattr $C$DW$58, DW_AT_external
     381              
     382              $C$DW$59        .dwtag  DW_TAG_subprogram, DW_AT_name("USER_getErrorCode")
     383                      .dwattr $C$DW$59, DW_AT_TI_symbol_name("_USER_getErrorCode")
     384                      .dwattr $C$DW$59, DW_AT_type(*$C$DW$T$97)
     385                      .dwattr $C$DW$59, DW_AT_declaration
     386                      .dwattr $C$DW$59, DW_AT_external
     387              $C$DW$60        .dwtag  DW_TAG_formal_parameter
     388                      .dwattr $C$DW$60, DW_AT_type(*$C$DW$T$140)
     389                      .dwendtag $C$DW$59
     390              
     391              
     392              $C$DW$61        .dwtag  DW_TAG_subprogram, DW_AT_name("EST_getState")
     393                      .dwattr $C$DW$61, DW_AT_TI_symbol_name("_EST_getState")
     394                      .dwattr $C$DW$61, DW_AT_type(*$C$DW$T$95)
     395                      .dwattr $C$DW$61, DW_AT_declaration
     396                      .dwattr $C$DW$61, DW_AT_external
     397              $C$DW$62        .dwtag  DW_TAG_formal_parameter
     398                      .dwattr $C$DW$62, DW_AT_type(*$C$DW$T$135)
     399                      .dwendtag $C$DW$61
     400              
     401              
     402              $C$DW$63        .dwtag  DW_TAG_subprogram, DW_AT_name("HAL_init")
     403                      .dwattr $C$DW$63, DW_AT_TI_symbol_name("_HAL_init")
     404                      .dwattr $C$DW$63, DW_AT_type(*$C$DW$T$174)
     405                      .dwattr $C$DW$63, DW_AT_declaration
     406                      .dwattr $C$DW$63, DW_AT_external
     407              $C$DW$64        .dwtag  DW_TAG_formal_parameter
     408                      .dwattr $C$DW$64, DW_AT_type(*$C$DW$T$3)
     409              $C$DW$65        .dwtag  DW_TAG_formal_parameter
     410                      .dwattr $C$DW$65, DW_AT_type(*$C$DW$T$159)
     411                      .dwendtag $C$DW$63
     412              
     413                      .global _gFlux_pu_to_Wb_sf
     414 00000002       _gFlux_pu_to_Wb_sf:     .usect  ".ebss",2,1,1
     415              $C$DW$66        .dwtag  DW_TAG_variable, DW_AT_name("gFlux_pu_to_Wb_sf")
TMS320C2000 Assembler PC v6.2.5 Thu Jun 22 08:44:25 2017

Tools Copyright (c) 1996-2014 Texas Instruments Incorporated
C:\Users\wmj\AppData\Local\Temp\0846811                              PAGE   10

     416                      .dwattr $C$DW$66, DW_AT_TI_symbol_name("_gFlux_pu_to_Wb_sf")
     417                      .dwattr $C$DW$66, DW_AT_location[DW_OP_addr _gFlux_pu_to_Wb_sf]
     418                      .dwattr $C$DW$66, DW_AT_type(*$C$DW$T$32)
     419                      .dwattr $C$DW$66, DW_AT_external
     420              $C$DW$67        .dwtag  DW_TAG_variable, DW_AT_name("RamfuncsRunStart")
     421                      .dwattr $C$DW$67, DW_AT_TI_symbol_name("_RamfuncsRunStart")
     422                      .dwattr $C$DW$67, DW_AT_type(*$C$DW$T$226)
     423                      .dwattr $C$DW$67, DW_AT_declaration
     424                      .dwattr $C$DW$67, DW_AT_external
     425              $C$DW$68        .dwtag  DW_TAG_variable, DW_AT_name("RamfuncsLoadEnd")
     426                      .dwattr $C$DW$68, DW_AT_TI_symbol_name("_RamfuncsLoadEnd")
     427                      .dwattr $C$DW$68, DW_AT_type(*$C$DW$T$226)
     428                      .dwattr $C$DW$68, DW_AT_declaration
     429                      .dwattr $C$DW$68, DW_AT_external
     430                      .global _gSpeed_hz_to_krpm_sf
     431 00000004       _gSpeed_hz_to_krpm_sf:  .usect  ".ebss",2,1,1
     432              $C$DW$69        .dwtag  DW_TAG_variable, DW_AT_name("gSpeed_hz_to_krpm_sf")
     433                      .dwattr $C$DW$69, DW_AT_TI_symbol_name("_gSpeed_hz_to_krpm_sf")
     434                      .dwattr $C$DW$69, DW_AT_location[DW_OP_addr _gSpeed_hz_to_krpm_sf]
     435                      .dwattr $C$DW$69, DW_AT_type(*$C$DW$T$32)
     436                      .dwattr $C$DW$69, DW_AT_external
     437                      .global _gSpeed_krpm_to_pu_sf
     438 00000006       _gSpeed_krpm_to_pu_sf:  .usect  ".ebss",2,1,1
     439              $C$DW$70        .dwtag  DW_TAG_variable, DW_AT_name("gSpeed_krpm_to_pu_sf")
     440                      .dwattr $C$DW$70, DW_AT_TI_symbol_name("_gSpeed_krpm_to_pu_sf")
     441                      .dwattr $C$DW$70, DW_AT_location[DW_OP_addr _gSpeed_krpm_to_pu_sf]
     442                      .dwattr $C$DW$70, DW_AT_type(*$C$DW$T$32)
     443                      .dwattr $C$DW$70, DW_AT_external
     444                      .global _gTorque_Ls_Id_Iq_pu_to_Nm_sf
     445 00000008       _gTorque_Ls_Id_Iq_pu_to_Nm_sf:  .usect  ".ebss",2,1,1
     446              $C$DW$71        .dwtag  DW_TAG_variable, DW_AT_name("gTorque_Ls_Id_Iq_pu_to_Nm_sf")
     447                      .dwattr $C$DW$71, DW_AT_TI_symbol_name("_gTorque_Ls_Id_Iq_pu_to_Nm_sf")
     448                      .dwattr $C$DW$71, DW_AT_location[DW_OP_addr _gTorque_Ls_Id_Iq_pu_to_Nm_sf]
     449                      .dwattr $C$DW$71, DW_AT_type(*$C$DW$T$32)
     450                      .dwattr $C$DW$71, DW_AT_external
     451                      .global _gTorque_Flux_Iq_pu_to_Nm_sf
     452 0000000a       _gTorque_Flux_Iq_pu_to_Nm_sf:   .usect  ".ebss",2,1,1
     453              $C$DW$72        .dwtag  DW_TAG_variable, DW_AT_name("gTorque_Flux_Iq_pu_to_Nm_sf")
     454                      .dwattr $C$DW$72, DW_AT_TI_symbol_name("_gTorque_Flux_Iq_pu_to_Nm_sf")
     455                      .dwattr $C$DW$72, DW_AT_location[DW_OP_addr _gTorque_Flux_Iq_pu_to_Nm_sf]
     456                      .dwattr $C$DW$72, DW_AT_type(*$C$DW$T$32)
     457                      .dwattr $C$DW$72, DW_AT_external
     458                      .global _gFlux_pu_to_VpHz_sf
     459 0000000c       _gFlux_pu_to_VpHz_sf:   .usect  ".ebss",2,1,1
     460              $C$DW$73        .dwtag  DW_TAG_variable, DW_AT_name("gFlux_pu_to_VpHz_sf")
     461                      .dwattr $C$DW$73, DW_AT_TI_symbol_name("_gFlux_pu_to_VpHz_sf")
     462                      .dwattr $C$DW$73, DW_AT_location[DW_OP_addr _gFlux_pu_to_VpHz_sf]
     463                      .dwattr $C$DW$73, DW_AT_type(*$C$DW$T$32)
     464                      .dwattr $C$DW$73, DW_AT_external
     465                      .global _clarkeHandle_V
     466 0000000e       _clarkeHandle_V:        .usect  ".ebss",2,1,1
     467              $C$DW$74        .dwtag  DW_TAG_variable, DW_AT_name("clarkeHandle_V")
     468                      .dwattr $C$DW$74, DW_AT_TI_symbol_name("_clarkeHandle_V")
     469                      .dwattr $C$DW$74, DW_AT_location[DW_OP_addr _clarkeHandle_V]
     470                      .dwattr $C$DW$74, DW_AT_type(*$C$DW$T$156)
TMS320C2000 Assembler PC v6.2.5 Thu Jun 22 08:44:25 2017

Tools Copyright (c) 1996-2014 Texas Instruments Incorporated
C:\Users\wmj\AppData\Local\Temp\0846811                              PAGE   11

     471                      .dwattr $C$DW$74, DW_AT_external
     472                      .global _estHandle
     473 00000010       _estHandle:     .usect  ".ebss",2,1,1
     474              $C$DW$75        .dwtag  DW_TAG_variable, DW_AT_name("estHandle")
     475                      .dwattr $C$DW$75, DW_AT_TI_symbol_name("_estHandle")
     476                      .dwattr $C$DW$75, DW_AT_location[DW_OP_addr _estHandle]
     477                      .dwattr $C$DW$75, DW_AT_type(*$C$DW$T$135)
     478                      .dwattr $C$DW$75, DW_AT_external
     479                      .global _clarkeHandle_I
     480 00000012       _clarkeHandle_I:        .usect  ".ebss",2,1,1
     481              $C$DW$76        .dwtag  DW_TAG_variable, DW_AT_name("clarkeHandle_I")
     482                      .dwattr $C$DW$76, DW_AT_TI_symbol_name("_clarkeHandle_I")
     483                      .dwattr $C$DW$76, DW_AT_location[DW_OP_addr _clarkeHandle_I]
     484                      .dwattr $C$DW$76, DW_AT_type(*$C$DW$T$156)
     485                      .dwattr $C$DW$76, DW_AT_external
     486              
     487              $C$DW$77        .dwtag  DW_TAG_subprogram, DW_AT_name("EST_init")
     488                      .dwattr $C$DW$77, DW_AT_TI_symbol_name("_EST_init")
     489                      .dwattr $C$DW$77, DW_AT_type(*$C$DW$T$135)
     490                      .dwattr $C$DW$77, DW_AT_declaration
     491                      .dwattr $C$DW$77, DW_AT_external
     492              $C$DW$78        .dwtag  DW_TAG_formal_parameter
     493                      .dwattr $C$DW$78, DW_AT_type(*$C$DW$T$3)
     494              $C$DW$79        .dwtag  DW_TAG_formal_parameter
     495                      .dwattr $C$DW$79, DW_AT_type(*$C$DW$T$159)
     496                      .dwendtag $C$DW$77
     497              
     498                      .global _halHandle
     499 00000014       _halHandle:     .usect  ".ebss",2,1,1
     500              $C$DW$80        .dwtag  DW_TAG_variable, DW_AT_name("halHandle")
     501                      .dwattr $C$DW$80, DW_AT_TI_symbol_name("_halHandle")
     502                      .dwattr $C$DW$80, DW_AT_location[DW_OP_addr _halHandle]
     503                      .dwattr $C$DW$80, DW_AT_type(*$C$DW$T$174)
     504                      .dwattr $C$DW$80, DW_AT_external
     505              $C$DW$81        .dwtag  DW_TAG_variable, DW_AT_name("RamfuncsLoadStart")
     506                      .dwattr $C$DW$81, DW_AT_TI_symbol_name("_RamfuncsLoadStart")
     507                      .dwattr $C$DW$81, DW_AT_type(*$C$DW$T$226)
     508                      .dwattr $C$DW$81, DW_AT_declaration
     509                      .dwattr $C$DW$81, DW_AT_external
     510                      .global _svgenHandle
     511 00000016       _svgenHandle:   .usect  ".ebss",2,1,1
     512              $C$DW$82        .dwtag  DW_TAG_variable, DW_AT_name("svgenHandle")
     513                      .dwattr $C$DW$82, DW_AT_TI_symbol_name("_svgenHandle")
     514                      .dwattr $C$DW$82, DW_AT_location[DW_OP_addr _svgenHandle]
     515                      .dwattr $C$DW$82, DW_AT_type(*$C$DW$T$218)
     516                      .dwattr $C$DW$82, DW_AT_external
     517                      .global _svgen
     518 00000018       _svgen: .usect  ".ebss",2,1,1
     519              $C$DW$83        .dwtag  DW_TAG_variable, DW_AT_name("svgen")
     520                      .dwattr $C$DW$83, DW_AT_TI_symbol_name("_svgen")
     521                      .dwattr $C$DW$83, DW_AT_location[DW_OP_addr _svgen]
     522                      .dwattr $C$DW$83, DW_AT_type(*$C$DW$T$216)
     523                      .dwattr $C$DW$83, DW_AT_external
     524              
     525              $C$DW$84        .dwtag  DW_TAG_subprogram, DW_AT_name("log")
TMS320C2000 Assembler PC v6.2.5 Thu Jun 22 08:44:25 2017

Tools Copyright (c) 1996-2014 Texas Instruments Incorporated
C:\Users\wmj\AppData\Local\Temp\0846811                              PAGE   12

     526                      .dwattr $C$DW$84, DW_AT_TI_symbol_name("_log")
     527                      .dwattr $C$DW$84, DW_AT_type(*$C$DW$T$17)
     528                      .dwattr $C$DW$84, DW_AT_declaration
     529                      .dwattr $C$DW$84, DW_AT_external
     530              $C$DW$85        .dwtag  DW_TAG_formal_parameter
     531                      .dwattr $C$DW$85, DW_AT_type(*$C$DW$T$17)
     532                      .dwendtag $C$DW$84
     533              
     534              
     535              $C$DW$86        .dwtag  DW_TAG_subprogram, DW_AT_name("EST_getIdRated")
     536                      .dwattr $C$DW$86, DW_AT_TI_symbol_name("_EST_getIdRated")
     537                      .dwattr $C$DW$86, DW_AT_type(*$C$DW$T$99)
     538                      .dwattr $C$DW$86, DW_AT_declaration
     539                      .dwattr $C$DW$86, DW_AT_external
     540              $C$DW$87        .dwtag  DW_TAG_formal_parameter
     541                      .dwattr $C$DW$87, DW_AT_type(*$C$DW$T$135)
     542                      .dwendtag $C$DW$86
     543              
     544              
     545              $C$DW$88        .dwtag  DW_TAG_subprogram, DW_AT_name("__IQmpy")
     546                      .dwattr $C$DW$88, DW_AT_TI_symbol_name("___IQmpy")
     547                      .dwattr $C$DW$88, DW_AT_type(*$C$DW$T$12)
     548                      .dwattr $C$DW$88, DW_AT_declaration
     549                      .dwattr $C$DW$88, DW_AT_external
     550              $C$DW$89        .dwtag  DW_TAG_formal_parameter
     551                      .dwattr $C$DW$89, DW_AT_type(*$C$DW$T$12)
     552              $C$DW$90        .dwtag  DW_TAG_formal_parameter
     553                      .dwattr $C$DW$90, DW_AT_type(*$C$DW$T$12)
     554              $C$DW$91        .dwtag  DW_TAG_formal_parameter
     555                      .dwattr $C$DW$91, DW_AT_type(*$C$DW$T$10)
     556                      .dwendtag $C$DW$88
     557              
     558              
     559              $C$DW$92        .dwtag  DW_TAG_subprogram, DW_AT_name("EST_getFm_pu")
     560                      .dwattr $C$DW$92, DW_AT_TI_symbol_name("_EST_getFm_pu")
     561                      .dwattr $C$DW$92, DW_AT_type(*$C$DW$T$32)
     562                      .dwattr $C$DW$92, DW_AT_declaration
     563                      .dwattr $C$DW$92, DW_AT_external
     564              $C$DW$93        .dwtag  DW_TAG_formal_parameter
     565                      .dwattr $C$DW$93, DW_AT_type(*$C$DW$T$135)
     566                      .dwendtag $C$DW$92
     567              
     568              
     569              $C$DW$94        .dwtag  DW_TAG_subprogram, DW_AT_name("labs")
     570                      .dwattr $C$DW$94, DW_AT_TI_symbol_name("_labs")
     571                      .dwattr $C$DW$94, DW_AT_type(*$C$DW$T$12)
     572                      .dwattr $C$DW$94, DW_AT_declaration
     573                      .dwattr $C$DW$94, DW_AT_external
     574              $C$DW$95        .dwtag  DW_TAG_formal_parameter
     575                      .dwattr $C$DW$95, DW_AT_type(*$C$DW$T$12)
     576                      .dwendtag $C$DW$94
     577              
     578              
     579              $C$DW$96        .dwtag  DW_TAG_subprogram, DW_AT_name("EST_getLs_d_pu")
     580                      .dwattr $C$DW$96, DW_AT_TI_symbol_name("_EST_getLs_d_pu")
TMS320C2000 Assembler PC v6.2.5 Thu Jun 22 08:44:25 2017

Tools Copyright (c) 1996-2014 Texas Instruments Incorporated
C:\Users\wmj\AppData\Local\Temp\0846811                              PAGE   13

     581                      .dwattr $C$DW$96, DW_AT_type(*$C$DW$T$32)
     582                      .dwattr $C$DW$96, DW_AT_declaration
     583                      .dwattr $C$DW$96, DW_AT_external
     584              $C$DW$97        .dwtag  DW_TAG_formal_parameter
     585                      .dwattr $C$DW$97, DW_AT_type(*$C$DW$T$135)
     586                      .dwendtag $C$DW$96
     587              
     588              
     589              $C$DW$98        .dwtag  DW_TAG_subprogram, DW_AT_name("EST_getLs_d_H")
     590                      .dwattr $C$DW$98, DW_AT_TI_symbol_name("_EST_getLs_d_H")
     591                      .dwattr $C$DW$98, DW_AT_type(*$C$DW$T$99)
     592                      .dwattr $C$DW$98, DW_AT_declaration
     593                      .dwattr $C$DW$98, DW_AT_external
     594              $C$DW$99        .dwtag  DW_TAG_formal_parameter
     595                      .dwattr $C$DW$99, DW_AT_type(*$C$DW$T$135)
     596                      .dwendtag $C$DW$98
     597              
     598              
     599              $C$DW$100       .dwtag  DW_TAG_subprogram, DW_AT_name("pow")
     600                      .dwattr $C$DW$100, DW_AT_TI_symbol_name("_pow")
     601                      .dwattr $C$DW$100, DW_AT_type(*$C$DW$T$17)
     602                      .dwattr $C$DW$100, DW_AT_declaration
     603                      .dwattr $C$DW$100, DW_AT_external
     604              $C$DW$101       .dwtag  DW_TAG_formal_parameter
     605                      .dwattr $C$DW$101, DW_AT_type(*$C$DW$T$17)
     606              $C$DW$102       .dwtag  DW_TAG_formal_parameter
     607                      .dwattr $C$DW$102, DW_AT_type(*$C$DW$T$17)
     608                      .dwendtag $C$DW$100
     609              
     610              
     611              $C$DW$103       .dwtag  DW_TAG_subprogram, DW_AT_name("_IQ30toF")
     612                      .dwattr $C$DW$103, DW_AT_TI_symbol_name("__IQ30toF")
     613                      .dwattr $C$DW$103, DW_AT_type(*$C$DW$T$16)
     614                      .dwattr $C$DW$103, DW_AT_declaration
     615                      .dwattr $C$DW$103, DW_AT_external
     616              $C$DW$104       .dwtag  DW_TAG_formal_parameter
     617                      .dwattr $C$DW$104, DW_AT_type(*$C$DW$T$12)
     618                      .dwendtag $C$DW$103
     619              
     620              
     621              $C$DW$105       .dwtag  DW_TAG_subprogram, DW_AT_name("_IQ24cosPU")
     622                      .dwattr $C$DW$105, DW_AT_TI_symbol_name("__IQ24cosPU")
     623                      .dwattr $C$DW$105, DW_AT_type(*$C$DW$T$12)
     624                      .dwattr $C$DW$105, DW_AT_declaration
     625                      .dwattr $C$DW$105, DW_AT_external
     626              $C$DW$106       .dwtag  DW_TAG_formal_parameter
     627                      .dwattr $C$DW$106, DW_AT_type(*$C$DW$T$12)
     628                      .dwendtag $C$DW$105
     629              
     630              
     631              $C$DW$107       .dwtag  DW_TAG_subprogram, DW_AT_name("modf")
     632                      .dwattr $C$DW$107, DW_AT_TI_symbol_name("_modf")
     633                      .dwattr $C$DW$107, DW_AT_type(*$C$DW$T$17)
     634                      .dwattr $C$DW$107, DW_AT_declaration
     635                      .dwattr $C$DW$107, DW_AT_external
TMS320C2000 Assembler PC v6.2.5 Thu Jun 22 08:44:25 2017

Tools Copyright (c) 1996-2014 Texas Instruments Incorporated
C:\Users\wmj\AppData\Local\Temp\0846811                              PAGE   14

     636              $C$DW$108       .dwtag  DW_TAG_formal_parameter
     637                      .dwattr $C$DW$108, DW_AT_type(*$C$DW$T$17)
     638              $C$DW$109       .dwtag  DW_TAG_formal_parameter
     639                      .dwattr $C$DW$109, DW_AT_type(*$C$DW$T$307)
     640                      .dwendtag $C$DW$107
     641              
     642              
     643              $C$DW$110       .dwtag  DW_TAG_subprogram, DW_AT_name("_IQ24sinPU")
     644                      .dwattr $C$DW$110, DW_AT_TI_symbol_name("__IQ24sinPU")
     645                      .dwattr $C$DW$110, DW_AT_type(*$C$DW$T$12)
     646                      .dwattr $C$DW$110, DW_AT_declaration
     647                      .dwattr $C$DW$110, DW_AT_external
     648              $C$DW$111       .dwtag  DW_TAG_formal_parameter
     649                      .dwattr $C$DW$111, DW_AT_type(*$C$DW$T$12)
     650                      .dwendtag $C$DW$110
     651              
     652              
     653              $C$DW$112       .dwtag  DW_TAG_subprogram, DW_AT_name("EST_getFlux_VpHz")
     654                      .dwattr $C$DW$112, DW_AT_TI_symbol_name("_EST_getFlux_VpHz")
     655                      .dwattr $C$DW$112, DW_AT_type(*$C$DW$T$99)
     656                      .dwattr $C$DW$112, DW_AT_declaration
     657                      .dwattr $C$DW$112, DW_AT_external
     658              $C$DW$113       .dwtag  DW_TAG_formal_parameter
     659                      .dwattr $C$DW$113, DW_AT_type(*$C$DW$T$135)
     660                      .dwendtag $C$DW$112
     661              
     662              
     663              $C$DW$114       .dwtag  DW_TAG_subprogram, DW_AT_name("EST_getFlux_pu")
     664                      .dwattr $C$DW$114, DW_AT_TI_symbol_name("_EST_getFlux_pu")
     665                      .dwattr $C$DW$114, DW_AT_type(*$C$DW$T$32)
     666                      .dwattr $C$DW$114, DW_AT_declaration
     667                      .dwattr $C$DW$114, DW_AT_external
     668              $C$DW$115       .dwtag  DW_TAG_formal_parameter
     669                      .dwattr $C$DW$115, DW_AT_type(*$C$DW$T$135)
     670                      .dwendtag $C$DW$114
     671              
     672              
     673              $C$DW$116       .dwtag  DW_TAG_subprogram, DW_AT_name("_IQ24sqrt")
     674                      .dwattr $C$DW$116, DW_AT_TI_symbol_name("__IQ24sqrt")
     675                      .dwattr $C$DW$116, DW_AT_type(*$C$DW$T$12)
     676                      .dwattr $C$DW$116, DW_AT_declaration
     677                      .dwattr $C$DW$116, DW_AT_external
     678              $C$DW$117       .dwtag  DW_TAG_formal_parameter
     679                      .dwattr $C$DW$117, DW_AT_type(*$C$DW$T$12)
     680                      .dwendtag $C$DW$116
     681              
     682              
     683              $C$DW$118       .dwtag  DW_TAG_subprogram, DW_AT_name("EST_getAngle_pu")
     684                      .dwattr $C$DW$118, DW_AT_TI_symbol_name("_EST_getAngle_pu")
     685                      .dwattr $C$DW$118, DW_AT_type(*$C$DW$T$32)
     686                      .dwattr $C$DW$118, DW_AT_declaration
     687                      .dwattr $C$DW$118, DW_AT_external
     688              $C$DW$119       .dwtag  DW_TAG_formal_parameter
     689                      .dwattr $C$DW$119, DW_AT_type(*$C$DW$T$135)
     690                      .dwendtag $C$DW$118
TMS320C2000 Assembler PC v6.2.5 Thu Jun 22 08:44:25 2017

Tools Copyright (c) 1996-2014 Texas Instruments Incorporated
C:\Users\wmj\AppData\Local\Temp\0846811                              PAGE   15

     691              
     692              
     693              $C$DW$120       .dwtag  DW_TAG_subprogram, DW_AT_name("__IQsat")
     694                      .dwattr $C$DW$120, DW_AT_TI_symbol_name("___IQsat")
     695                      .dwattr $C$DW$120, DW_AT_type(*$C$DW$T$12)
     696                      .dwattr $C$DW$120, DW_AT_declaration
     697                      .dwattr $C$DW$120, DW_AT_external
     698              $C$DW$121       .dwtag  DW_TAG_formal_parameter
     699                      .dwattr $C$DW$121, DW_AT_type(*$C$DW$T$12)
     700              $C$DW$122       .dwtag  DW_TAG_formal_parameter
     701                      .dwattr $C$DW$122, DW_AT_type(*$C$DW$T$12)
     702              $C$DW$123       .dwtag  DW_TAG_formal_parameter
     703                      .dwattr $C$DW$123, DW_AT_type(*$C$DW$T$12)
     704                      .dwendtag $C$DW$120
     705              
     706              
     707              $C$DW$124       .dwtag  DW_TAG_subprogram, DW_AT_name("USER_computeTorque_Ls_Id_Iq_pu_to_Nm_sf")
     708                      .dwattr $C$DW$124, DW_AT_TI_symbol_name("_USER_computeTorque_Ls_Id_Iq_pu_to_Nm_sf")
     709                      .dwattr $C$DW$124, DW_AT_type(*$C$DW$T$32)
     710                      .dwattr $C$DW$124, DW_AT_declaration
     711                      .dwattr $C$DW$124, DW_AT_external
     712              
     713              $C$DW$125       .dwtag  DW_TAG_subprogram, DW_AT_name("USER_computeTorque_Flux_Iq_pu_to_Nm_sf")
     714                      .dwattr $C$DW$125, DW_AT_TI_symbol_name("_USER_computeTorque_Flux_Iq_pu_to_Nm_sf")
     715                      .dwattr $C$DW$125, DW_AT_type(*$C$DW$T$32)
     716                      .dwattr $C$DW$125, DW_AT_declaration
     717                      .dwattr $C$DW$125, DW_AT_external
     718              
     719              $C$DW$126       .dwtag  DW_TAG_subprogram, DW_AT_name("PID_init")
     720                      .dwattr $C$DW$126, DW_AT_TI_symbol_name("_PID_init")
     721                      .dwattr $C$DW$126, DW_AT_type(*$C$DW$T$205)
     722                      .dwattr $C$DW$126, DW_AT_declaration
     723                      .dwattr $C$DW$126, DW_AT_external
     724              $C$DW$127       .dwtag  DW_TAG_formal_parameter
     725                      .dwattr $C$DW$127, DW_AT_type(*$C$DW$T$3)
     726              $C$DW$128       .dwtag  DW_TAG_formal_parameter
     727                      .dwattr $C$DW$128, DW_AT_type(*$C$DW$T$159)
     728                      .dwendtag $C$DW$126
     729              
     730              
     731              $C$DW$129       .dwtag  DW_TAG_subprogram, DW_AT_name("SVGEN_init")
     732                      .dwattr $C$DW$129, DW_AT_TI_symbol_name("_SVGEN_init")
     733                      .dwattr $C$DW$129, DW_AT_type(*$C$DW$T$218)
     734                      .dwattr $C$DW$129, DW_AT_declaration
     735                      .dwattr $C$DW$129, DW_AT_external
     736              $C$DW$130       .dwtag  DW_TAG_formal_parameter
     737                      .dwattr $C$DW$130, DW_AT_type(*$C$DW$T$3)
     738              $C$DW$131       .dwtag  DW_TAG_formal_parameter
     739                      .dwattr $C$DW$131, DW_AT_type(*$C$DW$T$159)
     740                      .dwendtag $C$DW$129
     741              
     742                      .global _iparkHandle
     743 0000001a       _iparkHandle:   .usect  ".ebss",2,1,1
     744              $C$DW$132       .dwtag  DW_TAG_variable, DW_AT_name("iparkHandle")
     745                      .dwattr $C$DW$132, DW_AT_TI_symbol_name("_iparkHandle")
TMS320C2000 Assembler PC v6.2.5 Thu Jun 22 08:44:25 2017

Tools Copyright (c) 1996-2014 Texas Instruments Incorporated
C:\Users\wmj\AppData\Local\Temp\0846811                              PAGE   16

     746                      .dwattr $C$DW$132, DW_AT_location[DW_OP_addr _iparkHandle]
     747                      .dwattr $C$DW$132, DW_AT_type(*$C$DW$T$184)
     748                      .dwattr $C$DW$132, DW_AT_external
     749              
     750              $C$DW$133       .dwtag  DW_TAG_subprogram, DW_AT_name("USER_computeFlux_pu_to_Wb_sf")
     751                      .dwattr $C$DW$133, DW_AT_TI_symbol_name("_USER_computeFlux_pu_to_Wb_sf")
     752                      .dwattr $C$DW$133, DW_AT_type(*$C$DW$T$32)
     753                      .dwattr $C$DW$133, DW_AT_declaration
     754                      .dwattr $C$DW$133, DW_AT_external
     755              
     756              $C$DW$134       .dwtag  DW_TAG_subprogram, DW_AT_name("USER_computeFlux_pu_to_VpHz_sf")
     757                      .dwattr $C$DW$134, DW_AT_TI_symbol_name("_USER_computeFlux_pu_to_VpHz_sf")
     758                      .dwattr $C$DW$134, DW_AT_type(*$C$DW$T$32)
     759                      .dwattr $C$DW$134, DW_AT_declaration
     760                      .dwattr $C$DW$134, DW_AT_external
     761              
     762              $C$DW$135       .dwtag  DW_TAG_subprogram, DW_AT_name("EST_getOneOverDcBus_pu")
     763                      .dwattr $C$DW$135, DW_AT_TI_symbol_name("_EST_getOneOverDcBus_pu")
     764                      .dwattr $C$DW$135, DW_AT_type(*$C$DW$T$32)
     765                      .dwattr $C$DW$135, DW_AT_declaration
     766                      .dwattr $C$DW$135, DW_AT_external
     767              $C$DW$136       .dwtag  DW_TAG_formal_parameter
     768                      .dwattr $C$DW$136, DW_AT_type(*$C$DW$T$135)
     769                      .dwendtag $C$DW$135
     770              
     771              
     772              $C$DW$137       .dwtag  DW_TAG_subprogram, DW_AT_name("EST_getRr_Ohm")
     773                      .dwattr $C$DW$137, DW_AT_TI_symbol_name("_EST_getRr_Ohm")
     774                      .dwattr $C$DW$137, DW_AT_type(*$C$DW$T$99)
     775                      .dwattr $C$DW$137, DW_AT_declaration
     776                      .dwattr $C$DW$137, DW_AT_external
     777              $C$DW$138       .dwtag  DW_TAG_formal_parameter
     778                      .dwattr $C$DW$138, DW_AT_type(*$C$DW$T$135)
     779                      .dwendtag $C$DW$137
     780              
     781              
     782              $C$DW$139       .dwtag  DW_TAG_subprogram, DW_AT_name("EST_getLs_q_pu")
     783                      .dwattr $C$DW$139, DW_AT_TI_symbol_name("_EST_getLs_q_pu")
     784                      .dwattr $C$DW$139, DW_AT_type(*$C$DW$T$32)
     785                      .dwattr $C$DW$139, DW_AT_declaration
     786                      .dwattr $C$DW$139, DW_AT_external
     787              $C$DW$140       .dwtag  DW_TAG_formal_parameter
     788                      .dwattr $C$DW$140, DW_AT_type(*$C$DW$T$135)
     789                      .dwendtag $C$DW$139
     790              
     791              
     792              $C$DW$141       .dwtag  DW_TAG_subprogram, DW_AT_name("EST_getLs_coarse_max_pu")
     793                      .dwattr $C$DW$141, DW_AT_TI_symbol_name("_EST_getLs_coarse_max_pu")
     794                      .dwattr $C$DW$141, DW_AT_type(*$C$DW$T$32)
     795                      .dwattr $C$DW$141, DW_AT_declaration
     796                      .dwattr $C$DW$141, DW_AT_external
     797              $C$DW$142       .dwtag  DW_TAG_formal_parameter
     798                      .dwattr $C$DW$142, DW_AT_type(*$C$DW$T$135)
     799                      .dwendtag $C$DW$141
     800              
TMS320C2000 Assembler PC v6.2.5 Thu Jun 22 08:44:25 2017

Tools Copyright (c) 1996-2014 Texas Instruments Incorporated
C:\Users\wmj\AppData\Local\Temp\0846811                              PAGE   17

     801              
     802              $C$DW$143       .dwtag  DW_TAG_subprogram, DW_AT_name("EST_getLs_q_H")
     803                      .dwattr $C$DW$143, DW_AT_TI_symbol_name("_EST_getLs_q_H")
     804                      .dwattr $C$DW$143, DW_AT_type(*$C$DW$T$99)
     805                      .dwattr $C$DW$143, DW_AT_declaration
     806                      .dwattr $C$DW$143, DW_AT_external
     807              $C$DW$144       .dwtag  DW_TAG_formal_parameter
     808                      .dwattr $C$DW$144, DW_AT_type(*$C$DW$T$135)
     809                      .dwendtag $C$DW$143
     810              
     811              
     812              $C$DW$145       .dwtag  DW_TAG_subprogram, DW_AT_name("CLARKE_init")
     813                      .dwattr $C$DW$145, DW_AT_TI_symbol_name("_CLARKE_init")
     814                      .dwattr $C$DW$145, DW_AT_type(*$C$DW$T$156)
     815                      .dwattr $C$DW$145, DW_AT_declaration
     816                      .dwattr $C$DW$145, DW_AT_external
     817              $C$DW$146       .dwtag  DW_TAG_formal_parameter
     818                      .dwattr $C$DW$146, DW_AT_type(*$C$DW$T$3)
     819              $C$DW$147       .dwtag  DW_TAG_formal_parameter
     820                      .dwattr $C$DW$147, DW_AT_type(*$C$DW$T$159)
     821                      .dwendtag $C$DW$145
     822              
     823              
     824              $C$DW$148       .dwtag  DW_TAG_subprogram, DW_AT_name("IPARK_init")
     825                      .dwattr $C$DW$148, DW_AT_TI_symbol_name("_IPARK_init")
     826                      .dwattr $C$DW$148, DW_AT_type(*$C$DW$T$184)
     827                      .dwattr $C$DW$148, DW_AT_declaration
     828                      .dwattr $C$DW$148, DW_AT_external
     829              $C$DW$149       .dwtag  DW_TAG_formal_parameter
     830                      .dwattr $C$DW$149, DW_AT_type(*$C$DW$T$3)
     831              $C$DW$150       .dwtag  DW_TAG_formal_parameter
     832                      .dwattr $C$DW$150, DW_AT_type(*$C$DW$T$159)
     833                      .dwendtag $C$DW$148
     834              
     835              
     836              $C$DW$151       .dwtag  DW_TAG_subprogram, DW_AT_name("EST_getSpeed_krpm")
     837                      .dwattr $C$DW$151, DW_AT_TI_symbol_name("_EST_getSpeed_krpm")
     838                      .dwattr $C$DW$151, DW_AT_type(*$C$DW$T$32)
     839                      .dwattr $C$DW$151, DW_AT_declaration
     840                      .dwattr $C$DW$151, DW_AT_external
     841              $C$DW$152       .dwtag  DW_TAG_formal_parameter
     842                      .dwattr $C$DW$152, DW_AT_type(*$C$DW$T$135)
     843                      .dwendtag $C$DW$151
     844              
     845              
     846              $C$DW$153       .dwtag  DW_TAG_subprogram, DW_AT_name("EST_getRs_Ohm")
     847                      .dwattr $C$DW$153, DW_AT_TI_symbol_name("_EST_getRs_Ohm")
     848                      .dwattr $C$DW$153, DW_AT_type(*$C$DW$T$99)
     849                      .dwattr $C$DW$153, DW_AT_declaration
     850                      .dwattr $C$DW$153, DW_AT_external
     851              $C$DW$154       .dwtag  DW_TAG_formal_parameter
     852                      .dwattr $C$DW$154, DW_AT_type(*$C$DW$T$135)
     853                      .dwendtag $C$DW$153
     854              
     855                      .global _gVdq_out_pu
TMS320C2000 Assembler PC v6.2.5 Thu Jun 22 08:44:25 2017

Tools Copyright (c) 1996-2014 Texas Instruments Incorporated
C:\Users\wmj\AppData\Local\Temp\0846811                              PAGE   18

     856 0000001c       _gVdq_out_pu:   .usect  ".ebss",4,1,1
     857              $C$DW$155       .dwtag  DW_TAG_variable, DW_AT_name("gVdq_out_pu")
     858                      .dwattr $C$DW$155, DW_AT_TI_symbol_name("_gVdq_out_pu")
     859                      .dwattr $C$DW$155, DW_AT_location[DW_OP_addr _gVdq_out_pu]
     860                      .dwattr $C$DW$155, DW_AT_type(*$C$DW$T$188)
     861                      .dwattr $C$DW$155, DW_AT_external
     862                      .global _gIdq_pu
     863 00000020       _gIdq_pu:       .usect  ".ebss",4,1,1
     864              $C$DW$156       .dwtag  DW_TAG_variable, DW_AT_name("gIdq_pu")
     865                      .dwattr $C$DW$156, DW_AT_TI_symbol_name("_gIdq_pu")
     866                      .dwattr $C$DW$156, DW_AT_location[DW_OP_addr _gIdq_pu]
     867                      .dwattr $C$DW$156, DW_AT_type(*$C$DW$T$188)
     868                      .dwattr $C$DW$156, DW_AT_external
     869                      .global _ipark
     870 00000024       _ipark: .usect  ".ebss",4,1,1
     871              $C$DW$157       .dwtag  DW_TAG_variable, DW_AT_name("ipark")
     872                      .dwattr $C$DW$157, DW_AT_TI_symbol_name("_ipark")
     873                      .dwattr $C$DW$157, DW_AT_location[DW_OP_addr _ipark]
     874                      .dwattr $C$DW$157, DW_AT_type(*$C$DW$T$181)
     875                      .dwattr $C$DW$157, DW_AT_external
     876                      .global _gIdq_ref_pu
     877 00000028       _gIdq_ref_pu:   .usect  ".ebss",4,1,1
     878              $C$DW$158       .dwtag  DW_TAG_variable, DW_AT_name("gIdq_ref_pu")
     879                      .dwattr $C$DW$158, DW_AT_TI_symbol_name("_gIdq_ref_pu")
     880                      .dwattr $C$DW$158, DW_AT_location[DW_OP_addr _gIdq_ref_pu]
     881                      .dwattr $C$DW$158, DW_AT_type(*$C$DW$T$188)
     882                      .dwattr $C$DW$158, DW_AT_external
     883                      .global _pidHandle
     884 0000002c       _pidHandle:     .usect  ".ebss",6,1,1
     885              $C$DW$159       .dwtag  DW_TAG_variable, DW_AT_name("pidHandle")
     886                      .dwattr $C$DW$159, DW_AT_TI_symbol_name("_pidHandle")
     887                      .dwattr $C$DW$159, DW_AT_location[DW_OP_addr _pidHandle]
     888                      .dwattr $C$DW$159, DW_AT_type(*$C$DW$T$207)
     889                      .dwattr $C$DW$159, DW_AT_external
     890                      .global _gPwmData
     891 00000032       _gPwmData:      .usect  ".ebss",6,1,1
     892              $C$DW$160       .dwtag  DW_TAG_variable, DW_AT_name("gPwmData")
     893                      .dwattr $C$DW$160, DW_AT_TI_symbol_name("_gPwmData")
     894                      .dwattr $C$DW$160, DW_AT_location[DW_OP_addr _gPwmData]
     895                      .dwattr $C$DW$160, DW_AT_type(*$C$DW$T$178)
     896                      .dwattr $C$DW$160, DW_AT_external
     897                      .global _clarke_I
     898 00000038       _clarke_I:      .usect  ".ebss",6,1,1
     899              $C$DW$161       .dwtag  DW_TAG_variable, DW_AT_name("clarke_I")
     900                      .dwattr $C$DW$161, DW_AT_TI_symbol_name("_clarke_I")
     901                      .dwattr $C$DW$161, DW_AT_location[DW_OP_addr _clarke_I]
     902                      .dwattr $C$DW$161, DW_AT_type(*$C$DW$T$154)
     903                      .dwattr $C$DW$161, DW_AT_external
     904                      .global _gOffsets_I_pu
     905 00000040       _gOffsets_I_pu: .usect  ".ebss",6,1,1
     906              $C$DW$162       .dwtag  DW_TAG_variable, DW_AT_name("gOffsets_I_pu")
     907                      .dwattr $C$DW$162, DW_AT_TI_symbol_name("_gOffsets_I_pu")
     908                      .dwattr $C$DW$162, DW_AT_location[DW_OP_addr _gOffsets_I_pu]
     909                      .dwattr $C$DW$162, DW_AT_type(*$C$DW$T$48)
     910                      .dwattr $C$DW$162, DW_AT_external
TMS320C2000 Assembler PC v6.2.5 Thu Jun 22 08:44:25 2017

Tools Copyright (c) 1996-2014 Texas Instruments Incorporated
C:\Users\wmj\AppData\Local\Temp\0846811                              PAGE   19

     911                      .global _gOffsets_V_pu
     912 00000046       _gOffsets_V_pu: .usect  ".ebss",6,1,1
     913              $C$DW$163       .dwtag  DW_TAG_variable, DW_AT_name("gOffsets_V_pu")
     914                      .dwattr $C$DW$163, DW_AT_TI_symbol_name("_gOffsets_V_pu")
     915                      .dwattr $C$DW$163, DW_AT_location[DW_OP_addr _gOffsets_V_pu]
     916                      .dwattr $C$DW$163, DW_AT_type(*$C$DW$T$48)
     917                      .dwattr $C$DW$163, DW_AT_external
     918                      .global _clarke_V
     919 0000004c       _clarke_V:      .usect  ".ebss",6,1,1
     920              $C$DW$164       .dwtag  DW_TAG_variable, DW_AT_name("clarke_V")
     921                      .dwattr $C$DW$164, DW_AT_TI_symbol_name("_clarke_V")
     922                      .dwattr $C$DW$164, DW_AT_location[DW_OP_addr _clarke_V]
     923                      .dwattr $C$DW$164, DW_AT_type(*$C$DW$T$154)
     924                      .dwattr $C$DW$164, DW_AT_external
     925                      .global _gAdcData
     926 00000052       _gAdcData:      .usect  ".ebss",14,1,1
     927              $C$DW$165       .dwtag  DW_TAG_variable, DW_AT_name("gAdcData")
     928                      .dwattr $C$DW$165, DW_AT_TI_symbol_name("_gAdcData")
     929                      .dwattr $C$DW$165, DW_AT_location[DW_OP_addr _gAdcData]
     930                      .dwattr $C$DW$165, DW_AT_type(*$C$DW$T$83)
     931                      .dwattr $C$DW$165, DW_AT_external
     932                      .global _pid
     933 00000080       _pid:   .usect  ".ebss",48,1,1
     934              $C$DW$166       .dwtag  DW_TAG_variable, DW_AT_name("pid")
     935                      .dwattr $C$DW$166, DW_AT_TI_symbol_name("_pid")
     936                      .dwattr $C$DW$166, DW_AT_location[DW_OP_addr _pid]
     937                      .dwattr $C$DW$166, DW_AT_type(*$C$DW$T$202)
     938                      .dwattr $C$DW$166, DW_AT_external
     939                      .global _gMotorVars
     940 000000c0       _gMotorVars:    .usect  ".ebss",128,1,1
     941              $C$DW$167       .dwtag  DW_TAG_variable, DW_AT_name("gMotorVars")
     942                      .dwattr $C$DW$167, DW_AT_TI_symbol_name("_gMotorVars")
     943                      .dwattr $C$DW$167, DW_AT_location[DW_OP_addr _gMotorVars]
     944                      .dwattr $C$DW$167, DW_AT_type(*$C$DW$T$198)
     945                      .dwattr $C$DW$167, DW_AT_external
     946              $C$DW$168       .dwtag  DW_TAG_variable, DW_AT_name("hal")
     947                      .dwattr $C$DW$168, DW_AT_TI_symbol_name("_hal")
     948                      .dwattr $C$DW$168, DW_AT_type(*$C$DW$T$171)
     949                      .dwattr $C$DW$168, DW_AT_declaration
     950                      .dwattr $C$DW$168, DW_AT_external
     951                      .global _gUserParams
     952 00000140       _gUserParams:   .usect  ".ebss",172,1,1
     953              $C$DW$169       .dwtag  DW_TAG_variable, DW_AT_name("gUserParams")
     954                      .dwattr $C$DW$169, DW_AT_TI_symbol_name("_gUserParams")
     955                      .dwattr $C$DW$169, DW_AT_location[DW_OP_addr _gUserParams]
     956                      .dwattr $C$DW$169, DW_AT_type(*$C$DW$T$139)
     957                      .dwattr $C$DW$169, DW_AT_external
     958              ;       c:\ti\ccsv6\tools\compiler\c2000_6.2.5\bin\opt2000.exe C:\\Users\\wmj\\AppData\\Local\\Temp\\084683 C
     959              ;       c:\ti\ccsv6\tools\compiler\c2000_6.2.5\bin\ac2000.exe -@C:\\Users\\wmj\\AppData\\Local\\Temp\\0846817
     960 00000000               .sect   ".text"
     961                      .clink
     962                      .global _updateGlobalVariables
     963              
     964              $C$DW$170       .dwtag  DW_TAG_subprogram, DW_AT_name("updateGlobalVariables")
     965                      .dwattr $C$DW$170, DW_AT_low_pc(_updateGlobalVariables)
TMS320C2000 Assembler PC v6.2.5 Thu Jun 22 08:44:25 2017

Tools Copyright (c) 1996-2014 Texas Instruments Incorporated
C:\Users\wmj\AppData\Local\Temp\0846811                              PAGE   20

     966                      .dwattr $C$DW$170, DW_AT_high_pc(0x00)
     967                      .dwattr $C$DW$170, DW_AT_TI_symbol_name("_updateGlobalVariables")
     968                      .dwattr $C$DW$170, DW_AT_external
     969                      .dwattr $C$DW$170, DW_AT_TI_begin_file("C:/ti/motorware/motorware_1_01_00_18/sw/solutions/instaspin_f
     970                      .dwattr $C$DW$170, DW_AT_TI_begin_line(0x339)
     971                      .dwattr $C$DW$170, DW_AT_TI_begin_column(0x06)
     972                      .dwattr $C$DW$170, DW_AT_TI_max_frame_size(-12)
     973                      .dwpsn  file "C:/ti/motorware/motorware_1_01_00_18/sw/solutions/instaspin_foc/src/proj_lab11.c",line 
     974              
     975                      .dwfde $C$DW$CIE, _updateGlobalVariables
     976              $C$DW$171       .dwtag  DW_TAG_formal_parameter, DW_AT_name("handle")
     977                      .dwattr $C$DW$171, DW_AT_TI_symbol_name("_handle")
     978                      .dwattr $C$DW$171, DW_AT_type(*$C$DW$T$135)
     979                      .dwattr $C$DW$171, DW_AT_location[DW_OP_reg12]
     980              
     981              ;***************************************************************
     982              ;* FNAME: _updateGlobalVariables        FR SIZE:  10           *
     983              ;*                                                             *
     984              ;* FUNCTION ENVIRONMENT                                        *
     985              ;*                                                             *
     986              ;* FUNCTION PROPERTIES                                         *
     987              ;*                            0 Parameter,  4 Auto,  6 SOE     *
     988              ;***************************************************************
     989              
     990              _updateGlobalVariables:
     991              ;* AR4   assigned to $O$C1
     992              ;* AR4   assigned to $O$C2
     993              ;* AR4   assigned to $O$C3
     994              ;* AR1   assigned to _handle
     995              $C$DW$172       .dwtag  DW_TAG_variable, DW_AT_name("handle")
     996                      .dwattr $C$DW$172, DW_AT_TI_symbol_name("_handle")
     997                      .dwattr $C$DW$172, DW_AT_type(*$C$DW$T$164)
     998                      .dwattr $C$DW$172, DW_AT_location[DW_OP_reg6]
     999              $C$DW$173       .dwtag  DW_TAG_variable, DW_AT_name("Flux_pu")
    1000                      .dwattr $C$DW$173, DW_AT_TI_symbol_name("_Flux_pu")
    1001                      .dwattr $C$DW$173, DW_AT_type(*$C$DW$T$32)
    1002                      .dwattr $C$DW$173, DW_AT_location[DW_OP_breg20 -2]
    1003              ;* AR3   assigned to _Id_pu
    1004              $C$DW$174       .dwtag  DW_TAG_variable, DW_AT_name("Id_pu")
    1005                      .dwattr $C$DW$174, DW_AT_TI_symbol_name("_Id_pu")
    1006                      .dwattr $C$DW$174, DW_AT_type(*$C$DW$T$32)
    1007                      .dwattr $C$DW$174, DW_AT_location[DW_OP_reg10]
    1008              ;* AR2   assigned to _Iq_pu
    1009              $C$DW$175       .dwtag  DW_TAG_variable, DW_AT_name("Iq_pu")
    1010                      .dwattr $C$DW$175, DW_AT_TI_symbol_name("_Iq_pu")
    1011                      .dwattr $C$DW$175, DW_AT_type(*$C$DW$T$32)
    1012                      .dwattr $C$DW$175, DW_AT_location[DW_OP_reg8]
    1013              ;* AR7   assigned to _Ld_minus_Lq_pu
    1014              $C$DW$176       .dwtag  DW_TAG_variable, DW_AT_name("Ld_minus_Lq_pu")
    1015                      .dwattr $C$DW$176, DW_AT_TI_symbol_name("_Ld_minus_Lq_pu")
    1016                      .dwattr $C$DW$176, DW_AT_type(*$C$DW$T$32)
    1017                      .dwattr $C$DW$176, DW_AT_location[DW_OP_reg18]
    1018                      .dwcfi  cfa_offset, -2
    1019                      .dwcfi  save_reg_to_mem, 26, 0
    1020                      .dwcfi  save_reg_to_reg, 78, 26
TMS320C2000 Assembler PC v6.2.5 Thu Jun 22 08:44:25 2017

Tools Copyright (c) 1996-2014 Texas Instruments Incorporated
C:\Users\wmj\AppData\Local\Temp\0846811                              PAGE   21

    1021 00000000 B2BD          MOVL      *SP++,XAR1            ; [CPU_] 
    1022                      .dwcfi  save_reg_to_mem, 7, 2
    1023                      .dwcfi  cfa_offset, -4
    1024 00000001 AABD          MOVL      *SP++,XAR2            ; [CPU_] 
    1025                      .dwcfi  save_reg_to_mem, 9, 4
    1026                      .dwcfi  cfa_offset, -6
    1027 00000002 A2BD          MOVL      *SP++,XAR3            ; [CPU_] 
    1028                      .dwcfi  save_reg_to_mem, 11, 6
    1029                      .dwcfi  cfa_offset, -8
    1030 00000003 FE04          ADDB      SP,#4                 ; [CPU_U] 
    1031                      .dwcfi  cfa_offset, -12
    1032 00000004 8BA4          MOVL      XAR1,XAR4             ; [CPU_] |826| 
    1033                      .dwpsn  file "C:/ti/motorware/motorware_1_01_00_18/sw/solutions/instaspin_foc/src/proj_lab11.c",line 
    1034              $C$DW$177       .dwtag  DW_TAG_TI_branch
    1035                      .dwattr $C$DW$177, DW_AT_low_pc(0x00)
    1036                      .dwattr $C$DW$177, DW_AT_name("_EST_getSpeed_krpm")
    1037                      .dwattr $C$DW$177, DW_AT_TI_call
    1038 00000005 7640!         LCR       #_EST_getSpeed_krpm   ; [CPU_] |828| 
         00000006 0000 
    1039                      ; call occurs [#_EST_getSpeed_krpm] ; [] |828| 
    1040 00000007 761F-         MOVW      DP,#_gMotorVars+32    ; [CPU_U] 
         00000008 0003 
    1041                      .dwpsn  file "C:/ti/motorware/motorware_1_01_00_18/sw/solutions/instaspin_foc/src/proj_lab11.c",line 
    1042 00000009 8AA1          MOVL      XAR4,XAR1             ; [CPU_] |832| 
    1043                      .dwpsn  file "C:/ti/motorware/motorware_1_01_00_18/sw/solutions/instaspin_foc/src/proj_lab11.c",line 
    1044 0000000a 1E20-         MOVL      @_gMotorVars+32,ACC   ; [CPU_] |828| 
    1045                      .dwpsn  file "C:/ti/motorware/motorware_1_01_00_18/sw/solutions/instaspin_foc/src/proj_lab11.c",line 
    1046              $C$DW$178       .dwtag  DW_TAG_TI_branch
    1047                      .dwattr $C$DW$178, DW_AT_low_pc(0x00)
    1048                      .dwattr $C$DW$178, DW_AT_name("_EST_getFlux_pu")
    1049                      .dwattr $C$DW$178, DW_AT_TI_call
    1050 0000000b 7640!         LCR       #_EST_getFlux_pu      ; [CPU_] |832| 
         0000000c 0000 
    1051                      ; call occurs [#_EST_getFlux_pu] ; [] |832| 
    1052                      .dwpsn  file "C:/ti/motorware/motorware_1_01_00_18/sw/modules/pid/src/32b/pid.h",line 106,column 3,is
    1053 0000000d 8F00-         MOVL      XAR4,#_pidHandle      ; [CPU_U] |106| 
         0000000e 002C 
    1054                      .dwpsn  file "C:/ti/motorware/motorware_1_01_00_18/sw/solutions/instaspin_foc/src/proj_lab11.c",line 
    1055 0000000f 1E42          MOVL      *-SP[2],ACC           ; [CPU_] |832| 
    1056                      .dwpsn  file "C:/ti/motorware/motorware_1_01_00_18/sw/modules/pid/src/32b/pid.h",line 106,column 3,is
    1057 00000010 83D4          MOVL      XAR5,*+XAR4[2]        ; [CPU_] |106| 
    1058 00000011 8AE4          MOVL      XAR4,*+XAR4[4]        ; [CPU_] |106| 
    1059 00000012 D00A          MOVB      XAR0,#10              ; [CPU_] |106| 
    1060 00000013 8295          MOVL      XAR3,*+XAR5[AR0]      ; [CPU_] |106| 
    1061 00000014 D00A          MOVB      XAR0,#10              ; [CPU_] |106| 
    1062 00000015 8694          MOVL      XAR2,*+XAR4[AR0]      ; [CPU_] |106| 
    1063                      .dwpsn  file "C:/ti/motorware/motorware_1_01_00_18/sw/solutions/instaspin_foc/src/proj_lab11.c",line 
    1064 00000016 8AA1          MOVL      XAR4,XAR1             ; [CPU_] |835| 
    1065              $C$DW$179       .dwtag  DW_TAG_TI_branch
    1066                      .dwattr $C$DW$179, DW_AT_low_pc(0x00)
    1067                      .dwattr $C$DW$179, DW_AT_name("_EST_getLs_q_pu")
    1068                      .dwattr $C$DW$179, DW_AT_TI_call
    1069 00000017 7640!         LCR       #_EST_getLs_q_pu      ; [CPU_] |835| 
         00000018 0000 
    1070                      ; call occurs [#_EST_getLs_q_pu] ; [] |835| 
TMS320C2000 Assembler PC v6.2.5 Thu Jun 22 08:44:25 2017

Tools Copyright (c) 1996-2014 Texas Instruments Incorporated
C:\Users\wmj\AppData\Local\Temp\0846811                              PAGE   22

    1071 00000019 1E44          MOVL      *-SP[4],ACC           ; [CPU_] |835| 
    1072 0000001a 8AA1          MOVL      XAR4,XAR1             ; [CPU_] |835| 
    1073              $C$DW$180       .dwtag  DW_TAG_TI_branch
    1074                      .dwattr $C$DW$180, DW_AT_low_pc(0x00)
    1075                      .dwattr $C$DW$180, DW_AT_name("_EST_getLs_d_pu")
    1076                      .dwattr $C$DW$180, DW_AT_TI_call
    1077 0000001b 7640!         LCR       #_EST_getLs_d_pu      ; [CPU_] |835| 
         0000001c 0000 
    1078                      ; call occurs [#_EST_getLs_d_pu] ; [] |835| 
    1079 0000001d C444          MOVL      XAR6,*-SP[4]          ; [CPU_] |835| 
    1080 0000001e 3B01          SETC      SXM                   ; [CPU_] 
    1081 0000001f 8742          MOVL      XT,*-SP[2]            ; [CPU_] |835| 
    1082 00000020 761F-         MOVW      DP,#_gTorque_Flux_Iq_pu_to_Nm_sf ; [CPU_U] 
         00000021 0000 
    1083 00000022 03A6          SUBL      ACC,XAR6              ; [CPU_] |835| 
    1084                      .dwpsn  file "C:/ti/motorware/motorware_1_01_00_18/sw/solutions/instaspin_foc/src/proj_lab11.c",line 
    1085 00000023 5605          IMPYL     P,XT,XAR2             ; [CPU_] |849| 
         00000024 00A2 
    1086                      .dwpsn  file "C:/ti/motorware/motorware_1_01_00_18/sw/solutions/instaspin_foc/src/proj_lab11.c",line 
    1087 00000025 8AA1          MOVL      XAR4,XAR1             ; [CPU_] |853| 
    1088                      .dwpsn  file "C:/ti/motorware/motorware_1_01_00_18/sw/solutions/instaspin_foc/src/proj_lab11.c",line 
    1089 00000026 FF45          SFR       ACC,6                 ; [CPU_] |835| 
    1090                      .dwpsn  file "C:/ti/motorware/motorware_1_01_00_18/sw/solutions/instaspin_foc/src/proj_lab11.c",line 
    1091 00000027 8742          MOVL      XT,*-SP[2]            ; [CPU_] |849| 
    1092                      .dwpsn  file "C:/ti/motorware/motorware_1_01_00_18/sw/solutions/instaspin_foc/src/proj_lab11.c",line 
    1093 00000028 1EA7          MOVL      XAR7,ACC              ; [CPU_] |835| 
    1094                      .dwpsn  file "C:/ti/motorware/motorware_1_01_00_18/sw/solutions/instaspin_foc/src/proj_lab11.c",line 
    1095 00000029 5663          QMPYL     ACC,XT,XAR2           ; [CPU_] |849| 
         0000002a 00A2 
    1096 0000002b 56A7          LSL64     ACC:P,#8              ; [CPU_] |849| 
    1097 0000002c 1EAC          MOVL      XT,ACC                ; [CPU_] |849| 
    1098 0000002d 5605-         IMPYL     P,XT,@_gTorque_Flux_Iq_pu_to_Nm_sf ; [CPU_] |849| 
         0000002e 000A 
    1099 0000002f 5663-         QMPYL     ACC,XT,@_gTorque_Flux_Iq_pu_to_Nm_sf ; [CPU_] |849| 
         00000030 000A 
    1100 00000031 87A7          MOVL      XT,XAR7               ; [CPU_] |849| 
    1101 00000032 56A7          LSL64     ACC:P,#8              ; [CPU_] |849| 
    1102 00000033 1EA6          MOVL      XAR6,ACC              ; [CPU_] |849| 
    1103 00000034 5605          IMPYL     P,XT,XAR3             ; [CPU_] |849| 
         00000035 00A3 
    1104 00000036 5663          QMPYL     ACC,XT,XAR3           ; [CPU_] |849| 
         00000037 00A3 
    1105 00000038 56A7          LSL64     ACC:P,#8              ; [CPU_] |849| 
    1106 00000039 1EAC          MOVL      XT,ACC                ; [CPU_] |849| 
    1107 0000003a 5605          IMPYL     P,XT,XAR2             ; [CPU_] |849| 
         0000003b 00A2 
    1108 0000003c 5663          QMPYL     ACC,XT,XAR2           ; [CPU_] |849| 
         0000003d 00A2 
    1109 0000003e 56A7          LSL64     ACC:P,#8              ; [CPU_] |849| 
    1110 0000003f 1EAC          MOVL      XT,ACC                ; [CPU_] |849| 
    1111 00000040 5605-         IMPYL     P,XT,@_gTorque_Ls_Id_Iq_pu_to_Nm_sf ; [CPU_] |849| 
         00000041 0008 
    1112 00000042 5663-         QMPYL     ACC,XT,@_gTorque_Ls_Id_Iq_pu_to_Nm_sf ; [CPU_] |849| 
         00000043 0008 
    1113 00000044 761F-         MOVW      DP,#_gMotorVars+42    ; [CPU_U] 
TMS320C2000 Assembler PC v6.2.5 Thu Jun 22 08:44:25 2017

Tools Copyright (c) 1996-2014 Texas Instruments Incorporated
C:\Users\wmj\AppData\Local\Temp\0846811                              PAGE   23

         00000045 0003 
    1114 00000046 56A7          LSL64     ACC:P,#8              ; [CPU_] |849| 
    1115 00000047 07A6          ADDL      ACC,XAR6              ; [CPU_] |849| 
    1116 00000048 1E2A-         MOVL      @_gMotorVars+42,ACC   ; [CPU_] |849| 
    1117                      .dwpsn  file "C:/ti/motorware/motorware_1_01_00_18/sw/solutions/instaspin_foc/src/proj_lab11.c",line 
    1118              $C$DW$181       .dwtag  DW_TAG_TI_branch
    1119                      .dwattr $C$DW$181, DW_AT_low_pc(0x00)
    1120                      .dwattr $C$DW$181, DW_AT_name("_EST_getIdRated")
    1121                      .dwattr $C$DW$181, DW_AT_TI_call
    1122 00000049 7640!         LCR       #_EST_getIdRated      ; [CPU_] |853| 
         0000004a 0000 
    1123                      ; call occurs [#_EST_getIdRated] ; [] |853| 
    1124 0000004b 761F-         MOVW      DP,#_gMotorVars+44    ; [CPU_U] 
         0000004c 0003 
    1125                      .dwpsn  file "C:/ti/motorware/motorware_1_01_00_18/sw/solutions/instaspin_foc/src/proj_lab11.c",line 
    1126 0000004d 8AA1          MOVL      XAR4,XAR1             ; [CPU_] |856| 
    1127                      .dwpsn  file "C:/ti/motorware/motorware_1_01_00_18/sw/solutions/instaspin_foc/src/proj_lab11.c",line 
    1128 0000004e 1E2C-         MOVL      @_gMotorVars+44,ACC   ; [CPU_] |853| 
    1129                      .dwpsn  file "C:/ti/motorware/motorware_1_01_00_18/sw/solutions/instaspin_foc/src/proj_lab11.c",line 
    1130              $C$DW$182       .dwtag  DW_TAG_TI_branch
    1131                      .dwattr $C$DW$182, DW_AT_low_pc(0x00)
    1132                      .dwattr $C$DW$182, DW_AT_name("_EST_getRr_Ohm")
    1133                      .dwattr $C$DW$182, DW_AT_TI_call
    1134 0000004f 7640!         LCR       #_EST_getRr_Ohm       ; [CPU_] |856| 
         00000050 0000 
    1135                      ; call occurs [#_EST_getRr_Ohm] ; [] |856| 
    1136 00000051 761F-         MOVW      DP,#_gMotorVars+46    ; [CPU_U] 
         00000052 0003 
    1137                      .dwpsn  file "C:/ti/motorware/motorware_1_01_00_18/sw/solutions/instaspin_foc/src/proj_lab11.c",line 
    1138 00000053 8AA1          MOVL      XAR4,XAR1             ; [CPU_] |859| 
    1139                      .dwpsn  file "C:/ti/motorware/motorware_1_01_00_18/sw/solutions/instaspin_foc/src/proj_lab11.c",line 
    1140 00000054 1E2E-         MOVL      @_gMotorVars+46,ACC   ; [CPU_] |856| 
    1141                      .dwpsn  file "C:/ti/motorware/motorware_1_01_00_18/sw/solutions/instaspin_foc/src/proj_lab11.c",line 
    1142              $C$DW$183       .dwtag  DW_TAG_TI_branch
    1143                      .dwattr $C$DW$183, DW_AT_low_pc(0x00)
    1144                      .dwattr $C$DW$183, DW_AT_name("_EST_getRs_Ohm")
    1145                      .dwattr $C$DW$183, DW_AT_TI_call
    1146 00000055 7640!         LCR       #_EST_getRs_Ohm       ; [CPU_] |859| 
         00000056 0000 
    1147                      ; call occurs [#_EST_getRs_Ohm] ; [] |859| 
    1148 00000057 761F-         MOVW      DP,#_gMotorVars+48    ; [CPU_U] 
         00000058 0003 
    1149                      .dwpsn  file "C:/ti/motorware/motorware_1_01_00_18/sw/solutions/instaspin_foc/src/proj_lab11.c",line 
    1150 00000059 8AA1          MOVL      XAR4,XAR1             ; [CPU_] |862| 
    1151                      .dwpsn  file "C:/ti/motorware/motorware_1_01_00_18/sw/solutions/instaspin_foc/src/proj_lab11.c",line 
    1152 0000005a 1E30-         MOVL      @_gMotorVars+48,ACC   ; [CPU_] |859| 
    1153                      .dwpsn  file "C:/ti/motorware/motorware_1_01_00_18/sw/solutions/instaspin_foc/src/proj_lab11.c",line 
    1154              $C$DW$184       .dwtag  DW_TAG_TI_branch
    1155                      .dwattr $C$DW$184, DW_AT_low_pc(0x00)
    1156                      .dwattr $C$DW$184, DW_AT_name("_EST_getLs_d_H")
    1157                      .dwattr $C$DW$184, DW_AT_TI_call
    1158 0000005b 7640!         LCR       #_EST_getLs_d_H       ; [CPU_] |862| 
         0000005c 0000 
    1159                      ; call occurs [#_EST_getLs_d_H] ; [] |862| 
    1160 0000005d 761F-         MOVW      DP,#_gMotorVars+52    ; [CPU_U] 
TMS320C2000 Assembler PC v6.2.5 Thu Jun 22 08:44:25 2017

Tools Copyright (c) 1996-2014 Texas Instruments Incorporated
C:\Users\wmj\AppData\Local\Temp\0846811                              PAGE   24

         0000005e 0003 
    1161                      .dwpsn  file "C:/ti/motorware/motorware_1_01_00_18/sw/solutions/instaspin_foc/src/proj_lab11.c",line 
    1162 0000005f 8AA1          MOVL      XAR4,XAR1             ; [CPU_] |865| 
    1163                      .dwpsn  file "C:/ti/motorware/motorware_1_01_00_18/sw/solutions/instaspin_foc/src/proj_lab11.c",line 
    1164 00000060 1E34-         MOVL      @_gMotorVars+52,ACC   ; [CPU_] |862| 
    1165                      .dwpsn  file "C:/ti/motorware/motorware_1_01_00_18/sw/solutions/instaspin_foc/src/proj_lab11.c",line 
    1166              $C$DW$185       .dwtag  DW_TAG_TI_branch
    1167                      .dwattr $C$DW$185, DW_AT_low_pc(0x00)
    1168                      .dwattr $C$DW$185, DW_AT_name("_EST_getLs_q_H")
    1169                      .dwattr $C$DW$185, DW_AT_TI_call
    1170 00000061 7640!         LCR       #_EST_getLs_q_H       ; [CPU_] |865| 
         00000062 0000 
    1171                      ; call occurs [#_EST_getLs_q_H] ; [] |865| 
    1172 00000063 761F-         MOVW      DP,#_gMotorVars+54    ; [CPU_U] 
         00000064 0003 
    1173                      .dwpsn  file "C:/ti/motorware/motorware_1_01_00_18/sw/solutions/instaspin_foc/src/proj_lab11.c",line 
    1174 00000065 8AA1          MOVL      XAR4,XAR1             ; [CPU_] |868| 
    1175                      .dwpsn  file "C:/ti/motorware/motorware_1_01_00_18/sw/solutions/instaspin_foc/src/proj_lab11.c",line 
    1176 00000066 1E36-         MOVL      @_gMotorVars+54,ACC   ; [CPU_] |865| 
    1177                      .dwpsn  file "C:/ti/motorware/motorware_1_01_00_18/sw/solutions/instaspin_foc/src/proj_lab11.c",line 
    1178              $C$DW$186       .dwtag  DW_TAG_TI_branch
    1179                      .dwattr $C$DW$186, DW_AT_low_pc(0x00)
    1180                      .dwattr $C$DW$186, DW_AT_name("_EST_getFlux_VpHz")
    1181                      .dwattr $C$DW$186, DW_AT_TI_call
    1182 00000067 7640!         LCR       #_EST_getFlux_VpHz    ; [CPU_] |868| 
         00000068 0000 
    1183                      ; call occurs [#_EST_getFlux_VpHz] ; [] |868| 
    1184 00000069 761F-         MOVW      DP,#_gMotorVars+56    ; [CPU_U] 
         0000006a 0003 
    1185                      .dwpsn  file "C:/ti/motorware/motorware_1_01_00_18/sw/solutions/instaspin_foc/src/proj_lab11.c",line 
    1186 0000006b 8AA1          MOVL      XAR4,XAR1             ; [CPU_] |871| 
    1187                      .dwpsn  file "C:/ti/motorware/motorware_1_01_00_18/sw/solutions/instaspin_foc/src/proj_lab11.c",line 
    1188 0000006c 1E38-         MOVL      @_gMotorVars+56,ACC   ; [CPU_] |868| 
    1189                      .dwpsn  file "C:/ti/motorware/motorware_1_01_00_18/sw/solutions/instaspin_foc/src/proj_lab11.c",line 
    1190              $C$DW$187       .dwtag  DW_TAG_TI_branch
    1191                      .dwattr $C$DW$187, DW_AT_low_pc(0x00)
    1192                      .dwattr $C$DW$187, DW_AT_name("_EST_getFlux_pu")
    1193                      .dwattr $C$DW$187, DW_AT_TI_call
    1194 0000006d 7640!         LCR       #_EST_getFlux_pu      ; [CPU_] |871| 
         0000006e 0000 
    1195                      ; call occurs [#_EST_getFlux_pu] ; [] |871| 
    1196 0000006f 1EAC          MOVL      XT,ACC                ; [CPU_] |871| 
    1197 00000070 761F-         MOVW      DP,#_gFlux_pu_to_Wb_sf ; [CPU_U] 
         00000071 0000 
    1198                      .dwpsn  file "C:/ti/motorware/motorware_1_01_00_18/sw/solutions/instaspin_foc/src/proj_lab11.c",line 
    1199 00000072 8AA1          MOVL      XAR4,XAR1             ; [CPU_] |874| 
    1200                      .dwpsn  file "C:/ti/motorware/motorware_1_01_00_18/sw/solutions/instaspin_foc/src/proj_lab11.c",line 
    1201 00000073 5605-         IMPYL     P,XT,@_gFlux_pu_to_Wb_sf ; [CPU_] |871| 
         00000074 0002 
    1202 00000075 5663-         QMPYL     ACC,XT,@_gFlux_pu_to_Wb_sf ; [CPU_] |871| 
         00000076 0002 
    1203 00000077 761F-         MOVW      DP,#_gMotorVars+40    ; [CPU_U] 
         00000078 0003 
    1204 00000079 56A7          LSL64     ACC:P,#8              ; [CPU_] |871| 
    1205 0000007a 1E28-         MOVL      @_gMotorVars+40,ACC   ; [CPU_] |871| 
TMS320C2000 Assembler PC v6.2.5 Thu Jun 22 08:44:25 2017

Tools Copyright (c) 1996-2014 Texas Instruments Incorporated
C:\Users\wmj\AppData\Local\Temp\0846811                              PAGE   25

    1206                      .dwpsn  file "C:/ti/motorware/motorware_1_01_00_18/sw/solutions/instaspin_foc/src/proj_lab11.c",line 
    1207              $C$DW$188       .dwtag  DW_TAG_TI_branch
    1208                      .dwattr $C$DW$188, DW_AT_low_pc(0x00)
    1209                      .dwattr $C$DW$188, DW_AT_name("_EST_getState")
    1210                      .dwattr $C$DW$188, DW_AT_TI_call
    1211 0000007b 7640!         LCR       #_EST_getState        ; [CPU_] |874| 
         0000007c 0000 
    1212                      ; call occurs [#_EST_getState] ; [] |874| 
    1213 0000007d 761F-         MOVW      DP,#_gMotorVars+14    ; [CPU_U] 
         0000007e 0003 
    1214                      .dwpsn  file "C:/ti/motorware/motorware_1_01_00_18/sw/solutions/instaspin_foc/src/proj_lab11.c",line 
    1215 0000007f 9B73          MOV       AH,#115               ; [CPU_] |877| 
    1216                      .dwpsn  file "C:/ti/motorware/motorware_1_01_00_18/sw/solutions/instaspin_foc/src/proj_lab11.c",line 
    1217 00000080 960E-         MOV       @_gMotorVars+14,AL    ; [CPU_] |874| 
    1218                      .dwpsn  file "C:/ti/motorware/motorware_1_01_00_18/sw/solutions/instaspin_foc/src/proj_lab11.c",line 
    1219 00000081 8F00-         MOVL      XAR4,#_gVdq_out_pu    ; [CPU_U] |881| 
         00000082 001C 
    1220 00000083 761F-         MOVW      DP,#_gAdcData+12      ; [CPU_U] 
         00000084 0001 
    1221                      .dwpsn  file "C:/ti/motorware/motorware_1_01_00_18/sw/solutions/instaspin_foc/src/proj_lab11.c",line 
    1222 00000085 28A9          MOV       AL,#13107             ; [CPU_] |877| 
         00000086 3333 
    1223 00000087 871E-         MOVL      XT,@_gAdcData+12      ; [CPU_] |877| 
    1224 00000088 761F-         MOVW      DP,#_gMotorVars+86    ; [CPU_U] 
         00000089 0004 
    1225 0000008a 5605          IMPYL     P,XT,ACC              ; [CPU_] |877| 
         0000008b 00A9 
    1226 0000008c 5663          QMPYL     ACC,XT,ACC            ; [CPU_] |877| 
         0000008d 00A9 
    1227 0000008e 56A7          LSL64     ACC:P,#8              ; [CPU_] |877| 
    1228 0000008f 1E16-         MOVL      @_gMotorVars+86,ACC   ; [CPU_] |877| 
    1229                      .dwpsn  file "C:/ti/motorware/motorware_1_01_00_18/sw/solutions/instaspin_foc/src/proj_lab11.c",line 
    1230 00000090 06C4          MOVL      ACC,*+XAR4[0]         ; [CPU_] |881| 
    1231 00000091 1E0E-         MOVL      @_gMotorVars+78,ACC   ; [CPU_] |881| 
    1232                      .dwpsn  file "C:/ti/motorware/motorware_1_01_00_18/sw/solutions/instaspin_foc/src/proj_lab11.c",line 
    1233 00000092 06D4          MOVL      ACC,*+XAR4[2]         ; [CPU_] |882| 
    1234 00000093 1E10-         MOVL      @_gMotorVars+80,ACC   ; [CPU_] |882| 
    1235                      .dwpsn  file "C:/ti/motorware/motorware_1_01_00_18/sw/solutions/instaspin_foc/src/proj_lab11.c",line 
    1236 00000094 870E-         MOVL      XT,@_gMotorVars+78    ; [CPU_] |885| 
    1237 00000095 5605-         IMPYL     P,XT,@_gMotorVars+78  ; [CPU_] |885| 
         00000096 000E 
    1238 00000097 5663-         QMPYL     ACC,XT,@_gMotorVars+78 ; [CPU_] |885| 
         00000098 000E 
    1239 00000099 56A7          LSL64     ACC:P,#8              ; [CPU_] |885| 
    1240 0000009a 1EA6          MOVL      XAR6,ACC              ; [CPU_] |885| 
    1241 0000009b 8710-         MOVL      XT,@_gMotorVars+80    ; [CPU_] |885| 
    1242 0000009c 5605-         IMPYL     P,XT,@_gMotorVars+80  ; [CPU_] |885| 
         0000009d 0010 
    1243 0000009e 5663-         QMPYL     ACC,XT,@_gMotorVars+80 ; [CPU_] |885| 
         0000009f 0010 
    1244 000000a0 56A7          LSL64     ACC:P,#8              ; [CPU_] |885| 
    1245 000000a1 07A6          ADDL      ACC,XAR6              ; [CPU_] |885| 
    1246              $C$DW$189       .dwtag  DW_TAG_TI_branch
    1247                      .dwattr $C$DW$189, DW_AT_low_pc(0x00)
    1248                      .dwattr $C$DW$189, DW_AT_name("__IQ24sqrt")
TMS320C2000 Assembler PC v6.2.5 Thu Jun 22 08:44:25 2017

Tools Copyright (c) 1996-2014 Texas Instruments Incorporated
C:\Users\wmj\AppData\Local\Temp\0846811                              PAGE   26

    1249                      .dwattr $C$DW$189, DW_AT_TI_call
    1250 000000a2 7640!         LCR       #__IQ24sqrt           ; [CPU_] |885| 
         000000a3 0000 
    1251                      ; call occurs [#__IQ24sqrt] ; [] |885| 
    1252 000000a4 761F-         MOVW      DP,#_gMotorVars+82    ; [CPU_U] 
         000000a5 0004 
    1253                      .dwpsn  file "C:/ti/motorware/motorware_1_01_00_18/sw/solutions/instaspin_foc/src/proj_lab11.c",line 
    1254 000000a6 8F00-         MOVL      XAR4,#_gIdq_pu        ; [CPU_U] |889| 
         000000a7 0020 
    1255                      .dwpsn  file "C:/ti/motorware/motorware_1_01_00_18/sw/solutions/instaspin_foc/src/proj_lab11.c",line 
    1256 000000a8 1E12-         MOVL      @_gMotorVars+82,ACC   ; [CPU_] |885| 
    1257                      .dwpsn  file "C:/ti/motorware/motorware_1_01_00_18/sw/solutions/instaspin_foc/src/proj_lab11.c",line 
    1258 000000a9 FF2F          MOV       ACC,#3072 << 15       ; [CPU_] |889| 
         000000aa 0C00 
    1259 000000ab 87C4          MOVL      XT,*+XAR4[0]          ; [CPU_] |889| 
    1260 000000ac 5605          IMPYL     P,XT,ACC              ; [CPU_] |889| 
         000000ad 00A9 
    1261 000000ae 5663          QMPYL     ACC,XT,ACC            ; [CPU_] |889| 
         000000af 00A9 
    1262 000000b0 56A7          LSL64     ACC:P,#8              ; [CPU_] |889| 
    1263 000000b1 1E18-         MOVL      @_gMotorVars+88,ACC   ; [CPU_] |889| 
    1264                      .dwpsn  file "C:/ti/motorware/motorware_1_01_00_18/sw/solutions/instaspin_foc/src/proj_lab11.c",line 
    1265 000000b2 FF2F          MOV       ACC,#3072 << 15       ; [CPU_] |891| 
         000000b3 0C00 
    1266 000000b4 87D4          MOVL      XT,*+XAR4[2]          ; [CPU_] |891| 
    1267 000000b5 5605          IMPYL     P,XT,ACC              ; [CPU_] |891| 
         000000b6 00A9 
    1268 000000b7 5663          QMPYL     ACC,XT,ACC            ; [CPU_] |891| 
         000000b8 00A9 
    1269 000000b9 56A7          LSL64     ACC:P,#8              ; [CPU_] |891| 
    1270 000000ba 1E1A-         MOVL      @_gMotorVars+90,ACC   ; [CPU_] |891| 
    1271                      .dwpsn  file "C:/ti/motorware/motorware_1_01_00_18/sw/solutions/instaspin_foc/src/proj_lab11.c",line 
    1272 000000bb 8718-         MOVL      XT,@_gMotorVars+88    ; [CPU_] |895| 
    1273 000000bc 5605-         IMPYL     P,XT,@_gMotorVars+88  ; [CPU_] |895| 
         000000bd 0018 
    1274 000000be 5663-         QMPYL     ACC,XT,@_gMotorVars+88 ; [CPU_] |895| 
         000000bf 0018 
    1275 000000c0 56A7          LSL64     ACC:P,#8              ; [CPU_] |895| 
    1276 000000c1 871A-         MOVL      XT,@_gMotorVars+90    ; [CPU_] |895| 
    1277 000000c2 1EA6          MOVL      XAR6,ACC              ; [CPU_] |895| 
    1278 000000c3 5605-         IMPYL     P,XT,@_gMotorVars+90  ; [CPU_] |895| 
         000000c4 001A 
    1279 000000c5 5663-         QMPYL     ACC,XT,@_gMotorVars+90 ; [CPU_] |895| 
         000000c6 001A 
    1280 000000c7 56A7          LSL64     ACC:P,#8              ; [CPU_] |895| 
    1281 000000c8 07A6          ADDL      ACC,XAR6              ; [CPU_] |895| 
    1282              $C$DW$190       .dwtag  DW_TAG_TI_branch
    1283                      .dwattr $C$DW$190, DW_AT_low_pc(0x00)
    1284                      .dwattr $C$DW$190, DW_AT_name("__IQ24sqrt")
    1285                      .dwattr $C$DW$190, DW_AT_TI_call
    1286 000000c9 7640!         LCR       #__IQ24sqrt           ; [CPU_] |895| 
         000000ca 0000 
    1287                      ; call occurs [#__IQ24sqrt] ; [] |895| 
    1288 000000cb FE84          SUBB      SP,#4                 ; [CPU_U] 
    1289                      .dwcfi  cfa_offset, -8
TMS320C2000 Assembler PC v6.2.5 Thu Jun 22 08:44:25 2017

Tools Copyright (c) 1996-2014 Texas Instruments Incorporated
C:\Users\wmj\AppData\Local\Temp\0846811                              PAGE   27

    1290 000000cc 82BE          MOVL      XAR3,*--SP            ; [CPU_] 
    1291                      .dwcfi  cfa_offset, -6
    1292                      .dwcfi  restore_reg, 11
    1293 000000cd 86BE          MOVL      XAR2,*--SP            ; [CPU_] 
    1294                      .dwcfi  cfa_offset, -4
    1295                      .dwcfi  restore_reg, 9
    1296 000000ce 8BBE          MOVL      XAR1,*--SP            ; [CPU_] 
    1297                      .dwcfi  cfa_offset, -2
    1298                      .dwcfi  restore_reg, 7
    1299 000000cf 761F-         MOVW      DP,#_gMotorVars+92    ; [CPU_U] 
         000000d0 0004 
    1300 000000d1 1E1C-         MOVL      @_gMotorVars+92,ACC   ; [CPU_] |895| 
    1301              $C$DW$191       .dwtag  DW_TAG_TI_branch
    1302                      .dwattr $C$DW$191, DW_AT_low_pc(0x00)
    1303                      .dwattr $C$DW$191, DW_AT_TI_return
    1304 000000d2 0006          LRETR     ; [CPU_] 
    1305                      ; return occurs ; [] 
    1306                      .dwattr $C$DW$170, DW_AT_TI_end_file("C:/ti/motorware/motorware_1_01_00_18/sw/solutions/instaspin_foc
    1307                      .dwattr $C$DW$170, DW_AT_TI_end_line(0x383)
    1308                      .dwattr $C$DW$170, DW_AT_TI_end_column(0x01)
    1309                      .dwendentry
    1310                      .dwendtag $C$DW$170
    1311              
    1312 000000d3               .sect   ".text"
    1313                      .clink
    1314                      .global _softwareUpdate1p6
    1315              
    1316              $C$DW$192       .dwtag  DW_TAG_subprogram, DW_AT_name("softwareUpdate1p6")
    1317                      .dwattr $C$DW$192, DW_AT_low_pc(_softwareUpdate1p6)
    1318                      .dwattr $C$DW$192, DW_AT_high_pc(0x00)
    1319                      .dwattr $C$DW$192, DW_AT_TI_symbol_name("_softwareUpdate1p6")
    1320                      .dwattr $C$DW$192, DW_AT_external
    1321                      .dwattr $C$DW$192, DW_AT_TI_begin_file("C:/ti/motorware/motorware_1_01_00_18/sw/solutions/instaspin_f
    1322                      .dwattr $C$DW$192, DW_AT_TI_begin_line(0x2e5)
    1323                      .dwattr $C$DW$192, DW_AT_TI_begin_column(0x06)
    1324                      .dwattr $C$DW$192, DW_AT_TI_max_frame_size(-20)
    1325                      .dwpsn  file "C:/ti/motorware/motorware_1_01_00_18/sw/solutions/instaspin_foc/src/proj_lab11.c",line 
    1326              
    1327                      .dwfde $C$DW$CIE, _softwareUpdate1p6
    1328              $C$DW$193       .dwtag  DW_TAG_formal_parameter, DW_AT_name("handle")
    1329                      .dwattr $C$DW$193, DW_AT_TI_symbol_name("_handle")
    1330                      .dwattr $C$DW$193, DW_AT_type(*$C$DW$T$135)
    1331                      .dwattr $C$DW$193, DW_AT_location[DW_OP_reg12]
    1332              
    1333              ;***************************************************************
    1334              ;* FNAME: _softwareUpdate1p6            FR SIZE:  18           *
    1335              ;*                                                             *
    1336              ;* FUNCTION ENVIRONMENT                                        *
    1337              ;*                                                             *
    1338              ;* FUNCTION PROPERTIES                                         *
    1339              ;*                            2 Parameter, 10 Auto,  6 SOE     *
    1340              ;***************************************************************
    1341              
    1342              _softwareUpdate1p6:
    1343              ;* AR1   assigned to $O$C2
TMS320C2000 Assembler PC v6.2.5 Thu Jun 22 08:44:25 2017

Tools Copyright (c) 1996-2014 Texas Instruments Incorporated
C:\Users\wmj\AppData\Local\Temp\0846811                              PAGE   28

    1344              ;* AR2   assigned to $O$C3
    1345              ;* AL    assigned to _x
    1346              $C$DW$194       .dwtag  DW_TAG_variable, DW_AT_name("x")
    1347                      .dwattr $C$DW$194, DW_AT_TI_symbol_name("_x")
    1348                      .dwattr $C$DW$194, DW_AT_type(*$C$DW$T$17)
    1349                      .dwattr $C$DW$194, DW_AT_location[DW_OP_reg0]
    1350              $C$DW$195       .dwtag  DW_TAG_variable, DW_AT_name("y")
    1351                      .dwattr $C$DW$195, DW_AT_TI_symbol_name("_y")
    1352                      .dwattr $C$DW$195, DW_AT_type(*$C$DW$T$17)
    1353                      .dwattr $C$DW$195, DW_AT_location[DW_OP_breg20 -4]
    1354              ;* AL    assigned to _L_max
    1355              $C$DW$196       .dwtag  DW_TAG_variable, DW_AT_name("L_max")
    1356                      .dwattr $C$DW$196, DW_AT_TI_symbol_name("_L_max")
    1357                      .dwattr $C$DW$196, DW_AT_type(*$C$DW$T$99)
    1358                      .dwattr $C$DW$196, DW_AT_location[DW_OP_reg0]
    1359              ;* AR6   assigned to _Ls_coarse_max
    1360              $C$DW$197       .dwtag  DW_TAG_variable, DW_AT_name("Ls_coarse_max")
    1361                      .dwattr $C$DW$197, DW_AT_TI_symbol_name("_Ls_coarse_max")
    1362                      .dwattr $C$DW$197, DW_AT_type(*$C$DW$T$99)
    1363                      .dwattr $C$DW$197, DW_AT_location[DW_OP_reg16]
    1364              ;* AR3   assigned to _handle
    1365              $C$DW$198       .dwtag  DW_TAG_variable, DW_AT_name("handle")
    1366                      .dwattr $C$DW$198, DW_AT_TI_symbol_name("_handle")
    1367                      .dwattr $C$DW$198, DW_AT_type(*$C$DW$T$164)
    1368                      .dwattr $C$DW$198, DW_AT_location[DW_OP_reg10]
    1369              ;* AL    assigned to $O$R1
    1370                      .dwcfi  cfa_offset, -2
    1371                      .dwcfi  save_reg_to_mem, 26, 0
    1372                      .dwcfi  save_reg_to_reg, 78, 26
    1373 000000d3 B2BD          MOVL      *SP++,XAR1            ; [CPU_] 
    1374                      .dwcfi  save_reg_to_mem, 7, 2
    1375                      .dwcfi  cfa_offset, -4
    1376 000000d4 AABD          MOVL      *SP++,XAR2            ; [CPU_] 
    1377                      .dwcfi  save_reg_to_mem, 9, 4
    1378                      .dwcfi  cfa_offset, -6
    1379 000000d5 A2BD          MOVL      *SP++,XAR3            ; [CPU_] 
    1380                      .dwcfi  save_reg_to_mem, 11, 6
    1381                      .dwcfi  cfa_offset, -8
    1382 000000d6 FE0C          ADDB      SP,#12                ; [CPU_U] 
    1383                      .dwcfi  cfa_offset, -20
    1384 000000d7 82A4          MOVL      XAR3,XAR4             ; [CPU_] |742| 
    1385                      .dwpsn  file "C:/ti/motorware/motorware_1_01_00_18/sw/solutions/instaspin_foc/src/proj_lab11.c",line 
    1386              $C$DW$199       .dwtag  DW_TAG_TI_branch
    1387                      .dwattr $C$DW$199, DW_AT_low_pc(0x00)
    1388                      .dwattr $C$DW$199, DW_AT_name("_EST_getLs_coarse_max_pu")
    1389                      .dwattr $C$DW$199, DW_AT_TI_call
    1390 000000d8 7640!         LCR       #_EST_getLs_coarse_max_pu ; [CPU_] |746| 
         000000d9 0000 
    1391                      ; call occurs [#_EST_getLs_coarse_max_pu] ; [] |746| 
    1392              $C$DW$200       .dwtag  DW_TAG_TI_branch
    1393                      .dwattr $C$DW$200, DW_AT_low_pc(0x00)
    1394                      .dwattr $C$DW$200, DW_AT_name("__IQ30toF")
    1395                      .dwattr $C$DW$200, DW_AT_TI_call
    1396 000000da 7640!         LCR       #__IQ30toF            ; [CPU_] |746| 
         000000db 0000 
TMS320C2000 Assembler PC v6.2.5 Thu Jun 22 08:44:25 2017

Tools Copyright (c) 1996-2014 Texas Instruments Incorporated
C:\Users\wmj\AppData\Local\Temp\0846811                              PAGE   29

    1397                      ; call occurs [#__IQ30toF] ; [] |746| 
    1398 000000dc 1EA6          MOVL      XAR6,ACC              ; [CPU_] |746| 
    1399                      .dwpsn  file "C:/ti/motorware/motorware_1_01_00_18/sw/solutions/instaspin_foc/src/proj_lab11.c",line 
    1400 000000dd 28A9          MOV       AL,#16696             ; [CPU_] |747| 
         000000de 4138 
    1401 000000df 28A8          MOV       AH,#15619             ; [CPU_] |747| 
         000000e0 3D03 
    1402 000000e1 1E42          MOVL      *-SP[2],ACC           ; [CPU_] |747| 
    1403 000000e2 06A6          MOVL      ACC,XAR6              ; [CPU_] |747| 
    1404              $C$DW$201       .dwtag  DW_TAG_TI_branch
    1405                      .dwattr $C$DW$201, DW_AT_low_pc(0x00)
    1406                      .dwattr $C$DW$201, DW_AT_name("FS$$MPY")
    1407                      .dwattr $C$DW$201, DW_AT_TI_call
    1408 000000e3 7640!         LCR       #FS$$MPY              ; [CPU_] |747| 
         000000e4 0000 
    1409                      ; call occurs [#FS$$MPY] ; [] |747| 
    1410 000000e5 1E42          MOVL      *-SP[2],ACC           ; [CPU_] |747| 
    1411 000000e6 28A9          MOV       AL,#63971             ; [CPU_] |747| 
         000000e7 F9E3 
    1412 000000e8 28A8          MOV       AH,#15630             ; [CPU_] |747| 
         000000e9 3D0E 
    1413              $C$DW$202       .dwtag  DW_TAG_TI_branch
    1414                      .dwattr $C$DW$202, DW_AT_low_pc(0x00)
    1415                      .dwattr $C$DW$202, DW_AT_name("FS$$DIV")
    1416                      .dwattr $C$DW$202, DW_AT_TI_call
    1417 000000ea 7640!         LCR       #FS$$DIV              ; [CPU_] |747| 
         000000eb 0000 
    1418                      ; call occurs [#FS$$DIV] ; [] |747| 
    1419              $C$DW$203       .dwtag  DW_TAG_TI_branch
    1420                      .dwattr $C$DW$203, DW_AT_low_pc(0x00)
    1421                      .dwattr $C$DW$203, DW_AT_name("_log")
    1422                      .dwattr $C$DW$203, DW_AT_TI_call
    1423 000000ec 7640!         LCR       #_log                 ; [CPU_] |747| 
         000000ed 0000 
    1424                      ; call occurs [#_log] ; [] |747| 
    1425 000000ee 8BA9          MOVL      XAR1,ACC              ; [CPU_] |747| 
    1426 000000ef 9A00          MOV       AL,#0                 ; [CPU_] |747| 
    1427 000000f0 28A8          MOV       AH,#16384             ; [CPU_] |747| 
         000000f1 4000 
    1428              $C$DW$204       .dwtag  DW_TAG_TI_branch
    1429                      .dwattr $C$DW$204, DW_AT_low_pc(0x00)
    1430                      .dwattr $C$DW$204, DW_AT_name("_log")
    1431                      .dwattr $C$DW$204, DW_AT_TI_call
    1432 000000f2 7640!         LCR       #_log                 ; [CPU_] |747| 
         000000f3 0000 
    1433                      ; call occurs [#_log] ; [] |747| 
    1434 000000f4 1E42          MOVL      *-SP[2],ACC           ; [CPU_] |747| 
    1435 000000f5 B2A9          MOVL      ACC,XAR1              ; [CPU_] |747| 
    1436              $C$DW$205       .dwtag  DW_TAG_TI_branch
    1437                      .dwattr $C$DW$205, DW_AT_low_pc(0x00)
    1438                      .dwattr $C$DW$205, DW_AT_name("FS$$DIV")
    1439                      .dwattr $C$DW$205, DW_AT_TI_call
    1440 000000f6 7640!         LCR       #FS$$DIV              ; [CPU_] |747| 
         000000f7 0000 
    1441                      ; call occurs [#FS$$DIV] ; [] |747| 
TMS320C2000 Assembler PC v6.2.5 Thu Jun 22 08:44:25 2017

Tools Copyright (c) 1996-2014 Texas Instruments Incorporated
C:\Users\wmj\AppData\Local\Temp\0846811                              PAGE   30

    1442                      .dwpsn  file "c:/ti/ccsv6/tools/compiler/c2000_6.2.5/include/math.h",line 110,column 45,is_stmt
    1443 000000f8 5CAD          MOVZ      AR4,SP                ; [CPU_U] |110| 
    1444 000000f9 DC84          SUBB      XAR4,#4               ; [CPU_U] |110| 
    1445              $C$DW$206       .dwtag  DW_TAG_TI_branch
    1446                      .dwattr $C$DW$206, DW_AT_low_pc(0x00)
    1447                      .dwattr $C$DW$206, DW_AT_name("_modf")
    1448                      .dwattr $C$DW$206, DW_AT_TI_call
    1449 000000fa 7640!         LCR       #_modf                ; [CPU_] |110| 
         000000fb 0000 
    1450                      ; call occurs [#_modf] ; [] |110| 
    1451 000000fc 1EA6          MOVL      XAR6,ACC              ; [CPU_] |110| 
    1452 000000fd 9A00          MOV       AL,#0                 ; [CPU_] |110| 
    1453 000000fe 9B00          MOV       AH,#0                 ; [CPU_] |110| 
    1454 000000ff 1E42          MOVL      *-SP[2],ACC           ; [CPU_] |110| 
    1455 00000100 06A6          MOVL      ACC,XAR6              ; [CPU_] |110| 
    1456              $C$DW$207       .dwtag  DW_TAG_TI_branch
    1457                      .dwattr $C$DW$207, DW_AT_low_pc(0x00)
    1458                      .dwattr $C$DW$207, DW_AT_name("FS$$CMP")
    1459                      .dwattr $C$DW$207, DW_AT_TI_call
    1460 00000101 7640!         LCR       #FS$$CMP              ; [CPU_] |110| 
         00000102 0000 
    1461                      ; call occurs [#FS$$CMP] ; [] |110| 
    1462 00000103 5200          CMPB      AL,#0                 ; [CPU_] |110| 
    1463 00000104 6203          B         $C$L1,GT              ; [CPU_] |110| 
    1464                      ; branchcc occurs ; [] |110| 
    1465 00000105 0644          MOVL      ACC,*-SP[4]           ; [CPU_] |110| 
    1466 00000106 6F07          B         $C$L2,UNC             ; [CPU_] |110| 
    1467                      ; branch occurs ; [] |110| 
    1468 00000107       $C$L1:    
    1469 00000107 FF2F          MOV       ACC,#32512 << 15      ; [CPU_] |110| 
         00000108 7F00 
    1470 00000109 1E42          MOVL      *-SP[2],ACC           ; [CPU_] |110| 
    1471 0000010a 0644          MOVL      ACC,*-SP[4]           ; [CPU_] |110| 
    1472              $C$DW$208       .dwtag  DW_TAG_TI_branch
    1473                      .dwattr $C$DW$208, DW_AT_low_pc(0x00)
    1474                      .dwattr $C$DW$208, DW_AT_name("FS$$ADD")
    1475                      .dwattr $C$DW$208, DW_AT_TI_call
    1476 0000010b 7640!         LCR       #FS$$ADD              ; [CPU_] |110| 
         0000010c 0000 
    1477                      ; call occurs [#FS$$ADD] ; [] |110| 
    1478 0000010d       $C$L2:    
    1479                      .dwpsn  file "C:/ti/motorware/motorware_1_01_00_18/sw/solutions/instaspin_foc/src/proj_lab11.c",line 
    1480              $C$DW$209       .dwtag  DW_TAG_TI_branch
    1481                      .dwattr $C$DW$209, DW_AT_low_pc(0x00)
    1482                      .dwattr $C$DW$209, DW_AT_name("FS$$TOI")
    1483                      .dwattr $C$DW$209, DW_AT_TI_call
    1484 0000010d 7640!         LCR       #FS$$TOI              ; [CPU_] |750| 
         0000010e 0000 
    1485                      ; call occurs [#FS$$TOI] ; [] |750| 
    1486 0000010f 59A9          MOVZ      AR1,AL                ; [CPU_] |750| 
    1487              $C$DW$210       .dwtag  DW_TAG_TI_branch
    1488                      .dwattr $C$DW$210, DW_AT_low_pc(0x00)
    1489                      .dwattr $C$DW$210, DW_AT_name("I$$TOFS")
    1490                      .dwattr $C$DW$210, DW_AT_TI_call
    1491 00000110 7640!         LCR       #I$$TOFS              ; [CPU_] |750| 
TMS320C2000 Assembler PC v6.2.5 Thu Jun 22 08:44:25 2017

Tools Copyright (c) 1996-2014 Texas Instruments Incorporated
C:\Users\wmj\AppData\Local\Temp\0846811                              PAGE   31

         00000111 0000 
    1492                      ; call occurs [#I$$TOFS] ; [] |750| 
    1493 00000112 1E42          MOVL      *-SP[2],ACC           ; [CPU_] |750| 
    1494 00000113 9A00          MOV       AL,#0                 ; [CPU_] |750| 
    1495 00000114 28A8          MOV       AH,#16384             ; [CPU_] |750| 
         00000115 4000 
    1496              $C$DW$211       .dwtag  DW_TAG_TI_branch
    1497                      .dwattr $C$DW$211, DW_AT_low_pc(0x00)
    1498                      .dwattr $C$DW$211, DW_AT_name("_pow")
    1499                      .dwattr $C$DW$211, DW_AT_TI_call
    1500 00000116 7640!         LCR       #_pow                 ; [CPU_] |750| 
         00000117 0000 
    1501                      ; call occurs [#_pow] ; [] |750| 
    1502 00000118 1EA6          MOVL      XAR6,ACC              ; [CPU_] |750| 
    1503 00000119 28A9          MOV       AL,#16696             ; [CPU_] |750| 
         0000011a 4138 
    1504 0000011b 28A8          MOV       AH,#15619             ; [CPU_] |750| 
         0000011c 3D03 
    1505 0000011d 1E42          MOVL      *-SP[2],ACC           ; [CPU_] |750| 
    1506 0000011e 06A6          MOVL      ACC,XAR6              ; [CPU_] |750| 
    1507              $C$DW$212       .dwtag  DW_TAG_TI_branch
    1508                      .dwattr $C$DW$212, DW_AT_low_pc(0x00)
    1509                      .dwattr $C$DW$212, DW_AT_name("FS$$MPY")
    1510                      .dwattr $C$DW$212, DW_AT_TI_call
    1511 0000011f 7640!         LCR       #FS$$MPY              ; [CPU_] |750| 
         00000120 0000 
    1512                      ; call occurs [#FS$$MPY] ; [] |750| 
    1513                      .dwpsn  file "C:/ti/motorware/motorware_1_01_00_18/sw/solutions/instaspin_foc/src/proj_lab11.c",line 
    1514 00000121 1E42          MOVL      *-SP[2],ACC           ; [CPU_] |755| 
    1515 00000122 28A9          MOV       AL,#63971             ; [CPU_] |755| 
         00000123 F9E3 
    1516 00000124 28A8          MOV       AH,#15630             ; [CPU_] |755| 
         00000125 3D0E 
    1517              $C$DW$213       .dwtag  DW_TAG_TI_branch
    1518                      .dwattr $C$DW$213, DW_AT_low_pc(0x00)
    1519                      .dwattr $C$DW$213, DW_AT_name("FS$$DIV")
    1520                      .dwattr $C$DW$213, DW_AT_TI_call
    1521 00000126 7640!         LCR       #FS$$DIV              ; [CPU_] |755| 
         00000127 0000 
    1522                      ; call occurs [#FS$$DIV] ; [] |755| 
    1523 00000128 88AD          MOVZ      AR6,SP                ; [CPU_U] |755| 
    1524 00000129 DE8C          SUBB      XAR6,#12              ; [CPU_U] |755| 
    1525              $C$DW$214       .dwtag  DW_TAG_TI_branch
    1526                      .dwattr $C$DW$214, DW_AT_low_pc(0x00)
    1527                      .dwattr $C$DW$214, DW_AT_name("FS$$TOFD")
    1528                      .dwattr $C$DW$214, DW_AT_TI_call
    1529 0000012a 7640!         LCR       #FS$$TOFD             ; [CPU_] |755| 
         0000012b 0000 
    1530                      ; call occurs [#FS$$TOFD] ; [] |755| 
    1531 0000012c 5CAD          MOVZ      AR4,SP                ; [CPU_U] |755| 
    1532 0000012d 88AD          MOVZ      AR6,SP                ; [CPU_U] |755| 
    1533 0000012e 8F40+         MOVL      XAR5,#$C$FL1          ; [CPU_U] |755| 
         0000012f 0000 
    1534 00000130 DC8C          SUBB      XAR4,#12              ; [CPU_U] |755| 
    1535 00000131 DE88          SUBB      XAR6,#8               ; [CPU_U] |755| 
TMS320C2000 Assembler PC v6.2.5 Thu Jun 22 08:44:25 2017

Tools Copyright (c) 1996-2014 Texas Instruments Incorporated
C:\Users\wmj\AppData\Local\Temp\0846811                              PAGE   32

    1536              $C$DW$215       .dwtag  DW_TAG_TI_branch
    1537                      .dwattr $C$DW$215, DW_AT_low_pc(0x00)
    1538                      .dwattr $C$DW$215, DW_AT_name("FD$$MPY")
    1539                      .dwattr $C$DW$215, DW_AT_TI_call
    1540 00000132 7640!         LCR       #FD$$MPY              ; [CPU_] |755| 
         00000133 0000 
    1541                      ; call occurs [#FD$$MPY] ; [] |755| 
    1542 00000134 5CAD          MOVZ      AR4,SP                ; [CPU_U] |755| 
    1543 00000135 DC88          SUBB      XAR4,#8               ; [CPU_U] |755| 
    1544              $C$DW$216       .dwtag  DW_TAG_TI_branch
    1545                      .dwattr $C$DW$216, DW_AT_low_pc(0x00)
    1546                      .dwattr $C$DW$216, DW_AT_name("FD$$TOL")
    1547                      .dwattr $C$DW$216, DW_AT_TI_call
    1548 00000136 7640!         LCR       #FD$$TOL              ; [CPU_] |755| 
         00000137 0000 
    1549                      ; call occurs [#FD$$TOL] ; [] |755| 
    1550 00000138 86A9          MOVL      XAR2,ACC              ; [CPU_] |755| 
    1551 00000139 8AA3          MOVL      XAR4,XAR3             ; [CPU_] |755| 
    1552              $C$DW$217       .dwtag  DW_TAG_TI_branch
    1553                      .dwattr $C$DW$217, DW_AT_low_pc(0x00)
    1554                      .dwattr $C$DW$217, DW_AT_name("_EST_setLs_d_pu")
    1555                      .dwattr $C$DW$217, DW_AT_TI_call
    1556 0000013a 7640!         LCR       #_EST_setLs_d_pu      ; [CPU_] |755| 
         0000013b 0000 
    1557                      ; call occurs [#_EST_setLs_d_pu] ; [] |755| 
    1558                      .dwpsn  file "C:/ti/motorware/motorware_1_01_00_18/sw/solutions/instaspin_foc/src/proj_lab11.c",line 
    1559 0000013c 8AA3          MOVL      XAR4,XAR3             ; [CPU_] |756| 
    1560 0000013d AAA9          MOVL      ACC,XAR2              ; [CPU_] |756| 
    1561              $C$DW$218       .dwtag  DW_TAG_TI_branch
    1562                      .dwattr $C$DW$218, DW_AT_low_pc(0x00)
    1563                      .dwattr $C$DW$218, DW_AT_name("_EST_setLs_q_pu")
    1564                      .dwattr $C$DW$218, DW_AT_TI_call
    1565 0000013e 7640!         LCR       #_EST_setLs_q_pu      ; [CPU_] |756| 
         0000013f 0000 
    1566                      ; call occurs [#_EST_setLs_q_pu] ; [] |756| 
    1567                      .dwpsn  file "C:/ti/motorware/motorware_1_01_00_18/sw/solutions/instaspin_foc/src/proj_lab11.c",line 
    1568 00000140 9A1E          MOVB      AL,#30                ; [CPU_] |757| 
    1569 00000141 8AA3          MOVL      XAR4,XAR3             ; [CPU_] |757| 
    1570 00000142 9EA1          SUB       AL,AR1                ; [CPU_] |757| 
    1571              $C$DW$219       .dwtag  DW_TAG_TI_branch
    1572                      .dwattr $C$DW$219, DW_AT_low_pc(0x00)
    1573                      .dwattr $C$DW$219, DW_AT_name("_EST_setLs_qFmt")
    1574                      .dwattr $C$DW$219, DW_AT_TI_call
    1575 00000143 7640!         LCR       #_EST_setLs_qFmt      ; [CPU_] |757| 
         00000144 0000 
    1576                      ; call occurs [#_EST_setLs_qFmt] ; [] |757| 
    1577 00000145 FE8C          SUBB      SP,#12                ; [CPU_U] 
    1578                      .dwcfi  cfa_offset, -8
    1579 00000146 82BE          MOVL      XAR3,*--SP            ; [CPU_] 
    1580                      .dwcfi  cfa_offset, -6
    1581                      .dwcfi  restore_reg, 11
    1582 00000147 86BE          MOVL      XAR2,*--SP            ; [CPU_] 
    1583                      .dwcfi  cfa_offset, -4
    1584                      .dwcfi  restore_reg, 9
    1585 00000148 8BBE          MOVL      XAR1,*--SP            ; [CPU_] 
TMS320C2000 Assembler PC v6.2.5 Thu Jun 22 08:44:25 2017

Tools Copyright (c) 1996-2014 Texas Instruments Incorporated
C:\Users\wmj\AppData\Local\Temp\0846811                              PAGE   33

    1586                      .dwcfi  cfa_offset, -2
    1587                      .dwcfi  restore_reg, 7
    1588              $C$DW$220       .dwtag  DW_TAG_TI_branch
    1589                      .dwattr $C$DW$220, DW_AT_low_pc(0x00)
    1590                      .dwattr $C$DW$220, DW_AT_TI_return
    1591 00000149 0006          LRETR     ; [CPU_] 
    1592                      ; return occurs ; [] 
    1593                      .dwattr $C$DW$192, DW_AT_TI_end_file("C:/ti/motorware/motorware_1_01_00_18/sw/solutions/instaspin_foc
    1594                      .dwattr $C$DW$192, DW_AT_TI_end_line(0x2f8)
    1595                      .dwattr $C$DW$192, DW_AT_TI_end_column(0x01)
    1596                      .dwendentry
    1597                      .dwendtag $C$DW$192
    1598              
    1599 0000014a               .sect   ".text"
    1600                      .clink
    1601                      .global _setupClarke_V
    1602              
    1603              $C$DW$221       .dwtag  DW_TAG_subprogram, DW_AT_name("setupClarke_V")
    1604                      .dwattr $C$DW$221, DW_AT_low_pc(_setupClarke_V)
    1605                      .dwattr $C$DW$221, DW_AT_high_pc(0x00)
    1606                      .dwattr $C$DW$221, DW_AT_TI_symbol_name("_setupClarke_V")
    1607                      .dwattr $C$DW$221, DW_AT_external
    1608                      .dwattr $C$DW$221, DW_AT_TI_begin_file("C:/ti/motorware/motorware_1_01_00_18/sw/solutions/instaspin_f
    1609                      .dwattr $C$DW$221, DW_AT_TI_begin_line(0x31e)
    1610                      .dwattr $C$DW$221, DW_AT_TI_begin_column(0x06)
    1611                      .dwattr $C$DW$221, DW_AT_TI_max_frame_size(-2)
    1612                      .dwpsn  file "C:/ti/motorware/motorware_1_01_00_18/sw/solutions/instaspin_foc/src/proj_lab11.c",line 
    1613              
    1614                      .dwfde $C$DW$CIE, _setupClarke_V
    1615              $C$DW$222       .dwtag  DW_TAG_formal_parameter, DW_AT_name("handle")
    1616                      .dwattr $C$DW$222, DW_AT_TI_symbol_name("_handle")
    1617                      .dwattr $C$DW$222, DW_AT_type(*$C$DW$T$156)
    1618                      .dwattr $C$DW$222, DW_AT_location[DW_OP_reg12]
    1619              $C$DW$223       .dwtag  DW_TAG_formal_parameter, DW_AT_name("numVoltageSensors")
    1620                      .dwattr $C$DW$223, DW_AT_TI_symbol_name("_numVoltageSensors")
    1621                      .dwattr $C$DW$223, DW_AT_type(*$C$DW$T$239)
    1622                      .dwattr $C$DW$223, DW_AT_location[DW_OP_reg0]
    1623              
    1624              ;***************************************************************
    1625              ;* FNAME: _setupClarke_V                FR SIZE:   0           *
    1626              ;*                                                             *
    1627              ;* FUNCTION ENVIRONMENT                                        *
    1628              ;*                                                             *
    1629              ;* FUNCTION PROPERTIES                                         *
    1630              ;*                            0 Parameter,  0 Auto,  0 SOE     *
    1631              ;***************************************************************
    1632              
    1633              _setupClarke_V:
    1634              ;* PL    assigned to _beta_sf
    1635              $C$DW$224       .dwtag  DW_TAG_variable, DW_AT_name("beta_sf")
    1636                      .dwattr $C$DW$224, DW_AT_TI_symbol_name("_beta_sf")
    1637                      .dwattr $C$DW$224, DW_AT_type(*$C$DW$T$32)
    1638                      .dwattr $C$DW$224, DW_AT_location[DW_OP_reg2]
    1639              ;* AR6   assigned to _alpha_sf
    1640              $C$DW$225       .dwtag  DW_TAG_variable, DW_AT_name("alpha_sf")
TMS320C2000 Assembler PC v6.2.5 Thu Jun 22 08:44:25 2017

Tools Copyright (c) 1996-2014 Texas Instruments Incorporated
C:\Users\wmj\AppData\Local\Temp\0846811                              PAGE   34

    1641                      .dwattr $C$DW$225, DW_AT_TI_symbol_name("_alpha_sf")
    1642                      .dwattr $C$DW$225, DW_AT_type(*$C$DW$T$32)
    1643                      .dwattr $C$DW$225, DW_AT_location[DW_OP_reg16]
    1644              ;* AL    assigned to _numVoltageSensors
    1645              $C$DW$226       .dwtag  DW_TAG_variable, DW_AT_name("numVoltageSensors")
    1646                      .dwattr $C$DW$226, DW_AT_TI_symbol_name("_numVoltageSensors")
    1647                      .dwattr $C$DW$226, DW_AT_type(*$C$DW$T$239)
    1648                      .dwattr $C$DW$226, DW_AT_location[DW_OP_reg0]
    1649              ;* AR4   assigned to _handle
    1650              $C$DW$227       .dwtag  DW_TAG_variable, DW_AT_name("handle")
    1651                      .dwattr $C$DW$227, DW_AT_TI_symbol_name("_handle")
    1652                      .dwattr $C$DW$227, DW_AT_type(*$C$DW$T$157)
    1653                      .dwattr $C$DW$227, DW_AT_location[DW_OP_reg12]
    1654                      .dwcfi  cfa_offset, -2
    1655                      .dwcfi  save_reg_to_mem, 26, 0
    1656                      .dwcfi  save_reg_to_reg, 78, 26
    1657                      .dwpsn  file "C:/ti/motorware/motorware_1_01_00_18/sw/solutions/instaspin_foc/src/proj_lab11.c",line 
    1658 0000014a 5203          CMPB      AL,#3                 ; [CPU_] |803| 
    1659 0000014b EC05          BF        $C$L3,EQ              ; [CPU_] |803| 
    1660                      ; branchcc occurs ; [] |803| 
    1661                      .dwpsn  file "C:/ti/motorware/motorware_1_01_00_18/sw/solutions/instaspin_foc/src/proj_lab11.c",line 
    1662 0000014c B600          MOVB      XAR7,#0               ; [CPU_] |811| 
    1663                      .dwpsn  file "C:/ti/motorware/motorware_1_01_00_18/sw/solutions/instaspin_foc/src/proj_lab11.c",line 
    1664 0000014d BE00          MOVB      XAR6,#0               ; [CPU_] |810| 
    1665                      .dwpsn  file "C:/ti/motorware/motorware_1_01_00_18/sw/solutions/instaspin_foc/src/proj_lab11.c",line 
    1666 0000014e A3A7          MOVL      P,XAR7                ; [CPU_] |811| 
    1667 0000014f 6F0A          B         $C$L4,UNC             ; [CPU_] |811| 
    1668                      ; branch occurs ; [] |811| 
    1669 00000150       $C$L3:    
    1670                      .dwpsn  file "C:/ti/motorware/motorware_1_01_00_18/sw/solutions/instaspin_foc/src/proj_lab11.c",line 
    1671 00000150 28AB          MOV       PL,#21845             ; [CPU_] |805| 
         00000151 5555 
    1672 00000152 28AA          MOV       PH,#85                ; [CPU_] |805| 
         00000153 0055 
    1673 00000154 A9A6          MOVL      XAR6,P                ; [CPU_] |805| 
    1674                      .dwpsn  file "C:/ti/motorware/motorware_1_01_00_18/sw/solutions/instaspin_foc/src/proj_lab11.c",line 
    1675 00000155 28AB          MOV       PL,#52538             ; [CPU_] |806| 
         00000156 CD3A 
    1676 00000157 28AA          MOV       PH,#147               ; [CPU_] |806| 
         00000158 0093 
    1677 00000159       $C$L4:    
    1678                      .dwpsn  file "C:/ti/motorware/motorware_1_01_00_18/sw/modules/clarke/src/32b/clarke.h",line 185,colum
    1679 00000159 C2C4          MOVL      *+XAR4[0],XAR6        ; [CPU_] |185| 
    1680                      .dwpsn  file "C:/ti/motorware/motorware_1_01_00_18/sw/modules/clarke/src/32b/clarke.h",line 186,colum
    1681 0000015a A9D4          MOVL      *+XAR4[2],P           ; [CPU_] |186| 
    1682                      .dwpsn  file "C:/ti/motorware/motorware_1_01_00_18/sw/modules/clarke/src/32b/clarke.h",line 170,colum
    1683 0000015b 96E4          MOV       *+XAR4[4],AL          ; [CPU_] |170| 
    1684              $C$DW$228       .dwtag  DW_TAG_TI_branch
    1685                      .dwattr $C$DW$228, DW_AT_low_pc(0x00)
    1686                      .dwattr $C$DW$228, DW_AT_TI_return
    1687 0000015c 0006          LRETR     ; [CPU_] 
    1688                      ; return occurs ; [] 
    1689                      .dwattr $C$DW$221, DW_AT_TI_end_file("C:/ti/motorware/motorware_1_01_00_18/sw/solutions/instaspin_foc
    1690                      .dwattr $C$DW$221, DW_AT_TI_end_line(0x334)
    1691                      .dwattr $C$DW$221, DW_AT_TI_end_column(0x01)
TMS320C2000 Assembler PC v6.2.5 Thu Jun 22 08:44:25 2017

Tools Copyright (c) 1996-2014 Texas Instruments Incorporated
C:\Users\wmj\AppData\Local\Temp\0846811                              PAGE   35

    1692                      .dwendentry
    1693                      .dwendtag $C$DW$221
    1694              
    1695 0000015d               .sect   ".text"
    1696                      .clink
    1697                      .global _setupClarke_I
    1698              
    1699              $C$DW$229       .dwtag  DW_TAG_subprogram, DW_AT_name("setupClarke_I")
    1700                      .dwattr $C$DW$229, DW_AT_low_pc(_setupClarke_I)
    1701                      .dwattr $C$DW$229, DW_AT_high_pc(0x00)
    1702                      .dwattr $C$DW$229, DW_AT_TI_symbol_name("_setupClarke_I")
    1703                      .dwattr $C$DW$229, DW_AT_external
    1704                      .dwattr $C$DW$229, DW_AT_TI_begin_file("C:/ti/motorware/motorware_1_01_00_18/sw/solutions/instaspin_f
    1705                      .dwattr $C$DW$229, DW_AT_TI_begin_line(0x2fe)
    1706                      .dwattr $C$DW$229, DW_AT_TI_begin_column(0x06)
    1707                      .dwattr $C$DW$229, DW_AT_TI_max_frame_size(-2)
    1708                      .dwpsn  file "C:/ti/motorware/motorware_1_01_00_18/sw/solutions/instaspin_foc/src/proj_lab11.c",line 
    1709              
    1710                      .dwfde $C$DW$CIE, _setupClarke_I
    1711              $C$DW$230       .dwtag  DW_TAG_formal_parameter, DW_AT_name("handle")
    1712                      .dwattr $C$DW$230, DW_AT_TI_symbol_name("_handle")
    1713                      .dwattr $C$DW$230, DW_AT_type(*$C$DW$T$156)
    1714                      .dwattr $C$DW$230, DW_AT_location[DW_OP_reg12]
    1715              $C$DW$231       .dwtag  DW_TAG_formal_parameter, DW_AT_name("numCurrentSensors")
    1716                      .dwattr $C$DW$231, DW_AT_TI_symbol_name("_numCurrentSensors")
    1717                      .dwattr $C$DW$231, DW_AT_type(*$C$DW$T$239)
    1718                      .dwattr $C$DW$231, DW_AT_location[DW_OP_reg0]
    1719              
    1720              ;***************************************************************
    1721              ;* FNAME: _setupClarke_I                FR SIZE:   0           *
    1722              ;*                                                             *
    1723              ;* FUNCTION ENVIRONMENT                                        *
    1724              ;*                                                             *
    1725              ;* FUNCTION PROPERTIES                                         *
    1726              ;*                            0 Parameter,  0 Auto,  0 SOE     *
    1727              ;***************************************************************
    1728              
    1729              _setupClarke_I:
    1730              ;* PL    assigned to _beta_sf
    1731              $C$DW$232       .dwtag  DW_TAG_variable, DW_AT_name("beta_sf")
    1732                      .dwattr $C$DW$232, DW_AT_TI_symbol_name("_beta_sf")
    1733                      .dwattr $C$DW$232, DW_AT_type(*$C$DW$T$32)
    1734                      .dwattr $C$DW$232, DW_AT_location[DW_OP_reg2]
    1735              ;* AR6   assigned to _alpha_sf
    1736              $C$DW$233       .dwtag  DW_TAG_variable, DW_AT_name("alpha_sf")
    1737                      .dwattr $C$DW$233, DW_AT_TI_symbol_name("_alpha_sf")
    1738                      .dwattr $C$DW$233, DW_AT_type(*$C$DW$T$32)
    1739                      .dwattr $C$DW$233, DW_AT_location[DW_OP_reg16]
    1740              ;* AL    assigned to _numCurrentSensors
    1741              $C$DW$234       .dwtag  DW_TAG_variable, DW_AT_name("numCurrentSensors")
    1742                      .dwattr $C$DW$234, DW_AT_TI_symbol_name("_numCurrentSensors")
    1743                      .dwattr $C$DW$234, DW_AT_type(*$C$DW$T$239)
    1744                      .dwattr $C$DW$234, DW_AT_location[DW_OP_reg0]
    1745              ;* AR4   assigned to _handle
    1746              $C$DW$235       .dwtag  DW_TAG_variable, DW_AT_name("handle")
TMS320C2000 Assembler PC v6.2.5 Thu Jun 22 08:44:25 2017

Tools Copyright (c) 1996-2014 Texas Instruments Incorporated
C:\Users\wmj\AppData\Local\Temp\0846811                              PAGE   36

    1747                      .dwattr $C$DW$235, DW_AT_TI_symbol_name("_handle")
    1748                      .dwattr $C$DW$235, DW_AT_type(*$C$DW$T$157)
    1749                      .dwattr $C$DW$235, DW_AT_location[DW_OP_reg12]
    1750                      .dwcfi  cfa_offset, -2
    1751                      .dwcfi  save_reg_to_mem, 26, 0
    1752                      .dwcfi  save_reg_to_reg, 78, 26
    1753                      .dwpsn  file "C:/ti/motorware/motorware_1_01_00_18/sw/solutions/instaspin_foc/src/proj_lab11.c",line 
    1754 0000015d 5203          CMPB      AL,#3                 ; [CPU_] |771| 
    1755 0000015e EC0B          BF        $C$L6,EQ              ; [CPU_] |771| 
    1756                      ; branchcc occurs ; [] |771| 
    1757                      .dwpsn  file "C:/ti/motorware/motorware_1_01_00_18/sw/solutions/instaspin_foc/src/proj_lab11.c",line 
    1758 0000015f 5202          CMPB      AL,#2                 ; [CPU_] |776| 
    1759 00000160 EC05          BF        $C$L5,EQ              ; [CPU_] |776| 
    1760                      ; branchcc occurs ; [] |776| 
    1761                      .dwpsn  file "C:/ti/motorware/motorware_1_01_00_18/sw/solutions/instaspin_foc/src/proj_lab11.c",line 
    1762 00000161 B600          MOVB      XAR7,#0               ; [CPU_] |784| 
    1763                      .dwpsn  file "C:/ti/motorware/motorware_1_01_00_18/sw/solutions/instaspin_foc/src/proj_lab11.c",line 
    1764 00000162 BE00          MOVB      XAR6,#0               ; [CPU_] |783| 
    1765                      .dwpsn  file "C:/ti/motorware/motorware_1_01_00_18/sw/solutions/instaspin_foc/src/proj_lab11.c",line 
    1766 00000163 A3A7          MOVL      P,XAR7                ; [CPU_] |784| 
    1767 00000164 6F0E          B         $C$L8,UNC             ; [CPU_] |784| 
    1768                      ; branch occurs ; [] |784| 
    1769 00000165       $C$L5:    
    1770                      .dwpsn  file "C:/ti/motorware/motorware_1_01_00_18/sw/solutions/instaspin_foc/src/proj_lab11.c",line 
    1771 00000165 2BAB          MOV       PL,#0                 ; [CPU_] |778| 
    1772 00000166 28AA          MOV       PH,#256               ; [CPU_] |778| 
         00000167 0100 
    1773                      .dwpsn  file "C:/ti/motorware/motorware_1_01_00_18/sw/solutions/instaspin_foc/src/proj_lab11.c",line 
    1774 00000168 6F05          B         $C$L7,UNC             ; [CPU_] |780| 
    1775                      ; branch occurs ; [] |780| 
    1776 00000169       $C$L6:    
    1777                      .dwpsn  file "C:/ti/motorware/motorware_1_01_00_18/sw/solutions/instaspin_foc/src/proj_lab11.c",line 
    1778 00000169 28AB          MOV       PL,#21845             ; [CPU_] |773| 
         0000016a 5555 
    1779 0000016b 28AA          MOV       PH,#85                ; [CPU_] |773| 
         0000016c 0055 
    1780 0000016d       $C$L7:    
    1781 0000016d A9A6          MOVL      XAR6,P                ; [CPU_] |773| 
    1782                      .dwpsn  file "C:/ti/motorware/motorware_1_01_00_18/sw/solutions/instaspin_foc/src/proj_lab11.c",line 
    1783 0000016e 28AB          MOV       PL,#52538             ; [CPU_] |774| 
         0000016f CD3A 
    1784 00000170 28AA          MOV       PH,#147               ; [CPU_] |774| 
         00000171 0093 
    1785 00000172       $C$L8:    
    1786                      .dwpsn  file "C:/ti/motorware/motorware_1_01_00_18/sw/modules/clarke/src/32b/clarke.h",line 185,colum
    1787 00000172 C2C4          MOVL      *+XAR4[0],XAR6        ; [CPU_] |185| 
    1788                      .dwpsn  file "C:/ti/motorware/motorware_1_01_00_18/sw/modules/clarke/src/32b/clarke.h",line 186,colum
    1789 00000173 A9D4          MOVL      *+XAR4[2],P           ; [CPU_] |186| 
    1790                      .dwpsn  file "C:/ti/motorware/motorware_1_01_00_18/sw/modules/clarke/src/32b/clarke.h",line 170,colum
    1791 00000174 96E4          MOV       *+XAR4[4],AL          ; [CPU_] |170| 
    1792              $C$DW$236       .dwtag  DW_TAG_TI_branch
    1793                      .dwattr $C$DW$236, DW_AT_low_pc(0x00)
    1794                      .dwattr $C$DW$236, DW_AT_TI_return
    1795 00000175 0006          LRETR     ; [CPU_] 
    1796                      ; return occurs ; [] 
TMS320C2000 Assembler PC v6.2.5 Thu Jun 22 08:44:25 2017

Tools Copyright (c) 1996-2014 Texas Instruments Incorporated
C:\Users\wmj\AppData\Local\Temp\0846811                              PAGE   37

    1797                      .dwattr $C$DW$229, DW_AT_TI_end_file("C:/ti/motorware/motorware_1_01_00_18/sw/solutions/instaspin_foc
    1798                      .dwattr $C$DW$229, DW_AT_TI_end_line(0x318)
    1799                      .dwattr $C$DW$229, DW_AT_TI_end_column(0x01)
    1800                      .dwendentry
    1801                      .dwendtag $C$DW$229
    1802              
    1803 00000176               .sect   ".text"
    1804                      .clink
    1805                      .global _angleDelayComp
    1806              
    1807              $C$DW$237       .dwtag  DW_TAG_subprogram, DW_AT_name("angleDelayComp")
    1808                      .dwattr $C$DW$237, DW_AT_low_pc(_angleDelayComp)
    1809                      .dwattr $C$DW$237, DW_AT_high_pc(0x00)
    1810                      .dwattr $C$DW$237, DW_AT_TI_symbol_name("_angleDelayComp")
    1811                      .dwattr $C$DW$237, DW_AT_external
    1812                      .dwattr $C$DW$237, DW_AT_type(*$C$DW$T$32)
    1813                      .dwattr $C$DW$237, DW_AT_TI_begin_file("C:/ti/motorware/motorware_1_01_00_18/sw/solutions/instaspin_f
    1814                      .dwattr $C$DW$237, DW_AT_TI_begin_line(0x2c5)
    1815                      .dwattr $C$DW$237, DW_AT_TI_begin_column(0x05)
    1816                      .dwattr $C$DW$237, DW_AT_TI_max_frame_size(-2)
    1817                      .dwpsn  file "C:/ti/motorware/motorware_1_01_00_18/sw/solutions/instaspin_foc/src/proj_lab11.c",line 
    1818              
    1819                      .dwfde $C$DW$CIE, _angleDelayComp
    1820              $C$DW$238       .dwtag  DW_TAG_formal_parameter, DW_AT_name("fm_pu")
    1821                      .dwattr $C$DW$238, DW_AT_TI_symbol_name("_fm_pu")
    1822                      .dwattr $C$DW$238, DW_AT_type(*$C$DW$T$229)
    1823                      .dwattr $C$DW$238, DW_AT_location[DW_OP_reg0]
    1824              $C$DW$239       .dwtag  DW_TAG_formal_parameter, DW_AT_name("angleUncomp_pu")
    1825                      .dwattr $C$DW$239, DW_AT_TI_symbol_name("_angleUncomp_pu")
    1826                      .dwattr $C$DW$239, DW_AT_type(*$C$DW$T$229)
    1827                      .dwattr $C$DW$239, DW_AT_location[DW_OP_breg20 -4]
    1828              
    1829              ;***************************************************************
    1830              ;* FNAME: _angleDelayComp               FR SIZE:   0           *
    1831              ;*                                                             *
    1832              ;* FUNCTION ENVIRONMENT                                        *
    1833              ;*                                                             *
    1834              ;* FUNCTION PROPERTIES                                         *
    1835              ;*                            0 Parameter,  0 Auto,  0 SOE     *
    1836              ;***************************************************************
    1837              
    1838              _angleDelayComp:
    1839              ;* AR7   assigned to $O$C1
    1840              ;* AR6   assigned to _angleComp_pu
    1841              $C$DW$240       .dwtag  DW_TAG_variable, DW_AT_name("angleComp_pu")
    1842                      .dwattr $C$DW$240, DW_AT_TI_symbol_name("_angleComp_pu")
    1843                      .dwattr $C$DW$240, DW_AT_type(*$C$DW$T$32)
    1844                      .dwattr $C$DW$240, DW_AT_location[DW_OP_reg16]
    1845              ;* AR6   assigned to _angleUncomp_pu
    1846              $C$DW$241       .dwtag  DW_TAG_variable, DW_AT_name("angleUncomp_pu")
    1847                      .dwattr $C$DW$241, DW_AT_TI_symbol_name("_angleUncomp_pu")
    1848                      .dwattr $C$DW$241, DW_AT_type(*$C$DW$T$229)
    1849                      .dwattr $C$DW$241, DW_AT_location[DW_OP_reg16]
    1850              ;* XT    assigned to _fm_pu
    1851              $C$DW$242       .dwtag  DW_TAG_variable, DW_AT_name("fm_pu")
TMS320C2000 Assembler PC v6.2.5 Thu Jun 22 08:44:25 2017

Tools Copyright (c) 1996-2014 Texas Instruments Incorporated
C:\Users\wmj\AppData\Local\Temp\0846811                              PAGE   38

    1852                      .dwattr $C$DW$242, DW_AT_TI_symbol_name("_fm_pu")
    1853                      .dwattr $C$DW$242, DW_AT_type(*$C$DW$T$229)
    1854                      .dwattr $C$DW$242, DW_AT_location[DW_OP_reg21]
    1855              ;* AR6   assigned to $O$K11
    1856                      .dwcfi  cfa_offset, -2
    1857                      .dwcfi  save_reg_to_mem, 26, 0
    1858                      .dwcfi  save_reg_to_reg, 78, 26
    1859 00000176 1EAC          MOVL      XT,ACC                ; [CPU_] |710| 
    1860                      .dwpsn  file "C:/ti/motorware/motorware_1_01_00_18/sw/solutions/instaspin_foc/src/proj_lab11.c",line 
    1861 00000177 8F01          MOVL      XAR4,#111848          ; [CPU_U] |725| 
         00000178 B4E8 
    1862                      .dwpsn  file "C:/ti/motorware/motorware_1_01_00_18/sw/solutions/instaspin_foc/src/proj_lab11.c",line 
    1863 00000179 C444          MOVL      XAR6,*-SP[4]          ; [CPU_] |710| 
    1864                      .dwpsn  file "C:/ti/motorware/motorware_1_01_00_18/sw/solutions/instaspin_foc/src/proj_lab11.c",line 
    1865 0000017a 5605          IMPYL     P,XT,XAR4             ; [CPU_] |725| 
         0000017b 00A4 
    1866 0000017c 5663          QMPYL     ACC,XT,XAR4           ; [CPU_] |725| 
         0000017d 00A4 
    1867 0000017e 56A7          LSL64     ACC:P,#8              ; [CPU_] |725| 
    1868 0000017f 1EAC          MOVL      XT,ACC                ; [CPU_] |725| 
    1869 00000180 FF2F          MOV       ACC,#768 << 15        ; [CPU_] |725| 
         00000181 0300 
    1870 00000182 5605          IMPYL     P,XT,ACC              ; [CPU_] |725| 
         00000183 00A9 
    1871 00000184 5663          QMPYL     ACC,XT,ACC            ; [CPU_] |725| 
         00000185 00A9 
    1872 00000186 56A7          LSL64     ACC:P,#8              ; [CPU_] |725| 
    1873 00000187 07A6          ADDL      ACC,XAR6              ; [CPU_] |725| 
    1874 00000188 1EA7          MOVL      XAR7,ACC              ; [CPU_] |725| 
    1875 00000189 FF56          ABS       ACC                   ; [CPU_] |725| 
    1876 0000018a 91FF          ANDB      AH,#255               ; [CPU_] |725| 
    1877 0000018b 1EA6          MOVL      XAR6,ACC              ; [CPU_] |725| 
    1878 0000018c 06A7          MOVL      ACC,XAR7              ; [CPU_] |725| 
    1879                      .dwpsn  file "C:/ti/motorware/motorware_1_01_00_18/sw/solutions/instaspin_foc/src/proj_lab11.c",line 
    1880 0000018d 6304          B         $C$L9,GEQ             ; [CPU_] |728| 
    1881                      ; branchcc occurs ; [] |728| 
    1882                      .dwpsn  file "C:/ti/motorware/motorware_1_01_00_18/sw/solutions/instaspin_foc/src/proj_lab11.c",line 
    1883 0000018e 06A6          MOVL      ACC,XAR6              ; [CPU_] |730| 
    1884 0000018f FF54          NEG       ACC                   ; [CPU_] |730| 
    1885 00000190 1EA6          MOVL      XAR6,ACC              ; [CPU_] |730| 
    1886 00000191       $C$L9:    
    1887                      .dwpsn  file "C:/ti/motorware/motorware_1_01_00_18/sw/solutions/instaspin_foc/src/proj_lab11.c",line 
    1888 00000191 06A6          MOVL      ACC,XAR6              ; [CPU_] |733| 
    1889              $C$DW$243       .dwtag  DW_TAG_TI_branch
    1890                      .dwattr $C$DW$243, DW_AT_low_pc(0x00)
    1891                      .dwattr $C$DW$243, DW_AT_TI_return
    1892 00000192 0006          LRETR     ; [CPU_] 
    1893                      ; return occurs ; [] 
    1894                      .dwattr $C$DW$237, DW_AT_TI_end_file("C:/ti/motorware/motorware_1_01_00_18/sw/solutions/instaspin_foc
    1895                      .dwattr $C$DW$237, DW_AT_TI_end_line(0x2de)
    1896                      .dwattr $C$DW$237, DW_AT_TI_end_column(0x01)
    1897                      .dwendentry
    1898                      .dwendtag $C$DW$237
    1899              
    1900 00000000               .sect   "ramfuncs:retain"
TMS320C2000 Assembler PC v6.2.5 Thu Jun 22 08:44:25 2017

Tools Copyright (c) 1996-2014 Texas Instruments Incorporated
C:\Users\wmj\AppData\Local\Temp\0846811                              PAGE   39

    1901                      .retain
    1902                      .retainrefs
    1903                      .global _mainISR
    1904              
    1905              $C$DW$244       .dwtag  DW_TAG_subprogram, DW_AT_name("mainISR")
    1906                      .dwattr $C$DW$244, DW_AT_low_pc(_mainISR)
    1907                      .dwattr $C$DW$244, DW_AT_high_pc(0x00)
    1908                      .dwattr $C$DW$244, DW_AT_TI_symbol_name("_mainISR")
    1909                      .dwattr $C$DW$244, DW_AT_external
    1910                      .dwattr $C$DW$244, DW_AT_TI_begin_file("C:/ti/motorware/motorware_1_01_00_18/sw/solutions/instaspin_f
    1911                      .dwattr $C$DW$244, DW_AT_TI_begin_line(0x21e)
    1912                      .dwattr $C$DW$244, DW_AT_TI_begin_column(0x10)
    1913                      .dwattr $C$DW$244, DW_AT_TI_interrupt
    1914                      .dwattr $C$DW$244, DW_AT_TI_max_frame_size(-40)
    1915                      .dwpsn  file "C:/ti/motorware/motorware_1_01_00_18/sw/solutions/instaspin_foc/src/proj_lab11.c",line 
    1916              
    1917                      .dwfde $C$DW$CIE, _mainISR
    1918              
    1919              ;***************************************************************
    1920              ;* FNAME: _mainISR                      FR SIZE:  38           *
    1921              ;*                                                             *
    1922              ;* FUNCTION ENVIRONMENT                                        *
    1923              ;*                                                             *
    1924              ;* FUNCTION PROPERTIES                                         *
    1925              ;*                            4 Parameter, 18 Auto, 16 SOE     *
    1926              ;***************************************************************
    1927              
    1928              _mainISR:
    1929              ;* AR5   assigned to $O$C1
    1930              ;* AR5   assigned to $O$C2
    1931              ;* AR5   assigned to $O$C3
    1932              ;* AR4   assigned to $O$C4
    1933              ;* AL    assigned to $O$C5
    1934              ;* PL    assigned to $O$C6
    1935              ;* AR4   assigned to $O$C7
    1936              ;* AR2   assigned to $O$C8
    1937              ;* AR4   assigned to $O$C10
    1938              ;* AR0   assigned to $O$C11
    1939              ;* AL    assigned to $O$C12
    1940              ;* AR4   assigned to $O$C13
    1941              ;* AL    assigned to $O$C14
    1942              ;* AR6   assigned to $O$C15
    1943              ;* AR6   assigned to $O$C16
    1944              ;* AR5   assigned to $O$C17
    1945              ;* AR6   assigned to $O$C18
    1946              ;* AR4   assigned to $O$C19
    1947              ;* AR7   assigned to $O$C20
    1948              ;* AR6   assigned to $O$C21
    1949              ;* AR7   assigned to $O$C22
    1950              ;* AR4   assigned to $O$K23
    1951              ;* AR5   assigned to $O$K41
    1952              ;* AR5   assigned to $O$K174
    1953              ;* AR4   assigned to $O$U337
    1954              ;* AR7   assigned to $O$U345
    1955              ;* AR4   assigned to $O$U336
TMS320C2000 Assembler PC v6.2.5 Thu Jun 22 08:44:25 2017

Tools Copyright (c) 1996-2014 Texas Instruments Incorporated
C:\Users\wmj\AppData\Local\Temp\0846811                              PAGE   40

    1956              ;* AR6   assigned to $O$L1
    1957              ;* AR5   assigned to _obj
    1958              $C$DW$245       .dwtag  DW_TAG_variable, DW_AT_name("obj")
    1959                      .dwattr $C$DW$245, DW_AT_TI_symbol_name("_obj")
    1960                      .dwattr $C$DW$245, DW_AT_type(*$C$DW$T$172)
    1961                      .dwattr $C$DW$245, DW_AT_location[DW_OP_reg14]
    1962              ;* AR0   assigned to _alpha_sf
    1963              $C$DW$246       .dwtag  DW_TAG_variable, DW_AT_name("alpha_sf")
    1964                      .dwattr $C$DW$246, DW_AT_TI_symbol_name("_alpha_sf")
    1965                      .dwattr $C$DW$246, DW_AT_type(*$C$DW$T$32)
    1966                      .dwattr $C$DW$246, DW_AT_location[DW_OP_reg4]
    1967              ;* AR7   assigned to _beta_sf
    1968              $C$DW$247       .dwtag  DW_TAG_variable, DW_AT_name("beta_sf")
    1969                      .dwattr $C$DW$247, DW_AT_TI_symbol_name("_beta_sf")
    1970                      .dwattr $C$DW$247, DW_AT_type(*$C$DW$T$32)
    1971                      .dwattr $C$DW$247, DW_AT_location[DW_OP_reg18]
    1972              ;* AR7   assigned to _alpha_sf
    1973              $C$DW$248       .dwtag  DW_TAG_variable, DW_AT_name("alpha_sf")
    1974                      .dwattr $C$DW$248, DW_AT_TI_symbol_name("_alpha_sf")
    1975                      .dwattr $C$DW$248, DW_AT_type(*$C$DW$T$32)
    1976                      .dwattr $C$DW$248, DW_AT_location[DW_OP_reg18]
    1977              ;* AR6   assigned to _beta_sf
    1978              $C$DW$249       .dwtag  DW_TAG_variable, DW_AT_name("beta_sf")
    1979                      .dwattr $C$DW$249, DW_AT_TI_symbol_name("_beta_sf")
    1980                      .dwattr $C$DW$249, DW_AT_type(*$C$DW$T$32)
    1981                      .dwattr $C$DW$249, DW_AT_location[DW_OP_reg16]
    1982              ;* AR5   assigned to _refValue
    1983              $C$DW$250       .dwtag  DW_TAG_variable, DW_AT_name("refValue")
    1984                      .dwattr $C$DW$250, DW_AT_TI_symbol_name("_refValue")
    1985                      .dwattr $C$DW$250, DW_AT_type(*$C$DW$T$32)
    1986                      .dwattr $C$DW$250, DW_AT_location[DW_OP_reg14]
    1987              ;* AR4   assigned to _obj
    1988              $C$DW$251       .dwtag  DW_TAG_variable, DW_AT_name("obj")
    1989                      .dwattr $C$DW$251, DW_AT_TI_symbol_name("_obj")
    1990                      .dwattr $C$DW$251, DW_AT_type(*$C$DW$T$203)
    1991                      .dwattr $C$DW$251, DW_AT_location[DW_OP_reg12]
    1992              ;* AR7   assigned to _Up
    1993              $C$DW$252       .dwtag  DW_TAG_variable, DW_AT_name("Up")
    1994                      .dwattr $C$DW$252, DW_AT_TI_symbol_name("_Up")
    1995                      .dwattr $C$DW$252, DW_AT_type(*$C$DW$T$32)
    1996                      .dwattr $C$DW$252, DW_AT_location[DW_OP_reg18]
    1997              ;* AL    assigned to _Ui
    1998              $C$DW$253       .dwtag  DW_TAG_variable, DW_AT_name("Ui")
    1999                      .dwattr $C$DW$253, DW_AT_TI_symbol_name("_Ui")
    2000                      .dwattr $C$DW$253, DW_AT_type(*$C$DW$T$32)
    2001                      .dwattr $C$DW$253, DW_AT_location[DW_OP_reg0]
    2002              ;* AR2   assigned to _refValue
    2003              $C$DW$254       .dwtag  DW_TAG_variable, DW_AT_name("refValue")
    2004                      .dwattr $C$DW$254, DW_AT_TI_symbol_name("_refValue")
    2005                      .dwattr $C$DW$254, DW_AT_type(*$C$DW$T$32)
    2006                      .dwattr $C$DW$254, DW_AT_location[DW_OP_reg8]
    2007              ;* AR7   assigned to _fbackValue
    2008              $C$DW$255       .dwtag  DW_TAG_variable, DW_AT_name("fbackValue")
    2009                      .dwattr $C$DW$255, DW_AT_TI_symbol_name("_fbackValue")
    2010                      .dwattr $C$DW$255, DW_AT_type(*$C$DW$T$32)
TMS320C2000 Assembler PC v6.2.5 Thu Jun 22 08:44:25 2017

Tools Copyright (c) 1996-2014 Texas Instruments Incorporated
C:\Users\wmj\AppData\Local\Temp\0846811                              PAGE   41

    2011                      .dwattr $C$DW$255, DW_AT_location[DW_OP_reg18]
    2012              ;* AR6   assigned to _obj
    2013              $C$DW$256       .dwtag  DW_TAG_variable, DW_AT_name("obj")
    2014                      .dwattr $C$DW$256, DW_AT_TI_symbol_name("_obj")
    2015                      .dwattr $C$DW$256, DW_AT_type(*$C$DW$T$203)
    2016                      .dwattr $C$DW$256, DW_AT_location[DW_OP_reg16]
    2017              ;* AR3   assigned to _Up
    2018              $C$DW$257       .dwtag  DW_TAG_variable, DW_AT_name("Up")
    2019                      .dwattr $C$DW$257, DW_AT_TI_symbol_name("_Up")
    2020                      .dwattr $C$DW$257, DW_AT_type(*$C$DW$T$32)
    2021                      .dwattr $C$DW$257, DW_AT_location[DW_OP_reg10]
    2022              ;* AL    assigned to _Ui
    2023              $C$DW$258       .dwtag  DW_TAG_variable, DW_AT_name("Ui")
    2024                      .dwattr $C$DW$258, DW_AT_TI_symbol_name("_Ui")
    2025                      .dwattr $C$DW$258, DW_AT_type(*$C$DW$T$32)
    2026                      .dwattr $C$DW$258, DW_AT_location[DW_OP_reg0]
    2027              ;* AR4   assigned to _obj
    2028              $C$DW$259       .dwtag  DW_TAG_variable, DW_AT_name("obj")
    2029                      .dwattr $C$DW$259, DW_AT_TI_symbol_name("_obj")
    2030                      .dwattr $C$DW$259, DW_AT_type(*$C$DW$T$203)
    2031                      .dwattr $C$DW$259, DW_AT_location[DW_OP_reg12]
    2032              ;* AR7   assigned to _refValue
    2033              $C$DW$260       .dwtag  DW_TAG_variable, DW_AT_name("refValue")
    2034                      .dwattr $C$DW$260, DW_AT_TI_symbol_name("_refValue")
    2035                      .dwattr $C$DW$260, DW_AT_type(*$C$DW$T$32)
    2036                      .dwattr $C$DW$260, DW_AT_location[DW_OP_reg18]
    2037              ;* AR4   assigned to _obj
    2038              $C$DW$261       .dwtag  DW_TAG_variable, DW_AT_name("obj")
    2039                      .dwattr $C$DW$261, DW_AT_TI_symbol_name("_obj")
    2040                      .dwattr $C$DW$261, DW_AT_type(*$C$DW$T$203)
    2041                      .dwattr $C$DW$261, DW_AT_location[DW_OP_reg12]
    2042              ;* AR6   assigned to _Up
    2043              $C$DW$262       .dwtag  DW_TAG_variable, DW_AT_name("Up")
    2044                      .dwattr $C$DW$262, DW_AT_TI_symbol_name("_Up")
    2045                      .dwattr $C$DW$262, DW_AT_type(*$C$DW$T$32)
    2046                      .dwattr $C$DW$262, DW_AT_location[DW_OP_reg16]
    2047              ;* AL    assigned to _Ui
    2048              $C$DW$263       .dwtag  DW_TAG_variable, DW_AT_name("Ui")
    2049                      .dwattr $C$DW$263, DW_AT_TI_symbol_name("_Ui")
    2050                      .dwattr $C$DW$263, DW_AT_type(*$C$DW$T$32)
    2051                      .dwattr $C$DW$263, DW_AT_location[DW_OP_reg0]
    2052              ;* AR4   assigned to _obj
    2053              $C$DW$264       .dwtag  DW_TAG_variable, DW_AT_name("obj")
    2054                      .dwattr $C$DW$264, DW_AT_TI_symbol_name("_obj")
    2055                      .dwattr $C$DW$264, DW_AT_type(*$C$DW$T$182)
    2056                      .dwattr $C$DW$264, DW_AT_location[DW_OP_reg12]
    2057              ;* AR7   assigned to _sinTh
    2058              $C$DW$265       .dwtag  DW_TAG_variable, DW_AT_name("sinTh")
    2059                      .dwattr $C$DW$265, DW_AT_TI_symbol_name("_sinTh")
    2060                      .dwattr $C$DW$265, DW_AT_type(*$C$DW$T$32)
    2061                      .dwattr $C$DW$265, DW_AT_location[DW_OP_reg18]
    2062              ;* AR4   assigned to _cosTh
    2063              $C$DW$266       .dwtag  DW_TAG_variable, DW_AT_name("cosTh")
    2064                      .dwattr $C$DW$266, DW_AT_TI_symbol_name("_cosTh")
    2065                      .dwattr $C$DW$266, DW_AT_type(*$C$DW$T$32)
TMS320C2000 Assembler PC v6.2.5 Thu Jun 22 08:44:25 2017

Tools Copyright (c) 1996-2014 Texas Instruments Incorporated
C:\Users\wmj\AppData\Local\Temp\0846811                              PAGE   42

    2066                      .dwattr $C$DW$266, DW_AT_location[DW_OP_reg12]
    2067              ;* AR6   assigned to _Va
    2068              $C$DW$267       .dwtag  DW_TAG_variable, DW_AT_name("Va")
    2069                      .dwattr $C$DW$267, DW_AT_TI_symbol_name("_Va")
    2070                      .dwattr $C$DW$267, DW_AT_type(*$C$DW$T$32)
    2071                      .dwattr $C$DW$267, DW_AT_location[DW_OP_reg16]
    2072              ;* AR5   assigned to _Vb
    2073              $C$DW$268       .dwtag  DW_TAG_variable, DW_AT_name("Vb")
    2074                      .dwattr $C$DW$268, DW_AT_TI_symbol_name("_Vb")
    2075                      .dwattr $C$DW$268, DW_AT_type(*$C$DW$T$32)
    2076                      .dwattr $C$DW$268, DW_AT_location[DW_OP_reg14]
    2077              ;* AR7   assigned to _Vc
    2078              $C$DW$269       .dwtag  DW_TAG_variable, DW_AT_name("Vc")
    2079                      .dwattr $C$DW$269, DW_AT_TI_symbol_name("_Vc")
    2080                      .dwattr $C$DW$269, DW_AT_type(*$C$DW$T$32)
    2081                      .dwattr $C$DW$269, DW_AT_location[DW_OP_reg18]
    2082              ;* AR6   assigned to _pwmHandle
    2083              $C$DW$270       .dwtag  DW_TAG_variable, DW_AT_name("pwmHandle")
    2084                      .dwattr $C$DW$270, DW_AT_TI_symbol_name("_pwmHandle")
    2085                      .dwattr $C$DW$270, DW_AT_type(*$C$DW$T$72)
    2086                      .dwattr $C$DW$270, DW_AT_location[DW_OP_reg16]
    2087              ;* AR6   assigned to _pwmHandle
    2088              $C$DW$271       .dwtag  DW_TAG_variable, DW_AT_name("pwmHandle")
    2089                      .dwattr $C$DW$271, DW_AT_TI_symbol_name("_pwmHandle")
    2090                      .dwattr $C$DW$271, DW_AT_type(*$C$DW$T$72)
    2091                      .dwattr $C$DW$271, DW_AT_location[DW_OP_reg16]
    2092              ;* AR5   assigned to _pwmHandle
    2093              $C$DW$272       .dwtag  DW_TAG_variable, DW_AT_name("pwmHandle")
    2094                      .dwattr $C$DW$272, DW_AT_TI_symbol_name("_pwmHandle")
    2095                      .dwattr $C$DW$272, DW_AT_type(*$C$DW$T$72)
    2096                      .dwattr $C$DW$272, DW_AT_location[DW_OP_reg14]
    2097              ;* AR5   assigned to _obj
    2098              $C$DW$273       .dwtag  DW_TAG_variable, DW_AT_name("obj")
    2099                      .dwattr $C$DW$273, DW_AT_TI_symbol_name("_obj")
    2100                      .dwattr $C$DW$273, DW_AT_type(*$C$DW$T$172)
    2101                      .dwattr $C$DW$273, DW_AT_location[DW_OP_reg14]
    2102              ;* AR0   assigned to _period
    2103              $C$DW$274       .dwtag  DW_TAG_variable, DW_AT_name("period")
    2104                      .dwattr $C$DW$274, DW_AT_TI_symbol_name("_period")
    2105                      .dwattr $C$DW$274, DW_AT_type(*$C$DW$T$32)
    2106                      .dwattr $C$DW$274, DW_AT_location[DW_OP_reg4]
    2107              ;* AR6   assigned to _outMax_pu
    2108              $C$DW$275       .dwtag  DW_TAG_variable, DW_AT_name("outMax_pu")
    2109                      .dwattr $C$DW$275, DW_AT_TI_symbol_name("_outMax_pu")
    2110                      .dwattr $C$DW$275, DW_AT_type(*$C$DW$T$32)
    2111                      .dwattr $C$DW$275, DW_AT_location[DW_OP_reg16]
    2112              ;* AR3   assigned to _fbackValue
    2113              $C$DW$276       .dwtag  DW_TAG_variable, DW_AT_name("fbackValue")
    2114                      .dwattr $C$DW$276, DW_AT_TI_symbol_name("_fbackValue")
    2115                      .dwattr $C$DW$276, DW_AT_type(*$C$DW$T$32)
    2116                      .dwattr $C$DW$276, DW_AT_location[DW_OP_reg10]
    2117              ;* AR1   assigned to _refValue
    2118              $C$DW$277       .dwtag  DW_TAG_variable, DW_AT_name("refValue")
    2119                      .dwattr $C$DW$277, DW_AT_TI_symbol_name("_refValue")
    2120                      .dwattr $C$DW$277, DW_AT_type(*$C$DW$T$32)
TMS320C2000 Assembler PC v6.2.5 Thu Jun 22 08:44:25 2017

Tools Copyright (c) 1996-2014 Texas Instruments Incorporated
C:\Users\wmj\AppData\Local\Temp\0846811                              PAGE   43

    2121                      .dwattr $C$DW$277, DW_AT_location[DW_OP_reg6]
    2122              ;* AR6   assigned to _oneOverDcBus
    2123              $C$DW$278       .dwtag  DW_TAG_variable, DW_AT_name("oneOverDcBus")
    2124                      .dwattr $C$DW$278, DW_AT_TI_symbol_name("_oneOverDcBus")
    2125                      .dwattr $C$DW$278, DW_AT_type(*$C$DW$T$32)
    2126                      .dwattr $C$DW$278, DW_AT_location[DW_OP_reg16]
    2127              $C$DW$279       .dwtag  DW_TAG_variable, DW_AT_name("speed_pu")
    2128                      .dwattr $C$DW$279, DW_AT_TI_symbol_name("_speed_pu")
    2129                      .dwattr $C$DW$279, DW_AT_type(*$C$DW$T$32)
    2130                      .dwattr $C$DW$279, DW_AT_location[DW_OP_breg20 -20]
    2131              $C$DW$280       .dwtag  DW_TAG_variable, DW_AT_name("angle_pu")
    2132                      .dwattr $C$DW$280, DW_AT_TI_symbol_name("_angle_pu")
    2133                      .dwattr $C$DW$280, DW_AT_type(*$C$DW$T$32)
    2134                      .dwattr $C$DW$280, DW_AT_location[DW_OP_breg20 -22]
    2135              ;* XT    assigned to _value
    2136              $C$DW$281       .dwtag  DW_TAG_variable, DW_AT_name("value")
    2137                      .dwattr $C$DW$281, DW_AT_TI_symbol_name("_value")
    2138                      .dwattr $C$DW$281, DW_AT_type(*$C$DW$T$32)
    2139                      .dwattr $C$DW$281, DW_AT_location[DW_OP_reg21]
    2140              ;* XT    assigned to _value
    2141              $C$DW$282       .dwtag  DW_TAG_variable, DW_AT_name("value")
    2142                      .dwattr $C$DW$282, DW_AT_TI_symbol_name("_value")
    2143                      .dwattr $C$DW$282, DW_AT_type(*$C$DW$T$32)
    2144                      .dwattr $C$DW$282, DW_AT_location[DW_OP_reg21]
    2145              ;* XT    assigned to _value
    2146              $C$DW$283       .dwtag  DW_TAG_variable, DW_AT_name("value")
    2147                      .dwattr $C$DW$283, DW_AT_TI_symbol_name("_value")
    2148                      .dwattr $C$DW$283, DW_AT_type(*$C$DW$T$32)
    2149                      .dwattr $C$DW$283, DW_AT_location[DW_OP_reg21]
    2150              ;* XT    assigned to _value
    2151              $C$DW$284       .dwtag  DW_TAG_variable, DW_AT_name("value")
    2152                      .dwattr $C$DW$284, DW_AT_TI_symbol_name("_value")
    2153                      .dwattr $C$DW$284, DW_AT_type(*$C$DW$T$32)
    2154                      .dwattr $C$DW$284, DW_AT_location[DW_OP_reg21]
    2155              ;* XT    assigned to _value
    2156              $C$DW$285       .dwtag  DW_TAG_variable, DW_AT_name("value")
    2157                      .dwattr $C$DW$285, DW_AT_TI_symbol_name("_value")
    2158                      .dwattr $C$DW$285, DW_AT_type(*$C$DW$T$32)
    2159                      .dwattr $C$DW$285, DW_AT_location[DW_OP_reg21]
    2160              ;* XT    assigned to _value
    2161              $C$DW$286       .dwtag  DW_TAG_variable, DW_AT_name("value")
    2162                      .dwattr $C$DW$286, DW_AT_TI_symbol_name("_value")
    2163                      .dwattr $C$DW$286, DW_AT_type(*$C$DW$T$32)
    2164                      .dwattr $C$DW$286, DW_AT_location[DW_OP_reg21]
    2165              ;* XT    assigned to _value
    2166              $C$DW$287       .dwtag  DW_TAG_variable, DW_AT_name("value")
    2167                      .dwattr $C$DW$287, DW_AT_TI_symbol_name("_value")
    2168                      .dwattr $C$DW$287, DW_AT_type(*$C$DW$T$32)
    2169                      .dwattr $C$DW$287, DW_AT_location[DW_OP_reg21]
    2170              ;* PL    assigned to _Vmax
    2171              $C$DW$288       .dwtag  DW_TAG_variable, DW_AT_name("Vmax")
    2172                      .dwattr $C$DW$288, DW_AT_TI_symbol_name("_Vmax")
    2173                      .dwattr $C$DW$288, DW_AT_type(*$C$DW$T$32)
    2174                      .dwattr $C$DW$288, DW_AT_location[DW_OP_reg2]
    2175              ;* XT    assigned to _Vmin
TMS320C2000 Assembler PC v6.2.5 Thu Jun 22 08:44:25 2017

Tools Copyright (c) 1996-2014 Texas Instruments Incorporated
C:\Users\wmj\AppData\Local\Temp\0846811                              PAGE   44

    2176              $C$DW$289       .dwtag  DW_TAG_variable, DW_AT_name("Vmin")
    2177                      .dwattr $C$DW$289, DW_AT_TI_symbol_name("_Vmin")
    2178                      .dwattr $C$DW$289, DW_AT_type(*$C$DW$T$32)
    2179                      .dwattr $C$DW$289, DW_AT_location[DW_OP_reg21]
    2180              ;* AR4   assigned to $O$v2
    2181              ;* AR5   assigned to $O$v1
    2182              ;* AR4   assigned to $O$v1
    2183              $C$DW$290       .dwtag  DW_TAG_variable, DW_AT_name("Iab_pu")
    2184                      .dwattr $C$DW$290, DW_AT_TI_symbol_name("_Iab_pu")
    2185                      .dwattr $C$DW$290, DW_AT_type(*$C$DW$T$188)
    2186                      .dwattr $C$DW$290, DW_AT_location[DW_OP_breg20 -8]
    2187              $C$DW$291       .dwtag  DW_TAG_variable, DW_AT_name("Vab_pu")
    2188                      .dwattr $C$DW$291, DW_AT_TI_symbol_name("_Vab_pu")
    2189                      .dwattr $C$DW$291, DW_AT_type(*$C$DW$T$188)
    2190                      .dwattr $C$DW$291, DW_AT_location[DW_OP_breg20 -12]
    2191              $C$DW$292       .dwtag  DW_TAG_variable, DW_AT_name("phasor")
    2192                      .dwattr $C$DW$292, DW_AT_TI_symbol_name("_phasor")
    2193                      .dwattr $C$DW$292, DW_AT_type(*$C$DW$T$188)
    2194                      .dwattr $C$DW$292, DW_AT_location[DW_OP_breg20 -16]
    2195                      .dwcfi  cfa_offset, -2
    2196                      .dwcfi  save_reg_to_mem, 26, 0
    2197                      .dwcfi  save_reg_to_reg, 78, 26
    2198 00000000 761B          ASP       ; [CPU_] 
    2199 00000001 0005          PUSH      AR1H:AR0H             ; [CPU_] 
    2200                      .dwcfi  save_reg_to_mem, 5, 2
    2201                      .dwcfi  save_reg_to_mem, 7, 3
    2202                      .dwcfi  cfa_offset, -4
    2203 00000002 ABBD          MOVL      *SP++,XT              ; [CPU_] 
    2204                      .dwcfi  save_reg_to_mem, 21, 4
    2205                      .dwcfi  save_reg_to_mem, 22, 5
    2206                      .dwcfi  cfa_offset, -6
    2207 00000003 AABD          MOVL      *SP++,XAR2            ; [CPU_] 
    2208                      .dwcfi  save_reg_to_mem, 8, 6
    2209                      .dwcfi  save_reg_to_mem, 9, 7
    2210                      .dwcfi  cfa_offset, -8
    2211 00000004 A2BD          MOVL      *SP++,XAR3            ; [CPU_] 
    2212                      .dwcfi  save_reg_to_mem, 10, 8
    2213                      .dwcfi  save_reg_to_mem, 11, 9
    2214                      .dwcfi  cfa_offset, -10
    2215 00000005 A8BD          MOVL      *SP++,XAR4            ; [CPU_] 
    2216                      .dwcfi  save_reg_to_mem, 12, 10
    2217                      .dwcfi  save_reg_to_mem, 13, 11
    2218                      .dwcfi  cfa_offset, -12
    2219 00000006 A0BD          MOVL      *SP++,XAR5            ; [CPU_] 
    2220                      .dwcfi  save_reg_to_mem, 14, 12
    2221                      .dwcfi  save_reg_to_mem, 15, 13
    2222                      .dwcfi  cfa_offset, -14
    2223 00000007 C2BD          MOVL      *SP++,XAR6            ; [CPU_] 
    2224                      .dwcfi  save_reg_to_mem, 16, 14
    2225                      .dwcfi  save_reg_to_mem, 17, 15
    2226                      .dwcfi  cfa_offset, -16
    2227 00000008 C3BD          MOVL      *SP++,XAR7            ; [CPU_] 
    2228                      .dwcfi  save_reg_to_mem, 18, 16
    2229                      .dwcfi  save_reg_to_mem, 19, 17
    2230                      .dwcfi  cfa_offset, -18
TMS320C2000 Assembler PC v6.2.5 Thu Jun 22 08:44:25 2017

Tools Copyright (c) 1996-2014 Texas Instruments Incorporated
C:\Users\wmj\AppData\Local\Temp\0846811                              PAGE   45

    2231 00000009 FE16          ADDB      SP,#22                ; [CPU_U] 
    2232                      .dwcfi  cfa_offset, -40
    2233 0000000a FF69          SPM       0                     ; [CPU_] 
    2234 0000000b 2942          CLRC      PAGE0,OVM             ; [CPU_] 
    2235 0000000c 5616          CLRC      AMODE                 ; [CPU_] 
    2236 0000000d 761F-         MOVW      DP,#_halHandle        ; [CPU_U] 
         0000000e 0000 
    2237                      .dwpsn  file "C:/ti/motorware/motorware_1_01_00_18/sw/solutions/instaspin_foc/src/proj_lab11.c",line 
    2238 0000000f 8314-         MOVL      XAR5,@_halHandle      ; [CPU_] |553| 
    2239                      .dwpsn  file "C:/ti/motorware/motorware_1_01_00_18/sw/drivers/adc/src/32b/f28x/f2802x/adc.h",line 571
    2240 00000010 8AC5          MOVL      XAR4,*+XAR5[0]        ; [CPU_] |571| 
    2241 00000011 8D00          MOVL      XAR0,#26117           ; [CPU_] |571| 
         00000012 6605 
    2242 00000013 56BF          MOVB      *+XAR4[AR0],#1,UNC    ; [CPU_] |571| 
         00000014 0194 
    2243                      .dwpsn  file "C:/ti/motorware/motorware_1_01_00_18/sw/drivers/pie/src/32b/f28x/f2802x/pie.h",line 757
    2244 00000015 D078          MOVB      XAR0,#120             ; [CPU_] |757| 
    2245 00000016 8A95          MOVL      XAR4,*+XAR5[AR0]      ; [CPU_] |757| 
    2246                      .dwpsn  file "C:/ti/motorware/motorware_1_01_00_18/sw/modules/hal/boards/hvkit_rev1p1/f28x/f2802x/src
    2247 00000017 D0A2          MOVB      XAR0,#162             ; [CPU_] |556| 
    2248                      .dwpsn  file "C:/ti/motorware/motorware_1_01_00_18/sw/drivers/pie/src/32b/f28x/f2802x/pie.h",line 757
    2249 00000018 28CC          MOV       *+XAR4[1],#512        ; [CPU_] |757| 
         00000019 0200 
    2250                      .dwpsn  file "C:/ti/motorware/motorware_1_01_00_18/sw/drivers/adc/src/32b/f28x/f2802x/adc.h",line 684
    2251 0000001a C4C5          MOVL      XAR6,*+XAR5[0]        ; [CPU_] |684| 
    2252                      .dwpsn  file "C:/ti/motorware/motorware_1_01_00_18/sw/modules/hal/boards/hvkit_rev1p1/f28x/f2802x/src
    2253 0000001b 8F00-         MOVL      XAR4,#_gAdcData       ; [CPU_U] |557| 
         0000001c 0052 
    2254                      .dwpsn  file "C:/ti/motorware/motorware_1_01_00_18/sw/modules/hal/boards/hvkit_rev1p1/f28x/f2802x/src
    2255 0000001d C595          MOVL      XAR7,*+XAR5[AR0]      ; [CPU_] |556| 
    2256                      .dwpsn  file "C:/ti/motorware/motorware_1_01_00_18/sw/modules/hal/boards/hvkit_rev1p1/f28x/f2802x/src
    2257 0000001e D0A4          MOVB      XAR0,#164             ; [CPU_] |571| 
    2258                      .dwpsn  file "C:/ti/motorware/motorware_1_01_00_18/sw/drivers/adc/src/32b/f28x/f2802x/adc.h",line 684
    2259 0000001f 0ECE          MOVU      ACC,*+XAR6[1]         ; [CPU_] |684| 
    2260 00000020 1EAC          MOVL      XT,ACC                ; [CPU_] |684| 
    2261                      .dwpsn  file "C:/ti/motorware/motorware_1_01_00_18/sw/modules/hal/boards/hvkit_rev1p1/f28x/f2802x/src
    2262 00000021 5605          IMPYL     P,XT,XAR7             ; [CPU_] |556| 
         00000022 00A7 
    2263 00000023 5663          QMPYL     ACC,XT,XAR7           ; [CPU_] |556| 
         00000024 00A7 
    2264 00000025 568B          ASR64     ACC:P,#12             ; [CPU_] |556| 
    2265                      .dwpsn  file "C:/ti/motorware/motorware_1_01_00_18/sw/modules/hal/boards/hvkit_rev1p1/f28x/f2802x/src
    2266 00000026 A9C4          MOVL      *+XAR4[0],P           ; [CPU_] |557| 
    2267                      .dwpsn  file "C:/ti/motorware/motorware_1_01_00_18/sw/drivers/adc/src/32b/f28x/f2802x/adc.h",line 684
    2268 00000027 0ED6          MOVU      ACC,*+XAR6[2]         ; [CPU_] |684| 
    2269 00000028 1EAC          MOVL      XT,ACC                ; [CPU_] |684| 
    2270                      .dwpsn  file "C:/ti/motorware/motorware_1_01_00_18/sw/modules/hal/boards/hvkit_rev1p1/f28x/f2802x/src
    2271 00000029 5663          QMPYL     ACC,XT,XAR7           ; [CPU_] |561| 
         0000002a 00A7 
    2272 0000002b 5605          IMPYL     P,XT,XAR7             ; [CPU_] |561| 
         0000002c 00A7 
    2273 0000002d 568B          ASR64     ACC:P,#12             ; [CPU_] |561| 
    2274                      .dwpsn  file "C:/ti/motorware/motorware_1_01_00_18/sw/modules/hal/boards/hvkit_rev1p1/f28x/f2802x/src
    2275 0000002e A9D4          MOVL      *+XAR4[2],P           ; [CPU_] |562| 
    2276                      .dwpsn  file "C:/ti/motorware/motorware_1_01_00_18/sw/drivers/adc/src/32b/f28x/f2802x/adc.h",line 684
TMS320C2000 Assembler PC v6.2.5 Thu Jun 22 08:44:25 2017

Tools Copyright (c) 1996-2014 Texas Instruments Incorporated
C:\Users\wmj\AppData\Local\Temp\0846811                              PAGE   46

    2277 0000002f 0EDE          MOVU      ACC,*+XAR6[3]         ; [CPU_] |684| 
    2278 00000030 1EAC          MOVL      XT,ACC                ; [CPU_] |684| 
    2279                      .dwpsn  file "C:/ti/motorware/motorware_1_01_00_18/sw/modules/hal/boards/hvkit_rev1p1/f28x/f2802x/src
    2280 00000031 5663          QMPYL     ACC,XT,XAR7           ; [CPU_] |566| 
         00000032 00A7 
    2281 00000033 5605          IMPYL     P,XT,XAR7             ; [CPU_] |566| 
         00000034 00A7 
    2282 00000035 568B          ASR64     ACC:P,#12             ; [CPU_] |566| 
    2283                      .dwpsn  file "C:/ti/motorware/motorware_1_01_00_18/sw/modules/hal/boards/hvkit_rev1p1/f28x/f2802x/src
    2284 00000036 A9E4          MOVL      *+XAR4[4],P           ; [CPU_] |567| 
    2285                      .dwpsn  file "C:/ti/motorware/motorware_1_01_00_18/sw/drivers/adc/src/32b/f28x/f2802x/adc.h",line 684
    2286 00000037 0EE6          MOVU      ACC,*+XAR6[4]         ; [CPU_] |684| 
    2287                      .dwpsn  file "C:/ti/motorware/motorware_1_01_00_18/sw/modules/hal/boards/hvkit_rev1p1/f28x/f2802x/src
    2288 00000038 C595          MOVL      XAR7,*+XAR5[AR0]      ; [CPU_] |571| 
    2289 00000039 761F-         MOVW      DP,#_gAdcData+12      ; [CPU_U] 
         0000003a 0001 
    2290                      .dwpsn  file "C:/ti/motorware/motorware_1_01_00_18/sw/drivers/adc/src/32b/f28x/f2802x/adc.h",line 684
    2291 0000003b 1EAC          MOVL      XT,ACC                ; [CPU_] |684| 
    2292                      .dwpsn  file "C:/ti/motorware/motorware_1_01_00_18/sw/modules/hal/boards/hvkit_rev1p1/f28x/f2802x/src
    2293 0000003c 8F40-         MOVL      XAR5,#_gAdcData+6     ; [CPU_U] |572| 
         0000003d 0058 
    2294                      .dwpsn  file "C:/ti/motorware/motorware_1_01_00_18/sw/modules/hal/boards/hvkit_rev1p1/f28x/f2802x/src
    2295 0000003e 5663          QMPYL     ACC,XT,XAR7           ; [CPU_] |571| 
         0000003f 00A7 
    2296 00000040 5605          IMPYL     P,XT,XAR7             ; [CPU_] |571| 
         00000041 00A7 
    2297 00000042 568B          ASR64     ACC:P,#12             ; [CPU_] |571| 
    2298                      .dwpsn  file "C:/ti/motorware/motorware_1_01_00_18/sw/modules/hal/boards/hvkit_rev1p1/f28x/f2802x/src
    2299 00000043 A9C5          MOVL      *+XAR5[0],P           ; [CPU_] |572| 
    2300                      .dwpsn  file "C:/ti/motorware/motorware_1_01_00_18/sw/drivers/adc/src/32b/f28x/f2802x/adc.h",line 684
    2301 00000044 0EEE          MOVU      ACC,*+XAR6[5]         ; [CPU_] |684| 
    2302 00000045 1EAC          MOVL      XT,ACC                ; [CPU_] |684| 
    2303                      .dwpsn  file "C:/ti/motorware/motorware_1_01_00_18/sw/modules/hal/boards/hvkit_rev1p1/f28x/f2802x/src
    2304 00000046 5663          QMPYL     ACC,XT,XAR7           ; [CPU_] |576| 
         00000047 00A7 
    2305 00000048 5605          IMPYL     P,XT,XAR7             ; [CPU_] |576| 
         00000049 00A7 
    2306 0000004a 568B          ASR64     ACC:P,#12             ; [CPU_] |576| 
    2307                      .dwpsn  file "C:/ti/motorware/motorware_1_01_00_18/sw/modules/hal/boards/hvkit_rev1p1/f28x/f2802x/src
    2308 0000004b A9D5          MOVL      *+XAR5[2],P           ; [CPU_] |577| 
    2309                      .dwpsn  file "C:/ti/motorware/motorware_1_01_00_18/sw/drivers/adc/src/32b/f28x/f2802x/adc.h",line 684
    2310 0000004c 0EF6          MOVU      ACC,*+XAR6[6]         ; [CPU_] |684| 
    2311 0000004d 1EAC          MOVL      XT,ACC                ; [CPU_] |684| 
    2312                      .dwpsn  file "C:/ti/motorware/motorware_1_01_00_18/sw/modules/hal/boards/hvkit_rev1p1/f28x/f2802x/src
    2313 0000004e 5663          QMPYL     ACC,XT,XAR7           ; [CPU_] |581| 
         0000004f 00A7 
    2314 00000050 5605          IMPYL     P,XT,XAR7             ; [CPU_] |581| 
         00000051 00A7 
    2315 00000052 568B          ASR64     ACC:P,#12             ; [CPU_] |581| 
    2316                      .dwpsn  file "C:/ti/motorware/motorware_1_01_00_18/sw/modules/hal/boards/hvkit_rev1p1/f28x/f2802x/src
    2317 00000053 A9E5          MOVL      *+XAR5[4],P           ; [CPU_] |582| 
    2318                      .dwpsn  file "C:/ti/motorware/motorware_1_01_00_18/sw/drivers/adc/src/32b/f28x/f2802x/adc.h",line 684
    2319 00000054 0EFE          MOVU      ACC,*+XAR6[7]         ; [CPU_] |684| 
    2320 00000055 1EAC          MOVL      XT,ACC                ; [CPU_] |684| 
    2321                      .dwpsn  file "C:/ti/motorware/motorware_1_01_00_18/sw/solutions/instaspin_foc/src/proj_lab11.c",line 
TMS320C2000 Assembler PC v6.2.5 Thu Jun 22 08:44:25 2017

Tools Copyright (c) 1996-2014 Texas Instruments Incorporated
C:\Users\wmj\AppData\Local\Temp\0846811                              PAGE   47

    2322 00000056 7680-         MOVL      XAR6,#_gOffsets_I_pu  ; [CPU_U] |559| 
         00000057 0040 
    2323                      .dwpsn  file "C:/ti/motorware/motorware_1_01_00_18/sw/modules/hal/boards/hvkit_rev1p1/f28x/f2802x/src
    2324 00000058 5663          QMPYL     ACC,XT,XAR7           ; [CPU_] |586| 
         00000059 00A7 
    2325 0000005a 5605          IMPYL     P,XT,XAR7             ; [CPU_] |586| 
         0000005b 00A7 
    2326 0000005c 568B          ASR64     ACC:P,#12             ; [CPU_] |586| 
    2327                      .dwpsn  file "C:/ti/motorware/motorware_1_01_00_18/sw/modules/hal/boards/hvkit_rev1p1/f28x/f2802x/src
    2328 0000005d A91E-         MOVL      @_gAdcData+12,P       ; [CPU_] |587| 
    2329 0000005e 761F-         MOVW      DP,#_clarkeHandle_I   ; [CPU_U] 
         0000005f 0000 
    2330                      .dwpsn  file "C:/ti/motorware/motorware_1_01_00_18/sw/solutions/instaspin_foc/src/proj_lab11.c",line 
    2331 00000060 06C6          MOVL      ACC,*+XAR6[0]         ; [CPU_] |559| 
    2332 00000061 5641          SUBL      *+XAR4[0],ACC         ; [CPU_] |559| 
         00000062 00C4 
    2333                      .dwpsn  file "C:/ti/motorware/motorware_1_01_00_18/sw/solutions/instaspin_foc/src/proj_lab11.c",line 
    2334 00000063 06D6          MOVL      ACC,*+XAR6[2]         ; [CPU_] |560| 
    2335 00000064 5641          SUBL      *+XAR4[2],ACC         ; [CPU_] |560| 
         00000065 00D4 
    2336                      .dwpsn  file "C:/ti/motorware/motorware_1_01_00_18/sw/solutions/instaspin_foc/src/proj_lab11.c",line 
    2337 00000066 06E6          MOVL      ACC,*+XAR6[4]         ; [CPU_] |561| 
    2338                      .dwpsn  file "C:/ti/motorware/motorware_1_01_00_18/sw/solutions/instaspin_foc/src/proj_lab11.c",line 
    2339 00000067 7680-         MOVL      XAR6,#_gOffsets_V_pu  ; [CPU_U] |562| 
         00000068 0046 
    2340                      .dwpsn  file "C:/ti/motorware/motorware_1_01_00_18/sw/solutions/instaspin_foc/src/proj_lab11.c",line 
    2341 00000069 5641          SUBL      *+XAR4[4],ACC         ; [CPU_] |561| 
         0000006a 00E4 
    2342                      .dwpsn  file "C:/ti/motorware/motorware_1_01_00_18/sw/solutions/instaspin_foc/src/proj_lab11.c",line 
    2343 0000006b 06C6          MOVL      ACC,*+XAR6[0]         ; [CPU_] |562| 
    2344 0000006c 5641          SUBL      *+XAR5[0],ACC         ; [CPU_] |562| 
         0000006d 00C5 
    2345                      .dwpsn  file "C:/ti/motorware/motorware_1_01_00_18/sw/solutions/instaspin_foc/src/proj_lab11.c",line 
    2346 0000006e 06D6          MOVL      ACC,*+XAR6[2]         ; [CPU_] |563| 
    2347 0000006f 5641          SUBL      *+XAR5[2],ACC         ; [CPU_] |563| 
         00000070 00D5 
    2348                      .dwpsn  file "C:/ti/motorware/motorware_1_01_00_18/sw/solutions/instaspin_foc/src/proj_lab11.c",line 
    2349 00000071 06E6          MOVL      ACC,*+XAR6[4]         ; [CPU_] |564| 
    2350 00000072 5641          SUBL      *+XAR5[4],ACC         ; [CPU_] |564| 
         00000073 00E5 
    2351                      .dwpsn  file "C:/ti/motorware/motorware_1_01_00_18/sw/modules/clarke/src/32b/clarke.h",line 125,colum
    2352 00000074 C412-         MOVL      XAR6,@_clarkeHandle_I ; [CPU_] |125| 
    2353                      .dwpsn  file "C:/ti/motorware/motorware_1_01_00_18/sw/modules/clarke/src/32b/clarke.h",line 129,colum
    2354 00000075 92E6          MOV       AL,*+XAR6[4]          ; [CPU_] |129| 
    2355                      .dwpsn  file "C:/ti/motorware/motorware_1_01_00_18/sw/modules/clarke/src/32b/clarke.h",line 125,colum
    2356 00000076 8EC6          MOVL      XAR0,*+XAR6[0]        ; [CPU_] |125| 
    2357                      .dwpsn  file "C:/ti/motorware/motorware_1_01_00_18/sw/modules/clarke/src/32b/clarke.h",line 126,colum
    2358 00000077 C5D6          MOVL      XAR7,*+XAR6[2]        ; [CPU_] |126| 
    2359                      .dwpsn  file "C:/ti/motorware/motorware_1_01_00_18/sw/modules/clarke/src/32b/clarke.h",line 129,colum
    2360 00000078 5203          CMPB      AL,#3                 ; [CPU_] |129| 
    2361 00000079 EC0E          BF        $C$L10,EQ             ; [CPU_] |129| 
    2362                      ; branchcc occurs ; [] |129| 
    2363                      .dwpsn  file "C:/ti/motorware/motorware_1_01_00_18/sw/modules/clarke/src/32b/clarke.h",line 134,colum
    2364 0000007a 5202          CMPB      AL,#2                 ; [CPU_] |134| 
    2365 0000007b ED20          BF        $C$L12,NEQ            ; [CPU_] |134| 
TMS320C2000 Assembler PC v6.2.5 Thu Jun 22 08:44:25 2017

Tools Copyright (c) 1996-2014 Texas Instruments Incorporated
C:\Users\wmj\AppData\Local\Temp\0846811                              PAGE   48

    2366                      ; branchcc occurs ; [] |134| 
    2367                      .dwpsn  file "C:/ti/motorware/motorware_1_01_00_18/sw/modules/clarke/src/32b/clarke.h",line 136,colum
    2368 0000007c 87C4          MOVL      XT,*+XAR4[0]          ; [CPU_] |136| 
    2369 0000007d 5605          IMPYL     P,XT,XAR0             ; [CPU_] |136| 
         0000007e 00A0 
    2370 0000007f 5663          QMPYL     ACC,XT,XAR0           ; [CPU_] |136| 
         00000080 00A0 
    2371 00000081 56A7          LSL64     ACC:P,#8              ; [CPU_] |136| 
    2372 00000082 1E48          MOVL      *-SP[8],ACC           ; [CPU_] |136| 
    2373                      .dwpsn  file "C:/ti/motorware/motorware_1_01_00_18/sw/modules/clarke/src/32b/clarke.h",line 137,colum
    2374 00000083 06D4          MOVL      ACC,*+XAR4[2]         ; [CPU_] |137| 
    2375 00000084 FF30          LSL       ACC,1                 ; [CPU_] |137| 
    2376 00000085 07C4          ADDL      ACC,*+XAR4[0]         ; [CPU_] |137| 
    2377 00000086 6F0E          B         $C$L11,UNC            ; [CPU_] |137| 
    2378                      ; branch occurs ; [] |137| 
    2379 00000087       $C$L10:    
    2380                      .dwpsn  file "C:/ti/motorware/motorware_1_01_00_18/sw/modules/clarke/src/32b/clarke.h",line 131,colum
    2381 00000087 06C4          MOVL      ACC,*+XAR4[0]         ; [CPU_] |131| 
    2382 00000088 FF30          LSL       ACC,1                 ; [CPU_] |131| 
    2383 00000089 03D4          SUBL      ACC,*+XAR4[2]         ; [CPU_] |131| 
    2384 0000008a 03E4          SUBL      ACC,*+XAR4[4]         ; [CPU_] |131| 
    2385 0000008b 1EAC          MOVL      XT,ACC                ; [CPU_] |131| 
    2386 0000008c 5605          IMPYL     P,XT,XAR0             ; [CPU_] |131| 
         0000008d 00A0 
    2387 0000008e 5663          QMPYL     ACC,XT,XAR0           ; [CPU_] |131| 
         0000008f 00A0 
    2388 00000090 56A7          LSL64     ACC:P,#8              ; [CPU_] |131| 
    2389 00000091 1E48          MOVL      *-SP[8],ACC           ; [CPU_] |131| 
    2390                      .dwpsn  file "C:/ti/motorware/motorware_1_01_00_18/sw/modules/clarke/src/32b/clarke.h",line 132,colum
    2391 00000092 06D4          MOVL      ACC,*+XAR4[2]         ; [CPU_] |132| 
    2392 00000093 03E4          SUBL      ACC,*+XAR4[4]         ; [CPU_] |132| 
    2393 00000094       $C$L11:    
    2394 00000094 1EAC          MOVL      XT,ACC                ; [CPU_] |132| 
    2395 00000095 5605          IMPYL     P,XT,XAR7             ; [CPU_] |132| 
         00000096 00A7 
    2396 00000097 5663          QMPYL     ACC,XT,XAR7           ; [CPU_] |132| 
         00000098 00A7 
    2397 00000099 56A7          LSL64     ACC:P,#8              ; [CPU_] |132| 
    2398 0000009a 1E46          MOVL      *-SP[6],ACC           ; [CPU_] |132| 
    2399 0000009b       $C$L12:    
    2400                      .dwpsn  file "C:/ti/motorware/motorware_1_01_00_18/sw/modules/clarke/src/32b/clarke.h",line 125,colum
    2401 0000009b 8A0E-         MOVL      XAR4,@_clarkeHandle_V ; [CPU_] |125| 
    2402                      .dwpsn  file "C:/ti/motorware/motorware_1_01_00_18/sw/modules/clarke/src/32b/clarke.h",line 129,colum
    2403 0000009c 92E4          MOV       AL,*+XAR4[4]          ; [CPU_] |129| 
    2404                      .dwpsn  file "C:/ti/motorware/motorware_1_01_00_18/sw/modules/clarke/src/32b/clarke.h",line 125,colum
    2405 0000009d C5C4          MOVL      XAR7,*+XAR4[0]        ; [CPU_] |125| 
    2406                      .dwpsn  file "C:/ti/motorware/motorware_1_01_00_18/sw/modules/clarke/src/32b/clarke.h",line 126,colum
    2407 0000009e C4D4          MOVL      XAR6,*+XAR4[2]        ; [CPU_] |126| 
    2408                      .dwpsn  file "C:/ti/motorware/motorware_1_01_00_18/sw/modules/clarke/src/32b/clarke.h",line 129,colum
    2409 0000009f 5203          CMPB      AL,#3                 ; [CPU_] |129| 
    2410 000000a0 EC0E          BF        $C$L13,EQ             ; [CPU_] |129| 
    2411                      ; branchcc occurs ; [] |129| 
    2412                      .dwpsn  file "C:/ti/motorware/motorware_1_01_00_18/sw/modules/clarke/src/32b/clarke.h",line 134,colum
    2413 000000a1 5202          CMPB      AL,#2                 ; [CPU_] |134| 
    2414 000000a2 ED20          BF        $C$L15,NEQ            ; [CPU_] |134| 
TMS320C2000 Assembler PC v6.2.5 Thu Jun 22 08:44:25 2017

Tools Copyright (c) 1996-2014 Texas Instruments Incorporated
C:\Users\wmj\AppData\Local\Temp\0846811                              PAGE   49

    2415                      ; branchcc occurs ; [] |134| 
    2416                      .dwpsn  file "C:/ti/motorware/motorware_1_01_00_18/sw/modules/clarke/src/32b/clarke.h",line 136,colum
    2417 000000a3 87C5          MOVL      XT,*+XAR5[0]          ; [CPU_] |136| 
    2418 000000a4 5605          IMPYL     P,XT,XAR7             ; [CPU_] |136| 
         000000a5 00A7 
    2419 000000a6 5663          QMPYL     ACC,XT,XAR7           ; [CPU_] |136| 
         000000a7 00A7 
    2420 000000a8 56A7          LSL64     ACC:P,#8              ; [CPU_] |136| 
    2421 000000a9 1E4C          MOVL      *-SP[12],ACC          ; [CPU_] |136| 
    2422                      .dwpsn  file "C:/ti/motorware/motorware_1_01_00_18/sw/modules/clarke/src/32b/clarke.h",line 137,colum
    2423 000000aa 06D5          MOVL      ACC,*+XAR5[2]         ; [CPU_] |137| 
    2424 000000ab FF30          LSL       ACC,1                 ; [CPU_] |137| 
    2425 000000ac 07C5          ADDL      ACC,*+XAR5[0]         ; [CPU_] |137| 
    2426 000000ad 6F0E          B         $C$L14,UNC            ; [CPU_] |137| 
    2427                      ; branch occurs ; [] |137| 
    2428 000000ae       $C$L13:    
    2429                      .dwpsn  file "C:/ti/motorware/motorware_1_01_00_18/sw/modules/clarke/src/32b/clarke.h",line 131,colum
    2430 000000ae 06C5          MOVL      ACC,*+XAR5[0]         ; [CPU_] |131| 
    2431 000000af FF30          LSL       ACC,1                 ; [CPU_] |131| 
    2432 000000b0 03D5          SUBL      ACC,*+XAR5[2]         ; [CPU_] |131| 
    2433 000000b1 03E5          SUBL      ACC,*+XAR5[4]         ; [CPU_] |131| 
    2434 000000b2 1EAC          MOVL      XT,ACC                ; [CPU_] |131| 
    2435 000000b3 5605          IMPYL     P,XT,XAR7             ; [CPU_] |131| 
         000000b4 00A7 
    2436 000000b5 5663          QMPYL     ACC,XT,XAR7           ; [CPU_] |131| 
         000000b6 00A7 
    2437 000000b7 56A7          LSL64     ACC:P,#8              ; [CPU_] |131| 
    2438 000000b8 1E4C          MOVL      *-SP[12],ACC          ; [CPU_] |131| 
    2439                      .dwpsn  file "C:/ti/motorware/motorware_1_01_00_18/sw/modules/clarke/src/32b/clarke.h",line 132,colum
    2440 000000b9 06D5          MOVL      ACC,*+XAR5[2]         ; [CPU_] |132| 
    2441 000000ba 03E5          SUBL      ACC,*+XAR5[4]         ; [CPU_] |132| 
    2442 000000bb       $C$L14:    
    2443 000000bb 1EAC          MOVL      XT,ACC                ; [CPU_] |132| 
    2444 000000bc 5605          IMPYL     P,XT,XAR6             ; [CPU_] |132| 
         000000bd 00A6 
    2445 000000be 5663          QMPYL     ACC,XT,XAR6           ; [CPU_] |132| 
         000000bf 00A6 
    2446 000000c0 56A7          LSL64     ACC:P,#8              ; [CPU_] |132| 
    2447 000000c1 1E4A          MOVL      *-SP[10],ACC          ; [CPU_] |132| 
    2448 000000c2       $C$L15:    
    2449 000000c2 761F-         MOVW      DP,#_gMotorVars+24    ; [CPU_U] 
         000000c3 0003 
    2450                      .dwpsn  file "C:/ti/motorware/motorware_1_01_00_18/sw/solutions/instaspin_foc/src/proj_lab11.c",line 
    2451 000000c4 5CAD          MOVZ      AR4,SP                ; [CPU_U] |578| 
    2452 000000c5 0618-         MOVL      ACC,@_gMotorVars+24   ; [CPU_] |578| 
    2453 000000c6 5DAD          MOVZ      AR5,SP                ; [CPU_U] |578| 
    2454 000000c7 DC8C          SUBB      XAR4,#12              ; [CPU_U] |578| 
    2455 000000c8 761F-         MOVW      DP,#_estHandle        ; [CPU_U] 
         000000c9 0000 
    2456 000000ca A842          MOVL      *-SP[2],XAR4          ; [CPU_] |578| 
    2457 000000cb DD88          SUBB      XAR5,#8               ; [CPU_U] |578| 
    2458 000000cc 8A10-         MOVL      XAR4,@_estHandle      ; [CPU_] |578| 
    2459 000000cd 1E44          MOVL      *-SP[4],ACC           ; [CPU_] |578| 
    2460 000000ce 761F-         MOVW      DP,#_gAdcData+12      ; [CPU_U] 
         000000cf 0001 
TMS320C2000 Assembler PC v6.2.5 Thu Jun 22 08:44:25 2017

Tools Copyright (c) 1996-2014 Texas Instruments Incorporated
C:\Users\wmj\AppData\Local\Temp\0846811                              PAGE   50

    2461 000000d0 061E-         MOVL      ACC,@_gAdcData+12     ; [CPU_] |578| 
    2462              $C$DW$293       .dwtag  DW_TAG_TI_branch
    2463                      .dwattr $C$DW$293, DW_AT_low_pc(0x00)
    2464                      .dwattr $C$DW$293, DW_AT_name("_EST_run")
    2465                      .dwattr $C$DW$293, DW_AT_TI_call
    2466 000000d1 7640!         LCR       #_EST_run             ; [CPU_] |578| 
         000000d2 0000 
    2467                      ; call occurs [#_EST_run] ; [] |578| 
    2468 000000d3 761F-         MOVW      DP,#_estHandle        ; [CPU_U] 
         000000d4 0000 
    2469                      .dwpsn  file "C:/ti/motorware/motorware_1_01_00_18/sw/solutions/instaspin_foc/src/proj_lab11.c",line 
    2470 000000d5 8A10-         MOVL      XAR4,@_estHandle      ; [CPU_] |581| 
    2471              $C$DW$294       .dwtag  DW_TAG_TI_branch
    2472                      .dwattr $C$DW$294, DW_AT_low_pc(0x00)
    2473                      .dwattr $C$DW$294, DW_AT_name("_EST_getAngle_pu")
    2474                      .dwattr $C$DW$294, DW_AT_TI_call
    2475 000000d6 7640!         LCR       #_EST_getAngle_pu     ; [CPU_] |581| 
         000000d7 0000 
    2476                      ; call occurs [#_EST_getAngle_pu] ; [] |581| 
    2477 000000d8 761F-         MOVW      DP,#_estHandle        ; [CPU_U] 
         000000d9 0000 
    2478 000000da 1E56          MOVL      *-SP[22],ACC          ; [CPU_] |581| 
    2479                      .dwpsn  file "C:/ti/motorware/motorware_1_01_00_18/sw/solutions/instaspin_foc/src/proj_lab11.c",line 
    2480 000000db 8A10-         MOVL      XAR4,@_estHandle      ; [CPU_] |582| 
    2481              $C$DW$295       .dwtag  DW_TAG_TI_branch
    2482                      .dwattr $C$DW$295, DW_AT_low_pc(0x00)
    2483                      .dwattr $C$DW$295, DW_AT_name("_EST_getFm_pu")
    2484                      .dwattr $C$DW$295, DW_AT_TI_call
    2485 000000dc 7640!         LCR       #_EST_getFm_pu        ; [CPU_] |582| 
         000000dd 0000 
    2486                      ; call occurs [#_EST_getFm_pu] ; [] |582| 
    2487 000000de 761F-         MOVW      DP,#_estHandle        ; [CPU_U] 
         000000df 0000 
    2488                      .dwpsn  file "C:/ti/motorware/motorware_1_01_00_18/sw/solutions/instaspin_foc/src/proj_lab11.c",line 
    2489 000000e0 8F40-         MOVL      XAR5,#_gIdq_pu        ; [CPU_U] |586| 
         000000e1 0020 
    2490                      .dwpsn  file "C:/ti/motorware/motorware_1_01_00_18/sw/solutions/instaspin_foc/src/proj_lab11.c",line 
    2491 000000e2 1E54          MOVL      *-SP[20],ACC          ; [CPU_] |582| 
    2492                      .dwpsn  file "C:/ti/motorware/motorware_1_01_00_18/sw/solutions/instaspin_foc/src/proj_lab11.c",line 
    2493 000000e3 8A10-         MOVL      XAR4,@_estHandle      ; [CPU_] |586| 
    2494              $C$DW$296       .dwtag  DW_TAG_TI_branch
    2495                      .dwattr $C$DW$296, DW_AT_low_pc(0x00)
    2496                      .dwattr $C$DW$296, DW_AT_name("_EST_getIdq_pu")
    2497                      .dwattr $C$DW$296, DW_AT_TI_call
    2498 000000e4 7640!         LCR       #_EST_getIdq_pu       ; [CPU_] |586| 
         000000e5 0000 
    2499                      ; call occurs [#_EST_getIdq_pu] ; [] |586| 
    2500 000000e6 761F-         MOVW      DP,#_gMotorVars+1     ; [CPU_U] 
         000000e7 0003 
    2501                      .dwpsn  file "C:/ti/motorware/motorware_1_01_00_18/sw/solutions/instaspin_foc/src/proj_lab11.c",line 
    2502 000000e8 9201-         MOV       AL,@_gMotorVars+1     ; [CPU_] |589| 
    2503 000000e9 56C1          BF        $C$L22,EQ             ; [CPU_] |589| 
         000000ea 0129 
    2504                      ; branchcc occurs ; [] |589| 
    2505 000000eb 761F-         MOVW      DP,#_pidCntSpeed      ; [CPU_U] 
TMS320C2000 Assembler PC v6.2.5 Thu Jun 22 08:44:25 2017

Tools Copyright (c) 1996-2014 Texas Instruments Incorporated
C:\Users\wmj\AppData\Local\Temp\0846811                              PAGE   51

         000000ec 0000 
    2506                      .dwpsn  file "C:/ti/motorware/motorware_1_01_00_18/sw/solutions/instaspin_foc/src/proj_lab11.c",line 
    2507 000000ed 9200-         MOV       AL,@_pidCntSpeed      ; [CPU_] |598| 
    2508 000000ee 520F          CMPB      AL,#15                ; [CPU_] |598| 
    2509 000000ef 6705          B         $C$L16,HIS            ; [CPU_] |598| 
    2510                      ; branchcc occurs ; [] |598| 
    2511                      .dwpsn  file "C:/ti/motorware/motorware_1_01_00_18/sw/solutions/instaspin_foc/src/proj_lab11.c",line 
    2512 000000f0 0A00-         INC       @_pidCntSpeed         ; [CPU_] |612| 
    2513 000000f1 8F40-         MOVL      XAR5,#_gIdq_ref_pu    ; [CPU_U] 
         000000f2 0028 
    2514 000000f3 6F2F          B         $C$L17,UNC            ; [CPU_] |612| 
    2515                      ; branch occurs ; [] |612| 
    2516 000000f4       $C$L16:    
    2517                      .dwpsn  file "C:/ti/motorware/motorware_1_01_00_18/sw/solutions/instaspin_foc/src/proj_lab11.c",line 
    2518 000000f4 2B00-         MOV       @_pidCntSpeed,#0      ; [CPU_] |601| 
    2519 000000f5 761F-         MOVW      DP,#_gMotorVars+24    ; [CPU_U] 
         000000f6 0003 
    2520                      .dwpsn  file "C:/ti/motorware/motorware_1_01_00_18/sw/solutions/instaspin_foc/src/proj_lab11.c",line 
    2521 000000f7 8318-         MOVL      XAR5,@_gMotorVars+24  ; [CPU_] |606| 
    2522 000000f8 761F-         MOVW      DP,#_pidHandle        ; [CPU_U] 
         000000f9 0000 
    2523                      .dwpsn  file "C:/ti/motorware/motorware_1_01_00_18/sw/modules/pid/src/32b/pid.h",line 262,column 16,i
    2524 000000fa 8A2C-         MOVL      XAR4,@_pidHandle      ; [CPU_] |262| 
    2525                      .dwpsn  file "C:/ti/motorware/motorware_1_01_00_18/sw/modules/pid/src/32b/pid.h",line 270,column 3,is
    2526 000000fb C454          MOVL      XAR6,*-SP[20]         ; [CPU_] |270| 
    2527                      .dwpsn  file "C:/ti/motorware/motorware_1_01_00_18/sw/modules/pid/src/32b/pid.h",line 271,column 3,is
    2528 000000fc D10E          MOVB      XAR1,#14              ; [CPU_] |271| 
    2529                      .dwpsn  file "C:/ti/motorware/motorware_1_01_00_18/sw/modules/pid/src/32b/pid.h",line 270,column 3,is
    2530 000000fd A0A9          MOVL      ACC,XAR5              ; [CPU_] |270| 
    2531 000000fe 87C4          MOVL      XT,*+XAR4[0]          ; [CPU_] |270| 
    2532 000000ff 03A6          SUBL      ACC,XAR6              ; [CPU_] |270| 
    2533 00000100 8EA9          MOVL      XAR0,ACC              ; [CPU_] |270| 
    2534 00000101 5605          IMPYL     P,XT,XAR0             ; [CPU_] |270| 
         00000102 00A0 
    2535 00000103 5663          QMPYL     ACC,XT,XAR0           ; [CPU_] |270| 
         00000104 00A0 
    2536 00000105 56A7          LSL64     ACC:P,#8              ; [CPU_] |270| 
    2537                      .dwpsn  file "C:/ti/motorware/motorware_1_01_00_18/sw/modules/pid/src/32b/pid.h",line 271,column 3,is
    2538 00000106 87D4          MOVL      XT,*+XAR4[2]          ; [CPU_] |271| 
    2539                      .dwpsn  file "C:/ti/motorware/motorware_1_01_00_18/sw/modules/pid/src/32b/pid.h",line 270,column 3,is
    2540 00000107 1EA7          MOVL      XAR7,ACC              ; [CPU_] |270| 
    2541                      .dwpsn  file "C:/ti/motorware/motorware_1_01_00_18/sw/modules/pid/src/32b/pid.h",line 271,column 3,is
    2542 00000108 5605          IMPYL     P,XT,XAR0             ; [CPU_] |271| 
         00000109 00A0 
    2543 0000010a 5663          QMPYL     ACC,XT,XAR0           ; [CPU_] |271| 
         0000010b 00A0 
    2544 0000010c D00C          MOVB      XAR0,#12              ; [CPU_] |271| 
    2545 0000010d 56A7          LSL64     ACC:P,#8              ; [CPU_] |271| 
    2546 0000010e 07F4          ADDL      ACC,*+XAR4[6]         ; [CPU_] |271| 
    2547 0000010f 5650          MINL      ACC,*+XAR4[AR1]       ; [CPU_] |271| 
         00000110 009C 
    2548                      .dwpsn  file "C:/ti/motorware/motorware_1_01_00_18/sw/modules/pid/src/32b/pid.h",line 277,column 3,is
    2549 00000111 D10E          MOVB      XAR1,#14              ; [CPU_] |277| 
    2550                      .dwpsn  file "C:/ti/motorware/motorware_1_01_00_18/sw/modules/pid/src/32b/pid.h",line 271,column 3,is
    2551 00000112 5661          MAXL      ACC,*+XAR4[AR0]       ; [CPU_] |271| 
TMS320C2000 Assembler PC v6.2.5 Thu Jun 22 08:44:25 2017

Tools Copyright (c) 1996-2014 Texas Instruments Incorporated
C:\Users\wmj\AppData\Local\Temp\0846811                              PAGE   52

         00000113 0094 
    2552                      .dwpsn  file "C:/ti/motorware/motorware_1_01_00_18/sw/modules/pid/src/32b/pid.h",line 274,column 3,is
    2553 00000114 D008          MOVB      XAR0,#8               ; [CPU_] |274| 
    2554                      .dwpsn  file "C:/ti/motorware/motorware_1_01_00_18/sw/modules/pid/src/32b/pid.h",line 273,column 3,is
    2555 00000115 1EF4          MOVL      *+XAR4[6],ACC         ; [CPU_] |273| 
    2556                      .dwpsn  file "C:/ti/motorware/motorware_1_01_00_18/sw/modules/pid/src/32b/pid.h",line 277,column 3,is
    2557 00000116 07A7          ADDL      ACC,XAR7              ; [CPU_] |277| 
    2558                      .dwpsn  file "C:/ti/motorware/motorware_1_01_00_18/sw/modules/pid/src/32b/pid.h",line 274,column 3,is
    2559 00000117 A094          MOVL      *+XAR4[AR0],XAR5      ; [CPU_] |274| 
    2560                      .dwpsn  file "C:/ti/motorware/motorware_1_01_00_18/sw/modules/pid/src/32b/pid.h",line 275,column 3,is
    2561 00000118 D00A          MOVB      XAR0,#10              ; [CPU_] |275| 
    2562                      .dwpsn  file "C:/ti/motorware/motorware_1_01_00_18/sw/modules/pid/src/32b/pid.h",line 277,column 3,is
    2563 00000119 8F40-         MOVL      XAR5,#_gIdq_ref_pu    ; [CPU_U] |277| 
         0000011a 0028 
    2564                      .dwpsn  file "C:/ti/motorware/motorware_1_01_00_18/sw/modules/pid/src/32b/pid.h",line 275,column 3,is
    2565 0000011b C294          MOVL      *+XAR4[AR0],XAR6      ; [CPU_] |275| 
    2566                      .dwpsn  file "C:/ti/motorware/motorware_1_01_00_18/sw/modules/pid/src/32b/pid.h",line 277,column 3,is
    2567 0000011c D00C          MOVB      XAR0,#12              ; [CPU_] |277| 
    2568 0000011d 5650          MINL      ACC,*+XAR4[AR1]       ; [CPU_] |277| 
         0000011e 009C 
    2569 0000011f 5661          MAXL      ACC,*+XAR4[AR0]       ; [CPU_] |277| 
         00000120 0094 
    2570 00000121 1ED5          MOVL      *+XAR5[2],ACC         ; [CPU_] |277| 
    2571 00000122       $C$L17:    
    2572                      .dwpsn  file "C:/ti/motorware/motorware_1_01_00_18/sw/solutions/instaspin_foc/src/proj_lab11.c",line 
    2573 00000122 8F00-         MOVL      XAR4,#_gIdq_pu        ; [CPU_U] |624| 
         00000123 0020 
    2574 00000124 86C5          MOVL      XAR2,*+XAR5[0]        ; [CPU_] |624| 
    2575                      .dwpsn  file "C:/ti/motorware/motorware_1_01_00_18/sw/modules/pid/src/32b/pid.h",line 233,column 16,i
    2576 00000125 7680-         MOVL      XAR6,#_pidHandle      ; [CPU_U] |233| 
         00000126 002C 
    2577                      .dwpsn  file "C:/ti/motorware/motorware_1_01_00_18/sw/solutions/instaspin_foc/src/proj_lab11.c",line 
    2578 00000127 C5C4          MOVL      XAR7,*+XAR4[0]        ; [CPU_] |624| 
    2579                      .dwpsn  file "C:/ti/motorware/motorware_1_01_00_18/sw/modules/pid/src/32b/pid.h",line 233,column 16,i
    2580 00000128 C252          MOVL      *-SP[18],XAR6         ; [CPU_] |233| 
    2581                      .dwpsn  file "C:/ti/motorware/motorware_1_01_00_18/sw/modules/pid/src/32b/pid.h",line 242,column 3,is
    2582 00000129 AAA9          MOVL      ACC,XAR2              ; [CPU_] |242| 
    2583                      .dwpsn  file "C:/ti/motorware/motorware_1_01_00_18/sw/modules/pid/src/32b/pid.h",line 233,column 16,i
    2584 0000012a C4D6          MOVL      XAR6,*+XAR6[2]        ; [CPU_] |233| 
    2585                      .dwpsn  file "C:/ti/motorware/motorware_1_01_00_18/sw/modules/pid/src/32b/pid.h",line 243,column 3,is
    2586 0000012b D10E          MOVB      XAR1,#14              ; [CPU_] |243| 
    2587 0000012c D00C          MOVB      XAR0,#12              ; [CPU_] |243| 
    2588                      .dwpsn  file "C:/ti/motorware/motorware_1_01_00_18/sw/modules/pid/src/32b/pid.h",line 242,column 3,is
    2589 0000012d 03A7          SUBL      ACC,XAR7              ; [CPU_] |242| 
    2590 0000012e 87C6          MOVL      XT,*+XAR6[0]          ; [CPU_] |242| 
    2591 0000012f 5605          IMPYL     P,XT,ACC              ; [CPU_] |242| 
         00000130 00A9 
    2592 00000131 5663          QMPYL     ACC,XT,ACC            ; [CPU_] |242| 
         00000132 00A9 
    2593 00000133 56A7          LSL64     ACC:P,#8              ; [CPU_] |242| 
    2594 00000134 82A9          MOVL      XAR3,ACC              ; [CPU_] |242| 
    2595                      .dwpsn  file "C:/ti/motorware/motorware_1_01_00_18/sw/modules/pid/src/32b/pid.h",line 243,column 3,is
    2596 00000135 87D6          MOVL      XT,*+XAR6[2]          ; [CPU_] |243| 
    2597 00000136 5605          IMPYL     P,XT,XAR3             ; [CPU_] |243| 
         00000137 00A3 
TMS320C2000 Assembler PC v6.2.5 Thu Jun 22 08:44:25 2017

Tools Copyright (c) 1996-2014 Texas Instruments Incorporated
C:\Users\wmj\AppData\Local\Temp\0846811                              PAGE   53

    2598 00000138 5663          QMPYL     ACC,XT,XAR3           ; [CPU_] |243| 
         00000139 00A3 
    2599 0000013a 56A7          LSL64     ACC:P,#8              ; [CPU_] |243| 
    2600 0000013b 07F6          ADDL      ACC,*+XAR6[6]         ; [CPU_] |243| 
    2601 0000013c 5650          MINL      ACC,*+XAR6[AR1]       ; [CPU_] |243| 
         0000013d 009E 
    2602                      .dwpsn  file "C:/ti/motorware/motorware_1_01_00_18/sw/modules/pid/src/32b/pid.h",line 249,column 3,is
    2603 0000013e D10E          MOVB      XAR1,#14              ; [CPU_] |249| 
    2604                      .dwpsn  file "C:/ti/motorware/motorware_1_01_00_18/sw/modules/pid/src/32b/pid.h",line 243,column 3,is
    2605 0000013f 5661          MAXL      ACC,*+XAR6[AR0]       ; [CPU_] |243| 
         00000140 0096 
    2606                      .dwpsn  file "C:/ti/motorware/motorware_1_01_00_18/sw/modules/pid/src/32b/pid.h",line 246,column 3,is
    2607 00000141 D008          MOVB      XAR0,#8               ; [CPU_] |246| 
    2608                      .dwpsn  file "C:/ti/motorware/motorware_1_01_00_18/sw/modules/pid/src/32b/pid.h",line 245,column 3,is
    2609 00000142 1EF6          MOVL      *+XAR6[6],ACC         ; [CPU_] |245| 
    2610                      .dwpsn  file "C:/ti/motorware/motorware_1_01_00_18/sw/modules/pid/src/32b/pid.h",line 249,column 3,is
    2611 00000143 07A3          ADDL      ACC,XAR3              ; [CPU_] |249| 
    2612                      .dwpsn  file "C:/ti/motorware/motorware_1_01_00_18/sw/modules/pid/src/32b/pid.h",line 246,column 3,is
    2613 00000144 AA96          MOVL      *+XAR6[AR0],XAR2      ; [CPU_] |246| 
    2614                      .dwpsn  file "C:/ti/motorware/motorware_1_01_00_18/sw/modules/pid/src/32b/pid.h",line 247,column 3,is
    2615 00000145 D00A          MOVB      XAR0,#10              ; [CPU_] |247| 
    2616                      .dwpsn  file "C:/ti/motorware/motorware_1_01_00_18/sw/modules/pid/src/32b/pid.h",line 249,column 3,is
    2617 00000146 8D80-         MOVL      XAR2,#_gVdq_out_pu    ; [CPU_U] |249| 
         00000147 001C 
    2618                      .dwpsn  file "C:/ti/motorware/motorware_1_01_00_18/sw/modules/pid/src/32b/pid.h",line 247,column 3,is
    2619 00000148 C396          MOVL      *+XAR6[AR0],XAR7      ; [CPU_] |247| 
    2620                      .dwpsn  file "C:/ti/motorware/motorware_1_01_00_18/sw/modules/pid/src/32b/pid.h",line 249,column 3,is
    2621 00000149 D00C          MOVB      XAR0,#12              ; [CPU_] |249| 
    2622 0000014a 5650          MINL      ACC,*+XAR6[AR1]       ; [CPU_] |249| 
         0000014b 009E 
    2623 0000014c 5661          MAXL      ACC,*+XAR6[AR0]       ; [CPU_] |249| 
         0000014d 0096 
    2624 0000014e 1EC2          MOVL      *+XAR2[0],ACC         ; [CPU_] |249| 
    2625                      .dwpsn  file "C:/ti/motorware/motorware_1_01_00_18/sw/solutions/instaspin_foc/src/proj_lab11.c",line 
    2626 0000014f 8BD5          MOVL      XAR1,*+XAR5[2]        ; [CPU_] |627| 
    2627                      .dwpsn  file "C:/ti/motorware/motorware_1_01_00_18/sw/solutions/instaspin_foc/src/proj_lab11.c",line 
    2628 00000150 87C2          MOVL      XT,*+XAR2[0]          ; [CPU_] |640| 
    2629                      .dwpsn  file "C:/ti/motorware/motorware_1_01_00_18/sw/solutions/instaspin_foc/src/proj_lab11.c",line 
    2630 00000151 82D4          MOVL      XAR3,*+XAR4[2]        ; [CPU_] |630| 
    2631                      .dwpsn  file "C:/ti/motorware/motorware_1_01_00_18/sw/solutions/instaspin_foc/src/proj_lab11.c",line 
    2632 00000152 5605          IMPYL     P,XT,*+XAR2[0]        ; [CPU_] |640| 
         00000153 00C2 
    2633 00000154 5663          QMPYL     ACC,XT,*+XAR2[0]      ; [CPU_] |640| 
         00000155 00C2 
    2634 00000156 56A7          LSL64     ACC:P,#8              ; [CPU_] |640| 
    2635 00000157 28AB          MOV       PL,#22809             ; [CPU_] |640| 
         00000158 5919 
    2636 00000159 28AA          MOV       PH,#85                ; [CPU_] |640| 
         0000015a 0055 
    2637 0000015b 5641          SUBL      P,ACC                 ; [CPU_] |640| 
         0000015c 00AB 
    2638 0000015d A9A9          MOVL      ACC,P                 ; [CPU_] |640| 
    2639              $C$DW$297       .dwtag  DW_TAG_TI_branch
    2640                      .dwattr $C$DW$297, DW_AT_low_pc(0x00)
    2641                      .dwattr $C$DW$297, DW_AT_name("__IQ24sqrt")
TMS320C2000 Assembler PC v6.2.5 Thu Jun 22 08:44:25 2017

Tools Copyright (c) 1996-2014 Texas Instruments Incorporated
C:\Users\wmj\AppData\Local\Temp\0846811                              PAGE   54

    2642                      .dwattr $C$DW$297, DW_AT_TI_call
    2643 0000015e 7640!         LCR       #__IQ24sqrt           ; [CPU_] |640| 
         0000015f 0000 
    2644                      ; call occurs [#__IQ24sqrt] ; [] |640| 
    2645 00000160 8A52          MOVL      XAR4,*-SP[18]         ; [CPU_] |640| 
    2646 00000161 1EA6          MOVL      XAR6,ACC              ; [CPU_] |640| 
    2647                      .dwpsn  file "C:/ti/motorware/motorware_1_01_00_18/sw/modules/pid/src/32b/pid.h",line 358,column 16,i
    2648 00000162 8AE4          MOVL      XAR4,*+XAR4[4]        ; [CPU_] |358| 
    2649                      .dwpsn  file "C:/ti/motorware/motorware_1_01_00_18/sw/modules/pid/src/32b/pid.h",line 360,column 3,is
    2650 00000163 D00C          MOVB      XAR0,#12              ; [CPU_] |360| 
    2651 00000164 FF54          NEG       ACC                   ; [CPU_] |360| 
    2652                      .dwpsn  file "C:/ti/motorware/motorware_1_01_00_18/sw/solutions/instaspin_foc/src/proj_lab11.c",line 
    2653 00000165 C5A1          MOVL      XAR7,XAR1             ; [CPU_] |649| 
    2654                      .dwpsn  file "C:/ti/motorware/motorware_1_01_00_18/sw/modules/pid/src/32b/pid.h",line 360,column 3,is
    2655 00000166 1E94          MOVL      *+XAR4[AR0],ACC       ; [CPU_] |360| 
    2656                      .dwpsn  file "C:/ti/motorware/motorware_1_01_00_18/sw/modules/pid/src/32b/pid.h",line 361,column 3,is
    2657 00000167 D00E          MOVB      XAR0,#14              ; [CPU_] |361| 
    2658                      .dwpsn  file "C:/ti/motorware/motorware_1_01_00_18/sw/solutions/instaspin_foc/src/proj_lab11.c",line 
    2659 00000168 B2A9          MOVL      ACC,XAR1              ; [CPU_] |649| 
    2660                      .dwpsn  file "C:/ti/motorware/motorware_1_01_00_18/sw/modules/pid/src/32b/pid.h",line 361,column 3,is
    2661 00000169 C294          MOVL      *+XAR4[AR0],XAR6      ; [CPU_] |361| 
    2662                      .dwpsn  file "C:/ti/motorware/motorware_1_01_00_18/sw/modules/pid/src/32b/pid.h",line 243,column 3,is
    2663 0000016a D10E          MOVB      XAR1,#14              ; [CPU_] |243| 
    2664                      .dwpsn  file "C:/ti/motorware/motorware_1_01_00_18/sw/modules/pid/src/32b/pid.h",line 242,column 3,is
    2665 0000016b 03A3          SUBL      ACC,XAR3              ; [CPU_] |242| 
    2666                      .dwpsn  file "C:/ti/motorware/motorware_1_01_00_18/sw/modules/pid/src/32b/pid.h",line 243,column 3,is
    2667 0000016c D00C          MOVB      XAR0,#12              ; [CPU_] |243| 
    2668                      .dwpsn  file "C:/ti/motorware/motorware_1_01_00_18/sw/modules/pid/src/32b/pid.h",line 242,column 3,is
    2669 0000016d 87C4          MOVL      XT,*+XAR4[0]          ; [CPU_] |242| 
    2670 0000016e 5605          IMPYL     P,XT,ACC              ; [CPU_] |242| 
         0000016f 00A9 
    2671 00000170 5663          QMPYL     ACC,XT,ACC            ; [CPU_] |242| 
         00000171 00A9 
    2672 00000172 56A7          LSL64     ACC:P,#8              ; [CPU_] |242| 
    2673                      .dwpsn  file "C:/ti/motorware/motorware_1_01_00_18/sw/modules/pid/src/32b/pid.h",line 243,column 3,is
    2674 00000173 87D4          MOVL      XT,*+XAR4[2]          ; [CPU_] |243| 
    2675                      .dwpsn  file "C:/ti/motorware/motorware_1_01_00_18/sw/modules/pid/src/32b/pid.h",line 242,column 3,is
    2676 00000174 1EA6          MOVL      XAR6,ACC              ; [CPU_] |242| 
    2677                      .dwpsn  file "C:/ti/motorware/motorware_1_01_00_18/sw/modules/pid/src/32b/pid.h",line 243,column 3,is
    2678 00000175 5605          IMPYL     P,XT,XAR6             ; [CPU_] |243| 
         00000176 00A6 
    2679 00000177 5663          QMPYL     ACC,XT,XAR6           ; [CPU_] |243| 
         00000178 00A6 
    2680 00000179 56A7          LSL64     ACC:P,#8              ; [CPU_] |243| 
    2681 0000017a 07F4          ADDL      ACC,*+XAR4[6]         ; [CPU_] |243| 
    2682 0000017b 5650          MINL      ACC,*+XAR4[AR1]       ; [CPU_] |243| 
         0000017c 009C 
    2683                      .dwpsn  file "C:/ti/motorware/motorware_1_01_00_18/sw/modules/pid/src/32b/pid.h",line 249,column 3,is
    2684 0000017d D10E          MOVB      XAR1,#14              ; [CPU_] |249| 
    2685                      .dwpsn  file "C:/ti/motorware/motorware_1_01_00_18/sw/modules/pid/src/32b/pid.h",line 243,column 3,is
    2686 0000017e 5661          MAXL      ACC,*+XAR4[AR0]       ; [CPU_] |243| 
         0000017f 0094 
    2687                      .dwpsn  file "C:/ti/motorware/motorware_1_01_00_18/sw/modules/pid/src/32b/pid.h",line 246,column 3,is
    2688 00000180 D008          MOVB      XAR0,#8               ; [CPU_] |246| 
    2689                      .dwpsn  file "C:/ti/motorware/motorware_1_01_00_18/sw/modules/pid/src/32b/pid.h",line 245,column 3,is
TMS320C2000 Assembler PC v6.2.5 Thu Jun 22 08:44:25 2017

Tools Copyright (c) 1996-2014 Texas Instruments Incorporated
C:\Users\wmj\AppData\Local\Temp\0846811                              PAGE   55

    2690 00000181 1EF4          MOVL      *+XAR4[6],ACC         ; [CPU_] |245| 
    2691                      .dwpsn  file "C:/ti/motorware/motorware_1_01_00_18/sw/modules/pid/src/32b/pid.h",line 249,column 3,is
    2692 00000182 07A6          ADDL      ACC,XAR6              ; [CPU_] |249| 
    2693                      .dwpsn  file "C:/ti/motorware/motorware_1_01_00_18/sw/modules/pid/src/32b/pid.h",line 246,column 3,is
    2694 00000183 C394          MOVL      *+XAR4[AR0],XAR7      ; [CPU_] |246| 
    2695                      .dwpsn  file "C:/ti/motorware/motorware_1_01_00_18/sw/modules/pid/src/32b/pid.h",line 247,column 3,is
    2696 00000184 D00A          MOVB      XAR0,#10              ; [CPU_] |247| 
    2697 00000185 A294          MOVL      *+XAR4[AR0],XAR3      ; [CPU_] |247| 
    2698                      .dwpsn  file "C:/ti/motorware/motorware_1_01_00_18/sw/modules/pid/src/32b/pid.h",line 249,column 3,is
    2699 00000186 D00C          MOVB      XAR0,#12              ; [CPU_] |249| 
    2700 00000187 5650          MINL      ACC,*+XAR4[AR1]       ; [CPU_] |249| 
         00000188 009C 
    2701 00000189 5661          MAXL      ACC,*+XAR4[AR0]       ; [CPU_] |249| 
         0000018a 0094 
    2702 0000018b 1ED2          MOVL      *+XAR2[2],ACC         ; [CPU_] |249| 
    2703 0000018c 0656          MOVL      ACC,*-SP[22]          ; [CPU_] |249| 
    2704                      .dwpsn  file "C:/ti/motorware/motorware_1_01_00_18/sw/solutions/instaspin_foc/src/proj_lab11.c",line 
    2705 0000018d 1E42          MOVL      *-SP[2],ACC           ; [CPU_] |659| 
    2706 0000018e 0654          MOVL      ACC,*-SP[20]          ; [CPU_] |659| 
    2707              $C$DW$298       .dwtag  DW_TAG_TI_branch
    2708                      .dwattr $C$DW$298, DW_AT_low_pc(0x00)
    2709                      .dwattr $C$DW$298, DW_AT_name("_angleDelayComp")
    2710                      .dwattr $C$DW$298, DW_AT_TI_call
    2711 0000018f 7640'         LCR       #_angleDelayComp      ; [CPU_] |659| 
         00000190 0176 
    2712                      ; call occurs [#_angleDelayComp] ; [] |659| 
    2713 00000191 1E56          MOVL      *-SP[22],ACC          ; [CPU_] |659| 
    2714 00000192 8BA9          MOVL      XAR1,ACC              ; [CPU_] |659| 
    2715                      .dwpsn  file "C:/ti/motorware/motorware_1_01_00_18/sw/solutions/instaspin_foc/src/proj_lab11.c",line 
    2716              $C$DW$299       .dwtag  DW_TAG_TI_branch
    2717                      .dwattr $C$DW$299, DW_AT_low_pc(0x00)
    2718                      .dwattr $C$DW$299, DW_AT_name("__IQ24cosPU")
    2719                      .dwattr $C$DW$299, DW_AT_TI_call
    2720 00000193 7640!         LCR       #__IQ24cosPU          ; [CPU_] |665| 
         00000194 0000 
    2721                      ; call occurs [#__IQ24cosPU] ; [] |665| 
    2722 00000195 1E50          MOVL      *-SP[16],ACC          ; [CPU_] |665| 
    2723                      .dwpsn  file "C:/ti/motorware/motorware_1_01_00_18/sw/solutions/instaspin_foc/src/proj_lab11.c",line 
    2724 00000196 B2A9          MOVL      ACC,XAR1              ; [CPU_] |666| 
    2725              $C$DW$300       .dwtag  DW_TAG_TI_branch
    2726                      .dwattr $C$DW$300, DW_AT_low_pc(0x00)
    2727                      .dwattr $C$DW$300, DW_AT_name("__IQ24sinPU")
    2728                      .dwattr $C$DW$300, DW_AT_TI_call
    2729 00000197 7640!         LCR       #__IQ24sinPU          ; [CPU_] |666| 
         00000198 0000 
    2730                      ; call occurs [#__IQ24sinPU] ; [] |666| 
    2731 00000199 761F-         MOVW      DP,#_iparkHandle      ; [CPU_U] 
         0000019a 0000 
    2732                      .dwpsn  file "C:/ti/motorware/motorware_1_01_00_18/sw/solutions/instaspin_foc/src/proj_lab11.c",line 
    2733 0000019b 8A1A-         MOVL      XAR4,@_iparkHandle    ; [CPU_] |669| 
    2734                      .dwpsn  file "C:/ti/motorware/motorware_1_01_00_18/sw/solutions/instaspin_foc/src/proj_lab11.c",line 
    2735 0000019c 1E4E          MOVL      *-SP[14],ACC          ; [CPU_] |666| 
    2736                      .dwpsn  file "C:/ti/motorware/motorware_1_01_00_18/sw/modules/ipark/src/32b/ipark.h",line 175,column 
    2737 0000019d 0650          MOVL      ACC,*-SP[16]          ; [CPU_] |175| 
    2738 0000019e 1ED4          MOVL      *+XAR4[2],ACC         ; [CPU_] |175| 
TMS320C2000 Assembler PC v6.2.5 Thu Jun 22 08:44:25 2017

Tools Copyright (c) 1996-2014 Texas Instruments Incorporated
C:\Users\wmj\AppData\Local\Temp\0846811                              PAGE   56

    2739                      .dwpsn  file "C:/ti/motorware/motorware_1_01_00_18/sw/modules/ipark/src/32b/ipark.h",line 176,column 
    2740 0000019f 064E          MOVL      ACC,*-SP[14]          ; [CPU_] |176| 
    2741 000001a0 1EC4          MOVL      *+XAR4[0],ACC         ; [CPU_] |176| 
    2742                      .dwpsn  file "C:/ti/motorware/motorware_1_01_00_18/sw/modules/ipark/src/32b/ipark.h",line 141,column 
    2743 000001a1 C5C4          MOVL      XAR7,*+XAR4[0]        ; [CPU_] |141| 
    2744                      .dwpsn  file "C:/ti/motorware/motorware_1_01_00_18/sw/modules/ipark/src/32b/ipark.h",line 148,column 
    2745 000001a2 87D2          MOVL      XT,*+XAR2[2]          ; [CPU_] |148| 
    2746 000001a3 5605          IMPYL     P,XT,XAR7             ; [CPU_] |148| 
         000001a4 00A7 
    2747 000001a5 5663          QMPYL     ACC,XT,XAR7           ; [CPU_] |148| 
         000001a6 00A7 
    2748                      .dwpsn  file "C:/ti/motorware/motorware_1_01_00_18/sw/modules/ipark/src/32b/ipark.h",line 142,column 
    2749 000001a7 8AD4          MOVL      XAR4,*+XAR4[2]        ; [CPU_] |142| 
    2750                      .dwpsn  file "C:/ti/motorware/motorware_1_01_00_18/sw/modules/ipark/src/32b/ipark.h",line 148,column 
    2751 000001a8 56A7          LSL64     ACC:P,#8              ; [CPU_] |148| 
    2752 000001a9 87C2          MOVL      XT,*+XAR2[0]          ; [CPU_] |148| 
    2753 000001aa 1EA6          MOVL      XAR6,ACC              ; [CPU_] |148| 
    2754 000001ab 5605          IMPYL     P,XT,XAR4             ; [CPU_] |148| 
         000001ac 00A4 
    2755 000001ad 5663          QMPYL     ACC,XT,XAR4           ; [CPU_] |148| 
         000001ae 00A4 
    2756 000001af 56A7          LSL64     ACC:P,#8              ; [CPU_] |148| 
    2757 000001b0 03A6          SUBL      ACC,XAR6              ; [CPU_] |148| 
    2758 000001b1 1E4C          MOVL      *-SP[12],ACC          ; [CPU_] |148| 
    2759                      .dwpsn  file "C:/ti/motorware/motorware_1_01_00_18/sw/modules/ipark/src/32b/ipark.h",line 149,column 
    2760 000001b2 87D2          MOVL      XT,*+XAR2[2]          ; [CPU_] |149| 
    2761 000001b3 5605          IMPYL     P,XT,XAR4             ; [CPU_] |149| 
         000001b4 00A4 
    2762 000001b5 5663          QMPYL     ACC,XT,XAR4           ; [CPU_] |149| 
         000001b6 00A4 
    2763 000001b7 56A7          LSL64     ACC:P,#8              ; [CPU_] |149| 
    2764 000001b8 87C2          MOVL      XT,*+XAR2[0]          ; [CPU_] |149| 
    2765                      .dwpsn  file "C:/ti/motorware/motorware_1_01_00_18/sw/solutions/instaspin_foc/src/proj_lab11.c",line 
    2766 000001b9 8A10-         MOVL      XAR4,@_estHandle      ; [CPU_] |679| 
    2767                      .dwpsn  file "C:/ti/motorware/motorware_1_01_00_18/sw/modules/ipark/src/32b/ipark.h",line 149,column 
    2768 000001ba 1EA6          MOVL      XAR6,ACC              ; [CPU_] |149| 
    2769 000001bb 5605          IMPYL     P,XT,XAR7             ; [CPU_] |149| 
         000001bc 00A7 
    2770 000001bd 5663          QMPYL     ACC,XT,XAR7           ; [CPU_] |149| 
         000001be 00A7 
    2771 000001bf 56A7          LSL64     ACC:P,#8              ; [CPU_] |149| 
    2772 000001c0 07A6          ADDL      ACC,XAR6              ; [CPU_] |149| 
    2773 000001c1 1E4A          MOVL      *-SP[10],ACC          ; [CPU_] |149| 
    2774                      .dwpsn  file "C:/ti/motorware/motorware_1_01_00_18/sw/solutions/instaspin_foc/src/proj_lab11.c",line 
    2775              $C$DW$301       .dwtag  DW_TAG_TI_branch
    2776                      .dwattr $C$DW$301, DW_AT_low_pc(0x00)
    2777                      .dwattr $C$DW$301, DW_AT_name("_EST_getOneOverDcBus_pu")
    2778                      .dwattr $C$DW$301, DW_AT_TI_call
    2779 000001c2 7640!         LCR       #_EST_getOneOverDcBus_pu ; [CPU_] |679| 
         000001c3 0000 
    2780                      ; call occurs [#_EST_getOneOverDcBus_pu] ; [] |679| 
    2781                      .dwpsn  file "C:/ti/motorware/motorware_1_01_00_18/sw/solutions/instaspin_foc/src/proj_lab11.c",line 
    2782 000001c4 874C          MOVL      XT,*-SP[12]           ; [CPU_] |680| 
    2783                      .dwpsn  file "C:/ti/motorware/motorware_1_01_00_18/sw/solutions/instaspin_foc/src/proj_lab11.c",line 
    2784 000001c5 1EA6          MOVL      XAR6,ACC              ; [CPU_] |679| 
TMS320C2000 Assembler PC v6.2.5 Thu Jun 22 08:44:25 2017

Tools Copyright (c) 1996-2014 Texas Instruments Incorporated
C:\Users\wmj\AppData\Local\Temp\0846811                              PAGE   57

    2785 000001c6 3B01          SETC      SXM                   ; [CPU_] 
    2786                      .dwpsn  file "C:/ti/motorware/motorware_1_01_00_18/sw/solutions/instaspin_foc/src/proj_lab11.c",line 
    2787 000001c7 5605          IMPYL     P,XT,XAR6             ; [CPU_] |680| 
         000001c8 00A6 
    2788 000001c9 5663          QMPYL     ACC,XT,XAR6           ; [CPU_] |680| 
         000001ca 00A6 
    2789 000001cb 56A7          LSL64     ACC:P,#8              ; [CPU_] |680| 
    2790 000001cc 1E4C          MOVL      *-SP[12],ACC          ; [CPU_] |680| 
    2791                      .dwpsn  file "C:/ti/motorware/motorware_1_01_00_18/sw/solutions/instaspin_foc/src/proj_lab11.c",line 
    2792 000001cd 874A          MOVL      XT,*-SP[10]           ; [CPU_] |681| 
    2793 000001ce 5605          IMPYL     P,XT,XAR6             ; [CPU_] |681| 
         000001cf 00A6 
    2794 000001d0 5663          QMPYL     ACC,XT,XAR6           ; [CPU_] |681| 
         000001d1 00A6 
    2795 000001d2 56A7          LSL64     ACC:P,#8              ; [CPU_] |681| 
    2796 000001d3 1E4A          MOVL      *-SP[10],ACC          ; [CPU_] |681| 
    2797                      .dwpsn  file "C:/ti/motorware/motorware_1_01_00_18/sw/modules/svgen/src/32b/svgen.h",line 133,column 
    2798 000001d4 28A9          MOV       AL,#46039             ; [CPU_] |133| 
         000001d5 B3D7 
    2799 000001d6 9BDD          MOV       AH,#221               ; [CPU_] |133| 
    2800 000001d7 1EAC          MOVL      XT,ACC                ; [CPU_] |133| 
    2801                      .dwpsn  file "C:/ti/motorware/motorware_1_01_00_18/sw/modules/svgen/src/32b/svgen.h",line 132,column 
    2802 000001d8 C44C          MOVL      XAR6,*-SP[12]         ; [CPU_] |132| 
    2803                      .dwpsn  file "C:/ti/motorware/motorware_1_01_00_18/sw/modules/svgen/src/32b/svgen.h",line 133,column 
    2804 000001d9 5605          IMPYL     P,XT,*-SP[10]         ; [CPU_] |133| 
         000001da 004A 
    2805 000001db 5663          QMPYL     ACC,XT,*-SP[10]       ; [CPU_] |133| 
         000001dc 004A 
    2806 000001dd 56A7          LSL64     ACC:P,#8              ; [CPU_] |133| 
    2807 000001de 8AA9          MOVL      XAR4,ACC              ; [CPU_] |133| 
    2808 000001df 06A6          MOVL      ACC,XAR6              ; [CPU_] |133| 
    2809 000001e0 FF40          SFR       ACC,1                 ; [CPU_] |133| 
    2810 000001e1 FF54          NEG       ACC                   ; [CPU_] |133| 
    2811 000001e2 FF5A          MOVL      P,ACC                 ; [CPU_] |133| 
    2812 000001e3 A8A9          MOVL      ACC,XAR4              ; [CPU_] |133| 
    2813 000001e4 07AB          ADDL      ACC,P                 ; [CPU_] |133| 
    2814 000001e5 83A9          MOVL      XAR5,ACC              ; [CPU_] |133| 
    2815                      .dwpsn  file "C:/ti/motorware/motorware_1_01_00_18/sw/modules/svgen/src/32b/svgen.h",line 134,column 
    2816 000001e6 565D          SUBUL     P,XAR4                ; [CPU_] |134| 
         000001e7 00A4 
    2817 000001e8 A9A7          MOVL      XAR7,P                ; [CPU_] |134| 
    2818                      .dwpsn  file "C:/ti/motorware/motorware_1_01_00_18/sw/modules/svgen/src/32b/svgen.h",line 140,column 
    2819 000001e9 0FA6          CMPL      ACC,XAR6              ; [CPU_] |140| 
    2820 000001ea 6404          B         $C$L18,LT             ; [CPU_] |140| 
    2821                      ; branchcc occurs ; [] |140| 
    2822 000001eb A0AB          MOVL      P,XAR5                ; [CPU_] 
    2823                      .dwpsn  file "C:/ti/motorware/motorware_1_01_00_18/sw/modules/svgen/src/32b/svgen.h",line 148,column 
    2824 000001ec 87A6          MOVL      XT,XAR6               ; [CPU_] |148| 
    2825 000001ed 6F03          B         $C$L19,UNC            ; [CPU_] |148| 
    2826                      ; branch occurs ; [] |148| 
    2827 000001ee       $C$L18:    
    2828                      .dwpsn  file "C:/ti/motorware/motorware_1_01_00_18/sw/modules/svgen/src/32b/svgen.h",line 142,column 
    2829 000001ee A3A6          MOVL      P,XAR6                ; [CPU_] |142| 
    2830 000001ef A0AC          MOVL      XT,XAR5               ; [CPU_] |142| 
    2831 000001f0       $C$L19:    
TMS320C2000 Assembler PC v6.2.5 Thu Jun 22 08:44:25 2017

Tools Copyright (c) 1996-2014 Texas Instruments Incorporated
C:\Users\wmj\AppData\Local\Temp\0846811                              PAGE   58

    2832 000001f0 A9A9          MOVL      ACC,P                 ; [CPU_] 
    2833                      .dwpsn  file "C:/ti/motorware/motorware_1_01_00_18/sw/modules/svgen/src/32b/svgen.h",line 151,column 
    2834 000001f1 0FA7          CMPL      ACC,XAR7              ; [CPU_] |151| 
    2835 000001f2 6406          B         $C$L20,LT             ; [CPU_] |151| 
    2836                      ; branchcc occurs ; [] |151| 
    2837 000001f3 ABA9          MOVL      ACC,XT                ; [CPU_] 
    2838                      .dwpsn  file "C:/ti/motorware/motorware_1_01_00_18/sw/modules/svgen/src/32b/svgen.h",line 155,column 
    2839 000001f4 0FA7          CMPL      ACC,XAR7              ; [CPU_] |155| 
    2840 000001f5 6504          B         $C$L21,LEQ            ; [CPU_] |155| 
    2841                      ; branchcc occurs ; [] |155| 
    2842                      .dwpsn  file "C:/ti/motorware/motorware_1_01_00_18/sw/modules/svgen/src/32b/svgen.h",line 157,column 
    2843 000001f6 87A7          MOVL      XT,XAR7               ; [CPU_] |157| 
    2844 000001f7 6F02          B         $C$L21,UNC            ; [CPU_] |157| 
    2845                      ; branch occurs ; [] |157| 
    2846 000001f8       $C$L20:    
    2847                      .dwpsn  file "C:/ti/motorware/motorware_1_01_00_18/sw/modules/svgen/src/32b/svgen.h",line 153,column 
    2848 000001f8 A3A7          MOVL      P,XAR7                ; [CPU_] |153| 
    2849 000001f9       $C$L21:    
    2850                      .dwpsn  file "C:/ti/motorware/motorware_1_01_00_18/sw/modules/svgen/src/32b/svgen.h",line 163,column 
    2851 000001f9 A9A9          MOVL      ACC,P                 ; [CPU_] |163| 
    2852 000001fa 5601          ADDL      XT,ACC                ; [CPU_] |163| 
         000001fb 00AC 
    2853 000001fc 8F00-         MOVL      XAR4,#_gPwmData       ; [CPU_U] |163| 
         000001fd 0032 
    2854 000001fe 9A00          MOV       AL,#0                 ; [CPU_] |163| 
    2855 000001ff 9B80          MOV       AH,#128               ; [CPU_] |163| 
    2856 00000200 761F-         MOVW      DP,#_halHandle        ; [CPU_U] 
         00000201 0000 
    2857 00000202 5605          IMPYL     P,XT,ACC              ; [CPU_] |163| 
         00000203 00A9 
    2858 00000204 5663          QMPYL     ACC,XT,ACC            ; [CPU_] |163| 
         00000205 00A9 
    2859 00000206 56A7          LSL64     ACC:P,#8              ; [CPU_] |163| 
    2860 00000207 5641          SUBL      XAR6,ACC              ; [CPU_] |163| 
         00000208 00A6 
    2861                      .dwpsn  file "C:/ti/motorware/motorware_1_01_00_18/sw/modules/svgen/src/32b/svgen.h",line 164,column 
    2862 00000209 5641          SUBL      XAR5,ACC              ; [CPU_] |164| 
         0000020a 00A5 
    2863                      .dwpsn  file "C:/ti/motorware/motorware_1_01_00_18/sw/modules/svgen/src/32b/svgen.h",line 165,column 
    2864 0000020b 5641          SUBL      XAR7,ACC              ; [CPU_] |165| 
         0000020c 00A7 
    2865                      .dwpsn  file "C:/ti/motorware/motorware_1_01_00_18/sw/modules/svgen/src/32b/svgen.h",line 163,column 
    2866 0000020d C2C4          MOVL      *+XAR4[0],XAR6        ; [CPU_] |163| 
    2867                      .dwpsn  file "C:/ti/motorware/motorware_1_01_00_18/sw/modules/svgen/src/32b/svgen.h",line 164,column 
    2868 0000020e A0D4          MOVL      *+XAR4[2],XAR5        ; [CPU_] |164| 
    2869                      .dwpsn  file "C:/ti/motorware/motorware_1_01_00_18/sw/modules/svgen/src/32b/svgen.h",line 165,column 
    2870 0000020f C3E4          MOVL      *+XAR4[4],XAR7        ; [CPU_] |165| 
    2871                      .dwpsn  file "C:/ti/motorware/motorware_1_01_00_18/sw/modules/svgen/src/32b/svgen.h",line 167,column 
    2872 00000210 8A14-         MOVL      XAR4,@_halHandle      ; [CPU_] |167| 
    2873 00000211 6F1E          B         $C$L23,UNC            ; [CPU_] |167| 
    2874                      ; branch occurs ; [] |167| 
    2875 00000212       $C$L22:    
    2876 00000212 761F-         MOVW      DP,#_halHandle        ; [CPU_U] 
         00000213 0000 
    2877                      .dwpsn  file "C:/ti/motorware/motorware_1_01_00_18/sw/solutions/instaspin_foc/src/proj_lab11.c",line 
TMS320C2000 Assembler PC v6.2.5 Thu Jun 22 08:44:25 2017

Tools Copyright (c) 1996-2014 Texas Instruments Incorporated
C:\Users\wmj\AppData\Local\Temp\0846811                              PAGE   59

    2878 00000214 8A14-         MOVL      XAR4,@_halHandle      ; [CPU_] |691| 
    2879                      .dwpsn  file "C:/ti/motorware/motorware_1_01_00_18/sw/modules/hal/boards/hvkit_rev1p1/f28x/f2802x/src
    2880 00000215 83A4          MOVL      XAR5,XAR4             ; [CPU_] |242| 
    2881                      .dwpsn  file "C:/ti/motorware/motorware_1_01_00_18/sw/modules/hal/boards/hvkit_rev1p1/f28x/f2802x/src
    2882 00000216 DD7C          ADDB      XAR5,#124             ; [CPU_] |244| 
    2883 00000217 C4C5          MOVL      XAR6,*+XAR5[0]        ; [CPU_] |244| 
    2884 00000218 7622   EALLOW
    2885                      .dwpsn  file "C:/ti/motorware/motorware_1_01_00_18/sw/drivers/pwm/src/32b/f28x/f2802x/pwm.h",line 156
    2886 00000219 DE18          ADDB      XAR6,#24              ; [CPU_] |1567| 
    2887 0000021a 1AC6          OR        *+XAR6[0],#0x0004     ; [CPU_] |1567| 
         0000021b 0004 
    2888 0000021c 761A   EDIS
    2889                      .dwpsn  file "C:/ti/motorware/motorware_1_01_00_18/sw/modules/hal/boards/hvkit_rev1p1/f28x/f2802x/src
    2890 0000021d C4D5          MOVL      XAR6,*+XAR5[2]        ; [CPU_] |245| 
    2891 0000021e 7622   EALLOW
    2892                      .dwpsn  file "C:/ti/motorware/motorware_1_01_00_18/sw/drivers/pwm/src/32b/f28x/f2802x/pwm.h",line 156
    2893 0000021f DE18          ADDB      XAR6,#24              ; [CPU_] |1567| 
    2894 00000220 1AC6          OR        *+XAR6[0],#0x0004     ; [CPU_] |1567| 
         00000221 0004 
    2895 00000222 761A   EDIS
    2896                      .dwpsn  file "C:/ti/motorware/motorware_1_01_00_18/sw/modules/hal/boards/hvkit_rev1p1/f28x/f2802x/src
    2897 00000223 83E5          MOVL      XAR5,*+XAR5[4]        ; [CPU_] |246| 
    2898 00000224 7622   EALLOW
    2899                      .dwpsn  file "C:/ti/motorware/motorware_1_01_00_18/sw/drivers/pwm/src/32b/f28x/f2802x/pwm.h",line 156
    2900 00000225 DD18          ADDB      XAR5,#24              ; [CPU_] |1567| 
    2901 00000226 1AC5          OR        *+XAR5[0],#0x0004     ; [CPU_] |1567| 
         00000227 0004 
    2902 00000228 761A   EDIS
    2903                      .dwpsn  file "C:/ti/motorware/motorware_1_01_00_18/sw/solutions/instaspin_foc/src/proj_lab11.c",line 
    2904 00000229 0200          MOVB      ACC,#0                ; [CPU_] |694| 
    2905 0000022a 8F40-         MOVL      XAR5,#_gPwmData       ; [CPU_U] |694| 
         0000022b 0032 
    2906 0000022c 1EC5          MOVL      *+XAR5[0],ACC         ; [CPU_] |694| 
    2907                      .dwpsn  file "C:/ti/motorware/motorware_1_01_00_18/sw/solutions/instaspin_foc/src/proj_lab11.c",line 
    2908 0000022d 1ED5          MOVL      *+XAR5[2],ACC         ; [CPU_] |695| 
    2909                      .dwpsn  file "C:/ti/motorware/motorware_1_01_00_18/sw/solutions/instaspin_foc/src/proj_lab11.c",line 
    2910 0000022e 1EE5          MOVL      *+XAR5[4],ACC         ; [CPU_] |696| 
    2911 0000022f       $C$L23:    
    2912 0000022f DC7C          ADDB      XAR4,#124             ; [CPU_] 
    2913 00000230 76C0-         MOVL      XAR7,#_gPwmData       ; [CPU_U] 
         00000231 0032 
    2914 00000232 BE02          MOVB      XAR6,#2               ; [CPU_] 
    2915 00000233 3B01          SETC      SXM                   ; [CPU_] 
    2916 00000234 FF69          SPM       #0                    ; [CPU_] 
    2917 00000235       $C$L24:    
    2918                      .dwpsn  file "C:/ti/motorware/motorware_1_01_00_18/sw/modules/hal/boards/hvkit_rev1p1/f28x/f2802x/src
    2919 00000235 83C4          MOVL      XAR5,*+XAR4[0]        ; [CPU_] |1052| 
    2920                      .dwpsn  file "C:/ti/motorware/motorware_1_01_00_18/sw/drivers/pwm/src/32b/f28x/f2802x/pwm.h",line 171
    2921 00000236 FF2F          MOV       ACC,#-512 << 15       ; [CPU_] |1717| 
         00000237 FE00 
    2922 00000238 8787          MOVL      XT,*XAR7++            ; [CPU_] |1717| 
    2923 00000239 5605          IMPYL     P,XT,ACC              ; [CPU_] |1717| 
         0000023a 00A9 
    2924                      .dwpsn  file "C:/ti/motorware/motorware_1_01_00_18/sw/modules/hal/boards/hvkit_rev1p1/f28x/f2802x/src
    2925 0000023b 58ED          MOVZ      AR0,*+XAR5[5]         ; [CPU_] |1052| 
TMS320C2000 Assembler PC v6.2.5 Thu Jun 22 08:44:25 2017

Tools Copyright (c) 1996-2014 Texas Instruments Incorporated
C:\Users\wmj\AppData\Local\Temp\0846811                              PAGE   60

    2926                      .dwpsn  file "C:/ti/motorware/motorware_1_01_00_18/sw/drivers/pwm/src/32b/f28x/f2802x/pwm.h",line 171
    2927 0000023c 5663          QMPYL     ACC,XT,ACC            ; [CPU_] |1717| 
         0000023d 00A9 
    2928                      .dwpsn  file "C:/ti/motorware/motorware_1_01_00_18/sw/modules/hal/boards/hvkit_rev1p1/f28x/f2802x/src
    2929 0000023e DC02          ADDB      XAR4,#2               ; [CPU_] |1049| 
    2930                      .dwpsn  file "C:/ti/motorware/motorware_1_01_00_18/sw/drivers/pwm/src/32b/f28x/f2802x/pwm.h",line 171
    2931 0000023f 56A7          LSL64     ACC:P,#8              ; [CPU_] |1717| 
    2932 00000240 2BAB          MOV       PL,#0                 ; [CPU_] |1717| 
    2933 00000241 28AA          MOV       PH,#128               ; [CPU_] |1717| 
         00000242 0080 
    2934 00000243 A9A2          MOVL      XAR2,P                ; [CPU_] |1717| 
    2935 00000244 2BAB          MOV       PL,#0                 ; [CPU_] |1717| 
    2936 00000245 28AA          MOV       PH,#65408             ; [CPU_] |1717| 
         00000246 FF80 
    2937 00000247 5650          MINL      ACC,XAR2              ; [CPU_] |1717| 
         00000248 00A2 
    2938 00000249 5661          MAXL      ACC,P                 ; [CPU_] |1717| 
         0000024a 00AB 
    2939 0000024b FF1F          ADD       ACC,#256 << 15        ; [CPU_] |1717| 
         0000024c 0100 
    2940 0000024d 1EAC          MOVL      XT,ACC                ; [CPU_] |1717| 
    2941 0000024e 5605          IMPYL     P,XT,XAR0             ; [CPU_] |1717| 
         0000024f 00A0 
    2942 00000250 5663          QMPYL     ACC,XT,XAR0           ; [CPU_] |1717| 
         00000251 00A0 
    2943 00000252 56A7          LSL64     ACC:P,#8              ; [CPU_] |1717| 
    2944 00000253 3100          MOV       P,#0                  ; [CPU_] |1717| 
    2945 00000254 5650          MINL      ACC,XAR0              ; [CPU_] |1717| 
         00000255 00A0 
    2946 00000256 D009          MOVB      XAR0,#9               ; [CPU_] |1717| 
    2947 00000257 5661          MAXL      ACC,P                 ; [CPU_] |1717| 
         00000258 00AB 
    2948 00000259 9695          MOV       *+XAR5[AR0],AL        ; [CPU_] |1717| 
    2949                      .dwpsn  file "C:/ti/motorware/motorware_1_01_00_18/sw/modules/hal/boards/hvkit_rev1p1/f28x/f2802x/src
    2950 0000025a 000E          BANZ      $C$L24,AR6--          ; [CPU_] |1049| 
         0000025b FFDB 
    2951                      ; branchcc occurs ; [] |1049| 
    2952 0000025c FE96          SUBB      SP,#22                ; [CPU_U] 
    2953                      .dwcfi  cfa_offset, -18
    2954 0000025d C5BE          MOVL      XAR7,*--SP            ; [CPU_] 
    2955                      .dwcfi  cfa_offset, -16
    2956                      .dwcfi  restore_reg, 18
    2957 0000025e C4BE          MOVL      XAR6,*--SP            ; [CPU_] 
    2958                      .dwcfi  cfa_offset, -14
    2959                      .dwcfi  restore_reg, 16
    2960 0000025f 83BE          MOVL      XAR5,*--SP            ; [CPU_] 
    2961                      .dwcfi  cfa_offset, -12
    2962                      .dwcfi  restore_reg, 14
    2963 00000260 8ABE          MOVL      XAR4,*--SP            ; [CPU_] 
    2964                      .dwcfi  cfa_offset, -10
    2965                      .dwcfi  restore_reg, 12
    2966 00000261 82BE          MOVL      XAR3,*--SP            ; [CPU_] 
    2967                      .dwcfi  cfa_offset, -8
    2968                      .dwcfi  restore_reg, 10
    2969 00000262 86BE          MOVL      XAR2,*--SP            ; [CPU_] 
TMS320C2000 Assembler PC v6.2.5 Thu Jun 22 08:44:25 2017

Tools Copyright (c) 1996-2014 Texas Instruments Incorporated
C:\Users\wmj\AppData\Local\Temp\0846811                              PAGE   61

    2970                      .dwcfi  cfa_offset, -6
    2971                      .dwcfi  restore_reg, 8
    2972 00000263 87BE          MOVL      XT,*--SP              ; [CPU_] 
    2973                      .dwcfi  cfa_offset, -4
    2974                      .dwcfi  restore_reg, 22
    2975                      .dwcfi  restore_reg, 21
    2976 00000264 0003          POP       AR1H:AR0H             ; [CPU_] 
    2977                      .dwcfi  cfa_offset, -2
    2978                      .dwcfi  restore_reg, 5
    2979                      .dwcfi  restore_reg, 7
    2980 00000265 7617          NASP      ; [CPU_] 
    2981              $C$DW$302       .dwtag  DW_TAG_TI_branch
    2982                      .dwattr $C$DW$302, DW_AT_low_pc(0x00)
    2983                      .dwattr $C$DW$302, DW_AT_TI_return
    2984 00000266 7602          IRET      ; [CPU_] 
    2985                      ; return occurs ; [] 
    2986                      .dwattr $C$DW$244, DW_AT_TI_end_file("C:/ti/motorware/motorware_1_01_00_18/sw/solutions/instaspin_foc
    2987                      .dwattr $C$DW$244, DW_AT_TI_end_line(0x2bf)
