TMS320C2000 Assembler PC v6.2.5 Thu Jun 22 13:27:58 2017

Tools Copyright (c) 1996-2014 Texas Instruments Incorporated
C:\Users\wmj\AppData\Local\Temp\0868410                              PAGE    1

       1              ;***************************************************************
       2              ;* TMS320C2000 C/C++ Codegen                         PC v6.2.5 *
       3              ;* Date/Time created: Thu Jun 22 13:27:58 2017                 *
       4              ;***************************************************************
       5                      .compiler_opts --float_support=softlib --hll_source=on --mem_model:code=flat --mem_model:data=large -
       6        0002  FP      .set    XAR2
       7              
       8              $C$DW$CU        .dwtag  DW_TAG_compile_unit
       9                      .dwattr $C$DW$CU, DW_AT_name("C:/ti/motorware/motorware_1_01_00_18/sw/solutions/instaspin_foc/src/pro
      10                      .dwattr $C$DW$CU, DW_AT_producer("TMS320C2000 C/C++ Codegen PC v6.2.5 Copyright (c) 1996-2014 Texas I
      11                      .dwattr $C$DW$CU, DW_AT_TI_version(0x01)
      12                      .dwattr $C$DW$CU, DW_AT_comp_dir("C:\ti\motorware\motorware_1_01_00_18\sw\solutions\instaspin_foc\boa
      13              ;**************************************************************
      14              ;* CINIT RECORDS                                              *
      15              ;**************************************************************
      16 00000000               .sect   ".cinit"
      17                      .align  1
      18 00000000 FFFF          .field          -1,16
      19 00000001 0000-         .field          _gLEDcnt+0,32
         00000002 0000 
      20 00000003 0000          .bits   0,16                    ; _gLEDcnt @ 0
      21              
      22 00000004               .sect   ".cinit"
      23                      .align  1
      24 00000004 FFFF          .field          -1,16
      25 00000005 0001-         .field          _Flag_Latch_softwareUpdate+0,32
         00000006 0000 
      26 00000007 0001          .bits   1,16                    ; _Flag_Latch_softwareUpdate @ 0
      27              
      28 00000008               .sect   ".cinit"
      29                      .align  1
      30 00000008 FFFF          .field          -1,16
      31 00000009 0002-         .field          _gCounter_updateGlobals+0,32
         0000000a 0000 
      32 0000000b 0000          .bits   0,16                    ; _gCounter_updateGlobals @ 0
      33              
      34 0000000c               .sect   ".cinit"
      35                      .align  1
      36 0000000c FFFE          .field          -2,16
      37 0000000d 0008-         .field          _gCpuUsagePercentageMax+0,32
         0000000e 0000 
      38 0000000f 0000          .xfloat $strtod("0x0p+0")               ; _gCpuUsagePercentageMax @ 0
         00000010 0000 
      39              
      40 00000011               .sect   ".cinit"
      41                      .align  1
      42 00000011 FFFE          .field          -2,16
      43 00000012 000A-         .field          _gMaxCurrentSlope+0,32
         00000013 0000 
      44 00000014 0000          .bits   0,32                    ; _gMaxCurrentSlope @ 0
         00000015 0000 
      45              
      46 00000016               .sect   ".cinit"
      47                      .align  1
      48 00000016 FFFE          .field          -2,16
TMS320C2000 Assembler PC v6.2.5 Thu Jun 22 13:27:58 2017

Tools Copyright (c) 1996-2014 Texas Instruments Incorporated
C:\Users\wmj\AppData\Local\Temp\0868410                              PAGE    2

      49 00000017 0010-         .field          _gNumFreqErrors+0,32
         00000018 0000 
      50 00000019 0000          .bits   0,32                    ; _gNumFreqErrors @ 0
         0000001a 0000 
      51              
      52 0000001b               .sect   ".cinit"
      53                      .align  1
      54 0000001b FFFE          .field          -2,16
      55 0000001c 0014-         .field          _gMaxDeltaCntObserved+0,32
         0000001d 0000 
      56 0000001e 0000          .bits   0,32                    ; _gMaxDeltaCntObserved @ 0
         0000001f 0000 
      57              
      58 00000020               .sect   ".cinit"
      59                      .align  1
      60 00000020 FFFE          .field          -2,16
      61 00000021 0018-         .field          _gCpuUsagePercentageMin+0,32
         00000022 0000 
      62 00000023 0000          .xfloat $strtod("0x0p+0")               ; _gCpuUsagePercentageMin @ 0
         00000024 0000 
      63              
      64 00000025               .sect   ".cinit"
      65                      .align  1
      66 00000025 FFFE          .field          -2,16
      67 00000026 001E-         .field          _gCpuUsagePercentageAvg+0,32
         00000027 0000 
      68 00000028 0000          .xfloat $strtod("0x0p+0")               ; _gCpuUsagePercentageAvg @ 0
         00000029 0000 
      69              
      70 0000002a               .sect   ".cinit"
      71                      .align  1
      72 0000002a FFFA          .field          -$C$IR_1,16
      73 0000002b 0020-         .field          _gPwmData+0,32
         0000002c 0000 
      74 0000002d 0000          .bits   0,32                    ; _gPwmData._Tabc._value[0] @ 0
         0000002e 0000 
      75 0000002f 0000          .bits   0,32                    ; _gPwmData._Tabc._value[1] @ 32
         00000030 0000 
      76 00000031 0000          .bits   0,32                    ; _gPwmData._Tabc._value[2] @ 64
         00000032 0000 
      77        0006  $C$IR_1:        .set    6
      78              
      79 00000033               .sect   ".cinit"
      80                      .align  1
      81 00000033 FF80          .field          -$C$IR_2,16
      82 00000034 0080-         .field          _gMotorVars+0,32
         00000035 0000 
      83 00000036 0000          .bits   0,16                    ; _gMotorVars._Flag_enableSys @ 0
      84 00000037 0000          .bits   0,16                    ; _gMotorVars._Flag_Run_Identify @ 16
      85 00000038 0000          .bits   0,16                    ; _gMotorVars._Flag_MotorIdentified @ 32
      86 00000039 0001          .bits   1,16                    ; _gMotorVars._Flag_enableForceAngle @ 48
      87 0000003a 0000          .bits   0,16                    ; _gMotorVars._Flag_enableFieldWeakening @ 64
      88 0000003b 0000          .bits   0,16                    ; _gMotorVars._Flag_enableRsRecalc @ 80
      89 0000003c 0001          .bits   1,16                    ; _gMotorVars._Flag_enableUserParams @ 96
      90 0000003d 0001          .bits   1,16                    ; _gMotorVars._Flag_enableOffsetcalc @ 112
TMS320C2000 Assembler PC v6.2.5 Thu Jun 22 13:27:58 2017

Tools Copyright (c) 1996-2014 Texas Instruments Incorporated
C:\Users\wmj\AppData\Local\Temp\0868410                              PAGE    3

      91 0000003e 0000          .bits   0,16                    ; _gMotorVars._Flag_enablePowerWarp @ 128
      92 0000003f 0000          .bits   0,16                    ; _gMotorVars._Flag_enableSpeedCtrl @ 144
      93 00000040 0000          .bits   0,16                    ; _gMotorVars._Flag_enableRun @ 160
      94 00000041 0000          .bits   0,16                    ; _gMotorVars._Flag_RunState @ 176
      95 00000042 0000          .bits   0,16                    ; _gMotorVars._Flag_enableFlyingStart @ 192
      96 00000043 0001          .bits   1,16                    ; _gMotorVars._CtrlState @ 208
      97 00000044 0001          .bits   1,16                    ; _gMotorVars._EstState @ 224
      98 00000045 0000          .bits   0,16                    ; _gMotorVars._UserErrorCode @ 240
      99 00000046 0000          .bits   0,16                    ; _gMotorVars._CtrlVersion._rsvd @ 256
     100 00000047 0004          .bits   4,16                    ; _gMotorVars._CtrlVersion._targetProc @ 272
     101 00000048 0000          .bits   0,16                    ; _gMotorVars._CtrlVersion._major @ 288
     102 00000049 0000          .bits   0,16                    ; _gMotorVars._CtrlVersion._minor @ 304
     103 0000004a 0000          .bits   0,32                    ; _gMotorVars._IdRef_A @ 320
         0000004b 0000 
     104 0000004c 0000          .bits   0,32                    ; _gMotorVars._IqRef_A @ 352
         0000004d 0000 
     105 0000004e 0000          .bits   0,32                    ; _gMotorVars._SpeedRef_pu @ 384
         0000004f 0000 
     106 00000050 9999          .bits   1677721,32                      ; _gMotorVars._SpeedRef_krpm @ 416
         00000051 0019 
     107 00000052 0000          .bits   0,32                    ; _gMotorVars._SpeedTraj_krpm @ 448
         00000053 0000 
     108 00000054 3333          .bits   3355443,32                      ; _gMotorVars._MaxAccel_krpmps @ 480
         00000055 0033 
     109 00000056 0000          .bits   0,32                    ; _gMotorVars._Speed_krpm @ 512
         00000057 0000 
     110 00000058 0000          .bits   8388608,32                      ; _gMotorVars._OverModulation @ 544
         00000059 0080 
     111 0000005a CCCC          .bits   838860,32                       ; _gMotorVars._RsOnLineCurrent_A @ 576
         0000005b 000C 
     112 0000005c 0190          .bits   400,32                  ; _gMotorVars._SvgenMaxModulation_ticks @ 608
         0000005d 0000 
     113 0000005e 0000          .bits   0,32                    ; _gMotorVars._Flux_Wb @ 640
         0000005f 0000 
     114 00000060 0000          .bits   0,32                    ; _gMotorVars._Torque_Nm @ 672
         00000061 0000 
     115 00000062 0000          .xfloat $strtod("0x0p+0")               ; _gMotorVars._MagnCurr_A @ 704
         00000063 0000 
     116 00000064 0000          .xfloat $strtod("0x0p+0")               ; _gMotorVars._Rr_Ohm @ 736
         00000065 0000 
     117 00000066 0000          .xfloat $strtod("0x0p+0")               ; _gMotorVars._Rs_Ohm @ 768
         00000067 0000 
     118 00000068 0000          .xfloat $strtod("0x0p+0")               ; _gMotorVars._RsOnLine_Ohm @ 800
         00000069 0000 
     119 0000006a 0000          .xfloat $strtod("0x0p+0")               ; _gMotorVars._Lsd_H @ 832
         0000006b 0000 
     120 0000006c 0000          .xfloat $strtod("0x0p+0")               ; _gMotorVars._Lsq_H @ 864
         0000006d 0000 
     121 0000006e 0000          .xfloat $strtod("0x0p+0")               ; _gMotorVars._Flux_VpHz @ 896
         0000006f 0000 
     122 00000070 0000          .xfloat $strtod("0x0p+0")               ; _gMotorVars._ipd_excFreq_Hz @ 928
         00000071 0000 
     123 00000072 0000          .bits   0,32                    ; _gMotorVars._ipd_Kspd @ 960
         00000073 0000 
     124 00000074 0000          .bits   0,32                    ; _gMotorVars._ipd_excMag_coarse_pu @ 992
TMS320C2000 Assembler PC v6.2.5 Thu Jun 22 13:27:58 2017

Tools Copyright (c) 1996-2014 Texas Instruments Incorporated
C:\Users\wmj\AppData\Local\Temp\0868410                              PAGE    4

         00000075 0000 
     125 00000076 0000          .bits   0,32                    ; _gMotorVars._ipd_excMag_fine_pu @ 1024
         00000077 0000 
     126 00000078 0000          .xfloat $strtod("0x0p+0")               ; _gMotorVars._ipd_waitTime_coarse_sec @ 1056
         00000079 0000 
     127 0000007a 0000          .xfloat $strtod("0x0p+0")               ; _gMotorVars._ipd_waitTime_fine_sec @ 1088
         0000007b 0000 
     128 0000007c 0000          .bits   0,32                    ; _gMotorVars._Kp_spd @ 1120
         0000007d 0000 
     129 0000007e 0000          .bits   0,32                    ; _gMotorVars._Ki_spd @ 1152
         0000007f 0000 
     130 00000080 0000          .bits   0,32                    ; _gMotorVars._Kp_Idq @ 1184
         00000081 0000 
     131 00000082 0000          .bits   0,32                    ; _gMotorVars._Ki_Idq @ 1216
         00000083 0000 
     132 00000084 0000          .bits   0,32                    ; _gMotorVars._Vd @ 1248
         00000085 0000 
     133 00000086 0000          .bits   0,32                    ; _gMotorVars._Vq @ 1280
         00000087 0000 
     134 00000088 0000          .bits   0,32                    ; _gMotorVars._Vs @ 1312
         00000089 0000 
     135 0000008a 6666          .bits   6710886,32                      ; _gMotorVars._VsRef @ 1344
         0000008b 0066 
     136 0000008c 0000          .bits   0,32                    ; _gMotorVars._VdcBus_kV @ 1376
         0000008d 0000 
     137 0000008e 0000          .bits   0,32                    ; _gMotorVars._Id_A @ 1408
         0000008f 0000 
     138 00000090 0000          .bits   0,32                    ; _gMotorVars._Iq_A @ 1440
         00000091 0000 
     139 00000092 0000          .bits   0,32                    ; _gMotorVars._Is_A @ 1472
         00000093 0000 
     140 00000094 0000          .bits   0,32                    ; _gMotorVars._I_bias._value[0] @ 1504
         00000095 0000 
     141 00000096 0000          .bits   0,32                    ; _gMotorVars._I_bias._value[1] @ 1536
         00000097 0000 
     142 00000098 0000          .bits   0,32                    ; _gMotorVars._I_bias._value[2] @ 1568
         00000099 0000 
     143 0000009a 0000          .bits   0,32                    ; _gMotorVars._V_bias._value[0] @ 1600
         0000009b 0000 
     144 0000009c 0000          .bits   0,32                    ; _gMotorVars._V_bias._value[1] @ 1632
         0000009d 0000 
     145 0000009e 0000          .bits   0,32                    ; _gMotorVars._V_bias._value[2] @ 1664
         0000009f 0000 
     146 000000a0 999A          .bits   10066330,32                     ; _gMotorVars._SpeedSet_krpm @ 1696
         000000a1 0099 
     147 000000a2 0000          .bits   0,32                    ; _gMotorVars._angle_sen_pu @ 1728
         000000a3 0000 
     148 000000a4 0000          .bits   0,32                    ; _gMotorVars._angle_est_pu @ 1760
         000000a5 0000 
     149 000000a6 0000          .bits   0,32                    ; _gMotorVars._speed_sen_pu @ 1792
         000000a7 0000 
     150 000000a8 0000          .bits   0,32                    ; _gMotorVars._speed_est_pu @ 1824
         000000a9 0000 
     151 000000aa 0000          .bits   0,32                    ; _gMotorVars._speedHigh_hall2fast_pu @ 1856
         000000ab 0000 
TMS320C2000 Assembler PC v6.2.5 Thu Jun 22 13:27:58 2017

Tools Copyright (c) 1996-2014 Texas Instruments Incorporated
C:\Users\wmj\AppData\Local\Temp\0868410                              PAGE    5

     152 000000ac 0000          .bits   0,32                    ; _gMotorVars._speedLow_hall2fast_pu @ 1888
         000000ad 0000 
     153 000000ae 0000          .bits   0,32                    ; _gMotorVars._IdSet_A @ 1920
         000000af 0000 
     154 000000b0 0000          .bits   0,32                    ; _gMotorVars._IqSet_A @ 1952
         000000b1 0000 
     155 000000b2 0000          .bits   0,32                    ; _gMotorVars._IdRef_pu @ 1984
         000000b3 0000 
     156 000000b4 0000          .bits   0,32                    ; _gMotorVars._IqRef_pu @ 2016
         000000b5 0000 
     157        0080  $C$IR_2:        .set    128
     158              
     159              
     160              $C$DW$1 .dwtag  DW_TAG_subprogram, DW_AT_name("USER_setParams")
     161                      .dwattr $C$DW$1, DW_AT_TI_symbol_name("_USER_setParams")
     162                      .dwattr $C$DW$1, DW_AT_declaration
     163                      .dwattr $C$DW$1, DW_AT_external
     164              $C$DW$2 .dwtag  DW_TAG_formal_parameter
     165                      .dwattr $C$DW$2, DW_AT_type(*$C$DW$T$171)
     166                      .dwendtag $C$DW$1
     167              
     168              
     169              $C$DW$3 .dwtag  DW_TAG_subprogram, DW_AT_name("GPIO_toggle")
     170                      .dwattr $C$DW$3, DW_AT_TI_symbol_name("_GPIO_toggle")
     171                      .dwattr $C$DW$3, DW_AT_declaration
     172                      .dwattr $C$DW$3, DW_AT_external
     173              $C$DW$4 .dwtag  DW_TAG_formal_parameter
     174                      .dwattr $C$DW$4, DW_AT_type(*$C$DW$T$94)
     175              $C$DW$5 .dwtag  DW_TAG_formal_parameter
     176                      .dwattr $C$DW$5, DW_AT_type(*$C$DW$T$183)
     177                      .dwendtag $C$DW$3
     178              
     179              
     180              $C$DW$6 .dwtag  DW_TAG_subprogram, DW_AT_name("HAL_setParams")
     181                      .dwattr $C$DW$6, DW_AT_TI_symbol_name("_HAL_setParams")
     182                      .dwattr $C$DW$6, DW_AT_declaration
     183                      .dwattr $C$DW$6, DW_AT_external
     184              $C$DW$7 .dwtag  DW_TAG_formal_parameter
     185                      .dwattr $C$DW$7, DW_AT_type(*$C$DW$T$226)
     186              $C$DW$8 .dwtag  DW_TAG_formal_parameter
     187                      .dwattr $C$DW$8, DW_AT_type(*$C$DW$T$250)
     188                      .dwendtag $C$DW$6
     189              
     190              
     191              $C$DW$9 .dwtag  DW_TAG_subprogram, DW_AT_name("CPU_USAGE_setParams")
     192                      .dwattr $C$DW$9, DW_AT_TI_symbol_name("_CPU_USAGE_setParams")
     193                      .dwattr $C$DW$9, DW_AT_declaration
     194                      .dwattr $C$DW$9, DW_AT_external
     195              $C$DW$10        .dwtag  DW_TAG_formal_parameter
     196                      .dwattr $C$DW$10, DW_AT_type(*$C$DW$T$196)
     197              $C$DW$11        .dwtag  DW_TAG_formal_parameter
     198                      .dwattr $C$DW$11, DW_AT_type(*$C$DW$T$262)
     199              $C$DW$12        .dwtag  DW_TAG_formal_parameter
     200                      .dwattr $C$DW$12, DW_AT_type(*$C$DW$T$262)
     201                      .dwendtag $C$DW$9
TMS320C2000 Assembler PC v6.2.5 Thu Jun 22 13:27:58 2017

Tools Copyright (c) 1996-2014 Texas Instruments Incorporated
C:\Users\wmj\AppData\Local\Temp\0868410                              PAGE    6

     202              
     203              
     204              $C$DW$13        .dwtag  DW_TAG_subprogram, DW_AT_name("CTRL_setSpd_ref_krpm")
     205                      .dwattr $C$DW$13, DW_AT_TI_symbol_name("_CTRL_setSpd_ref_krpm")
     206                      .dwattr $C$DW$13, DW_AT_declaration
     207                      .dwattr $C$DW$13, DW_AT_external
     208              $C$DW$14        .dwtag  DW_TAG_formal_parameter
     209                      .dwattr $C$DW$14, DW_AT_type(*$C$DW$T$165)
     210              $C$DW$15        .dwtag  DW_TAG_formal_parameter
     211                      .dwattr $C$DW$15, DW_AT_type(*$C$DW$T$259)
     212                      .dwendtag $C$DW$13
     213              
     214              
     215              $C$DW$16        .dwtag  DW_TAG_subprogram, DW_AT_name("CTRL_setup")
     216                      .dwattr $C$DW$16, DW_AT_TI_symbol_name("_CTRL_setup")
     217                      .dwattr $C$DW$16, DW_AT_declaration
     218                      .dwattr $C$DW$16, DW_AT_external
     219              $C$DW$17        .dwtag  DW_TAG_formal_parameter
     220                      .dwattr $C$DW$17, DW_AT_type(*$C$DW$T$165)
     221                      .dwendtag $C$DW$16
     222              
     223              
     224              $C$DW$18        .dwtag  DW_TAG_subprogram, DW_AT_name("CTRL_setParams")
     225                      .dwattr $C$DW$18, DW_AT_TI_symbol_name("_CTRL_setParams")
     226                      .dwattr $C$DW$18, DW_AT_declaration
     227                      .dwattr $C$DW$18, DW_AT_external
     228              $C$DW$19        .dwtag  DW_TAG_formal_parameter
     229                      .dwattr $C$DW$19, DW_AT_type(*$C$DW$T$165)
     230              $C$DW$20        .dwtag  DW_TAG_formal_parameter
     231                      .dwattr $C$DW$20, DW_AT_type(*$C$DW$T$171)
     232                      .dwendtag $C$DW$18
     233              
     234              
     235              $C$DW$21        .dwtag  DW_TAG_subprogram, DW_AT_name("HAL_enableGlobalInts")
     236                      .dwattr $C$DW$21, DW_AT_TI_symbol_name("_HAL_enableGlobalInts")
     237                      .dwattr $C$DW$21, DW_AT_declaration
     238                      .dwattr $C$DW$21, DW_AT_external
     239              $C$DW$22        .dwtag  DW_TAG_formal_parameter
     240                      .dwattr $C$DW$22, DW_AT_type(*$C$DW$T$226)
     241                      .dwendtag $C$DW$21
     242              
     243              
     244              $C$DW$23        .dwtag  DW_TAG_subprogram, DW_AT_name("HAL_enableDebugInt")
     245                      .dwattr $C$DW$23, DW_AT_TI_symbol_name("_HAL_enableDebugInt")
     246                      .dwattr $C$DW$23, DW_AT_declaration
     247                      .dwattr $C$DW$23, DW_AT_external
     248              $C$DW$24        .dwtag  DW_TAG_formal_parameter
     249                      .dwattr $C$DW$24, DW_AT_type(*$C$DW$T$226)
     250                      .dwendtag $C$DW$23
     251              
     252              
     253              $C$DW$25        .dwtag  DW_TAG_subprogram, DW_AT_name("HAL_enableAdcInts")
     254                      .dwattr $C$DW$25, DW_AT_TI_symbol_name("_HAL_enableAdcInts")
     255                      .dwattr $C$DW$25, DW_AT_declaration
     256                      .dwattr $C$DW$25, DW_AT_external
TMS320C2000 Assembler PC v6.2.5 Thu Jun 22 13:27:58 2017

Tools Copyright (c) 1996-2014 Texas Instruments Incorporated
C:\Users\wmj\AppData\Local\Temp\0868410                              PAGE    7

     257              $C$DW$26        .dwtag  DW_TAG_formal_parameter
     258                      .dwattr $C$DW$26, DW_AT_type(*$C$DW$T$226)
     259                      .dwendtag $C$DW$25
     260              
     261              
     262              $C$DW$27        .dwtag  DW_TAG_subprogram, DW_AT_name("USER_calcPIgains")
     263                      .dwattr $C$DW$27, DW_AT_TI_symbol_name("_USER_calcPIgains")
     264                      .dwattr $C$DW$27, DW_AT_declaration
     265                      .dwattr $C$DW$27, DW_AT_external
     266              $C$DW$28        .dwtag  DW_TAG_formal_parameter
     267                      .dwattr $C$DW$28, DW_AT_type(*$C$DW$T$165)
     268                      .dwendtag $C$DW$27
     269              
     270              
     271              $C$DW$29        .dwtag  DW_TAG_subprogram, DW_AT_name("USER_checkForErrors")
     272                      .dwattr $C$DW$29, DW_AT_TI_symbol_name("_USER_checkForErrors")
     273                      .dwattr $C$DW$29, DW_AT_declaration
     274                      .dwattr $C$DW$29, DW_AT_external
     275              $C$DW$30        .dwtag  DW_TAG_formal_parameter
     276                      .dwattr $C$DW$30, DW_AT_type(*$C$DW$T$171)
     277                      .dwendtag $C$DW$29
     278              
     279              
     280              $C$DW$31        .dwtag  DW_TAG_subprogram, DW_AT_name("USER_softwareUpdate1p6")
     281                      .dwattr $C$DW$31, DW_AT_TI_symbol_name("_USER_softwareUpdate1p6")
     282                      .dwattr $C$DW$31, DW_AT_declaration
     283                      .dwattr $C$DW$31, DW_AT_external
     284              $C$DW$32        .dwtag  DW_TAG_formal_parameter
     285                      .dwattr $C$DW$32, DW_AT_type(*$C$DW$T$165)
     286                      .dwendtag $C$DW$31
     287              
     288              
     289              $C$DW$33        .dwtag  DW_TAG_subprogram, DW_AT_name("CTRL_getVersion")
     290                      .dwattr $C$DW$33, DW_AT_TI_symbol_name("_CTRL_getVersion")
     291                      .dwattr $C$DW$33, DW_AT_declaration
     292                      .dwattr $C$DW$33, DW_AT_external
     293              $C$DW$34        .dwtag  DW_TAG_formal_parameter
     294                      .dwattr $C$DW$34, DW_AT_type(*$C$DW$T$165)
     295              $C$DW$35        .dwtag  DW_TAG_formal_parameter
     296                      .dwattr $C$DW$35, DW_AT_type(*$C$DW$T$210)
     297                      .dwendtag $C$DW$33
     298              
     299              
     300              $C$DW$36        .dwtag  DW_TAG_subprogram, DW_AT_name("CTRL_run")
     301                      .dwattr $C$DW$36, DW_AT_TI_symbol_name("_CTRL_run")
     302                      .dwattr $C$DW$36, DW_AT_declaration
     303                      .dwattr $C$DW$36, DW_AT_external
     304              $C$DW$37        .dwtag  DW_TAG_formal_parameter
     305                      .dwattr $C$DW$37, DW_AT_type(*$C$DW$T$165)
     306              $C$DW$38        .dwtag  DW_TAG_formal_parameter
     307                      .dwattr $C$DW$38, DW_AT_type(*$C$DW$T$226)
     308              $C$DW$39        .dwtag  DW_TAG_formal_parameter
     309                      .dwattr $C$DW$39, DW_AT_type(*$C$DW$T$220)
     310              $C$DW$40        .dwtag  DW_TAG_formal_parameter
     311                      .dwattr $C$DW$40, DW_AT_type(*$C$DW$T$231)
TMS320C2000 Assembler PC v6.2.5 Thu Jun 22 13:27:58 2017

Tools Copyright (c) 1996-2014 Texas Instruments Incorporated
C:\Users\wmj\AppData\Local\Temp\0868410                              PAGE    8

     312                      .dwendtag $C$DW$36
     313              
     314              
     315              $C$DW$41        .dwtag  DW_TAG_subprogram, DW_AT_name("EST_setFlag_enableRsRecalc")
     316                      .dwattr $C$DW$41, DW_AT_TI_symbol_name("_EST_setFlag_enableRsRecalc")
     317                      .dwattr $C$DW$41, DW_AT_declaration
     318                      .dwattr $C$DW$41, DW_AT_external
     319              $C$DW$42        .dwtag  DW_TAG_formal_parameter
     320                      .dwattr $C$DW$42, DW_AT_type(*$C$DW$T$50)
     321              $C$DW$43        .dwtag  DW_TAG_formal_parameter
     322                      .dwattr $C$DW$43, DW_AT_type(*$C$DW$T$256)
     323                      .dwendtag $C$DW$41
     324              
     325              
     326              $C$DW$44        .dwtag  DW_TAG_subprogram, DW_AT_name("FEM_setParams")
     327                      .dwattr $C$DW$44, DW_AT_TI_symbol_name("_FEM_setParams")
     328                      .dwattr $C$DW$44, DW_AT_declaration
     329                      .dwattr $C$DW$44, DW_AT_external
     330              $C$DW$45        .dwtag  DW_TAG_formal_parameter
     331                      .dwattr $C$DW$45, DW_AT_type(*$C$DW$T$215)
     332              $C$DW$46        .dwtag  DW_TAG_formal_parameter
     333                      .dwattr $C$DW$46, DW_AT_type(*$C$DW$T$265)
     334              $C$DW$47        .dwtag  DW_TAG_formal_parameter
     335                      .dwattr $C$DW$47, DW_AT_type(*$C$DW$T$262)
     336              $C$DW$48        .dwtag  DW_TAG_formal_parameter
     337                      .dwattr $C$DW$48, DW_AT_type(*$C$DW$T$265)
     338              $C$DW$49        .dwtag  DW_TAG_formal_parameter
     339                      .dwattr $C$DW$49, DW_AT_type(*$C$DW$T$265)
     340                      .dwendtag $C$DW$44
     341              
     342              
     343              $C$DW$50        .dwtag  DW_TAG_subprogram, DW_AT_name("EST_setMaxCurrentSlope_pu")
     344                      .dwattr $C$DW$50, DW_AT_TI_symbol_name("_EST_setMaxCurrentSlope_pu")
     345                      .dwattr $C$DW$50, DW_AT_declaration
     346                      .dwattr $C$DW$50, DW_AT_external
     347              $C$DW$51        .dwtag  DW_TAG_formal_parameter
     348                      .dwattr $C$DW$51, DW_AT_type(*$C$DW$T$50)
     349              $C$DW$52        .dwtag  DW_TAG_formal_parameter
     350                      .dwattr $C$DW$52, DW_AT_type(*$C$DW$T$259)
     351                      .dwendtag $C$DW$50
     352              
     353              
     354              $C$DW$53        .dwtag  DW_TAG_subprogram, DW_AT_name("memCopy")
     355                      .dwattr $C$DW$53, DW_AT_TI_symbol_name("_memCopy")
     356                      .dwattr $C$DW$53, DW_AT_declaration
     357                      .dwattr $C$DW$53, DW_AT_external
     358              $C$DW$54        .dwtag  DW_TAG_formal_parameter
     359                      .dwattr $C$DW$54, DW_AT_type(*$C$DW$T$253)
     360              $C$DW$55        .dwtag  DW_TAG_formal_parameter
     361                      .dwattr $C$DW$55, DW_AT_type(*$C$DW$T$253)
     362              $C$DW$56        .dwtag  DW_TAG_formal_parameter
     363                      .dwattr $C$DW$56, DW_AT_type(*$C$DW$T$253)
     364                      .dwendtag $C$DW$53
     365              
     366              
TMS320C2000 Assembler PC v6.2.5 Thu Jun 22 13:27:58 2017

Tools Copyright (c) 1996-2014 Texas Instruments Incorporated
C:\Users\wmj\AppData\Local\Temp\0868410                              PAGE    9

     367              $C$DW$57        .dwtag  DW_TAG_subprogram, DW_AT_name("HAL_I2c_Pca9555_WrData")
     368                      .dwattr $C$DW$57, DW_AT_TI_symbol_name("_HAL_I2c_Pca9555_WrData")
     369                      .dwattr $C$DW$57, DW_AT_declaration
     370                      .dwattr $C$DW$57, DW_AT_external
     371              $C$DW$58        .dwtag  DW_TAG_formal_parameter
     372                      .dwattr $C$DW$58, DW_AT_type(*$C$DW$T$226)
     373              $C$DW$59        .dwtag  DW_TAG_formal_parameter
     374                      .dwattr $C$DW$59, DW_AT_type(*$C$DW$T$23)
     375              $C$DW$60        .dwtag  DW_TAG_formal_parameter
     376                      .dwattr $C$DW$60, DW_AT_type(*$C$DW$T$23)
     377                      .dwendtag $C$DW$57
     378              
     379              
     380              $C$DW$61        .dwtag  DW_TAG_subprogram, DW_AT_name("HAL_setupFaults")
     381                      .dwattr $C$DW$61, DW_AT_TI_symbol_name("_HAL_setupFaults")
     382                      .dwattr $C$DW$61, DW_AT_declaration
     383                      .dwattr $C$DW$61, DW_AT_external
     384              $C$DW$62        .dwtag  DW_TAG_formal_parameter
     385                      .dwattr $C$DW$62, DW_AT_type(*$C$DW$T$226)
     386                      .dwendtag $C$DW$61
     387              
     388              
     389              $C$DW$63        .dwtag  DW_TAG_subprogram, DW_AT_name("EST_setFlag_enableForceAngle")
     390                      .dwattr $C$DW$63, DW_AT_TI_symbol_name("_EST_setFlag_enableForceAngle")
     391                      .dwattr $C$DW$63, DW_AT_declaration
     392                      .dwattr $C$DW$63, DW_AT_external
     393              $C$DW$64        .dwtag  DW_TAG_formal_parameter
     394                      .dwattr $C$DW$64, DW_AT_type(*$C$DW$T$50)
     395              $C$DW$65        .dwtag  DW_TAG_formal_parameter
     396                      .dwattr $C$DW$65, DW_AT_type(*$C$DW$T$256)
     397                      .dwendtag $C$DW$63
     398              
     399              
     400              $C$DW$66        .dwtag  DW_TAG_subprogram, DW_AT_name("CTRL_updateState")
     401                      .dwattr $C$DW$66, DW_AT_TI_symbol_name("_CTRL_updateState")
     402                      .dwattr $C$DW$66, DW_AT_type(*$C$DW$T$39)
     403                      .dwattr $C$DW$66, DW_AT_declaration
     404                      .dwattr $C$DW$66, DW_AT_external
     405              $C$DW$67        .dwtag  DW_TAG_formal_parameter
     406                      .dwattr $C$DW$67, DW_AT_type(*$C$DW$T$165)
     407                      .dwendtag $C$DW$66
     408              
     409                      .global _gLEDcnt
     410 00000000       _gLEDcnt:       .usect  ".ebss",1,1,0
     411              $C$DW$68        .dwtag  DW_TAG_variable, DW_AT_name("gLEDcnt")
     412                      .dwattr $C$DW$68, DW_AT_TI_symbol_name("_gLEDcnt")
     413                      .dwattr $C$DW$68, DW_AT_location[DW_OP_addr _gLEDcnt]
     414                      .dwattr $C$DW$68, DW_AT_type(*$C$DW$T$23)
     415                      .dwattr $C$DW$68, DW_AT_external
     416              
     417              $C$DW$69        .dwtag  DW_TAG_subprogram, DW_AT_name("EST_isMotorIdentified")
     418                      .dwattr $C$DW$69, DW_AT_TI_symbol_name("_EST_isMotorIdentified")
     419                      .dwattr $C$DW$69, DW_AT_type(*$C$DW$T$39)
     420                      .dwattr $C$DW$69, DW_AT_declaration
     421                      .dwattr $C$DW$69, DW_AT_external
TMS320C2000 Assembler PC v6.2.5 Thu Jun 22 13:27:58 2017

Tools Copyright (c) 1996-2014 Texas Instruments Incorporated
C:\Users\wmj\AppData\Local\Temp\0868410                              PAGE   10

     422              $C$DW$70        .dwtag  DW_TAG_formal_parameter
     423                      .dwattr $C$DW$70, DW_AT_type(*$C$DW$T$50)
     424                      .dwendtag $C$DW$69
     425              
     426              
     427              $C$DW$71        .dwtag  DW_TAG_subprogram, DW_AT_name("EST_getState")
     428                      .dwattr $C$DW$71, DW_AT_TI_symbol_name("_EST_getState")
     429                      .dwattr $C$DW$71, DW_AT_type(*$C$DW$T$130)
     430                      .dwattr $C$DW$71, DW_AT_declaration
     431                      .dwattr $C$DW$71, DW_AT_external
     432              $C$DW$72        .dwtag  DW_TAG_formal_parameter
     433                      .dwattr $C$DW$72, DW_AT_type(*$C$DW$T$50)
     434                      .dwendtag $C$DW$71
     435              
     436                      .global _Flag_Latch_softwareUpdate
     437 00000001       _Flag_Latch_softwareUpdate:     .usect  ".ebss",1,1,0
     438              $C$DW$73        .dwtag  DW_TAG_variable, DW_AT_name("Flag_Latch_softwareUpdate")
     439                      .dwattr $C$DW$73, DW_AT_TI_symbol_name("_Flag_Latch_softwareUpdate")
     440                      .dwattr $C$DW$73, DW_AT_location[DW_OP_addr _Flag_Latch_softwareUpdate]
     441                      .dwattr $C$DW$73, DW_AT_type(*$C$DW$T$39)
     442                      .dwattr $C$DW$73, DW_AT_external
     443                      .global _gCounter_updateGlobals
     444 00000002       _gCounter_updateGlobals:        .usect  ".ebss",1,1,0
     445              $C$DW$74        .dwtag  DW_TAG_variable, DW_AT_name("gCounter_updateGlobals")
     446                      .dwattr $C$DW$74, DW_AT_TI_symbol_name("_gCounter_updateGlobals")
     447                      .dwattr $C$DW$74, DW_AT_location[DW_OP_addr _gCounter_updateGlobals]
     448                      .dwattr $C$DW$74, DW_AT_type(*$C$DW$T$69)
     449                      .dwattr $C$DW$74, DW_AT_external
     450              
     451              $C$DW$75        .dwtag  DW_TAG_subprogram, DW_AT_name("USER_getErrorCode")
     452                      .dwattr $C$DW$75, DW_AT_TI_symbol_name("_USER_getErrorCode")
     453                      .dwattr $C$DW$75, DW_AT_type(*$C$DW$T$132)
     454                      .dwattr $C$DW$75, DW_AT_declaration
     455                      .dwattr $C$DW$75, DW_AT_external
     456              $C$DW$76        .dwtag  DW_TAG_formal_parameter
     457                      .dwattr $C$DW$76, DW_AT_type(*$C$DW$T$171)
     458                      .dwendtag $C$DW$75
     459              
     460                      .global _gFlux_pu_to_VpHz_sf
     461 00000004       _gFlux_pu_to_VpHz_sf:   .usect  ".ebss",2,1,1
     462              $C$DW$77        .dwtag  DW_TAG_variable, DW_AT_name("gFlux_pu_to_VpHz_sf")
     463                      .dwattr $C$DW$77, DW_AT_TI_symbol_name("_gFlux_pu_to_VpHz_sf")
     464                      .dwattr $C$DW$77, DW_AT_location[DW_OP_addr _gFlux_pu_to_VpHz_sf]
     465                      .dwattr $C$DW$77, DW_AT_type(*$C$DW$T$32)
     466                      .dwattr $C$DW$77, DW_AT_external
     467              $C$DW$78        .dwtag  DW_TAG_variable, DW_AT_name("RamfuncsRunStart")
     468                      .dwattr $C$DW$78, DW_AT_TI_symbol_name("_RamfuncsRunStart")
     469                      .dwattr $C$DW$78, DW_AT_type(*$C$DW$T$253)
     470                      .dwattr $C$DW$78, DW_AT_declaration
     471                      .dwattr $C$DW$78, DW_AT_external
     472                      .global _gFlux_pu_to_Wb_sf
     473 00000006       _gFlux_pu_to_Wb_sf:     .usect  ".ebss",2,1,1
     474              $C$DW$79        .dwtag  DW_TAG_variable, DW_AT_name("gFlux_pu_to_Wb_sf")
     475                      .dwattr $C$DW$79, DW_AT_TI_symbol_name("_gFlux_pu_to_Wb_sf")
     476                      .dwattr $C$DW$79, DW_AT_location[DW_OP_addr _gFlux_pu_to_Wb_sf]
TMS320C2000 Assembler PC v6.2.5 Thu Jun 22 13:27:58 2017

Tools Copyright (c) 1996-2014 Texas Instruments Incorporated
C:\Users\wmj\AppData\Local\Temp\0868410                              PAGE   11

     477                      .dwattr $C$DW$79, DW_AT_type(*$C$DW$T$32)
     478                      .dwattr $C$DW$79, DW_AT_external
     479                      .global _gCpuUsagePercentageMax
     480 00000008       _gCpuUsagePercentageMax:        .usect  ".ebss",2,1,1
     481              $C$DW$80        .dwtag  DW_TAG_variable, DW_AT_name("gCpuUsagePercentageMax")
     482                      .dwattr $C$DW$80, DW_AT_TI_symbol_name("_gCpuUsagePercentageMax")
     483                      .dwattr $C$DW$80, DW_AT_location[DW_OP_addr _gCpuUsagePercentageMax]
     484                      .dwattr $C$DW$80, DW_AT_type(*$C$DW$T$70)
     485                      .dwattr $C$DW$80, DW_AT_external
     486                      .global _gMaxCurrentSlope
     487 0000000a       _gMaxCurrentSlope:      .usect  ".ebss",2,1,1
     488              $C$DW$81        .dwtag  DW_TAG_variable, DW_AT_name("gMaxCurrentSlope")
     489                      .dwattr $C$DW$81, DW_AT_TI_symbol_name("_gMaxCurrentSlope")
     490                      .dwattr $C$DW$81, DW_AT_location[DW_OP_addr _gMaxCurrentSlope]
     491                      .dwattr $C$DW$81, DW_AT_type(*$C$DW$T$32)
     492                      .dwattr $C$DW$81, DW_AT_external
     493                      .global _gTorque_Ls_Id_Iq_pu_to_Nm_sf
     494 0000000c       _gTorque_Ls_Id_Iq_pu_to_Nm_sf:  .usect  ".ebss",2,1,1
     495              $C$DW$82        .dwtag  DW_TAG_variable, DW_AT_name("gTorque_Ls_Id_Iq_pu_to_Nm_sf")
     496                      .dwattr $C$DW$82, DW_AT_TI_symbol_name("_gTorque_Ls_Id_Iq_pu_to_Nm_sf")
     497                      .dwattr $C$DW$82, DW_AT_location[DW_OP_addr _gTorque_Ls_Id_Iq_pu_to_Nm_sf]
     498                      .dwattr $C$DW$82, DW_AT_type(*$C$DW$T$32)
     499                      .dwattr $C$DW$82, DW_AT_external
     500                      .global _gTorque_Flux_Iq_pu_to_Nm_sf
     501 0000000e       _gTorque_Flux_Iq_pu_to_Nm_sf:   .usect  ".ebss",2,1,1
     502              $C$DW$83        .dwtag  DW_TAG_variable, DW_AT_name("gTorque_Flux_Iq_pu_to_Nm_sf")
     503                      .dwattr $C$DW$83, DW_AT_TI_symbol_name("_gTorque_Flux_Iq_pu_to_Nm_sf")
     504                      .dwattr $C$DW$83, DW_AT_location[DW_OP_addr _gTorque_Flux_Iq_pu_to_Nm_sf]
     505                      .dwattr $C$DW$83, DW_AT_type(*$C$DW$T$32)
     506                      .dwattr $C$DW$83, DW_AT_external
     507              $C$DW$84        .dwtag  DW_TAG_variable, DW_AT_name("RamfuncsLoadStart")
     508                      .dwattr $C$DW$84, DW_AT_TI_symbol_name("_RamfuncsLoadStart")
     509                      .dwattr $C$DW$84, DW_AT_type(*$C$DW$T$253)
     510                      .dwattr $C$DW$84, DW_AT_declaration
     511                      .dwattr $C$DW$84, DW_AT_external
     512                      .global _gNumFreqErrors
     513 00000010       _gNumFreqErrors:        .usect  ".ebss",2,1,1
     514              $C$DW$85        .dwtag  DW_TAG_variable, DW_AT_name("gNumFreqErrors")
     515                      .dwattr $C$DW$85, DW_AT_TI_symbol_name("_gNumFreqErrors")
     516                      .dwattr $C$DW$85, DW_AT_location[DW_OP_addr _gNumFreqErrors]
     517                      .dwattr $C$DW$85, DW_AT_type(*$C$DW$T$38)
     518                      .dwattr $C$DW$85, DW_AT_external
     519                      .global _femHandle
     520 00000012       _femHandle:     .usect  ".ebss",2,1,1
     521              $C$DW$86        .dwtag  DW_TAG_variable, DW_AT_name("femHandle")
     522                      .dwattr $C$DW$86, DW_AT_TI_symbol_name("_femHandle")
     523                      .dwattr $C$DW$86, DW_AT_location[DW_OP_addr _femHandle]
     524                      .dwattr $C$DW$86, DW_AT_type(*$C$DW$T$215)
     525                      .dwattr $C$DW$86, DW_AT_external
     526                      .global _gMaxDeltaCntObserved
     527 00000014       _gMaxDeltaCntObserved:  .usect  ".ebss",2,1,1
     528              $C$DW$87        .dwtag  DW_TAG_variable, DW_AT_name("gMaxDeltaCntObserved")
     529                      .dwattr $C$DW$87, DW_AT_TI_symbol_name("_gMaxDeltaCntObserved")
     530                      .dwattr $C$DW$87, DW_AT_location[DW_OP_addr _gMaxDeltaCntObserved]
     531                      .dwattr $C$DW$87, DW_AT_type(*$C$DW$T$38)
TMS320C2000 Assembler PC v6.2.5 Thu Jun 22 13:27:58 2017

Tools Copyright (c) 1996-2014 Texas Instruments Incorporated
C:\Users\wmj\AppData\Local\Temp\0868410                              PAGE   12

     532                      .dwattr $C$DW$87, DW_AT_external
     533                      .global _ctrlHandle
     534 00000016       _ctrlHandle:    .usect  ".ebss",2,1,1
     535              $C$DW$88        .dwtag  DW_TAG_variable, DW_AT_name("ctrlHandle")
     536                      .dwattr $C$DW$88, DW_AT_TI_symbol_name("_ctrlHandle")
     537                      .dwattr $C$DW$88, DW_AT_location[DW_OP_addr _ctrlHandle]
     538                      .dwattr $C$DW$88, DW_AT_type(*$C$DW$T$165)
     539                      .dwattr $C$DW$88, DW_AT_external
     540                      .global _gCpuUsagePercentageMin
     541 00000018       _gCpuUsagePercentageMin:        .usect  ".ebss",2,1,1
     542              $C$DW$89        .dwtag  DW_TAG_variable, DW_AT_name("gCpuUsagePercentageMin")
     543                      .dwattr $C$DW$89, DW_AT_TI_symbol_name("_gCpuUsagePercentageMin")
     544                      .dwattr $C$DW$89, DW_AT_location[DW_OP_addr _gCpuUsagePercentageMin]
     545                      .dwattr $C$DW$89, DW_AT_type(*$C$DW$T$70)
     546                      .dwattr $C$DW$89, DW_AT_external
     547              $C$DW$90        .dwtag  DW_TAG_variable, DW_AT_name("RamfuncsLoadEnd")
     548                      .dwattr $C$DW$90, DW_AT_TI_symbol_name("_RamfuncsLoadEnd")
     549                      .dwattr $C$DW$90, DW_AT_type(*$C$DW$T$253)
     550                      .dwattr $C$DW$90, DW_AT_declaration
     551                      .dwattr $C$DW$90, DW_AT_external
     552                      .global _cpu_usageHandle
     553 0000001a       _cpu_usageHandle:       .usect  ".ebss",2,1,1
     554              $C$DW$91        .dwtag  DW_TAG_variable, DW_AT_name("cpu_usageHandle")
     555                      .dwattr $C$DW$91, DW_AT_TI_symbol_name("_cpu_usageHandle")
     556                      .dwattr $C$DW$91, DW_AT_location[DW_OP_addr _cpu_usageHandle]
     557                      .dwattr $C$DW$91, DW_AT_type(*$C$DW$T$196)
     558                      .dwattr $C$DW$91, DW_AT_external
     559                      .global _halHandle
     560 0000001c       _halHandle:     .usect  ".ebss",2,1,1
     561              $C$DW$92        .dwtag  DW_TAG_variable, DW_AT_name("halHandle")
     562                      .dwattr $C$DW$92, DW_AT_TI_symbol_name("_halHandle")
     563                      .dwattr $C$DW$92, DW_AT_location[DW_OP_addr _halHandle]
     564                      .dwattr $C$DW$92, DW_AT_type(*$C$DW$T$226)
     565                      .dwattr $C$DW$92, DW_AT_external
     566                      .global _gCpuUsagePercentageAvg
     567 0000001e       _gCpuUsagePercentageAvg:        .usect  ".ebss",2,1,1
     568              $C$DW$93        .dwtag  DW_TAG_variable, DW_AT_name("gCpuUsagePercentageAvg")
     569                      .dwattr $C$DW$93, DW_AT_TI_symbol_name("_gCpuUsagePercentageAvg")
     570                      .dwattr $C$DW$93, DW_AT_location[DW_OP_addr _gCpuUsagePercentageAvg]
     571                      .dwattr $C$DW$93, DW_AT_type(*$C$DW$T$70)
     572                      .dwattr $C$DW$93, DW_AT_external
     573              
     574              $C$DW$94        .dwtag  DW_TAG_subprogram, DW_AT_name("HAL_init")
     575                      .dwattr $C$DW$94, DW_AT_TI_symbol_name("_HAL_init")
     576                      .dwattr $C$DW$94, DW_AT_type(*$C$DW$T$226)
     577                      .dwattr $C$DW$94, DW_AT_declaration
     578                      .dwattr $C$DW$94, DW_AT_external
     579              $C$DW$95        .dwtag  DW_TAG_formal_parameter
     580                      .dwattr $C$DW$95, DW_AT_type(*$C$DW$T$3)
     581              $C$DW$96        .dwtag  DW_TAG_formal_parameter
     582                      .dwattr $C$DW$96, DW_AT_type(*$C$DW$T$198)
     583                      .dwendtag $C$DW$94
     584              
     585              
     586              $C$DW$97        .dwtag  DW_TAG_subprogram, DW_AT_name("FEM_init")
TMS320C2000 Assembler PC v6.2.5 Thu Jun 22 13:27:58 2017

Tools Copyright (c) 1996-2014 Texas Instruments Incorporated
C:\Users\wmj\AppData\Local\Temp\0868410                              PAGE   13

     587                      .dwattr $C$DW$97, DW_AT_TI_symbol_name("_FEM_init")
     588                      .dwattr $C$DW$97, DW_AT_type(*$C$DW$T$215)
     589                      .dwattr $C$DW$97, DW_AT_declaration
     590                      .dwattr $C$DW$97, DW_AT_external
     591              $C$DW$98        .dwtag  DW_TAG_formal_parameter
     592                      .dwattr $C$DW$98, DW_AT_type(*$C$DW$T$3)
     593              $C$DW$99        .dwtag  DW_TAG_formal_parameter
     594                      .dwattr $C$DW$99, DW_AT_type(*$C$DW$T$198)
     595                      .dwendtag $C$DW$97
     596              
     597              
     598              $C$DW$100       .dwtag  DW_TAG_subprogram, DW_AT_name("EST_getIdRated")
     599                      .dwattr $C$DW$100, DW_AT_TI_symbol_name("_EST_getIdRated")
     600                      .dwattr $C$DW$100, DW_AT_type(*$C$DW$T$70)
     601                      .dwattr $C$DW$100, DW_AT_declaration
     602                      .dwattr $C$DW$100, DW_AT_external
     603              $C$DW$101       .dwtag  DW_TAG_formal_parameter
     604                      .dwattr $C$DW$101, DW_AT_type(*$C$DW$T$50)
     605                      .dwendtag $C$DW$100
     606              
     607              
     608              $C$DW$102       .dwtag  DW_TAG_subprogram, DW_AT_name("EST_getLs_d_H")
     609                      .dwattr $C$DW$102, DW_AT_TI_symbol_name("_EST_getLs_d_H")
     610                      .dwattr $C$DW$102, DW_AT_type(*$C$DW$T$70)
     611                      .dwattr $C$DW$102, DW_AT_declaration
     612                      .dwattr $C$DW$102, DW_AT_external
     613              $C$DW$103       .dwtag  DW_TAG_formal_parameter
     614                      .dwattr $C$DW$103, DW_AT_type(*$C$DW$T$50)
     615                      .dwendtag $C$DW$102
     616              
     617              
     618              $C$DW$104       .dwtag  DW_TAG_subprogram, DW_AT_name("EST_getFlux_VpHz")
     619                      .dwattr $C$DW$104, DW_AT_TI_symbol_name("_EST_getFlux_VpHz")
     620                      .dwattr $C$DW$104, DW_AT_type(*$C$DW$T$70)
     621                      .dwattr $C$DW$104, DW_AT_declaration
     622                      .dwattr $C$DW$104, DW_AT_external
     623              $C$DW$105       .dwtag  DW_TAG_formal_parameter
     624                      .dwattr $C$DW$105, DW_AT_type(*$C$DW$T$50)
     625                      .dwendtag $C$DW$104
     626              
     627              
     628              $C$DW$106       .dwtag  DW_TAG_subprogram, DW_AT_name("__IQsat")
     629                      .dwattr $C$DW$106, DW_AT_TI_symbol_name("___IQsat")
     630                      .dwattr $C$DW$106, DW_AT_type(*$C$DW$T$12)
     631                      .dwattr $C$DW$106, DW_AT_declaration
     632                      .dwattr $C$DW$106, DW_AT_external
     633              $C$DW$107       .dwtag  DW_TAG_formal_parameter
     634                      .dwattr $C$DW$107, DW_AT_type(*$C$DW$T$12)
     635              $C$DW$108       .dwtag  DW_TAG_formal_parameter
     636                      .dwattr $C$DW$108, DW_AT_type(*$C$DW$T$12)
     637              $C$DW$109       .dwtag  DW_TAG_formal_parameter
     638                      .dwattr $C$DW$109, DW_AT_type(*$C$DW$T$12)
     639                      .dwendtag $C$DW$106
     640              
     641              
TMS320C2000 Assembler PC v6.2.5 Thu Jun 22 13:27:58 2017

Tools Copyright (c) 1996-2014 Texas Instruments Incorporated
C:\Users\wmj\AppData\Local\Temp\0868410                              PAGE   14

     642              $C$DW$110       .dwtag  DW_TAG_subprogram, DW_AT_name("EST_get_pu_to_krpm_sf")
     643                      .dwattr $C$DW$110, DW_AT_TI_symbol_name("_EST_get_pu_to_krpm_sf")
     644                      .dwattr $C$DW$110, DW_AT_type(*$C$DW$T$32)
     645                      .dwattr $C$DW$110, DW_AT_declaration
     646                      .dwattr $C$DW$110, DW_AT_external
     647              $C$DW$111       .dwtag  DW_TAG_formal_parameter
     648                      .dwattr $C$DW$111, DW_AT_type(*$C$DW$T$50)
     649                      .dwendtag $C$DW$110
     650              
     651              
     652              $C$DW$112       .dwtag  DW_TAG_subprogram, DW_AT_name("EST_getRs_Ohm")
     653                      .dwattr $C$DW$112, DW_AT_TI_symbol_name("_EST_getRs_Ohm")
     654                      .dwattr $C$DW$112, DW_AT_type(*$C$DW$T$70)
     655                      .dwattr $C$DW$112, DW_AT_declaration
     656                      .dwattr $C$DW$112, DW_AT_external
     657              $C$DW$113       .dwtag  DW_TAG_formal_parameter
     658                      .dwattr $C$DW$113, DW_AT_type(*$C$DW$T$50)
     659                      .dwendtag $C$DW$112
     660              
     661              
     662              $C$DW$114       .dwtag  DW_TAG_subprogram, DW_AT_name("EST_getSpeed_krpm")
     663                      .dwattr $C$DW$114, DW_AT_TI_symbol_name("_EST_getSpeed_krpm")
     664                      .dwattr $C$DW$114, DW_AT_type(*$C$DW$T$32)
     665                      .dwattr $C$DW$114, DW_AT_declaration
     666                      .dwattr $C$DW$114, DW_AT_external
     667              $C$DW$115       .dwtag  DW_TAG_formal_parameter
     668                      .dwattr $C$DW$115, DW_AT_type(*$C$DW$T$50)
     669                      .dwendtag $C$DW$114
     670              
     671              
     672              $C$DW$116       .dwtag  DW_TAG_subprogram, DW_AT_name("EST_getRr_Ohm")
     673                      .dwattr $C$DW$116, DW_AT_TI_symbol_name("_EST_getRr_Ohm")
     674                      .dwattr $C$DW$116, DW_AT_type(*$C$DW$T$70)
     675                      .dwattr $C$DW$116, DW_AT_declaration
     676                      .dwattr $C$DW$116, DW_AT_external
     677              $C$DW$117       .dwtag  DW_TAG_formal_parameter
     678                      .dwattr $C$DW$117, DW_AT_type(*$C$DW$T$50)
     679                      .dwendtag $C$DW$116
     680              
     681              
     682              $C$DW$118       .dwtag  DW_TAG_subprogram, DW_AT_name("EST_getLs_q_H")
     683                      .dwattr $C$DW$118, DW_AT_TI_symbol_name("_EST_getLs_q_H")
     684                      .dwattr $C$DW$118, DW_AT_type(*$C$DW$T$70)
     685                      .dwattr $C$DW$118, DW_AT_declaration
     686                      .dwattr $C$DW$118, DW_AT_external
     687              $C$DW$119       .dwtag  DW_TAG_formal_parameter
     688                      .dwattr $C$DW$119, DW_AT_type(*$C$DW$T$50)
     689                      .dwendtag $C$DW$118
     690              
     691              
     692              $C$DW$120       .dwtag  DW_TAG_subprogram, DW_AT_name("EST_getMaxCurrentSlope_pu")
     693                      .dwattr $C$DW$120, DW_AT_TI_symbol_name("_EST_getMaxCurrentSlope_pu")
     694                      .dwattr $C$DW$120, DW_AT_type(*$C$DW$T$32)
     695                      .dwattr $C$DW$120, DW_AT_declaration
     696                      .dwattr $C$DW$120, DW_AT_external
TMS320C2000 Assembler PC v6.2.5 Thu Jun 22 13:27:58 2017

Tools Copyright (c) 1996-2014 Texas Instruments Incorporated
C:\Users\wmj\AppData\Local\Temp\0868410                              PAGE   15

     697              $C$DW$121       .dwtag  DW_TAG_formal_parameter
     698                      .dwattr $C$DW$121, DW_AT_type(*$C$DW$T$50)
     699                      .dwendtag $C$DW$120
     700              
     701              
     702              $C$DW$122       .dwtag  DW_TAG_subprogram, DW_AT_name("__IQmpy")
     703                      .dwattr $C$DW$122, DW_AT_TI_symbol_name("___IQmpy")
     704                      .dwattr $C$DW$122, DW_AT_type(*$C$DW$T$12)
     705                      .dwattr $C$DW$122, DW_AT_declaration
     706                      .dwattr $C$DW$122, DW_AT_external
     707              $C$DW$123       .dwtag  DW_TAG_formal_parameter
     708                      .dwattr $C$DW$123, DW_AT_type(*$C$DW$T$12)
     709              $C$DW$124       .dwtag  DW_TAG_formal_parameter
     710                      .dwattr $C$DW$124, DW_AT_type(*$C$DW$T$12)
     711              $C$DW$125       .dwtag  DW_TAG_formal_parameter
     712                      .dwattr $C$DW$125, DW_AT_type(*$C$DW$T$10)
     713                      .dwendtag $C$DW$122
     714              
     715              
     716              $C$DW$126       .dwtag  DW_TAG_subprogram, DW_AT_name("CPU_USAGE_init")
     717                      .dwattr $C$DW$126, DW_AT_TI_symbol_name("_CPU_USAGE_init")
     718                      .dwattr $C$DW$126, DW_AT_type(*$C$DW$T$196)
     719                      .dwattr $C$DW$126, DW_AT_declaration
     720                      .dwattr $C$DW$126, DW_AT_external
     721              $C$DW$127       .dwtag  DW_TAG_formal_parameter
     722                      .dwattr $C$DW$127, DW_AT_type(*$C$DW$T$3)
     723              $C$DW$128       .dwtag  DW_TAG_formal_parameter
     724                      .dwattr $C$DW$128, DW_AT_type(*$C$DW$T$198)
     725                      .dwendtag $C$DW$126
     726              
     727              
     728              $C$DW$129       .dwtag  DW_TAG_subprogram, DW_AT_name("USER_computeFlux_pu_to_Wb_sf")
     729                      .dwattr $C$DW$129, DW_AT_TI_symbol_name("_USER_computeFlux_pu_to_Wb_sf")
     730                      .dwattr $C$DW$129, DW_AT_type(*$C$DW$T$32)
     731                      .dwattr $C$DW$129, DW_AT_declaration
     732                      .dwattr $C$DW$129, DW_AT_external
     733              
     734              $C$DW$130       .dwtag  DW_TAG_subprogram, DW_AT_name("USER_computeFlux_pu_to_VpHz_sf")
     735                      .dwattr $C$DW$130, DW_AT_TI_symbol_name("_USER_computeFlux_pu_to_VpHz_sf")
     736                      .dwattr $C$DW$130, DW_AT_type(*$C$DW$T$32)
     737                      .dwattr $C$DW$130, DW_AT_declaration
     738                      .dwattr $C$DW$130, DW_AT_external
     739              
     740              $C$DW$131       .dwtag  DW_TAG_subprogram, DW_AT_name("USER_computeFlux")
     741                      .dwattr $C$DW$131, DW_AT_TI_symbol_name("_USER_computeFlux")
     742                      .dwattr $C$DW$131, DW_AT_type(*$C$DW$T$32)
     743                      .dwattr $C$DW$131, DW_AT_declaration
     744                      .dwattr $C$DW$131, DW_AT_external
     745              $C$DW$132       .dwtag  DW_TAG_formal_parameter
     746                      .dwattr $C$DW$132, DW_AT_type(*$C$DW$T$165)
     747              $C$DW$133       .dwtag  DW_TAG_formal_parameter
     748                      .dwattr $C$DW$133, DW_AT_type(*$C$DW$T$259)
     749                      .dwendtag $C$DW$131
     750              
     751              
TMS320C2000 Assembler PC v6.2.5 Thu Jun 22 13:27:58 2017

Tools Copyright (c) 1996-2014 Texas Instruments Incorporated
C:\Users\wmj\AppData\Local\Temp\0868410                              PAGE   16

     752              $C$DW$134       .dwtag  DW_TAG_subprogram, DW_AT_name("USER_computeTorque_Nm")
     753                      .dwattr $C$DW$134, DW_AT_TI_symbol_name("_USER_computeTorque_Nm")
     754                      .dwattr $C$DW$134, DW_AT_type(*$C$DW$T$32)
     755                      .dwattr $C$DW$134, DW_AT_declaration
     756                      .dwattr $C$DW$134, DW_AT_external
     757              $C$DW$135       .dwtag  DW_TAG_formal_parameter
     758                      .dwattr $C$DW$135, DW_AT_type(*$C$DW$T$165)
     759              $C$DW$136       .dwtag  DW_TAG_formal_parameter
     760                      .dwattr $C$DW$136, DW_AT_type(*$C$DW$T$259)
     761              $C$DW$137       .dwtag  DW_TAG_formal_parameter
     762                      .dwattr $C$DW$137, DW_AT_type(*$C$DW$T$259)
     763                      .dwendtag $C$DW$134
     764              
     765              
     766              $C$DW$138       .dwtag  DW_TAG_subprogram, DW_AT_name("USER_computeTorque_Flux_Iq_pu_to_Nm_sf")
     767                      .dwattr $C$DW$138, DW_AT_TI_symbol_name("_USER_computeTorque_Flux_Iq_pu_to_Nm_sf")
     768                      .dwattr $C$DW$138, DW_AT_type(*$C$DW$T$32)
     769                      .dwattr $C$DW$138, DW_AT_declaration
     770                      .dwattr $C$DW$138, DW_AT_external
     771              
     772              $C$DW$139       .dwtag  DW_TAG_subprogram, DW_AT_name("USER_computeTorque_Ls_Id_Iq_pu_to_Nm_sf")
     773                      .dwattr $C$DW$139, DW_AT_TI_symbol_name("_USER_computeTorque_Ls_Id_Iq_pu_to_Nm_sf")
     774                      .dwattr $C$DW$139, DW_AT_type(*$C$DW$T$32)
     775                      .dwattr $C$DW$139, DW_AT_declaration
     776                      .dwattr $C$DW$139, DW_AT_external
     777              
     778              $C$DW$140       .dwtag  DW_TAG_subprogram, DW_AT_name("CTRL_initCtrl")
     779                      .dwattr $C$DW$140, DW_AT_TI_symbol_name("_CTRL_initCtrl")
     780                      .dwattr $C$DW$140, DW_AT_type(*$C$DW$T$165)
     781                      .dwattr $C$DW$140, DW_AT_declaration
     782                      .dwattr $C$DW$140, DW_AT_external
     783              $C$DW$141       .dwtag  DW_TAG_formal_parameter
     784                      .dwattr $C$DW$141, DW_AT_type(*$C$DW$T$205)
     785              $C$DW$142       .dwtag  DW_TAG_formal_parameter
     786                      .dwattr $C$DW$142, DW_AT_type(*$C$DW$T$3)
     787              $C$DW$143       .dwtag  DW_TAG_formal_parameter
     788                      .dwattr $C$DW$143, DW_AT_type(*$C$DW$T$198)
     789                      .dwendtag $C$DW$140
     790              
     791                      .global _gPwmData
     792 00000020       _gPwmData:      .usect  ".ebss",6,1,1
     793              $C$DW$144       .dwtag  DW_TAG_variable, DW_AT_name("gPwmData")
     794                      .dwattr $C$DW$144, DW_AT_TI_symbol_name("_gPwmData")
     795                      .dwattr $C$DW$144, DW_AT_location[DW_OP_addr _gPwmData]
     796                      .dwattr $C$DW$144, DW_AT_type(*$C$DW$T$230)
     797                      .dwattr $C$DW$144, DW_AT_external
     798                      .global _gAdcData
     799 00000026       _gAdcData:      .usect  ".ebss",14,1,1
     800              $C$DW$145       .dwtag  DW_TAG_variable, DW_AT_name("gAdcData")
     801                      .dwattr $C$DW$145, DW_AT_TI_symbol_name("_gAdcData")
     802                      .dwattr $C$DW$145, DW_AT_location[DW_OP_addr _gAdcData]
     803                      .dwattr $C$DW$145, DW_AT_type(*$C$DW$T$118)
     804                      .dwattr $C$DW$145, DW_AT_external
     805                      .global _fem
     806 00000040       _fem:   .usect  ".ebss",18,1,1
TMS320C2000 Assembler PC v6.2.5 Thu Jun 22 13:27:58 2017

Tools Copyright (c) 1996-2014 Texas Instruments Incorporated
C:\Users\wmj\AppData\Local\Temp\0868410                              PAGE   17

     807              $C$DW$146       .dwtag  DW_TAG_variable, DW_AT_name("fem")
     808                      .dwattr $C$DW$146, DW_AT_TI_symbol_name("_fem")
     809                      .dwattr $C$DW$146, DW_AT_location[DW_OP_addr _fem]
     810                      .dwattr $C$DW$146, DW_AT_type(*$C$DW$T$213)
     811                      .dwattr $C$DW$146, DW_AT_external
     812                      .global _cpu_usage
     813 00000052       _cpu_usage:     .usect  ".ebss",22,1,1
     814              $C$DW$147       .dwtag  DW_TAG_variable, DW_AT_name("cpu_usage")
     815                      .dwattr $C$DW$147, DW_AT_TI_symbol_name("_cpu_usage")
     816                      .dwattr $C$DW$147, DW_AT_location[DW_OP_addr _cpu_usage]
     817                      .dwattr $C$DW$147, DW_AT_type(*$C$DW$T$194)
     818                      .dwattr $C$DW$147, DW_AT_external
     819                      .global _gMotorVars
     820 00000080       _gMotorVars:    .usect  ".ebss",128,1,1
     821              $C$DW$148       .dwtag  DW_TAG_variable, DW_AT_name("gMotorVars")
     822                      .dwattr $C$DW$148, DW_AT_TI_symbol_name("_gMotorVars")
     823                      .dwattr $C$DW$148, DW_AT_location[DW_OP_addr _gMotorVars]
     824                      .dwattr $C$DW$148, DW_AT_type(*$C$DW$T$234)
     825                      .dwattr $C$DW$148, DW_AT_external
     826              $C$DW$149       .dwtag  DW_TAG_variable, DW_AT_name("hal")
     827                      .dwattr $C$DW$149, DW_AT_TI_symbol_name("_hal")
     828                      .dwattr $C$DW$149, DW_AT_type(*$C$DW$T$223)
     829                      .dwattr $C$DW$149, DW_AT_declaration
     830                      .dwattr $C$DW$149, DW_AT_external
     831                      .global _gUserParams
     832 00000100       _gUserParams:   .usect  ".ebss",172,1,1
     833              $C$DW$150       .dwtag  DW_TAG_variable, DW_AT_name("gUserParams")
     834                      .dwattr $C$DW$150, DW_AT_TI_symbol_name("_gUserParams")
     835                      .dwattr $C$DW$150, DW_AT_location[DW_OP_addr _gUserParams]
     836                      .dwattr $C$DW$150, DW_AT_type(*$C$DW$T$170)
     837                      .dwattr $C$DW$150, DW_AT_external
     838                      .global _ctrl
     839 000001c0       _ctrl:  .usect  ".ebss",264,1,1
     840              $C$DW$151       .dwtag  DW_TAG_variable, DW_AT_name("ctrl")
     841                      .dwattr $C$DW$151, DW_AT_TI_symbol_name("_ctrl")
     842                      .dwattr $C$DW$151, DW_AT_location[DW_OP_addr _ctrl]
     843                      .dwattr $C$DW$151, DW_AT_type(*$C$DW$T$202)
     844                      .dwattr $C$DW$151, DW_AT_external
     845              ;       c:\ti\ccsv6\tools\compiler\c2000_6.2.5\bin\opt2000.exe C:\\Users\\wmj\\AppData\\Local\\Temp\\086842 C
     846              ;       c:\ti\ccsv6\tools\compiler\c2000_6.2.5\bin\ac2000.exe -@C:\\Users\\wmj\\AppData\\Local\\Temp\\0868416
     847 00000000               .sect   ".text"
     848                      .clink
     849                      .global _updateGlobalVariables_motor
     850              
     851              $C$DW$152       .dwtag  DW_TAG_subprogram, DW_AT_name("updateGlobalVariables_motor")
     852                      .dwattr $C$DW$152, DW_AT_low_pc(_updateGlobalVariables_motor)
     853                      .dwattr $C$DW$152, DW_AT_high_pc(0x00)
     854                      .dwattr $C$DW$152, DW_AT_TI_symbol_name("_updateGlobalVariables_motor")
     855                      .dwattr $C$DW$152, DW_AT_external
     856                      .dwattr $C$DW$152, DW_AT_TI_begin_file("C:/ti/motorware/motorware_1_01_00_18/sw/solutions/instaspin_f
     857                      .dwattr $C$DW$152, DW_AT_TI_begin_line(0x224)
     858                      .dwattr $C$DW$152, DW_AT_TI_begin_column(0x06)
     859                      .dwattr $C$DW$152, DW_AT_TI_max_frame_size(-8)
     860                      .dwpsn  file "C:/ti/motorware/motorware_1_01_00_18/sw/solutions/instaspin_foc/src/proj_lab03b.c",line
     861              
TMS320C2000 Assembler PC v6.2.5 Thu Jun 22 13:27:58 2017

Tools Copyright (c) 1996-2014 Texas Instruments Incorporated
C:\Users\wmj\AppData\Local\Temp\0868410                              PAGE   18

     862                      .dwfde $C$DW$CIE, _updateGlobalVariables_motor
     863              $C$DW$153       .dwtag  DW_TAG_formal_parameter, DW_AT_name("handle")
     864                      .dwattr $C$DW$153, DW_AT_TI_symbol_name("_handle")
     865                      .dwattr $C$DW$153, DW_AT_type(*$C$DW$T$165)
     866                      .dwattr $C$DW$153, DW_AT_location[DW_OP_reg12]
     867              
     868              ;***************************************************************
     869              ;* FNAME: _updateGlobalVariables_motor  FR SIZE:   6           *
     870              ;*                                                             *
     871              ;* FUNCTION ENVIRONMENT                                        *
     872              ;*                                                             *
     873              ;* FUNCTION PROPERTIES                                         *
     874              ;*                            2 Parameter,  0 Auto,  4 SOE     *
     875              ;***************************************************************
     876              
     877              _updateGlobalVariables_motor:
     878              ;* XT    assigned to $O$R2
     879              ;* AR2   assigned to _handle
     880              $C$DW$154       .dwtag  DW_TAG_variable, DW_AT_name("handle")
     881                      .dwattr $C$DW$154, DW_AT_TI_symbol_name("_handle")
     882                      .dwattr $C$DW$154, DW_AT_type(*$C$DW$T$204)
     883                      .dwattr $C$DW$154, DW_AT_location[DW_OP_reg8]
     884                      .dwcfi  cfa_offset, -2
     885                      .dwcfi  save_reg_to_mem, 26, 0
     886                      .dwcfi  save_reg_to_reg, 78, 26
     887 00000000 B2BD          MOVL      *SP++,XAR1            ; [CPU_] 
     888                      .dwcfi  save_reg_to_mem, 7, 2
     889                      .dwcfi  cfa_offset, -4
     890 00000001 AABD          MOVL      *SP++,XAR2            ; [CPU_] 
     891                      .dwcfi  save_reg_to_mem, 9, 4
     892                      .dwcfi  cfa_offset, -6
     893 00000002 FE02          ADDB      SP,#2                 ; [CPU_U] 
     894                      .dwcfi  cfa_offset, -8
     895                      .dwpsn  file "C:/ti/motorware/motorware_1_01_00_18/sw/solutions/instaspin_foc/src/proj_lab03b.c",line
     896 00000003 D018          MOVB      XAR0,#24              ; [CPU_] |553| 
     897                      .dwpsn  file "C:/ti/motorware/motorware_1_01_00_18/sw/solutions/instaspin_foc/src/proj_lab03b.c",line
     898 00000004 86A4          MOVL      XAR2,XAR4             ; [CPU_] |549| 
     899                      .dwpsn  file "C:/ti/motorware/motorware_1_01_00_18/sw/solutions/instaspin_foc/src/proj_lab03b.c",line
     900 00000005 8A92          MOVL      XAR4,*+XAR2[AR0]      ; [CPU_] |553| 
     901              $C$DW$155       .dwtag  DW_TAG_TI_branch
     902                      .dwattr $C$DW$155, DW_AT_low_pc(0x00)
     903                      .dwattr $C$DW$155, DW_AT_name("_EST_getSpeed_krpm")
     904                      .dwattr $C$DW$155, DW_AT_TI_call
     905 00000006 7640!         LCR       #_EST_getSpeed_krpm   ; [CPU_] |553| 
         00000007 0000 
     906                      ; call occurs [#_EST_getSpeed_krpm] ; [] |553| 
     907 00000008 761F-         MOVW      DP,#_gMotorVars+32    ; [CPU_U] 
         00000009 0002 
     908                      .dwpsn  file "C:/ti/motorware/motorware_1_01_00_18/sw/modules/traj/src/32b/traj.h",line 96,column 3,i
     909 0000000a D06C          MOVB      XAR0,#108             ; [CPU_] |96| 
     910                      .dwpsn  file "C:/ti/motorware/motorware_1_01_00_18/sw/solutions/instaspin_foc/src/proj_lab03b.c",line
     911 0000000b 1E20-         MOVL      @_gMotorVars+32,ACC   ; [CPU_] |553| 
     912                      .dwpsn  file "C:/ti/motorware/motorware_1_01_00_18/sw/modules/traj/src/32b/traj.h",line 96,column 3,i
     913 0000000c 8A92          MOVL      XAR4,*+XAR2[AR0]      ; [CPU_] |96| 
     914                      .dwpsn  file "C:/ti/motorware/motorware_1_01_00_18/sw/solutions/instaspin_foc/src/proj_lab03b.c",line
TMS320C2000 Assembler PC v6.2.5 Thu Jun 22 13:27:58 2017

Tools Copyright (c) 1996-2014 Texas Instruments Incorporated
C:\Users\wmj\AppData\Local\Temp\0868410                              PAGE   19

     915 0000000d D018          MOVB      XAR0,#24              ; [CPU_] |556| 
     916                      .dwpsn  file "C:/ti/motorware/motorware_1_01_00_18/sw/modules/traj/src/32b/traj.h",line 96,column 3,i
     917 0000000e 8BD4          MOVL      XAR1,*+XAR4[2]        ; [CPU_] |96| 
     918                      .dwpsn  file "C:/ti/motorware/motorware_1_01_00_18/sw/solutions/instaspin_foc/src/proj_lab03b.c",line
     919 0000000f 8A92          MOVL      XAR4,*+XAR2[AR0]      ; [CPU_] |556| 
     920              $C$DW$156       .dwtag  DW_TAG_TI_branch
     921                      .dwattr $C$DW$156, DW_AT_low_pc(0x00)
     922                      .dwattr $C$DW$156, DW_AT_name("_EST_get_pu_to_krpm_sf")
     923                      .dwattr $C$DW$156, DW_AT_TI_call
     924 00000010 7640!         LCR       #_EST_get_pu_to_krpm_sf ; [CPU_] |556| 
         00000011 0000 
     925                      ; call occurs [#_EST_get_pu_to_krpm_sf] ; [] |556| 
     926 00000012 761F-         MOVW      DP,#_gMotorVars+28    ; [CPU_U] 
         00000013 0002 
     927 00000014 B2AC          MOVL      XT,XAR1               ; [CPU_] |556| 
     928                      .dwpsn  file "C:/ti/motorware/motorware_1_01_00_18/sw/solutions/instaspin_foc/src/proj_lab03b.c",line
     929 00000015 8AA2          MOVL      XAR4,XAR2             ; [CPU_] |559| 
     930                      .dwpsn  file "C:/ti/motorware/motorware_1_01_00_18/sw/solutions/instaspin_foc/src/proj_lab03b.c",line
     931 00000016 5605          IMPYL     P,XT,ACC              ; [CPU_] |556| 
         00000017 00A9 
     932 00000018 5663          QMPYL     ACC,XT,ACC            ; [CPU_] |556| 
         00000019 00A9 
     933 0000001a 56A7          LSL64     ACC:P,#8              ; [CPU_] |556| 
     934 0000001b 1E1C-         MOVL      @_gMotorVars+28,ACC   ; [CPU_] |556| 
     935 0000001c 761F-         MOVW      DP,#_gTorque_Ls_Id_Iq_pu_to_Nm_sf ; [CPU_U] 
         0000001d 0000 
     936                      .dwpsn  file "C:/ti/motorware/motorware_1_01_00_18/sw/solutions/instaspin_foc/src/proj_lab03b.c",line
     937 0000001e 060C-         MOVL      ACC,@_gTorque_Ls_Id_Iq_pu_to_Nm_sf ; [CPU_] |559| 
     938 0000001f 1E42          MOVL      *-SP[2],ACC           ; [CPU_] |559| 
     939 00000020 060E-         MOVL      ACC,@_gTorque_Flux_Iq_pu_to_Nm_sf ; [CPU_] |559| 
     940              $C$DW$157       .dwtag  DW_TAG_TI_branch
     941                      .dwattr $C$DW$157, DW_AT_low_pc(0x00)
     942                      .dwattr $C$DW$157, DW_AT_name("_USER_computeTorque_Nm")
     943                      .dwattr $C$DW$157, DW_AT_TI_call
     944 00000021 7640!         LCR       #_USER_computeTorque_Nm ; [CPU_] |559| 
         00000022 0000 
     945                      ; call occurs [#_USER_computeTorque_Nm] ; [] |559| 
     946 00000023 761F-         MOVW      DP,#_gMotorVars+42    ; [CPU_U] 
         00000024 0002 
     947                      .dwpsn  file "C:/ti/motorware/motorware_1_01_00_18/sw/solutions/instaspin_foc/src/proj_lab03b.c",line
     948 00000025 D018          MOVB      XAR0,#24              ; [CPU_] |562| 
     949                      .dwpsn  file "C:/ti/motorware/motorware_1_01_00_18/sw/solutions/instaspin_foc/src/proj_lab03b.c",line
     950 00000026 1E2A-         MOVL      @_gMotorVars+42,ACC   ; [CPU_] |559| 
     951                      .dwpsn  file "C:/ti/motorware/motorware_1_01_00_18/sw/solutions/instaspin_foc/src/proj_lab03b.c",line
     952 00000027 8A92          MOVL      XAR4,*+XAR2[AR0]      ; [CPU_] |562| 
     953              $C$DW$158       .dwtag  DW_TAG_TI_branch
     954                      .dwattr $C$DW$158, DW_AT_low_pc(0x00)
     955                      .dwattr $C$DW$158, DW_AT_name("_EST_getIdRated")
     956                      .dwattr $C$DW$158, DW_AT_TI_call
     957 00000028 7640!         LCR       #_EST_getIdRated      ; [CPU_] |562| 
         00000029 0000 
     958                      ; call occurs [#_EST_getIdRated] ; [] |562| 
     959 0000002a 761F-         MOVW      DP,#_gMotorVars+44    ; [CPU_U] 
         0000002b 0002 
     960                      .dwpsn  file "C:/ti/motorware/motorware_1_01_00_18/sw/solutions/instaspin_foc/src/proj_lab03b.c",line
TMS320C2000 Assembler PC v6.2.5 Thu Jun 22 13:27:58 2017

Tools Copyright (c) 1996-2014 Texas Instruments Incorporated
C:\Users\wmj\AppData\Local\Temp\0868410                              PAGE   20

     961 0000002c D018          MOVB      XAR0,#24              ; [CPU_] |565| 
     962                      .dwpsn  file "C:/ti/motorware/motorware_1_01_00_18/sw/solutions/instaspin_foc/src/proj_lab03b.c",line
     963 0000002d 1E2C-         MOVL      @_gMotorVars+44,ACC   ; [CPU_] |562| 
     964                      .dwpsn  file "C:/ti/motorware/motorware_1_01_00_18/sw/solutions/instaspin_foc/src/proj_lab03b.c",line
     965 0000002e 8A92          MOVL      XAR4,*+XAR2[AR0]      ; [CPU_] |565| 
     966              $C$DW$159       .dwtag  DW_TAG_TI_branch
     967                      .dwattr $C$DW$159, DW_AT_low_pc(0x00)
     968                      .dwattr $C$DW$159, DW_AT_name("_EST_getRr_Ohm")
     969                      .dwattr $C$DW$159, DW_AT_TI_call
     970 0000002f 7640!         LCR       #_EST_getRr_Ohm       ; [CPU_] |565| 
         00000030 0000 
     971                      ; call occurs [#_EST_getRr_Ohm] ; [] |565| 
     972 00000031 761F-         MOVW      DP,#_gMotorVars+46    ; [CPU_U] 
         00000032 0002 
     973                      .dwpsn  file "C:/ti/motorware/motorware_1_01_00_18/sw/solutions/instaspin_foc/src/proj_lab03b.c",line
     974 00000033 D018          MOVB      XAR0,#24              ; [CPU_] |568| 
     975                      .dwpsn  file "C:/ti/motorware/motorware_1_01_00_18/sw/solutions/instaspin_foc/src/proj_lab03b.c",line
     976 00000034 1E2E-         MOVL      @_gMotorVars+46,ACC   ; [CPU_] |565| 
     977                      .dwpsn  file "C:/ti/motorware/motorware_1_01_00_18/sw/solutions/instaspin_foc/src/proj_lab03b.c",line
     978 00000035 8A92          MOVL      XAR4,*+XAR2[AR0]      ; [CPU_] |568| 
     979              $C$DW$160       .dwtag  DW_TAG_TI_branch
     980                      .dwattr $C$DW$160, DW_AT_low_pc(0x00)
     981                      .dwattr $C$DW$160, DW_AT_name("_EST_getRs_Ohm")
     982                      .dwattr $C$DW$160, DW_AT_TI_call
     983 00000036 7640!         LCR       #_EST_getRs_Ohm       ; [CPU_] |568| 
         00000037 0000 
     984                      ; call occurs [#_EST_getRs_Ohm] ; [] |568| 
     985 00000038 761F-         MOVW      DP,#_gMotorVars+48    ; [CPU_U] 
         00000039 0002 
     986                      .dwpsn  file "C:/ti/motorware/motorware_1_01_00_18/sw/solutions/instaspin_foc/src/proj_lab03b.c",line
     987 0000003a D018          MOVB      XAR0,#24              ; [CPU_] |571| 
     988                      .dwpsn  file "C:/ti/motorware/motorware_1_01_00_18/sw/solutions/instaspin_foc/src/proj_lab03b.c",line
     989 0000003b 1E30-         MOVL      @_gMotorVars+48,ACC   ; [CPU_] |568| 
     990                      .dwpsn  file "C:/ti/motorware/motorware_1_01_00_18/sw/solutions/instaspin_foc/src/proj_lab03b.c",line
     991 0000003c 8A92          MOVL      XAR4,*+XAR2[AR0]      ; [CPU_] |571| 
     992              $C$DW$161       .dwtag  DW_TAG_TI_branch
     993                      .dwattr $C$DW$161, DW_AT_low_pc(0x00)
     994                      .dwattr $C$DW$161, DW_AT_name("_EST_getLs_d_H")
     995                      .dwattr $C$DW$161, DW_AT_TI_call
     996 0000003d 7640!         LCR       #_EST_getLs_d_H       ; [CPU_] |571| 
         0000003e 0000 
     997                      ; call occurs [#_EST_getLs_d_H] ; [] |571| 
     998 0000003f 761F-         MOVW      DP,#_gMotorVars+52    ; [CPU_U] 
         00000040 0002 
     999                      .dwpsn  file "C:/ti/motorware/motorware_1_01_00_18/sw/solutions/instaspin_foc/src/proj_lab03b.c",line
    1000 00000041 D018          MOVB      XAR0,#24              ; [CPU_] |574| 
    1001                      .dwpsn  file "C:/ti/motorware/motorware_1_01_00_18/sw/solutions/instaspin_foc/src/proj_lab03b.c",line
    1002 00000042 1E34-         MOVL      @_gMotorVars+52,ACC   ; [CPU_] |571| 
    1003                      .dwpsn  file "C:/ti/motorware/motorware_1_01_00_18/sw/solutions/instaspin_foc/src/proj_lab03b.c",line
    1004 00000043 8A92          MOVL      XAR4,*+XAR2[AR0]      ; [CPU_] |574| 
    1005              $C$DW$162       .dwtag  DW_TAG_TI_branch
    1006                      .dwattr $C$DW$162, DW_AT_low_pc(0x00)
    1007                      .dwattr $C$DW$162, DW_AT_name("_EST_getLs_q_H")
    1008                      .dwattr $C$DW$162, DW_AT_TI_call
    1009 00000044 7640!         LCR       #_EST_getLs_q_H       ; [CPU_] |574| 
TMS320C2000 Assembler PC v6.2.5 Thu Jun 22 13:27:58 2017

Tools Copyright (c) 1996-2014 Texas Instruments Incorporated
C:\Users\wmj\AppData\Local\Temp\0868410                              PAGE   21

         00000045 0000 
    1010                      ; call occurs [#_EST_getLs_q_H] ; [] |574| 
    1011 00000046 761F-         MOVW      DP,#_gMotorVars+54    ; [CPU_U] 
         00000047 0002 
    1012                      .dwpsn  file "C:/ti/motorware/motorware_1_01_00_18/sw/solutions/instaspin_foc/src/proj_lab03b.c",line
    1013 00000048 D018          MOVB      XAR0,#24              ; [CPU_] |577| 
    1014                      .dwpsn  file "C:/ti/motorware/motorware_1_01_00_18/sw/solutions/instaspin_foc/src/proj_lab03b.c",line
    1015 00000049 1E36-         MOVL      @_gMotorVars+54,ACC   ; [CPU_] |574| 
    1016                      .dwpsn  file "C:/ti/motorware/motorware_1_01_00_18/sw/solutions/instaspin_foc/src/proj_lab03b.c",line
    1017 0000004a 8A92          MOVL      XAR4,*+XAR2[AR0]      ; [CPU_] |577| 
    1018              $C$DW$163       .dwtag  DW_TAG_TI_branch
    1019                      .dwattr $C$DW$163, DW_AT_low_pc(0x00)
    1020                      .dwattr $C$DW$163, DW_AT_name("_EST_getFlux_VpHz")
    1021                      .dwattr $C$DW$163, DW_AT_TI_call
    1022 0000004b 7640!         LCR       #_EST_getFlux_VpHz    ; [CPU_] |577| 
         0000004c 0000 
    1023                      ; call occurs [#_EST_getFlux_VpHz] ; [] |577| 
    1024 0000004d 761F-         MOVW      DP,#_gMotorVars+56    ; [CPU_U] 
         0000004e 0002 
    1025                      .dwpsn  file "C:/ti/motorware/motorware_1_01_00_18/sw/solutions/instaspin_foc/src/proj_lab03b.c",line
    1026 0000004f 8AA2          MOVL      XAR4,XAR2             ; [CPU_] |580| 
    1027                      .dwpsn  file "C:/ti/motorware/motorware_1_01_00_18/sw/solutions/instaspin_foc/src/proj_lab03b.c",line
    1028 00000050 1E38-         MOVL      @_gMotorVars+56,ACC   ; [CPU_] |577| 
    1029 00000051 761F-         MOVW      DP,#_gFlux_pu_to_Wb_sf ; [CPU_U] 
         00000052 0000 
    1030                      .dwpsn  file "C:/ti/motorware/motorware_1_01_00_18/sw/solutions/instaspin_foc/src/proj_lab03b.c",line
    1031 00000053 0606-         MOVL      ACC,@_gFlux_pu_to_Wb_sf ; [CPU_] |580| 
    1032              $C$DW$164       .dwtag  DW_TAG_TI_branch
    1033                      .dwattr $C$DW$164, DW_AT_low_pc(0x00)
    1034                      .dwattr $C$DW$164, DW_AT_name("_USER_computeFlux")
    1035                      .dwattr $C$DW$164, DW_AT_TI_call
    1036 00000054 7640!         LCR       #_USER_computeFlux    ; [CPU_] |580| 
         00000055 0000 
    1037                      ; call occurs [#_USER_computeFlux] ; [] |580| 
    1038 00000056 761F-         MOVW      DP,#_gMotorVars+40    ; [CPU_U] 
         00000057 0002 
    1039                      .dwpsn  file "C:/ti/motorware/motorware_1_01_00_18/sw/solutions/instaspin_foc/src/proj_lab03b.c",line
    1040 00000058 D018          MOVB      XAR0,#24              ; [CPU_] |586| 
    1041                      .dwpsn  file "C:/ti/motorware/motorware_1_01_00_18/sw/solutions/instaspin_foc/src/proj_lab03b.c",line
    1042 00000059 1E28-         MOVL      @_gMotorVars+40,ACC   ; [CPU_] |580| 
    1043                      .dwpsn  file "C:/ti/motorware/motorware_1_01_00_18/sw/solutions/instaspin_foc/src/proj_lab03b.c",line
    1044 0000005a 92E2          MOV       AL,*+XAR2[4]          ; [CPU_] |583| 
    1045 0000005b 960D-         MOV       @_gMotorVars+13,AL    ; [CPU_] |583| 
    1046                      .dwpsn  file "C:/ti/motorware/motorware_1_01_00_18/sw/solutions/instaspin_foc/src/proj_lab03b.c",line
    1047 0000005c 8A92          MOVL      XAR4,*+XAR2[AR0]      ; [CPU_] |586| 
    1048              $C$DW$165       .dwtag  DW_TAG_TI_branch
    1049                      .dwattr $C$DW$165, DW_AT_low_pc(0x00)
    1050                      .dwattr $C$DW$165, DW_AT_name("_EST_getState")
    1051                      .dwattr $C$DW$165, DW_AT_TI_call
    1052 0000005d 7640!         LCR       #_EST_getState        ; [CPU_] |586| 
         0000005e 0000 
    1053                      ; call occurs [#_EST_getState] ; [] |586| 
    1054 0000005f 761F-         MOVW      DP,#_gMotorVars+14    ; [CPU_U] 
         00000060 0002 
    1055 00000061 960E-         MOV       @_gMotorVars+14,AL    ; [CPU_] |586| 
TMS320C2000 Assembler PC v6.2.5 Thu Jun 22 13:27:58 2017

Tools Copyright (c) 1996-2014 Texas Instruments Incorporated
C:\Users\wmj\AppData\Local\Temp\0868410                              PAGE   22

    1056                      .dwpsn  file "C:/ti/motorware/motorware_1_01_00_18/sw/solutions/instaspin_foc/src/proj_lab03b.c",line
    1057 00000062 9B73          MOV       AH,#115               ; [CPU_] |589| 
    1058 00000063 761F-         MOVW      DP,#_gAdcData+12      ; [CPU_U] 
         00000064 0000 
    1059 00000065 28A9          MOV       AL,#13107             ; [CPU_] |589| 
         00000066 3333 
    1060 00000067 8732-         MOVL      XT,@_gAdcData+12      ; [CPU_] |589| 
    1061 00000068 FE82          SUBB      SP,#2                 ; [CPU_U] 
    1062                      .dwcfi  cfa_offset, -6
    1063 00000069 86BE          MOVL      XAR2,*--SP            ; [CPU_] 
    1064                      .dwcfi  cfa_offset, -4
    1065                      .dwcfi  restore_reg, 9
    1066 0000006a 5605          IMPYL     P,XT,ACC              ; [CPU_] |589| 
         0000006b 00A9 
    1067 0000006c 8BBE          MOVL      XAR1,*--SP            ; [CPU_] 
    1068                      .dwcfi  cfa_offset, -2
    1069                      .dwcfi  restore_reg, 7
    1070 0000006d 5663          QMPYL     ACC,XT,ACC            ; [CPU_] |589| 
         0000006e 00A9 
    1071 0000006f 56A7          LSL64     ACC:P,#8              ; [CPU_] |589| 
    1072 00000070 761F-         MOVW      DP,#_gMotorVars+86    ; [CPU_U] 
         00000071 0003 
    1073 00000072 1E16-         MOVL      @_gMotorVars+86,ACC   ; [CPU_] |589| 
    1074              $C$DW$166       .dwtag  DW_TAG_TI_branch
    1075                      .dwattr $C$DW$166, DW_AT_low_pc(0x00)
    1076                      .dwattr $C$DW$166, DW_AT_TI_return
    1077 00000073 0006          LRETR     ; [CPU_] 
    1078                      ; return occurs ; [] 
    1079                      .dwattr $C$DW$152, DW_AT_TI_end_file("C:/ti/motorware/motorware_1_01_00_18/sw/solutions/instaspin_foc
    1080                      .dwattr $C$DW$152, DW_AT_TI_end_line(0x250)
    1081                      .dwattr $C$DW$152, DW_AT_TI_end_column(0x01)
    1082                      .dwendentry
    1083                      .dwendtag $C$DW$152
    1084              
    1085 00000074               .sect   ".text"
    1086                      .clink
    1087                      .global _updateCPUusage
    1088              
    1089              $C$DW$167       .dwtag  DW_TAG_subprogram, DW_AT_name("updateCPUusage")
    1090                      .dwattr $C$DW$167, DW_AT_low_pc(_updateCPUusage)
    1091                      .dwattr $C$DW$167, DW_AT_high_pc(0x00)
    1092                      .dwattr $C$DW$167, DW_AT_TI_symbol_name("_updateCPUusage")
    1093                      .dwattr $C$DW$167, DW_AT_external
    1094                      .dwattr $C$DW$167, DW_AT_TI_begin_file("C:/ti/motorware/motorware_1_01_00_18/sw/solutions/instaspin_f
    1095                      .dwattr $C$DW$167, DW_AT_TI_begin_line(0x253)
    1096                      .dwattr $C$DW$167, DW_AT_TI_begin_column(0x06)
    1097                      .dwattr $C$DW$167, DW_AT_TI_max_frame_size(-12)
    1098                      .dwpsn  file "C:/ti/motorware/motorware_1_01_00_18/sw/solutions/instaspin_foc/src/proj_lab03b.c",line
    1099              
    1100                      .dwfde $C$DW$CIE, _updateCPUusage
    1101              
    1102              ;***************************************************************
    1103              ;* FNAME: _updateCPUusage               FR SIZE:  10           *
    1104              ;*                                                             *
    1105              ;* FUNCTION ENVIRONMENT                                        *
TMS320C2000 Assembler PC v6.2.5 Thu Jun 22 13:27:58 2017

Tools Copyright (c) 1996-2014 Texas Instruments Incorporated
C:\Users\wmj\AppData\Local\Temp\0868410                              PAGE   23

    1106              ;*                                                             *
    1107              ;* FUNCTION PROPERTIES                                         *
    1108              ;*                            2 Parameter,  2 Auto,  6 SOE     *
    1109              ;***************************************************************
    1110              
    1111              _updateCPUusage:
    1112              ;* AR1   assigned to $O$C1
    1113              ;* AR2   assigned to $O$C2
    1114              ;* AL    assigned to $O$C3
    1115              $C$DW$168       .dwtag  DW_TAG_variable, DW_AT_name("avgDeltaCntObserved")
    1116                      .dwattr $C$DW$168, DW_AT_TI_symbol_name("_avgDeltaCntObserved")
    1117                      .dwattr $C$DW$168, DW_AT_type(*$C$DW$T$38)
    1118                      .dwattr $C$DW$168, DW_AT_location[DW_OP_breg20 -4]
    1119              ;* AR3   assigned to _maxDeltaCntObserved
    1120              $C$DW$169       .dwtag  DW_TAG_variable, DW_AT_name("maxDeltaCntObserved")
    1121                      .dwattr $C$DW$169, DW_AT_TI_symbol_name("_maxDeltaCntObserved")
    1122                      .dwattr $C$DW$169, DW_AT_type(*$C$DW$T$38)
    1123                      .dwattr $C$DW$169, DW_AT_location[DW_OP_reg10]
    1124              ;* AL    assigned to _pwmPeriodValue
    1125              $C$DW$170       .dwtag  DW_TAG_variable, DW_AT_name("pwmPeriodValue")
    1126                      .dwattr $C$DW$170, DW_AT_TI_symbol_name("_pwmPeriodValue")
    1127                      .dwattr $C$DW$170, DW_AT_type(*$C$DW$T$23)
    1128                      .dwattr $C$DW$170, DW_AT_location[DW_OP_reg0]
    1129              ;* AR4   assigned to _pwmHandle
    1130              $C$DW$171       .dwtag  DW_TAG_variable, DW_AT_name("pwmHandle")
    1131                      .dwattr $C$DW$171, DW_AT_TI_symbol_name("_pwmHandle")
    1132                      .dwattr $C$DW$171, DW_AT_type(*$C$DW$T$107)
    1133                      .dwattr $C$DW$171, DW_AT_location[DW_OP_reg12]
    1134                      .dwcfi  cfa_offset, -2
    1135                      .dwcfi  save_reg_to_mem, 26, 0
    1136                      .dwcfi  save_reg_to_reg, 78, 26
    1137 00000074 B2BD          MOVL      *SP++,XAR1            ; [CPU_] 
    1138                      .dwcfi  save_reg_to_mem, 7, 2
    1139                      .dwcfi  cfa_offset, -4
    1140 00000075 AABD          MOVL      *SP++,XAR2            ; [CPU_] 
    1141                      .dwcfi  save_reg_to_mem, 9, 4
    1142                      .dwcfi  cfa_offset, -6
    1143 00000076 A2BD          MOVL      *SP++,XAR3            ; [CPU_] 
    1144                      .dwcfi  save_reg_to_mem, 11, 6
    1145                      .dwcfi  cfa_offset, -8
    1146 00000077 FE04          ADDB      SP,#4                 ; [CPU_U] 
    1147                      .dwcfi  cfa_offset, -12
    1148 00000078 761F-         MOVW      DP,#_cpu_usageHandle  ; [CPU_U] 
         00000079 0000 
    1149                      .dwpsn  file "C:/ti/motorware/motorware_1_01_00_18/sw/modules/cpu_usage/src/32b/cpu_usage.h",line 167
    1150 0000007a 861A-         MOVL      XAR2,@_cpu_usageHandle ; [CPU_] |167| 
    1151 0000007b D010          MOVB      XAR0,#16              ; [CPU_] |167| 
    1152                      .dwpsn  file "C:/ti/motorware/motorware_1_01_00_18/sw/modules/hal/boards/hvkit_rev1p1/f28x/f2802x/src
    1153 0000007c 8A1C-         MOVL      XAR4,@_halHandle      ; [CPU_] |1129| 
    1154                      .dwpsn  file "C:/ti/motorware/motorware_1_01_00_18/sw/modules/cpu_usage/src/32b/cpu_usage.h",line 167
    1155 0000007d 0692          MOVL      ACC,*+XAR2[AR0]       ; [CPU_] |167| 
    1156                      .dwpsn  file "C:/ti/motorware/motorware_1_01_00_18/sw/modules/cpu_usage/src/32b/cpu_usage.h",line 178
    1157 0000007e D012          MOVB      XAR0,#18              ; [CPU_] |178| 
    1158                      .dwpsn  file "C:/ti/motorware/motorware_1_01_00_18/sw/modules/cpu_usage/src/32b/cpu_usage.h",line 167
    1159 0000007f 1E44          MOVL      *-SP[4],ACC           ; [CPU_] |167| 
TMS320C2000 Assembler PC v6.2.5 Thu Jun 22 13:27:58 2017

Tools Copyright (c) 1996-2014 Texas Instruments Incorporated
C:\Users\wmj\AppData\Local\Temp\0868410                              PAGE   24

    1160                      .dwpsn  file "C:/ti/motorware/motorware_1_01_00_18/sw/modules/cpu_usage/src/32b/cpu_usage.h",line 178
    1161 00000080 8292          MOVL      XAR3,*+XAR2[AR0]      ; [CPU_] |178| 
    1162                      .dwpsn  file "C:/ti/motorware/motorware_1_01_00_18/sw/modules/hal/boards/hvkit_rev1p1/f28x/f2802x/src
    1163 00000081 D07C          MOVB      XAR0,#124             ; [CPU_] |1129| 
    1164 00000082 8A94          MOVL      XAR4,*+XAR4[AR0]      ; [CPU_] |1129| 
    1165                      .dwpsn  file "C:/ti/motorware/motorware_1_01_00_18/sw/drivers/pwm/src/32b/f28x/f2802x/pwm.h",line 120
    1166 00000083 92EC          MOV       AL,*+XAR4[5]          ; [CPU_] |1208| 
    1167                      .dwpsn  file "C:/ti/motorware/motorware_1_01_00_18/sw/solutions/instaspin_foc/src/proj_lab03b.c",line
    1168              $C$DW$172       .dwtag  DW_TAG_TI_branch
    1169                      .dwattr $C$DW$172, DW_AT_low_pc(0x00)
    1170                      .dwattr $C$DW$172, DW_AT_name("U$$TOFS")
    1171                      .dwattr $C$DW$172, DW_AT_TI_call
    1172 00000084 7640!         LCR       #U$$TOFS              ; [CPU_] |604| 
         00000085 0000 
    1173                      ; call occurs [#U$$TOFS] ; [] |604| 
    1174 00000086 1E42          MOVL      *-SP[2],ACC           ; [CPU_] |604| 
    1175              $C$DW$173       .dwtag  DW_TAG_TI_branch
    1176                      .dwattr $C$DW$173, DW_AT_low_pc(0x00)
    1177                      .dwattr $C$DW$173, DW_AT_name("FS$$ADD")
    1178                      .dwattr $C$DW$173, DW_AT_TI_call
    1179 00000087 7640!         LCR       #FS$$ADD              ; [CPU_] |604| 
         00000088 0000 
    1180                      ; call occurs [#FS$$ADD] ; [] |604| 
    1181 00000089 D00E          MOVB      XAR0,#14              ; [CPU_] |604| 
    1182 0000008a 8BA9          MOVL      XAR1,ACC              ; [CPU_] |604| 
    1183 0000008b 0692          MOVL      ACC,*+XAR2[AR0]       ; [CPU_] |604| 
    1184              $C$DW$174       .dwtag  DW_TAG_TI_branch
    1185                      .dwattr $C$DW$174, DW_AT_low_pc(0x00)
    1186                      .dwattr $C$DW$174, DW_AT_name("UL$$TOFS")
    1187                      .dwattr $C$DW$174, DW_AT_TI_call
    1188 0000008c 7640!         LCR       #UL$$TOFS             ; [CPU_] |604| 
         0000008d 0000 
    1189                      ; call occurs [#UL$$TOFS] ; [] |604| 
    1190 0000008e B242          MOVL      *-SP[2],XAR1          ; [CPU_] |604| 
    1191              $C$DW$175       .dwtag  DW_TAG_TI_branch
    1192                      .dwattr $C$DW$175, DW_AT_low_pc(0x00)
    1193                      .dwattr $C$DW$175, DW_AT_name("FS$$DIV")
    1194                      .dwattr $C$DW$175, DW_AT_TI_call
    1195 0000008f 7640!         LCR       #FS$$DIV              ; [CPU_] |604| 
         00000090 0000 
    1196                      ; call occurs [#FS$$DIV] ; [] |604| 
    1197 00000091 1EA6          MOVL      XAR6,ACC              ; [CPU_] |604| 
    1198 00000092 9A00          MOV       AL,#0                 ; [CPU_] |604| 
    1199 00000093 28A8          MOV       AH,#17096             ; [CPU_] |604| 
         00000094 42C8 
    1200 00000095 1E42          MOVL      *-SP[2],ACC           ; [CPU_] |604| 
    1201 00000096 06A6          MOVL      ACC,XAR6              ; [CPU_] |604| 
    1202              $C$DW$176       .dwtag  DW_TAG_TI_branch
    1203                      .dwattr $C$DW$176, DW_AT_low_pc(0x00)
    1204                      .dwattr $C$DW$176, DW_AT_name("FS$$MPY")
    1205                      .dwattr $C$DW$176, DW_AT_TI_call
    1206 00000097 7640!         LCR       #FS$$MPY              ; [CPU_] |604| 
         00000098 0000 
    1207                      ; call occurs [#FS$$MPY] ; [] |604| 
    1208 00000099 761F-         MOVW      DP,#_gCpuUsagePercentageMin ; [CPU_U] 
TMS320C2000 Assembler PC v6.2.5 Thu Jun 22 13:27:58 2017

Tools Copyright (c) 1996-2014 Texas Instruments Incorporated
C:\Users\wmj\AppData\Local\Temp\0868410                              PAGE   25

         0000009a 0000 
    1209 0000009b 1E18-         MOVL      @_gCpuUsagePercentageMin,ACC ; [CPU_] |604| 
    1210 0000009c 0644          MOVL      ACC,*-SP[4]           ; [CPU_] |604| 
    1211                      .dwpsn  file "C:/ti/motorware/motorware_1_01_00_18/sw/solutions/instaspin_foc/src/proj_lab03b.c",line
    1212              $C$DW$177       .dwtag  DW_TAG_TI_branch
    1213                      .dwattr $C$DW$177, DW_AT_low_pc(0x00)
    1214                      .dwattr $C$DW$177, DW_AT_name("UL$$TOFS")
    1215                      .dwattr $C$DW$177, DW_AT_TI_call
    1216 0000009d 7640!         LCR       #UL$$TOFS             ; [CPU_] |607| 
         0000009e 0000 
    1217                      ; call occurs [#UL$$TOFS] ; [] |607| 
    1218 0000009f B242          MOVL      *-SP[2],XAR1          ; [CPU_] |607| 
    1219              $C$DW$178       .dwtag  DW_TAG_TI_branch
    1220                      .dwattr $C$DW$178, DW_AT_low_pc(0x00)
    1221                      .dwattr $C$DW$178, DW_AT_name("FS$$DIV")
    1222                      .dwattr $C$DW$178, DW_AT_TI_call
    1223 000000a0 7640!         LCR       #FS$$DIV              ; [CPU_] |607| 
         000000a1 0000 
    1224                      ; call occurs [#FS$$DIV] ; [] |607| 
    1225 000000a2 1EA6          MOVL      XAR6,ACC              ; [CPU_] |607| 
    1226 000000a3 9A00          MOV       AL,#0                 ; [CPU_] |607| 
    1227 000000a4 28A8          MOV       AH,#17096             ; [CPU_] |607| 
         000000a5 42C8 
    1228 000000a6 1E42          MOVL      *-SP[2],ACC           ; [CPU_] |607| 
    1229 000000a7 06A6          MOVL      ACC,XAR6              ; [CPU_] |607| 
    1230              $C$DW$179       .dwtag  DW_TAG_TI_branch
    1231                      .dwattr $C$DW$179, DW_AT_low_pc(0x00)
    1232                      .dwattr $C$DW$179, DW_AT_name("FS$$MPY")
    1233                      .dwattr $C$DW$179, DW_AT_TI_call
    1234 000000a8 7640!         LCR       #FS$$MPY              ; [CPU_] |607| 
         000000a9 0000 
    1235                      ; call occurs [#FS$$MPY] ; [] |607| 
    1236 000000aa 761F-         MOVW      DP,#_gCpuUsagePercentageAvg ; [CPU_U] 
         000000ab 0000 
    1237 000000ac 1E1E-         MOVL      @_gCpuUsagePercentageAvg,ACC ; [CPU_] |607| 
    1238                      .dwpsn  file "C:/ti/motorware/motorware_1_01_00_18/sw/solutions/instaspin_foc/src/proj_lab03b.c",line
    1239 000000ad A2A9          MOVL      ACC,XAR3              ; [CPU_] |610| 
    1240              $C$DW$180       .dwtag  DW_TAG_TI_branch
    1241                      .dwattr $C$DW$180, DW_AT_low_pc(0x00)
    1242                      .dwattr $C$DW$180, DW_AT_name("UL$$TOFS")
    1243                      .dwattr $C$DW$180, DW_AT_TI_call
    1244 000000ae 7640!         LCR       #UL$$TOFS             ; [CPU_] |610| 
         000000af 0000 
    1245                      ; call occurs [#UL$$TOFS] ; [] |610| 
    1246 000000b0 B242          MOVL      *-SP[2],XAR1          ; [CPU_] |610| 
    1247              $C$DW$181       .dwtag  DW_TAG_TI_branch
    1248                      .dwattr $C$DW$181, DW_AT_low_pc(0x00)
    1249                      .dwattr $C$DW$181, DW_AT_name("FS$$DIV")
    1250                      .dwattr $C$DW$181, DW_AT_TI_call
    1251 000000b1 7640!         LCR       #FS$$DIV              ; [CPU_] |610| 
         000000b2 0000 
    1252                      ; call occurs [#FS$$DIV] ; [] |610| 
    1253 000000b3 1EA6          MOVL      XAR6,ACC              ; [CPU_] |610| 
    1254 000000b4 9A00          MOV       AL,#0                 ; [CPU_] |610| 
    1255 000000b5 28A8          MOV       AH,#17096             ; [CPU_] |610| 
TMS320C2000 Assembler PC v6.2.5 Thu Jun 22 13:27:58 2017

Tools Copyright (c) 1996-2014 Texas Instruments Incorporated
C:\Users\wmj\AppData\Local\Temp\0868410                              PAGE   26

         000000b6 42C8 
    1256 000000b7 1E42          MOVL      *-SP[2],ACC           ; [CPU_] |610| 
    1257 000000b8 06A6          MOVL      ACC,XAR6              ; [CPU_] |610| 
    1258              $C$DW$182       .dwtag  DW_TAG_TI_branch
    1259                      .dwattr $C$DW$182, DW_AT_low_pc(0x00)
    1260                      .dwattr $C$DW$182, DW_AT_name("FS$$MPY")
    1261                      .dwattr $C$DW$182, DW_AT_TI_call
    1262 000000b9 7640!         LCR       #FS$$MPY              ; [CPU_] |610| 
         000000ba 0000 
    1263                      ; call occurs [#FS$$MPY] ; [] |610| 
    1264 000000bb FE84          SUBB      SP,#4                 ; [CPU_U] 
    1265                      .dwcfi  cfa_offset, -8
    1266 000000bc 82BE          MOVL      XAR3,*--SP            ; [CPU_] 
    1267                      .dwcfi  cfa_offset, -6
    1268                      .dwcfi  restore_reg, 11
    1269 000000bd 86BE          MOVL      XAR2,*--SP            ; [CPU_] 
    1270                      .dwcfi  cfa_offset, -4
    1271                      .dwcfi  restore_reg, 9
    1272 000000be 8BBE          MOVL      XAR1,*--SP            ; [CPU_] 
    1273                      .dwcfi  cfa_offset, -2
    1274                      .dwcfi  restore_reg, 7
    1275 000000bf 761F-         MOVW      DP,#_gCpuUsagePercentageMax ; [CPU_U] 
         000000c0 0000 
    1276 000000c1 1E08-         MOVL      @_gCpuUsagePercentageMax,ACC ; [CPU_] |610| 
    1277              $C$DW$183       .dwtag  DW_TAG_TI_branch
    1278                      .dwattr $C$DW$183, DW_AT_low_pc(0x00)
    1279                      .dwattr $C$DW$183, DW_AT_TI_return
    1280 000000c2 0006          LRETR     ; [CPU_] 
    1281                      ; return occurs ; [] 
    1282                      .dwattr $C$DW$167, DW_AT_TI_end_file("C:/ti/motorware/motorware_1_01_00_18/sw/solutions/instaspin_foc
    1283                      .dwattr $C$DW$167, DW_AT_TI_end_line(0x265)
    1284                      .dwattr $C$DW$167, DW_AT_TI_end_column(0x01)
    1285                      .dwendentry
    1286                      .dwendtag $C$DW$167
    1287              
    1288 000000c3               .sect   ".text"
    1289                      .clink
    1290              
    1291              $C$DW$184       .dwtag  DW_TAG_subprogram, DW_AT_name("TIMER_getCount")
    1292                      .dwattr $C$DW$184, DW_AT_low_pc(_TIMER_getCount)
    1293                      .dwattr $C$DW$184, DW_AT_high_pc(0x00)
    1294                      .dwattr $C$DW$184, DW_AT_TI_symbol_name("_TIMER_getCount")
    1295                      .dwattr $C$DW$184, DW_AT_type(*$C$DW$T$38)
    1296                      .dwattr $C$DW$184, DW_AT_TI_begin_file("C:/ti/motorware/motorware_1_01_00_18/sw/drivers/timer/src/32b
    1297                      .dwattr $C$DW$184, DW_AT_TI_begin_line(0xa3)
    1298                      .dwattr $C$DW$184, DW_AT_TI_begin_column(0x18)
    1299                      .dwattr $C$DW$184, DW_AT_TI_max_frame_size(-4)
    1300                      .dwpsn  file "C:/ti/motorware/motorware_1_01_00_18/sw/drivers/timer/src/32b/f28x/f2802x/timer.h",line
    1301              
    1302                      .dwfde $C$DW$CIE, _TIMER_getCount
    1303              $C$DW$185       .dwtag  DW_TAG_formal_parameter, DW_AT_name("timerHandle")
    1304                      .dwattr $C$DW$185, DW_AT_TI_symbol_name("_timerHandle")
    1305                      .dwattr $C$DW$185, DW_AT_type(*$C$DW$T$112)
    1306                      .dwattr $C$DW$185, DW_AT_location[DW_OP_reg12]
    1307              
TMS320C2000 Assembler PC v6.2.5 Thu Jun 22 13:27:58 2017

Tools Copyright (c) 1996-2014 Texas Instruments Incorporated
C:\Users\wmj\AppData\Local\Temp\0868410                              PAGE   27

    1308              ;***************************************************************
    1309              ;* FNAME: _TIMER_getCount               FR SIZE:   2           *
    1310              ;*                                                             *
    1311              ;* FUNCTION ENVIRONMENT                                        *
    1312              ;*                                                             *
    1313              ;* FUNCTION PROPERTIES                                         *
    1314              ;*                            0 Parameter,  2 Auto,  0 SOE     *
    1315              ;***************************************************************
    1316              
    1317              _TIMER_getCount:
    1318              ;* AR4   assigned to _timerHandle
    1319              $C$DW$186       .dwtag  DW_TAG_variable, DW_AT_name("timerHandle")
    1320                      .dwattr $C$DW$186, DW_AT_TI_symbol_name("_timerHandle")
    1321                      .dwattr $C$DW$186, DW_AT_type(*$C$DW$T$245)
    1322                      .dwattr $C$DW$186, DW_AT_location[DW_OP_reg12]
    1323              ;* AL    assigned to _cnt
    1324              $C$DW$187       .dwtag  DW_TAG_variable, DW_AT_name("cnt")
    1325                      .dwattr $C$DW$187, DW_AT_TI_symbol_name("_cnt")
    1326                      .dwattr $C$DW$187, DW_AT_type(*$C$DW$T$38)
    1327                      .dwattr $C$DW$187, DW_AT_location[DW_OP_reg0]
    1328              $C$DW$188       .dwtag  DW_TAG_variable, DW_AT_name("timer")
    1329                      .dwattr $C$DW$188, DW_AT_TI_symbol_name("_timer")
    1330                      .dwattr $C$DW$188, DW_AT_type(*$C$DW$T$244)
    1331                      .dwattr $C$DW$188, DW_AT_location[DW_OP_breg20 -2]
    1332                      .dwcfi  cfa_offset, -2
    1333                      .dwcfi  save_reg_to_mem, 26, 0
    1334                      .dwcfi  save_reg_to_reg, 78, 26
    1335 000000c3 FE02          ADDB      SP,#2                 ; [CPU_U] 
    1336                      .dwcfi  cfa_offset, -4
    1337                      .dwpsn  file "C:/ti/motorware/motorware_1_01_00_18/sw/drivers/timer/src/32b/f28x/f2802x/timer.h",line
    1338 000000c4 A842          MOVL      *-SP[2],XAR4          ; [CPU_] |165| 
    1339                      .dwpsn  file "C:/ti/motorware/motorware_1_01_00_18/sw/drivers/timer/src/32b/f28x/f2802x/timer.h",line
    1340 000000c5 06C4          MOVL      ACC,*+XAR4[0]         ; [CPU_] |169| 
    1341 000000c6 FE82          SUBB      SP,#2                 ; [CPU_U] 
    1342                      .dwcfi  cfa_offset, -2
    1343              $C$DW$189       .dwtag  DW_TAG_TI_branch
    1344                      .dwattr $C$DW$189, DW_AT_low_pc(0x00)
    1345                      .dwattr $C$DW$189, DW_AT_TI_return
    1346 000000c7 0006          LRETR     ; [CPU_] 
    1347                      ; return occurs ; [] 
    1348                      .dwattr $C$DW$184, DW_AT_TI_end_file("C:/ti/motorware/motorware_1_01_00_18/sw/drivers/timer/src/32b/f
    1349                      .dwattr $C$DW$184, DW_AT_TI_end_line(0xac)
    1350                      .dwattr $C$DW$184, DW_AT_TI_end_column(0x01)
    1351                      .dwendentry
    1352                      .dwendtag $C$DW$184
    1353              
    1354 00000000               .sect   "ramfuncs:retain"
    1355                      .retain
    1356                      .retainrefs
    1357                      .global _mainISR
    1358              
    1359              $C$DW$190       .dwtag  DW_TAG_subprogram, DW_AT_name("mainISR")
    1360                      .dwattr $C$DW$190, DW_AT_low_pc(_mainISR)
    1361                      .dwattr $C$DW$190, DW_AT_high_pc(0x00)
    1362                      .dwattr $C$DW$190, DW_AT_TI_symbol_name("_mainISR")
TMS320C2000 Assembler PC v6.2.5 Thu Jun 22 13:27:58 2017

Tools Copyright (c) 1996-2014 Texas Instruments Incorporated
C:\Users\wmj\AppData\Local\Temp\0868410                              PAGE   28

    1363                      .dwattr $C$DW$190, DW_AT_external
    1364                      .dwattr $C$DW$190, DW_AT_TI_begin_file("C:/ti/motorware/motorware_1_01_00_18/sw/solutions/instaspin_f
    1365                      .dwattr $C$DW$190, DW_AT_TI_begin_line(0x1eb)
    1366                      .dwattr $C$DW$190, DW_AT_TI_begin_column(0x10)
    1367                      .dwattr $C$DW$190, DW_AT_TI_interrupt
    1368                      .dwattr $C$DW$190, DW_AT_TI_max_frame_size(-26)
    1369                      .dwpsn  file "C:/ti/motorware/motorware_1_01_00_18/sw/solutions/instaspin_foc/src/proj_lab03b.c",line
    1370              
    1371                      .dwfde $C$DW$CIE, _mainISR
    1372              
    1373              ;***************************************************************
    1374              ;* FNAME: _mainISR                      FR SIZE:  24           *
    1375              ;*                                                             *
    1376              ;* FUNCTION ENVIRONMENT                                        *
    1377              ;*                                                             *
    1378              ;* FUNCTION PROPERTIES                                         *
    1379              ;*                            4 Parameter,  4 Auto, 16 SOE     *
    1380              ;***************************************************************
    1381              
    1382              _mainISR:
    1383              ;* AR5   assigned to $O$C1
    1384              ;* AR4   assigned to $O$C2
    1385              ;* AR0   assigned to $O$C3
    1386              ;* AR1   assigned to $O$C4
    1387              ;* AR7   assigned to $O$C5
    1388              ;* AR6   assigned to $O$C6
    1389              ;* AR4   assigned to $O$C7
    1390              ;* AR7   assigned to $O$C8
    1391              ;* AR6   assigned to $O$C9
    1392              ;* AR6   assigned to $O$C10
    1393              ;* AR4   assigned to $O$v3
    1394              ;* AR4   assigned to $O$v2
    1395              ;* AR5   assigned to $O$v1
    1396              $C$DW$191       .dwtag  DW_TAG_variable, DW_AT_name("cnt_z1")
    1397                      .dwattr $C$DW$191, DW_AT_TI_symbol_name("_cnt_z1")
    1398                      .dwattr $C$DW$191, DW_AT_type(*$C$DW$T$38)
    1399                      .dwattr $C$DW$191, DW_AT_location[DW_OP_breg20 -6]
    1400              ;* AR1   assigned to _cnt_z0
    1401              $C$DW$192       .dwtag  DW_TAG_variable, DW_AT_name("cnt_z0")
    1402                      .dwattr $C$DW$192, DW_AT_TI_symbol_name("_cnt_z0")
    1403                      .dwattr $C$DW$192, DW_AT_type(*$C$DW$T$38)
    1404                      .dwattr $C$DW$192, DW_AT_location[DW_OP_reg6]
    1405              ;* XT    assigned to _value
    1406              $C$DW$193       .dwtag  DW_TAG_variable, DW_AT_name("value")
    1407                      .dwattr $C$DW$193, DW_AT_TI_symbol_name("_value")
    1408                      .dwattr $C$DW$193, DW_AT_type(*$C$DW$T$32)
    1409                      .dwattr $C$DW$193, DW_AT_location[DW_OP_reg21]
    1410              ;* XT    assigned to _value
    1411              $C$DW$194       .dwtag  DW_TAG_variable, DW_AT_name("value")
    1412                      .dwattr $C$DW$194, DW_AT_TI_symbol_name("_value")
    1413                      .dwattr $C$DW$194, DW_AT_type(*$C$DW$T$32)
    1414                      .dwattr $C$DW$194, DW_AT_location[DW_OP_reg21]
    1415              ;* XT    assigned to _value
    1416              $C$DW$195       .dwtag  DW_TAG_variable, DW_AT_name("value")
    1417                      .dwattr $C$DW$195, DW_AT_TI_symbol_name("_value")
TMS320C2000 Assembler PC v6.2.5 Thu Jun 22 13:27:58 2017

Tools Copyright (c) 1996-2014 Texas Instruments Incorporated
C:\Users\wmj\AppData\Local\Temp\0868410                              PAGE   29

    1418                      .dwattr $C$DW$195, DW_AT_type(*$C$DW$T$32)
    1419                      .dwattr $C$DW$195, DW_AT_location[DW_OP_reg21]
    1420              ;* XT    assigned to _value
    1421              $C$DW$196       .dwtag  DW_TAG_variable, DW_AT_name("value")
    1422                      .dwattr $C$DW$196, DW_AT_TI_symbol_name("_value")
    1423                      .dwattr $C$DW$196, DW_AT_type(*$C$DW$T$32)
    1424                      .dwattr $C$DW$196, DW_AT_location[DW_OP_reg21]
    1425              ;* XT    assigned to _value
    1426              $C$DW$197       .dwtag  DW_TAG_variable, DW_AT_name("value")
    1427                      .dwattr $C$DW$197, DW_AT_TI_symbol_name("_value")
    1428                      .dwattr $C$DW$197, DW_AT_type(*$C$DW$T$32)
    1429                      .dwattr $C$DW$197, DW_AT_location[DW_OP_reg21]
    1430              ;* XT    assigned to _value
    1431              $C$DW$198       .dwtag  DW_TAG_variable, DW_AT_name("value")
    1432                      .dwattr $C$DW$198, DW_AT_TI_symbol_name("_value")
    1433                      .dwattr $C$DW$198, DW_AT_type(*$C$DW$T$32)
    1434                      .dwattr $C$DW$198, DW_AT_location[DW_OP_reg21]
    1435              ;* XT    assigned to _value
    1436              $C$DW$199       .dwtag  DW_TAG_variable, DW_AT_name("value")
    1437                      .dwattr $C$DW$199, DW_AT_TI_symbol_name("_value")
    1438                      .dwattr $C$DW$199, DW_AT_type(*$C$DW$T$32)
    1439                      .dwattr $C$DW$199, DW_AT_location[DW_OP_reg21]
    1440              ;* AR0   assigned to _deltaCnt
    1441              $C$DW$200       .dwtag  DW_TAG_variable, DW_AT_name("deltaCnt")
    1442                      .dwattr $C$DW$200, DW_AT_TI_symbol_name("_deltaCnt")
    1443                      .dwattr $C$DW$200, DW_AT_type(*$C$DW$T$38)
    1444                      .dwattr $C$DW$200, DW_AT_location[DW_OP_reg4]
    1445              ;* AR6   assigned to _flag_resetStats
    1446              $C$DW$201       .dwtag  DW_TAG_variable, DW_AT_name("flag_resetStats")
    1447                      .dwattr $C$DW$201, DW_AT_TI_symbol_name("_flag_resetStats")
    1448                      .dwattr $C$DW$201, DW_AT_type(*$C$DW$T$39)
    1449                      .dwattr $C$DW$201, DW_AT_location[DW_OP_reg16]
    1450              $C$DW$202       .dwtag  DW_TAG_variable, DW_AT_name("deltaCntAccNumMax")
    1451                      .dwattr $C$DW$202, DW_AT_TI_symbol_name("_deltaCntAccNumMax")
    1452                      .dwattr $C$DW$202, DW_AT_type(*$C$DW$T$38)
    1453                      .dwattr $C$DW$202, DW_AT_location[DW_OP_breg20 -8]
    1454              ;* AR5   assigned to _deltaCntAccNum
    1455              $C$DW$203       .dwtag  DW_TAG_variable, DW_AT_name("deltaCntAccNum")
    1456                      .dwattr $C$DW$203, DW_AT_TI_symbol_name("_deltaCntAccNum")
    1457                      .dwattr $C$DW$203, DW_AT_type(*$C$DW$T$38)
    1458                      .dwattr $C$DW$203, DW_AT_location[DW_OP_reg14]
    1459              ;* PL    assigned to _deltaCntAcc
    1460              $C$DW$204       .dwtag  DW_TAG_variable, DW_AT_name("deltaCntAcc")
    1461                      .dwattr $C$DW$204, DW_AT_TI_symbol_name("_deltaCntAcc")
    1462                      .dwattr $C$DW$204, DW_AT_type(*$C$DW$T$38)
    1463                      .dwattr $C$DW$204, DW_AT_location[DW_OP_reg2]
    1464              ;* AR2   assigned to _maxDeltaCntObserved
    1465              $C$DW$205       .dwtag  DW_TAG_variable, DW_AT_name("maxDeltaCntObserved")
    1466                      .dwattr $C$DW$205, DW_AT_TI_symbol_name("_maxDeltaCntObserved")
    1467                      .dwattr $C$DW$205, DW_AT_type(*$C$DW$T$38)
    1468                      .dwattr $C$DW$205, DW_AT_location[DW_OP_reg8]
    1469              ;* XT    assigned to _avgDeltaCntObserved
    1470              $C$DW$206       .dwtag  DW_TAG_variable, DW_AT_name("avgDeltaCntObserved")
    1471                      .dwattr $C$DW$206, DW_AT_TI_symbol_name("_avgDeltaCntObserved")
    1472                      .dwattr $C$DW$206, DW_AT_type(*$C$DW$T$38)
TMS320C2000 Assembler PC v6.2.5 Thu Jun 22 13:27:58 2017

Tools Copyright (c) 1996-2014 Texas Instruments Incorporated
C:\Users\wmj\AppData\Local\Temp\0868410                              PAGE   30

    1473                      .dwattr $C$DW$206, DW_AT_location[DW_OP_reg21]
    1474              ;* AR7   assigned to _minDeltaCntObserved
    1475              $C$DW$207       .dwtag  DW_TAG_variable, DW_AT_name("minDeltaCntObserved")
    1476                      .dwattr $C$DW$207, DW_AT_TI_symbol_name("_minDeltaCntObserved")
    1477                      .dwattr $C$DW$207, DW_AT_type(*$C$DW$T$38)
    1478                      .dwattr $C$DW$207, DW_AT_location[DW_OP_reg18]
    1479              ;* AR3   assigned to _timerPeriod
    1480              $C$DW$208       .dwtag  DW_TAG_variable, DW_AT_name("timerPeriod")
    1481                      .dwattr $C$DW$208, DW_AT_TI_symbol_name("_timerPeriod")
    1482                      .dwattr $C$DW$208, DW_AT_type(*$C$DW$T$38)
    1483                      .dwattr $C$DW$208, DW_AT_location[DW_OP_reg10]
    1484              ;* AR4   assigned to _handle
    1485              $C$DW$209       .dwtag  DW_TAG_variable, DW_AT_name("handle")
    1486                      .dwattr $C$DW$209, DW_AT_TI_symbol_name("_handle")
    1487                      .dwattr $C$DW$209, DW_AT_type(*$C$DW$T$196)
    1488                      .dwattr $C$DW$209, DW_AT_location[DW_OP_reg12]
    1489              ;* AR4   assigned to _handle
    1490              $C$DW$210       .dwtag  DW_TAG_variable, DW_AT_name("handle")
    1491                      .dwattr $C$DW$210, DW_AT_TI_symbol_name("_handle")
    1492                      .dwattr $C$DW$210, DW_AT_type(*$C$DW$T$196)
    1493                      .dwattr $C$DW$210, DW_AT_location[DW_OP_reg12]
    1494              ;* AL    assigned to _timerCnt
    1495              $C$DW$211       .dwtag  DW_TAG_variable, DW_AT_name("timerCnt")
    1496                      .dwattr $C$DW$211, DW_AT_TI_symbol_name("_timerCnt")
    1497                      .dwattr $C$DW$211, DW_AT_type(*$C$DW$T$38)
    1498                      .dwattr $C$DW$211, DW_AT_location[DW_OP_reg0]
    1499              ;* AR0   assigned to _period
    1500              $C$DW$212       .dwtag  DW_TAG_variable, DW_AT_name("period")
    1501                      .dwattr $C$DW$212, DW_AT_TI_symbol_name("_period")
    1502                      .dwattr $C$DW$212, DW_AT_type(*$C$DW$T$32)
    1503                      .dwattr $C$DW$212, DW_AT_location[DW_OP_reg4]
    1504              ;* AR6   assigned to _deltaCnt
    1505              $C$DW$213       .dwtag  DW_TAG_variable, DW_AT_name("deltaCnt")
    1506                      .dwattr $C$DW$213, DW_AT_TI_symbol_name("_deltaCnt")
    1507                      .dwattr $C$DW$213, DW_AT_type(*$C$DW$T$38)
    1508                      .dwattr $C$DW$213, DW_AT_location[DW_OP_reg16]
    1509              ;* AR0   assigned to _cnt_z1
    1510              $C$DW$214       .dwtag  DW_TAG_variable, DW_AT_name("cnt_z1")
    1511                      .dwattr $C$DW$214, DW_AT_TI_symbol_name("_cnt_z1")
    1512                      .dwattr $C$DW$214, DW_AT_type(*$C$DW$T$38)
    1513                      .dwattr $C$DW$214, DW_AT_location[DW_OP_reg4]
    1514              ;* AR2   assigned to _cnt_z0
    1515              $C$DW$215       .dwtag  DW_TAG_variable, DW_AT_name("cnt_z0")
    1516                      .dwattr $C$DW$215, DW_AT_TI_symbol_name("_cnt_z0")
    1517                      .dwattr $C$DW$215, DW_AT_type(*$C$DW$T$38)
    1518                      .dwattr $C$DW$215, DW_AT_location[DW_OP_reg8]
    1519              ;* XT    assigned to _minDeltaCnt
    1520              $C$DW$216       .dwtag  DW_TAG_variable, DW_AT_name("minDeltaCnt")
    1521                      .dwattr $C$DW$216, DW_AT_TI_symbol_name("_minDeltaCnt")
    1522                      .dwattr $C$DW$216, DW_AT_type(*$C$DW$T$38)
    1523                      .dwattr $C$DW$216, DW_AT_location[DW_OP_reg21]
    1524              ;* PL    assigned to _maxDeltaCntObserved
    1525              $C$DW$217       .dwtag  DW_TAG_variable, DW_AT_name("maxDeltaCntObserved")
    1526                      .dwattr $C$DW$217, DW_AT_TI_symbol_name("_maxDeltaCntObserved")
    1527                      .dwattr $C$DW$217, DW_AT_type(*$C$DW$T$38)
TMS320C2000 Assembler PC v6.2.5 Thu Jun 22 13:27:58 2017

Tools Copyright (c) 1996-2014 Texas Instruments Incorporated
C:\Users\wmj\AppData\Local\Temp\0868410                              PAGE   31

    1528                      .dwattr $C$DW$217, DW_AT_location[DW_OP_reg2]
    1529              ;* AR7   assigned to _maxDeltaCnt
    1530              $C$DW$218       .dwtag  DW_TAG_variable, DW_AT_name("maxDeltaCnt")
    1531                      .dwattr $C$DW$218, DW_AT_TI_symbol_name("_maxDeltaCnt")
    1532                      .dwattr $C$DW$218, DW_AT_type(*$C$DW$T$38)
    1533                      .dwattr $C$DW$218, DW_AT_location[DW_OP_reg18]
    1534              ;* AR6   assigned to _timerPeriod
    1535              $C$DW$219       .dwtag  DW_TAG_variable, DW_AT_name("timerPeriod")
    1536                      .dwattr $C$DW$219, DW_AT_TI_symbol_name("_timerPeriod")
    1537                      .dwattr $C$DW$219, DW_AT_type(*$C$DW$T$38)
    1538                      .dwattr $C$DW$219, DW_AT_location[DW_OP_reg16]
    1539              ;* AR4   assigned to _handle
    1540              $C$DW$220       .dwtag  DW_TAG_variable, DW_AT_name("handle")
    1541                      .dwattr $C$DW$220, DW_AT_TI_symbol_name("_handle")
    1542                      .dwattr $C$DW$220, DW_AT_type(*$C$DW$T$215)
    1543                      .dwattr $C$DW$220, DW_AT_location[DW_OP_reg12]
    1544              ;* AR4   assigned to _handle
    1545              $C$DW$221       .dwtag  DW_TAG_variable, DW_AT_name("handle")
    1546                      .dwattr $C$DW$221, DW_AT_TI_symbol_name("_handle")
    1547                      .dwattr $C$DW$221, DW_AT_type(*$C$DW$T$215)
    1548                      .dwattr $C$DW$221, DW_AT_location[DW_OP_reg12]
    1549              ;* AL    assigned to _timerCnt
    1550              $C$DW$222       .dwtag  DW_TAG_variable, DW_AT_name("timerCnt")
    1551                      .dwattr $C$DW$222, DW_AT_TI_symbol_name("_timerCnt")
    1552                      .dwattr $C$DW$222, DW_AT_type(*$C$DW$T$38)
    1553                      .dwattr $C$DW$222, DW_AT_location[DW_OP_reg0]
    1554              ;* AR4   assigned to _handle
    1555              $C$DW$223       .dwtag  DW_TAG_variable, DW_AT_name("handle")
    1556                      .dwattr $C$DW$223, DW_AT_TI_symbol_name("_handle")
    1557                      .dwattr $C$DW$223, DW_AT_type(*$C$DW$T$196)
    1558                      .dwattr $C$DW$223, DW_AT_location[DW_OP_reg12]
    1559              ;* AL    assigned to _timerCnt
    1560              $C$DW$224       .dwtag  DW_TAG_variable, DW_AT_name("timerCnt")
    1561                      .dwattr $C$DW$224, DW_AT_TI_symbol_name("_timerCnt")
    1562                      .dwattr $C$DW$224, DW_AT_type(*$C$DW$T$38)
    1563                      .dwattr $C$DW$224, DW_AT_location[DW_OP_reg0]
    1564              ;* AR6   assigned to $O$L1
    1565              ;* AR4   assigned to $O$U149
    1566              ;* AR7   assigned to $O$U164
    1567              ;* AR4   assigned to $O$U150
    1568                      .dwcfi  cfa_offset, -2
    1569                      .dwcfi  save_reg_to_mem, 26, 0
    1570                      .dwcfi  save_reg_to_reg, 78, 26
    1571 00000000 761B          ASP       ; [CPU_] 
    1572 00000001 0005          PUSH      AR1H:AR0H             ; [CPU_] 
    1573                      .dwcfi  save_reg_to_mem, 5, 2
    1574                      .dwcfi  save_reg_to_mem, 7, 3
    1575                      .dwcfi  cfa_offset, -4
    1576 00000002 ABBD          MOVL      *SP++,XT              ; [CPU_] 
    1577                      .dwcfi  save_reg_to_mem, 21, 4
    1578                      .dwcfi  save_reg_to_mem, 22, 5
    1579                      .dwcfi  cfa_offset, -6
    1580 00000003 AABD          MOVL      *SP++,XAR2            ; [CPU_] 
    1581                      .dwcfi  save_reg_to_mem, 8, 6
    1582                      .dwcfi  save_reg_to_mem, 9, 7
TMS320C2000 Assembler PC v6.2.5 Thu Jun 22 13:27:58 2017

Tools Copyright (c) 1996-2014 Texas Instruments Incorporated
C:\Users\wmj\AppData\Local\Temp\0868410                              PAGE   32

    1583                      .dwcfi  cfa_offset, -8
    1584 00000004 A2BD          MOVL      *SP++,XAR3            ; [CPU_] 
    1585                      .dwcfi  save_reg_to_mem, 10, 8
    1586                      .dwcfi  save_reg_to_mem, 11, 9
    1587                      .dwcfi  cfa_offset, -10
    1588 00000005 A8BD          MOVL      *SP++,XAR4            ; [CPU_] 
    1589                      .dwcfi  save_reg_to_mem, 12, 10
    1590                      .dwcfi  save_reg_to_mem, 13, 11
    1591                      .dwcfi  cfa_offset, -12
    1592 00000006 A0BD          MOVL      *SP++,XAR5            ; [CPU_] 
    1593                      .dwcfi  save_reg_to_mem, 14, 12
    1594                      .dwcfi  save_reg_to_mem, 15, 13
    1595                      .dwcfi  cfa_offset, -14
    1596 00000007 C2BD          MOVL      *SP++,XAR6            ; [CPU_] 
    1597                      .dwcfi  save_reg_to_mem, 16, 14
    1598                      .dwcfi  save_reg_to_mem, 17, 15
    1599                      .dwcfi  cfa_offset, -16
    1600 00000008 C3BD          MOVL      *SP++,XAR7            ; [CPU_] 
    1601                      .dwcfi  save_reg_to_mem, 18, 16
    1602                      .dwcfi  save_reg_to_mem, 19, 17
    1603                      .dwcfi  cfa_offset, -18
    1604 00000009 FE08          ADDB      SP,#8                 ; [CPU_U] 
    1605                      .dwcfi  cfa_offset, -26
    1606 0000000a FF69          SPM       0                     ; [CPU_] 
    1607 0000000b 2942          CLRC      PAGE0,OVM             ; [CPU_] 
    1608 0000000c 5616          CLRC      AMODE                 ; [CPU_] 
    1609 0000000d 761F-         MOVW      DP,#_halHandle        ; [CPU_U] 
         0000000e 0000 
    1610                      .dwpsn  file "C:/ti/motorware/motorware_1_01_00_18/sw/solutions/instaspin_foc/src/proj_lab03b.c",line
    1611 0000000f 831C-         MOVL      XAR5,@_halHandle      ; [CPU_] |497| 
    1612                      .dwpsn  file "C:/ti/motorware/motorware_1_01_00_18/sw/modules/hal/boards/hvkit_rev1p1/f28x/f2802x/src
    1613 00000010 028A          MOVB      ACC,#138              ; [CPU_] |600| 
    1614 00000011 07A5          ADDL      ACC,XAR5              ; [CPU_] |600| 
    1615 00000012 1EA6          MOVL      XAR6,ACC              ; [CPU_] |600| 
    1616 00000013 8AD6          MOVL      XAR4,*+XAR6[2]        ; [CPU_] |600| 
    1617              $C$DW$225       .dwtag  DW_TAG_TI_branch
    1618                      .dwattr $C$DW$225, DW_AT_low_pc(0x00)
    1619                      .dwattr $C$DW$225, DW_AT_name("_TIMER_getCount")
    1620                      .dwattr $C$DW$225, DW_AT_TI_call
    1621 00000014 7640'         LCR       #_TIMER_getCount      ; [CPU_] |600| 
         00000015 00C3 
    1622                      ; call occurs [#_TIMER_getCount] ; [] |600| 
    1623                      .dwpsn  file "C:/ti/motorware/motorware_1_01_00_18/sw/solutions/instaspin_foc/src/proj_lab03b.c",line
    1624 00000016 8A1A-         MOVL      XAR4,@_cpu_usageHandle ; [CPU_] |498| 
    1625                      .dwpsn  file "C:/ti/motorware/motorware_1_01_00_18/sw/modules/cpu_usage/src/32b/cpu_usage.h",line 233
    1626 00000017 C5D4          MOVL      XAR7,*+XAR4[2]        ; [CPU_] |233| 
    1627 00000018 C3E4          MOVL      *+XAR4[4],XAR7        ; [CPU_] |233| 
    1628                      .dwpsn  file "C:/ti/motorware/motorware_1_01_00_18/sw/modules/cpu_usage/src/32b/cpu_usage.h",line 220
    1629 00000019 1ED4          MOVL      *+XAR4[2],ACC         ; [CPU_] |220| 
    1630                      .dwpsn  file "C:/ti/motorware/motorware_1_01_00_18/sw/modules/hal/boards/hvkit_rev1p1/f28x/f2802x/src
    1631 0000001a 8AC6          MOVL      XAR4,*+XAR6[0]        ; [CPU_] |600| 
    1632              $C$DW$226       .dwtag  DW_TAG_TI_branch
    1633                      .dwattr $C$DW$226, DW_AT_low_pc(0x00)
    1634                      .dwattr $C$DW$226, DW_AT_name("_TIMER_getCount")
    1635                      .dwattr $C$DW$226, DW_AT_TI_call
TMS320C2000 Assembler PC v6.2.5 Thu Jun 22 13:27:58 2017

Tools Copyright (c) 1996-2014 Texas Instruments Incorporated
C:\Users\wmj\AppData\Local\Temp\0868410                              PAGE   33

    1636 0000001b 7640'         LCR       #_TIMER_getCount      ; [CPU_] |600| 
         0000001c 00C3 
    1637                      ; call occurs [#_TIMER_getCount] ; [] |600| 
    1638                      .dwpsn  file "C:/ti/motorware/motorware_1_01_00_18/sw/solutions/instaspin_foc/src/proj_lab03b.c",line
    1639 0000001d 8A12-         MOVL      XAR4,@_femHandle      ; [CPU_] |503| 
    1640                      .dwpsn  file "C:/ti/motorware/motorware_1_01_00_18/sw/modules/fem/src/32b/fem.h",line 208,column 3,is
    1641 0000001e C4D4          MOVL      XAR6,*+XAR4[2]        ; [CPU_] |208| 
    1642                      .dwpsn  file "C:/ti/motorware/motorware_1_01_00_18/sw/modules/fem/src/32b/fem.h",line 133,column 3,is
    1643 0000001f D008          MOVB      XAR0,#8               ; [CPU_] |133| 
    1644                      .dwpsn  file "C:/ti/motorware/motorware_1_01_00_18/sw/modules/fem/src/32b/fem.h",line 208,column 3,is
    1645 00000020 C2E4          MOVL      *+XAR4[4],XAR6        ; [CPU_] |208| 
    1646                      .dwpsn  file "C:/ti/motorware/motorware_1_01_00_18/sw/modules/fem/src/32b/fem.h",line 195,column 3,is
    1647 00000021 1ED4          MOVL      *+XAR4[2],ACC         ; [CPU_] |195| 
    1648                      .dwpsn  file "C:/ti/motorware/motorware_1_01_00_18/sw/modules/fem/src/32b/fem.h",line 133,column 3,is
    1649 00000022 C594          MOVL      XAR7,*+XAR4[AR0]      ; [CPU_] |133| 
    1650                      .dwpsn  file "C:/ti/motorware/motorware_1_01_00_18/sw/modules/fem/src/32b/fem.h",line 144,column 3,is
    1651 00000023 D00C          MOVB      XAR0,#12              ; [CPU_] |144| 
    1652 00000024 A394          MOVL      P,*+XAR4[AR0]         ; [CPU_] |144| 
    1653                      .dwpsn  file "C:/ti/motorware/motorware_1_01_00_18/sw/modules/fem/src/32b/fem.h",line 155,column 3,is
    1654 00000025 D00A          MOVB      XAR0,#10              ; [CPU_] |155| 
    1655 00000026 8794          MOVL      XT,*+XAR4[AR0]        ; [CPU_] |155| 
    1656                      .dwpsn  file "C:/ti/motorware/motorware_1_01_00_18/sw/modules/fem/src/32b/fem.h",line 89,column 3,is_
    1657 00000027 8EE4          MOVL      XAR0,*+XAR4[4]        ; [CPU_] |89| 
    1658                      .dwpsn  file "C:/ti/motorware/motorware_1_01_00_18/sw/modules/fem/src/32b/fem.h",line 166,column 3,is
    1659 00000028 C4C4          MOVL      XAR6,*+XAR4[0]        ; [CPU_] |166| 
    1660                      .dwpsn  file "C:/ti/motorware/motorware_1_01_00_18/sw/modules/fem/src/32b/fem.h",line 78,column 3,is_
    1661 00000029 86D4          MOVL      XAR2,*+XAR4[2]        ; [CPU_] |78| 
    1662                      .dwpsn  file "C:/ti/motorware/motorware_1_01_00_18/sw/modules/fem/src/32b/fem.h",line 89,column 3,is_
    1663 0000002a 3AA9          MOVL      ACC,XAR0              ; [CPU_] |89| 
    1664                      .dwpsn  file "C:/ti/motorware/motorware_1_01_00_18/sw/modules/fem/src/32b/fem.h",line 351,column 7,is
    1665 0000002b 0FA2          CMPL      ACC,XAR2              ; [CPU_] |351| 
    1666 0000002c 6703          B         $C$L1,HIS             ; [CPU_] |351| 
    1667                      ; branchcc occurs ; [] |351| 
    1668 0000002d 06A6          MOVL      ACC,XAR6              ; [CPU_] |351| 
    1669 0000002e 07A0          ADDL      ACC,XAR0              ; [CPU_] |351| 
    1670 0000002f       $C$L1:    
    1671 0000002f 03A2          SUBL      ACC,XAR2              ; [CPU_] |351| 
    1672 00000030 0901          ADDB      ACC,#1                ; [CPU_] |351| 
    1673 00000031 1EA6          MOVL      XAR6,ACC              ; [CPU_] |351| 
    1674                      .dwpsn  file "C:/ti/motorware/motorware_1_01_00_18/sw/modules/fem/src/32b/fem.h",line 221,column 3,is
    1675 00000032 C2F4          MOVL      *+XAR4[6],XAR6        ; [CPU_] |221| 
    1676 00000033 A9A9          MOVL      ACC,P                 ; [CPU_] |221| 
    1677                      .dwpsn  file "C:/ti/motorware/motorware_1_01_00_18/sw/modules/fem/src/32b/fem.h",line 364,column 3,is
    1678 00000034 0FA6          CMPL      ACC,XAR6              ; [CPU_] |364| 
    1679 00000035 6703          B         $C$L2,HIS             ; [CPU_] |364| 
    1680                      ; branchcc occurs ; [] |364| 
    1681                      .dwpsn  file "C:/ti/motorware/motorware_1_01_00_18/sw/modules/fem/src/32b/fem.h",line 273,column 3,is
    1682 00000036 D00C          MOVB      XAR0,#12              ; [CPU_] |273| 
    1683 00000037 C294          MOVL      *+XAR4[AR0],XAR6      ; [CPU_] |273| 
    1684 00000038       $C$L2:    
    1685 00000038 ABA9          MOVL      ACC,XT                ; [CPU_] 
    1686                      .dwpsn  file "C:/ti/motorware/motorware_1_01_00_18/sw/modules/fem/src/32b/fem.h",line 372,column 3,is
    1687 00000039 0FA6          CMPL      ACC,XAR6              ; [CPU_] |372| 
    1688 0000003a 6607          B         $C$L3,HI              ; [CPU_] |372| 
    1689                      ; branchcc occurs ; [] |372| 
TMS320C2000 Assembler PC v6.2.5 Thu Jun 22 13:27:58 2017

Tools Copyright (c) 1996-2014 Texas Instruments Incorporated
C:\Users\wmj\AppData\Local\Temp\0868410                              PAGE   34

    1690 0000003b 06A7          MOVL      ACC,XAR7              ; [CPU_] 
    1691 0000003c 0FA6          CMPL      ACC,XAR6              ; [CPU_] |372| 
    1692 0000003d 6804          B         $C$L3,LO              ; [CPU_] |372| 
    1693                      ; branchcc occurs ; [] |372| 
    1694                      .dwpsn  file "C:/ti/motorware/motorware_1_01_00_18/sw/modules/fem/src/32b/fem.h",line 247,column 3,is
    1695 0000003e D010          MOVB      XAR0,#16              ; [CPU_] |247| 
    1696 0000003f 2B94          MOV       *+XAR4[AR0],#0        ; [CPU_] |247| 
    1697                      .dwpsn  file "C:/ti/motorware/motorware_1_01_00_18/sw/modules/fem/src/32b/fem.h",line 249,column 3,is
    1698 00000040 6F08          B         $C$L4,UNC             ; [CPU_] |249| 
    1699                      ; branch occurs ; [] |249| 
    1700 00000041       $C$L3:    
    1701                      .dwpsn  file "C:/ti/motorware/motorware_1_01_00_18/sw/modules/fem/src/32b/fem.h",line 247,column 3,is
    1702 00000041 D010          MOVB      XAR0,#16              ; [CPU_] |247| 
    1703 00000042 56BF          MOVB      *+XAR4[AR0],#1,UNC    ; [CPU_] |247| 
         00000043 0194 
    1704                      .dwpsn  file "C:/ti/motorware/motorware_1_01_00_18/sw/modules/fem/src/32b/fem.h",line 234,column 3,is
    1705 00000044 0201          MOVB      ACC,#1                ; [CPU_] |234| 
    1706 00000045 DC0E          ADDB      XAR4,#14              ; [CPU_] |234| 
    1707 00000046 5601          ADDL      *+XAR4[0],ACC         ; [CPU_] |234| 
         00000047 00C4 
    1708 00000048       $C$L4:    
    1709                      .dwpsn  file "C:/ti/motorware/motorware_1_01_00_18/sw/solutions/instaspin_foc/src/proj_lab03b.c",line
    1710 00000048 0A00-         INC       @_gLEDcnt             ; [CPU_] |508| 
    1711 00000049 1B00-         CMP       @_gLEDcnt,#3000       ; [CPU_] |508| 
         0000004a 0BB8 
    1712 0000004b 680A          B         $C$L5,LO              ; [CPU_] |508| 
    1713                      ; branchcc occurs ; [] |508| 
    1714                      .dwpsn  file "C:/ti/motorware/motorware_1_01_00_18/sw/modules/hal/boards/hvkit_rev1p1/f28x/f2802x/src
    1715 0000004c D008          MOVB      XAR0,#8               ; [CPU_] |759| 
    1716 0000004d 9A22          MOVB      AL,#34                ; [CPU_] |759| 
    1717 0000004e 8A95          MOVL      XAR4,*+XAR5[AR0]      ; [CPU_] |759| 
    1718              $C$DW$227       .dwtag  DW_TAG_TI_branch
    1719                      .dwattr $C$DW$227, DW_AT_low_pc(0x00)
    1720                      .dwattr $C$DW$227, DW_AT_name("_GPIO_toggle")
    1721                      .dwattr $C$DW$227, DW_AT_TI_call
    1722 0000004f 7640!         LCR       #_GPIO_toggle         ; [CPU_] |759| 
         00000050 0000 
    1723                      ; call occurs [#_GPIO_toggle] ; [] |759| 
    1724 00000051 761F-         MOVW      DP,#_gLEDcnt          ; [CPU_U] 
         00000052 0000 
    1725                      .dwpsn  file "C:/ti/motorware/motorware_1_01_00_18/sw/solutions/instaspin_foc/src/proj_lab03b.c",line
    1726 00000053 831C-         MOVL      XAR5,@_halHandle      ; [CPU_] |511| 
    1727 00000054 2B00-         MOV       @_gLEDcnt,#0          ; [CPU_] |511| 
    1728 00000055       $C$L5:    
    1729                      .dwpsn  file "C:/ti/motorware/motorware_1_01_00_18/sw/drivers/adc/src/32b/f28x/f2802x/adc.h",line 571
    1730 00000055 8AC5          MOVL      XAR4,*+XAR5[0]        ; [CPU_] |571| 
    1731 00000056 8D00          MOVL      XAR0,#26117           ; [CPU_] |571| 
         00000057 6605 
    1732 00000058 56BF          MOVB      *+XAR4[AR0],#1,UNC    ; [CPU_] |571| 
         00000059 0194 
    1733                      .dwpsn  file "C:/ti/motorware/motorware_1_01_00_18/sw/drivers/pie/src/32b/f28x/f2802x/pie.h",line 757
    1734 0000005a D078          MOVB      XAR0,#120             ; [CPU_] |757| 
    1735 0000005b 8A95          MOVL      XAR4,*+XAR5[AR0]      ; [CPU_] |757| 
    1736 0000005c 28CC          MOV       *+XAR4[1],#512        ; [CPU_] |757| 
         0000005d 0200 
TMS320C2000 Assembler PC v6.2.5 Thu Jun 22 13:27:58 2017

Tools Copyright (c) 1996-2014 Texas Instruments Incorporated
C:\Users\wmj\AppData\Local\Temp\0868410                              PAGE   35

    1737                      .dwpsn  file "C:/ti/motorware/motorware_1_01_00_18/sw/drivers/adc/src/32b/f28x/f2802x/adc.h",line 684
    1738 0000005e 8BC5          MOVL      XAR1,*+XAR5[0]        ; [CPU_] |684| 
    1739                      .dwpsn  file "C:/ti/motorware/motorware_1_01_00_18/sw/modules/hal/boards/hvkit_rev1p1/f28x/f2802x/src
    1740 0000005f D0A2          MOVB      XAR0,#162             ; [CPU_] |500| 
    1741 00000060 C595          MOVL      XAR7,*+XAR5[AR0]      ; [CPU_] |500| 
    1742                      .dwpsn  file "C:/ti/motorware/motorware_1_01_00_18/sw/drivers/adc/src/32b/f28x/f2802x/adc.h",line 684
    1743 00000061 0EC9          MOVU      ACC,*+XAR1[1]         ; [CPU_] |684| 
    1744                      .dwpsn  file "C:/ti/motorware/motorware_1_01_00_18/sw/modules/hal/boards/hvkit_rev1p1/f28x/f2802x/src
    1745 00000062 8F00-         MOVL      XAR4,#_gAdcData       ; [CPU_U] |501| 
         00000063 0026 
    1746                      .dwpsn  file "C:/ti/motorware/motorware_1_01_00_18/sw/drivers/adc/src/32b/f28x/f2802x/adc.h",line 684
    1747 00000064 1EAC          MOVL      XT,ACC                ; [CPU_] |684| 
    1748                      .dwpsn  file "C:/ti/motorware/motorware_1_01_00_18/sw/modules/hal/boards/hvkit_rev1p1/f28x/f2802x/src
    1749 00000065 0294          MOVB      ACC,#148              ; [CPU_] |500| 
    1750 00000066 07A5          ADDL      ACC,XAR5              ; [CPU_] |500| 
    1751 00000067 5605          IMPYL     P,XT,XAR7             ; [CPU_] |500| 
         00000068 00A7 
    1752 00000069 1EA6          MOVL      XAR6,ACC              ; [CPU_] |500| 
    1753 0000006a 5663          QMPYL     ACC,XT,XAR7           ; [CPU_] |500| 
         0000006b 00A7 
    1754 0000006c 568B          ASR64     ACC:P,#12             ; [CPU_] |500| 
    1755 0000006d A9A9          MOVL      ACC,P                 ; [CPU_] |500| 
    1756 0000006e 03C6          SUBL      ACC,*+XAR6[0]         ; [CPU_] |500| 
    1757                      .dwpsn  file "C:/ti/motorware/motorware_1_01_00_18/sw/modules/hal/boards/hvkit_rev1p1/f28x/f2802x/src
    1758 0000006f 1EC4          MOVL      *+XAR4[0],ACC         ; [CPU_] |501| 
    1759                      .dwpsn  file "C:/ti/motorware/motorware_1_01_00_18/sw/drivers/adc/src/32b/f28x/f2802x/adc.h",line 684
    1760 00000070 0ED1          MOVU      ACC,*+XAR1[2]         ; [CPU_] |684| 
    1761 00000071 1EAC          MOVL      XT,ACC                ; [CPU_] |684| 
    1762                      .dwpsn  file "C:/ti/motorware/motorware_1_01_00_18/sw/modules/hal/boards/hvkit_rev1p1/f28x/f2802x/src
    1763 00000072 5605          IMPYL     P,XT,XAR7             ; [CPU_] |505| 
         00000073 00A7 
    1764 00000074 5663          QMPYL     ACC,XT,XAR7           ; [CPU_] |505| 
         00000075 00A7 
    1765 00000076 568B          ASR64     ACC:P,#12             ; [CPU_] |505| 
    1766 00000077 A9A9          MOVL      ACC,P                 ; [CPU_] |505| 
    1767 00000078 03D6          SUBL      ACC,*+XAR6[2]         ; [CPU_] |505| 
    1768                      .dwpsn  file "C:/ti/motorware/motorware_1_01_00_18/sw/modules/hal/boards/hvkit_rev1p1/f28x/f2802x/src
    1769 00000079 1ED4          MOVL      *+XAR4[2],ACC         ; [CPU_] |506| 
    1770                      .dwpsn  file "C:/ti/motorware/motorware_1_01_00_18/sw/drivers/adc/src/32b/f28x/f2802x/adc.h",line 684
    1771 0000007a 0ED9          MOVU      ACC,*+XAR1[3]         ; [CPU_] |684| 
    1772 0000007b 1EAC          MOVL      XT,ACC                ; [CPU_] |684| 
    1773                      .dwpsn  file "C:/ti/motorware/motorware_1_01_00_18/sw/modules/hal/boards/hvkit_rev1p1/f28x/f2802x/src
    1774 0000007c 5605          IMPYL     P,XT,XAR7             ; [CPU_] |510| 
         0000007d 00A7 
    1775 0000007e 5663          QMPYL     ACC,XT,XAR7           ; [CPU_] |510| 
         0000007f 00A7 
    1776 00000080 568B          ASR64     ACC:P,#12             ; [CPU_] |510| 
    1777                      .dwpsn  file "C:/ti/motorware/motorware_1_01_00_18/sw/modules/hal/boards/hvkit_rev1p1/f28x/f2802x/src
    1778 00000081 C5A4          MOVL      XAR7,XAR4             ; [CPU_] |516| 
    1779                      .dwpsn  file "C:/ti/motorware/motorware_1_01_00_18/sw/modules/hal/boards/hvkit_rev1p1/f28x/f2802x/src
    1780 00000082 A9A9          MOVL      ACC,P                 ; [CPU_] |510| 
    1781                      .dwpsn  file "C:/ti/motorware/motorware_1_01_00_18/sw/modules/hal/boards/hvkit_rev1p1/f28x/f2802x/src
    1782 00000083 D0A4          MOVB      XAR0,#164             ; [CPU_] |515| 
    1783                      .dwpsn  file "C:/ti/motorware/motorware_1_01_00_18/sw/modules/hal/boards/hvkit_rev1p1/f28x/f2802x/src
    1784 00000084 03E6          SUBL      ACC,*+XAR6[4]         ; [CPU_] |510| 
TMS320C2000 Assembler PC v6.2.5 Thu Jun 22 13:27:58 2017

Tools Copyright (c) 1996-2014 Texas Instruments Incorporated
C:\Users\wmj\AppData\Local\Temp\0868410                              PAGE   36

    1785                      .dwpsn  file "C:/ti/motorware/motorware_1_01_00_18/sw/modules/hal/boards/hvkit_rev1p1/f28x/f2802x/src
    1786 00000085 DF06          ADDB      XAR7,#6               ; [CPU_] |516| 
    1787                      .dwpsn  file "C:/ti/motorware/motorware_1_01_00_18/sw/modules/hal/boards/hvkit_rev1p1/f28x/f2802x/src
    1788 00000086 1EE4          MOVL      *+XAR4[4],ACC         ; [CPU_] |511| 
    1789                      .dwpsn  file "C:/ti/motorware/motorware_1_01_00_18/sw/modules/hal/boards/hvkit_rev1p1/f28x/f2802x/src
    1790 00000087 8E95          MOVL      XAR0,*+XAR5[AR0]      ; [CPU_] |515| 
    1791                      .dwpsn  file "C:/ti/motorware/motorware_1_01_00_18/sw/drivers/adc/src/32b/f28x/f2802x/adc.h",line 684
    1792 00000088 0EE1          MOVU      ACC,*+XAR1[4]         ; [CPU_] |684| 
    1793 00000089 1EAC          MOVL      XT,ACC                ; [CPU_] |684| 
    1794                      .dwpsn  file "C:/ti/motorware/motorware_1_01_00_18/sw/modules/hal/boards/hvkit_rev1p1/f28x/f2802x/src
    1795 0000008a 029A          MOVB      ACC,#154              ; [CPU_] |515| 
    1796 0000008b 07A5          ADDL      ACC,XAR5              ; [CPU_] |515| 
    1797 0000008c 5605          IMPYL     P,XT,XAR0             ; [CPU_] |515| 
         0000008d 00A0 
    1798 0000008e 1EA6          MOVL      XAR6,ACC              ; [CPU_] |515| 
    1799 0000008f 5663          QMPYL     ACC,XT,XAR0           ; [CPU_] |515| 
         00000090 00A0 
    1800 00000091 568B          ASR64     ACC:P,#12             ; [CPU_] |515| 
    1801 00000092 A9A9          MOVL      ACC,P                 ; [CPU_] |515| 
    1802 00000093 03C6          SUBL      ACC,*+XAR6[0]         ; [CPU_] |515| 
    1803                      .dwpsn  file "C:/ti/motorware/motorware_1_01_00_18/sw/modules/hal/boards/hvkit_rev1p1/f28x/f2802x/src
    1804 00000094 1EC7          MOVL      *+XAR7[0],ACC         ; [CPU_] |516| 
    1805                      .dwpsn  file "C:/ti/motorware/motorware_1_01_00_18/sw/drivers/adc/src/32b/f28x/f2802x/adc.h",line 684
    1806 00000095 0EE9          MOVU      ACC,*+XAR1[5]         ; [CPU_] |684| 
    1807 00000096 1EAC          MOVL      XT,ACC                ; [CPU_] |684| 
    1808                      .dwpsn  file "C:/ti/motorware/motorware_1_01_00_18/sw/modules/hal/boards/hvkit_rev1p1/f28x/f2802x/src
    1809 00000097 5605          IMPYL     P,XT,XAR0             ; [CPU_] |520| 
         00000098 00A0 
    1810 00000099 5663          QMPYL     ACC,XT,XAR0           ; [CPU_] |520| 
         0000009a 00A0 
    1811 0000009b 568B          ASR64     ACC:P,#12             ; [CPU_] |520| 
    1812 0000009c A9A9          MOVL      ACC,P                 ; [CPU_] |520| 
    1813 0000009d 03D6          SUBL      ACC,*+XAR6[2]         ; [CPU_] |520| 
    1814                      .dwpsn  file "C:/ti/motorware/motorware_1_01_00_18/sw/modules/hal/boards/hvkit_rev1p1/f28x/f2802x/src
    1815 0000009e 1ED7          MOVL      *+XAR7[2],ACC         ; [CPU_] |521| 
    1816                      .dwpsn  file "C:/ti/motorware/motorware_1_01_00_18/sw/drivers/adc/src/32b/f28x/f2802x/adc.h",line 684
    1817 0000009f 0EF1          MOVU      ACC,*+XAR1[6]         ; [CPU_] |684| 
    1818 000000a0 1EAC          MOVL      XT,ACC                ; [CPU_] |684| 
    1819                      .dwpsn  file "C:/ti/motorware/motorware_1_01_00_18/sw/modules/hal/boards/hvkit_rev1p1/f28x/f2802x/src
    1820 000000a1 5605          IMPYL     P,XT,XAR0             ; [CPU_] |525| 
         000000a2 00A0 
    1821 000000a3 5663          QMPYL     ACC,XT,XAR0           ; [CPU_] |525| 
         000000a4 00A0 
    1822 000000a5 568B          ASR64     ACC:P,#12             ; [CPU_] |525| 
    1823 000000a6 A9A9          MOVL      ACC,P                 ; [CPU_] |525| 
    1824 000000a7 03E6          SUBL      ACC,*+XAR6[4]         ; [CPU_] |525| 
    1825                      .dwpsn  file "C:/ti/motorware/motorware_1_01_00_18/sw/modules/hal/boards/hvkit_rev1p1/f28x/f2802x/src
    1826 000000a8 1EE7          MOVL      *+XAR7[4],ACC         ; [CPU_] |526| 
    1827                      .dwpsn  file "C:/ti/motorware/motorware_1_01_00_18/sw/drivers/adc/src/32b/f28x/f2802x/adc.h",line 684
    1828 000000a9 0EF9          MOVU      ACC,*+XAR1[7]         ; [CPU_] |684| 
    1829 000000aa 1EAC          MOVL      XT,ACC                ; [CPU_] |684| 
    1830                      .dwpsn  file "C:/ti/motorware/motorware_1_01_00_18/sw/modules/hal/boards/hvkit_rev1p1/f28x/f2802x/src
    1831 000000ab 5605          IMPYL     P,XT,XAR0             ; [CPU_] |530| 
         000000ac 00A0 
    1832 000000ad 5663          QMPYL     ACC,XT,XAR0           ; [CPU_] |530| 
TMS320C2000 Assembler PC v6.2.5 Thu Jun 22 13:27:58 2017

Tools Copyright (c) 1996-2014 Texas Instruments Incorporated
C:\Users\wmj\AppData\Local\Temp\0868410                              PAGE   37

         000000ae 00A0 
    1833                      .dwpsn  file "C:/ti/motorware/motorware_1_01_00_18/sw/modules/hal/boards/hvkit_rev1p1/f28x/f2802x/src
    1834 000000af D00C          MOVB      XAR0,#12              ; [CPU_] |531| 
    1835                      .dwpsn  file "C:/ti/motorware/motorware_1_01_00_18/sw/modules/hal/boards/hvkit_rev1p1/f28x/f2802x/src
    1836 000000b0 568B          ASR64     ACC:P,#12             ; [CPU_] |530| 
    1837                      .dwpsn  file "C:/ti/motorware/motorware_1_01_00_18/sw/modules/hal/boards/hvkit_rev1p1/f28x/f2802x/src
    1838 000000b1 A994          MOVL      *+XAR4[AR0],P         ; [CPU_] |531| 
    1839                      .dwpsn  file "C:/ti/motorware/motorware_1_01_00_18/sw/solutions/instaspin_foc/src/proj_lab03b.c",line
    1840 000000b2 A842          MOVL      *-SP[2],XAR4          ; [CPU_] |524| 
    1841 000000b3 8F00-         MOVL      XAR4,#_gPwmData       ; [CPU_U] |524| 
         000000b4 0020 
    1842 000000b5 A844          MOVL      *-SP[4],XAR4          ; [CPU_] |524| 
    1843 000000b6 8A16-         MOVL      XAR4,@_ctrlHandle     ; [CPU_] |524| 
    1844              $C$DW$228       .dwtag  DW_TAG_TI_branch
    1845                      .dwattr $C$DW$228, DW_AT_low_pc(0x00)
    1846                      .dwattr $C$DW$228, DW_AT_name("_CTRL_run")
    1847                      .dwattr $C$DW$228, DW_AT_TI_call
    1848 000000b7 7640!         LCR       #_CTRL_run            ; [CPU_] |524| 
         000000b8 0000 
    1849                      ; call occurs [#_CTRL_run] ; [] |524| 
    1850 000000b9 761F-         MOVW      DP,#_halHandle        ; [CPU_U] 
         000000ba 0000 
    1851 000000bb BE02          MOVB      XAR6,#2               ; [CPU_] 
    1852 000000bc 3B01          SETC      SXM                   ; [CPU_] 
    1853 000000bd 76C0-         MOVL      XAR7,#_gPwmData       ; [CPU_U] 
         000000be 0020 
    1854 000000bf 061C-         MOVL      ACC,@_halHandle       ; [CPU_] 
    1855 000000c0 097C          ADDB      ACC,#124              ; [CPU_] 
    1856 000000c1 8AA9          MOVL      XAR4,ACC              ; [CPU_] 
    1857 000000c2       $C$L6:    
    1858                      .dwpsn  file "C:/ti/motorware/motorware_1_01_00_18/sw/modules/hal/boards/hvkit_rev1p1/f28x/f2802x/src
    1859 000000c2 83C4          MOVL      XAR5,*+XAR4[0]        ; [CPU_] |1052| 
    1860                      .dwpsn  file "C:/ti/motorware/motorware_1_01_00_18/sw/drivers/pwm/src/32b/f28x/f2802x/pwm.h",line 171
    1861 000000c3 FF2F          MOV       ACC,#-512 << 15       ; [CPU_] |1717| 
         000000c4 FE00 
    1862 000000c5 8787          MOVL      XT,*XAR7++            ; [CPU_] |1717| 
    1863 000000c6 5605          IMPYL     P,XT,ACC              ; [CPU_] |1717| 
         000000c7 00A9 
    1864                      .dwpsn  file "C:/ti/motorware/motorware_1_01_00_18/sw/modules/hal/boards/hvkit_rev1p1/f28x/f2802x/src
    1865 000000c8 58ED          MOVZ      AR0,*+XAR5[5]         ; [CPU_] |1052| 
    1866                      .dwpsn  file "C:/ti/motorware/motorware_1_01_00_18/sw/drivers/pwm/src/32b/f28x/f2802x/pwm.h",line 171
    1867 000000c9 5663          QMPYL     ACC,XT,ACC            ; [CPU_] |1717| 
         000000ca 00A9 
    1868                      .dwpsn  file "C:/ti/motorware/motorware_1_01_00_18/sw/modules/hal/boards/hvkit_rev1p1/f28x/f2802x/src
    1869 000000cb DC02          ADDB      XAR4,#2               ; [CPU_] |1049| 
    1870                      .dwpsn  file "C:/ti/motorware/motorware_1_01_00_18/sw/drivers/pwm/src/32b/f28x/f2802x/pwm.h",line 171
    1871 000000cc 56A7          LSL64     ACC:P,#8              ; [CPU_] |1717| 
    1872 000000cd 2BAB          MOV       PL,#0                 ; [CPU_] |1717| 
    1873 000000ce 28AA          MOV       PH,#128               ; [CPU_] |1717| 
         000000cf 0080 
    1874 000000d0 A9A2          MOVL      XAR2,P                ; [CPU_] |1717| 
    1875 000000d1 2BAB          MOV       PL,#0                 ; [CPU_] |1717| 
    1876 000000d2 28AA          MOV       PH,#65408             ; [CPU_] |1717| 
         000000d3 FF80 
    1877 000000d4 5650          MINL      ACC,XAR2              ; [CPU_] |1717| 
TMS320C2000 Assembler PC v6.2.5 Thu Jun 22 13:27:58 2017

Tools Copyright (c) 1996-2014 Texas Instruments Incorporated
C:\Users\wmj\AppData\Local\Temp\0868410                              PAGE   38

         000000d5 00A2 
    1878 000000d6 5661          MAXL      ACC,P                 ; [CPU_] |1717| 
         000000d7 00AB 
    1879 000000d8 FF1F          ADD       ACC,#256 << 15        ; [CPU_] |1717| 
         000000d9 0100 
    1880 000000da 1EAC          MOVL      XT,ACC                ; [CPU_] |1717| 
    1881 000000db 5605          IMPYL     P,XT,XAR0             ; [CPU_] |1717| 
         000000dc 00A0 
    1882 000000dd 5663          QMPYL     ACC,XT,XAR0           ; [CPU_] |1717| 
         000000de 00A0 
    1883 000000df 56A7          LSL64     ACC:P,#8              ; [CPU_] |1717| 
    1884 000000e0 3100          MOV       P,#0                  ; [CPU_] |1717| 
    1885 000000e1 5650          MINL      ACC,XAR0              ; [CPU_] |1717| 
         000000e2 00A0 
    1886 000000e3 D009          MOVB      XAR0,#9               ; [CPU_] |1717| 
    1887 000000e4 5661          MAXL      ACC,P                 ; [CPU_] |1717| 
         000000e5 00AB 
    1888 000000e6 9695          MOV       *+XAR5[AR0],AL        ; [CPU_] |1717| 
    1889                      .dwpsn  file "C:/ti/motorware/motorware_1_01_00_18/sw/modules/hal/boards/hvkit_rev1p1/f28x/f2802x/src
    1890 000000e7 000E          BANZ      $C$L6,AR6--           ; [CPU_] |1049| 
         000000e8 FFDB 
    1891                      ; branchcc occurs ; [] |1049| 
    1892 000000e9 761F-         MOVW      DP,#_ctrlHandle       ; [CPU_U] 
         000000ea 0000 
    1893                      .dwpsn  file "C:/ti/motorware/motorware_1_01_00_18/sw/solutions/instaspin_foc/src/proj_lab03b.c",line
    1894 000000eb 8A16-         MOVL      XAR4,@_ctrlHandle     ; [CPU_] |532| 
    1895              $C$DW$229       .dwtag  DW_TAG_TI_branch
    1896                      .dwattr $C$DW$229, DW_AT_low_pc(0x00)
    1897                      .dwattr $C$DW$229, DW_AT_name("_CTRL_setup")
    1898                      .dwattr $C$DW$229, DW_AT_TI_call
    1899 000000ec 7640!         LCR       #_CTRL_setup          ; [CPU_] |532| 
         000000ed 0000 
    1900                      ; call occurs [#_CTRL_setup] ; [] |532| 
    1901 000000ee 761F-         MOVW      DP,#_halHandle        ; [CPU_U] 
         000000ef 0000 
    1902                      .dwpsn  file "C:/ti/motorware/motorware_1_01_00_18/sw/modules/hal/boards/hvkit_rev1p1/f28x/f2802x/src
    1903 000000f0 8A1C-         MOVL      XAR4,@_halHandle      ; [CPU_] |600| 
    1904 000000f1 D08C          MOVB      XAR0,#140             ; [CPU_] |600| 
    1905 000000f2 8A94          MOVL      XAR4,*+XAR4[AR0]      ; [CPU_] |600| 
    1906              $C$DW$230       .dwtag  DW_TAG_TI_branch
    1907                      .dwattr $C$DW$230, DW_AT_low_pc(0x00)
    1908                      .dwattr $C$DW$230, DW_AT_name("_TIMER_getCount")
    1909                      .dwattr $C$DW$230, DW_AT_TI_call
    1910 000000f3 7640'         LCR       #_TIMER_getCount      ; [CPU_] |600| 
         000000f4 00C3 
    1911                      ; call occurs [#_TIMER_getCount] ; [] |600| 
    1912                      .dwpsn  file "C:/ti/motorware/motorware_1_01_00_18/sw/solutions/instaspin_foc/src/proj_lab03b.c",line
    1913 000000f5 8A1A-         MOVL      XAR4,@_cpu_usageHandle ; [CPU_] |537| 
    1914                      .dwpsn  file "C:/ti/motorware/motorware_1_01_00_18/sw/modules/cpu_usage/src/32b/cpu_usage.h",line 233
    1915 000000f6 C4D4          MOVL      XAR6,*+XAR4[2]        ; [CPU_] |233| 
    1916                      .dwpsn  file "C:/ti/motorware/motorware_1_01_00_18/sw/modules/cpu_usage/src/32b/cpu_usage.h",line 156
    1917 000000f7 D00E          MOVB      XAR0,#14              ; [CPU_] |156| 
    1918                      .dwpsn  file "C:/ti/motorware/motorware_1_01_00_18/sw/modules/cpu_usage/src/32b/cpu_usage.h",line 233
    1919 000000f8 C2E4          MOVL      *+XAR4[4],XAR6        ; [CPU_] |233| 
    1920                      .dwpsn  file "C:/ti/motorware/motorware_1_01_00_18/sw/modules/cpu_usage/src/32b/cpu_usage.h",line 220
TMS320C2000 Assembler PC v6.2.5 Thu Jun 22 13:27:58 2017

Tools Copyright (c) 1996-2014 Texas Instruments Incorporated
C:\Users\wmj\AppData\Local\Temp\0868410                              PAGE   39

    1921 000000f9 1ED4          MOVL      *+XAR4[2],ACC         ; [CPU_] |220| 
    1922                      .dwpsn  file "C:/ti/motorware/motorware_1_01_00_18/sw/modules/cpu_usage/src/32b/cpu_usage.h",line 156
    1923 000000fa C594          MOVL      XAR7,*+XAR4[AR0]      ; [CPU_] |156| 
    1924                      .dwpsn  file "C:/ti/motorware/motorware_1_01_00_18/sw/modules/cpu_usage/src/32b/cpu_usage.h",line 79,
    1925 000000fb 82C4          MOVL      XAR3,*+XAR4[0]        ; [CPU_] |79| 
    1926                      .dwpsn  file "C:/ti/motorware/motorware_1_01_00_18/sw/modules/cpu_usage/src/32b/cpu_usage.h",line 167
    1927 000000fc D010          MOVB      XAR0,#16              ; [CPU_] |167| 
    1928 000000fd 8794          MOVL      XT,*+XAR4[AR0]        ; [CPU_] |167| 
    1929                      .dwpsn  file "C:/ti/motorware/motorware_1_01_00_18/sw/modules/cpu_usage/src/32b/cpu_usage.h",line 178
    1930 000000fe D012          MOVB      XAR0,#18              ; [CPU_] |178| 
    1931 000000ff 8694          MOVL      XAR2,*+XAR4[AR0]      ; [CPU_] |178| 
    1932                      .dwpsn  file "C:/ti/motorware/motorware_1_01_00_18/sw/modules/cpu_usage/src/32b/cpu_usage.h",line 123
    1933 00000100 D008          MOVB      XAR0,#8               ; [CPU_] |123| 
    1934 00000101 A394          MOVL      P,*+XAR4[AR0]         ; [CPU_] |123| 
    1935                      .dwpsn  file "C:/ti/motorware/motorware_1_01_00_18/sw/modules/cpu_usage/src/32b/cpu_usage.h",line 134
    1936 00000102 D00A          MOVB      XAR0,#10              ; [CPU_] |134| 
    1937 00000103 8394          MOVL      XAR5,*+XAR4[AR0]      ; [CPU_] |134| 
    1938                      .dwpsn  file "C:/ti/motorware/motorware_1_01_00_18/sw/modules/cpu_usage/src/32b/cpu_usage.h",line 145
    1939 00000104 D00C          MOVB      XAR0,#12              ; [CPU_] |145| 
    1940 00000105 0694          MOVL      ACC,*+XAR4[AR0]       ; [CPU_] |145| 
    1941 00000106 1E48          MOVL      *-SP[8],ACC           ; [CPU_] |145| 
    1942                      .dwpsn  file "C:/ti/motorware/motorware_1_01_00_18/sw/modules/cpu_usage/src/32b/cpu_usage.h",line 90,
    1943 00000107 8BD4          MOVL      XAR1,*+XAR4[2]        ; [CPU_] |90| 
    1944                      .dwpsn  file "C:/ti/motorware/motorware_1_01_00_18/sw/modules/cpu_usage/src/32b/cpu_usage.h",line 189
    1945 00000108 D014          MOVB      XAR0,#20              ; [CPU_] |189| 
    1946                      .dwpsn  file "C:/ti/motorware/motorware_1_01_00_18/sw/modules/cpu_usage/src/32b/cpu_usage.h",line 101
    1947 00000109 06E4          MOVL      ACC,*+XAR4[4]         ; [CPU_] |101| 
    1948 0000010a 1E46          MOVL      *-SP[6],ACC           ; [CPU_] |101| 
    1949                      .dwpsn  file "C:/ti/motorware/motorware_1_01_00_18/sw/modules/cpu_usage/src/32b/cpu_usage.h",line 376
    1950 0000010b 0FA1          CMPL      ACC,XAR1              ; [CPU_] |376| 
    1951                      .dwpsn  file "C:/ti/motorware/motorware_1_01_00_18/sw/modules/cpu_usage/src/32b/cpu_usage.h",line 189
    1952 0000010c 8894          MOVZ      AR6,*+XAR4[AR0]       ; [CPU_] |189| 
    1953                      .dwpsn  file "C:/ti/motorware/motorware_1_01_00_18/sw/modules/cpu_usage/src/32b/cpu_usage.h",line 376
    1954 0000010d 6705          B         $C$L7,HIS             ; [CPU_] |376| 
    1955                      ; branchcc occurs ; [] |376| 
    1956 0000010e 8E46          MOVL      XAR0,*-SP[6]          ; [CPU_] |376| 
    1957 0000010f A2A9          MOVL      ACC,XAR3              ; [CPU_] |376| 
    1958 00000110 07A0          ADDL      ACC,XAR0              ; [CPU_] |376| 
    1959 00000111 6F02          B         $C$L8,UNC             ; [CPU_] |376| 
    1960                      ; branch occurs ; [] |376| 
    1961 00000112       $C$L7:    
    1962 00000112 0646          MOVL      ACC,*-SP[6]           ; [CPU_] 
    1963 00000113       $C$L8:    
    1964 00000113 03A1          SUBL      ACC,XAR1              ; [CPU_] |376| 
    1965                      .dwpsn  file "C:/ti/motorware/motorware_1_01_00_18/sw/modules/cpu_usage/src/32b/cpu_usage.h",line 390
    1966 00000114 DD01          ADDB      XAR5,#1               ; [CPU_] |390| 
    1967                      .dwpsn  file "C:/ti/motorware/motorware_1_01_00_18/sw/modules/cpu_usage/src/32b/cpu_usage.h",line 376
    1968 00000115 0901          ADDB      ACC,#1                ; [CPU_] |376| 
    1969 00000116 8EA9          MOVL      XAR0,ACC              ; [CPU_] |376| 
    1970                      .dwpsn  file "C:/ti/motorware/motorware_1_01_00_18/sw/modules/cpu_usage/src/32b/cpu_usage.h",line 384
    1971 00000117 5657          ADDUL     P,XAR0                ; [CPU_] |384| 
         00000118 00A0 
    1972                      .dwpsn  file "C:/ti/motorware/motorware_1_01_00_18/sw/modules/cpu_usage/src/32b/cpu_usage.h",line 390
    1973 00000119 0648          MOVL      ACC,*-SP[8]           ; [CPU_] |390| 
    1974 0000011a 0FA5          CMPL      ACC,XAR5              ; [CPU_] |390| 
TMS320C2000 Assembler PC v6.2.5 Thu Jun 22 13:27:58 2017

Tools Copyright (c) 1996-2014 Texas Instruments Incorporated
C:\Users\wmj\AppData\Local\Temp\0868410                              PAGE   40

    1975 0000011b 6608          B         $C$L9,HI              ; [CPU_] |390| 
    1976                      ; branchcc occurs ; [] |390| 
    1977                      .dwpsn  file "C:/ti/motorware/motorware_1_01_00_18/sw/modules/cpu_usage/src/32b/cpu_usage.h",line 393
    1978 0000011c 0200          MOVB      ACC,#0                ; [CPU_] |393| 
    1979 0000011d F61F          RPT       #31
    1980 0000011e 5617  ||     SUBCUL    ACC,XAR5              ; [CPU_] |393| 
         0000011f 00A5 
    1981                      .dwpsn  file "C:/ti/motorware/motorware_1_01_00_18/sw/modules/cpu_usage/src/32b/cpu_usage.h",line 397
    1982 00000120 D500          MOVB      XAR5,#0               ; [CPU_] |397| 
    1983                      .dwpsn  file "C:/ti/motorware/motorware_1_01_00_18/sw/modules/cpu_usage/src/32b/cpu_usage.h",line 393
    1984 00000121 A9AC          MOVL      XT,P                  ; [CPU_] |393| 
    1985                      .dwpsn  file "C:/ti/motorware/motorware_1_01_00_18/sw/modules/cpu_usage/src/32b/cpu_usage.h",line 396
    1986 00000122 3100          MOV       P,#0                  ; [CPU_] |396| 
    1987 00000123       $C$L9:    
    1988 00000123 06A7          MOVL      ACC,XAR7              ; [CPU_] 
    1989                      .dwpsn  file "C:/ti/motorware/motorware_1_01_00_18/sw/modules/cpu_usage/src/32b/cpu_usage.h",line 402
    1990 00000124 0FA0          CMPL      ACC,XAR0              ; [CPU_] |402| 
    1991 00000125 6902          B         $C$L10,LOS            ; [CPU_] |402| 
    1992                      ; branchcc occurs ; [] |402| 
    1993                      .dwpsn  file "C:/ti/motorware/motorware_1_01_00_18/sw/modules/cpu_usage/src/32b/cpu_usage.h",line 404
    1994 00000126 C5A0          MOVL      XAR7,XAR0             ; [CPU_] |404| 
    1995 00000127       $C$L10:    
    1996 00000127 AAA9          MOVL      ACC,XAR2              ; [CPU_] 
    1997                      .dwpsn  file "C:/ti/motorware/motorware_1_01_00_18/sw/modules/cpu_usage/src/32b/cpu_usage.h",line 408
    1998 00000128 0FA0          CMPL      ACC,XAR0              ; [CPU_] |408| 
    1999 00000129 6702          B         $C$L11,HIS            ; [CPU_] |408| 
    2000                      ; branchcc occurs ; [] |408| 
    2001                      .dwpsn  file "C:/ti/motorware/motorware_1_01_00_18/sw/modules/cpu_usage/src/32b/cpu_usage.h",line 410
    2002 0000012a 86A0          MOVL      XAR2,XAR0             ; [CPU_] |410| 
    2003 0000012b       $C$L11:    
    2004 0000012b 92A6          MOV       AL,AR6                ; [CPU_] 
    2005                      .dwpsn  file "C:/ti/motorware/motorware_1_01_00_18/sw/modules/cpu_usage/src/32b/cpu_usage.h",line 414
    2006 0000012c 5201          CMPB      AL,#1                 ; [CPU_] |414| 
    2007 0000012d ED09          BF        $C$L12,NEQ            ; [CPU_] |414| 
    2008                      ; branchcc occurs ; [] |414| 
    2009                      .dwpsn  file "C:/ti/motorware/motorware_1_01_00_18/sw/modules/cpu_usage/src/32b/cpu_usage.h",line 424
    2010 0000012e 0200          MOVB      ACC,#0                ; [CPU_] |424| 
    2011                      .dwpsn  file "C:/ti/motorware/motorware_1_01_00_18/sw/modules/cpu_usage/src/32b/cpu_usage.h",line 423
    2012 0000012f C5A3          MOVL      XAR7,XAR3             ; [CPU_] |423| 
    2013                      .dwpsn  file "C:/ti/motorware/motorware_1_01_00_18/sw/modules/cpu_usage/src/32b/cpu_usage.h",line 418
    2014 00000130 D000          MOVB      XAR0,#0               ; [CPU_] |418| 
    2015                      .dwpsn  file "C:/ti/motorware/motorware_1_01_00_18/sw/modules/cpu_usage/src/32b/cpu_usage.h",line 420
    2016 00000131 3100          MOV       P,#0                  ; [CPU_] |420| 
    2017                      .dwpsn  file "C:/ti/motorware/motorware_1_01_00_18/sw/modules/cpu_usage/src/32b/cpu_usage.h",line 421
    2018 00000132 D500          MOVB      XAR5,#0               ; [CPU_] |421| 
    2019                      .dwpsn  file "C:/ti/motorware/motorware_1_01_00_18/sw/modules/cpu_usage/src/32b/cpu_usage.h",line 425
    2020 00000133 D200          MOVB      XAR2,#0               ; [CPU_] |425| 
    2021                      .dwpsn  file "C:/ti/motorware/motorware_1_01_00_18/sw/modules/cpu_usage/src/32b/cpu_usage.h",line 427
    2022 00000134 BE00          MOVB      XAR6,#0               ; [CPU_] |427| 
    2023                      .dwpsn  file "C:/ti/motorware/motorware_1_01_00_18/sw/modules/cpu_usage/src/32b/cpu_usage.h",line 424
    2024 00000135 1EAC          MOVL      XT,ACC                ; [CPU_] |424| 
    2025 00000136       $C$L12:    
    2026                      .dwpsn  file "C:/ti/motorware/motorware_1_01_00_18/sw/modules/cpu_usage/src/32b/cpu_usage.h",line 246
    2027 00000136 3AF4          MOVL      *+XAR4[6],XAR0        ; [CPU_] |246| 
    2028                      .dwpsn  file "C:/ti/motorware/motorware_1_01_00_18/sw/modules/cpu_usage/src/32b/cpu_usage.h",line 259
TMS320C2000 Assembler PC v6.2.5 Thu Jun 22 13:27:58 2017

Tools Copyright (c) 1996-2014 Texas Instruments Incorporated
C:\Users\wmj\AppData\Local\Temp\0868410                              PAGE   41

    2029 00000137 D008          MOVB      XAR0,#8               ; [CPU_] |259| 
    2030 00000138 A994          MOVL      *+XAR4[AR0],P         ; [CPU_] |259| 
    2031                      .dwpsn  file "C:/ti/motorware/motorware_1_01_00_18/sw/modules/cpu_usage/src/32b/cpu_usage.h",line 272
    2032 00000139 D00A          MOVB      XAR0,#10              ; [CPU_] |272| 
    2033 0000013a A094          MOVL      *+XAR4[AR0],XAR5      ; [CPU_] |272| 
    2034                      .dwpsn  file "C:/ti/motorware/motorware_1_01_00_18/sw/modules/cpu_usage/src/32b/cpu_usage.h",line 298
    2035 0000013b D00E          MOVB      XAR0,#14              ; [CPU_] |298| 
    2036 0000013c C394          MOVL      *+XAR4[AR0],XAR7      ; [CPU_] |298| 
    2037                      .dwpsn  file "C:/ti/motorware/motorware_1_01_00_18/sw/modules/cpu_usage/src/32b/cpu_usage.h",line 311
    2038 0000013d D010          MOVB      XAR0,#16              ; [CPU_] |311| 
    2039 0000013e AB94          MOVL      *+XAR4[AR0],XT        ; [CPU_] |311| 
    2040                      .dwpsn  file "C:/ti/motorware/motorware_1_01_00_18/sw/modules/cpu_usage/src/32b/cpu_usage.h",line 324
    2041 0000013f D012          MOVB      XAR0,#18              ; [CPU_] |324| 
    2042 00000140 AA94          MOVL      *+XAR4[AR0],XAR2      ; [CPU_] |324| 
    2043                      .dwpsn  file "C:/ti/motorware/motorware_1_01_00_18/sw/modules/cpu_usage/src/32b/cpu_usage.h",line 337
    2044 00000141 D014          MOVB      XAR0,#20              ; [CPU_] |337| 
    2045 00000142 FE88          SUBB      SP,#8                 ; [CPU_U] 
    2046                      .dwcfi  cfa_offset, -18
    2047 00000143 7E94          MOV       *+XAR4[AR0],AR6       ; [CPU_] |337| 
    2048 00000144 C5BE          MOVL      XAR7,*--SP            ; [CPU_] 
    2049                      .dwcfi  cfa_offset, -16
    2050                      .dwcfi  restore_reg, 18
    2051 00000145 C4BE          MOVL      XAR6,*--SP            ; [CPU_] 
    2052                      .dwcfi  cfa_offset, -14
    2053                      .dwcfi  restore_reg, 16
    2054 00000146 83BE          MOVL      XAR5,*--SP            ; [CPU_] 
    2055                      .dwcfi  cfa_offset, -12
    2056                      .dwcfi  restore_reg, 14
    2057 00000147 8ABE          MOVL      XAR4,*--SP            ; [CPU_] 
    2058                      .dwcfi  cfa_offset, -10
    2059                      .dwcfi  restore_reg, 12
    2060 00000148 82BE          MOVL      XAR3,*--SP            ; [CPU_] 
    2061                      .dwcfi  cfa_offset, -8
    2062                      .dwcfi  restore_reg, 10
    2063 00000149 86BE          MOVL      XAR2,*--SP            ; [CPU_] 
    2064                      .dwcfi  cfa_offset, -6
    2065                      .dwcfi  restore_reg, 8
    2066 0000014a 87BE          MOVL      XT,*--SP              ; [CPU_] 
    2067                      .dwcfi  cfa_offset, -4
    2068                      .dwcfi  restore_reg, 22
    2069                      .dwcfi  restore_reg, 21
    2070 0000014b 0003          POP       AR1H:AR0H             ; [CPU_] 
    2071                      .dwcfi  cfa_offset, -2
    2072                      .dwcfi  restore_reg, 5
    2073                      .dwcfi  restore_reg, 7
    2074 0000014c 7617          NASP      ; [CPU_] 
    2075              $C$DW$231       .dwtag  DW_TAG_TI_branch
    2076                      .dwattr $C$DW$231, DW_AT_low_pc(0x00)
    2077                      .dwattr $C$DW$231, DW_AT_TI_return
    2078 0000014d 7602          IRET      ; [CPU_] 
    2079                      ; return occurs ; [] 
    2080                      .dwattr $C$DW$190, DW_AT_TI_end_file("C:/ti/motorware/motorware_1_01_00_18/sw/solutions/instaspin_foc
    2081                      .dwattr $C$DW$190, DW_AT_TI_end_line(0x221)
    2082                      .dwattr $C$DW$190, DW_AT_TI_end_column(0x01)
    2083                      .dwendentry
TMS320C2000 Assembler PC v6.2.5 Thu Jun 22 13:27:58 2017

Tools Copyright (c) 1996-2014 Texas Instruments Incorporated
C:\Users\wmj\AppData\Local\Temp\0868410                              PAGE   42

    2084                      .dwendtag $C$DW$190
    2085              
    2086 000000c8               .sect   ".text"
    2087                      .clink
    2088                      .global _main
    2089              
    2090              $C$DW$232       .dwtag  DW_TAG_subprogram, DW_AT_name("main")
    2091                      .dwattr $C$DW$232, DW_AT_low_pc(_main)
    2092                      .dwattr $C$DW$232, DW_AT_high_pc(0x00)
    2093                      .dwattr $C$DW$232, DW_AT_TI_symbol_name("_main")
    2094                      .dwattr $C$DW$232, DW_AT_external
    2095                      .dwattr $C$DW$232, DW_AT_TI_begin_file("C:/ti/motorware/motorware_1_01_00_18/sw/solutions/instaspin_f
    2096                      .dwattr $C$DW$232, DW_AT_TI_begin_line(0x93)
    2097                      .dwattr $C$DW$232, DW_AT_TI_begin_column(0x06)
    2098                      .dwattr $C$DW$232, DW_AT_TI_max_frame_size(-20)
    2099                      .dwpsn  file "C:/ti/motorware/motorware_1_01_00_18/sw/solutions/instaspin_foc/src/proj_lab03b.c",line
    2100              
    2101                      .dwfde $C$DW$CIE, _main
    2102              
    2103              ;***************************************************************
    2104              ;* FNAME: _main                         FR SIZE:  18           *
    2105              ;*                                                             *
    2106              ;* FUNCTION ENVIRONMENT                                        *
    2107              ;*                                                             *
    2108              ;* FUNCTION PROPERTIES                                         *
    2109              ;*                            6 Parameter,  5 Auto,  6 SOE     *
    2110              ;***************************************************************
    2111              
    2112              _main:
    2113              ;* AR4   assigned to $O$C14
    2114              ;* AR4   assigned to $O$C15
    2115              ;* AR4   assigned to $O$C16
    2116              ;* AR5   assigned to $O$C17
    2117              ;* AR5   assigned to $O$C18
    2118              ;* AR7   assigned to $O$C19
    2119              ;* AR5   assigned to $O$C20
    2120              ;* AR6   assigned to $O$C21
    2121              ;* AR5   assigned to $O$C22
    2122              ;* AR7   assigned to $O$C23
    2123              ;* AR0   assigned to $O$C24
    2124              ;* AR7   assigned to $O$C25
    2125              ;* AR0   assigned to $O$C26
    2126              ;* AR5   assigned to $O$C27
    2127              ;* AR5   assigned to $O$C28
    2128              ;* AR5   assigned to $O$C29
    2129              ;* AR4   assigned to $O$C30
    2130              ;* AR2   assigned to $O$K12
    2131              ;* AR5   assigned to _timerHandle
    2132              $C$DW$233       .dwtag  DW_TAG_variable, DW_AT_name("timerHandle")
    2133                      .dwattr $C$DW$233, DW_AT_TI_symbol_name("_timerHandle")
    2134                      .dwattr $C$DW$233, DW_AT_type(*$C$DW$T$112)
    2135                      .dwattr $C$DW$233, DW_AT_location[DW_OP_reg14]
    2136              ;* AL    assigned to _period
    2137              $C$DW$234       .dwtag  DW_TAG_variable, DW_AT_name("period")
    2138                      .dwattr $C$DW$234, DW_AT_TI_symbol_name("_period")
TMS320C2000 Assembler PC v6.2.5 Thu Jun 22 13:27:58 2017

Tools Copyright (c) 1996-2014 Texas Instruments Incorporated
C:\Users\wmj\AppData\Local\Temp\0868410                              PAGE   43

    2139                      .dwattr $C$DW$234, DW_AT_type(*$C$DW$T$38)
    2140                      .dwattr $C$DW$234, DW_AT_location[DW_OP_reg0]
    2141              ;* AR5   assigned to _timerHandle
    2142              $C$DW$235       .dwtag  DW_TAG_variable, DW_AT_name("timerHandle")
    2143                      .dwattr $C$DW$235, DW_AT_TI_symbol_name("_timerHandle")
    2144                      .dwattr $C$DW$235, DW_AT_type(*$C$DW$T$112)
    2145                      .dwattr $C$DW$235, DW_AT_location[DW_OP_reg14]
    2146              ;* AL    assigned to _period
    2147              $C$DW$236       .dwtag  DW_TAG_variable, DW_AT_name("period")
    2148                      .dwattr $C$DW$236, DW_AT_TI_symbol_name("_period")
    2149                      .dwattr $C$DW$236, DW_AT_type(*$C$DW$T$38)
    2150                      .dwattr $C$DW$236, DW_AT_location[DW_OP_reg0]
    2151              ;* AR5   assigned to _timerHandle
    2152              $C$DW$237       .dwtag  DW_TAG_variable, DW_AT_name("timerHandle")
    2153                      .dwattr $C$DW$237, DW_AT_TI_symbol_name("_timerHandle")
    2154                      .dwattr $C$DW$237, DW_AT_type(*$C$DW$T$112)
    2155                      .dwattr $C$DW$237, DW_AT_location[DW_OP_reg14]
    2156              ;* AR5   assigned to _pwmHandle
    2157              $C$DW$238       .dwtag  DW_TAG_variable, DW_AT_name("pwmHandle")
    2158                      .dwattr $C$DW$238, DW_AT_TI_symbol_name("_pwmHandle")
    2159                      .dwattr $C$DW$238, DW_AT_type(*$C$DW$T$107)
    2160                      .dwattr $C$DW$238, DW_AT_location[DW_OP_reg14]
    2161              ;* AR5   assigned to _pwmHandle
    2162              $C$DW$239       .dwtag  DW_TAG_variable, DW_AT_name("pwmHandle")
    2163                      .dwattr $C$DW$239, DW_AT_TI_symbol_name("_pwmHandle")
    2164                      .dwattr $C$DW$239, DW_AT_type(*$C$DW$T$107)
    2165                      .dwattr $C$DW$239, DW_AT_location[DW_OP_reg14]
    2166              ;* AR4   assigned to _pwmHandle
    2167              $C$DW$240       .dwtag  DW_TAG_variable, DW_AT_name("pwmHandle")
    2168                      .dwattr $C$DW$240, DW_AT_TI_symbol_name("_pwmHandle")
    2169                      .dwattr $C$DW$240, DW_AT_type(*$C$DW$T$107)
    2170                      .dwattr $C$DW$240, DW_AT_location[DW_OP_reg12]
    2171              ;* AR4   assigned to _obj
    2172              $C$DW$241       .dwtag  DW_TAG_variable, DW_AT_name("obj")
    2173                      .dwattr $C$DW$241, DW_AT_TI_symbol_name("_obj")
    2174                      .dwattr $C$DW$241, DW_AT_type(*$C$DW$T$224)
    2175                      .dwattr $C$DW$241, DW_AT_location[DW_OP_reg12]
    2176              ;* AL    assigned to _state
    2177              $C$DW$242       .dwtag  DW_TAG_variable, DW_AT_name("state")
    2178                      .dwattr $C$DW$242, DW_AT_TI_symbol_name("_state")
    2179                      .dwattr $C$DW$242, DW_AT_type(*$C$DW$T$39)
    2180                      .dwattr $C$DW$242, DW_AT_location[DW_OP_reg0]
    2181              ;* AL    assigned to _state
    2182              $C$DW$243       .dwtag  DW_TAG_variable, DW_AT_name("state")
    2183                      .dwattr $C$DW$243, DW_AT_TI_symbol_name("_state")
    2184                      .dwattr $C$DW$243, DW_AT_type(*$C$DW$T$39)
    2185                      .dwattr $C$DW$243, DW_AT_location[DW_OP_reg0]
    2186              ;* AR5   assigned to _pwmHandle
    2187              $C$DW$244       .dwtag  DW_TAG_variable, DW_AT_name("pwmHandle")
    2188                      .dwattr $C$DW$244, DW_AT_TI_symbol_name("_pwmHandle")
    2189                      .dwattr $C$DW$244, DW_AT_type(*$C$DW$T$107)
    2190                      .dwattr $C$DW$244, DW_AT_location[DW_OP_reg14]
    2191              ;* AR5   assigned to _pwmHandle
    2192              $C$DW$245       .dwtag  DW_TAG_variable, DW_AT_name("pwmHandle")
    2193                      .dwattr $C$DW$245, DW_AT_TI_symbol_name("_pwmHandle")
TMS320C2000 Assembler PC v6.2.5 Thu Jun 22 13:27:58 2017

Tools Copyright (c) 1996-2014 Texas Instruments Incorporated
C:\Users\wmj\AppData\Local\Temp\0868410                              PAGE   44

    2194                      .dwattr $C$DW$245, DW_AT_type(*$C$DW$T$107)
    2195                      .dwattr $C$DW$245, DW_AT_location[DW_OP_reg14]
    2196              ;* AR4   assigned to _pwmHandle
    2197              $C$DW$246       .dwtag  DW_TAG_variable, DW_AT_name("pwmHandle")
    2198                      .dwattr $C$DW$246, DW_AT_TI_symbol_name("_pwmHandle")
    2199                      .dwattr $C$DW$246, DW_AT_type(*$C$DW$T$107)
    2200                      .dwattr $C$DW$246, DW_AT_location[DW_OP_reg12]
    2201              ;* AR4   assigned to _obj
    2202              $C$DW$247       .dwtag  DW_TAG_variable, DW_AT_name("obj")
    2203                      .dwattr $C$DW$247, DW_AT_TI_symbol_name("_obj")
    2204                      .dwattr $C$DW$247, DW_AT_type(*$C$DW$T$224)
    2205                      .dwattr $C$DW$247, DW_AT_location[DW_OP_reg12]
    2206              ;* AH    assigned to _state
    2207              $C$DW$248       .dwtag  DW_TAG_variable, DW_AT_name("state")
    2208                      .dwattr $C$DW$248, DW_AT_TI_symbol_name("_state")
    2209                      .dwattr $C$DW$248, DW_AT_type(*$C$DW$T$39)
    2210                      .dwattr $C$DW$248, DW_AT_location[DW_OP_reg1]
    2211              ;* AR6   assigned to _pwmHandle
    2212              $C$DW$249       .dwtag  DW_TAG_variable, DW_AT_name("pwmHandle")
    2213                      .dwattr $C$DW$249, DW_AT_TI_symbol_name("_pwmHandle")
    2214                      .dwattr $C$DW$249, DW_AT_type(*$C$DW$T$107)
    2215                      .dwattr $C$DW$249, DW_AT_location[DW_OP_reg16]
    2216              ;* AR6   assigned to _pwmHandle
    2217              $C$DW$250       .dwtag  DW_TAG_variable, DW_AT_name("pwmHandle")
    2218                      .dwattr $C$DW$250, DW_AT_TI_symbol_name("_pwmHandle")
    2219                      .dwattr $C$DW$250, DW_AT_type(*$C$DW$T$107)
    2220                      .dwattr $C$DW$250, DW_AT_location[DW_OP_reg16]
    2221              ;* AR5   assigned to _pwmHandle
    2222              $C$DW$251       .dwtag  DW_TAG_variable, DW_AT_name("pwmHandle")
    2223                      .dwattr $C$DW$251, DW_AT_TI_symbol_name("_pwmHandle")
    2224                      .dwattr $C$DW$251, DW_AT_type(*$C$DW$T$107)
    2225                      .dwattr $C$DW$251, DW_AT_location[DW_OP_reg14]
    2226              ;* AR5   assigned to _obj
    2227              $C$DW$252       .dwtag  DW_TAG_variable, DW_AT_name("obj")
    2228                      .dwattr $C$DW$252, DW_AT_TI_symbol_name("_obj")
    2229                      .dwattr $C$DW$252, DW_AT_type(*$C$DW$T$224)
    2230                      .dwattr $C$DW$252, DW_AT_location[DW_OP_reg14]
    2231              ;* AR6   assigned to _handle
    2232              $C$DW$253       .dwtag  DW_TAG_variable, DW_AT_name("handle")
    2233                      .dwattr $C$DW$253, DW_AT_TI_symbol_name("_handle")
    2234                      .dwattr $C$DW$253, DW_AT_type(*$C$DW$T$96)
    2235                      .dwattr $C$DW$253, DW_AT_location[DW_OP_reg16]
    2236              ;* XT    assigned to _bias
    2237              $C$DW$254       .dwtag  DW_TAG_variable, DW_AT_name("bias")
    2238                      .dwattr $C$DW$254, DW_AT_TI_symbol_name("_bias")
    2239                      .dwattr $C$DW$254, DW_AT_type(*$C$DW$T$32)
    2240                      .dwattr $C$DW$254, DW_AT_location[DW_OP_reg21]
    2241              ;* AR6   assigned to _handle
    2242              $C$DW$255       .dwtag  DW_TAG_variable, DW_AT_name("handle")
    2243                      .dwattr $C$DW$255, DW_AT_TI_symbol_name("_handle")
    2244                      .dwattr $C$DW$255, DW_AT_type(*$C$DW$T$96)
    2245                      .dwattr $C$DW$255, DW_AT_location[DW_OP_reg16]
    2246              ;* AR5   assigned to _handle
    2247              $C$DW$256       .dwtag  DW_TAG_variable, DW_AT_name("handle")
    2248                      .dwattr $C$DW$256, DW_AT_TI_symbol_name("_handle")
TMS320C2000 Assembler PC v6.2.5 Thu Jun 22 13:27:58 2017

Tools Copyright (c) 1996-2014 Texas Instruments Incorporated
C:\Users\wmj\AppData\Local\Temp\0868410                              PAGE   45

    2249                      .dwattr $C$DW$256, DW_AT_type(*$C$DW$T$226)
    2250                      .dwattr $C$DW$256, DW_AT_location[DW_OP_reg14]
    2251              ;* AR5   assigned to _obj
    2252              $C$DW$257       .dwtag  DW_TAG_variable, DW_AT_name("obj")
    2253                      .dwattr $C$DW$257, DW_AT_TI_symbol_name("_obj")
    2254                      .dwattr $C$DW$257, DW_AT_type(*$C$DW$T$224)
    2255                      .dwattr $C$DW$257, DW_AT_location[DW_OP_reg14]
    2256              ;* AL    assigned to _bias
    2257              $C$DW$258       .dwtag  DW_TAG_variable, DW_AT_name("bias")
    2258                      .dwattr $C$DW$258, DW_AT_TI_symbol_name("_bias")
    2259                      .dwattr $C$DW$258, DW_AT_type(*$C$DW$T$32)
    2260                      .dwattr $C$DW$258, DW_AT_location[DW_OP_reg0]
    2261              ;* AL    assigned to _bias
    2262              $C$DW$259       .dwtag  DW_TAG_variable, DW_AT_name("bias")
    2263                      .dwattr $C$DW$259, DW_AT_TI_symbol_name("_bias")
    2264                      .dwattr $C$DW$259, DW_AT_type(*$C$DW$T$32)
    2265                      .dwattr $C$DW$259, DW_AT_location[DW_OP_reg0]
    2266              ;* AL    assigned to _bias
    2267              $C$DW$260       .dwtag  DW_TAG_variable, DW_AT_name("bias")
    2268                      .dwattr $C$DW$260, DW_AT_TI_symbol_name("_bias")
    2269                      .dwattr $C$DW$260, DW_AT_type(*$C$DW$T$32)
    2270                      .dwattr $C$DW$260, DW_AT_location[DW_OP_reg0]
    2271              ;* AR6   assigned to _pwmHandle
    2272              $C$DW$261       .dwtag  DW_TAG_variable, DW_AT_name("pwmHandle")
    2273                      .dwattr $C$DW$261, DW_AT_TI_symbol_name("_pwmHandle")
    2274                      .dwattr $C$DW$261, DW_AT_type(*$C$DW$T$107)
    2275                      .dwattr $C$DW$261, DW_AT_location[DW_OP_reg16]
    2276              ;* AR6   assigned to _pwmHandle
    2277              $C$DW$262       .dwtag  DW_TAG_variable, DW_AT_name("pwmHandle")
    2278                      .dwattr $C$DW$262, DW_AT_TI_symbol_name("_pwmHandle")
    2279                      .dwattr $C$DW$262, DW_AT_type(*$C$DW$T$107)
    2280                      .dwattr $C$DW$262, DW_AT_location[DW_OP_reg16]
    2281              ;* AR5   assigned to _pwmHandle
    2282              $C$DW$263       .dwtag  DW_TAG_variable, DW_AT_name("pwmHandle")
    2283                      .dwattr $C$DW$263, DW_AT_TI_symbol_name("_pwmHandle")
    2284                      .dwattr $C$DW$263, DW_AT_type(*$C$DW$T$107)
    2285                      .dwattr $C$DW$263, DW_AT_location[DW_OP_reg14]
    2286              ;* AR6   assigned to _pwmHandle
    2287              $C$DW$264       .dwtag  DW_TAG_variable, DW_AT_name("pwmHandle")
    2288                      .dwattr $C$DW$264, DW_AT_TI_symbol_name("_pwmHandle")
    2289                      .dwattr $C$DW$264, DW_AT_type(*$C$DW$T$107)
    2290                      .dwattr $C$DW$264, DW_AT_location[DW_OP_reg16]
    2291              ;* AR6   assigned to _pwmHandle
    2292              $C$DW$265       .dwtag  DW_TAG_variable, DW_AT_name("pwmHandle")
    2293                      .dwattr $C$DW$265, DW_AT_TI_symbol_name("_pwmHandle")
    2294                      .dwattr $C$DW$265, DW_AT_type(*$C$DW$T$107)
    2295                      .dwattr $C$DW$265, DW_AT_location[DW_OP_reg16]
    2296              ;* AR5   assigned to _pwmHandle
    2297              $C$DW$266       .dwtag  DW_TAG_variable, DW_AT_name("pwmHandle")
    2298                      .dwattr $C$DW$266, DW_AT_TI_symbol_name("_pwmHandle")
    2299                      .dwattr $C$DW$266, DW_AT_type(*$C$DW$T$107)
    2300                      .dwattr $C$DW$266, DW_AT_location[DW_OP_reg14]
    2301              ;* AR5   assigned to _obj
    2302              $C$DW$267       .dwtag  DW_TAG_variable, DW_AT_name("obj")
    2303                      .dwattr $C$DW$267, DW_AT_TI_symbol_name("_obj")
TMS320C2000 Assembler PC v6.2.5 Thu Jun 22 13:27:58 2017

Tools Copyright (c) 1996-2014 Texas Instruments Incorporated
C:\Users\wmj\AppData\Local\Temp\0868410                              PAGE   46

    2304                      .dwattr $C$DW$267, DW_AT_type(*$C$DW$T$224)
    2305                      .dwattr $C$DW$267, DW_AT_location[DW_OP_reg14]
    2306              ;* AL    assigned to _maxAccel_pu
    2307              $C$DW$268       .dwtag  DW_TAG_variable, DW_AT_name("maxAccel_pu")
    2308                      .dwattr $C$DW$268, DW_AT_TI_symbol_name("_maxAccel_pu")
    2309                      .dwattr $C$DW$268, DW_AT_type(*$C$DW$T$32)
    2310                      .dwattr $C$DW$268, DW_AT_location[DW_OP_reg0]
    2311              ;* AL    assigned to _state
    2312              $C$DW$269       .dwtag  DW_TAG_variable, DW_AT_name("state")
    2313                      .dwattr $C$DW$269, DW_AT_TI_symbol_name("_state")
    2314                      .dwattr $C$DW$269, DW_AT_type(*$C$DW$T$39)
    2315                      .dwattr $C$DW$269, DW_AT_location[DW_OP_reg0]
    2316              ;* AR5   assigned to _pwmHandle
    2317              $C$DW$270       .dwtag  DW_TAG_variable, DW_AT_name("pwmHandle")
    2318                      .dwattr $C$DW$270, DW_AT_TI_symbol_name("_pwmHandle")
    2319                      .dwattr $C$DW$270, DW_AT_type(*$C$DW$T$107)
    2320                      .dwattr $C$DW$270, DW_AT_location[DW_OP_reg14]
    2321              ;* AR5   assigned to _pwmHandle
    2322              $C$DW$271       .dwtag  DW_TAG_variable, DW_AT_name("pwmHandle")
    2323                      .dwattr $C$DW$271, DW_AT_TI_symbol_name("_pwmHandle")
    2324                      .dwattr $C$DW$271, DW_AT_type(*$C$DW$T$107)
    2325                      .dwattr $C$DW$271, DW_AT_location[DW_OP_reg14]
    2326              ;* AR4   assigned to _pwmHandle
    2327              $C$DW$272       .dwtag  DW_TAG_variable, DW_AT_name("pwmHandle")
    2328                      .dwattr $C$DW$272, DW_AT_TI_symbol_name("_pwmHandle")
    2329                      .dwattr $C$DW$272, DW_AT_type(*$C$DW$T$107)
    2330                      .dwattr $C$DW$272, DW_AT_location[DW_OP_reg12]
    2331              ;* AR4   assigned to _obj
    2332              $C$DW$273       .dwtag  DW_TAG_variable, DW_AT_name("obj")
    2333                      .dwattr $C$DW$273, DW_AT_TI_symbol_name("_obj")
    2334                      .dwattr $C$DW$273, DW_AT_type(*$C$DW$T$224)
    2335                      .dwattr $C$DW$273, DW_AT_location[DW_OP_reg12]
    2336              $C$DW$274       .dwtag  DW_TAG_variable, DW_AT_name("ctrlState")
    2337                      .dwattr $C$DW$274, DW_AT_TI_symbol_name("_ctrlState")
    2338                      .dwattr $C$DW$274, DW_AT_type(*$C$DW$T$43)
    2339                      .dwattr $C$DW$274, DW_AT_location[DW_OP_breg20 -11]
    2340              ;* AL    assigned to _flag_ctrlStateChanged
    2341              $C$DW$275       .dwtag  DW_TAG_variable, DW_AT_name("flag_ctrlStateChanged")
    2342                      .dwattr $C$DW$275, DW_AT_TI_symbol_name("_flag_ctrlStateChanged")
    2343                      .dwattr $C$DW$275, DW_AT_type(*$C$DW$T$39)
    2344                      .dwattr $C$DW$275, DW_AT_location[DW_OP_reg0]
    2345              ;* AR1   assigned to _obj
    2346              $C$DW$276       .dwtag  DW_TAG_variable, DW_AT_name("obj")
    2347                      .dwattr $C$DW$276, DW_AT_TI_symbol_name("_obj")
    2348                      .dwattr $C$DW$276, DW_AT_type(*$C$DW$T$203)
    2349                      .dwattr $C$DW$276, DW_AT_location[DW_OP_reg6]
    2350              ;* XT    assigned to _bias
    2351              $C$DW$277       .dwtag  DW_TAG_variable, DW_AT_name("bias")
    2352                      .dwattr $C$DW$277, DW_AT_TI_symbol_name("_bias")
    2353                      .dwattr $C$DW$277, DW_AT_type(*$C$DW$T$32)
    2354                      .dwattr $C$DW$277, DW_AT_location[DW_OP_reg21]
    2355              ;* AR3   assigned to _cnt
    2356              $C$DW$278       .dwtag  DW_TAG_variable, DW_AT_name("cnt")
    2357                      .dwattr $C$DW$278, DW_AT_TI_symbol_name("_cnt")
    2358                      .dwattr $C$DW$278, DW_AT_type(*$C$DW$T$33)
TMS320C2000 Assembler PC v6.2.5 Thu Jun 22 13:27:58 2017

Tools Copyright (c) 1996-2014 Texas Instruments Incorporated
C:\Users\wmj\AppData\Local\Temp\0868410                              PAGE   47

    2359                      .dwattr $C$DW$278, DW_AT_location[DW_OP_reg10]
    2360              ;* AR3   assigned to _cnt
    2361              $C$DW$279       .dwtag  DW_TAG_variable, DW_AT_name("cnt")
    2362                      .dwattr $C$DW$279, DW_AT_TI_symbol_name("_cnt")
    2363                      .dwattr $C$DW$279, DW_AT_type(*$C$DW$T$33)
    2364                      .dwattr $C$DW$279, DW_AT_location[DW_OP_reg10]
    2365              ;* XT    assigned to _bias
    2366              $C$DW$280       .dwtag  DW_TAG_variable, DW_AT_name("bias")
    2367                      .dwattr $C$DW$280, DW_AT_TI_symbol_name("_bias")
    2368                      .dwattr $C$DW$280, DW_AT_type(*$C$DW$T$32)
    2369                      .dwattr $C$DW$280, DW_AT_location[DW_OP_reg21]
    2370              ;* XT    assigned to _bias
    2371              $C$DW$281       .dwtag  DW_TAG_variable, DW_AT_name("bias")
    2372                      .dwattr $C$DW$281, DW_AT_TI_symbol_name("_bias")
    2373                      .dwattr $C$DW$281, DW_AT_type(*$C$DW$T$32)
    2374                      .dwattr $C$DW$281, DW_AT_location[DW_OP_reg21]
    2375              ;* AL    assigned to _bias
    2376              $C$DW$282       .dwtag  DW_TAG_variable, DW_AT_name("bias")
    2377                      .dwattr $C$DW$282, DW_AT_TI_symbol_name("_bias")
    2378                      .dwattr $C$DW$282, DW_AT_type(*$C$DW$T$32)
    2379                      .dwattr $C$DW$282, DW_AT_location[DW_OP_reg0]
    2380              ;* AL    assigned to _bias
    2381              $C$DW$283       .dwtag  DW_TAG_variable, DW_AT_name("bias")
    2382                      .dwattr $C$DW$283, DW_AT_TI_symbol_name("_bias")
    2383                      .dwattr $C$DW$283, DW_AT_type(*$C$DW$T$32)
    2384                      .dwattr $C$DW$283, DW_AT_location[DW_OP_reg0]
    2385              ;* AL    assigned to _bias
    2386              $C$DW$284       .dwtag  DW_TAG_variable, DW_AT_name("bias")
    2387                      .dwattr $C$DW$284, DW_AT_TI_symbol_name("_bias")
    2388                      .dwattr $C$DW$284, DW_AT_type(*$C$DW$T$32)
    2389                      .dwattr $C$DW$284, DW_AT_location[DW_OP_reg0]
    2390              ;* AR4   assigned to $O$v2
    2391              ;* AR4   assigned to $O$v3
    2392              ;* AR1   assigned to $O$K13
    2393              ;* AR3   assigned to $O$K13
    2394              ;* AR7   assigned to $O$K13
    2395              ;* AR3   assigned to $O$K13
    2396              ;* AR3   assigned to $O$K13
    2397              ;* AR4   assigned to $O$v1
    2398              ;* AR4   assigned to $O$v1
    2399              ;* AR4   assigned to $O$v1
    2400              ;* AR4   assigned to $O$v1
    2401              ;* AR1   assigned to $O$v1
    2402              ;* AR4   assigned to $O$v4
    2403              ;* AR4   assigned to $O$v4
    2404              ;* AR4   assigned to $O$v4
    2405              ;* PL    assigned to $O$v4
    2406              $C$DW$285       .dwtag  DW_TAG_variable, DW_AT_name("version")
    2407                      .dwattr $C$DW$285, DW_AT_TI_symbol_name("_version")
    2408                      .dwattr $C$DW$285, DW_AT_type(*$C$DW$T$41)
    2409                      .dwattr $C$DW$285, DW_AT_location[DW_OP_breg20 -10]
    2410                      .dwcfi  cfa_offset, -2
    2411                      .dwcfi  save_reg_to_mem, 26, 0
    2412                      .dwcfi  save_reg_to_reg, 78, 26
    2413 000000c8 B2BD          MOVL      *SP++,XAR1            ; [CPU_] 
TMS320C2000 Assembler PC v6.2.5 Thu Jun 22 13:27:58 2017

Tools Copyright (c) 1996-2014 Texas Instruments Incorporated
C:\Users\wmj\AppData\Local\Temp\0868410                              PAGE   48

    2414                      .dwcfi  save_reg_to_mem, 7, 2
    2415                      .dwcfi  cfa_offset, -4
    2416 000000c9 AABD          MOVL      *SP++,XAR2            ; [CPU_] 
    2417                      .dwcfi  save_reg_to_mem, 9, 4
    2418                      .dwcfi  cfa_offset, -6
    2419 000000ca A2BD          MOVL      *SP++,XAR3            ; [CPU_] 
    2420                      .dwcfi  save_reg_to_mem, 11, 6
    2421                      .dwcfi  cfa_offset, -8
    2422 000000cb FE0C          ADDB      SP,#12                ; [CPU_U] 
    2423                      .dwcfi  cfa_offset, -20
    2424                      .dwpsn  file "C:/ti/motorware/motorware_1_01_00_18/sw/solutions/instaspin_foc/src/proj_lab03b.c",line
    2425 000000cc 8F00!         MOVL      XAR4,#_RamfuncsRunStart ; [CPU_U] |161| 
         000000cd 0000 
    2426 000000ce 8F40!         MOVL      XAR5,#_RamfuncsLoadEnd ; [CPU_U] |161| 
         000000cf 0000 
    2427 000000d0 A842          MOVL      *-SP[2],XAR4          ; [CPU_] |161| 
    2428 000000d1 8F00!         MOVL      XAR4,#_RamfuncsLoadStart ; [CPU_U] |161| 
         000000d2 0000 
    2429              $C$DW$286       .dwtag  DW_TAG_TI_branch
    2430                      .dwattr $C$DW$286, DW_AT_low_pc(0x00)
    2431                      .dwattr $C$DW$286, DW_AT_name("_memCopy")
    2432                      .dwattr $C$DW$286, DW_AT_TI_call
    2433 000000d3 7640!         LCR       #_memCopy             ; [CPU_] |161| 
         000000d4 0000 
    2434                      ; call occurs [#_memCopy] ; [] |161| 
    2435                      .dwpsn  file "C:/ti/motorware/motorware_1_01_00_18/sw/solutions/instaspin_foc/src/proj_lab03b.c",line
    2436 000000d5 8F00!         MOVL      XAR4,#_hal            ; [CPU_U] |179| 
         000000d6 0000 
    2437 000000d7 02A8          MOVB      ACC,#168              ; [CPU_] |179| 
    2438              $C$DW$287       .dwtag  DW_TAG_TI_branch
    2439                      .dwattr $C$DW$287, DW_AT_low_pc(0x00)
    2440                      .dwattr $C$DW$287, DW_AT_name("_HAL_init")
    2441                      .dwattr $C$DW$287, DW_AT_TI_call
    2442 000000d8 7640!         LCR       #_HAL_init            ; [CPU_] |179| 
         000000d9 0000 
    2443                      ; call occurs [#_HAL_init] ; [] |179| 
    2444                      .dwpsn  file "C:/ti/motorware/motorware_1_01_00_18/sw/solutions/instaspin_foc/src/proj_lab03b.c",line
    2445 000000da 8D80-         MOVL      XAR2,#_gUserParams    ; [CPU_U] |183| 
         000000db 0100 
    2446 000000dc 761F-         MOVW      DP,#_halHandle        ; [CPU_U] 
         000000dd 0000 
    2447                      .dwpsn  file "C:/ti/motorware/motorware_1_01_00_18/sw/solutions/instaspin_foc/src/proj_lab03b.c",line
    2448 000000de A81C-         MOVL      @_halHandle,XAR4      ; [CPU_] |179| 
    2449                      .dwpsn  file "C:/ti/motorware/motorware_1_01_00_18/sw/solutions/instaspin_foc/src/proj_lab03b.c",line
    2450 000000df 8AA2          MOVL      XAR4,XAR2             ; [CPU_] |183| 
    2451              $C$DW$288       .dwtag  DW_TAG_TI_branch
    2452                      .dwattr $C$DW$288, DW_AT_low_pc(0x00)
    2453                      .dwattr $C$DW$288, DW_AT_name("_USER_checkForErrors")
    2454                      .dwattr $C$DW$288, DW_AT_TI_call
    2455 000000e0 7640!         LCR       #_USER_checkForErrors ; [CPU_] |183| 
         000000e1 0000 
    2456                      ; call occurs [#_USER_checkForErrors] ; [] |183| 
    2457                      .dwpsn  file "C:/ti/motorware/motorware_1_01_00_18/sw/solutions/instaspin_foc/src/proj_lab03b.c",line
    2458 000000e2 8AA2          MOVL      XAR4,XAR2             ; [CPU_] |187| 
    2459              $C$DW$289       .dwtag  DW_TAG_TI_branch
TMS320C2000 Assembler PC v6.2.5 Thu Jun 22 13:27:58 2017

Tools Copyright (c) 1996-2014 Texas Instruments Incorporated
C:\Users\wmj\AppData\Local\Temp\0868410                              PAGE   49

    2460                      .dwattr $C$DW$289, DW_AT_low_pc(0x00)
    2461                      .dwattr $C$DW$289, DW_AT_name("_USER_getErrorCode")
    2462                      .dwattr $C$DW$289, DW_AT_TI_call
    2463 000000e3 7640!         LCR       #_USER_getErrorCode   ; [CPU_] |187| 
         000000e4 0000 
    2464                      ; call occurs [#_USER_getErrorCode] ; [] |187| 
    2465 000000e5 8D40-         MOVL      XAR1,#_gMotorVars     ; [CPU_U] |187| 
         000000e6 0080 
    2466 000000e7 D00F          MOVB      XAR0,#15              ; [CPU_] |187| 
    2467 000000e8 9691          MOV       *+XAR1[AR0],AL        ; [CPU_] |187| 
    2468                      .dwpsn  file "C:/ti/motorware/motorware_1_01_00_18/sw/solutions/instaspin_foc/src/proj_lab03b.c",line
    2469 000000e9 D00F          MOVB      XAR0,#15              ; [CPU_] |191| 
    2470 000000ea 9291          MOV       AL,*+XAR1[AR0]        ; [CPU_] |191| 
    2471 000000eb 56C0          BF        $C$L32,NEQ            ; [CPU_] |191| 
         000000ec 022D 
    2472                      ; branchcc occurs ; [] |191| 
    2473                      .dwpsn  file "C:/ti/motorware/motorware_1_01_00_18/sw/solutions/instaspin_foc/src/proj_lab03b.c",line
    2474 000000ed 8AA2          MOVL      XAR4,XAR2             ; [CPU_] |201| 
    2475              $C$DW$290       .dwtag  DW_TAG_TI_branch
    2476                      .dwattr $C$DW$290, DW_AT_low_pc(0x00)
    2477                      .dwattr $C$DW$290, DW_AT_name("_USER_setParams")
    2478                      .dwattr $C$DW$290, DW_AT_TI_call
    2479 000000ee 7640!         LCR       #_USER_setParams      ; [CPU_] |201| 
         000000ef 0000 
    2480                      ; call occurs [#_USER_setParams] ; [] |201| 
    2481 000000f0 761F-         MOVW      DP,#_halHandle        ; [CPU_U] 
         000000f1 0000 
    2482                      .dwpsn  file "C:/ti/motorware/motorware_1_01_00_18/sw/solutions/instaspin_foc/src/proj_lab03b.c",line
    2483 000000f2 83A2          MOVL      XAR5,XAR2             ; [CPU_] |205| 
    2484 000000f3 8A1C-         MOVL      XAR4,@_halHandle      ; [CPU_] |205| 
    2485              $C$DW$291       .dwtag  DW_TAG_TI_branch
    2486                      .dwattr $C$DW$291, DW_AT_low_pc(0x00)
    2487                      .dwattr $C$DW$291, DW_AT_name("_HAL_setParams")
    2488                      .dwattr $C$DW$291, DW_AT_TI_call
    2489 000000f4 7640!         LCR       #_HAL_setParams       ; [CPU_] |205| 
         000000f5 0000 
    2490                      ; call occurs [#_HAL_setParams] ; [] |205| 
    2491 000000f6 761F-         MOVW      DP,#_halHandle        ; [CPU_U] 
         000000f7 0000 
    2492                      .dwpsn  file "C:/ti/motorware/motorware_1_01_00_18/sw/solutions/instaspin_foc/src/proj_lab03b.c",line
    2493 000000f8 9A06          MOVB      AL,#6                 ; [CPU_] |208| 
    2494 000000f9 9B00          MOVB      AH,#0                 ; [CPU_] |208| 
    2495 000000fa 8A1C-         MOVL      XAR4,@_halHandle      ; [CPU_] |208| 
    2496              $C$DW$292       .dwtag  DW_TAG_TI_branch
    2497                      .dwattr $C$DW$292, DW_AT_low_pc(0x00)
    2498                      .dwattr $C$DW$292, DW_AT_name("_HAL_I2c_Pca9555_WrData")
    2499                      .dwattr $C$DW$292, DW_AT_TI_call
    2500 000000fb 7640!         LCR       #_HAL_I2c_Pca9555_WrData ; [CPU_] |208| 
         000000fc 0000 
    2501                      ; call occurs [#_HAL_I2c_Pca9555_WrData] ; [] |208| 
    2502 000000fd 761F-         MOVW      DP,#_halHandle        ; [CPU_U] 
         000000fe 0000 
    2503                      .dwpsn  file "C:/ti/motorware/motorware_1_01_00_18/sw/solutions/instaspin_foc/src/proj_lab03b.c",line
    2504 000000ff 9A02          MOVB      AL,#2                 ; [CPU_] |210| 
    2505 00000100 9B58          MOVB      AH,#88                ; [CPU_] |210| 
TMS320C2000 Assembler PC v6.2.5 Thu Jun 22 13:27:58 2017

Tools Copyright (c) 1996-2014 Texas Instruments Incorporated
C:\Users\wmj\AppData\Local\Temp\0868410                              PAGE   50

    2506 00000101 8A1C-         MOVL      XAR4,@_halHandle      ; [CPU_] |210| 
    2507              $C$DW$293       .dwtag  DW_TAG_TI_branch
    2508                      .dwattr $C$DW$293, DW_AT_low_pc(0x00)
    2509                      .dwattr $C$DW$293, DW_AT_name("_HAL_I2c_Pca9555_WrData")
    2510                      .dwattr $C$DW$293, DW_AT_TI_call
    2511 00000102 7640!         LCR       #_HAL_I2c_Pca9555_WrData ; [CPU_] |210| 
         00000103 0000 
    2512                      ; call occurs [#_HAL_I2c_Pca9555_WrData] ; [] |210| 
    2513 00000104 761F-         MOVW      DP,#_halHandle        ; [CPU_U] 
         00000105 0000 
    2514                      .dwpsn  file "C:/ti/motorware/motorware_1_01_00_18/sw/solutions/instaspin_foc/src/proj_lab03b.c",line
    2515 00000106 9A02          MOVB      AL,#2                 ; [CPU_] |211| 
    2516 00000107 9B5C          MOVB      AH,#92                ; [CPU_] |211| 
    2517 00000108 8A1C-         MOVL      XAR4,@_halHandle      ; [CPU_] |211| 
    2518              $C$DW$294       .dwtag  DW_TAG_TI_branch
    2519                      .dwattr $C$DW$294, DW_AT_low_pc(0x00)
    2520                      .dwattr $C$DW$294, DW_AT_name("_HAL_I2c_Pca9555_WrData")
    2521                      .dwattr $C$DW$294, DW_AT_TI_call
    2522 00000109 7640!         LCR       #_HAL_I2c_Pca9555_WrData ; [CPU_] |211| 
         0000010a 0000 
    2523                      ; call occurs [#_HAL_I2c_Pca9555_WrData] ; [] |211| 
    2524                      .dwpsn  file "C:/ti/motorware/motorware_1_01_00_18/sw/solutions/instaspin_foc/src/proj_lab03b.c",line
    2525 0000010b D500          MOVB      XAR5,#0               ; [CPU_] |218| 
    2526 0000010c 8F00-         MOVL      XAR4,#_ctrl           ; [CPU_U] |218| 
         0000010d 01C0 
    2527 0000010e FF20          MOV       ACC,#264              ; [CPU_] |218| 
         0000010f 0108 
    2528              $C$DW$295       .dwtag  DW_TAG_TI_branch
    2529                      .dwattr $C$DW$295, DW_AT_low_pc(0x00)
    2530                      .dwattr $C$DW$295, DW_AT_name("_CTRL_initCtrl")
    2531                      .dwattr $C$DW$295, DW_AT_TI_call
    2532 00000110 7640!         LCR       #_CTRL_initCtrl       ; [CPU_] |218| 
         00000111 0000 
    2533                      ; call occurs [#_CTRL_initCtrl] ; [] |218| 
    2534 00000112 761F-         MOVW      DP,#_ctrlHandle       ; [CPU_U] 
         00000113 0000 
    2535                      .dwpsn  file "C:/ti/motorware/motorware_1_01_00_18/sw/solutions/instaspin_foc/src/proj_lab03b.c",line
    2536 00000114 5DAD          MOVZ      AR5,SP                ; [CPU_U] |226| 
    2537 00000115 DD8A          SUBB      XAR5,#10              ; [CPU_U] |226| 
    2538                      .dwpsn  file "C:/ti/motorware/motorware_1_01_00_18/sw/solutions/instaspin_foc/src/proj_lab03b.c",line
    2539 00000116 A816-         MOVL      @_ctrlHandle,XAR4     ; [CPU_] |218| 
    2540                      .dwpsn  file "C:/ti/motorware/motorware_1_01_00_18/sw/solutions/instaspin_foc/src/proj_lab03b.c",line
    2541              $C$DW$296       .dwtag  DW_TAG_TI_branch
    2542                      .dwattr $C$DW$296, DW_AT_low_pc(0x00)
    2543                      .dwattr $C$DW$296, DW_AT_name("_CTRL_getVersion")
    2544                      .dwattr $C$DW$296, DW_AT_TI_call
    2545 00000117 7640!         LCR       #_CTRL_getVersion     ; [CPU_] |226| 
         00000118 0000 
    2546                      ; call occurs [#_CTRL_getVersion] ; [] |226| 
    2547                      .dwpsn  file "C:/ti/motorware/motorware_1_01_00_18/sw/solutions/instaspin_foc/src/proj_lab03b.c",line
    2548 00000119 8AA1          MOVL      XAR4,XAR1             ; [CPU_] |228| 
    2549 0000011a 761F-         MOVW      DP,#_ctrlHandle       ; [CPU_U] 
         0000011b 0000 
    2550 0000011c 064A          MOVL      ACC,*-SP[10]          ; [CPU_] |228| 
    2551 0000011d C448          MOVL      XAR6,*-SP[8]          ; [CPU_] |228| 
TMS320C2000 Assembler PC v6.2.5 Thu Jun 22 13:27:58 2017

Tools Copyright (c) 1996-2014 Texas Instruments Incorporated
C:\Users\wmj\AppData\Local\Temp\0868410                              PAGE   51

    2552                      .dwpsn  file "C:/ti/motorware/motorware_1_01_00_18/sw/solutions/instaspin_foc/src/proj_lab03b.c",line
    2553 0000011e 83A2          MOVL      XAR5,XAR2             ; [CPU_] |233| 
    2554                      .dwpsn  file "C:/ti/motorware/motorware_1_01_00_18/sw/solutions/instaspin_foc/src/proj_lab03b.c",line
    2555 0000011f DC10          ADDB      XAR4,#16              ; [CPU_] |228| 
    2556 00000120 1EC4          MOVL      *+XAR4[0],ACC         ; [CPU_] |228| 
    2557 00000121 C2D4          MOVL      *+XAR4[2],XAR6        ; [CPU_] |228| 
    2558                      .dwpsn  file "C:/ti/motorware/motorware_1_01_00_18/sw/solutions/instaspin_foc/src/proj_lab03b.c",line
    2559 00000122 8A16-         MOVL      XAR4,@_ctrlHandle     ; [CPU_] |233| 
    2560              $C$DW$297       .dwtag  DW_TAG_TI_branch
    2561                      .dwattr $C$DW$297, DW_AT_low_pc(0x00)
    2562                      .dwattr $C$DW$297, DW_AT_name("_CTRL_setParams")
    2563                      .dwattr $C$DW$297, DW_AT_TI_call
    2564 00000123 7640!         LCR       #_CTRL_setParams      ; [CPU_] |233| 
         00000124 0000 
    2565                      ; call occurs [#_CTRL_setParams] ; [] |233| 
    2566                      .dwpsn  file "C:/ti/motorware/motorware_1_01_00_18/sw/solutions/instaspin_foc/src/proj_lab03b.c",line
    2567 00000125 8F00-         MOVL      XAR4,#_fem            ; [CPU_U] |237| 
         00000126 0040 
    2568 00000127 0212          MOVB      ACC,#18               ; [CPU_] |237| 
    2569              $C$DW$298       .dwtag  DW_TAG_TI_branch
    2570                      .dwattr $C$DW$298, DW_AT_low_pc(0x00)
    2571                      .dwattr $C$DW$298, DW_AT_name("_FEM_init")
    2572                      .dwattr $C$DW$298, DW_AT_TI_call
    2573 00000128 7640!         LCR       #_FEM_init            ; [CPU_] |237| 
         00000129 0000 
    2574                      ; call occurs [#_FEM_init] ; [] |237| 
    2575 0000012a 761F-         MOVW      DP,#_femHandle        ; [CPU_U] 
         0000012b 0000 
    2576                      .dwpsn  file "C:/ti/motorware/motorware_1_01_00_18/sw/modules/hal/boards/hvkit_rev1p1/f28x/f2802x/src
    2577 0000012c 831C-         MOVL      XAR5,@_halHandle      ; [CPU_] |671| 
    2578 0000012d D08A          MOVB      XAR0,#138             ; [CPU_] |671| 
    2579 0000012e 8395          MOVL      XAR5,*+XAR5[AR0]      ; [CPU_] |671| 
    2580                      .dwpsn  file "C:/ti/motorware/motorware_1_01_00_18/sw/solutions/instaspin_foc/src/proj_lab03b.c",line
    2581 0000012f A812-         MOVL      @_femHandle,XAR4      ; [CPU_] |237| 
    2582                      .dwpsn  file "C:/ti/motorware/motorware_1_01_00_18/sw/drivers/timer/src/32b/f28x/f2802x/timer.h",line
    2583 00000130 06D5          MOVL      ACC,*+XAR5[2]         ; [CPU_] |225| 
    2584                      .dwpsn  file "C:/ti/motorware/motorware_1_01_00_18/sw/solutions/instaspin_foc/src/proj_lab03b.c",line
    2585 00000131 1E42          MOVL      *-SP[2],ACC           ; [CPU_] |238| 
    2586 00000132 28A9          MOV       AL,#24576             ; [CPU_] |238| 
         00000133 6000 
    2587 00000134 28A8          MOV       AH,#18026             ; [CPU_] |238| 
         00000135 466A 
    2588 00000136 1E44          MOVL      *-SP[4],ACC           ; [CPU_] |238| 
    2589 00000137 9A00          MOV       AL,#0                 ; [CPU_] |238| 
    2590 00000138 28A8          MOV       AH,#17530             ; [CPU_] |238| 
         00000139 447A 
    2591 0000013a 1E46          MOVL      *-SP[6],ACC           ; [CPU_] |238| 
    2592 0000013b 28A9          MOV       AL,#57792             ; [CPU_] |238| 
         0000013c E1C0 
    2593 0000013d 28A8          MOV       AH,#19556             ; [CPU_] |238| 
         0000013e 4C64 
    2594              $C$DW$299       .dwtag  DW_TAG_TI_branch
    2595                      .dwattr $C$DW$299, DW_AT_low_pc(0x00)
    2596                      .dwattr $C$DW$299, DW_AT_name("_FEM_setParams")
    2597                      .dwattr $C$DW$299, DW_AT_TI_call
TMS320C2000 Assembler PC v6.2.5 Thu Jun 22 13:27:58 2017

Tools Copyright (c) 1996-2014 Texas Instruments Incorporated
C:\Users\wmj\AppData\Local\Temp\0868410                              PAGE   52

    2598 0000013f 7640!         LCR       #_FEM_setParams       ; [CPU_] |238| 
         00000140 0000 
    2599                      ; call occurs [#_FEM_setParams] ; [] |238| 
    2600                      .dwpsn  file "C:/ti/motorware/motorware_1_01_00_18/sw/solutions/instaspin_foc/src/proj_lab03b.c",line
    2601 00000141 8F00-         MOVL      XAR4,#_cpu_usage      ; [CPU_U] |246| 
         00000142 0052 
    2602 00000143 0216          MOVB      ACC,#22               ; [CPU_] |246| 
    2603              $C$DW$300       .dwtag  DW_TAG_TI_branch
    2604                      .dwattr $C$DW$300, DW_AT_low_pc(0x00)
    2605                      .dwattr $C$DW$300, DW_AT_name("_CPU_USAGE_init")
    2606                      .dwattr $C$DW$300, DW_AT_TI_call
    2607 00000144 7640!         LCR       #_CPU_USAGE_init      ; [CPU_] |246| 
         00000145 0000 
    2608                      ; call occurs [#_CPU_USAGE_init] ; [] |246| 
    2609 00000146 761F-         MOVW      DP,#_cpu_usageHandle  ; [CPU_U] 
         00000147 0000 
    2610                      .dwpsn  file "C:/ti/motorware/motorware_1_01_00_18/sw/modules/hal/boards/hvkit_rev1p1/f28x/f2802x/src
    2611 00000148 831C-         MOVL      XAR5,@_halHandle      ; [CPU_] |671| 
    2612 00000149 D08C          MOVB      XAR0,#140             ; [CPU_] |671| 
    2613 0000014a 8395          MOVL      XAR5,*+XAR5[AR0]      ; [CPU_] |671| 
    2614                      .dwpsn  file "C:/ti/motorware/motorware_1_01_00_18/sw/solutions/instaspin_foc/src/proj_lab03b.c",line
    2615 0000014b A81A-         MOVL      @_cpu_usageHandle,XAR4 ; [CPU_] |246| 
    2616                      .dwpsn  file "C:/ti/motorware/motorware_1_01_00_18/sw/drivers/timer/src/32b/f28x/f2802x/timer.h",line
    2617 0000014c 06D5          MOVL      ACC,*+XAR5[2]         ; [CPU_] |225| 
    2618                      .dwpsn  file "C:/ti/motorware/motorware_1_01_00_18/sw/solutions/instaspin_foc/src/proj_lab03b.c",line
    2619 0000014d 8F40          MOVL      XAR5,#15000           ; [CPU_U] |247| 
         0000014e 3A98 
    2620 0000014f A042          MOVL      *-SP[2],XAR5          ; [CPU_] |247| 
    2621              $C$DW$301       .dwtag  DW_TAG_TI_branch
    2622                      .dwattr $C$DW$301, DW_AT_low_pc(0x00)
    2623                      .dwattr $C$DW$301, DW_AT_name("_CPU_USAGE_setParams")
    2624                      .dwattr $C$DW$301, DW_AT_TI_call
    2625 00000150 7640!         LCR       #_CPU_USAGE_setParams ; [CPU_] |247| 
         00000151 0000 
    2626                      ; call occurs [#_CPU_USAGE_setParams] ; [] |247| 
    2627 00000152 761F-         MOVW      DP,#_halHandle        ; [CPU_U] 
         00000153 0000 
    2628                      .dwpsn  file "C:/ti/motorware/motorware_1_01_00_18/sw/solutions/instaspin_foc/src/proj_lab03b.c",line
    2629 00000154 8A1C-         MOVL      XAR4,@_halHandle      ; [CPU_] |253| 
    2630              $C$DW$302       .dwtag  DW_TAG_TI_branch
    2631                      .dwattr $C$DW$302, DW_AT_low_pc(0x00)
    2632                      .dwattr $C$DW$302, DW_AT_name("_HAL_setupFaults")
    2633                      .dwattr $C$DW$302, DW_AT_TI_call
    2634 00000155 7640!         LCR       #_HAL_setupFaults     ; [CPU_] |253| 
         00000156 0000 
    2635                      ; call occurs [#_HAL_setupFaults] ; [] |253| 
    2636 00000157 761F-         MOVW      DP,#_halHandle        ; [CPU_U] 
         00000158 0000 
    2637                      .dwpsn  file "C:/ti/motorware/motorware_1_01_00_18/sw/solutions/instaspin_foc/src/proj_lab03b.c",line
    2638 00000159 8A1C-         MOVL      XAR4,@_halHandle      ; [CPU_] |257| 
    2639 0000015a 7622   EALLOW
    2640                      .dwpsn  file "C:/ti/motorware/motorware_1_01_00_18/sw/modules/hal/boards/hvkit_rev1p1/f28x/f2802x/src
    2641 0000015b D078          MOVB      XAR0,#120             ; [CPU_] |473| 
    2642 0000015c C494          MOVL      XAR6,*+XAR4[AR0]      ; [CPU_] |473| 
    2643 0000015d 8F40+         MOVL      XAR5,#_mainISR        ; [CPU_U] |473| 
TMS320C2000 Assembler PC v6.2.5 Thu Jun 22 13:27:58 2017

Tools Copyright (c) 1996-2014 Texas Instruments Incorporated
C:\Users\wmj\AppData\Local\Temp\0868410                              PAGE   53

         0000015e 0000 
    2644 0000015f D0F0          MOVB      XAR0,#240             ; [CPU_] |473| 
    2645 00000160 A096          MOVL      *+XAR6[AR0],XAR5      ; [CPU_] |473| 
    2646 00000161 761A   EDIS
    2647 00000162 FF69          SPM       #0                    ; [CPU_] 
    2648                      .dwpsn  file "C:/ti/motorware/motorware_1_01_00_18/sw/solutions/instaspin_foc/src/proj_lab03b.c",line
    2649              $C$DW$303       .dwtag  DW_TAG_TI_branch
    2650                      .dwattr $C$DW$303, DW_AT_low_pc(0x00)
    2651                      .dwattr $C$DW$303, DW_AT_name("_HAL_enableAdcInts")
    2652                      .dwattr $C$DW$303, DW_AT_TI_call
    2653 00000163 7640!         LCR       #_HAL_enableAdcInts   ; [CPU_] |261| 
         00000164 0000 
    2654                      ; call occurs [#_HAL_enableAdcInts] ; [] |261| 
    2655 00000165 761F-         MOVW      DP,#_halHandle        ; [CPU_U] 
         00000166 0000 
    2656                      .dwpsn  file "C:/ti/motorware/motorware_1_01_00_18/sw/solutions/instaspin_foc/src/proj_lab03b.c",line
    2657 00000167 8A1C-         MOVL      XAR4,@_halHandle      ; [CPU_] |265| 
    2658                      .dwpsn  file "C:/ti/motorware/motorware_1_01_00_18/sw/modules/hal/boards/hvkit_rev1p1/f28x/f2802x/src
    2659 00000168 D08A          MOVB      XAR0,#138             ; [CPU_] |614| 
    2660 00000169 8394          MOVL      XAR5,*+XAR4[AR0]      ; [CPU_] |614| 
    2661                      .dwpsn  file "C:/ti/motorware/motorware_1_01_00_18/sw/drivers/timer/src/32b/f28x/f2802x/timer.h",line
    2662 0000016a 1AE5          OR        *+XAR5[4],#0x0020     ; [CPU_] |196| 
         0000016b 0020 
    2663                      .dwpsn  file "C:/ti/motorware/motorware_1_01_00_18/sw/solutions/instaspin_foc/src/proj_lab03b.c",line
    2664              $C$DW$304       .dwtag  DW_TAG_TI_branch
    2665                      .dwattr $C$DW$304, DW_AT_low_pc(0x00)
    2666                      .dwattr $C$DW$304, DW_AT_name("_HAL_enableGlobalInts")
    2667                      .dwattr $C$DW$304, DW_AT_TI_call
    2668 0000016c 7640!         LCR       #_HAL_enableGlobalInts ; [CPU_] |269| 
         0000016d 0000 
    2669                      ; call occurs [#_HAL_enableGlobalInts] ; [] |269| 
    2670 0000016e 761F-         MOVW      DP,#_halHandle        ; [CPU_U] 
         0000016f 0000 
    2671                      .dwpsn  file "C:/ti/motorware/motorware_1_01_00_18/sw/solutions/instaspin_foc/src/proj_lab03b.c",line
    2672 00000170 8A1C-         MOVL      XAR4,@_halHandle      ; [CPU_] |273| 
    2673              $C$DW$305       .dwtag  DW_TAG_TI_branch
    2674                      .dwattr $C$DW$305, DW_AT_low_pc(0x00)
    2675                      .dwattr $C$DW$305, DW_AT_name("_HAL_enableDebugInt")
    2676                      .dwattr $C$DW$305, DW_AT_TI_call
    2677 00000171 7640!         LCR       #_HAL_enableDebugInt  ; [CPU_] |273| 
         00000172 0000 
    2678                      ; call occurs [#_HAL_enableDebugInt] ; [] |273| 
    2679 00000173 761F-         MOVW      DP,#_halHandle        ; [CPU_U] 
         00000174 0000 
    2680                      .dwpsn  file "C:/ti/motorware/motorware_1_01_00_18/sw/modules/hal/boards/hvkit_rev1p1/f28x/f2802x/src
    2681 00000175 8A1C-         MOVL      XAR4,@_halHandle      ; [CPU_] |242| 
    2682                      .dwpsn  file "C:/ti/motorware/motorware_1_01_00_18/sw/modules/hal/boards/hvkit_rev1p1/f28x/f2802x/src
    2683 00000176 DC7C          ADDB      XAR4,#124             ; [CPU_] |244| 
    2684 00000177 83C4          MOVL      XAR5,*+XAR4[0]        ; [CPU_] |244| 
    2685 00000178 7622   EALLOW
    2686                      .dwpsn  file "C:/ti/motorware/motorware_1_01_00_18/sw/drivers/pwm/src/32b/f28x/f2802x/pwm.h",line 156
    2687 00000179 DD18          ADDB      XAR5,#24              ; [CPU_] |1567| 
    2688 0000017a 1AC5          OR        *+XAR5[0],#0x0004     ; [CPU_] |1567| 
         0000017b 0004 
    2689 0000017c 761A   EDIS
TMS320C2000 Assembler PC v6.2.5 Thu Jun 22 13:27:58 2017

Tools Copyright (c) 1996-2014 Texas Instruments Incorporated
C:\Users\wmj\AppData\Local\Temp\0868410                              PAGE   54

    2690                      .dwpsn  file "C:/ti/motorware/motorware_1_01_00_18/sw/modules/hal/boards/hvkit_rev1p1/f28x/f2802x/src
    2691 0000017d 83D4          MOVL      XAR5,*+XAR4[2]        ; [CPU_] |245| 
    2692 0000017e 7622   EALLOW
    2693                      .dwpsn  file "C:/ti/motorware/motorware_1_01_00_18/sw/drivers/pwm/src/32b/f28x/f2802x/pwm.h",line 156
    2694 0000017f DD18          ADDB      XAR5,#24              ; [CPU_] |1567| 
    2695 00000180 1AC5          OR        *+XAR5[0],#0x0004     ; [CPU_] |1567| 
         00000181 0004 
    2696 00000182 761A   EDIS
    2697                      .dwpsn  file "C:/ti/motorware/motorware_1_01_00_18/sw/modules/hal/boards/hvkit_rev1p1/f28x/f2802x/src
    2698 00000183 8AE4          MOVL      XAR4,*+XAR4[4]        ; [CPU_] |246| 
    2699 00000184 7622   EALLOW
    2700                      .dwpsn  file "C:/ti/motorware/motorware_1_01_00_18/sw/drivers/pwm/src/32b/f28x/f2802x/pwm.h",line 156
    2701 00000185 DC18          ADDB      XAR4,#24              ; [CPU_] |1567| 
    2702 00000186 1AC4          OR        *+XAR4[0],#0x0004     ; [CPU_] |1567| 
         00000187 0004 
    2703 00000188 761A   EDIS
    2704                      .dwpsn  file "C:/ti/motorware/motorware_1_01_00_18/sw/modules/ctrl/src/32b/ctrl.h",line 1246,column 3
    2705 00000189 8A16-         MOVL      XAR4,@_ctrlHandle     ; [CPU_] |1246| 
    2706 0000018a D0F1          MOVB      XAR0,#241             ; [CPU_] |1246| 
    2707 0000018b FF69          SPM       #0                    ; [CPU_] 
    2708 0000018c 56BF          MOVB      *+XAR4[AR0],#1,UNC    ; [CPU_] |1246| 
         0000018d 0194 
    2709                      .dwpsn  file "C:/ti/motorware/motorware_1_01_00_18/sw/solutions/instaspin_foc/src/proj_lab03b.c",line
    2710              $C$DW$306       .dwtag  DW_TAG_TI_branch
    2711                      .dwattr $C$DW$306, DW_AT_low_pc(0x00)
    2712                      .dwattr $C$DW$306, DW_AT_name("_USER_computeFlux_pu_to_Wb_sf")
    2713                      .dwattr $C$DW$306, DW_AT_TI_call
    2714 0000018e 7640!         LCR       #_USER_computeFlux_pu_to_Wb_sf ; [CPU_] |299| 
         0000018f 0000 
    2715                      ; call occurs [#_USER_computeFlux_pu_to_Wb_sf] ; [] |299| 
    2716 00000190 761F-         MOVW      DP,#_gFlux_pu_to_Wb_sf ; [CPU_U] 
         00000191 0000 
    2717 00000192 1E06-         MOVL      @_gFlux_pu_to_Wb_sf,ACC ; [CPU_] |299| 
    2718                      .dwpsn  file "C:/ti/motorware/motorware_1_01_00_18/sw/solutions/instaspin_foc/src/proj_lab03b.c",line
    2719              $C$DW$307       .dwtag  DW_TAG_TI_branch
    2720                      .dwattr $C$DW$307, DW_AT_low_pc(0x00)
    2721                      .dwattr $C$DW$307, DW_AT_name("_USER_computeFlux_pu_to_VpHz_sf")
    2722                      .dwattr $C$DW$307, DW_AT_TI_call
    2723 00000193 7640!         LCR       #_USER_computeFlux_pu_to_VpHz_sf ; [CPU_] |300| 
         00000194 0000 
    2724                      ; call occurs [#_USER_computeFlux_pu_to_VpHz_sf] ; [] |300| 
    2725 00000195 761F-         MOVW      DP,#_gFlux_pu_to_VpHz_sf ; [CPU_U] 
         00000196 0000 
    2726 00000197 1E04-         MOVL      @_gFlux_pu_to_VpHz_sf,ACC ; [CPU_] |300| 
    2727                      .dwpsn  file "C:/ti/motorware/motorware_1_01_00_18/sw/solutions/instaspin_foc/src/proj_lab03b.c",line
    2728              $C$DW$308       .dwtag  DW_TAG_TI_branch
    2729                      .dwattr $C$DW$308, DW_AT_low_pc(0x00)
    2730                      .dwattr $C$DW$308, DW_AT_name("_USER_computeTorque_Ls_Id_Iq_pu_to_Nm_sf")
    2731                      .dwattr $C$DW$308, DW_AT_TI_call
    2732 00000198 7640!         LCR       #_USER_computeTorque_Ls_Id_Iq_pu_to_Nm_sf ; [CPU_] |301| 
         00000199 0000 
    2733                      ; call occurs [#_USER_computeTorque_Ls_Id_Iq_pu_to_Nm_sf] ; [] |301| 
    2734 0000019a 761F-         MOVW      DP,#_gTorque_Ls_Id_Iq_pu_to_Nm_sf ; [CPU_U] 
         0000019b 0000 
    2735 0000019c 1E0C-         MOVL      @_gTorque_Ls_Id_Iq_pu_to_Nm_sf,ACC ; [CPU_] |301| 
TMS320C2000 Assembler PC v6.2.5 Thu Jun 22 13:27:58 2017

Tools Copyright (c) 1996-2014 Texas Instruments Incorporated
C:\Users\wmj\AppData\Local\Temp\0868410                              PAGE   55

    2736                      .dwpsn  file "C:/ti/motorware/motorware_1_01_00_18/sw/solutions/instaspin_foc/src/proj_lab03b.c",line
    2737              $C$DW$309       .dwtag  DW_TAG_TI_branch
    2738                      .dwattr $C$DW$309, DW_AT_low_pc(0x00)
    2739                      .dwattr $C$DW$309, DW_AT_name("_USER_computeTorque_Flux_Iq_pu_to_Nm_sf")
    2740                      .dwattr $C$DW$309, DW_AT_TI_call
    2741 0000019d 7640!         LCR       #_USER_computeTorque_Flux_Iq_pu_to_Nm_sf ; [CPU_] |302| 
         0000019e 0000 
    2742                      ; call occurs [#_USER_computeTorque_Flux_Iq_pu_to_Nm_sf] ; [] |302| 
    2743 0000019f 761F-         MOVW      DP,#_gTorque_Flux_Iq_pu_to_Nm_sf ; [CPU_U] 
         000001a0 0000 
    2744 000001a1 1E0E-         MOVL      @_gTorque_Flux_Iq_pu_to_Nm_sf,ACC ; [CPU_] |302| 
    2745                      .dwpsn  file "C:/ti/motorware/motorware_1_01_00_18/sw/solutions/instaspin_foc/src/proj_lab03b.c",line
    2746 000001a2 2BF9          MOV       *+XAR1[7],#0          ; [CPU_] |306| 
    2747 000001a3       $C$L13:    
    2748 000001a3 761F-         MOVW      DP,#_ctrlHandle       ; [CPU_U] 
         000001a4 0000 
    2749                      .dwpsn  file "C:/ti/motorware/motorware_1_01_00_18/sw/solutions/instaspin_foc/src/proj_lab03b.c",line
    2750 000001a5 8B16-         MOVL      XAR1,@_ctrlHandle     ; [CPU_] |313| 
    2751 000001a6 FFEF          B         $C$L31,UNC            ; [CPU_] |313| 
         000001a7 014F 
    2752                      ; branch occurs ; [] |313| 
    2753 000001a8       $C$L14:    
    2754                      .dwpsn  file "C:/ti/motorware/motorware_1_01_00_18/sw/solutions/instaspin_foc/src/proj_lab03b.c",line
    2755 000001a8 0A02-         INC       @_gCounter_updateGlobals ; [CPU_] |318| 
    2756                      .dwpsn  file "C:/ti/motorware/motorware_1_01_00_18/sw/modules/ctrl/src/32b/ctrl.h",line 1304,column 3
    2757 000001a9 D0F5          MOVB      XAR0,#245             ; [CPU_] |1304| 
    2758                      .dwpsn  file "C:/ti/motorware/motorware_1_01_00_18/sw/solutions/instaspin_foc/src/proj_lab03b.c",line
    2759 000001aa 92F3          MOV       AL,*+XAR3[6]          ; [CPU_] |321| 
    2760                      .dwpsn  file "C:/ti/motorware/motorware_1_01_00_18/sw/modules/ctrl/src/32b/ctrl.h",line 1304,column 3
    2761 000001ab 9691          MOV       *+XAR1[AR0],AL        ; [CPU_] |1304| 
    2762                      .dwpsn  file "C:/ti/motorware/motorware_1_01_00_18/sw/solutions/instaspin_foc/src/proj_lab03b.c",line
    2763 000001ac D018          MOVB      XAR0,#24              ; [CPU_] |324| 
    2764 000001ad 8A91          MOVL      XAR4,*+XAR1[AR0]      ; [CPU_] |324| 
    2765 000001ae 92EB          MOV       AL,*+XAR3[5]          ; [CPU_] |324| 
    2766              $C$DW$310       .dwtag  DW_TAG_TI_branch
    2767                      .dwattr $C$DW$310, DW_AT_low_pc(0x00)
    2768                      .dwattr $C$DW$310, DW_AT_name("_EST_setFlag_enableRsRecalc")
    2769                      .dwattr $C$DW$310, DW_AT_TI_call
    2770 000001af 7640!         LCR       #_EST_setFlag_enableRsRecalc ; [CPU_] |324| 
         000001b0 0000 
    2771                      ; call occurs [#_EST_setFlag_enableRsRecalc] ; [] |324| 
    2772 000001b1 761F-         MOVW      DP,#_ctrlHandle       ; [CPU_U] 
         000001b2 0000 
    2773                      .dwpsn  file "C:/ti/motorware/motorware_1_01_00_18/sw/solutions/instaspin_foc/src/proj_lab03b.c",line
    2774 000001b3 8A16-         MOVL      XAR4,@_ctrlHandle     ; [CPU_] |327| 
    2775                      .dwpsn  file "C:/ti/motorware/motorware_1_01_00_18/sw/modules/ctrl/src/32b/ctrl.h",line 1275,column 3
    2776 000001b4 D0F3          MOVB      XAR0,#243             ; [CPU_] |1275| 
    2777                      .dwpsn  file "C:/ti/motorware/motorware_1_01_00_18/sw/solutions/instaspin_foc/src/proj_lab03b.c",line
    2778 000001b5 92FB          MOV       AL,*+XAR3[7]          ; [CPU_] |327| 
    2779                      .dwpsn  file "C:/ti/motorware/motorware_1_01_00_18/sw/modules/ctrl/src/32b/ctrl.h",line 1275,column 3
    2780 000001b6 9694          MOV       *+XAR4[AR0],AL        ; [CPU_] |1275| 
    2781                      .dwpsn  file "C:/ti/motorware/motorware_1_01_00_18/sw/modules/ctrl/src/32b/ctrl.h",line 1060,column 3
    2782 000001b7 92E4          MOV       AL,*+XAR4[4]          ; [CPU_] |1060| 
    2783 000001b8 56C1          BF        $C$L25,EQ             ; [CPU_] |1060| 
         000001b9 00C6 
TMS320C2000 Assembler PC v6.2.5 Thu Jun 22 13:27:58 2017

Tools Copyright (c) 1996-2014 Texas Instruments Incorporated
C:\Users\wmj\AppData\Local\Temp\0868410                              PAGE   56

    2784                      ; branchcc occurs ; [] |1060| 
    2785                      .dwpsn  file "C:/ti/motorware/motorware_1_01_00_18/sw/solutions/instaspin_foc/src/proj_lab03b.c",line
    2786              $C$DW$311       .dwtag  DW_TAG_TI_branch
    2787                      .dwattr $C$DW$311, DW_AT_low_pc(0x00)
    2788                      .dwattr $C$DW$311, DW_AT_name("_CTRL_updateState")
    2789                      .dwattr $C$DW$311, DW_AT_TI_call
    2790 000001ba 7640!         LCR       #_CTRL_updateState    ; [CPU_] |344| 
         000001bb 0000 
    2791                      ; call occurs [#_CTRL_updateState] ; [] |344| 
    2792 000001bc 761F-         MOVW      DP,#_ctrlHandle       ; [CPU_U] 
         000001bd 0000 
    2793                      .dwpsn  file "C:/ti/motorware/motorware_1_01_00_18/sw/solutions/instaspin_foc/src/proj_lab03b.c",line
    2794 000001be 8A16-         MOVL      XAR4,@_ctrlHandle     ; [CPU_] |347| 
    2795 000001bf 93CB          MOV       AH,*+XAR3[1]          ; [CPU_] |347| 
    2796                      .dwpsn  file "C:/ti/motorware/motorware_1_01_00_18/sw/modules/ctrl/src/32b/ctrl.h",line 1218,column 3
    2797 000001c0 D0F0          MOVB      XAR0,#240             ; [CPU_] |1218| 
    2798                      .dwpsn  file "C:/ti/motorware/motorware_1_01_00_18/sw/solutions/instaspin_foc/src/proj_lab03b.c",line
    2799 000001c1 5200          CMPB      AL,#0                 ; [CPU_] |349| 
    2800                      .dwpsn  file "C:/ti/motorware/motorware_1_01_00_18/sw/modules/ctrl/src/32b/ctrl.h",line 1218,column 3
    2801 000001c2 9794          MOV       *+XAR4[AR0],AH        ; [CPU_] |1218| 
    2802                      .dwpsn  file "C:/ti/motorware/motorware_1_01_00_18/sw/solutions/instaspin_foc/src/proj_lab03b.c",line
    2803 000001c3 56C1          BF        $C$L26,EQ             ; [CPU_] |349| 
         000001c4 00D6 
    2804                      ; branchcc occurs ; [] |349| 
    2805                      .dwpsn  file "C:/ti/motorware/motorware_1_01_00_18/sw/modules/ctrl/src/32b/ctrl.h",line 771,column 3,
    2806 000001c5 92E4          MOV       AL,*+XAR4[4]          ; [CPU_] |771| 
    2807 000001c6 964B          MOV       *-SP[11],AL           ; [CPU_] |771| 
    2808 000001c7 5202          CMPB      AL,#2                 ; [CPU_] |771| 
    2809 000001c8 56C1          BF        $C$L22,EQ             ; [CPU_] |771| 
         000001c9 0092 
    2810                      ; branchcc occurs ; [] |771| 
    2811                      .dwpsn  file "C:/ti/motorware/motorware_1_01_00_18/sw/solutions/instaspin_foc/src/proj_lab03b.c",line
    2812 000001ca 5203          CMPB      AL,#3                 ; [CPU_] |358| 
    2813 000001cb EC1B          BF        $C$L15,EQ             ; [CPU_] |358| 
    2814                      ; branchcc occurs ; [] |358| 
    2815                      .dwpsn  file "C:/ti/motorware/motorware_1_01_00_18/sw/solutions/instaspin_foc/src/proj_lab03b.c",line
    2816 000001cc 5201          CMPB      AL,#1                 ; [CPU_] |391| 
    2817 000001cd 56C0          BF        $C$L24,NEQ            ; [CPU_] |391| 
         000001ce 00A1 
    2818                      ; branchcc occurs ; [] |391| 
    2819                      .dwpsn  file "C:/ti/motorware/motorware_1_01_00_18/sw/modules/hal/boards/hvkit_rev1p1/f28x/f2802x/src
    2820 000001cf 831C-         MOVL      XAR5,@_halHandle      ; [CPU_] |242| 
    2821                      .dwpsn  file "C:/ti/motorware/motorware_1_01_00_18/sw/modules/hal/boards/hvkit_rev1p1/f28x/f2802x/src
    2822 000001d0 DD7C          ADDB      XAR5,#124             ; [CPU_] |244| 
    2823 000001d1 C4C5          MOVL      XAR6,*+XAR5[0]        ; [CPU_] |244| 
    2824 000001d2 7622   EALLOW
    2825                      .dwpsn  file "C:/ti/motorware/motorware_1_01_00_18/sw/drivers/pwm/src/32b/f28x/f2802x/pwm.h",line 156
    2826 000001d3 DE18          ADDB      XAR6,#24              ; [CPU_] |1567| 
    2827 000001d4 1AC6          OR        *+XAR6[0],#0x0004     ; [CPU_] |1567| 
         000001d5 0004 
    2828 000001d6 761A   EDIS
    2829                      .dwpsn  file "C:/ti/motorware/motorware_1_01_00_18/sw/modules/hal/boards/hvkit_rev1p1/f28x/f2802x/src
    2830 000001d7 C4D5          MOVL      XAR6,*+XAR5[2]        ; [CPU_] |245| 
    2831 000001d8 7622   EALLOW
    2832                      .dwpsn  file "C:/ti/motorware/motorware_1_01_00_18/sw/drivers/pwm/src/32b/f28x/f2802x/pwm.h",line 156
TMS320C2000 Assembler PC v6.2.5 Thu Jun 22 13:27:58 2017

Tools Copyright (c) 1996-2014 Texas Instruments Incorporated
C:\Users\wmj\AppData\Local\Temp\0868410                              PAGE   57

    2833 000001d9 DE18          ADDB      XAR6,#24              ; [CPU_] |1567| 
    2834 000001da 1AC6          OR        *+XAR6[0],#0x0004     ; [CPU_] |1567| 
         000001db 0004 
    2835 000001dc 761A   EDIS
    2836                      .dwpsn  file "C:/ti/motorware/motorware_1_01_00_18/sw/modules/hal/boards/hvkit_rev1p1/f28x/f2802x/src
    2837 000001dd 83E5          MOVL      XAR5,*+XAR5[4]        ; [CPU_] |246| 
    2838 000001de 7622   EALLOW
    2839                      .dwpsn  file "C:/ti/motorware/motorware_1_01_00_18/sw/drivers/pwm/src/32b/f28x/f2802x/pwm.h",line 156
    2840 000001df DD18          ADDB      XAR5,#24              ; [CPU_] |1567| 
    2841 000001e0 1AC5          OR        *+XAR5[0],#0x0004     ; [CPU_] |1567| 
         000001e1 0004 
    2842 000001e2 761A   EDIS
    2843                      .dwpsn  file "C:/ti/motorware/motorware_1_01_00_18/sw/solutions/instaspin_foc/src/proj_lab03b.c",line
    2844 000001e3 2BCB          MOV       *+XAR3[1],#0          ; [CPU_] |395| 
    2845 000001e4 FFEF          B         $C$L24,UNC            ; [CPU_] |395| 
         000001e5 008A 
    2846                      ; branch occurs ; [] |395| 
    2847 000001e6       $C$L15:    
    2848 000001e6 761F-         MOVW      DP,#_gMotorVars+7     ; [CPU_U] 
         000001e7 0002 
    2849                      .dwpsn  file "C:/ti/motorware/motorware_1_01_00_18/sw/solutions/instaspin_foc/src/proj_lab03b.c",line
    2850 000001e8 9207-         MOV       AL,@_gMotorVars+7     ; [CPU_] |360| 
    2851 000001e9 5201          CMPB      AL,#1                 ; [CPU_] |360| 
    2852 000001ea EC21          BF        $C$L16,EQ             ; [CPU_] |360| 
    2853                      ; branchcc occurs ; [] |360| 
    2854 000001eb 761F-         MOVW      DP,#_halHandle        ; [CPU_U] 
         000001ec 0000 
    2855                      .dwpsn  file "C:/ti/motorware/motorware_1_01_00_18/sw/modules/hal/boards/hvkit_rev1p1/f28x/f2802x/src
    2856 000001ed 0294          MOVB      ACC,#148              ; [CPU_] |708| 
    2857                      .dwpsn  file "C:/ti/motorware/motorware_1_01_00_18/sw/solutions/instaspin_foc/src/proj_lab03b.c",line
    2858 000001ee A31C-         MOVL      P,@_halHandle         ; [CPU_] |368| 
    2859                      .dwpsn  file "C:/ti/motorware/motorware_1_01_00_18/sw/modules/hal/boards/hvkit_rev1p1/f28x/f2802x/src
    2860 000001ef 07AB          ADDL      ACC,P                 ; [CPU_] |708| 
    2861 000001f0 83A9          MOVL      XAR5,ACC              ; [CPU_] |708| 
    2862 000001f1 28A9          MOV       AL,#61388             ; [CPU_] |708| 
         000001f2 EFCC 
    2863 000001f3 9BFC          MOV       AH,#252               ; [CPU_] |708| 
    2864 000001f4 1EC5          MOVL      *+XAR5[0],ACC         ; [CPU_] |708| 
    2865 000001f5 28A9          MOV       AL,#23986             ; [CPU_] |708| 
         000001f6 5DB2 
    2866 000001f7 9BFD          MOV       AH,#253               ; [CPU_] |708| 
    2867 000001f8 1ED5          MOVL      *+XAR5[2],ACC         ; [CPU_] |708| 
    2868 000001f9 28A9          MOV       AL,#16002             ; [CPU_] |708| 
         000001fa 3E82 
    2869 000001fb 9BFC          MOV       AH,#252               ; [CPU_] |708| 
    2870 000001fc 1EE5          MOVL      *+XAR5[4],ACC         ; [CPU_] |708| 
    2871                      .dwpsn  file "C:/ti/motorware/motorware_1_01_00_18/sw/modules/hal/boards/hvkit_rev1p1/f28x/f2802x/src
    2872 000001fd 029A          MOVB      ACC,#154              ; [CPU_] |712| 
    2873 000001fe 07AB          ADDL      ACC,P                 ; [CPU_] |712| 
    2874 000001ff 83A9          MOVL      XAR5,ACC              ; [CPU_] |712| 
    2875 00000200 28A9          MOV       AL,#56841             ; [CPU_] |712| 
         00000201 DE09 
    2876 00000202 9B57          MOV       AH,#87                ; [CPU_] |712| 
    2877 00000203 1EC5          MOVL      *+XAR5[0],ACC         ; [CPU_] |712| 
    2878 00000204 28A9          MOV       AL,#37530             ; [CPU_] |712| 
TMS320C2000 Assembler PC v6.2.5 Thu Jun 22 13:27:58 2017

Tools Copyright (c) 1996-2014 Texas Instruments Incorporated
C:\Users\wmj\AppData\Local\Temp\0868410                              PAGE   58

         00000205 929A 
    2879 00000206 1ED5          MOVL      *+XAR5[2],ACC         ; [CPU_] |712| 
    2880 00000207 28A9          MOV       AL,#18824             ; [CPU_] |712| 
         00000208 4988 
    2881 00000209 1EE5          MOVL      *+XAR5[4],ACC         ; [CPU_] |712| 
    2882 0000020a 6F37          B         $C$L21,UNC            ; [CPU_] |712| 
    2883                      ; branch occurs ; [] |712| 
    2884 0000020b       $C$L16:    
    2885 0000020b 761F-         MOVW      DP,#_halHandle        ; [CPU_U] 
         0000020c 0000 
    2886                      .dwpsn  file "C:/ti/motorware/motorware_1_01_00_18/sw/solutions/instaspin_foc/src/proj_lab03b.c",line
    2887 0000020d A31C-         MOVL      P,@_halHandle         ; [CPU_] |363| 
    2888                      .dwpsn  file "C:/ti/motorware/motorware_1_01_00_18/sw/modules/hal/boards/hvkit_rev1p1/f28x/f2802x/src
    2889 0000020e D300          MOVB      XAR3,#0               ; [CPU_] |987| 
    2890                      .dwpsn  file "C:/ti/motorware/motorware_1_01_00_18/sw/solutions/instaspin_foc/src/proj_lab03b.c",line
    2891 0000020f A9A5          MOVL      XAR5,P                ; [CPU_] |363| 
    2892                      .dwpsn  file "C:/ti/motorware/motorware_1_01_00_18/sw/modules/hal/boards/hvkit_rev1p1/f28x/f2802x/src
    2893 00000210 6F14          B         $C$L18,UNC            ; [CPU_] |987| 
    2894                      ; branch occurs ; [] |987| 
    2895 00000211       $C$L17:    
    2896                      .dwpsn  file "C:/ti/motorware/motorware_1_01_00_18/sw/modules/hal/boards/hvkit_rev1p1/f28x/f2802x/src
    2897 00000211 0EA3          MOVU      ACC,AR3               ; [CPU_] |323| 
    2898 00000212 BE94          MOVB      XAR6,#148             ; [CPU_] |323| 
    2899 00000213 FF30          LSL       ACC,1                 ; [CPU_] |323| 
    2900 00000214 8EA9          MOVL      XAR0,ACC              ; [CPU_] |323| 
    2901 00000215 A0A9          MOVL      ACC,XAR5              ; [CPU_] |323| 
    2902 00000216 07A0          ADDL      ACC,XAR0              ; [CPU_] |323| 
    2903 00000217 0DA6          ADDU      ACC,AR6               ; [CPU_] |323| 
    2904 00000218 1EA7          MOVL      XAR7,ACC              ; [CPU_] |323| 
    2905                      .dwpsn  file "C:/ti/motorware/motorware_1_01_00_18/sw/modules/hal/boards/hvkit_rev1p1/f28x/f2802x/src
    2906 00000219 C4A5          MOVL      XAR6,XAR5             ; [CPU_] |991| 
    2907 0000021a 3AA9          MOVL      ACC,XAR0              ; [CPU_] |991| 
    2908 0000021b D00A          MOVB      XAR0,#10              ; [CPU_] |991| 
    2909 0000021c 5601          ADDL      XAR6,ACC              ; [CPU_] |991| 
         0000021d 00A6 
    2910 0000021e C496          MOVL      XAR6,*+XAR6[AR0]      ; [CPU_] |991| 
    2911                      .dwpsn  file "C:/ti/motorware/motorware_1_01_00_18/sw/modules/hal/boards/hvkit_rev1p1/f28x/f2802x/src
    2912 0000021f 87C7          MOVL      XT,*+XAR7[0]          ; [CPU_] |323| 
    2913                      .dwpsn  file "C:/ti/motorware/motorware_1_01_00_18/sw/modules/hal/boards/hvkit_rev1p1/f28x/f2802x/src
    2914 00000220 DB01          ADDB      XAR3,#1               ; [CPU_] |987| 
    2915                      .dwpsn  file "C:/ti/motorware/motorware_1_01_00_18/sw/modules/hal/boards/hvkit_rev1p1/f28x/f2802x/src
    2916 00000221 ABA9          MOVL      ACC,XT                ; [CPU_] |991| 
    2917 00000222 07C6          ADDL      ACC,*+XAR6[0]         ; [CPU_] |991| 
    2918                      .dwpsn  file "C:/ti/motorware/motorware_1_01_00_18/sw/modules/hal/boards/hvkit_rev1p1/f28x/f2802x/src
    2919 00000223 1EC7          MOVL      *+XAR7[0],ACC         ; [CPU_] |708| 
    2920 00000224       $C$L18:    
    2921                      .dwpsn  file "C:/ti/motorware/motorware_1_01_00_18/sw/modules/hal/boards/hvkit_rev1p1/f28x/f2802x/src
    2922 00000224 D0A6          MOVB      XAR0,#166             ; [CPU_] |987| 
    2923 00000225 92A3          MOV       AL,AR3                ; [CPU_] |987| 
    2924 00000226 5495          CMP       AL,*+XAR5[AR0]        ; [CPU_] |987| 
    2925 00000227 68EA          B         $C$L17,LO             ; [CPU_] |987| 
    2926                      ; branchcc occurs ; [] |987| 
    2927                      .dwpsn  file "C:/ti/motorware/motorware_1_01_00_18/sw/modules/hal/boards/hvkit_rev1p1/f28x/f2802x/src
    2928 00000228 D300          MOVB      XAR3,#0               ; [CPU_] |998| 
    2929 00000229 6F14          B         $C$L20,UNC            ; [CPU_] |998| 
TMS320C2000 Assembler PC v6.2.5 Thu Jun 22 13:27:58 2017

Tools Copyright (c) 1996-2014 Texas Instruments Incorporated
C:\Users\wmj\AppData\Local\Temp\0868410                              PAGE   59

    2930                      ; branch occurs ; [] |998| 
    2931 0000022a       $C$L19:    
    2932                      .dwpsn  file "C:/ti/motorware/motorware_1_01_00_18/sw/modules/hal/boards/hvkit_rev1p1/f28x/f2802x/src
    2933 0000022a 0EA3          MOVU      ACC,AR3               ; [CPU_] |327| 
    2934 0000022b BE9A          MOVB      XAR6,#154             ; [CPU_] |327| 
    2935 0000022c FF30          LSL       ACC,1                 ; [CPU_] |327| 
    2936 0000022d 8EA9          MOVL      XAR0,ACC              ; [CPU_] |327| 
    2937 0000022e A0A9          MOVL      ACC,XAR5              ; [CPU_] |327| 
    2938 0000022f 07A0          ADDL      ACC,XAR0              ; [CPU_] |327| 
    2939 00000230 0DA6          ADDU      ACC,AR6               ; [CPU_] |327| 
    2940 00000231 1EA7          MOVL      XAR7,ACC              ; [CPU_] |327| 
    2941                      .dwpsn  file "C:/ti/motorware/motorware_1_01_00_18/sw/modules/hal/boards/hvkit_rev1p1/f28x/f2802x/src
    2942 00000232 C4A5          MOVL      XAR6,XAR5             ; [CPU_] |1002| 
    2943 00000233 3AA9          MOVL      ACC,XAR0              ; [CPU_] |1002| 
    2944 00000234 D040          MOVB      XAR0,#64              ; [CPU_] |1002| 
    2945 00000235 5601          ADDL      XAR6,ACC              ; [CPU_] |1002| 
         00000236 00A6 
    2946 00000237 C496          MOVL      XAR6,*+XAR6[AR0]      ; [CPU_] |1002| 
    2947                      .dwpsn  file "C:/ti/motorware/motorware_1_01_00_18/sw/modules/hal/boards/hvkit_rev1p1/f28x/f2802x/src
    2948 00000238 87C7          MOVL      XT,*+XAR7[0]          ; [CPU_] |327| 
    2949                      .dwpsn  file "C:/ti/motorware/motorware_1_01_00_18/sw/modules/hal/boards/hvkit_rev1p1/f28x/f2802x/src
    2950 00000239 DB01          ADDB      XAR3,#1               ; [CPU_] |998| 
    2951                      .dwpsn  file "C:/ti/motorware/motorware_1_01_00_18/sw/modules/hal/boards/hvkit_rev1p1/f28x/f2802x/src
    2952 0000023a ABA9          MOVL      ACC,XT                ; [CPU_] |1002| 
    2953 0000023b 07C6          ADDL      ACC,*+XAR6[0]         ; [CPU_] |1002| 
    2954                      .dwpsn  file "C:/ti/motorware/motorware_1_01_00_18/sw/modules/hal/boards/hvkit_rev1p1/f28x/f2802x/src
    2955 0000023c 1EC7          MOVL      *+XAR7[0],ACC         ; [CPU_] |712| 
    2956 0000023d       $C$L20:    
    2957                      .dwpsn  file "C:/ti/motorware/motorware_1_01_00_18/sw/modules/hal/boards/hvkit_rev1p1/f28x/f2802x/src
    2958 0000023d D0A7          MOVB      XAR0,#167             ; [CPU_] |998| 
    2959 0000023e 92A3          MOV       AL,AR3                ; [CPU_] |998| 
    2960 0000023f 5495          CMP       AL,*+XAR5[AR0]        ; [CPU_] |998| 
    2961 00000240 68EA          B         $C$L19,LO             ; [CPU_] |998| 
    2962                      ; branchcc occurs ; [] |998| 
    2963 00000241       $C$L21:    
    2964                      .dwpsn  file "C:/ti/motorware/motorware_1_01_00_18/sw/solutions/instaspin_foc/src/proj_lab03b.c",line
    2965 00000241 76C0-         MOVL      XAR7,#_gMotorVars     ; [CPU_U] |379| 
         00000242 0080 
    2966                      .dwpsn  file "C:/ti/motorware/motorware_1_01_00_18/sw/modules/hal/boards/hvkit_rev1p1/f28x/f2802x/src
    2967 00000243 0294          MOVB      ACC,#148              ; [CPU_] |323| 
    2968                      .dwpsn  file "C:/ti/motorware/motorware_1_01_00_18/sw/solutions/instaspin_foc/src/proj_lab03b.c",line
    2969 00000244 C4A7          MOVL      XAR6,XAR7             ; [CPU_] |379| 
    2970                      .dwpsn  file "C:/ti/motorware/motorware_1_01_00_18/sw/modules/hal/boards/hvkit_rev1p1/f28x/f2802x/src
    2971 00000245 07AB          ADDL      ACC,P                 ; [CPU_] |323| 
    2972 00000246 83A9          MOVL      XAR5,ACC              ; [CPU_] |323| 
    2973 00000247 06C5          MOVL      ACC,*+XAR5[0]         ; [CPU_] |323| 
    2974                      .dwpsn  file "C:/ti/motorware/motorware_1_01_00_18/sw/solutions/instaspin_foc/src/proj_lab03b.c",line
    2975 00000248 DE5E          ADDB      XAR6,#94              ; [CPU_] |379| 
    2976 00000249 1EC6          MOVL      *+XAR6[0],ACC         ; [CPU_] |379| 
    2977                      .dwpsn  file "C:/ti/motorware/motorware_1_01_00_18/sw/solutions/instaspin_foc/src/proj_lab03b.c",line
    2978 0000024a DF64          ADDB      XAR7,#100             ; [CPU_] |384| 
    2979                      .dwpsn  file "C:/ti/motorware/motorware_1_01_00_18/sw/modules/hal/boards/hvkit_rev1p1/f28x/f2802x/src
    2980 0000024b 06D5          MOVL      ACC,*+XAR5[2]         ; [CPU_] |323| 
    2981                      .dwpsn  file "C:/ti/motorware/motorware_1_01_00_18/sw/solutions/instaspin_foc/src/proj_lab03b.c",line
    2982 0000024c 1ED6          MOVL      *+XAR6[2],ACC         ; [CPU_] |380| 
TMS320C2000 Assembler PC v6.2.5 Thu Jun 22 13:27:58 2017

Tools Copyright (c) 1996-2014 Texas Instruments Incorporated
C:\Users\wmj\AppData\Local\Temp\0868410                              PAGE   60

    2983                      .dwpsn  file "C:/ti/motorware/motorware_1_01_00_18/sw/modules/hal/boards/hvkit_rev1p1/f28x/f2802x/src
    2984 0000024d 06E5          MOVL      ACC,*+XAR5[4]         ; [CPU_] |323| 
    2985                      .dwpsn  file "C:/ti/motorware/motorware_1_01_00_18/sw/solutions/instaspin_foc/src/proj_lab03b.c",line
    2986 0000024e 1EE6          MOVL      *+XAR6[4],ACC         ; [CPU_] |381| 
    2987                      .dwpsn  file "C:/ti/motorware/motorware_1_01_00_18/sw/modules/hal/boards/hvkit_rev1p1/f28x/f2802x/src
