TMS320C2000 Assembler PC v6.2.5 Thu Jun 22 20:41:15 2017

Tools Copyright (c) 1996-2014 Texas Instruments Incorporated
C:\Users\wmj\AppData\Local\Temp\1712410                              PAGE    1

       1              ;***************************************************************
       2              ;* TMS320C2000 C/C++ Codegen                         PC v6.2.5 *
       3              ;* Date/Time created: Thu Jun 22 20:41:14 2017                 *
       4              ;***************************************************************
       5                      .compiler_opts --float_support=softlib --hll_source=on --mem_model:code=flat --mem_model:data=large -
       6        0002  FP      .set    XAR2
       7              
       8              $C$DW$CU        .dwtag  DW_TAG_compile_unit
       9                      .dwattr $C$DW$CU, DW_AT_name("C:/ti/motorware/motorware_1_01_00_18/sw/solutions/instaspin_foc/src/pro
      10                      .dwattr $C$DW$CU, DW_AT_producer("TMS320C2000 C/C++ Codegen PC v6.2.5 Copyright (c) 1996-2014 Texas I
      11                      .dwattr $C$DW$CU, DW_AT_TI_version(0x01)
      12                      .dwattr $C$DW$CU, DW_AT_comp_dir("C:\ti\motorware\motorware_1_01_00_18\sw\solutions\instaspin_foc\boa
      13              ;**************************************************************
      14              ;* CINIT RECORDS                                              *
      15              ;**************************************************************
      16 00000000               .sect   ".cinit"
      17                      .align  1
      18 00000000 FFFF          .field          -1,16
      19 00000001 0000-         .field          _gLEDcnt+0,32
         00000002 0000 
      20 00000003 0000          .bits   0,16                    ; _gLEDcnt @ 0
      21              
      22 00000004               .sect   ".cinit"
      23                      .align  1
      24 00000004 FFFF          .field          -1,16
      25 00000005 0001-         .field          _Flag_Latch_softwareUpdate+0,32
         00000006 0000 
      26 00000007 0001          .bits   1,16                    ; _Flag_Latch_softwareUpdate @ 0
      27              
      28 00000008               .sect   ".cinit"
      29                      .align  1
      30 00000008 FFFF          .field          -1,16
      31 00000009 0002-         .field          _gCounter_updateGlobals+0,32
         0000000a 0000 
      32 0000000b 0000          .bits   0,16                    ; _gCounter_updateGlobals @ 0
      33              
      34 0000000c               .sect   ".cinit"
      35                      .align  1
      36 0000000c FFFE          .field          -2,16
      37 0000000d 0004-         .field          _gMaxCurrentSlope+0,32
         0000000e 0000 
      38 0000000f 0000          .bits   0,32                    ; _gMaxCurrentSlope @ 0
         00000010 0000 
      39              
      40 00000011               .sect   ".cinit"
      41                      .align  1
      42 00000011 FFFE          .field          -2,16
      43 00000012 0012-         .field          _gNumFreqErrors+0,32
         00000013 0000 
      44 00000014 0000          .bits   0,32                    ; _gNumFreqErrors @ 0
         00000015 0000 
      45              
      46 00000016               .sect   ".cinit"
      47                      .align  1
      48 00000016 FFFE          .field          -2,16
TMS320C2000 Assembler PC v6.2.5 Thu Jun 22 20:41:15 2017

Tools Copyright (c) 1996-2014 Texas Instruments Incorporated
C:\Users\wmj\AppData\Local\Temp\1712410                              PAGE    2

      49 00000017 0014-         .field          _gMaxDeltaCntObserved+0,32
         00000018 0000 
      50 00000019 0000          .bits   0,32                    ; _gMaxDeltaCntObserved @ 0
         0000001a 0000 
      51              
      52 0000001b               .sect   ".cinit"
      53                      .align  1
      54 0000001b FFFE          .field          -2,16
      55 0000001c 0016-         .field          _gCpuUsagePercentageAvg+0,32
         0000001d 0000 
      56 0000001e 0000          .xfloat $strtod("0x0p+0")               ; _gCpuUsagePercentageAvg @ 0
         0000001f 0000 
      57              
      58 00000020               .sect   ".cinit"
      59                      .align  1
      60 00000020 FFFE          .field          -2,16
      61 00000021 0018-         .field          _gCpuUsagePercentageMax+0,32
         00000022 0000 
      62 00000023 0000          .xfloat $strtod("0x0p+0")               ; _gCpuUsagePercentageMax @ 0
         00000024 0000 
      63              
      64 00000025               .sect   ".cinit"
      65                      .align  1
      66 00000025 FFFE          .field          -2,16
      67 00000026 001C-         .field          _gCpuUsagePercentageMin+0,32
         00000027 0000 
      68 00000028 0000          .xfloat $strtod("0x0p+0")               ; _gCpuUsagePercentageMin @ 0
         00000029 0000 
      69              
      70 0000002a               .sect   ".cinit"
      71                      .align  1
      72 0000002a FFFA          .field          -$C$IR_1,16
      73 0000002b 0020-         .field          _gPwmData+0,32
         0000002c 0000 
      74 0000002d 0000          .bits   0,32                    ; _gPwmData._Tabc._value[0] @ 0
         0000002e 0000 
      75 0000002f 0000          .bits   0,32                    ; _gPwmData._Tabc._value[1] @ 32
         00000030 0000 
      76 00000031 0000          .bits   0,32                    ; _gPwmData._Tabc._value[2] @ 64
         00000032 0000 
      77        0006  $C$IR_1:        .set    6
      78              
      79 00000033               .sect   ".cinit"
      80                      .align  1
      81 00000033 FF80          .field          -$C$IR_2,16
      82 00000034 0080-         .field          _gMotorVars+0,32
         00000035 0000 
      83 00000036 0000          .bits   0,16                    ; _gMotorVars._Flag_enableSys @ 0
      84 00000037 0000          .bits   0,16                    ; _gMotorVars._Flag_Run_Identify @ 16
      85 00000038 0000          .bits   0,16                    ; _gMotorVars._Flag_MotorIdentified @ 32
      86 00000039 0001          .bits   1,16                    ; _gMotorVars._Flag_enableForceAngle @ 48
      87 0000003a 0000          .bits   0,16                    ; _gMotorVars._Flag_enableFieldWeakening @ 64
      88 0000003b 0000          .bits   0,16                    ; _gMotorVars._Flag_enableRsRecalc @ 80
      89 0000003c 0001          .bits   1,16                    ; _gMotorVars._Flag_enableUserParams @ 96
      90 0000003d 0001          .bits   1,16                    ; _gMotorVars._Flag_enableOffsetcalc @ 112
TMS320C2000 Assembler PC v6.2.5 Thu Jun 22 20:41:15 2017

Tools Copyright (c) 1996-2014 Texas Instruments Incorporated
C:\Users\wmj\AppData\Local\Temp\1712410                              PAGE    3

      91 0000003e 0000          .bits   0,16                    ; _gMotorVars._Flag_enablePowerWarp @ 128
      92 0000003f 0000          .bits   0,16                    ; _gMotorVars._Flag_enableSpeedCtrl @ 144
      93 00000040 0000          .bits   0,16                    ; _gMotorVars._Flag_enableRun @ 160
      94 00000041 0000          .bits   0,16                    ; _gMotorVars._Flag_RunState @ 176
      95 00000042 0000          .bits   0,16                    ; _gMotorVars._Flag_enableFlyingStart @ 192
      96 00000043 0001          .bits   1,16                    ; _gMotorVars._CtrlState @ 208
      97 00000044 0001          .bits   1,16                    ; _gMotorVars._EstState @ 224
      98 00000045 0000          .bits   0,16                    ; _gMotorVars._UserErrorCode @ 240
      99 00000046 0000          .bits   0,16                    ; _gMotorVars._CtrlVersion._rsvd @ 256
     100 00000047 0004          .bits   4,16                    ; _gMotorVars._CtrlVersion._targetProc @ 272
     101 00000048 0000          .bits   0,16                    ; _gMotorVars._CtrlVersion._major @ 288
     102 00000049 0000          .bits   0,16                    ; _gMotorVars._CtrlVersion._minor @ 304
     103 0000004a 0000          .bits   0,32                    ; _gMotorVars._IdRef_A @ 320
         0000004b 0000 
     104 0000004c 0000          .bits   0,32                    ; _gMotorVars._IqRef_A @ 352
         0000004d 0000 
     105 0000004e 0000          .bits   0,32                    ; _gMotorVars._SpeedRef_pu @ 384
         0000004f 0000 
     106 00000050 9999          .bits   1677721,32                      ; _gMotorVars._SpeedRef_krpm @ 416
         00000051 0019 
     107 00000052 0000          .bits   0,32                    ; _gMotorVars._SpeedTraj_krpm @ 448
         00000053 0000 
     108 00000054 3333          .bits   3355443,32                      ; _gMotorVars._MaxAccel_krpmps @ 480
         00000055 0033 
     109 00000056 0000          .bits   0,32                    ; _gMotorVars._Speed_krpm @ 512
         00000057 0000 
     110 00000058 0000          .bits   8388608,32                      ; _gMotorVars._OverModulation @ 544
         00000059 0080 
     111 0000005a EB85          .bits   1174405,32                      ; _gMotorVars._RsOnLineCurrent_A @ 576
         0000005b 0011 
     112 0000005c 0190          .bits   400,32                  ; _gMotorVars._SvgenMaxModulation_ticks @ 608
         0000005d 0000 
     113 0000005e 0000          .bits   0,32                    ; _gMotorVars._Flux_Wb @ 640
         0000005f 0000 
     114 00000060 0000          .bits   0,32                    ; _gMotorVars._Torque_Nm @ 672
         00000061 0000 
     115 00000062 0000          .xfloat $strtod("0x0p+0")               ; _gMotorVars._MagnCurr_A @ 704
         00000063 0000 
     116 00000064 0000          .xfloat $strtod("0x0p+0")               ; _gMotorVars._Rr_Ohm @ 736
         00000065 0000 
     117 00000066 0000          .xfloat $strtod("0x0p+0")               ; _gMotorVars._Rs_Ohm @ 768
         00000067 0000 
     118 00000068 0000          .xfloat $strtod("0x0p+0")               ; _gMotorVars._RsOnLine_Ohm @ 800
         00000069 0000 
     119 0000006a 0000          .xfloat $strtod("0x0p+0")               ; _gMotorVars._Lsd_H @ 832
         0000006b 0000 
     120 0000006c 0000          .xfloat $strtod("0x0p+0")               ; _gMotorVars._Lsq_H @ 864
         0000006d 0000 
     121 0000006e 0000          .xfloat $strtod("0x0p+0")               ; _gMotorVars._Flux_VpHz @ 896
         0000006f 0000 
     122 00000070 0000          .xfloat $strtod("0x0p+0")               ; _gMotorVars._ipd_excFreq_Hz @ 928
         00000071 0000 
     123 00000072 0000          .bits   0,32                    ; _gMotorVars._ipd_Kspd @ 960
         00000073 0000 
     124 00000074 0000          .bits   0,32                    ; _gMotorVars._ipd_excMag_coarse_pu @ 992
TMS320C2000 Assembler PC v6.2.5 Thu Jun 22 20:41:15 2017

Tools Copyright (c) 1996-2014 Texas Instruments Incorporated
C:\Users\wmj\AppData\Local\Temp\1712410                              PAGE    4

         00000075 0000 
     125 00000076 0000          .bits   0,32                    ; _gMotorVars._ipd_excMag_fine_pu @ 1024
         00000077 0000 
     126 00000078 0000          .xfloat $strtod("0x0p+0")               ; _gMotorVars._ipd_waitTime_coarse_sec @ 1056
         00000079 0000 
     127 0000007a 0000          .xfloat $strtod("0x0p+0")               ; _gMotorVars._ipd_waitTime_fine_sec @ 1088
         0000007b 0000 
     128 0000007c 0000          .bits   0,32                    ; _gMotorVars._Kp_spd @ 1120
         0000007d 0000 
     129 0000007e 0000          .bits   0,32                    ; _gMotorVars._Ki_spd @ 1152
         0000007f 0000 
     130 00000080 0000          .bits   0,32                    ; _gMotorVars._Kp_Idq @ 1184
         00000081 0000 
     131 00000082 0000          .bits   0,32                    ; _gMotorVars._Ki_Idq @ 1216
         00000083 0000 
     132 00000084 0000          .bits   0,32                    ; _gMotorVars._Vd @ 1248
         00000085 0000 
     133 00000086 0000          .bits   0,32                    ; _gMotorVars._Vq @ 1280
         00000087 0000 
     134 00000088 0000          .bits   0,32                    ; _gMotorVars._Vs @ 1312
         00000089 0000 
     135 0000008a 6666          .bits   6710886,32                      ; _gMotorVars._VsRef @ 1344
         0000008b 0066 
     136 0000008c 0000          .bits   0,32                    ; _gMotorVars._VdcBus_kV @ 1376
         0000008d 0000 
     137 0000008e 0000          .bits   0,32                    ; _gMotorVars._Id_A @ 1408
         0000008f 0000 
     138 00000090 0000          .bits   0,32                    ; _gMotorVars._Iq_A @ 1440
         00000091 0000 
     139 00000092 0000          .bits   0,32                    ; _gMotorVars._Is_A @ 1472
         00000093 0000 
     140 00000094 0000          .bits   0,32                    ; _gMotorVars._I_bias._value[0] @ 1504
         00000095 0000 
     141 00000096 0000          .bits   0,32                    ; _gMotorVars._I_bias._value[1] @ 1536
         00000097 0000 
     142 00000098 0000          .bits   0,32                    ; _gMotorVars._I_bias._value[2] @ 1568
         00000099 0000 
     143 0000009a 0000          .bits   0,32                    ; _gMotorVars._V_bias._value[0] @ 1600
         0000009b 0000 
     144 0000009c 0000          .bits   0,32                    ; _gMotorVars._V_bias._value[1] @ 1632
         0000009d 0000 
     145 0000009e 0000          .bits   0,32                    ; _gMotorVars._V_bias._value[2] @ 1664
         0000009f 0000 
     146 000000a0 999A          .bits   10066330,32                     ; _gMotorVars._SpeedSet_krpm @ 1696
         000000a1 0099 
     147 000000a2 0000          .bits   0,32                    ; _gMotorVars._angle_sen_pu @ 1728
         000000a3 0000 
     148 000000a4 0000          .bits   0,32                    ; _gMotorVars._angle_est_pu @ 1760
         000000a5 0000 
     149 000000a6 0000          .bits   0,32                    ; _gMotorVars._speed_sen_pu @ 1792
         000000a7 0000 
     150 000000a8 0000          .bits   0,32                    ; _gMotorVars._speed_est_pu @ 1824
         000000a9 0000 
     151 000000aa 0000          .bits   0,32                    ; _gMotorVars._speedHigh_hall2fast_pu @ 1856
         000000ab 0000 
TMS320C2000 Assembler PC v6.2.5 Thu Jun 22 20:41:15 2017

Tools Copyright (c) 1996-2014 Texas Instruments Incorporated
C:\Users\wmj\AppData\Local\Temp\1712410                              PAGE    5

     152 000000ac 0000          .bits   0,32                    ; _gMotorVars._speedLow_hall2fast_pu @ 1888
         000000ad 0000 
     153 000000ae 0000          .bits   0,32                    ; _gMotorVars._IdSet_A @ 1920
         000000af 0000 
     154 000000b0 0000          .bits   0,32                    ; _gMotorVars._IqSet_A @ 1952
         000000b1 0000 
     155 000000b2 0000          .bits   0,32                    ; _gMotorVars._IdRef_pu @ 1984
         000000b3 0000 
     156 000000b4 0000          .bits   0,32                    ; _gMotorVars._IqRef_pu @ 2016
         000000b5 0000 
     157        0080  $C$IR_2:        .set    128
     158              
     159              
     160              $C$DW$1 .dwtag  DW_TAG_subprogram, DW_AT_name("USER_setParams")
     161                      .dwattr $C$DW$1, DW_AT_TI_symbol_name("_USER_setParams")
     162                      .dwattr $C$DW$1, DW_AT_declaration
     163                      .dwattr $C$DW$1, DW_AT_external
     164              $C$DW$2 .dwtag  DW_TAG_formal_parameter
     165                      .dwattr $C$DW$2, DW_AT_type(*$C$DW$T$171)
     166                      .dwendtag $C$DW$1
     167              
     168              
     169              $C$DW$3 .dwtag  DW_TAG_subprogram, DW_AT_name("GPIO_toggle")
     170                      .dwattr $C$DW$3, DW_AT_TI_symbol_name("_GPIO_toggle")
     171                      .dwattr $C$DW$3, DW_AT_declaration
     172                      .dwattr $C$DW$3, DW_AT_external
     173              $C$DW$4 .dwtag  DW_TAG_formal_parameter
     174                      .dwattr $C$DW$4, DW_AT_type(*$C$DW$T$94)
     175              $C$DW$5 .dwtag  DW_TAG_formal_parameter
     176                      .dwattr $C$DW$5, DW_AT_type(*$C$DW$T$183)
     177                      .dwendtag $C$DW$3
     178              
     179              
     180              $C$DW$6 .dwtag  DW_TAG_subprogram, DW_AT_name("CPU_USAGE_setParams")
     181                      .dwattr $C$DW$6, DW_AT_TI_symbol_name("_CPU_USAGE_setParams")
     182                      .dwattr $C$DW$6, DW_AT_declaration
     183                      .dwattr $C$DW$6, DW_AT_external
     184              $C$DW$7 .dwtag  DW_TAG_formal_parameter
     185                      .dwattr $C$DW$7, DW_AT_type(*$C$DW$T$199)
     186              $C$DW$8 .dwtag  DW_TAG_formal_parameter
     187                      .dwattr $C$DW$8, DW_AT_type(*$C$DW$T$267)
     188              $C$DW$9 .dwtag  DW_TAG_formal_parameter
     189                      .dwattr $C$DW$9, DW_AT_type(*$C$DW$T$267)
     190                      .dwendtag $C$DW$6
     191              
     192              
     193              $C$DW$10        .dwtag  DW_TAG_subprogram, DW_AT_name("HAL_setParams")
     194                      .dwattr $C$DW$10, DW_AT_TI_symbol_name("_HAL_setParams")
     195                      .dwattr $C$DW$10, DW_AT_declaration
     196                      .dwattr $C$DW$10, DW_AT_external
     197              $C$DW$11        .dwtag  DW_TAG_formal_parameter
     198                      .dwattr $C$DW$11, DW_AT_type(*$C$DW$T$229)
     199              $C$DW$12        .dwtag  DW_TAG_formal_parameter
     200                      .dwattr $C$DW$12, DW_AT_type(*$C$DW$T$253)
     201                      .dwendtag $C$DW$10
TMS320C2000 Assembler PC v6.2.5 Thu Jun 22 20:41:15 2017

Tools Copyright (c) 1996-2014 Texas Instruments Incorporated
C:\Users\wmj\AppData\Local\Temp\1712410                              PAGE    6

     202              
     203              
     204              $C$DW$13        .dwtag  DW_TAG_subprogram, DW_AT_name("CTRL_setParams")
     205                      .dwattr $C$DW$13, DW_AT_TI_symbol_name("_CTRL_setParams")
     206                      .dwattr $C$DW$13, DW_AT_declaration
     207                      .dwattr $C$DW$13, DW_AT_external
     208              $C$DW$14        .dwtag  DW_TAG_formal_parameter
     209                      .dwattr $C$DW$14, DW_AT_type(*$C$DW$T$165)
     210              $C$DW$15        .dwtag  DW_TAG_formal_parameter
     211                      .dwattr $C$DW$15, DW_AT_type(*$C$DW$T$171)
     212                      .dwendtag $C$DW$13
     213              
     214              
     215              $C$DW$16        .dwtag  DW_TAG_subprogram, DW_AT_name("CTRL_setup")
     216                      .dwattr $C$DW$16, DW_AT_TI_symbol_name("_CTRL_setup")
     217                      .dwattr $C$DW$16, DW_AT_declaration
     218                      .dwattr $C$DW$16, DW_AT_external
     219              $C$DW$17        .dwtag  DW_TAG_formal_parameter
     220                      .dwattr $C$DW$17, DW_AT_type(*$C$DW$T$165)
     221                      .dwendtag $C$DW$16
     222              
     223              
     224              $C$DW$18        .dwtag  DW_TAG_subprogram, DW_AT_name("CTRL_setSpd_ref_krpm")
     225                      .dwattr $C$DW$18, DW_AT_TI_symbol_name("_CTRL_setSpd_ref_krpm")
     226                      .dwattr $C$DW$18, DW_AT_declaration
     227                      .dwattr $C$DW$18, DW_AT_external
     228              $C$DW$19        .dwtag  DW_TAG_formal_parameter
     229                      .dwattr $C$DW$19, DW_AT_type(*$C$DW$T$165)
     230              $C$DW$20        .dwtag  DW_TAG_formal_parameter
     231                      .dwattr $C$DW$20, DW_AT_type(*$C$DW$T$259)
     232                      .dwendtag $C$DW$18
     233              
     234              
     235              $C$DW$21        .dwtag  DW_TAG_subprogram, DW_AT_name("HAL_enableDebugInt")
     236                      .dwattr $C$DW$21, DW_AT_TI_symbol_name("_HAL_enableDebugInt")
     237                      .dwattr $C$DW$21, DW_AT_declaration
     238                      .dwattr $C$DW$21, DW_AT_external
     239              $C$DW$22        .dwtag  DW_TAG_formal_parameter
     240                      .dwattr $C$DW$22, DW_AT_type(*$C$DW$T$229)
     241                      .dwendtag $C$DW$21
     242              
     243              
     244              $C$DW$23        .dwtag  DW_TAG_subprogram, DW_AT_name("HAL_enableAdcInts")
     245                      .dwattr $C$DW$23, DW_AT_TI_symbol_name("_HAL_enableAdcInts")
     246                      .dwattr $C$DW$23, DW_AT_declaration
     247                      .dwattr $C$DW$23, DW_AT_external
     248              $C$DW$24        .dwtag  DW_TAG_formal_parameter
     249                      .dwattr $C$DW$24, DW_AT_type(*$C$DW$T$229)
     250                      .dwendtag $C$DW$23
     251              
     252              
     253              $C$DW$25        .dwtag  DW_TAG_subprogram, DW_AT_name("HAL_enableGlobalInts")
     254                      .dwattr $C$DW$25, DW_AT_TI_symbol_name("_HAL_enableGlobalInts")
     255                      .dwattr $C$DW$25, DW_AT_declaration
     256                      .dwattr $C$DW$25, DW_AT_external
TMS320C2000 Assembler PC v6.2.5 Thu Jun 22 20:41:15 2017

Tools Copyright (c) 1996-2014 Texas Instruments Incorporated
C:\Users\wmj\AppData\Local\Temp\1712410                              PAGE    7

     257              $C$DW$26        .dwtag  DW_TAG_formal_parameter
     258                      .dwattr $C$DW$26, DW_AT_type(*$C$DW$T$229)
     259                      .dwendtag $C$DW$25
     260              
     261              
     262              $C$DW$27        .dwtag  DW_TAG_subprogram, DW_AT_name("CTRL_getVersion")
     263                      .dwattr $C$DW$27, DW_AT_TI_symbol_name("_CTRL_getVersion")
     264                      .dwattr $C$DW$27, DW_AT_declaration
     265                      .dwattr $C$DW$27, DW_AT_external
     266              $C$DW$28        .dwtag  DW_TAG_formal_parameter
     267                      .dwattr $C$DW$28, DW_AT_type(*$C$DW$T$165)
     268              $C$DW$29        .dwtag  DW_TAG_formal_parameter
     269                      .dwattr $C$DW$29, DW_AT_type(*$C$DW$T$213)
     270                      .dwendtag $C$DW$27
     271              
     272              
     273              $C$DW$30        .dwtag  DW_TAG_subprogram, DW_AT_name("USER_softwareUpdate1p6")
     274                      .dwattr $C$DW$30, DW_AT_TI_symbol_name("_USER_softwareUpdate1p6")
     275                      .dwattr $C$DW$30, DW_AT_declaration
     276                      .dwattr $C$DW$30, DW_AT_external
     277              $C$DW$31        .dwtag  DW_TAG_formal_parameter
     278                      .dwattr $C$DW$31, DW_AT_type(*$C$DW$T$165)
     279                      .dwendtag $C$DW$30
     280              
     281              
     282              $C$DW$32        .dwtag  DW_TAG_subprogram, DW_AT_name("USER_checkForErrors")
     283                      .dwattr $C$DW$32, DW_AT_TI_symbol_name("_USER_checkForErrors")
     284                      .dwattr $C$DW$32, DW_AT_declaration
     285                      .dwattr $C$DW$32, DW_AT_external
     286              $C$DW$33        .dwtag  DW_TAG_formal_parameter
     287                      .dwattr $C$DW$33, DW_AT_type(*$C$DW$T$171)
     288                      .dwendtag $C$DW$32
     289              
     290              
     291              $C$DW$34        .dwtag  DW_TAG_subprogram, DW_AT_name("HAL_setupFaults")
     292                      .dwattr $C$DW$34, DW_AT_TI_symbol_name("_HAL_setupFaults")
     293                      .dwattr $C$DW$34, DW_AT_declaration
     294                      .dwattr $C$DW$34, DW_AT_external
     295              $C$DW$35        .dwtag  DW_TAG_formal_parameter
     296                      .dwattr $C$DW$35, DW_AT_type(*$C$DW$T$229)
     297                      .dwendtag $C$DW$34
     298              
     299              
     300              $C$DW$36        .dwtag  DW_TAG_subprogram, DW_AT_name("CTRL_run")
     301                      .dwattr $C$DW$36, DW_AT_TI_symbol_name("_CTRL_run")
     302                      .dwattr $C$DW$36, DW_AT_declaration
     303                      .dwattr $C$DW$36, DW_AT_external
     304              $C$DW$37        .dwtag  DW_TAG_formal_parameter
     305                      .dwattr $C$DW$37, DW_AT_type(*$C$DW$T$165)
     306              $C$DW$38        .dwtag  DW_TAG_formal_parameter
     307                      .dwattr $C$DW$38, DW_AT_type(*$C$DW$T$229)
     308              $C$DW$39        .dwtag  DW_TAG_formal_parameter
     309                      .dwattr $C$DW$39, DW_AT_type(*$C$DW$T$223)
     310              $C$DW$40        .dwtag  DW_TAG_formal_parameter
     311                      .dwattr $C$DW$40, DW_AT_type(*$C$DW$T$234)
TMS320C2000 Assembler PC v6.2.5 Thu Jun 22 20:41:15 2017

Tools Copyright (c) 1996-2014 Texas Instruments Incorporated
C:\Users\wmj\AppData\Local\Temp\1712410                              PAGE    8

     312                      .dwendtag $C$DW$36
     313              
     314              
     315              $C$DW$41        .dwtag  DW_TAG_subprogram, DW_AT_name("USER_calcPIgains")
     316                      .dwattr $C$DW$41, DW_AT_TI_symbol_name("_USER_calcPIgains")
     317                      .dwattr $C$DW$41, DW_AT_declaration
     318                      .dwattr $C$DW$41, DW_AT_external
     319              $C$DW$42        .dwtag  DW_TAG_formal_parameter
     320                      .dwattr $C$DW$42, DW_AT_type(*$C$DW$T$165)
     321                      .dwendtag $C$DW$41
     322              
     323              
     324              $C$DW$43        .dwtag  DW_TAG_subprogram, DW_AT_name("EST_setRsOnLineId_mag_pu")
     325                      .dwattr $C$DW$43, DW_AT_TI_symbol_name("_EST_setRsOnLineId_mag_pu")
     326                      .dwattr $C$DW$43, DW_AT_declaration
     327                      .dwattr $C$DW$43, DW_AT_external
     328              $C$DW$44        .dwtag  DW_TAG_formal_parameter
     329                      .dwattr $C$DW$44, DW_AT_type(*$C$DW$T$50)
     330              $C$DW$45        .dwtag  DW_TAG_formal_parameter
     331                      .dwattr $C$DW$45, DW_AT_type(*$C$DW$T$259)
     332                      .dwendtag $C$DW$43
     333              
     334              
     335              $C$DW$46        .dwtag  DW_TAG_subprogram, DW_AT_name("EST_setRsOnLine_pu")
     336                      .dwattr $C$DW$46, DW_AT_TI_symbol_name("_EST_setRsOnLine_pu")
     337                      .dwattr $C$DW$46, DW_AT_declaration
     338                      .dwattr $C$DW$46, DW_AT_external
     339              $C$DW$47        .dwtag  DW_TAG_formal_parameter
     340                      .dwattr $C$DW$47, DW_AT_type(*$C$DW$T$50)
     341              $C$DW$48        .dwtag  DW_TAG_formal_parameter
     342                      .dwattr $C$DW$48, DW_AT_type(*$C$DW$T$259)
     343                      .dwendtag $C$DW$46
     344              
     345              
     346              $C$DW$49        .dwtag  DW_TAG_subprogram, DW_AT_name("EST_setRsOnLine_qFmt")
     347                      .dwattr $C$DW$49, DW_AT_TI_symbol_name("_EST_setRsOnLine_qFmt")
     348                      .dwattr $C$DW$49, DW_AT_declaration
     349                      .dwattr $C$DW$49, DW_AT_external
     350              $C$DW$50        .dwtag  DW_TAG_formal_parameter
     351                      .dwattr $C$DW$50, DW_AT_type(*$C$DW$T$50)
     352              $C$DW$51        .dwtag  DW_TAG_formal_parameter
     353                      .dwattr $C$DW$51, DW_AT_type(*$C$DW$T$208)
     354                      .dwendtag $C$DW$49
     355              
     356              
     357              $C$DW$52        .dwtag  DW_TAG_subprogram, DW_AT_name("EST_setFlag_enableForceAngle")
     358                      .dwattr $C$DW$52, DW_AT_TI_symbol_name("_EST_setFlag_enableForceAngle")
     359                      .dwattr $C$DW$52, DW_AT_declaration
     360                      .dwattr $C$DW$52, DW_AT_external
     361              $C$DW$53        .dwtag  DW_TAG_formal_parameter
     362                      .dwattr $C$DW$53, DW_AT_type(*$C$DW$T$50)
     363              $C$DW$54        .dwtag  DW_TAG_formal_parameter
     364                      .dwattr $C$DW$54, DW_AT_type(*$C$DW$T$262)
     365                      .dwendtag $C$DW$52
     366              
TMS320C2000 Assembler PC v6.2.5 Thu Jun 22 20:41:15 2017

Tools Copyright (c) 1996-2014 Texas Instruments Incorporated
C:\Users\wmj\AppData\Local\Temp\1712410                              PAGE    9

     367              
     368              $C$DW$55        .dwtag  DW_TAG_subprogram, DW_AT_name("EST_setFlag_enableRsOnLine")
     369                      .dwattr $C$DW$55, DW_AT_TI_symbol_name("_EST_setFlag_enableRsOnLine")
     370                      .dwattr $C$DW$55, DW_AT_declaration
     371                      .dwattr $C$DW$55, DW_AT_external
     372              $C$DW$56        .dwtag  DW_TAG_formal_parameter
     373                      .dwattr $C$DW$56, DW_AT_type(*$C$DW$T$50)
     374              $C$DW$57        .dwtag  DW_TAG_formal_parameter
     375                      .dwattr $C$DW$57, DW_AT_type(*$C$DW$T$262)
     376                      .dwendtag $C$DW$55
     377              
     378              
     379              $C$DW$58        .dwtag  DW_TAG_subprogram, DW_AT_name("memCopy")
     380                      .dwattr $C$DW$58, DW_AT_TI_symbol_name("_memCopy")
     381                      .dwattr $C$DW$58, DW_AT_declaration
     382                      .dwattr $C$DW$58, DW_AT_external
     383              $C$DW$59        .dwtag  DW_TAG_formal_parameter
     384                      .dwattr $C$DW$59, DW_AT_type(*$C$DW$T$256)
     385              $C$DW$60        .dwtag  DW_TAG_formal_parameter
     386                      .dwattr $C$DW$60, DW_AT_type(*$C$DW$T$256)
     387              $C$DW$61        .dwtag  DW_TAG_formal_parameter
     388                      .dwattr $C$DW$61, DW_AT_type(*$C$DW$T$256)
     389                      .dwendtag $C$DW$58
     390              
     391              
     392              $C$DW$62        .dwtag  DW_TAG_subprogram, DW_AT_name("EST_setRsOnLineId_pu")
     393                      .dwattr $C$DW$62, DW_AT_TI_symbol_name("_EST_setRsOnLineId_pu")
     394                      .dwattr $C$DW$62, DW_AT_declaration
     395                      .dwattr $C$DW$62, DW_AT_external
     396              $C$DW$63        .dwtag  DW_TAG_formal_parameter
     397                      .dwattr $C$DW$63, DW_AT_type(*$C$DW$T$50)
     398              $C$DW$64        .dwtag  DW_TAG_formal_parameter
     399                      .dwattr $C$DW$64, DW_AT_type(*$C$DW$T$259)
     400                      .dwendtag $C$DW$62
     401              
     402              
     403              $C$DW$65        .dwtag  DW_TAG_subprogram, DW_AT_name("EST_setMaxCurrentSlope_pu")
     404                      .dwattr $C$DW$65, DW_AT_TI_symbol_name("_EST_setMaxCurrentSlope_pu")
     405                      .dwattr $C$DW$65, DW_AT_declaration
     406                      .dwattr $C$DW$65, DW_AT_external
     407              $C$DW$66        .dwtag  DW_TAG_formal_parameter
     408                      .dwattr $C$DW$66, DW_AT_type(*$C$DW$T$50)
     409              $C$DW$67        .dwtag  DW_TAG_formal_parameter
     410                      .dwattr $C$DW$67, DW_AT_type(*$C$DW$T$259)
     411                      .dwendtag $C$DW$65
     412              
     413              
     414              $C$DW$68        .dwtag  DW_TAG_subprogram, DW_AT_name("EST_setFlag_enableRsRecalc")
     415                      .dwattr $C$DW$68, DW_AT_TI_symbol_name("_EST_setFlag_enableRsRecalc")
     416                      .dwattr $C$DW$68, DW_AT_declaration
     417                      .dwattr $C$DW$68, DW_AT_external
     418              $C$DW$69        .dwtag  DW_TAG_formal_parameter
     419                      .dwattr $C$DW$69, DW_AT_type(*$C$DW$T$50)
     420              $C$DW$70        .dwtag  DW_TAG_formal_parameter
     421                      .dwattr $C$DW$70, DW_AT_type(*$C$DW$T$262)
TMS320C2000 Assembler PC v6.2.5 Thu Jun 22 20:41:15 2017

Tools Copyright (c) 1996-2014 Texas Instruments Incorporated
C:\Users\wmj\AppData\Local\Temp\1712410                              PAGE   10

     422                      .dwendtag $C$DW$68
     423              
     424              
     425              $C$DW$71        .dwtag  DW_TAG_subprogram, DW_AT_name("FEM_setParams")
     426                      .dwattr $C$DW$71, DW_AT_TI_symbol_name("_FEM_setParams")
     427                      .dwattr $C$DW$71, DW_AT_declaration
     428                      .dwattr $C$DW$71, DW_AT_external
     429              $C$DW$72        .dwtag  DW_TAG_formal_parameter
     430                      .dwattr $C$DW$72, DW_AT_type(*$C$DW$T$218)
     431              $C$DW$73        .dwtag  DW_TAG_formal_parameter
     432                      .dwattr $C$DW$73, DW_AT_type(*$C$DW$T$270)
     433              $C$DW$74        .dwtag  DW_TAG_formal_parameter
     434                      .dwattr $C$DW$74, DW_AT_type(*$C$DW$T$267)
     435              $C$DW$75        .dwtag  DW_TAG_formal_parameter
     436                      .dwattr $C$DW$75, DW_AT_type(*$C$DW$T$270)
     437              $C$DW$76        .dwtag  DW_TAG_formal_parameter
     438                      .dwattr $C$DW$76, DW_AT_type(*$C$DW$T$270)
     439                      .dwendtag $C$DW$71
     440              
     441              
     442              $C$DW$77        .dwtag  DW_TAG_subprogram, DW_AT_name("EST_setFlag_updateRs")
     443                      .dwattr $C$DW$77, DW_AT_TI_symbol_name("_EST_setFlag_updateRs")
     444                      .dwattr $C$DW$77, DW_AT_declaration
     445                      .dwattr $C$DW$77, DW_AT_external
     446              $C$DW$78        .dwtag  DW_TAG_formal_parameter
     447                      .dwattr $C$DW$78, DW_AT_type(*$C$DW$T$50)
     448              $C$DW$79        .dwtag  DW_TAG_formal_parameter
     449                      .dwattr $C$DW$79, DW_AT_type(*$C$DW$T$262)
     450                      .dwendtag $C$DW$77
     451              
     452              
     453              $C$DW$80        .dwtag  DW_TAG_subprogram, DW_AT_name("HAL_I2c_Pca9555_WrData")
     454                      .dwattr $C$DW$80, DW_AT_TI_symbol_name("_HAL_I2c_Pca9555_WrData")
     455                      .dwattr $C$DW$80, DW_AT_declaration
     456                      .dwattr $C$DW$80, DW_AT_external
     457              $C$DW$81        .dwtag  DW_TAG_formal_parameter
     458                      .dwattr $C$DW$81, DW_AT_type(*$C$DW$T$229)
     459              $C$DW$82        .dwtag  DW_TAG_formal_parameter
     460                      .dwattr $C$DW$82, DW_AT_type(*$C$DW$T$23)
     461              $C$DW$83        .dwtag  DW_TAG_formal_parameter
     462                      .dwattr $C$DW$83, DW_AT_type(*$C$DW$T$23)
     463                      .dwendtag $C$DW$80
     464              
     465                      .global _gLEDcnt
     466 00000000       _gLEDcnt:       .usect  ".ebss",1,1,0
     467              $C$DW$84        .dwtag  DW_TAG_variable, DW_AT_name("gLEDcnt")
     468                      .dwattr $C$DW$84, DW_AT_TI_symbol_name("_gLEDcnt")
     469                      .dwattr $C$DW$84, DW_AT_location[DW_OP_addr _gLEDcnt]
     470                      .dwattr $C$DW$84, DW_AT_type(*$C$DW$T$23)
     471                      .dwattr $C$DW$84, DW_AT_external
     472              
     473              $C$DW$85        .dwtag  DW_TAG_subprogram, DW_AT_name("EST_getRs_qFmt")
     474                      .dwattr $C$DW$85, DW_AT_TI_symbol_name("_EST_getRs_qFmt")
     475                      .dwattr $C$DW$85, DW_AT_type(*$C$DW$T$33)
     476                      .dwattr $C$DW$85, DW_AT_declaration
TMS320C2000 Assembler PC v6.2.5 Thu Jun 22 20:41:15 2017

Tools Copyright (c) 1996-2014 Texas Instruments Incorporated
C:\Users\wmj\AppData\Local\Temp\1712410                              PAGE   11

     477                      .dwattr $C$DW$85, DW_AT_external
     478              $C$DW$86        .dwtag  DW_TAG_formal_parameter
     479                      .dwattr $C$DW$86, DW_AT_type(*$C$DW$T$50)
     480                      .dwendtag $C$DW$85
     481              
     482              
     483              $C$DW$87        .dwtag  DW_TAG_subprogram, DW_AT_name("CTRL_updateState")
     484                      .dwattr $C$DW$87, DW_AT_TI_symbol_name("_CTRL_updateState")
     485                      .dwattr $C$DW$87, DW_AT_type(*$C$DW$T$39)
     486                      .dwattr $C$DW$87, DW_AT_declaration
     487                      .dwattr $C$DW$87, DW_AT_external
     488              $C$DW$88        .dwtag  DW_TAG_formal_parameter
     489                      .dwattr $C$DW$88, DW_AT_type(*$C$DW$T$165)
     490                      .dwendtag $C$DW$87
     491              
     492              
     493              $C$DW$89        .dwtag  DW_TAG_subprogram, DW_AT_name("EST_getState")
     494                      .dwattr $C$DW$89, DW_AT_TI_symbol_name("_EST_getState")
     495                      .dwattr $C$DW$89, DW_AT_type(*$C$DW$T$130)
     496                      .dwattr $C$DW$89, DW_AT_declaration
     497                      .dwattr $C$DW$89, DW_AT_external
     498              $C$DW$90        .dwtag  DW_TAG_formal_parameter
     499                      .dwattr $C$DW$90, DW_AT_type(*$C$DW$T$50)
     500                      .dwendtag $C$DW$89
     501              
     502              
     503              $C$DW$91        .dwtag  DW_TAG_subprogram, DW_AT_name("EST_isMotorIdentified")
     504                      .dwattr $C$DW$91, DW_AT_TI_symbol_name("_EST_isMotorIdentified")
     505                      .dwattr $C$DW$91, DW_AT_type(*$C$DW$T$39)
     506                      .dwattr $C$DW$91, DW_AT_declaration
     507                      .dwattr $C$DW$91, DW_AT_external
     508              $C$DW$92        .dwtag  DW_TAG_formal_parameter
     509                      .dwattr $C$DW$92, DW_AT_type(*$C$DW$T$50)
     510                      .dwendtag $C$DW$91
     511              
     512              
     513              $C$DW$93        .dwtag  DW_TAG_subprogram, DW_AT_name("abs")
     514                      .dwattr $C$DW$93, DW_AT_TI_symbol_name("_abs")
     515                      .dwattr $C$DW$93, DW_AT_type(*$C$DW$T$10)
     516                      .dwattr $C$DW$93, DW_AT_declaration
     517                      .dwattr $C$DW$93, DW_AT_external
     518              $C$DW$94        .dwtag  DW_TAG_formal_parameter
     519                      .dwattr $C$DW$94, DW_AT_type(*$C$DW$T$10)
     520                      .dwendtag $C$DW$93
     521              
     522                      .global _Flag_Latch_softwareUpdate
     523 00000001       _Flag_Latch_softwareUpdate:     .usect  ".ebss",1,1,0
     524              $C$DW$95        .dwtag  DW_TAG_variable, DW_AT_name("Flag_Latch_softwareUpdate")
     525                      .dwattr $C$DW$95, DW_AT_TI_symbol_name("_Flag_Latch_softwareUpdate")
     526                      .dwattr $C$DW$95, DW_AT_location[DW_OP_addr _Flag_Latch_softwareUpdate]
     527                      .dwattr $C$DW$95, DW_AT_type(*$C$DW$T$39)
     528                      .dwattr $C$DW$95, DW_AT_external
     529                      .global _gCounter_updateGlobals
     530 00000002       _gCounter_updateGlobals:        .usect  ".ebss",1,1,0
     531              $C$DW$96        .dwtag  DW_TAG_variable, DW_AT_name("gCounter_updateGlobals")
TMS320C2000 Assembler PC v6.2.5 Thu Jun 22 20:41:15 2017

Tools Copyright (c) 1996-2014 Texas Instruments Incorporated
C:\Users\wmj\AppData\Local\Temp\1712410                              PAGE   12

     532                      .dwattr $C$DW$96, DW_AT_TI_symbol_name("_gCounter_updateGlobals")
     533                      .dwattr $C$DW$96, DW_AT_location[DW_OP_addr _gCounter_updateGlobals]
     534                      .dwattr $C$DW$96, DW_AT_type(*$C$DW$T$69)
     535                      .dwattr $C$DW$96, DW_AT_external
     536              
     537              $C$DW$97        .dwtag  DW_TAG_subprogram, DW_AT_name("USER_getErrorCode")
     538                      .dwattr $C$DW$97, DW_AT_TI_symbol_name("_USER_getErrorCode")
     539                      .dwattr $C$DW$97, DW_AT_type(*$C$DW$T$132)
     540                      .dwattr $C$DW$97, DW_AT_declaration
     541                      .dwattr $C$DW$97, DW_AT_external
     542              $C$DW$98        .dwtag  DW_TAG_formal_parameter
     543                      .dwattr $C$DW$98, DW_AT_type(*$C$DW$T$171)
     544                      .dwendtag $C$DW$97
     545              
     546              $C$DW$99        .dwtag  DW_TAG_variable, DW_AT_name("RamfuncsLoadEnd")
     547                      .dwattr $C$DW$99, DW_AT_TI_symbol_name("_RamfuncsLoadEnd")
     548                      .dwattr $C$DW$99, DW_AT_type(*$C$DW$T$256)
     549                      .dwattr $C$DW$99, DW_AT_declaration
     550                      .dwattr $C$DW$99, DW_AT_external
     551              $C$DW$100       .dwtag  DW_TAG_variable, DW_AT_name("RamfuncsRunStart")
     552                      .dwattr $C$DW$100, DW_AT_TI_symbol_name("_RamfuncsRunStart")
     553                      .dwattr $C$DW$100, DW_AT_type(*$C$DW$T$256)
     554                      .dwattr $C$DW$100, DW_AT_declaration
     555                      .dwattr $C$DW$100, DW_AT_external
     556              $C$DW$101       .dwtag  DW_TAG_variable, DW_AT_name("RamfuncsLoadStart")
     557                      .dwattr $C$DW$101, DW_AT_TI_symbol_name("_RamfuncsLoadStart")
     558                      .dwattr $C$DW$101, DW_AT_type(*$C$DW$T$256)
     559                      .dwattr $C$DW$101, DW_AT_declaration
     560                      .dwattr $C$DW$101, DW_AT_external
     561                      .global _gMaxCurrentSlope
     562 00000004       _gMaxCurrentSlope:      .usect  ".ebss",2,1,1
     563              $C$DW$102       .dwtag  DW_TAG_variable, DW_AT_name("gMaxCurrentSlope")
     564                      .dwattr $C$DW$102, DW_AT_TI_symbol_name("_gMaxCurrentSlope")
     565                      .dwattr $C$DW$102, DW_AT_location[DW_OP_addr _gMaxCurrentSlope]
     566                      .dwattr $C$DW$102, DW_AT_type(*$C$DW$T$32)
     567                      .dwattr $C$DW$102, DW_AT_external
     568                      .global _gTorque_Flux_Iq_pu_to_Nm_sf
     569 00000006       _gTorque_Flux_Iq_pu_to_Nm_sf:   .usect  ".ebss",2,1,1
     570              $C$DW$103       .dwtag  DW_TAG_variable, DW_AT_name("gTorque_Flux_Iq_pu_to_Nm_sf")
     571                      .dwattr $C$DW$103, DW_AT_TI_symbol_name("_gTorque_Flux_Iq_pu_to_Nm_sf")
     572                      .dwattr $C$DW$103, DW_AT_location[DW_OP_addr _gTorque_Flux_Iq_pu_to_Nm_sf]
     573                      .dwattr $C$DW$103, DW_AT_type(*$C$DW$T$32)
     574                      .dwattr $C$DW$103, DW_AT_external
     575                      .global _gTorque_Ls_Id_Iq_pu_to_Nm_sf
     576 00000008       _gTorque_Ls_Id_Iq_pu_to_Nm_sf:  .usect  ".ebss",2,1,1
     577              $C$DW$104       .dwtag  DW_TAG_variable, DW_AT_name("gTorque_Ls_Id_Iq_pu_to_Nm_sf")
     578                      .dwattr $C$DW$104, DW_AT_TI_symbol_name("_gTorque_Ls_Id_Iq_pu_to_Nm_sf")
     579                      .dwattr $C$DW$104, DW_AT_location[DW_OP_addr _gTorque_Ls_Id_Iq_pu_to_Nm_sf]
     580                      .dwattr $C$DW$104, DW_AT_type(*$C$DW$T$32)
     581                      .dwattr $C$DW$104, DW_AT_external
     582                      .global _gFlux_pu_to_VpHz_sf
     583 0000000a       _gFlux_pu_to_VpHz_sf:   .usect  ".ebss",2,1,1
     584              $C$DW$105       .dwtag  DW_TAG_variable, DW_AT_name("gFlux_pu_to_VpHz_sf")
     585                      .dwattr $C$DW$105, DW_AT_TI_symbol_name("_gFlux_pu_to_VpHz_sf")
     586                      .dwattr $C$DW$105, DW_AT_location[DW_OP_addr _gFlux_pu_to_VpHz_sf]
TMS320C2000 Assembler PC v6.2.5 Thu Jun 22 20:41:15 2017

Tools Copyright (c) 1996-2014 Texas Instruments Incorporated
C:\Users\wmj\AppData\Local\Temp\1712410                              PAGE   13

     587                      .dwattr $C$DW$105, DW_AT_type(*$C$DW$T$32)
     588                      .dwattr $C$DW$105, DW_AT_external
     589              
     590              $C$DW$106       .dwtag  DW_TAG_subprogram, DW_AT_name("HAL_init")
     591                      .dwattr $C$DW$106, DW_AT_TI_symbol_name("_HAL_init")
     592                      .dwattr $C$DW$106, DW_AT_type(*$C$DW$T$229)
     593                      .dwattr $C$DW$106, DW_AT_declaration
     594                      .dwattr $C$DW$106, DW_AT_external
     595              $C$DW$107       .dwtag  DW_TAG_formal_parameter
     596                      .dwattr $C$DW$107, DW_AT_type(*$C$DW$T$3)
     597              $C$DW$108       .dwtag  DW_TAG_formal_parameter
     598                      .dwattr $C$DW$108, DW_AT_type(*$C$DW$T$201)
     599                      .dwendtag $C$DW$106
     600              
     601                      .global _gFlux_pu_to_Wb_sf
     602 0000000c       _gFlux_pu_to_Wb_sf:     .usect  ".ebss",2,1,1
     603              $C$DW$109       .dwtag  DW_TAG_variable, DW_AT_name("gFlux_pu_to_Wb_sf")
     604                      .dwattr $C$DW$109, DW_AT_TI_symbol_name("_gFlux_pu_to_Wb_sf")
     605                      .dwattr $C$DW$109, DW_AT_location[DW_OP_addr _gFlux_pu_to_Wb_sf]
     606                      .dwattr $C$DW$109, DW_AT_type(*$C$DW$T$32)
     607                      .dwattr $C$DW$109, DW_AT_external
     608                      .global _femHandle
     609 0000000e       _femHandle:     .usect  ".ebss",2,1,1
     610              $C$DW$110       .dwtag  DW_TAG_variable, DW_AT_name("femHandle")
     611                      .dwattr $C$DW$110, DW_AT_TI_symbol_name("_femHandle")
     612                      .dwattr $C$DW$110, DW_AT_location[DW_OP_addr _femHandle]
     613                      .dwattr $C$DW$110, DW_AT_type(*$C$DW$T$218)
     614                      .dwattr $C$DW$110, DW_AT_external
     615                      .global _halHandle
     616 00000010       _halHandle:     .usect  ".ebss",2,1,1
     617              $C$DW$111       .dwtag  DW_TAG_variable, DW_AT_name("halHandle")
     618                      .dwattr $C$DW$111, DW_AT_TI_symbol_name("_halHandle")
     619                      .dwattr $C$DW$111, DW_AT_location[DW_OP_addr _halHandle]
     620                      .dwattr $C$DW$111, DW_AT_type(*$C$DW$T$229)
     621                      .dwattr $C$DW$111, DW_AT_external
     622                      .global _gNumFreqErrors
     623 00000012       _gNumFreqErrors:        .usect  ".ebss",2,1,1
     624              $C$DW$112       .dwtag  DW_TAG_variable, DW_AT_name("gNumFreqErrors")
     625                      .dwattr $C$DW$112, DW_AT_TI_symbol_name("_gNumFreqErrors")
     626                      .dwattr $C$DW$112, DW_AT_location[DW_OP_addr _gNumFreqErrors]
     627                      .dwattr $C$DW$112, DW_AT_type(*$C$DW$T$38)
     628                      .dwattr $C$DW$112, DW_AT_external
     629                      .global _gMaxDeltaCntObserved
     630 00000014       _gMaxDeltaCntObserved:  .usect  ".ebss",2,1,1
     631              $C$DW$113       .dwtag  DW_TAG_variable, DW_AT_name("gMaxDeltaCntObserved")
     632                      .dwattr $C$DW$113, DW_AT_TI_symbol_name("_gMaxDeltaCntObserved")
     633                      .dwattr $C$DW$113, DW_AT_location[DW_OP_addr _gMaxDeltaCntObserved]
     634                      .dwattr $C$DW$113, DW_AT_type(*$C$DW$T$38)
     635                      .dwattr $C$DW$113, DW_AT_external
     636                      .global _gCpuUsagePercentageAvg
     637 00000016       _gCpuUsagePercentageAvg:        .usect  ".ebss",2,1,1
     638              $C$DW$114       .dwtag  DW_TAG_variable, DW_AT_name("gCpuUsagePercentageAvg")
     639                      .dwattr $C$DW$114, DW_AT_TI_symbol_name("_gCpuUsagePercentageAvg")
     640                      .dwattr $C$DW$114, DW_AT_location[DW_OP_addr _gCpuUsagePercentageAvg]
     641                      .dwattr $C$DW$114, DW_AT_type(*$C$DW$T$70)
TMS320C2000 Assembler PC v6.2.5 Thu Jun 22 20:41:15 2017

Tools Copyright (c) 1996-2014 Texas Instruments Incorporated
C:\Users\wmj\AppData\Local\Temp\1712410                              PAGE   14

     642                      .dwattr $C$DW$114, DW_AT_external
     643                      .global _gCpuUsagePercentageMax
     644 00000018       _gCpuUsagePercentageMax:        .usect  ".ebss",2,1,1
     645              $C$DW$115       .dwtag  DW_TAG_variable, DW_AT_name("gCpuUsagePercentageMax")
     646                      .dwattr $C$DW$115, DW_AT_TI_symbol_name("_gCpuUsagePercentageMax")
     647                      .dwattr $C$DW$115, DW_AT_location[DW_OP_addr _gCpuUsagePercentageMax]
     648                      .dwattr $C$DW$115, DW_AT_type(*$C$DW$T$70)
     649                      .dwattr $C$DW$115, DW_AT_external
     650                      .global _ctrlHandle
     651 0000001a       _ctrlHandle:    .usect  ".ebss",2,1,1
     652              $C$DW$116       .dwtag  DW_TAG_variable, DW_AT_name("ctrlHandle")
     653                      .dwattr $C$DW$116, DW_AT_TI_symbol_name("_ctrlHandle")
     654                      .dwattr $C$DW$116, DW_AT_location[DW_OP_addr _ctrlHandle]
     655                      .dwattr $C$DW$116, DW_AT_type(*$C$DW$T$165)
     656                      .dwattr $C$DW$116, DW_AT_external
     657                      .global _gCpuUsagePercentageMin
     658 0000001c       _gCpuUsagePercentageMin:        .usect  ".ebss",2,1,1
     659              $C$DW$117       .dwtag  DW_TAG_variable, DW_AT_name("gCpuUsagePercentageMin")
     660                      .dwattr $C$DW$117, DW_AT_TI_symbol_name("_gCpuUsagePercentageMin")
     661                      .dwattr $C$DW$117, DW_AT_location[DW_OP_addr _gCpuUsagePercentageMin]
     662                      .dwattr $C$DW$117, DW_AT_type(*$C$DW$T$70)
     663                      .dwattr $C$DW$117, DW_AT_external
     664                      .global _cpu_usageHandle
     665 0000001e       _cpu_usageHandle:       .usect  ".ebss",2,1,1
     666              $C$DW$118       .dwtag  DW_TAG_variable, DW_AT_name("cpu_usageHandle")
     667                      .dwattr $C$DW$118, DW_AT_TI_symbol_name("_cpu_usageHandle")
     668                      .dwattr $C$DW$118, DW_AT_location[DW_OP_addr _cpu_usageHandle]
     669                      .dwattr $C$DW$118, DW_AT_type(*$C$DW$T$199)
     670                      .dwattr $C$DW$118, DW_AT_external
     671              
     672              $C$DW$119       .dwtag  DW_TAG_subprogram, DW_AT_name("EST_getSpeed_krpm")
     673                      .dwattr $C$DW$119, DW_AT_TI_symbol_name("_EST_getSpeed_krpm")
     674                      .dwattr $C$DW$119, DW_AT_type(*$C$DW$T$32)
     675                      .dwattr $C$DW$119, DW_AT_declaration
     676                      .dwattr $C$DW$119, DW_AT_external
     677              $C$DW$120       .dwtag  DW_TAG_formal_parameter
     678                      .dwattr $C$DW$120, DW_AT_type(*$C$DW$T$50)
     679                      .dwendtag $C$DW$119
     680              
     681              
     682              $C$DW$121       .dwtag  DW_TAG_subprogram, DW_AT_name("EST_getRsOnLine_Ohm")
     683                      .dwattr $C$DW$121, DW_AT_TI_symbol_name("_EST_getRsOnLine_Ohm")
     684                      .dwattr $C$DW$121, DW_AT_type(*$C$DW$T$70)
     685                      .dwattr $C$DW$121, DW_AT_declaration
     686                      .dwattr $C$DW$121, DW_AT_external
     687              $C$DW$122       .dwtag  DW_TAG_formal_parameter
     688                      .dwattr $C$DW$122, DW_AT_type(*$C$DW$T$50)
     689                      .dwendtag $C$DW$121
     690              
     691              
     692              $C$DW$123       .dwtag  DW_TAG_subprogram, DW_AT_name("FEM_init")
     693                      .dwattr $C$DW$123, DW_AT_TI_symbol_name("_FEM_init")
     694                      .dwattr $C$DW$123, DW_AT_type(*$C$DW$T$218)
     695                      .dwattr $C$DW$123, DW_AT_declaration
     696                      .dwattr $C$DW$123, DW_AT_external
TMS320C2000 Assembler PC v6.2.5 Thu Jun 22 20:41:15 2017

Tools Copyright (c) 1996-2014 Texas Instruments Incorporated
C:\Users\wmj\AppData\Local\Temp\1712410                              PAGE   15

     697              $C$DW$124       .dwtag  DW_TAG_formal_parameter
     698                      .dwattr $C$DW$124, DW_AT_type(*$C$DW$T$3)
     699              $C$DW$125       .dwtag  DW_TAG_formal_parameter
     700                      .dwattr $C$DW$125, DW_AT_type(*$C$DW$T$201)
     701                      .dwendtag $C$DW$123
     702              
     703              
     704              $C$DW$126       .dwtag  DW_TAG_subprogram, DW_AT_name("EST_getIdRated")
     705                      .dwattr $C$DW$126, DW_AT_TI_symbol_name("_EST_getIdRated")
     706                      .dwattr $C$DW$126, DW_AT_type(*$C$DW$T$70)
     707                      .dwattr $C$DW$126, DW_AT_declaration
     708                      .dwattr $C$DW$126, DW_AT_external
     709              $C$DW$127       .dwtag  DW_TAG_formal_parameter
     710                      .dwattr $C$DW$127, DW_AT_type(*$C$DW$T$50)
     711                      .dwendtag $C$DW$126
     712              
     713              
     714              $C$DW$128       .dwtag  DW_TAG_subprogram, DW_AT_name("EST_getLs_d_H")
     715                      .dwattr $C$DW$128, DW_AT_TI_symbol_name("_EST_getLs_d_H")
     716                      .dwattr $C$DW$128, DW_AT_type(*$C$DW$T$70)
     717                      .dwattr $C$DW$128, DW_AT_declaration
     718                      .dwattr $C$DW$128, DW_AT_external
     719              $C$DW$129       .dwtag  DW_TAG_formal_parameter
     720                      .dwattr $C$DW$129, DW_AT_type(*$C$DW$T$50)
     721                      .dwendtag $C$DW$128
     722              
     723              
     724              $C$DW$130       .dwtag  DW_TAG_subprogram, DW_AT_name("EST_getFlux_VpHz")
     725                      .dwattr $C$DW$130, DW_AT_TI_symbol_name("_EST_getFlux_VpHz")
     726                      .dwattr $C$DW$130, DW_AT_type(*$C$DW$T$70)
     727                      .dwattr $C$DW$130, DW_AT_declaration
     728                      .dwattr $C$DW$130, DW_AT_external
     729              $C$DW$131       .dwtag  DW_TAG_formal_parameter
     730                      .dwattr $C$DW$131, DW_AT_type(*$C$DW$T$50)
     731                      .dwendtag $C$DW$130
     732              
     733              
     734              $C$DW$132       .dwtag  DW_TAG_subprogram, DW_AT_name("__IQsat")
     735                      .dwattr $C$DW$132, DW_AT_TI_symbol_name("___IQsat")
     736                      .dwattr $C$DW$132, DW_AT_type(*$C$DW$T$12)
     737                      .dwattr $C$DW$132, DW_AT_declaration
     738                      .dwattr $C$DW$132, DW_AT_external
     739              $C$DW$133       .dwtag  DW_TAG_formal_parameter
     740                      .dwattr $C$DW$133, DW_AT_type(*$C$DW$T$12)
     741              $C$DW$134       .dwtag  DW_TAG_formal_parameter
     742                      .dwattr $C$DW$134, DW_AT_type(*$C$DW$T$12)
     743              $C$DW$135       .dwtag  DW_TAG_formal_parameter
     744                      .dwattr $C$DW$135, DW_AT_type(*$C$DW$T$12)
     745                      .dwendtag $C$DW$132
     746              
     747              
     748              $C$DW$136       .dwtag  DW_TAG_subprogram, DW_AT_name("EST_get_pu_to_krpm_sf")
     749                      .dwattr $C$DW$136, DW_AT_TI_symbol_name("_EST_get_pu_to_krpm_sf")
     750                      .dwattr $C$DW$136, DW_AT_type(*$C$DW$T$32)
     751                      .dwattr $C$DW$136, DW_AT_declaration
TMS320C2000 Assembler PC v6.2.5 Thu Jun 22 20:41:15 2017

Tools Copyright (c) 1996-2014 Texas Instruments Incorporated
C:\Users\wmj\AppData\Local\Temp\1712410                              PAGE   16

     752                      .dwattr $C$DW$136, DW_AT_external
     753              $C$DW$137       .dwtag  DW_TAG_formal_parameter
     754                      .dwattr $C$DW$137, DW_AT_type(*$C$DW$T$50)
     755                      .dwendtag $C$DW$136
     756              
     757              
     758              $C$DW$138       .dwtag  DW_TAG_subprogram, DW_AT_name("__IQmpy")
     759                      .dwattr $C$DW$138, DW_AT_TI_symbol_name("___IQmpy")
     760                      .dwattr $C$DW$138, DW_AT_type(*$C$DW$T$12)
     761                      .dwattr $C$DW$138, DW_AT_declaration
     762                      .dwattr $C$DW$138, DW_AT_external
     763              $C$DW$139       .dwtag  DW_TAG_formal_parameter
     764                      .dwattr $C$DW$139, DW_AT_type(*$C$DW$T$12)
     765              $C$DW$140       .dwtag  DW_TAG_formal_parameter
     766                      .dwattr $C$DW$140, DW_AT_type(*$C$DW$T$12)
     767              $C$DW$141       .dwtag  DW_TAG_formal_parameter
     768                      .dwattr $C$DW$141, DW_AT_type(*$C$DW$T$10)
     769                      .dwendtag $C$DW$138
     770              
     771              
     772              $C$DW$142       .dwtag  DW_TAG_subprogram, DW_AT_name("EST_getRs_pu")
     773                      .dwattr $C$DW$142, DW_AT_TI_symbol_name("_EST_getRs_pu")
     774                      .dwattr $C$DW$142, DW_AT_type(*$C$DW$T$32)
     775                      .dwattr $C$DW$142, DW_AT_declaration
     776                      .dwattr $C$DW$142, DW_AT_external
     777              $C$DW$143       .dwtag  DW_TAG_formal_parameter
     778                      .dwattr $C$DW$143, DW_AT_type(*$C$DW$T$50)
     779                      .dwendtag $C$DW$142
     780              
     781              
     782              $C$DW$144       .dwtag  DW_TAG_subprogram, DW_AT_name("EST_getRs_Ohm")
     783                      .dwattr $C$DW$144, DW_AT_TI_symbol_name("_EST_getRs_Ohm")
     784                      .dwattr $C$DW$144, DW_AT_type(*$C$DW$T$70)
     785                      .dwattr $C$DW$144, DW_AT_declaration
     786                      .dwattr $C$DW$144, DW_AT_external
     787              $C$DW$145       .dwtag  DW_TAG_formal_parameter
     788                      .dwattr $C$DW$145, DW_AT_type(*$C$DW$T$50)
     789                      .dwendtag $C$DW$144
     790              
     791              
     792              $C$DW$146       .dwtag  DW_TAG_subprogram, DW_AT_name("EST_getMaxCurrentSlope_pu")
     793                      .dwattr $C$DW$146, DW_AT_TI_symbol_name("_EST_getMaxCurrentSlope_pu")
     794                      .dwattr $C$DW$146, DW_AT_type(*$C$DW$T$32)
     795                      .dwattr $C$DW$146, DW_AT_declaration
     796                      .dwattr $C$DW$146, DW_AT_external
     797              $C$DW$147       .dwtag  DW_TAG_formal_parameter
     798                      .dwattr $C$DW$147, DW_AT_type(*$C$DW$T$50)
     799                      .dwendtag $C$DW$146
     800              
     801              
     802              $C$DW$148       .dwtag  DW_TAG_subprogram, DW_AT_name("EST_getRr_Ohm")
     803                      .dwattr $C$DW$148, DW_AT_TI_symbol_name("_EST_getRr_Ohm")
     804                      .dwattr $C$DW$148, DW_AT_type(*$C$DW$T$70)
     805                      .dwattr $C$DW$148, DW_AT_declaration
     806                      .dwattr $C$DW$148, DW_AT_external
TMS320C2000 Assembler PC v6.2.5 Thu Jun 22 20:41:15 2017

Tools Copyright (c) 1996-2014 Texas Instruments Incorporated
C:\Users\wmj\AppData\Local\Temp\1712410                              PAGE   17

     807              $C$DW$149       .dwtag  DW_TAG_formal_parameter
     808                      .dwattr $C$DW$149, DW_AT_type(*$C$DW$T$50)
     809                      .dwendtag $C$DW$148
     810              
     811              
     812              $C$DW$150       .dwtag  DW_TAG_subprogram, DW_AT_name("USER_computeTorque_Ls_Id_Iq_pu_to_Nm_sf")
     813                      .dwattr $C$DW$150, DW_AT_TI_symbol_name("_USER_computeTorque_Ls_Id_Iq_pu_to_Nm_sf")
     814                      .dwattr $C$DW$150, DW_AT_type(*$C$DW$T$32)
     815                      .dwattr $C$DW$150, DW_AT_declaration
     816                      .dwattr $C$DW$150, DW_AT_external
     817              
     818              $C$DW$151       .dwtag  DW_TAG_subprogram, DW_AT_name("USER_computeFlux_pu_to_Wb_sf")
     819                      .dwattr $C$DW$151, DW_AT_TI_symbol_name("_USER_computeFlux_pu_to_Wb_sf")
     820                      .dwattr $C$DW$151, DW_AT_type(*$C$DW$T$32)
     821                      .dwattr $C$DW$151, DW_AT_declaration
     822                      .dwattr $C$DW$151, DW_AT_external
     823              
     824              $C$DW$152       .dwtag  DW_TAG_subprogram, DW_AT_name("USER_computeTorque_Flux_Iq_pu_to_Nm_sf")
     825                      .dwattr $C$DW$152, DW_AT_TI_symbol_name("_USER_computeTorque_Flux_Iq_pu_to_Nm_sf")
     826                      .dwattr $C$DW$152, DW_AT_type(*$C$DW$T$32)
     827                      .dwattr $C$DW$152, DW_AT_declaration
     828                      .dwattr $C$DW$152, DW_AT_external
     829              
     830              $C$DW$153       .dwtag  DW_TAG_subprogram, DW_AT_name("CTRL_initCtrl")
     831                      .dwattr $C$DW$153, DW_AT_TI_symbol_name("_CTRL_initCtrl")
     832                      .dwattr $C$DW$153, DW_AT_type(*$C$DW$T$165)
     833                      .dwattr $C$DW$153, DW_AT_declaration
     834                      .dwattr $C$DW$153, DW_AT_external
     835              $C$DW$154       .dwtag  DW_TAG_formal_parameter
     836                      .dwattr $C$DW$154, DW_AT_type(*$C$DW$T$208)
     837              $C$DW$155       .dwtag  DW_TAG_formal_parameter
     838                      .dwattr $C$DW$155, DW_AT_type(*$C$DW$T$3)
     839              $C$DW$156       .dwtag  DW_TAG_formal_parameter
     840                      .dwattr $C$DW$156, DW_AT_type(*$C$DW$T$201)
     841                      .dwendtag $C$DW$153
     842              
     843              
     844              $C$DW$157       .dwtag  DW_TAG_subprogram, DW_AT_name("USER_computeFlux")
     845                      .dwattr $C$DW$157, DW_AT_TI_symbol_name("_USER_computeFlux")
     846                      .dwattr $C$DW$157, DW_AT_type(*$C$DW$T$32)
     847                      .dwattr $C$DW$157, DW_AT_declaration
     848                      .dwattr $C$DW$157, DW_AT_external
     849              $C$DW$158       .dwtag  DW_TAG_formal_parameter
     850                      .dwattr $C$DW$158, DW_AT_type(*$C$DW$T$165)
     851              $C$DW$159       .dwtag  DW_TAG_formal_parameter
     852                      .dwattr $C$DW$159, DW_AT_type(*$C$DW$T$259)
     853                      .dwendtag $C$DW$157
     854              
     855              
     856              $C$DW$160       .dwtag  DW_TAG_subprogram, DW_AT_name("USER_computeFlux_pu_to_VpHz_sf")
     857                      .dwattr $C$DW$160, DW_AT_TI_symbol_name("_USER_computeFlux_pu_to_VpHz_sf")
     858                      .dwattr $C$DW$160, DW_AT_type(*$C$DW$T$32)
     859                      .dwattr $C$DW$160, DW_AT_declaration
     860                      .dwattr $C$DW$160, DW_AT_external
     861              
TMS320C2000 Assembler PC v6.2.5 Thu Jun 22 20:41:15 2017

Tools Copyright (c) 1996-2014 Texas Instruments Incorporated
C:\Users\wmj\AppData\Local\Temp\1712410                              PAGE   18

     862              $C$DW$161       .dwtag  DW_TAG_subprogram, DW_AT_name("USER_computeTorque_Nm")
     863                      .dwattr $C$DW$161, DW_AT_TI_symbol_name("_USER_computeTorque_Nm")
     864                      .dwattr $C$DW$161, DW_AT_type(*$C$DW$T$32)
     865                      .dwattr $C$DW$161, DW_AT_declaration
     866                      .dwattr $C$DW$161, DW_AT_external
     867              $C$DW$162       .dwtag  DW_TAG_formal_parameter
     868                      .dwattr $C$DW$162, DW_AT_type(*$C$DW$T$165)
     869              $C$DW$163       .dwtag  DW_TAG_formal_parameter
     870                      .dwattr $C$DW$163, DW_AT_type(*$C$DW$T$259)
     871              $C$DW$164       .dwtag  DW_TAG_formal_parameter
     872                      .dwattr $C$DW$164, DW_AT_type(*$C$DW$T$259)
     873                      .dwendtag $C$DW$161
     874              
     875              
     876              $C$DW$165       .dwtag  DW_TAG_subprogram, DW_AT_name("EST_getLs_q_H")
     877                      .dwattr $C$DW$165, DW_AT_TI_symbol_name("_EST_getLs_q_H")
     878                      .dwattr $C$DW$165, DW_AT_type(*$C$DW$T$70)
     879                      .dwattr $C$DW$165, DW_AT_declaration
     880                      .dwattr $C$DW$165, DW_AT_external
     881              $C$DW$166       .dwtag  DW_TAG_formal_parameter
     882                      .dwattr $C$DW$166, DW_AT_type(*$C$DW$T$50)
     883                      .dwendtag $C$DW$165
     884              
     885              
     886              $C$DW$167       .dwtag  DW_TAG_subprogram, DW_AT_name("CPU_USAGE_init")
     887                      .dwattr $C$DW$167, DW_AT_TI_symbol_name("_CPU_USAGE_init")
     888                      .dwattr $C$DW$167, DW_AT_type(*$C$DW$T$199)
     889                      .dwattr $C$DW$167, DW_AT_declaration
     890                      .dwattr $C$DW$167, DW_AT_external
     891              $C$DW$168       .dwtag  DW_TAG_formal_parameter
     892                      .dwattr $C$DW$168, DW_AT_type(*$C$DW$T$3)
     893              $C$DW$169       .dwtag  DW_TAG_formal_parameter
     894                      .dwattr $C$DW$169, DW_AT_type(*$C$DW$T$201)
     895                      .dwendtag $C$DW$167
     896              
     897                      .global _gPwmData
     898 00000020       _gPwmData:      .usect  ".ebss",6,1,1
     899              $C$DW$170       .dwtag  DW_TAG_variable, DW_AT_name("gPwmData")
     900                      .dwattr $C$DW$170, DW_AT_TI_symbol_name("_gPwmData")
     901                      .dwattr $C$DW$170, DW_AT_location[DW_OP_addr _gPwmData]
     902                      .dwattr $C$DW$170, DW_AT_type(*$C$DW$T$233)
     903                      .dwattr $C$DW$170, DW_AT_external
     904                      .global _gAdcData
     905 00000026       _gAdcData:      .usect  ".ebss",14,1,1
     906              $C$DW$171       .dwtag  DW_TAG_variable, DW_AT_name("gAdcData")
     907                      .dwattr $C$DW$171, DW_AT_TI_symbol_name("_gAdcData")
     908                      .dwattr $C$DW$171, DW_AT_location[DW_OP_addr _gAdcData]
     909                      .dwattr $C$DW$171, DW_AT_type(*$C$DW$T$118)
     910                      .dwattr $C$DW$171, DW_AT_external
     911                      .global _fem
     912 00000040       _fem:   .usect  ".ebss",18,1,1
     913              $C$DW$172       .dwtag  DW_TAG_variable, DW_AT_name("fem")
     914                      .dwattr $C$DW$172, DW_AT_TI_symbol_name("_fem")
     915                      .dwattr $C$DW$172, DW_AT_location[DW_OP_addr _fem]
     916                      .dwattr $C$DW$172, DW_AT_type(*$C$DW$T$216)
TMS320C2000 Assembler PC v6.2.5 Thu Jun 22 20:41:15 2017

Tools Copyright (c) 1996-2014 Texas Instruments Incorporated
C:\Users\wmj\AppData\Local\Temp\1712410                              PAGE   19

     917                      .dwattr $C$DW$172, DW_AT_external
     918                      .global _cpu_usage
     919 00000052       _cpu_usage:     .usect  ".ebss",22,1,1
     920              $C$DW$173       .dwtag  DW_TAG_variable, DW_AT_name("cpu_usage")
     921                      .dwattr $C$DW$173, DW_AT_TI_symbol_name("_cpu_usage")
     922                      .dwattr $C$DW$173, DW_AT_location[DW_OP_addr _cpu_usage]
     923                      .dwattr $C$DW$173, DW_AT_type(*$C$DW$T$197)
     924                      .dwattr $C$DW$173, DW_AT_external
     925                      .global _gMotorVars
     926 00000080       _gMotorVars:    .usect  ".ebss",128,1,1
     927              $C$DW$174       .dwtag  DW_TAG_variable, DW_AT_name("gMotorVars")
     928                      .dwattr $C$DW$174, DW_AT_TI_symbol_name("_gMotorVars")
     929                      .dwattr $C$DW$174, DW_AT_location[DW_OP_addr _gMotorVars]
     930                      .dwattr $C$DW$174, DW_AT_type(*$C$DW$T$237)
     931                      .dwattr $C$DW$174, DW_AT_external
     932              $C$DW$175       .dwtag  DW_TAG_variable, DW_AT_name("hal")
     933                      .dwattr $C$DW$175, DW_AT_TI_symbol_name("_hal")
     934                      .dwattr $C$DW$175, DW_AT_type(*$C$DW$T$226)
     935                      .dwattr $C$DW$175, DW_AT_declaration
     936                      .dwattr $C$DW$175, DW_AT_external
     937                      .global _gUserParams
     938 00000100       _gUserParams:   .usect  ".ebss",172,1,1
     939              $C$DW$176       .dwtag  DW_TAG_variable, DW_AT_name("gUserParams")
     940                      .dwattr $C$DW$176, DW_AT_TI_symbol_name("_gUserParams")
     941                      .dwattr $C$DW$176, DW_AT_location[DW_OP_addr _gUserParams]
     942                      .dwattr $C$DW$176, DW_AT_type(*$C$DW$T$170)
     943                      .dwattr $C$DW$176, DW_AT_external
     944                      .global _ctrl
     945 000001c0       _ctrl:  .usect  ".ebss",264,1,1
     946              $C$DW$177       .dwtag  DW_TAG_variable, DW_AT_name("ctrl")
     947                      .dwattr $C$DW$177, DW_AT_TI_symbol_name("_ctrl")
     948                      .dwattr $C$DW$177, DW_AT_location[DW_OP_addr _ctrl]
     949                      .dwattr $C$DW$177, DW_AT_type(*$C$DW$T$205)
     950                      .dwattr $C$DW$177, DW_AT_external
     951              ;       c:\ti\ccsv6\tools\compiler\c2000_6.2.5\bin\opt2000.exe C:\\Users\\wmj\\AppData\\Local\\Temp\\171242 C
     952              ;       c:\ti\ccsv6\tools\compiler\c2000_6.2.5\bin\ac2000.exe -@C:\\Users\\wmj\\AppData\\Local\\Temp\\1712416
     953 00000000               .sect   ".text"
     954                      .clink
     955                      .global _updateKpKiGains
     956              
     957              $C$DW$178       .dwtag  DW_TAG_subprogram, DW_AT_name("updateKpKiGains")
     958                      .dwattr $C$DW$178, DW_AT_low_pc(_updateKpKiGains)
     959                      .dwattr $C$DW$178, DW_AT_high_pc(0x00)
     960                      .dwattr $C$DW$178, DW_AT_TI_symbol_name("_updateKpKiGains")
     961                      .dwattr $C$DW$178, DW_AT_external
     962                      .dwattr $C$DW$178, DW_AT_TI_begin_file("C:/ti/motorware/motorware_1_01_00_18/sw/solutions/instaspin_f
     963                      .dwattr $C$DW$178, DW_AT_TI_begin_line(0x261)
     964                      .dwattr $C$DW$178, DW_AT_TI_begin_column(0x06)
     965                      .dwattr $C$DW$178, DW_AT_TI_max_frame_size(-2)
     966                      .dwpsn  file "C:/ti/motorware/motorware_1_01_00_18/sw/solutions/instaspin_foc/src/proj_lab07.c",line 
     967              
     968                      .dwfde $C$DW$CIE, _updateKpKiGains
     969              $C$DW$179       .dwtag  DW_TAG_formal_parameter, DW_AT_name("handle")
     970                      .dwattr $C$DW$179, DW_AT_TI_symbol_name("_handle")
     971                      .dwattr $C$DW$179, DW_AT_type(*$C$DW$T$165)
TMS320C2000 Assembler PC v6.2.5 Thu Jun 22 20:41:15 2017

Tools Copyright (c) 1996-2014 Texas Instruments Incorporated
C:\Users\wmj\AppData\Local\Temp\1712410                              PAGE   20

     972                      .dwattr $C$DW$179, DW_AT_location[DW_OP_reg12]
     973              
     974              ;***************************************************************
     975              ;* FNAME: _updateKpKiGains              FR SIZE:   0           *
     976              ;*                                                             *
     977              ;* FUNCTION ENVIRONMENT                                        *
     978              ;*                                                             *
     979              ;* FUNCTION PROPERTIES                                         *
     980              ;*                            0 Parameter,  0 Auto,  0 SOE     *
     981              ;***************************************************************
     982              
     983              _updateKpKiGains:
     984              ;* AR4   assigned to _handle
     985              $C$DW$180       .dwtag  DW_TAG_variable, DW_AT_name("handle")
     986                      .dwattr $C$DW$180, DW_AT_TI_symbol_name("_handle")
     987                      .dwattr $C$DW$180, DW_AT_type(*$C$DW$T$207)
     988                      .dwattr $C$DW$180, DW_AT_location[DW_OP_reg12]
     989              ;* AL    assigned to _Ki
     990              $C$DW$181       .dwtag  DW_TAG_variable, DW_AT_name("Ki")
     991                      .dwattr $C$DW$181, DW_AT_TI_symbol_name("_Ki")
     992                      .dwattr $C$DW$181, DW_AT_type(*$C$DW$T$32)
     993                      .dwattr $C$DW$181, DW_AT_location[DW_OP_reg0]
     994              ;* AL    assigned to _Kp
     995              $C$DW$182       .dwtag  DW_TAG_variable, DW_AT_name("Kp")
     996                      .dwattr $C$DW$182, DW_AT_TI_symbol_name("_Kp")
     997                      .dwattr $C$DW$182, DW_AT_type(*$C$DW$T$32)
     998                      .dwattr $C$DW$182, DW_AT_location[DW_OP_reg0]
     999              ;* AL    assigned to _Ki
    1000              $C$DW$183       .dwtag  DW_TAG_variable, DW_AT_name("Ki")
    1001                      .dwattr $C$DW$183, DW_AT_TI_symbol_name("_Ki")
    1002                      .dwattr $C$DW$183, DW_AT_type(*$C$DW$T$32)
    1003                      .dwattr $C$DW$183, DW_AT_location[DW_OP_reg0]
    1004              ;* AL    assigned to _Kp
    1005              $C$DW$184       .dwtag  DW_TAG_variable, DW_AT_name("Kp")
    1006                      .dwattr $C$DW$184, DW_AT_TI_symbol_name("_Kp")
    1007                      .dwattr $C$DW$184, DW_AT_type(*$C$DW$T$32)
    1008                      .dwattr $C$DW$184, DW_AT_location[DW_OP_reg0]
    1009              ;* AL    assigned to _Ki
    1010              $C$DW$185       .dwtag  DW_TAG_variable, DW_AT_name("Ki")
    1011                      .dwattr $C$DW$185, DW_AT_TI_symbol_name("_Ki")
    1012                      .dwattr $C$DW$185, DW_AT_type(*$C$DW$T$32)
    1013                      .dwattr $C$DW$185, DW_AT_location[DW_OP_reg0]
    1014              ;* AL    assigned to _Kp
    1015              $C$DW$186       .dwtag  DW_TAG_variable, DW_AT_name("Kp")
    1016                      .dwattr $C$DW$186, DW_AT_TI_symbol_name("_Kp")
    1017                      .dwattr $C$DW$186, DW_AT_type(*$C$DW$T$32)
    1018                      .dwattr $C$DW$186, DW_AT_location[DW_OP_reg0]
    1019                      .dwcfi  cfa_offset, -2
    1020                      .dwcfi  save_reg_to_mem, 26, 0
    1021                      .dwcfi  save_reg_to_reg, 78, 26
    1022 00000000 761F-         MOVW      DP,#_gMotorVars+13    ; [CPU_U] 
         00000001 0002 
    1023                      .dwpsn  file "C:/ti/motorware/motorware_1_01_00_18/sw/solutions/instaspin_foc/src/proj_lab07.c",line 
    1024 00000002 920D-         MOV       AL,@_gMotorVars+13    ; [CPU_] |611| 
    1025 00000003 5203          CMPB      AL,#3                 ; [CPU_] |611| 
TMS320C2000 Assembler PC v6.2.5 Thu Jun 22 20:41:15 2017

Tools Copyright (c) 1996-2014 Texas Instruments Incorporated
C:\Users\wmj\AppData\Local\Temp\1712410                              PAGE   21

    1026 00000004 ED1C          BF        $C$L1,NEQ             ; [CPU_] |611| 
    1027                      ; branchcc occurs ; [] |611| 
    1028 00000005 9202-         MOV       AL,@_gMotorVars+2     ; [CPU_] |611| 
    1029 00000006 5201          CMPB      AL,#1                 ; [CPU_] |611| 
    1030 00000007 ED19          BF        $C$L1,NEQ             ; [CPU_] |611| 
    1031                      ; branchcc occurs ; [] |611| 
    1032 00000008 761F-         MOVW      DP,#_Flag_Latch_softwareUpdate ; [CPU_U] 
         00000009 0000 
    1033 0000000a 9201-         MOV       AL,@_Flag_Latch_softwareUpdate ; [CPU_] |611| 
    1034 0000000b ED15          BF        $C$L1,NEQ             ; [CPU_] |611| 
    1035                      ; branchcc occurs ; [] |611| 
    1036 0000000c 761F-         MOVW      DP,#_gMotorVars+70    ; [CPU_U] 
         0000000d 0003 
    1037                      .dwpsn  file "C:/ti/motorware/motorware_1_01_00_18/sw/modules/ctrl/src/32b/ctrl.h",line 1505,column 7
    1038 0000000e D0CE          MOVB      XAR0,#206             ; [CPU_] |1505| 
    1039                      .dwpsn  file "C:/ti/motorware/motorware_1_01_00_18/sw/solutions/instaspin_foc/src/proj_lab07.c",line 
    1040 0000000f 0606-         MOVL      ACC,@_gMotorVars+70   ; [CPU_] |614| 
    1041                      .dwpsn  file "C:/ti/motorware/motorware_1_01_00_18/sw/modules/ctrl/src/32b/ctrl.h",line 1505,column 7
    1042 00000010 1E94          MOVL      *+XAR4[AR0],ACC       ; [CPU_] |1505| 
    1043                      .dwpsn  file "C:/ti/motorware/motorware_1_01_00_18/sw/modules/ctrl/src/32b/ctrl.h",line 1480,column 7
    1044 00000011 D0D4          MOVB      XAR0,#212             ; [CPU_] |1480| 
    1045                      .dwpsn  file "C:/ti/motorware/motorware_1_01_00_18/sw/solutions/instaspin_foc/src/proj_lab07.c",line 
    1046 00000012 0608-         MOVL      ACC,@_gMotorVars+72   ; [CPU_] |615| 
    1047                      .dwpsn  file "C:/ti/motorware/motorware_1_01_00_18/sw/modules/ctrl/src/32b/ctrl.h",line 1480,column 7
    1048 00000013 1E94          MOVL      *+XAR4[AR0],ACC       ; [CPU_] |1480| 
    1049                      .dwpsn  file "C:/ti/motorware/motorware_1_01_00_18/sw/modules/ctrl/src/32b/ctrl.h",line 1509,column 7
    1050 00000014 D0CA          MOVB      XAR0,#202             ; [CPU_] |1509| 
    1051                      .dwpsn  file "C:/ti/motorware/motorware_1_01_00_18/sw/solutions/instaspin_foc/src/proj_lab07.c",line 
    1052 00000015 060A-         MOVL      ACC,@_gMotorVars+74   ; [CPU_] |618| 
    1053                      .dwpsn  file "C:/ti/motorware/motorware_1_01_00_18/sw/modules/ctrl/src/32b/ctrl.h",line 1509,column 7
    1054 00000016 1E94          MOVL      *+XAR4[AR0],ACC       ; [CPU_] |1509| 
    1055                      .dwpsn  file "C:/ti/motorware/motorware_1_01_00_18/sw/modules/ctrl/src/32b/ctrl.h",line 1484,column 7
    1056 00000017 D0D0          MOVB      XAR0,#208             ; [CPU_] |1484| 
    1057                      .dwpsn  file "C:/ti/motorware/motorware_1_01_00_18/sw/solutions/instaspin_foc/src/proj_lab07.c",line 
    1058 00000018 060C-         MOVL      ACC,@_gMotorVars+76   ; [CPU_] |619| 
    1059                      .dwpsn  file "C:/ti/motorware/motorware_1_01_00_18/sw/modules/ctrl/src/32b/ctrl.h",line 1484,column 7
    1060 00000019 1E94          MOVL      *+XAR4[AR0],ACC       ; [CPU_] |1484| 
    1061                      .dwpsn  file "C:/ti/motorware/motorware_1_01_00_18/sw/modules/ctrl/src/32b/ctrl.h",line 1513,column 7
    1062 0000001a D0CC          MOVB      XAR0,#204             ; [CPU_] |1513| 
    1063                      .dwpsn  file "C:/ti/motorware/motorware_1_01_00_18/sw/solutions/instaspin_foc/src/proj_lab07.c",line 
    1064 0000001b 060A-         MOVL      ACC,@_gMotorVars+74   ; [CPU_] |620| 
    1065                      .dwpsn  file "C:/ti/motorware/motorware_1_01_00_18/sw/modules/ctrl/src/32b/ctrl.h",line 1513,column 7
    1066 0000001c 1E94          MOVL      *+XAR4[AR0],ACC       ; [CPU_] |1513| 
    1067                      .dwpsn  file "C:/ti/motorware/motorware_1_01_00_18/sw/solutions/instaspin_foc/src/proj_lab07.c",line 
    1068 0000001d 060C-         MOVL      ACC,@_gMotorVars+76   ; [CPU_] |621| 
    1069                      .dwpsn  file "C:/ti/motorware/motorware_1_01_00_18/sw/modules/ctrl/src/32b/ctrl.h",line 1488,column 7
    1070 0000001e D0D2          MOVB      XAR0,#210             ; [CPU_] |1488| 
    1071 0000001f 1E94          MOVL      *+XAR4[AR0],ACC       ; [CPU_] |1488| 
    1072              $C$L1:    
    1073              $C$DW$187       .dwtag  DW_TAG_TI_branch
    1074                      .dwattr $C$DW$187, DW_AT_low_pc(0x00)
    1075                      .dwattr $C$DW$187, DW_AT_TI_return
    1076 00000020 0006          LRETR     ; [CPU_] 
    1077                      ; return occurs ; [] 
    1078                      .dwattr $C$DW$178, DW_AT_TI_end_file("C:/ti/motorware/motorware_1_01_00_18/sw/solutions/instaspin_foc
TMS320C2000 Assembler PC v6.2.5 Thu Jun 22 20:41:15 2017

Tools Copyright (c) 1996-2014 Texas Instruments Incorporated
C:\Users\wmj\AppData\Local\Temp\1712410                              PAGE   22

    1079                      .dwattr $C$DW$178, DW_AT_TI_end_line(0x271)
    1080                      .dwattr $C$DW$178, DW_AT_TI_end_column(0x01)
    1081                      .dwendentry
    1082                      .dwendtag $C$DW$178
    1083              
    1084 00000021               .sect   ".text"
    1085                      .clink
    1086                      .global _updateGlobalVariables_motor
    1087              
    1088              $C$DW$188       .dwtag  DW_TAG_subprogram, DW_AT_name("updateGlobalVariables_motor")
    1089                      .dwattr $C$DW$188, DW_AT_low_pc(_updateGlobalVariables_motor)
    1090                      .dwattr $C$DW$188, DW_AT_high_pc(0x00)
    1091                      .dwattr $C$DW$188, DW_AT_TI_symbol_name("_updateGlobalVariables_motor")
    1092                      .dwattr $C$DW$188, DW_AT_external
    1093                      .dwattr $C$DW$188, DW_AT_TI_begin_file("C:/ti/motorware/motorware_1_01_00_18/sw/solutions/instaspin_f
    1094                      .dwattr $C$DW$188, DW_AT_TI_begin_line(0x22f)
    1095                      .dwattr $C$DW$188, DW_AT_TI_begin_column(0x06)
    1096                      .dwattr $C$DW$188, DW_AT_TI_max_frame_size(-8)
    1097                      .dwpsn  file "C:/ti/motorware/motorware_1_01_00_18/sw/solutions/instaspin_foc/src/proj_lab07.c",line 
    1098              
    1099                      .dwfde $C$DW$CIE, _updateGlobalVariables_motor
    1100              $C$DW$189       .dwtag  DW_TAG_formal_parameter, DW_AT_name("handle")
    1101                      .dwattr $C$DW$189, DW_AT_TI_symbol_name("_handle")
    1102                      .dwattr $C$DW$189, DW_AT_type(*$C$DW$T$165)
    1103                      .dwattr $C$DW$189, DW_AT_location[DW_OP_reg12]
    1104              
    1105              ;***************************************************************
    1106              ;* FNAME: _updateGlobalVariables_motor  FR SIZE:   6           *
    1107              ;*                                                             *
    1108              ;* FUNCTION ENVIRONMENT                                        *
    1109              ;*                                                             *
    1110              ;* FUNCTION PROPERTIES                                         *
    1111              ;*                            2 Parameter,  0 Auto,  4 SOE     *
    1112              ;***************************************************************
    1113              
    1114              _updateGlobalVariables_motor:
    1115              ;* XT    assigned to $O$R2
    1116              ;* AR2   assigned to _handle
    1117              $C$DW$190       .dwtag  DW_TAG_variable, DW_AT_name("handle")
    1118                      .dwattr $C$DW$190, DW_AT_TI_symbol_name("_handle")
    1119                      .dwattr $C$DW$190, DW_AT_type(*$C$DW$T$207)
    1120                      .dwattr $C$DW$190, DW_AT_location[DW_OP_reg8]
    1121                      .dwcfi  cfa_offset, -2
    1122                      .dwcfi  save_reg_to_mem, 26, 0
    1123                      .dwcfi  save_reg_to_reg, 78, 26
    1124 00000021 B2BD          MOVL      *SP++,XAR1            ; [CPU_] 
    1125                      .dwcfi  save_reg_to_mem, 7, 2
    1126                      .dwcfi  cfa_offset, -4
    1127 00000022 AABD          MOVL      *SP++,XAR2            ; [CPU_] 
    1128                      .dwcfi  save_reg_to_mem, 9, 4
    1129                      .dwcfi  cfa_offset, -6
    1130 00000023 FE02          ADDB      SP,#2                 ; [CPU_U] 
    1131                      .dwcfi  cfa_offset, -8
    1132                      .dwpsn  file "C:/ti/motorware/motorware_1_01_00_18/sw/solutions/instaspin_foc/src/proj_lab07.c",line 
    1133 00000024 D018          MOVB      XAR0,#24              ; [CPU_] |564| 
TMS320C2000 Assembler PC v6.2.5 Thu Jun 22 20:41:15 2017

Tools Copyright (c) 1996-2014 Texas Instruments Incorporated
C:\Users\wmj\AppData\Local\Temp\1712410                              PAGE   23

    1134                      .dwpsn  file "C:/ti/motorware/motorware_1_01_00_18/sw/solutions/instaspin_foc/src/proj_lab07.c",line 
    1135 00000025 86A4          MOVL      XAR2,XAR4             ; [CPU_] |560| 
    1136                      .dwpsn  file "C:/ti/motorware/motorware_1_01_00_18/sw/solutions/instaspin_foc/src/proj_lab07.c",line 
    1137 00000026 8A92          MOVL      XAR4,*+XAR2[AR0]      ; [CPU_] |564| 
    1138              $C$DW$191       .dwtag  DW_TAG_TI_branch
    1139                      .dwattr $C$DW$191, DW_AT_low_pc(0x00)
    1140                      .dwattr $C$DW$191, DW_AT_name("_EST_getSpeed_krpm")
    1141                      .dwattr $C$DW$191, DW_AT_TI_call
    1142 00000027 7640!         LCR       #_EST_getSpeed_krpm   ; [CPU_] |564| 
         00000028 0000 
    1143                      ; call occurs [#_EST_getSpeed_krpm] ; [] |564| 
    1144 00000029 761F-         MOVW      DP,#_gMotorVars+32    ; [CPU_U] 
         0000002a 0002 
    1145                      .dwpsn  file "C:/ti/motorware/motorware_1_01_00_18/sw/modules/traj/src/32b/traj.h",line 96,column 3,i
    1146 0000002b D06C          MOVB      XAR0,#108             ; [CPU_] |96| 
    1147                      .dwpsn  file "C:/ti/motorware/motorware_1_01_00_18/sw/solutions/instaspin_foc/src/proj_lab07.c",line 
    1148 0000002c 1E20-         MOVL      @_gMotorVars+32,ACC   ; [CPU_] |564| 
    1149                      .dwpsn  file "C:/ti/motorware/motorware_1_01_00_18/sw/modules/traj/src/32b/traj.h",line 96,column 3,i
    1150 0000002d 8A92          MOVL      XAR4,*+XAR2[AR0]      ; [CPU_] |96| 
    1151                      .dwpsn  file "C:/ti/motorware/motorware_1_01_00_18/sw/solutions/instaspin_foc/src/proj_lab07.c",line 
    1152 0000002e D018          MOVB      XAR0,#24              ; [CPU_] |567| 
    1153                      .dwpsn  file "C:/ti/motorware/motorware_1_01_00_18/sw/modules/traj/src/32b/traj.h",line 96,column 3,i
    1154 0000002f 8BD4          MOVL      XAR1,*+XAR4[2]        ; [CPU_] |96| 
    1155                      .dwpsn  file "C:/ti/motorware/motorware_1_01_00_18/sw/solutions/instaspin_foc/src/proj_lab07.c",line 
    1156 00000030 8A92          MOVL      XAR4,*+XAR2[AR0]      ; [CPU_] |567| 
    1157              $C$DW$192       .dwtag  DW_TAG_TI_branch
    1158                      .dwattr $C$DW$192, DW_AT_low_pc(0x00)
    1159                      .dwattr $C$DW$192, DW_AT_name("_EST_get_pu_to_krpm_sf")
    1160                      .dwattr $C$DW$192, DW_AT_TI_call
    1161 00000031 7640!         LCR       #_EST_get_pu_to_krpm_sf ; [CPU_] |567| 
         00000032 0000 
    1162                      ; call occurs [#_EST_get_pu_to_krpm_sf] ; [] |567| 
    1163 00000033 761F-         MOVW      DP,#_gMotorVars+28    ; [CPU_U] 
         00000034 0002 
    1164 00000035 B2AC          MOVL      XT,XAR1               ; [CPU_] |567| 
    1165                      .dwpsn  file "C:/ti/motorware/motorware_1_01_00_18/sw/solutions/instaspin_foc/src/proj_lab07.c",line 
    1166 00000036 8AA2          MOVL      XAR4,XAR2             ; [CPU_] |570| 
    1167                      .dwpsn  file "C:/ti/motorware/motorware_1_01_00_18/sw/solutions/instaspin_foc/src/proj_lab07.c",line 
    1168 00000037 5605          IMPYL     P,XT,ACC              ; [CPU_] |567| 
         00000038 00A9 
    1169 00000039 5663          QMPYL     ACC,XT,ACC            ; [CPU_] |567| 
         0000003a 00A9 
    1170 0000003b 56A7          LSL64     ACC:P,#8              ; [CPU_] |567| 
    1171 0000003c 1E1C-         MOVL      @_gMotorVars+28,ACC   ; [CPU_] |567| 
    1172 0000003d 761F-         MOVW      DP,#_gTorque_Ls_Id_Iq_pu_to_Nm_sf ; [CPU_U] 
         0000003e 0000 
    1173                      .dwpsn  file "C:/ti/motorware/motorware_1_01_00_18/sw/solutions/instaspin_foc/src/proj_lab07.c",line 
    1174 0000003f 0608-         MOVL      ACC,@_gTorque_Ls_Id_Iq_pu_to_Nm_sf ; [CPU_] |570| 
    1175 00000040 1E42          MOVL      *-SP[2],ACC           ; [CPU_] |570| 
    1176 00000041 0606-         MOVL      ACC,@_gTorque_Flux_Iq_pu_to_Nm_sf ; [CPU_] |570| 
    1177              $C$DW$193       .dwtag  DW_TAG_TI_branch
    1178                      .dwattr $C$DW$193, DW_AT_low_pc(0x00)
    1179                      .dwattr $C$DW$193, DW_AT_name("_USER_computeTorque_Nm")
    1180                      .dwattr $C$DW$193, DW_AT_TI_call
    1181 00000042 7640!         LCR       #_USER_computeTorque_Nm ; [CPU_] |570| 
TMS320C2000 Assembler PC v6.2.5 Thu Jun 22 20:41:15 2017

Tools Copyright (c) 1996-2014 Texas Instruments Incorporated
C:\Users\wmj\AppData\Local\Temp\1712410                              PAGE   24

         00000043 0000 
    1182                      ; call occurs [#_USER_computeTorque_Nm] ; [] |570| 
    1183 00000044 761F-         MOVW      DP,#_gMotorVars+42    ; [CPU_U] 
         00000045 0002 
    1184                      .dwpsn  file "C:/ti/motorware/motorware_1_01_00_18/sw/solutions/instaspin_foc/src/proj_lab07.c",line 
    1185 00000046 D018          MOVB      XAR0,#24              ; [CPU_] |573| 
    1186                      .dwpsn  file "C:/ti/motorware/motorware_1_01_00_18/sw/solutions/instaspin_foc/src/proj_lab07.c",line 
    1187 00000047 1E2A-         MOVL      @_gMotorVars+42,ACC   ; [CPU_] |570| 
    1188                      .dwpsn  file "C:/ti/motorware/motorware_1_01_00_18/sw/solutions/instaspin_foc/src/proj_lab07.c",line 
    1189 00000048 8A92          MOVL      XAR4,*+XAR2[AR0]      ; [CPU_] |573| 
    1190              $C$DW$194       .dwtag  DW_TAG_TI_branch
    1191                      .dwattr $C$DW$194, DW_AT_low_pc(0x00)
    1192                      .dwattr $C$DW$194, DW_AT_name("_EST_getIdRated")
    1193                      .dwattr $C$DW$194, DW_AT_TI_call
    1194 00000049 7640!         LCR       #_EST_getIdRated      ; [CPU_] |573| 
         0000004a 0000 
    1195                      ; call occurs [#_EST_getIdRated] ; [] |573| 
    1196 0000004b 761F-         MOVW      DP,#_gMotorVars+44    ; [CPU_U] 
         0000004c 0002 
    1197                      .dwpsn  file "C:/ti/motorware/motorware_1_01_00_18/sw/solutions/instaspin_foc/src/proj_lab07.c",line 
    1198 0000004d D018          MOVB      XAR0,#24              ; [CPU_] |576| 
    1199                      .dwpsn  file "C:/ti/motorware/motorware_1_01_00_18/sw/solutions/instaspin_foc/src/proj_lab07.c",line 
    1200 0000004e 1E2C-         MOVL      @_gMotorVars+44,ACC   ; [CPU_] |573| 
    1201                      .dwpsn  file "C:/ti/motorware/motorware_1_01_00_18/sw/solutions/instaspin_foc/src/proj_lab07.c",line 
    1202 0000004f 8A92          MOVL      XAR4,*+XAR2[AR0]      ; [CPU_] |576| 
    1203              $C$DW$195       .dwtag  DW_TAG_TI_branch
    1204                      .dwattr $C$DW$195, DW_AT_low_pc(0x00)
    1205                      .dwattr $C$DW$195, DW_AT_name("_EST_getRr_Ohm")
    1206                      .dwattr $C$DW$195, DW_AT_TI_call
    1207 00000050 7640!         LCR       #_EST_getRr_Ohm       ; [CPU_] |576| 
         00000051 0000 
    1208                      ; call occurs [#_EST_getRr_Ohm] ; [] |576| 
    1209 00000052 761F-         MOVW      DP,#_gMotorVars+46    ; [CPU_U] 
         00000053 0002 
    1210                      .dwpsn  file "C:/ti/motorware/motorware_1_01_00_18/sw/solutions/instaspin_foc/src/proj_lab07.c",line 
    1211 00000054 D018          MOVB      XAR0,#24              ; [CPU_] |579| 
    1212                      .dwpsn  file "C:/ti/motorware/motorware_1_01_00_18/sw/solutions/instaspin_foc/src/proj_lab07.c",line 
    1213 00000055 1E2E-         MOVL      @_gMotorVars+46,ACC   ; [CPU_] |576| 
    1214                      .dwpsn  file "C:/ti/motorware/motorware_1_01_00_18/sw/solutions/instaspin_foc/src/proj_lab07.c",line 
    1215 00000056 8A92          MOVL      XAR4,*+XAR2[AR0]      ; [CPU_] |579| 
    1216              $C$DW$196       .dwtag  DW_TAG_TI_branch
    1217                      .dwattr $C$DW$196, DW_AT_low_pc(0x00)
    1218                      .dwattr $C$DW$196, DW_AT_name("_EST_getRs_Ohm")
    1219                      .dwattr $C$DW$196, DW_AT_TI_call
    1220 00000057 7640!         LCR       #_EST_getRs_Ohm       ; [CPU_] |579| 
         00000058 0000 
    1221                      ; call occurs [#_EST_getRs_Ohm] ; [] |579| 
    1222 00000059 761F-         MOVW      DP,#_gMotorVars+48    ; [CPU_U] 
         0000005a 0002 
    1223                      .dwpsn  file "C:/ti/motorware/motorware_1_01_00_18/sw/solutions/instaspin_foc/src/proj_lab07.c",line 
    1224 0000005b D018          MOVB      XAR0,#24              ; [CPU_] |582| 
    1225                      .dwpsn  file "C:/ti/motorware/motorware_1_01_00_18/sw/solutions/instaspin_foc/src/proj_lab07.c",line 
    1226 0000005c 1E30-         MOVL      @_gMotorVars+48,ACC   ; [CPU_] |579| 
    1227                      .dwpsn  file "C:/ti/motorware/motorware_1_01_00_18/sw/solutions/instaspin_foc/src/proj_lab07.c",line 
    1228 0000005d 8A92          MOVL      XAR4,*+XAR2[AR0]      ; [CPU_] |582| 
TMS320C2000 Assembler PC v6.2.5 Thu Jun 22 20:41:15 2017

Tools Copyright (c) 1996-2014 Texas Instruments Incorporated
C:\Users\wmj\AppData\Local\Temp\1712410                              PAGE   25

    1229              $C$DW$197       .dwtag  DW_TAG_TI_branch
    1230                      .dwattr $C$DW$197, DW_AT_low_pc(0x00)
    1231                      .dwattr $C$DW$197, DW_AT_name("_EST_getRsOnLine_Ohm")
    1232                      .dwattr $C$DW$197, DW_AT_TI_call
    1233 0000005e 7640!         LCR       #_EST_getRsOnLine_Ohm ; [CPU_] |582| 
         0000005f 0000 
    1234                      ; call occurs [#_EST_getRsOnLine_Ohm] ; [] |582| 
    1235 00000060 761F-         MOVW      DP,#_gMotorVars+50    ; [CPU_U] 
         00000061 0002 
    1236                      .dwpsn  file "C:/ti/motorware/motorware_1_01_00_18/sw/solutions/instaspin_foc/src/proj_lab07.c",line 
    1237 00000062 D018          MOVB      XAR0,#24              ; [CPU_] |585| 
    1238                      .dwpsn  file "C:/ti/motorware/motorware_1_01_00_18/sw/solutions/instaspin_foc/src/proj_lab07.c",line 
    1239 00000063 1E32-         MOVL      @_gMotorVars+50,ACC   ; [CPU_] |582| 
    1240                      .dwpsn  file "C:/ti/motorware/motorware_1_01_00_18/sw/solutions/instaspin_foc/src/proj_lab07.c",line 
    1241 00000064 8A92          MOVL      XAR4,*+XAR2[AR0]      ; [CPU_] |585| 
    1242              $C$DW$198       .dwtag  DW_TAG_TI_branch
    1243                      .dwattr $C$DW$198, DW_AT_low_pc(0x00)
    1244                      .dwattr $C$DW$198, DW_AT_name("_EST_getLs_d_H")
    1245                      .dwattr $C$DW$198, DW_AT_TI_call
    1246 00000065 7640!         LCR       #_EST_getLs_d_H       ; [CPU_] |585| 
         00000066 0000 
    1247                      ; call occurs [#_EST_getLs_d_H] ; [] |585| 
    1248 00000067 761F-         MOVW      DP,#_gMotorVars+52    ; [CPU_U] 
         00000068 0002 
    1249                      .dwpsn  file "C:/ti/motorware/motorware_1_01_00_18/sw/solutions/instaspin_foc/src/proj_lab07.c",line 
    1250 00000069 D018          MOVB      XAR0,#24              ; [CPU_] |588| 
    1251                      .dwpsn  file "C:/ti/motorware/motorware_1_01_00_18/sw/solutions/instaspin_foc/src/proj_lab07.c",line 
    1252 0000006a 1E34-         MOVL      @_gMotorVars+52,ACC   ; [CPU_] |585| 
    1253                      .dwpsn  file "C:/ti/motorware/motorware_1_01_00_18/sw/solutions/instaspin_foc/src/proj_lab07.c",line 
    1254 0000006b 8A92          MOVL      XAR4,*+XAR2[AR0]      ; [CPU_] |588| 
    1255              $C$DW$199       .dwtag  DW_TAG_TI_branch
    1256                      .dwattr $C$DW$199, DW_AT_low_pc(0x00)
    1257                      .dwattr $C$DW$199, DW_AT_name("_EST_getLs_q_H")
    1258                      .dwattr $C$DW$199, DW_AT_TI_call
    1259 0000006c 7640!         LCR       #_EST_getLs_q_H       ; [CPU_] |588| 
         0000006d 0000 
    1260                      ; call occurs [#_EST_getLs_q_H] ; [] |588| 
    1261 0000006e 761F-         MOVW      DP,#_gMotorVars+54    ; [CPU_U] 
         0000006f 0002 
    1262                      .dwpsn  file "C:/ti/motorware/motorware_1_01_00_18/sw/solutions/instaspin_foc/src/proj_lab07.c",line 
    1263 00000070 D018          MOVB      XAR0,#24              ; [CPU_] |591| 
    1264                      .dwpsn  file "C:/ti/motorware/motorware_1_01_00_18/sw/solutions/instaspin_foc/src/proj_lab07.c",line 
    1265 00000071 1E36-         MOVL      @_gMotorVars+54,ACC   ; [CPU_] |588| 
    1266                      .dwpsn  file "C:/ti/motorware/motorware_1_01_00_18/sw/solutions/instaspin_foc/src/proj_lab07.c",line 
    1267 00000072 8A92          MOVL      XAR4,*+XAR2[AR0]      ; [CPU_] |591| 
    1268              $C$DW$200       .dwtag  DW_TAG_TI_branch
    1269                      .dwattr $C$DW$200, DW_AT_low_pc(0x00)
    1270                      .dwattr $C$DW$200, DW_AT_name("_EST_getFlux_VpHz")
    1271                      .dwattr $C$DW$200, DW_AT_TI_call
    1272 00000073 7640!         LCR       #_EST_getFlux_VpHz    ; [CPU_] |591| 
         00000074 0000 
    1273                      ; call occurs [#_EST_getFlux_VpHz] ; [] |591| 
    1274 00000075 761F-         MOVW      DP,#_gMotorVars+56    ; [CPU_U] 
         00000076 0002 
    1275                      .dwpsn  file "C:/ti/motorware/motorware_1_01_00_18/sw/solutions/instaspin_foc/src/proj_lab07.c",line 
TMS320C2000 Assembler PC v6.2.5 Thu Jun 22 20:41:15 2017

Tools Copyright (c) 1996-2014 Texas Instruments Incorporated
C:\Users\wmj\AppData\Local\Temp\1712410                              PAGE   26

    1276 00000077 8AA2          MOVL      XAR4,XAR2             ; [CPU_] |594| 
    1277                      .dwpsn  file "C:/ti/motorware/motorware_1_01_00_18/sw/solutions/instaspin_foc/src/proj_lab07.c",line 
    1278 00000078 1E38-         MOVL      @_gMotorVars+56,ACC   ; [CPU_] |591| 
    1279 00000079 761F-         MOVW      DP,#_gFlux_pu_to_Wb_sf ; [CPU_U] 
         0000007a 0000 
    1280                      .dwpsn  file "C:/ti/motorware/motorware_1_01_00_18/sw/solutions/instaspin_foc/src/proj_lab07.c",line 
    1281 0000007b 060C-         MOVL      ACC,@_gFlux_pu_to_Wb_sf ; [CPU_] |594| 
    1282              $C$DW$201       .dwtag  DW_TAG_TI_branch
    1283                      .dwattr $C$DW$201, DW_AT_low_pc(0x00)
    1284                      .dwattr $C$DW$201, DW_AT_name("_USER_computeFlux")
    1285                      .dwattr $C$DW$201, DW_AT_TI_call
    1286 0000007c 7640!         LCR       #_USER_computeFlux    ; [CPU_] |594| 
         0000007d 0000 
    1287                      ; call occurs [#_USER_computeFlux] ; [] |594| 
    1288 0000007e 761F-         MOVW      DP,#_gMotorVars+40    ; [CPU_U] 
         0000007f 0002 
    1289 00000080 1E28-         MOVL      @_gMotorVars+40,ACC   ; [CPU_] |594| 
    1290                      .dwpsn  file "C:/ti/motorware/motorware_1_01_00_18/sw/solutions/instaspin_foc/src/proj_lab07.c",line 
    1291 00000081 D018          MOVB      XAR0,#24              ; [CPU_] |600| 
    1292                      .dwpsn  file "C:/ti/motorware/motorware_1_01_00_18/sw/solutions/instaspin_foc/src/proj_lab07.c",line 
    1293 00000082 92E2          MOV       AL,*+XAR2[4]          ; [CPU_] |597| 
    1294 00000083 960D-         MOV       @_gMotorVars+13,AL    ; [CPU_] |597| 
    1295                      .dwpsn  file "C:/ti/motorware/motorware_1_01_00_18/sw/solutions/instaspin_foc/src/proj_lab07.c",line 
    1296 00000084 8A92          MOVL      XAR4,*+XAR2[AR0]      ; [CPU_] |600| 
    1297              $C$DW$202       .dwtag  DW_TAG_TI_branch
    1298                      .dwattr $C$DW$202, DW_AT_low_pc(0x00)
    1299                      .dwattr $C$DW$202, DW_AT_name("_EST_getState")
    1300                      .dwattr $C$DW$202, DW_AT_TI_call
    1301 00000085 7640!         LCR       #_EST_getState        ; [CPU_] |600| 
         00000086 0000 
    1302                      ; call occurs [#_EST_getState] ; [] |600| 
    1303 00000087 761F-         MOVW      DP,#_gMotorVars+14    ; [CPU_U] 
         00000088 0002 
    1304                      .dwpsn  file "C:/ti/motorware/motorware_1_01_00_18/sw/solutions/instaspin_foc/src/proj_lab07.c",line 
    1305 00000089 9B73          MOV       AH,#115               ; [CPU_] |603| 
    1306                      .dwpsn  file "C:/ti/motorware/motorware_1_01_00_18/sw/solutions/instaspin_foc/src/proj_lab07.c",line 
    1307 0000008a 960E-         MOV       @_gMotorVars+14,AL    ; [CPU_] |600| 
    1308 0000008b 761F-         MOVW      DP,#_gAdcData+12      ; [CPU_U] 
         0000008c 0000 
    1309                      .dwpsn  file "C:/ti/motorware/motorware_1_01_00_18/sw/solutions/instaspin_foc/src/proj_lab07.c",line 
    1310 0000008d 28A9          MOV       AL,#13107             ; [CPU_] |603| 
         0000008e 3333 
    1311 0000008f 8732-         MOVL      XT,@_gAdcData+12      ; [CPU_] |603| 
    1312 00000090 FE82          SUBB      SP,#2                 ; [CPU_U] 
    1313                      .dwcfi  cfa_offset, -6
    1314 00000091 5605          IMPYL     P,XT,ACC              ; [CPU_] |603| 
         00000092 00A9 
    1315 00000093 86BE          MOVL      XAR2,*--SP            ; [CPU_] 
    1316                      .dwcfi  cfa_offset, -4
    1317                      .dwcfi  restore_reg, 9
    1318 00000094 5663          QMPYL     ACC,XT,ACC            ; [CPU_] |603| 
         00000095 00A9 
    1319 00000096 8BBE          MOVL      XAR1,*--SP            ; [CPU_] 
    1320                      .dwcfi  cfa_offset, -2
    1321                      .dwcfi  restore_reg, 7
TMS320C2000 Assembler PC v6.2.5 Thu Jun 22 20:41:15 2017

Tools Copyright (c) 1996-2014 Texas Instruments Incorporated
C:\Users\wmj\AppData\Local\Temp\1712410                              PAGE   27

    1322 00000097 56A7          LSL64     ACC:P,#8              ; [CPU_] |603| 
    1323 00000098 761F-         MOVW      DP,#_gMotorVars+86    ; [CPU_U] 
         00000099 0003 
    1324 0000009a 1E16-         MOVL      @_gMotorVars+86,ACC   ; [CPU_] |603| 
    1325              $C$DW$203       .dwtag  DW_TAG_TI_branch
    1326                      .dwattr $C$DW$203, DW_AT_low_pc(0x00)
    1327                      .dwattr $C$DW$203, DW_AT_TI_return
    1328 0000009b 0006          LRETR     ; [CPU_] 
    1329                      ; return occurs ; [] 
    1330                      .dwattr $C$DW$188, DW_AT_TI_end_file("C:/ti/motorware/motorware_1_01_00_18/sw/solutions/instaspin_foc
    1331                      .dwattr $C$DW$188, DW_AT_TI_end_line(0x25e)
    1332                      .dwattr $C$DW$188, DW_AT_TI_end_column(0x01)
    1333                      .dwendentry
    1334                      .dwendtag $C$DW$188
    1335              
    1336 0000009c               .sect   ".text"
    1337                      .clink
    1338                      .global _updateCPUusage
    1339              
    1340              $C$DW$204       .dwtag  DW_TAG_subprogram, DW_AT_name("updateCPUusage")
    1341                      .dwattr $C$DW$204, DW_AT_low_pc(_updateCPUusage)
    1342                      .dwattr $C$DW$204, DW_AT_high_pc(0x00)
    1343                      .dwattr $C$DW$204, DW_AT_TI_symbol_name("_updateCPUusage")
    1344                      .dwattr $C$DW$204, DW_AT_external
    1345                      .dwattr $C$DW$204, DW_AT_TI_begin_file("C:/ti/motorware/motorware_1_01_00_18/sw/solutions/instaspin_f
    1346                      .dwattr $C$DW$204, DW_AT_TI_begin_line(0x296)
    1347                      .dwattr $C$DW$204, DW_AT_TI_begin_column(0x06)
    1348                      .dwattr $C$DW$204, DW_AT_TI_max_frame_size(-12)
    1349                      .dwpsn  file "C:/ti/motorware/motorware_1_01_00_18/sw/solutions/instaspin_foc/src/proj_lab07.c",line 
    1350              
    1351                      .dwfde $C$DW$CIE, _updateCPUusage
    1352              
    1353              ;***************************************************************
    1354              ;* FNAME: _updateCPUusage               FR SIZE:  10           *
    1355              ;*                                                             *
    1356              ;* FUNCTION ENVIRONMENT                                        *
    1357              ;*                                                             *
    1358              ;* FUNCTION PROPERTIES                                         *
    1359              ;*                            2 Parameter,  2 Auto,  6 SOE     *
    1360              ;***************************************************************
    1361              
    1362              _updateCPUusage:
    1363              ;* AR1   assigned to $O$C1
    1364              ;* AR2   assigned to $O$C2
    1365              ;* AL    assigned to $O$C3
    1366              $C$DW$205       .dwtag  DW_TAG_variable, DW_AT_name("avgDeltaCntObserved")
    1367                      .dwattr $C$DW$205, DW_AT_TI_symbol_name("_avgDeltaCntObserved")
    1368                      .dwattr $C$DW$205, DW_AT_type(*$C$DW$T$38)
    1369                      .dwattr $C$DW$205, DW_AT_location[DW_OP_breg20 -4]
    1370              ;* AR3   assigned to _maxDeltaCntObserved
    1371              $C$DW$206       .dwtag  DW_TAG_variable, DW_AT_name("maxDeltaCntObserved")
    1372                      .dwattr $C$DW$206, DW_AT_TI_symbol_name("_maxDeltaCntObserved")
    1373                      .dwattr $C$DW$206, DW_AT_type(*$C$DW$T$38)
    1374                      .dwattr $C$DW$206, DW_AT_location[DW_OP_reg10]
    1375              ;* AL    assigned to _pwmPeriodValue
TMS320C2000 Assembler PC v6.2.5 Thu Jun 22 20:41:15 2017

Tools Copyright (c) 1996-2014 Texas Instruments Incorporated
C:\Users\wmj\AppData\Local\Temp\1712410                              PAGE   28

    1376              $C$DW$207       .dwtag  DW_TAG_variable, DW_AT_name("pwmPeriodValue")
    1377                      .dwattr $C$DW$207, DW_AT_TI_symbol_name("_pwmPeriodValue")
    1378                      .dwattr $C$DW$207, DW_AT_type(*$C$DW$T$23)
    1379                      .dwattr $C$DW$207, DW_AT_location[DW_OP_reg0]
    1380              ;* AR4   assigned to _pwmHandle
    1381              $C$DW$208       .dwtag  DW_TAG_variable, DW_AT_name("pwmHandle")
    1382                      .dwattr $C$DW$208, DW_AT_TI_symbol_name("_pwmHandle")
    1383                      .dwattr $C$DW$208, DW_AT_type(*$C$DW$T$107)
    1384                      .dwattr $C$DW$208, DW_AT_location[DW_OP_reg12]
    1385                      .dwcfi  cfa_offset, -2
    1386                      .dwcfi  save_reg_to_mem, 26, 0
    1387                      .dwcfi  save_reg_to_reg, 78, 26
    1388 0000009c B2BD          MOVL      *SP++,XAR1            ; [CPU_] 
    1389                      .dwcfi  save_reg_to_mem, 7, 2
    1390                      .dwcfi  cfa_offset, -4
    1391 0000009d AABD          MOVL      *SP++,XAR2            ; [CPU_] 
    1392                      .dwcfi  save_reg_to_mem, 9, 4
    1393                      .dwcfi  cfa_offset, -6
    1394 0000009e A2BD          MOVL      *SP++,XAR3            ; [CPU_] 
    1395                      .dwcfi  save_reg_to_mem, 11, 6
    1396                      .dwcfi  cfa_offset, -8
    1397 0000009f FE04          ADDB      SP,#4                 ; [CPU_U] 
    1398                      .dwcfi  cfa_offset, -12
    1399 000000a0 761F-         MOVW      DP,#_cpu_usageHandle  ; [CPU_U] 
         000000a1 0000 
    1400                      .dwpsn  file "C:/ti/motorware/motorware_1_01_00_18/sw/modules/cpu_usage/src/32b/cpu_usage.h",line 167
    1401 000000a2 861E-         MOVL      XAR2,@_cpu_usageHandle ; [CPU_] |167| 
    1402 000000a3 D010          MOVB      XAR0,#16              ; [CPU_] |167| 
    1403                      .dwpsn  file "C:/ti/motorware/motorware_1_01_00_18/sw/modules/hal/boards/hvkit_rev1p1/f28x/f2802x/src
    1404 000000a4 8A10-         MOVL      XAR4,@_halHandle      ; [CPU_] |1129| 
    1405                      .dwpsn  file "C:/ti/motorware/motorware_1_01_00_18/sw/modules/cpu_usage/src/32b/cpu_usage.h",line 167
    1406 000000a5 0692          MOVL      ACC,*+XAR2[AR0]       ; [CPU_] |167| 
    1407                      .dwpsn  file "C:/ti/motorware/motorware_1_01_00_18/sw/modules/cpu_usage/src/32b/cpu_usage.h",line 178
    1408 000000a6 D012          MOVB      XAR0,#18              ; [CPU_] |178| 
    1409                      .dwpsn  file "C:/ti/motorware/motorware_1_01_00_18/sw/modules/cpu_usage/src/32b/cpu_usage.h",line 167
    1410 000000a7 1E44          MOVL      *-SP[4],ACC           ; [CPU_] |167| 
    1411                      .dwpsn  file "C:/ti/motorware/motorware_1_01_00_18/sw/modules/cpu_usage/src/32b/cpu_usage.h",line 178
    1412 000000a8 8292          MOVL      XAR3,*+XAR2[AR0]      ; [CPU_] |178| 
    1413                      .dwpsn  file "C:/ti/motorware/motorware_1_01_00_18/sw/modules/hal/boards/hvkit_rev1p1/f28x/f2802x/src
    1414 000000a9 D07C          MOVB      XAR0,#124             ; [CPU_] |1129| 
    1415 000000aa 8A94          MOVL      XAR4,*+XAR4[AR0]      ; [CPU_] |1129| 
    1416                      .dwpsn  file "C:/ti/motorware/motorware_1_01_00_18/sw/drivers/pwm/src/32b/f28x/f2802x/pwm.h",line 120
    1417 000000ab 92EC          MOV       AL,*+XAR4[5]          ; [CPU_] |1208| 
    1418                      .dwpsn  file "C:/ti/motorware/motorware_1_01_00_18/sw/solutions/instaspin_foc/src/proj_lab07.c",line 
    1419              $C$DW$209       .dwtag  DW_TAG_TI_branch
    1420                      .dwattr $C$DW$209, DW_AT_low_pc(0x00)
    1421                      .dwattr $C$DW$209, DW_AT_name("U$$TOFS")
    1422                      .dwattr $C$DW$209, DW_AT_TI_call
    1423 000000ac 7640!         LCR       #U$$TOFS              ; [CPU_] |671| 
         000000ad 0000 
    1424                      ; call occurs [#U$$TOFS] ; [] |671| 
    1425 000000ae 1E42          MOVL      *-SP[2],ACC           ; [CPU_] |671| 
    1426              $C$DW$210       .dwtag  DW_TAG_TI_branch
    1427                      .dwattr $C$DW$210, DW_AT_low_pc(0x00)
    1428                      .dwattr $C$DW$210, DW_AT_name("FS$$ADD")
TMS320C2000 Assembler PC v6.2.5 Thu Jun 22 20:41:15 2017

Tools Copyright (c) 1996-2014 Texas Instruments Incorporated
C:\Users\wmj\AppData\Local\Temp\1712410                              PAGE   29

    1429                      .dwattr $C$DW$210, DW_AT_TI_call
    1430 000000af 7640!         LCR       #FS$$ADD              ; [CPU_] |671| 
         000000b0 0000 
    1431                      ; call occurs [#FS$$ADD] ; [] |671| 
    1432 000000b1 D00E          MOVB      XAR0,#14              ; [CPU_] |671| 
    1433 000000b2 8BA9          MOVL      XAR1,ACC              ; [CPU_] |671| 
    1434 000000b3 0692          MOVL      ACC,*+XAR2[AR0]       ; [CPU_] |671| 
    1435              $C$DW$211       .dwtag  DW_TAG_TI_branch
    1436                      .dwattr $C$DW$211, DW_AT_low_pc(0x00)
    1437                      .dwattr $C$DW$211, DW_AT_name("UL$$TOFS")
    1438                      .dwattr $C$DW$211, DW_AT_TI_call
    1439 000000b4 7640!         LCR       #UL$$TOFS             ; [CPU_] |671| 
         000000b5 0000 
    1440                      ; call occurs [#UL$$TOFS] ; [] |671| 
    1441 000000b6 B242          MOVL      *-SP[2],XAR1          ; [CPU_] |671| 
    1442              $C$DW$212       .dwtag  DW_TAG_TI_branch
    1443                      .dwattr $C$DW$212, DW_AT_low_pc(0x00)
    1444                      .dwattr $C$DW$212, DW_AT_name("FS$$DIV")
    1445                      .dwattr $C$DW$212, DW_AT_TI_call
    1446 000000b7 7640!         LCR       #FS$$DIV              ; [CPU_] |671| 
         000000b8 0000 
    1447                      ; call occurs [#FS$$DIV] ; [] |671| 
    1448 000000b9 1EA6          MOVL      XAR6,ACC              ; [CPU_] |671| 
    1449 000000ba 9A00          MOV       AL,#0                 ; [CPU_] |671| 
    1450 000000bb 28A8          MOV       AH,#17096             ; [CPU_] |671| 
         000000bc 42C8 
    1451 000000bd 1E42          MOVL      *-SP[2],ACC           ; [CPU_] |671| 
    1452 000000be 06A6          MOVL      ACC,XAR6              ; [CPU_] |671| 
    1453              $C$DW$213       .dwtag  DW_TAG_TI_branch
    1454                      .dwattr $C$DW$213, DW_AT_low_pc(0x00)
    1455                      .dwattr $C$DW$213, DW_AT_name("FS$$MPY")
    1456                      .dwattr $C$DW$213, DW_AT_TI_call
    1457 000000bf 7640!         LCR       #FS$$MPY              ; [CPU_] |671| 
         000000c0 0000 
    1458                      ; call occurs [#FS$$MPY] ; [] |671| 
    1459 000000c1 761F-         MOVW      DP,#_gCpuUsagePercentageMin ; [CPU_U] 
         000000c2 0000 
    1460 000000c3 1E1C-         MOVL      @_gCpuUsagePercentageMin,ACC ; [CPU_] |671| 
    1461 000000c4 0644          MOVL      ACC,*-SP[4]           ; [CPU_] |671| 
    1462                      .dwpsn  file "C:/ti/motorware/motorware_1_01_00_18/sw/solutions/instaspin_foc/src/proj_lab07.c",line 
    1463              $C$DW$214       .dwtag  DW_TAG_TI_branch
    1464                      .dwattr $C$DW$214, DW_AT_low_pc(0x00)
    1465                      .dwattr $C$DW$214, DW_AT_name("UL$$TOFS")
    1466                      .dwattr $C$DW$214, DW_AT_TI_call
    1467 000000c5 7640!         LCR       #UL$$TOFS             ; [CPU_] |674| 
         000000c6 0000 
    1468                      ; call occurs [#UL$$TOFS] ; [] |674| 
    1469 000000c7 B242          MOVL      *-SP[2],XAR1          ; [CPU_] |674| 
    1470              $C$DW$215       .dwtag  DW_TAG_TI_branch
    1471                      .dwattr $C$DW$215, DW_AT_low_pc(0x00)
    1472                      .dwattr $C$DW$215, DW_AT_name("FS$$DIV")
    1473                      .dwattr $C$DW$215, DW_AT_TI_call
    1474 000000c8 7640!         LCR       #FS$$DIV              ; [CPU_] |674| 
         000000c9 0000 
    1475                      ; call occurs [#FS$$DIV] ; [] |674| 
TMS320C2000 Assembler PC v6.2.5 Thu Jun 22 20:41:15 2017

Tools Copyright (c) 1996-2014 Texas Instruments Incorporated
C:\Users\wmj\AppData\Local\Temp\1712410                              PAGE   30

    1476 000000ca 1EA6          MOVL      XAR6,ACC              ; [CPU_] |674| 
    1477 000000cb 9A00          MOV       AL,#0                 ; [CPU_] |674| 
    1478 000000cc 28A8          MOV       AH,#17096             ; [CPU_] |674| 
         000000cd 42C8 
    1479 000000ce 1E42          MOVL      *-SP[2],ACC           ; [CPU_] |674| 
    1480 000000cf 06A6          MOVL      ACC,XAR6              ; [CPU_] |674| 
    1481              $C$DW$216       .dwtag  DW_TAG_TI_branch
    1482                      .dwattr $C$DW$216, DW_AT_low_pc(0x00)
    1483                      .dwattr $C$DW$216, DW_AT_name("FS$$MPY")
    1484                      .dwattr $C$DW$216, DW_AT_TI_call
    1485 000000d0 7640!         LCR       #FS$$MPY              ; [CPU_] |674| 
         000000d1 0000 
    1486                      ; call occurs [#FS$$MPY] ; [] |674| 
    1487 000000d2 761F-         MOVW      DP,#_gCpuUsagePercentageAvg ; [CPU_U] 
         000000d3 0000 
    1488 000000d4 1E16-         MOVL      @_gCpuUsagePercentageAvg,ACC ; [CPU_] |674| 
    1489                      .dwpsn  file "C:/ti/motorware/motorware_1_01_00_18/sw/solutions/instaspin_foc/src/proj_lab07.c",line 
    1490 000000d5 A2A9          MOVL      ACC,XAR3              ; [CPU_] |677| 
    1491              $C$DW$217       .dwtag  DW_TAG_TI_branch
    1492                      .dwattr $C$DW$217, DW_AT_low_pc(0x00)
    1493                      .dwattr $C$DW$217, DW_AT_name("UL$$TOFS")
    1494                      .dwattr $C$DW$217, DW_AT_TI_call
    1495 000000d6 7640!         LCR       #UL$$TOFS             ; [CPU_] |677| 
         000000d7 0000 
    1496                      ; call occurs [#UL$$TOFS] ; [] |677| 
    1497 000000d8 B242          MOVL      *-SP[2],XAR1          ; [CPU_] |677| 
    1498              $C$DW$218       .dwtag  DW_TAG_TI_branch
    1499                      .dwattr $C$DW$218, DW_AT_low_pc(0x00)
    1500                      .dwattr $C$DW$218, DW_AT_name("FS$$DIV")
    1501                      .dwattr $C$DW$218, DW_AT_TI_call
    1502 000000d9 7640!         LCR       #FS$$DIV              ; [CPU_] |677| 
         000000da 0000 
    1503                      ; call occurs [#FS$$DIV] ; [] |677| 
    1504 000000db 1EA6          MOVL      XAR6,ACC              ; [CPU_] |677| 
    1505 000000dc 9A00          MOV       AL,#0                 ; [CPU_] |677| 
    1506 000000dd 28A8          MOV       AH,#17096             ; [CPU_] |677| 
         000000de 42C8 
    1507 000000df 1E42          MOVL      *-SP[2],ACC           ; [CPU_] |677| 
    1508 000000e0 06A6          MOVL      ACC,XAR6              ; [CPU_] |677| 
    1509              $C$DW$219       .dwtag  DW_TAG_TI_branch
    1510                      .dwattr $C$DW$219, DW_AT_low_pc(0x00)
    1511                      .dwattr $C$DW$219, DW_AT_name("FS$$MPY")
    1512                      .dwattr $C$DW$219, DW_AT_TI_call
    1513 000000e1 7640!         LCR       #FS$$MPY              ; [CPU_] |677| 
         000000e2 0000 
    1514                      ; call occurs [#FS$$MPY] ; [] |677| 
    1515 000000e3 FE84          SUBB      SP,#4                 ; [CPU_U] 
    1516                      .dwcfi  cfa_offset, -8
    1517 000000e4 82BE          MOVL      XAR3,*--SP            ; [CPU_] 
    1518                      .dwcfi  cfa_offset, -6
    1519                      .dwcfi  restore_reg, 11
    1520 000000e5 86BE          MOVL      XAR2,*--SP            ; [CPU_] 
    1521                      .dwcfi  cfa_offset, -4
    1522                      .dwcfi  restore_reg, 9
    1523 000000e6 8BBE          MOVL      XAR1,*--SP            ; [CPU_] 
TMS320C2000 Assembler PC v6.2.5 Thu Jun 22 20:41:15 2017

Tools Copyright (c) 1996-2014 Texas Instruments Incorporated
C:\Users\wmj\AppData\Local\Temp\1712410                              PAGE   31

    1524                      .dwcfi  cfa_offset, -2
    1525                      .dwcfi  restore_reg, 7
    1526 000000e7 761F-         MOVW      DP,#_gCpuUsagePercentageMax ; [CPU_U] 
         000000e8 0000 
    1527 000000e9 1E18-         MOVL      @_gCpuUsagePercentageMax,ACC ; [CPU_] |677| 
    1528              $C$DW$220       .dwtag  DW_TAG_TI_branch
    1529                      .dwattr $C$DW$220, DW_AT_low_pc(0x00)
    1530                      .dwattr $C$DW$220, DW_AT_TI_return
    1531 000000ea 0006          LRETR     ; [CPU_] 
    1532                      ; return occurs ; [] 
    1533                      .dwattr $C$DW$204, DW_AT_TI_end_file("C:/ti/motorware/motorware_1_01_00_18/sw/solutions/instaspin_foc
    1534                      .dwattr $C$DW$204, DW_AT_TI_end_line(0x2a8)
    1535                      .dwattr $C$DW$204, DW_AT_TI_end_column(0x01)
    1536                      .dwendentry
    1537                      .dwendtag $C$DW$204
    1538              
    1539 000000eb               .sect   ".text"
    1540                      .clink
    1541                      .global _runRsOnLine
    1542              
    1543              $C$DW$221       .dwtag  DW_TAG_subprogram, DW_AT_name("runRsOnLine")
    1544                      .dwattr $C$DW$221, DW_AT_low_pc(_runRsOnLine)
    1545                      .dwattr $C$DW$221, DW_AT_high_pc(0x00)
    1546                      .dwattr $C$DW$221, DW_AT_TI_symbol_name("_runRsOnLine")
    1547                      .dwattr $C$DW$221, DW_AT_external
    1548                      .dwattr $C$DW$221, DW_AT_TI_begin_file("C:/ti/motorware/motorware_1_01_00_18/sw/solutions/instaspin_f
    1549                      .dwattr $C$DW$221, DW_AT_TI_begin_line(0x274)
    1550                      .dwattr $C$DW$221, DW_AT_TI_begin_column(0x06)
    1551                      .dwattr $C$DW$221, DW_AT_TI_max_frame_size(-8)
    1552                      .dwpsn  file "C:/ti/motorware/motorware_1_01_00_18/sw/solutions/instaspin_foc/src/proj_lab07.c",line 
    1553              
    1554                      .dwfde $C$DW$CIE, _runRsOnLine
    1555              $C$DW$222       .dwtag  DW_TAG_formal_parameter, DW_AT_name("handle")
    1556                      .dwattr $C$DW$222, DW_AT_TI_symbol_name("_handle")
    1557                      .dwattr $C$DW$222, DW_AT_type(*$C$DW$T$165)
    1558                      .dwattr $C$DW$222, DW_AT_location[DW_OP_reg12]
    1559              
    1560              ;***************************************************************
    1561              ;* FNAME: _runRsOnLine                  FR SIZE:   6           *
    1562              ;*                                                             *
    1563              ;* FUNCTION ENVIRONMENT                                        *
    1564              ;*                                                             *
    1565              ;* FUNCTION PROPERTIES                                         *
    1566              ;*                            2 Parameter,  0 Auto,  4 SOE     *
    1567              ;***************************************************************
    1568              
    1569              _runRsOnLine:
    1570              ;* AR1   assigned to _RsError_Ohm
    1571              $C$DW$223       .dwtag  DW_TAG_variable, DW_AT_name("RsError_Ohm")
    1572                      .dwattr $C$DW$223, DW_AT_TI_symbol_name("_RsError_Ohm")
    1573                      .dwattr $C$DW$223, DW_AT_type(*$C$DW$T$70)
    1574                      .dwattr $C$DW$223, DW_AT_location[DW_OP_reg6]
    1575              ;* AR2   assigned to _handle
    1576              $C$DW$224       .dwtag  DW_TAG_variable, DW_AT_name("handle")
    1577                      .dwattr $C$DW$224, DW_AT_TI_symbol_name("_handle")
TMS320C2000 Assembler PC v6.2.5 Thu Jun 22 20:41:15 2017

Tools Copyright (c) 1996-2014 Texas Instruments Incorporated
C:\Users\wmj\AppData\Local\Temp\1712410                              PAGE   32

    1578                      .dwattr $C$DW$224, DW_AT_type(*$C$DW$T$207)
    1579                      .dwattr $C$DW$224, DW_AT_location[DW_OP_reg8]
    1580                      .dwcfi  cfa_offset, -2
    1581                      .dwcfi  save_reg_to_mem, 26, 0
    1582                      .dwcfi  save_reg_to_reg, 78, 26
    1583 000000eb B2BD          MOVL      *SP++,XAR1            ; [CPU_] 
    1584                      .dwcfi  save_reg_to_mem, 7, 2
    1585                      .dwcfi  cfa_offset, -4
    1586 000000ec AABD          MOVL      *SP++,XAR2            ; [CPU_] 
    1587                      .dwcfi  save_reg_to_mem, 9, 4
    1588                      .dwcfi  cfa_offset, -6
    1589 000000ed FE02          ADDB      SP,#2                 ; [CPU_U] 
    1590                      .dwcfi  cfa_offset, -8
    1591 000000ee 761F-         MOVW      DP,#_gMotorVars+1     ; [CPU_U] 
         000000ef 0002 
    1592 000000f0 86A4          MOVL      XAR2,XAR4             ; [CPU_] |629| 
    1593                      .dwpsn  file "C:/ti/motorware/motorware_1_01_00_18/sw/solutions/instaspin_foc/src/proj_lab07.c",line 
    1594 000000f1 9201-         MOV       AL,@_gMotorVars+1     ; [CPU_] |633| 
    1595 000000f2 5201          CMPB      AL,#1                 ; [CPU_] |633| 
    1596 000000f3 ED65          BF        $C$L3,NEQ             ; [CPU_] |633| 
    1597                      ; branchcc occurs ; [] |633| 
    1598                      .dwpsn  file "C:/ti/motorware/motorware_1_01_00_18/sw/solutions/instaspin_foc/src/proj_lab07.c",line 
    1599 000000f4 D018          MOVB      XAR0,#24              ; [CPU_] |635| 
    1600 000000f5 8A92          MOVL      XAR4,*+XAR2[AR0]      ; [CPU_] |635| 
    1601              $C$DW$225       .dwtag  DW_TAG_TI_branch
    1602                      .dwattr $C$DW$225, DW_AT_low_pc(0x00)
    1603                      .dwattr $C$DW$225, DW_AT_name("_EST_getState")
    1604                      .dwattr $C$DW$225, DW_AT_TI_call
    1605 000000f6 7640!         LCR       #_EST_getState        ; [CPU_] |635| 
         000000f7 0000 
    1606                      ; call occurs [#_EST_getState] ; [] |635| 
    1607 000000f8 520D          CMPB      AL,#13                ; [CPU_] |635| 
    1608 000000f9 ED3B          BF        $C$L2,NEQ             ; [CPU_] |635| 
    1609                      ; branchcc occurs ; [] |635| 
    1610 000000fa 761F-         MOVW      DP,#_gMotorVars+48    ; [CPU_U] 
         000000fb 0002 
    1611                      .dwpsn  file "C:/ti/motorware/motorware_1_01_00_18/sw/solutions/instaspin_foc/src/proj_lab07.c",line 
    1612 000000fc 0630-         MOVL      ACC,@_gMotorVars+48   ; [CPU_] |637| 
    1613 000000fd 1E42          MOVL      *-SP[2],ACC           ; [CPU_] |637| 
    1614 000000fe 0632-         MOVL      ACC,@_gMotorVars+50   ; [CPU_] |637| 
    1615              $C$DW$226       .dwtag  DW_TAG_TI_branch
    1616                      .dwattr $C$DW$226, DW_AT_low_pc(0x00)
    1617                      .dwattr $C$DW$226, DW_AT_name("FS$$SUB")
    1618                      .dwattr $C$DW$226, DW_AT_TI_call
    1619 000000ff 7640!         LCR       #FS$$SUB              ; [CPU_] |637| 
         00000100 0000 
    1620                      ; call occurs [#FS$$SUB] ; [] |637| 
    1621                      .dwpsn  file "C:/ti/motorware/motorware_1_01_00_18/sw/solutions/instaspin_foc/src/proj_lab07.c",line 
    1622 00000101 D018          MOVB      XAR0,#24              ; [CPU_] |639| 
    1623                      .dwpsn  file "C:/ti/motorware/motorware_1_01_00_18/sw/solutions/instaspin_foc/src/proj_lab07.c",line 
    1624 00000102 8BA9          MOVL      XAR1,ACC              ; [CPU_] |637| 
    1625                      .dwpsn  file "C:/ti/motorware/motorware_1_01_00_18/sw/solutions/instaspin_foc/src/proj_lab07.c",line 
    1626 00000103 9A01          MOVB      AL,#1                 ; [CPU_] |639| 
    1627 00000104 8A92          MOVL      XAR4,*+XAR2[AR0]      ; [CPU_] |639| 
    1628              $C$DW$227       .dwtag  DW_TAG_TI_branch
TMS320C2000 Assembler PC v6.2.5 Thu Jun 22 20:41:15 2017

Tools Copyright (c) 1996-2014 Texas Instruments Incorporated
C:\Users\wmj\AppData\Local\Temp\1712410                              PAGE   33

    1629                      .dwattr $C$DW$227, DW_AT_low_pc(0x00)
    1630                      .dwattr $C$DW$227, DW_AT_name("_EST_setFlag_enableRsOnLine")
    1631                      .dwattr $C$DW$227, DW_AT_TI_call
    1632 00000105 7640!         LCR       #_EST_setFlag_enableRsOnLine ; [CPU_] |639| 
         00000106 0000 
    1633                      ; call occurs [#_EST_setFlag_enableRsOnLine] ; [] |639| 
    1634 00000107 761F-         MOVW      DP,#_gMotorVars+36    ; [CPU_U] 
         00000108 0002 
    1635                      .dwpsn  file "C:/ti/motorware/motorware_1_01_00_18/sw/solutions/instaspin_foc/src/proj_lab07.c",line 
    1636 00000109 D018          MOVB      XAR0,#24              ; [CPU_] |640| 
    1637 0000010a 9A00          MOV       AL,#0                 ; [CPU_] |640| 
    1638 0000010b 9B80          MOV       AH,#128               ; [CPU_] |640| 
    1639 0000010c 8724-         MOVL      XT,@_gMotorVars+36    ; [CPU_] |640| 
    1640 0000010d 8A92          MOVL      XAR4,*+XAR2[AR0]      ; [CPU_] |640| 
    1641 0000010e 5605          IMPYL     P,XT,ACC              ; [CPU_] |640| 
         0000010f 00A9 
    1642 00000110 5663          QMPYL     ACC,XT,ACC            ; [CPU_] |640| 
         00000111 00A9 
    1643 00000112 56A7          LSL64     ACC:P,#8              ; [CPU_] |640| 
    1644              $C$DW$228       .dwtag  DW_TAG_TI_branch
    1645                      .dwattr $C$DW$228, DW_AT_low_pc(0x00)
    1646                      .dwattr $C$DW$228, DW_AT_name("_EST_setRsOnLineId_mag_pu")
    1647                      .dwattr $C$DW$228, DW_AT_TI_call
    1648 00000113 7640!         LCR       #_EST_setRsOnLineId_mag_pu ; [CPU_] |640| 
         00000114 0000 
    1649                      ; call occurs [#_EST_setRsOnLineId_mag_pu] ; [] |640| 
    1650                      .dwpsn  file "C:/ti/motorware/motorware_1_01_00_18/sw/solutions/instaspin_foc/src/proj_lab07.c",line 
    1651 00000115 B2A9          MOVL      ACC,XAR1              ; [CPU_] |642| 
    1652              $C$DW$229       .dwtag  DW_TAG_TI_branch
    1653                      .dwattr $C$DW$229, DW_AT_low_pc(0x00)
    1654                      .dwattr $C$DW$229, DW_AT_name("FS$$TOI")
    1655                      .dwattr $C$DW$229, DW_AT_TI_call
    1656 00000116 7640!         LCR       #FS$$TOI              ; [CPU_] |642| 
         00000117 0000 
    1657                      ; call occurs [#FS$$TOI] ; [] |642| 
    1658 00000118 3B01          SETC      SXM                   ; [CPU_] 
    1659 00000119 85A9          MOV       ACC,AL                ; [CPU_] |642| 
    1660 0000011a FF56          ABS       ACC                   ; [CPU_] |642| 
    1661              $C$DW$230       .dwtag  DW_TAG_TI_branch
    1662                      .dwattr $C$DW$230, DW_AT_low_pc(0x00)
    1663                      .dwattr $C$DW$230, DW_AT_name("I$$TOFS")
    1664                      .dwattr $C$DW$230, DW_AT_TI_call
    1665 0000011b 7640!         LCR       #I$$TOFS              ; [CPU_] |642| 
         0000011c 0000 
    1666                      ; call occurs [#I$$TOFS] ; [] |642| 
    1667 0000011d 761F-         MOVW      DP,#_gMotorVars+48    ; [CPU_U] 
         0000011e 0002 
    1668 0000011f 8BA9          MOVL      XAR1,ACC              ; [CPU_] |642| 
    1669 00000120 28A9          MOV       AL,#52429             ; [CPU_] |642| 
         00000121 CCCD 
    1670 00000122 28A8          MOV       AH,#15692             ; [CPU_] |642| 
         00000123 3D4C 
    1671 00000124 1E42          MOVL      *-SP[2],ACC           ; [CPU_] |642| 
    1672 00000125 0630-         MOVL      ACC,@_gMotorVars+48   ; [CPU_] |642| 
    1673              $C$DW$231       .dwtag  DW_TAG_TI_branch
TMS320C2000 Assembler PC v6.2.5 Thu Jun 22 20:41:15 2017

Tools Copyright (c) 1996-2014 Texas Instruments Incorporated
C:\Users\wmj\AppData\Local\Temp\1712410                              PAGE   34

    1674                      .dwattr $C$DW$231, DW_AT_low_pc(0x00)
    1675                      .dwattr $C$DW$231, DW_AT_name("FS$$MPY")
    1676                      .dwattr $C$DW$231, DW_AT_TI_call
    1677 00000126 7640!         LCR       #FS$$MPY              ; [CPU_] |642| 
         00000127 0000 
    1678                      ; call occurs [#FS$$MPY] ; [] |642| 
    1679 00000128 1E42          MOVL      *-SP[2],ACC           ; [CPU_] |642| 
    1680 00000129 B2A9          MOVL      ACC,XAR1              ; [CPU_] |642| 
    1681              $C$DW$232       .dwtag  DW_TAG_TI_branch
    1682                      .dwattr $C$DW$232, DW_AT_low_pc(0x00)
    1683                      .dwattr $C$DW$232, DW_AT_name("FS$$CMP")
    1684                      .dwattr $C$DW$232, DW_AT_TI_call
    1685 0000012a 7640!         LCR       #FS$$CMP              ; [CPU_] |642| 
         0000012b 0000 
    1686                      ; call occurs [#FS$$CMP] ; [] |642| 
    1687 0000012c 5200          CMPB      AL,#0                 ; [CPU_] |642| 
    1688 0000012d 632B          B         $C$L3,GEQ             ; [CPU_] |642| 
    1689                      ; branchcc occurs ; [] |642| 
    1690                      .dwpsn  file "C:/ti/motorware/motorware_1_01_00_18/sw/solutions/instaspin_foc/src/proj_lab07.c",line 
    1691 0000012e D018          MOVB      XAR0,#24              ; [CPU_] |644| 
    1692 0000012f 9A01          MOVB      AL,#1                 ; [CPU_] |644| 
    1693 00000130 8A92          MOVL      XAR4,*+XAR2[AR0]      ; [CPU_] |644| 
    1694              $C$DW$233       .dwtag  DW_TAG_TI_branch
    1695                      .dwattr $C$DW$233, DW_AT_low_pc(0x00)
    1696                      .dwattr $C$DW$233, DW_AT_name("_EST_setFlag_updateRs")
    1697                      .dwattr $C$DW$233, DW_AT_TI_call
    1698 00000131 7640!         LCR       #_EST_setFlag_updateRs ; [CPU_] |644| 
         00000132 0000 
    1699                      ; call occurs [#_EST_setFlag_updateRs] ; [] |644| 
    1700 00000133 6F25          B         $C$L3,UNC             ; [CPU_] |644| 
    1701                      ; branch occurs ; [] |644| 
    1702 00000134       $C$L2:    
    1703                      .dwpsn  file "C:/ti/motorware/motorware_1_01_00_18/sw/solutions/instaspin_foc/src/proj_lab07.c",line 
    1704 00000134 D018          MOVB      XAR0,#24              ; [CPU_] |649| 
    1705 00000135 0200          MOVB      ACC,#0                ; [CPU_] |649| 
    1706 00000136 8A92          MOVL      XAR4,*+XAR2[AR0]      ; [CPU_] |649| 
    1707              $C$DW$234       .dwtag  DW_TAG_TI_branch
    1708                      .dwattr $C$DW$234, DW_AT_low_pc(0x00)
    1709                      .dwattr $C$DW$234, DW_AT_name("_EST_setRsOnLineId_mag_pu")
    1710                      .dwattr $C$DW$234, DW_AT_TI_call
    1711 00000137 7640!         LCR       #_EST_setRsOnLineId_mag_pu ; [CPU_] |649| 
         00000138 0000 
    1712                      ; call occurs [#_EST_setRsOnLineId_mag_pu] ; [] |649| 
    1713                      .dwpsn  file "C:/ti/motorware/motorware_1_01_00_18/sw/solutions/instaspin_foc/src/proj_lab07.c",line 
    1714 00000139 D018          MOVB      XAR0,#24              ; [CPU_] |650| 
    1715 0000013a 0200          MOVB      ACC,#0                ; [CPU_] |650| 
    1716 0000013b 8A92          MOVL      XAR4,*+XAR2[AR0]      ; [CPU_] |650| 
    1717              $C$DW$235       .dwtag  DW_TAG_TI_branch
    1718                      .dwattr $C$DW$235, DW_AT_low_pc(0x00)
    1719                      .dwattr $C$DW$235, DW_AT_name("_EST_setRsOnLineId_pu")
    1720                      .dwattr $C$DW$235, DW_AT_TI_call
    1721 0000013c 7640!         LCR       #_EST_setRsOnLineId_pu ; [CPU_] |650| 
         0000013d 0000 
    1722                      ; call occurs [#_EST_setRsOnLineId_pu] ; [] |650| 
    1723                      .dwpsn  file "C:/ti/motorware/motorware_1_01_00_18/sw/solutions/instaspin_foc/src/proj_lab07.c",line 
TMS320C2000 Assembler PC v6.2.5 Thu Jun 22 20:41:15 2017

Tools Copyright (c) 1996-2014 Texas Instruments Incorporated
C:\Users\wmj\AppData\Local\Temp\1712410                              PAGE   35

    1724 0000013e D018          MOVB      XAR0,#24              ; [CPU_] |651| 
    1725 0000013f 8A92          MOVL      XAR4,*+XAR2[AR0]      ; [CPU_] |651| 
    1726              $C$DW$236       .dwtag  DW_TAG_TI_branch
    1727                      .dwattr $C$DW$236, DW_AT_low_pc(0x00)
    1728                      .dwattr $C$DW$236, DW_AT_name("_EST_getRs_pu")
    1729                      .dwattr $C$DW$236, DW_AT_TI_call
    1730 00000140 7640!         LCR       #_EST_getRs_pu        ; [CPU_] |651| 
         00000141 0000 
    1731                      ; call occurs [#_EST_getRs_pu] ; [] |651| 
    1732 00000142 D018          MOVB      XAR0,#24              ; [CPU_] |651| 
    1733 00000143 8A92          MOVL      XAR4,*+XAR2[AR0]      ; [CPU_] |651| 
    1734              $C$DW$237       .dwtag  DW_TAG_TI_branch
    1735                      .dwattr $C$DW$237, DW_AT_low_pc(0x00)
    1736                      .dwattr $C$DW$237, DW_AT_name("_EST_setRsOnLine_pu")
    1737                      .dwattr $C$DW$237, DW_AT_TI_call
    1738 00000144 7640!         LCR       #_EST_setRsOnLine_pu  ; [CPU_] |651| 
         00000145 0000 
    1739                      ; call occurs [#_EST_setRsOnLine_pu] ; [] |651| 
    1740                      .dwpsn  file "C:/ti/motorware/motorware_1_01_00_18/sw/solutions/instaspin_foc/src/proj_lab07.c",line 
    1741 00000146 D018          MOVB      XAR0,#24              ; [CPU_] |652| 
    1742 00000147 9A00          MOVB      AL,#0                 ; [CPU_] |652| 
    1743 00000148 8A92          MOVL      XAR4,*+XAR2[AR0]      ; [CPU_] |652| 
    1744              $C$DW$238       .dwtag  DW_TAG_TI_branch
    1745                      .dwattr $C$DW$238, DW_AT_low_pc(0x00)
    1746                      .dwattr $C$DW$238, DW_AT_name("_EST_setFlag_enableRsOnLine")
    1747                      .dwattr $C$DW$238, DW_AT_TI_call
    1748 00000149 7640!         LCR       #_EST_setFlag_enableRsOnLine ; [CPU_] |652| 
         0000014a 0000 
    1749                      ; call occurs [#_EST_setFlag_enableRsOnLine] ; [] |652| 
    1750                      .dwpsn  file "C:/ti/motorware/motorware_1_01_00_18/sw/solutions/instaspin_foc/src/proj_lab07.c",line 
    1751 0000014b D018          MOVB      XAR0,#24              ; [CPU_] |653| 
    1752 0000014c 9A00          MOVB      AL,#0                 ; [CPU_] |653| 
    1753 0000014d 8A92          MOVL      XAR4,*+XAR2[AR0]      ; [CPU_] |653| 
    1754              $C$DW$239       .dwtag  DW_TAG_TI_branch
    1755                      .dwattr $C$DW$239, DW_AT_low_pc(0x00)
    1756                      .dwattr $C$DW$239, DW_AT_name("_EST_setFlag_updateRs")
    1757                      .dwattr $C$DW$239, DW_AT_TI_call
    1758 0000014e 7640!         LCR       #_EST_setFlag_updateRs ; [CPU_] |653| 
         0000014f 0000 
    1759                      ; call occurs [#_EST_setFlag_updateRs] ; [] |653| 
    1760                      .dwpsn  file "C:/ti/motorware/motorware_1_01_00_18/sw/solutions/instaspin_foc/src/proj_lab07.c",line 
    1761 00000150 D018          MOVB      XAR0,#24              ; [CPU_] |654| 
    1762 00000151 8A92          MOVL      XAR4,*+XAR2[AR0]      ; [CPU_] |654| 
    1763              $C$DW$240       .dwtag  DW_TAG_TI_branch
    1764                      .dwattr $C$DW$240, DW_AT_low_pc(0x00)
    1765                      .dwattr $C$DW$240, DW_AT_name("_EST_getRs_qFmt")
    1766                      .dwattr $C$DW$240, DW_AT_TI_call
    1767 00000152 7640!         LCR       #_EST_getRs_qFmt      ; [CPU_] |654| 
         00000153 0000 
    1768                      ; call occurs [#_EST_getRs_qFmt] ; [] |654| 
    1769 00000154 D018          MOVB      XAR0,#24              ; [CPU_] |654| 
    1770 00000155 8A92          MOVL      XAR4,*+XAR2[AR0]      ; [CPU_] |654| 
    1771              $C$DW$241       .dwtag  DW_TAG_TI_branch
    1772                      .dwattr $C$DW$241, DW_AT_low_pc(0x00)
    1773                      .dwattr $C$DW$241, DW_AT_name("_EST_setRsOnLine_qFmt")
TMS320C2000 Assembler PC v6.2.5 Thu Jun 22 20:41:15 2017

Tools Copyright (c) 1996-2014 Texas Instruments Incorporated
C:\Users\wmj\AppData\Local\Temp\1712410                              PAGE   36

    1774                      .dwattr $C$DW$241, DW_AT_TI_call
    1775 00000156 7640!         LCR       #_EST_setRsOnLine_qFmt ; [CPU_] |654| 
         00000157 0000 
    1776                      ; call occurs [#_EST_setRsOnLine_qFmt] ; [] |654| 
    1777 00000158       $C$L3:    
    1778 00000158 FE82          SUBB      SP,#2                 ; [CPU_U] 
    1779                      .dwcfi  cfa_offset, -6
    1780 00000159 86BE          MOVL      XAR2,*--SP            ; [CPU_] 
    1781                      .dwcfi  cfa_offset, -4
    1782                      .dwcfi  restore_reg, 9
    1783 0000015a 8BBE          MOVL      XAR1,*--SP            ; [CPU_] 
    1784                      .dwcfi  cfa_offset, -2
    1785                      .dwcfi  restore_reg, 7
    1786              $C$DW$242       .dwtag  DW_TAG_TI_branch
    1787                      .dwattr $C$DW$242, DW_AT_low_pc(0x00)
    1788                      .dwattr $C$DW$242, DW_AT_TI_return
    1789 0000015b 0006          LRETR     ; [CPU_] 
    1790                      ; return occurs ; [] 
    1791                      .dwattr $C$DW$221, DW_AT_TI_end_file("C:/ti/motorware/motorware_1_01_00_18/sw/solutions/instaspin_foc
    1792                      .dwattr $C$DW$221, DW_AT_TI_end_line(0x293)
    1793                      .dwattr $C$DW$221, DW_AT_TI_end_column(0x01)
    1794                      .dwendentry
    1795                      .dwendtag $C$DW$221
    1796              
    1797 0000015c               .sect   ".text"
    1798                      .clink
    1799              
    1800              $C$DW$243       .dwtag  DW_TAG_subprogram, DW_AT_name("TIMER_getCount")
    1801                      .dwattr $C$DW$243, DW_AT_low_pc(_TIMER_getCount)
    1802                      .dwattr $C$DW$243, DW_AT_high_pc(0x00)
    1803                      .dwattr $C$DW$243, DW_AT_TI_symbol_name("_TIMER_getCount")
    1804                      .dwattr $C$DW$243, DW_AT_type(*$C$DW$T$38)
    1805                      .dwattr $C$DW$243, DW_AT_TI_begin_file("C:/ti/motorware/motorware_1_01_00_18/sw/drivers/timer/src/32b
    1806                      .dwattr $C$DW$243, DW_AT_TI_begin_line(0xa3)
    1807                      .dwattr $C$DW$243, DW_AT_TI_begin_column(0x18)
    1808                      .dwattr $C$DW$243, DW_AT_TI_max_frame_size(-4)
    1809                      .dwpsn  file "C:/ti/motorware/motorware_1_01_00_18/sw/drivers/timer/src/32b/f28x/f2802x/timer.h",line
    1810              
    1811                      .dwfde $C$DW$CIE, _TIMER_getCount
    1812              $C$DW$244       .dwtag  DW_TAG_formal_parameter, DW_AT_name("timerHandle")
    1813                      .dwattr $C$DW$244, DW_AT_TI_symbol_name("_timerHandle")
    1814                      .dwattr $C$DW$244, DW_AT_type(*$C$DW$T$112)
    1815                      .dwattr $C$DW$244, DW_AT_location[DW_OP_reg12]
    1816              
    1817              ;***************************************************************
    1818              ;* FNAME: _TIMER_getCount               FR SIZE:   2           *
    1819              ;*                                                             *
    1820              ;* FUNCTION ENVIRONMENT                                        *
    1821              ;*                                                             *
    1822              ;* FUNCTION PROPERTIES                                         *
    1823              ;*                            0 Parameter,  2 Auto,  0 SOE     *
    1824              ;***************************************************************
    1825              
    1826              _TIMER_getCount:
    1827              ;* AR4   assigned to _timerHandle
TMS320C2000 Assembler PC v6.2.5 Thu Jun 22 20:41:15 2017

Tools Copyright (c) 1996-2014 Texas Instruments Incorporated
C:\Users\wmj\AppData\Local\Temp\1712410                              PAGE   37

    1828              $C$DW$245       .dwtag  DW_TAG_variable, DW_AT_name("timerHandle")
    1829                      .dwattr $C$DW$245, DW_AT_TI_symbol_name("_timerHandle")
    1830                      .dwattr $C$DW$245, DW_AT_type(*$C$DW$T$248)
    1831                      .dwattr $C$DW$245, DW_AT_location[DW_OP_reg12]
    1832              ;* AL    assigned to _cnt
    1833              $C$DW$246       .dwtag  DW_TAG_variable, DW_AT_name("cnt")
    1834                      .dwattr $C$DW$246, DW_AT_TI_symbol_name("_cnt")
    1835                      .dwattr $C$DW$246, DW_AT_type(*$C$DW$T$38)
    1836                      .dwattr $C$DW$246, DW_AT_location[DW_OP_reg0]
    1837              $C$DW$247       .dwtag  DW_TAG_variable, DW_AT_name("timer")
    1838                      .dwattr $C$DW$247, DW_AT_TI_symbol_name("_timer")
    1839                      .dwattr $C$DW$247, DW_AT_type(*$C$DW$T$247)
    1840                      .dwattr $C$DW$247, DW_AT_location[DW_OP_breg20 -2]
    1841                      .dwcfi  cfa_offset, -2
    1842                      .dwcfi  save_reg_to_mem, 26, 0
    1843                      .dwcfi  save_reg_to_reg, 78, 26
    1844 0000015c FE02          ADDB      SP,#2                 ; [CPU_U] 
    1845                      .dwcfi  cfa_offset, -4
    1846                      .dwpsn  file "C:/ti/motorware/motorware_1_01_00_18/sw/drivers/timer/src/32b/f28x/f2802x/timer.h",line
    1847 0000015d A842          MOVL      *-SP[2],XAR4          ; [CPU_] |165| 
    1848                      .dwpsn  file "C:/ti/motorware/motorware_1_01_00_18/sw/drivers/timer/src/32b/f28x/f2802x/timer.h",line
    1849 0000015e 06C4          MOVL      ACC,*+XAR4[0]         ; [CPU_] |169| 
    1850 0000015f FE82          SUBB      SP,#2                 ; [CPU_U] 
    1851                      .dwcfi  cfa_offset, -2
    1852              $C$DW$248       .dwtag  DW_TAG_TI_branch
    1853                      .dwattr $C$DW$248, DW_AT_low_pc(0x00)
    1854                      .dwattr $C$DW$248, DW_AT_TI_return
    1855 00000160 0006          LRETR     ; [CPU_] 
    1856                      ; return occurs ; [] 
    1857                      .dwattr $C$DW$243, DW_AT_TI_end_file("C:/ti/motorware/motorware_1_01_00_18/sw/drivers/timer/src/32b/f
    1858                      .dwattr $C$DW$243, DW_AT_TI_end_line(0xac)
    1859                      .dwattr $C$DW$243, DW_AT_TI_end_column(0x01)
    1860                      .dwendentry
    1861                      .dwendtag $C$DW$243
    1862              
    1863 00000000               .sect   "ramfuncs:retain"
    1864                      .retain
    1865                      .retainrefs
    1866                      .global _mainISR
    1867              
    1868              $C$DW$249       .dwtag  DW_TAG_subprogram, DW_AT_name("mainISR")
    1869                      .dwattr $C$DW$249, DW_AT_low_pc(_mainISR)
    1870                      .dwattr $C$DW$249, DW_AT_high_pc(0x00)
    1871                      .dwattr $C$DW$249, DW_AT_TI_symbol_name("_mainISR")
    1872                      .dwattr $C$DW$249, DW_AT_external
    1873                      .dwattr $C$DW$249, DW_AT_TI_begin_file("C:/ti/motorware/motorware_1_01_00_18/sw/solutions/instaspin_f
    1874                      .dwattr $C$DW$249, DW_AT_TI_begin_line(0x1f5)
    1875                      .dwattr $C$DW$249, DW_AT_TI_begin_column(0x10)
    1876                      .dwattr $C$DW$249, DW_AT_TI_interrupt
    1877                      .dwattr $C$DW$249, DW_AT_TI_max_frame_size(-26)
    1878                      .dwpsn  file "C:/ti/motorware/motorware_1_01_00_18/sw/solutions/instaspin_foc/src/proj_lab07.c",line 
    1879              
    1880                      .dwfde $C$DW$CIE, _mainISR
    1881              
    1882              ;***************************************************************
TMS320C2000 Assembler PC v6.2.5 Thu Jun 22 20:41:15 2017

Tools Copyright (c) 1996-2014 Texas Instruments Incorporated
C:\Users\wmj\AppData\Local\Temp\1712410                              PAGE   38

    1883              ;* FNAME: _mainISR                      FR SIZE:  24           *
    1884              ;*                                                             *
    1885              ;* FUNCTION ENVIRONMENT                                        *
    1886              ;*                                                             *
    1887              ;* FUNCTION PROPERTIES                                         *
    1888              ;*                            4 Parameter,  4 Auto, 16 SOE     *
    1889              ;***************************************************************
    1890              
    1891              _mainISR:
    1892              ;* AR5   assigned to $O$C1
    1893              ;* AR4   assigned to $O$C2
    1894              ;* AR0   assigned to $O$C3
    1895              ;* AR1   assigned to $O$C4
    1896              ;* AR7   assigned to $O$C5
    1897              ;* AR6   assigned to $O$C6
    1898              ;* AR4   assigned to $O$C7
    1899              ;* AR7   assigned to $O$C8
    1900              ;* AR6   assigned to $O$C9
    1901              ;* AR6   assigned to $O$C10
    1902              ;* AR4   assigned to $O$v3
    1903              ;* AR4   assigned to $O$v2
    1904              ;* AR5   assigned to $O$v1
    1905              $C$DW$250       .dwtag  DW_TAG_variable, DW_AT_name("cnt_z1")
    1906                      .dwattr $C$DW$250, DW_AT_TI_symbol_name("_cnt_z1")
    1907                      .dwattr $C$DW$250, DW_AT_type(*$C$DW$T$38)
    1908                      .dwattr $C$DW$250, DW_AT_location[DW_OP_breg20 -6]
    1909              ;* AR1   assigned to _cnt_z0
    1910              $C$DW$251       .dwtag  DW_TAG_variable, DW_AT_name("cnt_z0")
    1911                      .dwattr $C$DW$251, DW_AT_TI_symbol_name("_cnt_z0")
    1912                      .dwattr $C$DW$251, DW_AT_type(*$C$DW$T$38)
    1913                      .dwattr $C$DW$251, DW_AT_location[DW_OP_reg6]
    1914              ;* XT    assigned to _value
    1915              $C$DW$252       .dwtag  DW_TAG_variable, DW_AT_name("value")
    1916                      .dwattr $C$DW$252, DW_AT_TI_symbol_name("_value")
    1917                      .dwattr $C$DW$252, DW_AT_type(*$C$DW$T$32)
    1918                      .dwattr $C$DW$252, DW_AT_location[DW_OP_reg21]
    1919              ;* XT    assigned to _value
    1920              $C$DW$253       .dwtag  DW_TAG_variable, DW_AT_name("value")
    1921                      .dwattr $C$DW$253, DW_AT_TI_symbol_name("_value")
    1922                      .dwattr $C$DW$253, DW_AT_type(*$C$DW$T$32)
    1923                      .dwattr $C$DW$253, DW_AT_location[DW_OP_reg21]
    1924              ;* XT    assigned to _value
    1925              $C$DW$254       .dwtag  DW_TAG_variable, DW_AT_name("value")
    1926                      .dwattr $C$DW$254, DW_AT_TI_symbol_name("_value")
    1927                      .dwattr $C$DW$254, DW_AT_type(*$C$DW$T$32)
    1928                      .dwattr $C$DW$254, DW_AT_location[DW_OP_reg21]
    1929              ;* XT    assigned to _value
    1930              $C$DW$255       .dwtag  DW_TAG_variable, DW_AT_name("value")
    1931                      .dwattr $C$DW$255, DW_AT_TI_symbol_name("_value")
    1932                      .dwattr $C$DW$255, DW_AT_type(*$C$DW$T$32)
    1933                      .dwattr $C$DW$255, DW_AT_location[DW_OP_reg21]
    1934              ;* XT    assigned to _value
    1935              $C$DW$256       .dwtag  DW_TAG_variable, DW_AT_name("value")
    1936                      .dwattr $C$DW$256, DW_AT_TI_symbol_name("_value")
    1937                      .dwattr $C$DW$256, DW_AT_type(*$C$DW$T$32)
TMS320C2000 Assembler PC v6.2.5 Thu Jun 22 20:41:15 2017

Tools Copyright (c) 1996-2014 Texas Instruments Incorporated
C:\Users\wmj\AppData\Local\Temp\1712410                              PAGE   39

    1938                      .dwattr $C$DW$256, DW_AT_location[DW_OP_reg21]
    1939              ;* XT    assigned to _value
    1940              $C$DW$257       .dwtag  DW_TAG_variable, DW_AT_name("value")
    1941                      .dwattr $C$DW$257, DW_AT_TI_symbol_name("_value")
    1942                      .dwattr $C$DW$257, DW_AT_type(*$C$DW$T$32)
    1943                      .dwattr $C$DW$257, DW_AT_location[DW_OP_reg21]
    1944              ;* XT    assigned to _value
    1945              $C$DW$258       .dwtag  DW_TAG_variable, DW_AT_name("value")
    1946                      .dwattr $C$DW$258, DW_AT_TI_symbol_name("_value")
    1947                      .dwattr $C$DW$258, DW_AT_type(*$C$DW$T$32)
    1948                      .dwattr $C$DW$258, DW_AT_location[DW_OP_reg21]
    1949              ;* AR0   assigned to _deltaCnt
    1950              $C$DW$259       .dwtag  DW_TAG_variable, DW_AT_name("deltaCnt")
    1951                      .dwattr $C$DW$259, DW_AT_TI_symbol_name("_deltaCnt")
    1952                      .dwattr $C$DW$259, DW_AT_type(*$C$DW$T$38)
    1953                      .dwattr $C$DW$259, DW_AT_location[DW_OP_reg4]
    1954              ;* AR6   assigned to _flag_resetStats
    1955              $C$DW$260       .dwtag  DW_TAG_variable, DW_AT_name("flag_resetStats")
    1956                      .dwattr $C$DW$260, DW_AT_TI_symbol_name("_flag_resetStats")
    1957                      .dwattr $C$DW$260, DW_AT_type(*$C$DW$T$39)
    1958                      .dwattr $C$DW$260, DW_AT_location[DW_OP_reg16]
    1959              $C$DW$261       .dwtag  DW_TAG_variable, DW_AT_name("deltaCntAccNumMax")
    1960                      .dwattr $C$DW$261, DW_AT_TI_symbol_name("_deltaCntAccNumMax")
    1961                      .dwattr $C$DW$261, DW_AT_type(*$C$DW$T$38)
    1962                      .dwattr $C$DW$261, DW_AT_location[DW_OP_breg20 -8]
    1963              ;* AR5   assigned to _deltaCntAccNum
    1964              $C$DW$262       .dwtag  DW_TAG_variable, DW_AT_name("deltaCntAccNum")
    1965                      .dwattr $C$DW$262, DW_AT_TI_symbol_name("_deltaCntAccNum")
    1966                      .dwattr $C$DW$262, DW_AT_type(*$C$DW$T$38)
    1967                      .dwattr $C$DW$262, DW_AT_location[DW_OP_reg14]
    1968              ;* PL    assigned to _deltaCntAcc
    1969              $C$DW$263       .dwtag  DW_TAG_variable, DW_AT_name("deltaCntAcc")
    1970                      .dwattr $C$DW$263, DW_AT_TI_symbol_name("_deltaCntAcc")
    1971                      .dwattr $C$DW$263, DW_AT_type(*$C$DW$T$38)
    1972                      .dwattr $C$DW$263, DW_AT_location[DW_OP_reg2]
    1973              ;* AR2   assigned to _maxDeltaCntObserved
    1974              $C$DW$264       .dwtag  DW_TAG_variable, DW_AT_name("maxDeltaCntObserved")
    1975                      .dwattr $C$DW$264, DW_AT_TI_symbol_name("_maxDeltaCntObserved")
    1976                      .dwattr $C$DW$264, DW_AT_type(*$C$DW$T$38)
    1977                      .dwattr $C$DW$264, DW_AT_location[DW_OP_reg8]
    1978              ;* XT    assigned to _avgDeltaCntObserved
    1979              $C$DW$265       .dwtag  DW_TAG_variable, DW_AT_name("avgDeltaCntObserved")
    1980                      .dwattr $C$DW$265, DW_AT_TI_symbol_name("_avgDeltaCntObserved")
    1981                      .dwattr $C$DW$265, DW_AT_type(*$C$DW$T$38)
    1982                      .dwattr $C$DW$265, DW_AT_location[DW_OP_reg21]
    1983              ;* AR7   assigned to _minDeltaCntObserved
    1984              $C$DW$266       .dwtag  DW_TAG_variable, DW_AT_name("minDeltaCntObserved")
    1985                      .dwattr $C$DW$266, DW_AT_TI_symbol_name("_minDeltaCntObserved")
    1986                      .dwattr $C$DW$266, DW_AT_type(*$C$DW$T$38)
    1987                      .dwattr $C$DW$266, DW_AT_location[DW_OP_reg18]
    1988              ;* AR3   assigned to _timerPeriod
    1989              $C$DW$267       .dwtag  DW_TAG_variable, DW_AT_name("timerPeriod")
    1990                      .dwattr $C$DW$267, DW_AT_TI_symbol_name("_timerPeriod")
    1991                      .dwattr $C$DW$267, DW_AT_type(*$C$DW$T$38)
    1992                      .dwattr $C$DW$267, DW_AT_location[DW_OP_reg10]
TMS320C2000 Assembler PC v6.2.5 Thu Jun 22 20:41:15 2017

Tools Copyright (c) 1996-2014 Texas Instruments Incorporated
C:\Users\wmj\AppData\Local\Temp\1712410                              PAGE   40

    1993              ;* AR4   assigned to _handle
    1994              $C$DW$268       .dwtag  DW_TAG_variable, DW_AT_name("handle")
    1995                      .dwattr $C$DW$268, DW_AT_TI_symbol_name("_handle")
    1996                      .dwattr $C$DW$268, DW_AT_type(*$C$DW$T$199)
    1997                      .dwattr $C$DW$268, DW_AT_location[DW_OP_reg12]
    1998              ;* AR4   assigned to _handle
    1999              $C$DW$269       .dwtag  DW_TAG_variable, DW_AT_name("handle")
    2000                      .dwattr $C$DW$269, DW_AT_TI_symbol_name("_handle")
    2001                      .dwattr $C$DW$269, DW_AT_type(*$C$DW$T$199)
    2002                      .dwattr $C$DW$269, DW_AT_location[DW_OP_reg12]
    2003              ;* AL    assigned to _timerCnt
    2004              $C$DW$270       .dwtag  DW_TAG_variable, DW_AT_name("timerCnt")
    2005                      .dwattr $C$DW$270, DW_AT_TI_symbol_name("_timerCnt")
    2006                      .dwattr $C$DW$270, DW_AT_type(*$C$DW$T$38)
    2007                      .dwattr $C$DW$270, DW_AT_location[DW_OP_reg0]
    2008              ;* AR0   assigned to _period
    2009              $C$DW$271       .dwtag  DW_TAG_variable, DW_AT_name("period")
    2010                      .dwattr $C$DW$271, DW_AT_TI_symbol_name("_period")
    2011                      .dwattr $C$DW$271, DW_AT_type(*$C$DW$T$32)
    2012                      .dwattr $C$DW$271, DW_AT_location[DW_OP_reg4]
    2013              ;* AR6   assigned to _deltaCnt
    2014              $C$DW$272       .dwtag  DW_TAG_variable, DW_AT_name("deltaCnt")
    2015                      .dwattr $C$DW$272, DW_AT_TI_symbol_name("_deltaCnt")
    2016                      .dwattr $C$DW$272, DW_AT_type(*$C$DW$T$38)
    2017                      .dwattr $C$DW$272, DW_AT_location[DW_OP_reg16]
    2018              ;* AR0   assigned to _cnt_z1
    2019              $C$DW$273       .dwtag  DW_TAG_variable, DW_AT_name("cnt_z1")
    2020                      .dwattr $C$DW$273, DW_AT_TI_symbol_name("_cnt_z1")
    2021                      .dwattr $C$DW$273, DW_AT_type(*$C$DW$T$38)
    2022                      .dwattr $C$DW$273, DW_AT_location[DW_OP_reg4]
    2023              ;* AR2   assigned to _cnt_z0
    2024              $C$DW$274       .dwtag  DW_TAG_variable, DW_AT_name("cnt_z0")
    2025                      .dwattr $C$DW$274, DW_AT_TI_symbol_name("_cnt_z0")
    2026                      .dwattr $C$DW$274, DW_AT_type(*$C$DW$T$38)
    2027                      .dwattr $C$DW$274, DW_AT_location[DW_OP_reg8]
    2028              ;* XT    assigned to _minDeltaCnt
    2029              $C$DW$275       .dwtag  DW_TAG_variable, DW_AT_name("minDeltaCnt")
    2030                      .dwattr $C$DW$275, DW_AT_TI_symbol_name("_minDeltaCnt")
    2031                      .dwattr $C$DW$275, DW_AT_type(*$C$DW$T$38)
    2032                      .dwattr $C$DW$275, DW_AT_location[DW_OP_reg21]
    2033              ;* PL    assigned to _maxDeltaCntObserved
    2034              $C$DW$276       .dwtag  DW_TAG_variable, DW_AT_name("maxDeltaCntObserved")
    2035                      .dwattr $C$DW$276, DW_AT_TI_symbol_name("_maxDeltaCntObserved")
    2036                      .dwattr $C$DW$276, DW_AT_type(*$C$DW$T$38)
    2037                      .dwattr $C$DW$276, DW_AT_location[DW_OP_reg2]
    2038              ;* AR7   assigned to _maxDeltaCnt
    2039              $C$DW$277       .dwtag  DW_TAG_variable, DW_AT_name("maxDeltaCnt")
    2040                      .dwattr $C$DW$277, DW_AT_TI_symbol_name("_maxDeltaCnt")
    2041                      .dwattr $C$DW$277, DW_AT_type(*$C$DW$T$38)
    2042                      .dwattr $C$DW$277, DW_AT_location[DW_OP_reg18]
    2043              ;* AR6   assigned to _timerPeriod
    2044              $C$DW$278       .dwtag  DW_TAG_variable, DW_AT_name("timerPeriod")
    2045                      .dwattr $C$DW$278, DW_AT_TI_symbol_name("_timerPeriod")
    2046                      .dwattr $C$DW$278, DW_AT_type(*$C$DW$T$38)
    2047                      .dwattr $C$DW$278, DW_AT_location[DW_OP_reg16]
TMS320C2000 Assembler PC v6.2.5 Thu Jun 22 20:41:15 2017

Tools Copyright (c) 1996-2014 Texas Instruments Incorporated
C:\Users\wmj\AppData\Local\Temp\1712410                              PAGE   41

    2048              ;* AR4   assigned to _handle
    2049              $C$DW$279       .dwtag  DW_TAG_variable, DW_AT_name("handle")
    2050                      .dwattr $C$DW$279, DW_AT_TI_symbol_name("_handle")
    2051                      .dwattr $C$DW$279, DW_AT_type(*$C$DW$T$218)
    2052                      .dwattr $C$DW$279, DW_AT_location[DW_OP_reg12]
    2053              ;* AR4   assigned to _handle
    2054              $C$DW$280       .dwtag  DW_TAG_variable, DW_AT_name("handle")
    2055                      .dwattr $C$DW$280, DW_AT_TI_symbol_name("_handle")
    2056                      .dwattr $C$DW$280, DW_AT_type(*$C$DW$T$218)
    2057                      .dwattr $C$DW$280, DW_AT_location[DW_OP_reg12]
    2058              ;* AL    assigned to _timerCnt
    2059              $C$DW$281       .dwtag  DW_TAG_variable, DW_AT_name("timerCnt")
    2060                      .dwattr $C$DW$281, DW_AT_TI_symbol_name("_timerCnt")
    2061                      .dwattr $C$DW$281, DW_AT_type(*$C$DW$T$38)
    2062                      .dwattr $C$DW$281, DW_AT_location[DW_OP_reg0]
    2063              ;* AR4   assigned to _handle
    2064              $C$DW$282       .dwtag  DW_TAG_variable, DW_AT_name("handle")
    2065                      .dwattr $C$DW$282, DW_AT_TI_symbol_name("_handle")
    2066                      .dwattr $C$DW$282, DW_AT_type(*$C$DW$T$199)
    2067                      .dwattr $C$DW$282, DW_AT_location[DW_OP_reg12]
    2068              ;* AL    assigned to _timerCnt
    2069              $C$DW$283       .dwtag  DW_TAG_variable, DW_AT_name("timerCnt")
    2070                      .dwattr $C$DW$283, DW_AT_TI_symbol_name("_timerCnt")
    2071                      .dwattr $C$DW$283, DW_AT_type(*$C$DW$T$38)
    2072                      .dwattr $C$DW$283, DW_AT_location[DW_OP_reg0]
    2073              ;* AR6   assigned to $O$L1
    2074              ;* AR4   assigned to $O$U149
    2075              ;* AR7   assigned to $O$U164
    2076              ;* AR4   assigned to $O$U150
    2077                      .dwcfi  cfa_offset, -2
    2078                      .dwcfi  save_reg_to_mem, 26, 0
    2079                      .dwcfi  save_reg_to_reg, 78, 26
    2080 00000000 761B          ASP       ; [CPU_] 
    2081 00000001 0005          PUSH      AR1H:AR0H             ; [CPU_] 
    2082                      .dwcfi  save_reg_to_mem, 5, 2
    2083                      .dwcfi  save_reg_to_mem, 7, 3
    2084                      .dwcfi  cfa_offset, -4
    2085 00000002 ABBD          MOVL      *SP++,XT              ; [CPU_] 
    2086                      .dwcfi  save_reg_to_mem, 21, 4
    2087                      .dwcfi  save_reg_to_mem, 22, 5
    2088                      .dwcfi  cfa_offset, -6
    2089 00000003 AABD          MOVL      *SP++,XAR2            ; [CPU_] 
    2090                      .dwcfi  save_reg_to_mem, 8, 6
    2091                      .dwcfi  save_reg_to_mem, 9, 7
    2092                      .dwcfi  cfa_offset, -8
    2093 00000004 A2BD          MOVL      *SP++,XAR3            ; [CPU_] 
    2094                      .dwcfi  save_reg_to_mem, 10, 8
    2095                      .dwcfi  save_reg_to_mem, 11, 9
    2096                      .dwcfi  cfa_offset, -10
    2097 00000005 A8BD          MOVL      *SP++,XAR4            ; [CPU_] 
    2098                      .dwcfi  save_reg_to_mem, 12, 10
    2099                      .dwcfi  save_reg_to_mem, 13, 11
    2100                      .dwcfi  cfa_offset, -12
    2101 00000006 A0BD          MOVL      *SP++,XAR5            ; [CPU_] 
    2102                      .dwcfi  save_reg_to_mem, 14, 12
TMS320C2000 Assembler PC v6.2.5 Thu Jun 22 20:41:15 2017

Tools Copyright (c) 1996-2014 Texas Instruments Incorporated
C:\Users\wmj\AppData\Local\Temp\1712410                              PAGE   42

    2103                      .dwcfi  save_reg_to_mem, 15, 13
    2104                      .dwcfi  cfa_offset, -14
    2105 00000007 C2BD          MOVL      *SP++,XAR6            ; [CPU_] 
    2106                      .dwcfi  save_reg_to_mem, 16, 14
    2107                      .dwcfi  save_reg_to_mem, 17, 15
    2108                      .dwcfi  cfa_offset, -16
    2109 00000008 C3BD          MOVL      *SP++,XAR7            ; [CPU_] 
    2110                      .dwcfi  save_reg_to_mem, 18, 16
    2111                      .dwcfi  save_reg_to_mem, 19, 17
    2112                      .dwcfi  cfa_offset, -18
    2113 00000009 FE08          ADDB      SP,#8                 ; [CPU_U] 
    2114                      .dwcfi  cfa_offset, -26
    2115 0000000a FF69          SPM       0                     ; [CPU_] 
    2116 0000000b 2942          CLRC      PAGE0,OVM             ; [CPU_] 
    2117 0000000c 5616          CLRC      AMODE                 ; [CPU_] 
    2118 0000000d 761F-         MOVW      DP,#_halHandle        ; [CPU_U] 
         0000000e 0000 
    2119                      .dwpsn  file "C:/ti/motorware/motorware_1_01_00_18/sw/solutions/instaspin_foc/src/proj_lab07.c",line 
    2120 0000000f 8310-         MOVL      XAR5,@_halHandle      ; [CPU_] |508| 
    2121                      .dwpsn  file "C:/ti/motorware/motorware_1_01_00_18/sw/modules/hal/boards/hvkit_rev1p1/f28x/f2802x/src
    2122 00000010 028A          MOVB      ACC,#138              ; [CPU_] |600| 
    2123 00000011 07A5          ADDL      ACC,XAR5              ; [CPU_] |600| 
    2124 00000012 1EA6          MOVL      XAR6,ACC              ; [CPU_] |600| 
    2125 00000013 8AD6          MOVL      XAR4,*+XAR6[2]        ; [CPU_] |600| 
    2126              $C$DW$284       .dwtag  DW_TAG_TI_branch
    2127                      .dwattr $C$DW$284, DW_AT_low_pc(0x00)
    2128                      .dwattr $C$DW$284, DW_AT_name("_TIMER_getCount")
    2129                      .dwattr $C$DW$284, DW_AT_TI_call
    2130 00000014 7640'         LCR       #_TIMER_getCount      ; [CPU_] |600| 
         00000015 015C 
    2131                      ; call occurs [#_TIMER_getCount] ; [] |600| 
    2132                      .dwpsn  file "C:/ti/motorware/motorware_1_01_00_18/sw/solutions/instaspin_foc/src/proj_lab07.c",line 
    2133 00000016 8A1E-         MOVL      XAR4,@_cpu_usageHandle ; [CPU_] |509| 
    2134                      .dwpsn  file "C:/ti/motorware/motorware_1_01_00_18/sw/modules/cpu_usage/src/32b/cpu_usage.h",line 233
    2135 00000017 C5D4          MOVL      XAR7,*+XAR4[2]        ; [CPU_] |233| 
    2136 00000018 C3E4          MOVL      *+XAR4[4],XAR7        ; [CPU_] |233| 
    2137                      .dwpsn  file "C:/ti/motorware/motorware_1_01_00_18/sw/modules/cpu_usage/src/32b/cpu_usage.h",line 220
    2138 00000019 1ED4          MOVL      *+XAR4[2],ACC         ; [CPU_] |220| 
    2139                      .dwpsn  file "C:/ti/motorware/motorware_1_01_00_18/sw/modules/hal/boards/hvkit_rev1p1/f28x/f2802x/src
    2140 0000001a 8AC6          MOVL      XAR4,*+XAR6[0]        ; [CPU_] |600| 
    2141              $C$DW$285       .dwtag  DW_TAG_TI_branch
    2142                      .dwattr $C$DW$285, DW_AT_low_pc(0x00)
    2143                      .dwattr $C$DW$285, DW_AT_name("_TIMER_getCount")
    2144                      .dwattr $C$DW$285, DW_AT_TI_call
    2145 0000001b 7640'         LCR       #_TIMER_getCount      ; [CPU_] |600| 
         0000001c 015C 
    2146                      ; call occurs [#_TIMER_getCount] ; [] |600| 
    2147                      .dwpsn  file "C:/ti/motorware/motorware_1_01_00_18/sw/solutions/instaspin_foc/src/proj_lab07.c",line 
    2148 0000001d 8A0E-         MOVL      XAR4,@_femHandle      ; [CPU_] |514| 
    2149                      .dwpsn  file "C:/ti/motorware/motorware_1_01_00_18/sw/modules/fem/src/32b/fem.h",line 208,column 3,is
    2150 0000001e C4D4          MOVL      XAR6,*+XAR4[2]        ; [CPU_] |208| 
    2151                      .dwpsn  file "C:/ti/motorware/motorware_1_01_00_18/sw/modules/fem/src/32b/fem.h",line 133,column 3,is
    2152 0000001f D008          MOVB      XAR0,#8               ; [CPU_] |133| 
    2153                      .dwpsn  file "C:/ti/motorware/motorware_1_01_00_18/sw/modules/fem/src/32b/fem.h",line 208,column 3,is
    2154 00000020 C2E4          MOVL      *+XAR4[4],XAR6        ; [CPU_] |208| 
TMS320C2000 Assembler PC v6.2.5 Thu Jun 22 20:41:15 2017

Tools Copyright (c) 1996-2014 Texas Instruments Incorporated
C:\Users\wmj\AppData\Local\Temp\1712410                              PAGE   43

    2155                      .dwpsn  file "C:/ti/motorware/motorware_1_01_00_18/sw/modules/fem/src/32b/fem.h",line 195,column 3,is
    2156 00000021 1ED4          MOVL      *+XAR4[2],ACC         ; [CPU_] |195| 
    2157                      .dwpsn  file "C:/ti/motorware/motorware_1_01_00_18/sw/modules/fem/src/32b/fem.h",line 133,column 3,is
    2158 00000022 C594          MOVL      XAR7,*+XAR4[AR0]      ; [CPU_] |133| 
    2159                      .dwpsn  file "C:/ti/motorware/motorware_1_01_00_18/sw/modules/fem/src/32b/fem.h",line 144,column 3,is
    2160 00000023 D00C          MOVB      XAR0,#12              ; [CPU_] |144| 
    2161 00000024 A394          MOVL      P,*+XAR4[AR0]         ; [CPU_] |144| 
    2162                      .dwpsn  file "C:/ti/motorware/motorware_1_01_00_18/sw/modules/fem/src/32b/fem.h",line 155,column 3,is
    2163 00000025 D00A          MOVB      XAR0,#10              ; [CPU_] |155| 
    2164 00000026 8794          MOVL      XT,*+XAR4[AR0]        ; [CPU_] |155| 
    2165                      .dwpsn  file "C:/ti/motorware/motorware_1_01_00_18/sw/modules/fem/src/32b/fem.h",line 89,column 3,is_
    2166 00000027 8EE4          MOVL      XAR0,*+XAR4[4]        ; [CPU_] |89| 
    2167                      .dwpsn  file "C:/ti/motorware/motorware_1_01_00_18/sw/modules/fem/src/32b/fem.h",line 166,column 3,is
    2168 00000028 C4C4          MOVL      XAR6,*+XAR4[0]        ; [CPU_] |166| 
    2169                      .dwpsn  file "C:/ti/motorware/motorware_1_01_00_18/sw/modules/fem/src/32b/fem.h",line 78,column 3,is_
    2170 00000029 86D4          MOVL      XAR2,*+XAR4[2]        ; [CPU_] |78| 
    2171                      .dwpsn  file "C:/ti/motorware/motorware_1_01_00_18/sw/modules/fem/src/32b/fem.h",line 89,column 3,is_
    2172 0000002a 3AA9          MOVL      ACC,XAR0              ; [CPU_] |89| 
    2173                      .dwpsn  file "C:/ti/motorware/motorware_1_01_00_18/sw/modules/fem/src/32b/fem.h",line 351,column 7,is
    2174 0000002b 0FA2          CMPL      ACC,XAR2              ; [CPU_] |351| 
    2175 0000002c 6703          B         $C$L4,HIS             ; [CPU_] |351| 
    2176                      ; branchcc occurs ; [] |351| 
    2177 0000002d 06A6          MOVL      ACC,XAR6              ; [CPU_] |351| 
    2178 0000002e 07A0          ADDL      ACC,XAR0              ; [CPU_] |351| 
    2179 0000002f       $C$L4:    
    2180 0000002f 03A2          SUBL      ACC,XAR2              ; [CPU_] |351| 
    2181 00000030 0901          ADDB      ACC,#1                ; [CPU_] |351| 
    2182 00000031 1EA6          MOVL      XAR6,ACC              ; [CPU_] |351| 
    2183                      .dwpsn  file "C:/ti/motorware/motorware_1_01_00_18/sw/modules/fem/src/32b/fem.h",line 221,column 3,is
    2184 00000032 C2F4          MOVL      *+XAR4[6],XAR6        ; [CPU_] |221| 
    2185 00000033 A9A9          MOVL      ACC,P                 ; [CPU_] |221| 
    2186                      .dwpsn  file "C:/ti/motorware/motorware_1_01_00_18/sw/modules/fem/src/32b/fem.h",line 364,column 3,is
    2187 00000034 0FA6          CMPL      ACC,XAR6              ; [CPU_] |364| 
    2188 00000035 6703          B         $C$L5,HIS             ; [CPU_] |364| 
    2189                      ; branchcc occurs ; [] |364| 
    2190                      .dwpsn  file "C:/ti/motorware/motorware_1_01_00_18/sw/modules/fem/src/32b/fem.h",line 273,column 3,is
    2191 00000036 D00C          MOVB      XAR0,#12              ; [CPU_] |273| 
    2192 00000037 C294          MOVL      *+XAR4[AR0],XAR6      ; [CPU_] |273| 
    2193 00000038       $C$L5:    
    2194 00000038 ABA9          MOVL      ACC,XT                ; [CPU_] 
    2195                      .dwpsn  file "C:/ti/motorware/motorware_1_01_00_18/sw/modules/fem/src/32b/fem.h",line 372,column 3,is
    2196 00000039 0FA6          CMPL      ACC,XAR6              ; [CPU_] |372| 
    2197 0000003a 6607          B         $C$L6,HI              ; [CPU_] |372| 
    2198                      ; branchcc occurs ; [] |372| 
    2199 0000003b 06A7          MOVL      ACC,XAR7              ; [CPU_] 
    2200 0000003c 0FA6          CMPL      ACC,XAR6              ; [CPU_] |372| 
    2201 0000003d 6804          B         $C$L6,LO              ; [CPU_] |372| 
    2202                      ; branchcc occurs ; [] |372| 
    2203                      .dwpsn  file "C:/ti/motorware/motorware_1_01_00_18/sw/modules/fem/src/32b/fem.h",line 247,column 3,is
    2204 0000003e D010          MOVB      XAR0,#16              ; [CPU_] |247| 
    2205 0000003f 2B94          MOV       *+XAR4[AR0],#0        ; [CPU_] |247| 
    2206                      .dwpsn  file "C:/ti/motorware/motorware_1_01_00_18/sw/modules/fem/src/32b/fem.h",line 249,column 3,is
    2207 00000040 6F08          B         $C$L7,UNC             ; [CPU_] |249| 
    2208                      ; branch occurs ; [] |249| 
    2209 00000041       $C$L6:    
TMS320C2000 Assembler PC v6.2.5 Thu Jun 22 20:41:15 2017

Tools Copyright (c) 1996-2014 Texas Instruments Incorporated
C:\Users\wmj\AppData\Local\Temp\1712410                              PAGE   44

    2210                      .dwpsn  file "C:/ti/motorware/motorware_1_01_00_18/sw/modules/fem/src/32b/fem.h",line 247,column 3,is
    2211 00000041 D010          MOVB      XAR0,#16              ; [CPU_] |247| 
    2212 00000042 56BF          MOVB      *+XAR4[AR0],#1,UNC    ; [CPU_] |247| 
         00000043 0194 
    2213                      .dwpsn  file "C:/ti/motorware/motorware_1_01_00_18/sw/modules/fem/src/32b/fem.h",line 234,column 3,is
    2214 00000044 0201          MOVB      ACC,#1                ; [CPU_] |234| 
    2215 00000045 DC0E          ADDB      XAR4,#14              ; [CPU_] |234| 
    2216 00000046 5601          ADDL      *+XAR4[0],ACC         ; [CPU_] |234| 
         00000047 00C4 
    2217 00000048       $C$L7:    
    2218                      .dwpsn  file "C:/ti/motorware/motorware_1_01_00_18/sw/solutions/instaspin_foc/src/proj_lab07.c",line 
    2219 00000048 0A00-         INC       @_gLEDcnt             ; [CPU_] |519| 
    2220 00000049 1B00-         CMP       @_gLEDcnt,#3000       ; [CPU_] |519| 
         0000004a 0BB8 
    2221 0000004b 680A          B         $C$L8,LO              ; [CPU_] |519| 
    2222                      ; branchcc occurs ; [] |519| 
    2223                      .dwpsn  file "C:/ti/motorware/motorware_1_01_00_18/sw/modules/hal/boards/hvkit_rev1p1/f28x/f2802x/src
    2224 0000004c D008          MOVB      XAR0,#8               ; [CPU_] |759| 
    2225 0000004d 9A22          MOVB      AL,#34                ; [CPU_] |759| 
    2226 0000004e 8A95          MOVL      XAR4,*+XAR5[AR0]      ; [CPU_] |759| 
    2227              $C$DW$286       .dwtag  DW_TAG_TI_branch
    2228                      .dwattr $C$DW$286, DW_AT_low_pc(0x00)
    2229                      .dwattr $C$DW$286, DW_AT_name("_GPIO_toggle")
    2230                      .dwattr $C$DW$286, DW_AT_TI_call
    2231 0000004f 7640!         LCR       #_GPIO_toggle         ; [CPU_] |759| 
         00000050 0000 
    2232                      ; call occurs [#_GPIO_toggle] ; [] |759| 
    2233 00000051 761F-         MOVW      DP,#_gLEDcnt          ; [CPU_U] 
         00000052 0000 
    2234                      .dwpsn  file "C:/ti/motorware/motorware_1_01_00_18/sw/solutions/instaspin_foc/src/proj_lab07.c",line 
    2235 00000053 8310-         MOVL      XAR5,@_halHandle      ; [CPU_] |522| 
    2236 00000054 2B00-         MOV       @_gLEDcnt,#0          ; [CPU_] |522| 
    2237 00000055       $C$L8:    
    2238                      .dwpsn  file "C:/ti/motorware/motorware_1_01_00_18/sw/drivers/adc/src/32b/f28x/f2802x/adc.h",line 571
    2239 00000055 8AC5          MOVL      XAR4,*+XAR5[0]        ; [CPU_] |571| 
    2240 00000056 8D00          MOVL      XAR0,#26117           ; [CPU_] |571| 
         00000057 6605 
    2241 00000058 56BF          MOVB      *+XAR4[AR0],#1,UNC    ; [CPU_] |571| 
         00000059 0194 
    2242                      .dwpsn  file "C:/ti/motorware/motorware_1_01_00_18/sw/drivers/pie/src/32b/f28x/f2802x/pie.h",line 757
    2243 0000005a D078          MOVB      XAR0,#120             ; [CPU_] |757| 
    2244 0000005b 8A95          MOVL      XAR4,*+XAR5[AR0]      ; [CPU_] |757| 
    2245 0000005c 28CC          MOV       *+XAR4[1],#512        ; [CPU_] |757| 
         0000005d 0200 
    2246                      .dwpsn  file "C:/ti/motorware/motorware_1_01_00_18/sw/drivers/adc/src/32b/f28x/f2802x/adc.h",line 684
    2247 0000005e 8BC5          MOVL      XAR1,*+XAR5[0]        ; [CPU_] |684| 
    2248                      .dwpsn  file "C:/ti/motorware/motorware_1_01_00_18/sw/modules/hal/boards/hvkit_rev1p1/f28x/f2802x/src
    2249 0000005f D0A2          MOVB      XAR0,#162             ; [CPU_] |500| 
    2250 00000060 C595          MOVL      XAR7,*+XAR5[AR0]      ; [CPU_] |500| 
    2251                      .dwpsn  file "C:/ti/motorware/motorware_1_01_00_18/sw/drivers/adc/src/32b/f28x/f2802x/adc.h",line 684
    2252 00000061 0EC9          MOVU      ACC,*+XAR1[1]         ; [CPU_] |684| 
    2253                      .dwpsn  file "C:/ti/motorware/motorware_1_01_00_18/sw/modules/hal/boards/hvkit_rev1p1/f28x/f2802x/src
    2254 00000062 8F00-         MOVL      XAR4,#_gAdcData       ; [CPU_U] |501| 
         00000063 0026 
    2255                      .dwpsn  file "C:/ti/motorware/motorware_1_01_00_18/sw/drivers/adc/src/32b/f28x/f2802x/adc.h",line 684
TMS320C2000 Assembler PC v6.2.5 Thu Jun 22 20:41:15 2017

Tools Copyright (c) 1996-2014 Texas Instruments Incorporated
C:\Users\wmj\AppData\Local\Temp\1712410                              PAGE   45

    2256 00000064 1EAC          MOVL      XT,ACC                ; [CPU_] |684| 
    2257                      .dwpsn  file "C:/ti/motorware/motorware_1_01_00_18/sw/modules/hal/boards/hvkit_rev1p1/f28x/f2802x/src
    2258 00000065 0294          MOVB      ACC,#148              ; [CPU_] |500| 
    2259 00000066 07A5          ADDL      ACC,XAR5              ; [CPU_] |500| 
    2260 00000067 5605          IMPYL     P,XT,XAR7             ; [CPU_] |500| 
         00000068 00A7 
    2261 00000069 1EA6          MOVL      XAR6,ACC              ; [CPU_] |500| 
    2262 0000006a 5663          QMPYL     ACC,XT,XAR7           ; [CPU_] |500| 
         0000006b 00A7 
    2263 0000006c 568B          ASR64     ACC:P,#12             ; [CPU_] |500| 
    2264 0000006d A9A9          MOVL      ACC,P                 ; [CPU_] |500| 
    2265 0000006e 03C6          SUBL      ACC,*+XAR6[0]         ; [CPU_] |500| 
    2266                      .dwpsn  file "C:/ti/motorware/motorware_1_01_00_18/sw/modules/hal/boards/hvkit_rev1p1/f28x/f2802x/src
    2267 0000006f 1EC4          MOVL      *+XAR4[0],ACC         ; [CPU_] |501| 
    2268                      .dwpsn  file "C:/ti/motorware/motorware_1_01_00_18/sw/drivers/adc/src/32b/f28x/f2802x/adc.h",line 684
    2269 00000070 0ED1          MOVU      ACC,*+XAR1[2]         ; [CPU_] |684| 
    2270 00000071 1EAC          MOVL      XT,ACC                ; [CPU_] |684| 
    2271                      .dwpsn  file "C:/ti/motorware/motorware_1_01_00_18/sw/modules/hal/boards/hvkit_rev1p1/f28x/f2802x/src
    2272 00000072 5605          IMPYL     P,XT,XAR7             ; [CPU_] |505| 
         00000073 00A7 
    2273 00000074 5663          QMPYL     ACC,XT,XAR7           ; [CPU_] |505| 
         00000075 00A7 
    2274 00000076 568B          ASR64     ACC:P,#12             ; [CPU_] |505| 
    2275 00000077 A9A9          MOVL      ACC,P                 ; [CPU_] |505| 
    2276 00000078 03D6          SUBL      ACC,*+XAR6[2]         ; [CPU_] |505| 
    2277                      .dwpsn  file "C:/ti/motorware/motorware_1_01_00_18/sw/modules/hal/boards/hvkit_rev1p1/f28x/f2802x/src
    2278 00000079 1ED4          MOVL      *+XAR4[2],ACC         ; [CPU_] |506| 
    2279                      .dwpsn  file "C:/ti/motorware/motorware_1_01_00_18/sw/drivers/adc/src/32b/f28x/f2802x/adc.h",line 684
    2280 0000007a 0ED9          MOVU      ACC,*+XAR1[3]         ; [CPU_] |684| 
    2281 0000007b 1EAC          MOVL      XT,ACC                ; [CPU_] |684| 
    2282                      .dwpsn  file "C:/ti/motorware/motorware_1_01_00_18/sw/modules/hal/boards/hvkit_rev1p1/f28x/f2802x/src
    2283 0000007c 5605          IMPYL     P,XT,XAR7             ; [CPU_] |510| 
         0000007d 00A7 
    2284 0000007e 5663          QMPYL     ACC,XT,XAR7           ; [CPU_] |510| 
         0000007f 00A7 
    2285 00000080 568B          ASR64     ACC:P,#12             ; [CPU_] |510| 
    2286                      .dwpsn  file "C:/ti/motorware/motorware_1_01_00_18/sw/modules/hal/boards/hvkit_rev1p1/f28x/f2802x/src
    2287 00000081 C5A4          MOVL      XAR7,XAR4             ; [CPU_] |516| 
    2288                      .dwpsn  file "C:/ti/motorware/motorware_1_01_00_18/sw/modules/hal/boards/hvkit_rev1p1/f28x/f2802x/src
    2289 00000082 A9A9          MOVL      ACC,P                 ; [CPU_] |510| 
    2290                      .dwpsn  file "C:/ti/motorware/motorware_1_01_00_18/sw/modules/hal/boards/hvkit_rev1p1/f28x/f2802x/src
    2291 00000083 D0A4          MOVB      XAR0,#164             ; [CPU_] |515| 
    2292                      .dwpsn  file "C:/ti/motorware/motorware_1_01_00_18/sw/modules/hal/boards/hvkit_rev1p1/f28x/f2802x/src
    2293 00000084 03E6          SUBL      ACC,*+XAR6[4]         ; [CPU_] |510| 
    2294                      .dwpsn  file "C:/ti/motorware/motorware_1_01_00_18/sw/modules/hal/boards/hvkit_rev1p1/f28x/f2802x/src
    2295 00000085 DF06          ADDB      XAR7,#6               ; [CPU_] |516| 
    2296                      .dwpsn  file "C:/ti/motorware/motorware_1_01_00_18/sw/modules/hal/boards/hvkit_rev1p1/f28x/f2802x/src
    2297 00000086 1EE4          MOVL      *+XAR4[4],ACC         ; [CPU_] |511| 
    2298                      .dwpsn  file "C:/ti/motorware/motorware_1_01_00_18/sw/modules/hal/boards/hvkit_rev1p1/f28x/f2802x/src
    2299 00000087 8E95          MOVL      XAR0,*+XAR5[AR0]      ; [CPU_] |515| 
    2300                      .dwpsn  file "C:/ti/motorware/motorware_1_01_00_18/sw/drivers/adc/src/32b/f28x/f2802x/adc.h",line 684
    2301 00000088 0EE1          MOVU      ACC,*+XAR1[4]         ; [CPU_] |684| 
    2302 00000089 1EAC          MOVL      XT,ACC                ; [CPU_] |684| 
    2303                      .dwpsn  file "C:/ti/motorware/motorware_1_01_00_18/sw/modules/hal/boards/hvkit_rev1p1/f28x/f2802x/src
    2304 0000008a 029A          MOVB      ACC,#154              ; [CPU_] |515| 
TMS320C2000 Assembler PC v6.2.5 Thu Jun 22 20:41:15 2017

Tools Copyright (c) 1996-2014 Texas Instruments Incorporated
C:\Users\wmj\AppData\Local\Temp\1712410                              PAGE   46

    2305 0000008b 07A5          ADDL      ACC,XAR5              ; [CPU_] |515| 
    2306 0000008c 5605          IMPYL     P,XT,XAR0             ; [CPU_] |515| 
         0000008d 00A0 
    2307 0000008e 1EA6          MOVL      XAR6,ACC              ; [CPU_] |515| 
    2308 0000008f 5663          QMPYL     ACC,XT,XAR0           ; [CPU_] |515| 
         00000090 00A0 
    2309 00000091 568B          ASR64     ACC:P,#12             ; [CPU_] |515| 
    2310 00000092 A9A9          MOVL      ACC,P                 ; [CPU_] |515| 
    2311 00000093 03C6          SUBL      ACC,*+XAR6[0]         ; [CPU_] |515| 
    2312                      .dwpsn  file "C:/ti/motorware/motorware_1_01_00_18/sw/modules/hal/boards/hvkit_rev1p1/f28x/f2802x/src
    2313 00000094 1EC7          MOVL      *+XAR7[0],ACC         ; [CPU_] |516| 
    2314                      .dwpsn  file "C:/ti/motorware/motorware_1_01_00_18/sw/drivers/adc/src/32b/f28x/f2802x/adc.h",line 684
    2315 00000095 0EE9          MOVU      ACC,*+XAR1[5]         ; [CPU_] |684| 
    2316 00000096 1EAC          MOVL      XT,ACC                ; [CPU_] |684| 
    2317                      .dwpsn  file "C:/ti/motorware/motorware_1_01_00_18/sw/modules/hal/boards/hvkit_rev1p1/f28x/f2802x/src
    2318 00000097 5605          IMPYL     P,XT,XAR0             ; [CPU_] |520| 
         00000098 00A0 
    2319 00000099 5663          QMPYL     ACC,XT,XAR0           ; [CPU_] |520| 
         0000009a 00A0 
    2320 0000009b 568B          ASR64     ACC:P,#12             ; [CPU_] |520| 
    2321 0000009c A9A9          MOVL      ACC,P                 ; [CPU_] |520| 
    2322 0000009d 03D6          SUBL      ACC,*+XAR6[2]         ; [CPU_] |520| 
    2323                      .dwpsn  file "C:/ti/motorware/motorware_1_01_00_18/sw/modules/hal/boards/hvkit_rev1p1/f28x/f2802x/src
    2324 0000009e 1ED7          MOVL      *+XAR7[2],ACC         ; [CPU_] |521| 
    2325                      .dwpsn  file "C:/ti/motorware/motorware_1_01_00_18/sw/drivers/adc/src/32b/f28x/f2802x/adc.h",line 684
    2326 0000009f 0EF1          MOVU      ACC,*+XAR1[6]         ; [CPU_] |684| 
    2327 000000a0 1EAC          MOVL      XT,ACC                ; [CPU_] |684| 
    2328                      .dwpsn  file "C:/ti/motorware/motorware_1_01_00_18/sw/modules/hal/boards/hvkit_rev1p1/f28x/f2802x/src
    2329 000000a1 5605          IMPYL     P,XT,XAR0             ; [CPU_] |525| 
         000000a2 00A0 
    2330 000000a3 5663          QMPYL     ACC,XT,XAR0           ; [CPU_] |525| 
         000000a4 00A0 
    2331 000000a5 568B          ASR64     ACC:P,#12             ; [CPU_] |525| 
    2332 000000a6 A9A9          MOVL      ACC,P                 ; [CPU_] |525| 
    2333 000000a7 03E6          SUBL      ACC,*+XAR6[4]         ; [CPU_] |525| 
    2334                      .dwpsn  file "C:/ti/motorware/motorware_1_01_00_18/sw/modules/hal/boards/hvkit_rev1p1/f28x/f2802x/src
    2335 000000a8 1EE7          MOVL      *+XAR7[4],ACC         ; [CPU_] |526| 
    2336                      .dwpsn  file "C:/ti/motorware/motorware_1_01_00_18/sw/drivers/adc/src/32b/f28x/f2802x/adc.h",line 684
    2337 000000a9 0EF9          MOVU      ACC,*+XAR1[7]         ; [CPU_] |684| 
    2338 000000aa 1EAC          MOVL      XT,ACC                ; [CPU_] |684| 
    2339                      .dwpsn  file "C:/ti/motorware/motorware_1_01_00_18/sw/modules/hal/boards/hvkit_rev1p1/f28x/f2802x/src
    2340 000000ab 5605          IMPYL     P,XT,XAR0             ; [CPU_] |530| 
         000000ac 00A0 
    2341 000000ad 5663          QMPYL     ACC,XT,XAR0           ; [CPU_] |530| 
         000000ae 00A0 
    2342                      .dwpsn  file "C:/ti/motorware/motorware_1_01_00_18/sw/modules/hal/boards/hvkit_rev1p1/f28x/f2802x/src
    2343 000000af D00C          MOVB      XAR0,#12              ; [CPU_] |531| 
    2344                      .dwpsn  file "C:/ti/motorware/motorware_1_01_00_18/sw/modules/hal/boards/hvkit_rev1p1/f28x/f2802x/src
    2345 000000b0 568B          ASR64     ACC:P,#12             ; [CPU_] |530| 
    2346                      .dwpsn  file "C:/ti/motorware/motorware_1_01_00_18/sw/modules/hal/boards/hvkit_rev1p1/f28x/f2802x/src
    2347 000000b1 A994          MOVL      *+XAR4[AR0],P         ; [CPU_] |531| 
    2348                      .dwpsn  file "C:/ti/motorware/motorware_1_01_00_18/sw/solutions/instaspin_foc/src/proj_lab07.c",line 
    2349 000000b2 A842          MOVL      *-SP[2],XAR4          ; [CPU_] |535| 
    2350 000000b3 8F00-         MOVL      XAR4,#_gPwmData       ; [CPU_U] |535| 
         000000b4 0020 
TMS320C2000 Assembler PC v6.2.5 Thu Jun 22 20:41:15 2017

Tools Copyright (c) 1996-2014 Texas Instruments Incorporated
C:\Users\wmj\AppData\Local\Temp\1712410                              PAGE   47

    2351 000000b5 A844          MOVL      *-SP[4],XAR4          ; [CPU_] |535| 
    2352 000000b6 8A1A-         MOVL      XAR4,@_ctrlHandle     ; [CPU_] |535| 
    2353              $C$DW$287       .dwtag  DW_TAG_TI_branch
    2354                      .dwattr $C$DW$287, DW_AT_low_pc(0x00)
    2355                      .dwattr $C$DW$287, DW_AT_name("_CTRL_run")
    2356                      .dwattr $C$DW$287, DW_AT_TI_call
    2357 000000b7 7640!         LCR       #_CTRL_run            ; [CPU_] |535| 
         000000b8 0000 
    2358                      ; call occurs [#_CTRL_run] ; [] |535| 
    2359 000000b9 761F-         MOVW      DP,#_halHandle        ; [CPU_U] 
         000000ba 0000 
    2360 000000bb BE02          MOVB      XAR6,#2               ; [CPU_] 
    2361 000000bc 3B01          SETC      SXM                   ; [CPU_] 
    2362 000000bd 76C0-         MOVL      XAR7,#_gPwmData       ; [CPU_U] 
         000000be 0020 
    2363 000000bf 0610-         MOVL      ACC,@_halHandle       ; [CPU_] 
    2364 000000c0 097C          ADDB      ACC,#124              ; [CPU_] 
    2365 000000c1 8AA9          MOVL      XAR4,ACC              ; [CPU_] 
    2366 000000c2       $C$L9:    
    2367                      .dwpsn  file "C:/ti/motorware/motorware_1_01_00_18/sw/modules/hal/boards/hvkit_rev1p1/f28x/f2802x/src
    2368 000000c2 83C4          MOVL      XAR5,*+XAR4[0]        ; [CPU_] |1052| 
    2369                      .dwpsn  file "C:/ti/motorware/motorware_1_01_00_18/sw/drivers/pwm/src/32b/f28x/f2802x/pwm.h",line 171
    2370 000000c3 FF2F          MOV       ACC,#-512 << 15       ; [CPU_] |1717| 
         000000c4 FE00 
    2371 000000c5 8787          MOVL      XT,*XAR7++            ; [CPU_] |1717| 
    2372 000000c6 5605          IMPYL     P,XT,ACC              ; [CPU_] |1717| 
         000000c7 00A9 
    2373                      .dwpsn  file "C:/ti/motorware/motorware_1_01_00_18/sw/modules/hal/boards/hvkit_rev1p1/f28x/f2802x/src
    2374 000000c8 58ED          MOVZ      AR0,*+XAR5[5]         ; [CPU_] |1052| 
    2375                      .dwpsn  file "C:/ti/motorware/motorware_1_01_00_18/sw/drivers/pwm/src/32b/f28x/f2802x/pwm.h",line 171
    2376 000000c9 5663          QMPYL     ACC,XT,ACC            ; [CPU_] |1717| 
         000000ca 00A9 
    2377                      .dwpsn  file "C:/ti/motorware/motorware_1_01_00_18/sw/modules/hal/boards/hvkit_rev1p1/f28x/f2802x/src
    2378 000000cb DC02          ADDB      XAR4,#2               ; [CPU_] |1049| 
    2379                      .dwpsn  file "C:/ti/motorware/motorware_1_01_00_18/sw/drivers/pwm/src/32b/f28x/f2802x/pwm.h",line 171
    2380 000000cc 56A7          LSL64     ACC:P,#8              ; [CPU_] |1717| 
    2381 000000cd 2BAB          MOV       PL,#0                 ; [CPU_] |1717| 
    2382 000000ce 28AA          MOV       PH,#128               ; [CPU_] |1717| 
         000000cf 0080 
    2383 000000d0 A9A2          MOVL      XAR2,P                ; [CPU_] |1717| 
    2384 000000d1 2BAB          MOV       PL,#0                 ; [CPU_] |1717| 
    2385 000000d2 28AA          MOV       PH,#65408             ; [CPU_] |1717| 
         000000d3 FF80 
    2386 000000d4 5650          MINL      ACC,XAR2              ; [CPU_] |1717| 
         000000d5 00A2 
    2387 000000d6 5661          MAXL      ACC,P                 ; [CPU_] |1717| 
         000000d7 00AB 
    2388 000000d8 FF1F          ADD       ACC,#256 << 15        ; [CPU_] |1717| 
         000000d9 0100 
    2389 000000da 1EAC          MOVL      XT,ACC                ; [CPU_] |1717| 
    2390 000000db 5605          IMPYL     P,XT,XAR0             ; [CPU_] |1717| 
         000000dc 00A0 
    2391 000000dd 5663          QMPYL     ACC,XT,XAR0           ; [CPU_] |1717| 
         000000de 00A0 
    2392 000000df 56A7          LSL64     ACC:P,#8              ; [CPU_] |1717| 
TMS320C2000 Assembler PC v6.2.5 Thu Jun 22 20:41:15 2017

Tools Copyright (c) 1996-2014 Texas Instruments Incorporated
C:\Users\wmj\AppData\Local\Temp\1712410                              PAGE   48

    2393 000000e0 3100          MOV       P,#0                  ; [CPU_] |1717| 
    2394 000000e1 5650          MINL      ACC,XAR0              ; [CPU_] |1717| 
         000000e2 00A0 
    2395 000000e3 D009          MOVB      XAR0,#9               ; [CPU_] |1717| 
    2396 000000e4 5661          MAXL      ACC,P                 ; [CPU_] |1717| 
         000000e5 00AB 
    2397 000000e6 9695          MOV       *+XAR5[AR0],AL        ; [CPU_] |1717| 
    2398                      .dwpsn  file "C:/ti/motorware/motorware_1_01_00_18/sw/modules/hal/boards/hvkit_rev1p1/f28x/f2802x/src
    2399 000000e7 000E          BANZ      $C$L9,AR6--           ; [CPU_] |1049| 
         000000e8 FFDB 
    2400                      ; branchcc occurs ; [] |1049| 
    2401 000000e9 761F-         MOVW      DP,#_ctrlHandle       ; [CPU_U] 
         000000ea 0000 
    2402                      .dwpsn  file "C:/ti/motorware/motorware_1_01_00_18/sw/solutions/instaspin_foc/src/proj_lab07.c",line 
    2403 000000eb 8A1A-         MOVL      XAR4,@_ctrlHandle     ; [CPU_] |543| 
    2404              $C$DW$288       .dwtag  DW_TAG_TI_branch
    2405                      .dwattr $C$DW$288, DW_AT_low_pc(0x00)
    2406                      .dwattr $C$DW$288, DW_AT_name("_CTRL_setup")
    2407                      .dwattr $C$DW$288, DW_AT_TI_call
    2408 000000ec 7640!         LCR       #_CTRL_setup          ; [CPU_] |543| 
         000000ed 0000 
    2409                      ; call occurs [#_CTRL_setup] ; [] |543| 
    2410 000000ee 761F-         MOVW      DP,#_halHandle        ; [CPU_U] 
         000000ef 0000 
    2411                      .dwpsn  file "C:/ti/motorware/motorware_1_01_00_18/sw/modules/hal/boards/hvkit_rev1p1/f28x/f2802x/src
    2412 000000f0 8A10-         MOVL      XAR4,@_halHandle      ; [CPU_] |600| 
    2413 000000f1 D08C          MOVB      XAR0,#140             ; [CPU_] |600| 
    2414 000000f2 8A94          MOVL      XAR4,*+XAR4[AR0]      ; [CPU_] |600| 
    2415              $C$DW$289       .dwtag  DW_TAG_TI_branch
    2416                      .dwattr $C$DW$289, DW_AT_low_pc(0x00)
    2417                      .dwattr $C$DW$289, DW_AT_name("_TIMER_getCount")
    2418                      .dwattr $C$DW$289, DW_AT_TI_call
    2419 000000f3 7640'         LCR       #_TIMER_getCount      ; [CPU_] |600| 
         000000f4 015C 
    2420                      ; call occurs [#_TIMER_getCount] ; [] |600| 
    2421                      .dwpsn  file "C:/ti/motorware/motorware_1_01_00_18/sw/solutions/instaspin_foc/src/proj_lab07.c",line 
    2422 000000f5 8A1E-         MOVL      XAR4,@_cpu_usageHandle ; [CPU_] |548| 
    2423                      .dwpsn  file "C:/ti/motorware/motorware_1_01_00_18/sw/modules/cpu_usage/src/32b/cpu_usage.h",line 233
    2424 000000f6 C4D4          MOVL      XAR6,*+XAR4[2]        ; [CPU_] |233| 
    2425                      .dwpsn  file "C:/ti/motorware/motorware_1_01_00_18/sw/modules/cpu_usage/src/32b/cpu_usage.h",line 156
    2426 000000f7 D00E          MOVB      XAR0,#14              ; [CPU_] |156| 
    2427                      .dwpsn  file "C:/ti/motorware/motorware_1_01_00_18/sw/modules/cpu_usage/src/32b/cpu_usage.h",line 233
    2428 000000f8 C2E4          MOVL      *+XAR4[4],XAR6        ; [CPU_] |233| 
    2429                      .dwpsn  file "C:/ti/motorware/motorware_1_01_00_18/sw/modules/cpu_usage/src/32b/cpu_usage.h",line 220
    2430 000000f9 1ED4          MOVL      *+XAR4[2],ACC         ; [CPU_] |220| 
    2431                      .dwpsn  file "C:/ti/motorware/motorware_1_01_00_18/sw/modules/cpu_usage/src/32b/cpu_usage.h",line 156
    2432 000000fa C594          MOVL      XAR7,*+XAR4[AR0]      ; [CPU_] |156| 
    2433                      .dwpsn  file "C:/ti/motorware/motorware_1_01_00_18/sw/modules/cpu_usage/src/32b/cpu_usage.h",line 79,
    2434 000000fb 82C4          MOVL      XAR3,*+XAR4[0]        ; [CPU_] |79| 
    2435                      .dwpsn  file "C:/ti/motorware/motorware_1_01_00_18/sw/modules/cpu_usage/src/32b/cpu_usage.h",line 167
    2436 000000fc D010          MOVB      XAR0,#16              ; [CPU_] |167| 
    2437 000000fd 8794          MOVL      XT,*+XAR4[AR0]        ; [CPU_] |167| 
    2438                      .dwpsn  file "C:/ti/motorware/motorware_1_01_00_18/sw/modules/cpu_usage/src/32b/cpu_usage.h",line 178
    2439 000000fe D012          MOVB      XAR0,#18              ; [CPU_] |178| 
    2440 000000ff 8694          MOVL      XAR2,*+XAR4[AR0]      ; [CPU_] |178| 
TMS320C2000 Assembler PC v6.2.5 Thu Jun 22 20:41:15 2017

Tools Copyright (c) 1996-2014 Texas Instruments Incorporated
C:\Users\wmj\AppData\Local\Temp\1712410                              PAGE   49

    2441                      .dwpsn  file "C:/ti/motorware/motorware_1_01_00_18/sw/modules/cpu_usage/src/32b/cpu_usage.h",line 123
    2442 00000100 D008          MOVB      XAR0,#8               ; [CPU_] |123| 
    2443 00000101 A394          MOVL      P,*+XAR4[AR0]         ; [CPU_] |123| 
    2444                      .dwpsn  file "C:/ti/motorware/motorware_1_01_00_18/sw/modules/cpu_usage/src/32b/cpu_usage.h",line 134
    2445 00000102 D00A          MOVB      XAR0,#10              ; [CPU_] |134| 
    2446 00000103 8394          MOVL      XAR5,*+XAR4[AR0]      ; [CPU_] |134| 
    2447                      .dwpsn  file "C:/ti/motorware/motorware_1_01_00_18/sw/modules/cpu_usage/src/32b/cpu_usage.h",line 145
    2448 00000104 D00C          MOVB      XAR0,#12              ; [CPU_] |145| 
    2449 00000105 0694          MOVL      ACC,*+XAR4[AR0]       ; [CPU_] |145| 
    2450 00000106 1E48          MOVL      *-SP[8],ACC           ; [CPU_] |145| 
    2451                      .dwpsn  file "C:/ti/motorware/motorware_1_01_00_18/sw/modules/cpu_usage/src/32b/cpu_usage.h",line 90,
    2452 00000107 8BD4          MOVL      XAR1,*+XAR4[2]        ; [CPU_] |90| 
    2453                      .dwpsn  file "C:/ti/motorware/motorware_1_01_00_18/sw/modules/cpu_usage/src/32b/cpu_usage.h",line 189
    2454 00000108 D014          MOVB      XAR0,#20              ; [CPU_] |189| 
    2455                      .dwpsn  file "C:/ti/motorware/motorware_1_01_00_18/sw/modules/cpu_usage/src/32b/cpu_usage.h",line 101
    2456 00000109 06E4          MOVL      ACC,*+XAR4[4]         ; [CPU_] |101| 
    2457 0000010a 1E46          MOVL      *-SP[6],ACC           ; [CPU_] |101| 
    2458                      .dwpsn  file "C:/ti/motorware/motorware_1_01_00_18/sw/modules/cpu_usage/src/32b/cpu_usage.h",line 376
    2459 0000010b 0FA1          CMPL      ACC,XAR1              ; [CPU_] |376| 
    2460                      .dwpsn  file "C:/ti/motorware/motorware_1_01_00_18/sw/modules/cpu_usage/src/32b/cpu_usage.h",line 189
    2461 0000010c 8894          MOVZ      AR6,*+XAR4[AR0]       ; [CPU_] |189| 
    2462                      .dwpsn  file "C:/ti/motorware/motorware_1_01_00_18/sw/modules/cpu_usage/src/32b/cpu_usage.h",line 376
    2463 0000010d 6705          B         $C$L10,HIS            ; [CPU_] |376| 
    2464                      ; branchcc occurs ; [] |376| 
    2465 0000010e 8E46          MOVL      XAR0,*-SP[6]          ; [CPU_] |376| 
    2466 0000010f A2A9          MOVL      ACC,XAR3              ; [CPU_] |376| 
    2467 00000110 07A0          ADDL      ACC,XAR0              ; [CPU_] |376| 
    2468 00000111 6F02          B         $C$L11,UNC            ; [CPU_] |376| 
    2469                      ; branch occurs ; [] |376| 
    2470 00000112       $C$L10:    
    2471 00000112 0646          MOVL      ACC,*-SP[6]           ; [CPU_] 
    2472 00000113       $C$L11:    
    2473 00000113 03A1          SUBL      ACC,XAR1              ; [CPU_] |376| 
    2474                      .dwpsn  file "C:/ti/motorware/motorware_1_01_00_18/sw/modules/cpu_usage/src/32b/cpu_usage.h",line 390
    2475 00000114 DD01          ADDB      XAR5,#1               ; [CPU_] |390| 
    2476                      .dwpsn  file "C:/ti/motorware/motorware_1_01_00_18/sw/modules/cpu_usage/src/32b/cpu_usage.h",line 376
    2477 00000115 0901          ADDB      ACC,#1                ; [CPU_] |376| 
    2478 00000116 8EA9          MOVL      XAR0,ACC              ; [CPU_] |376| 
    2479                      .dwpsn  file "C:/ti/motorware/motorware_1_01_00_18/sw/modules/cpu_usage/src/32b/cpu_usage.h",line 384
    2480 00000117 5657          ADDUL     P,XAR0                ; [CPU_] |384| 
         00000118 00A0 
    2481                      .dwpsn  file "C:/ti/motorware/motorware_1_01_00_18/sw/modules/cpu_usage/src/32b/cpu_usage.h",line 390
    2482 00000119 0648          MOVL      ACC,*-SP[8]           ; [CPU_] |390| 
    2483 0000011a 0FA5          CMPL      ACC,XAR5              ; [CPU_] |390| 
    2484 0000011b 6608          B         $C$L12,HI             ; [CPU_] |390| 
    2485                      ; branchcc occurs ; [] |390| 
    2486                      .dwpsn  file "C:/ti/motorware/motorware_1_01_00_18/sw/modules/cpu_usage/src/32b/cpu_usage.h",line 393
    2487 0000011c 0200          MOVB      ACC,#0                ; [CPU_] |393| 
    2488 0000011d F61F          RPT       #31
    2489 0000011e 5617  ||     SUBCUL    ACC,XAR5              ; [CPU_] |393| 
         0000011f 00A5 
    2490                      .dwpsn  file "C:/ti/motorware/motorware_1_01_00_18/sw/modules/cpu_usage/src/32b/cpu_usage.h",line 397
    2491 00000120 D500          MOVB      XAR5,#0               ; [CPU_] |397| 
    2492                      .dwpsn  file "C:/ti/motorware/motorware_1_01_00_18/sw/modules/cpu_usage/src/32b/cpu_usage.h",line 393
    2493 00000121 A9AC          MOVL      XT,P                  ; [CPU_] |393| 
TMS320C2000 Assembler PC v6.2.5 Thu Jun 22 20:41:15 2017

Tools Copyright (c) 1996-2014 Texas Instruments Incorporated
C:\Users\wmj\AppData\Local\Temp\1712410                              PAGE   50

    2494                      .dwpsn  file "C:/ti/motorware/motorware_1_01_00_18/sw/modules/cpu_usage/src/32b/cpu_usage.h",line 396
    2495 00000122 3100          MOV       P,#0                  ; [CPU_] |396| 
    2496 00000123       $C$L12:    
    2497 00000123 06A7          MOVL      ACC,XAR7              ; [CPU_] 
    2498                      .dwpsn  file "C:/ti/motorware/motorware_1_01_00_18/sw/modules/cpu_usage/src/32b/cpu_usage.h",line 402
    2499 00000124 0FA0          CMPL      ACC,XAR0              ; [CPU_] |402| 
    2500 00000125 6902          B         $C$L13,LOS            ; [CPU_] |402| 
    2501                      ; branchcc occurs ; [] |402| 
    2502                      .dwpsn  file "C:/ti/motorware/motorware_1_01_00_18/sw/modules/cpu_usage/src/32b/cpu_usage.h",line 404
    2503 00000126 C5A0          MOVL      XAR7,XAR0             ; [CPU_] |404| 
    2504 00000127       $C$L13:    
    2505 00000127 AAA9          MOVL      ACC,XAR2              ; [CPU_] 
    2506                      .dwpsn  file "C:/ti/motorware/motorware_1_01_00_18/sw/modules/cpu_usage/src/32b/cpu_usage.h",line 408
    2507 00000128 0FA0          CMPL      ACC,XAR0              ; [CPU_] |408| 
    2508 00000129 6702          B         $C$L14,HIS            ; [CPU_] |408| 
    2509                      ; branchcc occurs ; [] |408| 
    2510                      .dwpsn  file "C:/ti/motorware/motorware_1_01_00_18/sw/modules/cpu_usage/src/32b/cpu_usage.h",line 410
    2511 0000012a 86A0          MOVL      XAR2,XAR0             ; [CPU_] |410| 
    2512 0000012b       $C$L14:    
    2513 0000012b 92A6          MOV       AL,AR6                ; [CPU_] 
    2514                      .dwpsn  file "C:/ti/motorware/motorware_1_01_00_18/sw/modules/cpu_usage/src/32b/cpu_usage.h",line 414
    2515 0000012c 5201          CMPB      AL,#1                 ; [CPU_] |414| 
    2516 0000012d ED09          BF        $C$L15,NEQ            ; [CPU_] |414| 
    2517                      ; branchcc occurs ; [] |414| 
    2518                      .dwpsn  file "C:/ti/motorware/motorware_1_01_00_18/sw/modules/cpu_usage/src/32b/cpu_usage.h",line 424
    2519 0000012e 0200          MOVB      ACC,#0                ; [CPU_] |424| 
    2520                      .dwpsn  file "C:/ti/motorware/motorware_1_01_00_18/sw/modules/cpu_usage/src/32b/cpu_usage.h",line 423
    2521 0000012f C5A3          MOVL      XAR7,XAR3             ; [CPU_] |423| 
    2522                      .dwpsn  file "C:/ti/motorware/motorware_1_01_00_18/sw/modules/cpu_usage/src/32b/cpu_usage.h",line 418
    2523 00000130 D000          MOVB      XAR0,#0               ; [CPU_] |418| 
    2524                      .dwpsn  file "C:/ti/motorware/motorware_1_01_00_18/sw/modules/cpu_usage/src/32b/cpu_usage.h",line 420
    2525 00000131 3100          MOV       P,#0                  ; [CPU_] |420| 
    2526                      .dwpsn  file "C:/ti/motorware/motorware_1_01_00_18/sw/modules/cpu_usage/src/32b/cpu_usage.h",line 421
    2527 00000132 D500          MOVB      XAR5,#0               ; [CPU_] |421| 
    2528                      .dwpsn  file "C:/ti/motorware/motorware_1_01_00_18/sw/modules/cpu_usage/src/32b/cpu_usage.h",line 425
    2529 00000133 D200          MOVB      XAR2,#0               ; [CPU_] |425| 
    2530                      .dwpsn  file "C:/ti/motorware/motorware_1_01_00_18/sw/modules/cpu_usage/src/32b/cpu_usage.h",line 427
    2531 00000134 BE00          MOVB      XAR6,#0               ; [CPU_] |427| 
    2532                      .dwpsn  file "C:/ti/motorware/motorware_1_01_00_18/sw/modules/cpu_usage/src/32b/cpu_usage.h",line 424
    2533 00000135 1EAC          MOVL      XT,ACC                ; [CPU_] |424| 
    2534 00000136       $C$L15:    
    2535                      .dwpsn  file "C:/ti/motorware/motorware_1_01_00_18/sw/modules/cpu_usage/src/32b/cpu_usage.h",line 246
    2536 00000136 3AF4          MOVL      *+XAR4[6],XAR0        ; [CPU_] |246| 
    2537                      .dwpsn  file "C:/ti/motorware/motorware_1_01_00_18/sw/modules/cpu_usage/src/32b/cpu_usage.h",line 259
    2538 00000137 D008          MOVB      XAR0,#8               ; [CPU_] |259| 
    2539 00000138 A994          MOVL      *+XAR4[AR0],P         ; [CPU_] |259| 
    2540                      .dwpsn  file "C:/ti/motorware/motorware_1_01_00_18/sw/modules/cpu_usage/src/32b/cpu_usage.h",line 272
    2541 00000139 D00A          MOVB      XAR0,#10              ; [CPU_] |272| 
    2542 0000013a A094          MOVL      *+XAR4[AR0],XAR5      ; [CPU_] |272| 
    2543                      .dwpsn  file "C:/ti/motorware/motorware_1_01_00_18/sw/modules/cpu_usage/src/32b/cpu_usage.h",line 298
    2544 0000013b D00E          MOVB      XAR0,#14              ; [CPU_] |298| 
    2545 0000013c C394          MOVL      *+XAR4[AR0],XAR7      ; [CPU_] |298| 
    2546                      .dwpsn  file "C:/ti/motorware/motorware_1_01_00_18/sw/modules/cpu_usage/src/32b/cpu_usage.h",line 311
    2547 0000013d D010          MOVB      XAR0,#16              ; [CPU_] |311| 
    2548 0000013e AB94          MOVL      *+XAR4[AR0],XT        ; [CPU_] |311| 
TMS320C2000 Assembler PC v6.2.5 Thu Jun 22 20:41:15 2017

Tools Copyright (c) 1996-2014 Texas Instruments Incorporated
C:\Users\wmj\AppData\Local\Temp\1712410                              PAGE   51

    2549                      .dwpsn  file "C:/ti/motorware/motorware_1_01_00_18/sw/modules/cpu_usage/src/32b/cpu_usage.h",line 324
    2550 0000013f D012          MOVB      XAR0,#18              ; [CPU_] |324| 
    2551 00000140 AA94          MOVL      *+XAR4[AR0],XAR2      ; [CPU_] |324| 
    2552                      .dwpsn  file "C:/ti/motorware/motorware_1_01_00_18/sw/modules/cpu_usage/src/32b/cpu_usage.h",line 337
    2553 00000141 D014          MOVB      XAR0,#20              ; [CPU_] |337| 
    2554 00000142 FE88          SUBB      SP,#8                 ; [CPU_U] 
    2555                      .dwcfi  cfa_offset, -18
    2556 00000143 7E94          MOV       *+XAR4[AR0],AR6       ; [CPU_] |337| 
    2557 00000144 C5BE          MOVL      XAR7,*--SP            ; [CPU_] 
    2558                      .dwcfi  cfa_offset, -16
    2559                      .dwcfi  restore_reg, 18
    2560 00000145 C4BE          MOVL      XAR6,*--SP            ; [CPU_] 
    2561                      .dwcfi  cfa_offset, -14
    2562                      .dwcfi  restore_reg, 16
    2563 00000146 83BE          MOVL      XAR5,*--SP            ; [CPU_] 
    2564                      .dwcfi  cfa_offset, -12
    2565                      .dwcfi  restore_reg, 14
    2566 00000147 8ABE          MOVL      XAR4,*--SP            ; [CPU_] 
    2567                      .dwcfi  cfa_offset, -10
    2568                      .dwcfi  restore_reg, 12
    2569 00000148 82BE          MOVL      XAR3,*--SP            ; [CPU_] 
    2570                      .dwcfi  cfa_offset, -8
    2571                      .dwcfi  restore_reg, 10
    2572 00000149 86BE          MOVL      XAR2,*--SP            ; [CPU_] 
    2573                      .dwcfi  cfa_offset, -6
    2574                      .dwcfi  restore_reg, 8
    2575 0000014a 87BE          MOVL      XT,*--SP              ; [CPU_] 
    2576                      .dwcfi  cfa_offset, -4
    2577                      .dwcfi  restore_reg, 22
    2578                      .dwcfi  restore_reg, 21
    2579 0000014b 0003          POP       AR1H:AR0H             ; [CPU_] 
    2580                      .dwcfi  cfa_offset, -2
    2581                      .dwcfi  restore_reg, 5
    2582                      .dwcfi  restore_reg, 7
    2583 0000014c 7617          NASP      ; [CPU_] 
    2584              $C$DW$290       .dwtag  DW_TAG_TI_branch
    2585                      .dwattr $C$DW$290, DW_AT_low_pc(0x00)
    2586                      .dwattr $C$DW$290, DW_AT_TI_return
    2587 0000014d 7602          IRET      ; [CPU_] 
    2588                      ; return occurs ; [] 
    2589                      .dwattr $C$DW$249, DW_AT_TI_end_file("C:/ti/motorware/motorware_1_01_00_18/sw/solutions/instaspin_foc
    2590                      .dwattr $C$DW$249, DW_AT_TI_end_line(0x22c)
    2591                      .dwattr $C$DW$249, DW_AT_TI_end_column(0x01)
    2592                      .dwendentry
    2593                      .dwendtag $C$DW$249
    2594              
    2595 00000161               .sect   ".text"
    2596                      .clink
    2597                      .global _main
    2598              
    2599              $C$DW$291       .dwtag  DW_TAG_subprogram, DW_AT_name("main")
    2600                      .dwattr $C$DW$291, DW_AT_low_pc(_main)
    2601                      .dwattr $C$DW$291, DW_AT_high_pc(0x00)
    2602                      .dwattr $C$DW$291, DW_AT_TI_symbol_name("_main")
    2603                      .dwattr $C$DW$291, DW_AT_external
TMS320C2000 Assembler PC v6.2.5 Thu Jun 22 20:41:15 2017

Tools Copyright (c) 1996-2014 Texas Instruments Incorporated
C:\Users\wmj\AppData\Local\Temp\1712410                              PAGE   52

    2604                      .dwattr $C$DW$291, DW_AT_TI_begin_file("C:/ti/motorware/motorware_1_01_00_18/sw/solutions/instaspin_f
    2605                      .dwattr $C$DW$291, DW_AT_TI_begin_line(0x92)
    2606                      .dwattr $C$DW$291, DW_AT_TI_begin_column(0x06)
    2607                      .dwattr $C$DW$291, DW_AT_TI_max_frame_size(-20)
    2608                      .dwpsn  file "C:/ti/motorware/motorware_1_01_00_18/sw/solutions/instaspin_foc/src/proj_lab07.c",line 
    2609              
    2610                      .dwfde $C$DW$CIE, _main
    2611              
    2612              ;***************************************************************
    2613              ;* FNAME: _main                         FR SIZE:  18           *
    2614              ;*                                                             *
    2615              ;* FUNCTION ENVIRONMENT                                        *
    2616              ;*                                                             *
    2617              ;* FUNCTION PROPERTIES                                         *
    2618              ;*                            6 Parameter,  5 Auto,  6 SOE     *
    2619              ;***************************************************************
    2620              
    2621              _main:
    2622              ;* AR4   assigned to $O$C18
    2623              ;* AR4   assigned to $O$C19
    2624              ;* AR5   assigned to $O$C20
    2625              ;* AR5   assigned to $O$C21
    2626              ;* AR7   assigned to $O$C22
    2627              ;* AR5   assigned to $O$C23
    2628              ;* AR6   assigned to $O$C24
    2629              ;* AR5   assigned to $O$C25
    2630              ;* AR7   assigned to $O$C26
    2631              ;* AR0   assigned to $O$C27
    2632              ;* AR7   assigned to $O$C28
    2633              ;* AR0   assigned to $O$C29
    2634              ;* AR5   assigned to $O$C30
    2635              ;* AR5   assigned to $O$C31
    2636              ;* AR5   assigned to $O$C32
    2637              ;* AR4   assigned to $O$C33
    2638              ;* AR2   assigned to $O$K12
    2639              ;* AR5   assigned to _timerHandle
    2640              $C$DW$292       .dwtag  DW_TAG_variable, DW_AT_name("timerHandle")
    2641                      .dwattr $C$DW$292, DW_AT_TI_symbol_name("_timerHandle")
    2642                      .dwattr $C$DW$292, DW_AT_type(*$C$DW$T$112)
    2643                      .dwattr $C$DW$292, DW_AT_location[DW_OP_reg14]
    2644              ;* AL    assigned to _period
    2645              $C$DW$293       .dwtag  DW_TAG_variable, DW_AT_name("period")
    2646                      .dwattr $C$DW$293, DW_AT_TI_symbol_name("_period")
    2647                      .dwattr $C$DW$293, DW_AT_type(*$C$DW$T$38)
    2648                      .dwattr $C$DW$293, DW_AT_location[DW_OP_reg0]
    2649              ;* AR5   assigned to _timerHandle
    2650              $C$DW$294       .dwtag  DW_TAG_variable, DW_AT_name("timerHandle")
    2651                      .dwattr $C$DW$294, DW_AT_TI_symbol_name("_timerHandle")
    2652                      .dwattr $C$DW$294, DW_AT_type(*$C$DW$T$112)
    2653                      .dwattr $C$DW$294, DW_AT_location[DW_OP_reg14]
    2654              ;* AL    assigned to _period
    2655              $C$DW$295       .dwtag  DW_TAG_variable, DW_AT_name("period")
    2656                      .dwattr $C$DW$295, DW_AT_TI_symbol_name("_period")
    2657                      .dwattr $C$DW$295, DW_AT_type(*$C$DW$T$38)
    2658                      .dwattr $C$DW$295, DW_AT_location[DW_OP_reg0]
TMS320C2000 Assembler PC v6.2.5 Thu Jun 22 20:41:15 2017

Tools Copyright (c) 1996-2014 Texas Instruments Incorporated
C:\Users\wmj\AppData\Local\Temp\1712410                              PAGE   53

    2659              ;* AR5   assigned to _timerHandle
    2660              $C$DW$296       .dwtag  DW_TAG_variable, DW_AT_name("timerHandle")
    2661                      .dwattr $C$DW$296, DW_AT_TI_symbol_name("_timerHandle")
    2662                      .dwattr $C$DW$296, DW_AT_type(*$C$DW$T$112)
    2663                      .dwattr $C$DW$296, DW_AT_location[DW_OP_reg14]
    2664              ;* AR5   assigned to _pwmHandle
    2665              $C$DW$297       .dwtag  DW_TAG_variable, DW_AT_name("pwmHandle")
    2666                      .dwattr $C$DW$297, DW_AT_TI_symbol_name("_pwmHandle")
    2667                      .dwattr $C$DW$297, DW_AT_type(*$C$DW$T$107)
    2668                      .dwattr $C$DW$297, DW_AT_location[DW_OP_reg14]
    2669              ;* AR5   assigned to _pwmHandle
    2670              $C$DW$298       .dwtag  DW_TAG_variable, DW_AT_name("pwmHandle")
    2671                      .dwattr $C$DW$298, DW_AT_TI_symbol_name("_pwmHandle")
    2672                      .dwattr $C$DW$298, DW_AT_type(*$C$DW$T$107)
    2673                      .dwattr $C$DW$298, DW_AT_location[DW_OP_reg14]
    2674              ;* AR4   assigned to _pwmHandle
    2675              $C$DW$299       .dwtag  DW_TAG_variable, DW_AT_name("pwmHandle")
    2676                      .dwattr $C$DW$299, DW_AT_TI_symbol_name("_pwmHandle")
    2677                      .dwattr $C$DW$299, DW_AT_type(*$C$DW$T$107)
    2678                      .dwattr $C$DW$299, DW_AT_location[DW_OP_reg12]
    2679              ;* AR4   assigned to _obj
    2680              $C$DW$300       .dwtag  DW_TAG_variable, DW_AT_name("obj")
    2681                      .dwattr $C$DW$300, DW_AT_TI_symbol_name("_obj")
    2682                      .dwattr $C$DW$300, DW_AT_type(*$C$DW$T$227)
    2683                      .dwattr $C$DW$300, DW_AT_location[DW_OP_reg12]
    2684              ;* AL    assigned to _state
    2685              $C$DW$301       .dwtag  DW_TAG_variable, DW_AT_name("state")
    2686                      .dwattr $C$DW$301, DW_AT_TI_symbol_name("_state")
    2687                      .dwattr $C$DW$301, DW_AT_type(*$C$DW$T$39)
    2688                      .dwattr $C$DW$301, DW_AT_location[DW_OP_reg0]
    2689              ;* AL    assigned to _state
    2690              $C$DW$302       .dwtag  DW_TAG_variable, DW_AT_name("state")
    2691                      .dwattr $C$DW$302, DW_AT_TI_symbol_name("_state")
    2692                      .dwattr $C$DW$302, DW_AT_type(*$C$DW$T$39)
    2693                      .dwattr $C$DW$302, DW_AT_location[DW_OP_reg0]
    2694              ;* AR5   assigned to _pwmHandle
    2695              $C$DW$303       .dwtag  DW_TAG_variable, DW_AT_name("pwmHandle")
    2696                      .dwattr $C$DW$303, DW_AT_TI_symbol_name("_pwmHandle")
    2697                      .dwattr $C$DW$303, DW_AT_type(*$C$DW$T$107)
    2698                      .dwattr $C$DW$303, DW_AT_location[DW_OP_reg14]
    2699              ;* AR5   assigned to _pwmHandle
    2700              $C$DW$304       .dwtag  DW_TAG_variable, DW_AT_name("pwmHandle")
    2701                      .dwattr $C$DW$304, DW_AT_TI_symbol_name("_pwmHandle")
    2702                      .dwattr $C$DW$304, DW_AT_type(*$C$DW$T$107)
    2703                      .dwattr $C$DW$304, DW_AT_location[DW_OP_reg14]
    2704              ;* AR4   assigned to _pwmHandle
    2705              $C$DW$305       .dwtag  DW_TAG_variable, DW_AT_name("pwmHandle")
    2706                      .dwattr $C$DW$305, DW_AT_TI_symbol_name("_pwmHandle")
    2707                      .dwattr $C$DW$305, DW_AT_type(*$C$DW$T$107)
    2708                      .dwattr $C$DW$305, DW_AT_location[DW_OP_reg12]
    2709              ;* AR4   assigned to _obj
    2710              $C$DW$306       .dwtag  DW_TAG_variable, DW_AT_name("obj")
    2711                      .dwattr $C$DW$306, DW_AT_TI_symbol_name("_obj")
    2712                      .dwattr $C$DW$306, DW_AT_type(*$C$DW$T$227)
    2713                      .dwattr $C$DW$306, DW_AT_location[DW_OP_reg12]
TMS320C2000 Assembler PC v6.2.5 Thu Jun 22 20:41:15 2017

Tools Copyright (c) 1996-2014 Texas Instruments Incorporated
C:\Users\wmj\AppData\Local\Temp\1712410                              PAGE   54

    2714              ;* AH    assigned to _state
    2715              $C$DW$307       .dwtag  DW_TAG_variable, DW_AT_name("state")
    2716                      .dwattr $C$DW$307, DW_AT_TI_symbol_name("_state")
    2717                      .dwattr $C$DW$307, DW_AT_type(*$C$DW$T$39)
    2718                      .dwattr $C$DW$307, DW_AT_location[DW_OP_reg1]
    2719              ;* AR6   assigned to _pwmHandle
    2720              $C$DW$308       .dwtag  DW_TAG_variable, DW_AT_name("pwmHandle")
    2721                      .dwattr $C$DW$308, DW_AT_TI_symbol_name("_pwmHandle")
    2722                      .dwattr $C$DW$308, DW_AT_type(*$C$DW$T$107)
    2723                      .dwattr $C$DW$308, DW_AT_location[DW_OP_reg16]
    2724              ;* AR6   assigned to _pwmHandle
    2725              $C$DW$309       .dwtag  DW_TAG_variable, DW_AT_name("pwmHandle")
    2726                      .dwattr $C$DW$309, DW_AT_TI_symbol_name("_pwmHandle")
    2727                      .dwattr $C$DW$309, DW_AT_type(*$C$DW$T$107)
    2728                      .dwattr $C$DW$309, DW_AT_location[DW_OP_reg16]
    2729              ;* AR5   assigned to _pwmHandle
    2730              $C$DW$310       .dwtag  DW_TAG_variable, DW_AT_name("pwmHandle")
    2731                      .dwattr $C$DW$310, DW_AT_TI_symbol_name("_pwmHandle")
    2732                      .dwattr $C$DW$310, DW_AT_type(*$C$DW$T$107)
    2733                      .dwattr $C$DW$310, DW_AT_location[DW_OP_reg14]
    2734              ;* AR5   assigned to _obj
    2735              $C$DW$311       .dwtag  DW_TAG_variable, DW_AT_name("obj")
    2736                      .dwattr $C$DW$311, DW_AT_TI_symbol_name("_obj")
    2737                      .dwattr $C$DW$311, DW_AT_type(*$C$DW$T$227)
    2738                      .dwattr $C$DW$311, DW_AT_location[DW_OP_reg14]
    2739              ;* AR6   assigned to _handle
    2740              $C$DW$312       .dwtag  DW_TAG_variable, DW_AT_name("handle")
    2741                      .dwattr $C$DW$312, DW_AT_TI_symbol_name("_handle")
    2742                      .dwattr $C$DW$312, DW_AT_type(*$C$DW$T$96)
    2743                      .dwattr $C$DW$312, DW_AT_location[DW_OP_reg16]
    2744              ;* XT    assigned to _bias
    2745              $C$DW$313       .dwtag  DW_TAG_variable, DW_AT_name("bias")
    2746                      .dwattr $C$DW$313, DW_AT_TI_symbol_name("_bias")
    2747                      .dwattr $C$DW$313, DW_AT_type(*$C$DW$T$32)
    2748                      .dwattr $C$DW$313, DW_AT_location[DW_OP_reg21]
    2749              ;* AR6   assigned to _handle
    2750              $C$DW$314       .dwtag  DW_TAG_variable, DW_AT_name("handle")
    2751                      .dwattr $C$DW$314, DW_AT_TI_symbol_name("_handle")
    2752                      .dwattr $C$DW$314, DW_AT_type(*$C$DW$T$96)
    2753                      .dwattr $C$DW$314, DW_AT_location[DW_OP_reg16]
    2754              ;* AR5   assigned to _handle
    2755              $C$DW$315       .dwtag  DW_TAG_variable, DW_AT_name("handle")
    2756                      .dwattr $C$DW$315, DW_AT_TI_symbol_name("_handle")
    2757                      .dwattr $C$DW$315, DW_AT_type(*$C$DW$T$229)
    2758                      .dwattr $C$DW$315, DW_AT_location[DW_OP_reg14]
    2759              ;* AR5   assigned to _obj
    2760              $C$DW$316       .dwtag  DW_TAG_variable, DW_AT_name("obj")
    2761                      .dwattr $C$DW$316, DW_AT_TI_symbol_name("_obj")
    2762                      .dwattr $C$DW$316, DW_AT_type(*$C$DW$T$227)
    2763                      .dwattr $C$DW$316, DW_AT_location[DW_OP_reg14]
    2764              ;* AL    assigned to _bias
    2765              $C$DW$317       .dwtag  DW_TAG_variable, DW_AT_name("bias")
    2766                      .dwattr $C$DW$317, DW_AT_TI_symbol_name("_bias")
    2767                      .dwattr $C$DW$317, DW_AT_type(*$C$DW$T$32)
    2768                      .dwattr $C$DW$317, DW_AT_location[DW_OP_reg0]
TMS320C2000 Assembler PC v6.2.5 Thu Jun 22 20:41:15 2017

Tools Copyright (c) 1996-2014 Texas Instruments Incorporated
C:\Users\wmj\AppData\Local\Temp\1712410                              PAGE   55

    2769              ;* AL    assigned to _bias
    2770              $C$DW$318       .dwtag  DW_TAG_variable, DW_AT_name("bias")
    2771                      .dwattr $C$DW$318, DW_AT_TI_symbol_name("_bias")
    2772                      .dwattr $C$DW$318, DW_AT_type(*$C$DW$T$32)
    2773                      .dwattr $C$DW$318, DW_AT_location[DW_OP_reg0]
    2774              ;* AL    assigned to _bias
    2775              $C$DW$319       .dwtag  DW_TAG_variable, DW_AT_name("bias")
    2776                      .dwattr $C$DW$319, DW_AT_TI_symbol_name("_bias")
    2777                      .dwattr $C$DW$319, DW_AT_type(*$C$DW$T$32)
    2778                      .dwattr $C$DW$319, DW_AT_location[DW_OP_reg0]
    2779              ;* AR6   assigned to _pwmHandle
    2780              $C$DW$320       .dwtag  DW_TAG_variable, DW_AT_name("pwmHandle")
    2781                      .dwattr $C$DW$320, DW_AT_TI_symbol_name("_pwmHandle")
    2782                      .dwattr $C$DW$320, DW_AT_type(*$C$DW$T$107)
    2783                      .dwattr $C$DW$320, DW_AT_location[DW_OP_reg16]
    2784              ;* AR6   assigned to _pwmHandle
    2785              $C$DW$321       .dwtag  DW_TAG_variable, DW_AT_name("pwmHandle")
    2786                      .dwattr $C$DW$321, DW_AT_TI_symbol_name("_pwmHandle")
    2787                      .dwattr $C$DW$321, DW_AT_type(*$C$DW$T$107)
    2788                      .dwattr $C$DW$321, DW_AT_location[DW_OP_reg16]
    2789              ;* AR5   assigned to _pwmHandle
    2790              $C$DW$322       .dwtag  DW_TAG_variable, DW_AT_name("pwmHandle")
    2791                      .dwattr $C$DW$322, DW_AT_TI_symbol_name("_pwmHandle")
    2792                      .dwattr $C$DW$322, DW_AT_type(*$C$DW$T$107)
    2793                      .dwattr $C$DW$322, DW_AT_location[DW_OP_reg14]
    2794              ;* AR6   assigned to _pwmHandle
    2795              $C$DW$323       .dwtag  DW_TAG_variable, DW_AT_name("pwmHandle")
    2796                      .dwattr $C$DW$323, DW_AT_TI_symbol_name("_pwmHandle")
    2797                      .dwattr $C$DW$323, DW_AT_type(*$C$DW$T$107)
    2798                      .dwattr $C$DW$323, DW_AT_location[DW_OP_reg16]
    2799              ;* AR6   assigned to _pwmHandle
    2800              $C$DW$324       .dwtag  DW_TAG_variable, DW_AT_name("pwmHandle")
    2801                      .dwattr $C$DW$324, DW_AT_TI_symbol_name("_pwmHandle")
    2802                      .dwattr $C$DW$324, DW_AT_type(*$C$DW$T$107)
    2803                      .dwattr $C$DW$324, DW_AT_location[DW_OP_reg16]
    2804              ;* AR5   assigned to _pwmHandle
    2805              $C$DW$325       .dwtag  DW_TAG_variable, DW_AT_name("pwmHandle")
    2806                      .dwattr $C$DW$325, DW_AT_TI_symbol_name("_pwmHandle")
    2807                      .dwattr $C$DW$325, DW_AT_type(*$C$DW$T$107)
    2808                      .dwattr $C$DW$325, DW_AT_location[DW_OP_reg14]
    2809              ;* AR5   assigned to _obj
    2810              $C$DW$326       .dwtag  DW_TAG_variable, DW_AT_name("obj")
    2811                      .dwattr $C$DW$326, DW_AT_TI_symbol_name("_obj")
    2812                      .dwattr $C$DW$326, DW_AT_type(*$C$DW$T$227)
    2813                      .dwattr $C$DW$326, DW_AT_location[DW_OP_reg14]
    2814              ;* AL    assigned to _maxAccel_pu
    2815              $C$DW$327       .dwtag  DW_TAG_variable, DW_AT_name("maxAccel_pu")
    2816                      .dwattr $C$DW$327, DW_AT_TI_symbol_name("_maxAccel_pu")
    2817                      .dwattr $C$DW$327, DW_AT_type(*$C$DW$T$32)
    2818                      .dwattr $C$DW$327, DW_AT_location[DW_OP_reg0]
    2819              ;* AL    assigned to _state
    2820              $C$DW$328       .dwtag  DW_TAG_variable, DW_AT_name("state")
    2821                      .dwattr $C$DW$328, DW_AT_TI_symbol_name("_state")
    2822                      .dwattr $C$DW$328, DW_AT_type(*$C$DW$T$39)
    2823                      .dwattr $C$DW$328, DW_AT_location[DW_OP_reg0]
TMS320C2000 Assembler PC v6.2.5 Thu Jun 22 20:41:15 2017

Tools Copyright (c) 1996-2014 Texas Instruments Incorporated
C:\Users\wmj\AppData\Local\Temp\1712410                              PAGE   56

    2824              ;* AR5   assigned to _pwmHandle
    2825              $C$DW$329       .dwtag  DW_TAG_variable, DW_AT_name("pwmHandle")
    2826                      .dwattr $C$DW$329, DW_AT_TI_symbol_name("_pwmHandle")
    2827                      .dwattr $C$DW$329, DW_AT_type(*$C$DW$T$107)
    2828                      .dwattr $C$DW$329, DW_AT_location[DW_OP_reg14]
    2829              ;* AR5   assigned to _pwmHandle
    2830              $C$DW$330       .dwtag  DW_TAG_variable, DW_AT_name("pwmHandle")
    2831                      .dwattr $C$DW$330, DW_AT_TI_symbol_name("_pwmHandle")
    2832                      .dwattr $C$DW$330, DW_AT_type(*$C$DW$T$107)
    2833                      .dwattr $C$DW$330, DW_AT_location[DW_OP_reg14]
    2834              ;* AR4   assigned to _pwmHandle
    2835              $C$DW$331       .dwtag  DW_TAG_variable, DW_AT_name("pwmHandle")
    2836                      .dwattr $C$DW$331, DW_AT_TI_symbol_name("_pwmHandle")
    2837                      .dwattr $C$DW$331, DW_AT_type(*$C$DW$T$107)
    2838                      .dwattr $C$DW$331, DW_AT_location[DW_OP_reg12]
    2839              ;* AR4   assigned to _obj
    2840              $C$DW$332       .dwtag  DW_TAG_variable, DW_AT_name("obj")
    2841                      .dwattr $C$DW$332, DW_AT_TI_symbol_name("_obj")
    2842                      .dwattr $C$DW$332, DW_AT_type(*$C$DW$T$227)
    2843                      .dwattr $C$DW$332, DW_AT_location[DW_OP_reg12]
    2844              $C$DW$333       .dwtag  DW_TAG_variable, DW_AT_name("ctrlState")
    2845                      .dwattr $C$DW$333, DW_AT_TI_symbol_name("_ctrlState")
    2846                      .dwattr $C$DW$333, DW_AT_type(*$C$DW$T$43)
    2847                      .dwattr $C$DW$333, DW_AT_location[DW_OP_breg20 -11]
    2848              ;* AL    assigned to _flag_ctrlStateChanged
    2849              $C$DW$334       .dwtag  DW_TAG_variable, DW_AT_name("flag_ctrlStateChanged")
    2850                      .dwattr $C$DW$334, DW_AT_TI_symbol_name("_flag_ctrlStateChanged")
    2851                      .dwattr $C$DW$334, DW_AT_type(*$C$DW$T$39)
    2852                      .dwattr $C$DW$334, DW_AT_location[DW_OP_reg0]
    2853              ;* AR1   assigned to _obj
    2854              $C$DW$335       .dwtag  DW_TAG_variable, DW_AT_name("obj")
    2855                      .dwattr $C$DW$335, DW_AT_TI_symbol_name("_obj")
    2856                      .dwattr $C$DW$335, DW_AT_type(*$C$DW$T$206)
    2857                      .dwattr $C$DW$335, DW_AT_location[DW_OP_reg6]
    2858              ;* XT    assigned to _bias
    2859              $C$DW$336       .dwtag  DW_TAG_variable, DW_AT_name("bias")
    2860                      .dwattr $C$DW$336, DW_AT_TI_symbol_name("_bias")
    2861                      .dwattr $C$DW$336, DW_AT_type(*$C$DW$T$32)
    2862                      .dwattr $C$DW$336, DW_AT_location[DW_OP_reg21]
    2863              ;* AR3   assigned to _cnt
    2864              $C$DW$337       .dwtag  DW_TAG_variable, DW_AT_name("cnt")
    2865                      .dwattr $C$DW$337, DW_AT_TI_symbol_name("_cnt")
    2866                      .dwattr $C$DW$337, DW_AT_type(*$C$DW$T$33)
    2867                      .dwattr $C$DW$337, DW_AT_location[DW_OP_reg10]
    2868              ;* AR3   assigned to _cnt
    2869              $C$DW$338       .dwtag  DW_TAG_variable, DW_AT_name("cnt")
    2870                      .dwattr $C$DW$338, DW_AT_TI_symbol_name("_cnt")
    2871                      .dwattr $C$DW$338, DW_AT_type(*$C$DW$T$33)
    2872                      .dwattr $C$DW$338, DW_AT_location[DW_OP_reg10]
    2873              ;* XT    assigned to _bias
    2874              $C$DW$339       .dwtag  DW_TAG_variable, DW_AT_name("bias")
    2875                      .dwattr $C$DW$339, DW_AT_TI_symbol_name("_bias")
    2876                      .dwattr $C$DW$339, DW_AT_type(*$C$DW$T$32)
    2877                      .dwattr $C$DW$339, DW_AT_location[DW_OP_reg21]
    2878              ;* XT    assigned to _bias
TMS320C2000 Assembler PC v6.2.5 Thu Jun 22 20:41:15 2017

Tools Copyright (c) 1996-2014 Texas Instruments Incorporated
C:\Users\wmj\AppData\Local\Temp\1712410                              PAGE   57

    2879              $C$DW$340       .dwtag  DW_TAG_variable, DW_AT_name("bias")
    2880                      .dwattr $C$DW$340, DW_AT_TI_symbol_name("_bias")
    2881                      .dwattr $C$DW$340, DW_AT_type(*$C$DW$T$32)
    2882                      .dwattr $C$DW$340, DW_AT_location[DW_OP_reg21]
    2883              ;* AL    assigned to _bias
    2884              $C$DW$341       .dwtag  DW_TAG_variable, DW_AT_name("bias")
    2885                      .dwattr $C$DW$341, DW_AT_TI_symbol_name("_bias")
    2886                      .dwattr $C$DW$341, DW_AT_type(*$C$DW$T$32)
    2887                      .dwattr $C$DW$341, DW_AT_location[DW_OP_reg0]
    2888              ;* AL    assigned to _bias
    2889              $C$DW$342       .dwtag  DW_TAG_variable, DW_AT_name("bias")
    2890                      .dwattr $C$DW$342, DW_AT_TI_symbol_name("_bias")
    2891                      .dwattr $C$DW$342, DW_AT_type(*$C$DW$T$32)
    2892                      .dwattr $C$DW$342, DW_AT_location[DW_OP_reg0]
    2893              ;* AL    assigned to _bias
    2894              $C$DW$343       .dwtag  DW_TAG_variable, DW_AT_name("bias")
    2895                      .dwattr $C$DW$343, DW_AT_TI_symbol_name("_bias")
    2896                      .dwattr $C$DW$343, DW_AT_type(*$C$DW$T$32)
    2897                      .dwattr $C$DW$343, DW_AT_location[DW_OP_reg0]
    2898              ;* AR4   assigned to $O$v3
    2899              ;* AR1   assigned to $O$K13
    2900              ;* AR3   assigned to $O$K13
    2901              ;* AR7   assigned to $O$K13
    2902              ;* AR3   assigned to $O$K13
    2903              ;* AR3   assigned to $O$K13
    2904              ;* AR4   assigned to $O$v1
    2905              ;* AR4   assigned to $O$v1
    2906              ;* AR4   assigned to $O$v1
    2907              ;* AR4   assigned to $O$v1
    2908              ;* AR1   assigned to $O$v1
    2909              ;* AR4   assigned to $O$v2
    2910              ;* AR4   assigned to $O$v2
    2911              ;* AR4   assigned to $O$v4
    2912              ;* AR4   assigned to $O$v4
    2913              ;* AR4   assigned to $O$v4
    2914              ;* PL    assigned to $O$v4
    2915              $C$DW$344       .dwtag  DW_TAG_variable, DW_AT_name("version")
    2916                      .dwattr $C$DW$344, DW_AT_TI_symbol_name("_version")
    2917                      .dwattr $C$DW$344, DW_AT_type(*$C$DW$T$41)
    2918                      .dwattr $C$DW$344, DW_AT_location[DW_OP_breg20 -10]
    2919                      .dwcfi  cfa_offset, -2
    2920                      .dwcfi  save_reg_to_mem, 26, 0
    2921                      .dwcfi  save_reg_to_reg, 78, 26
    2922 00000161 B2BD          MOVL      *SP++,XAR1            ; [CPU_] 
    2923                      .dwcfi  save_reg_to_mem, 7, 2
    2924                      .dwcfi  cfa_offset, -4
    2925 00000162 AABD          MOVL      *SP++,XAR2            ; [CPU_] 
    2926                      .dwcfi  save_reg_to_mem, 9, 4
    2927                      .dwcfi  cfa_offset, -6
    2928 00000163 A2BD          MOVL      *SP++,XAR3            ; [CPU_] 
    2929                      .dwcfi  save_reg_to_mem, 11, 6
    2930                      .dwcfi  cfa_offset, -8
    2931 00000164 FE0C          ADDB      SP,#12                ; [CPU_U] 
    2932                      .dwcfi  cfa_offset, -20
    2933                      .dwpsn  file "C:/ti/motorware/motorware_1_01_00_18/sw/solutions/instaspin_foc/src/proj_lab07.c",line 
TMS320C2000 Assembler PC v6.2.5 Thu Jun 22 20:41:15 2017

Tools Copyright (c) 1996-2014 Texas Instruments Incorporated
C:\Users\wmj\AppData\Local\Temp\1712410                              PAGE   58

    2934 00000165 8F00!         MOVL      XAR4,#_RamfuncsRunStart ; [CPU_U] |160| 
         00000166 0000 
    2935 00000167 8F40!         MOVL      XAR5,#_RamfuncsLoadEnd ; [CPU_U] |160| 
         00000168 0000 
    2936 00000169 A842          MOVL      *-SP[2],XAR4          ; [CPU_] |160| 
    2937 0000016a 8F00!         MOVL      XAR4,#_RamfuncsLoadStart ; [CPU_U] |160| 
         0000016b 0000 
    2938              $C$DW$345       .dwtag  DW_TAG_TI_branch
    2939                      .dwattr $C$DW$345, DW_AT_low_pc(0x00)
    2940                      .dwattr $C$DW$345, DW_AT_name("_memCopy")
    2941                      .dwattr $C$DW$345, DW_AT_TI_call
    2942 0000016c 7640!         LCR       #_memCopy             ; [CPU_] |160| 
         0000016d 0000 
    2943                      ; call occurs [#_memCopy] ; [] |160| 
    2944                      .dwpsn  file "C:/ti/motorware/motorware_1_01_00_18/sw/solutions/instaspin_foc/src/proj_lab07.c",line 
    2945 0000016e 8F00!         MOVL      XAR4,#_hal            ; [CPU_U] |178| 
         0000016f 0000 
    2946 00000170 02A8          MOVB      ACC,#168              ; [CPU_] |178| 
    2947              $C$DW$346       .dwtag  DW_TAG_TI_branch
    2948                      .dwattr $C$DW$346, DW_AT_low_pc(0x00)
    2949                      .dwattr $C$DW$346, DW_AT_name("_HAL_init")
    2950                      .dwattr $C$DW$346, DW_AT_TI_call
    2951 00000171 7640!         LCR       #_HAL_init            ; [CPU_] |178| 
         00000172 0000 
    2952                      ; call occurs [#_HAL_init] ; [] |178| 
    2953                      .dwpsn  file "C:/ti/motorware/motorware_1_01_00_18/sw/solutions/instaspin_foc/src/proj_lab07.c",line 
    2954 00000173 8D80-         MOVL      XAR2,#_gUserParams    ; [CPU_U] |182| 
         00000174 0100 
    2955 00000175 761F-         MOVW      DP,#_halHandle        ; [CPU_U] 
         00000176 0000 
    2956                      .dwpsn  file "C:/ti/motorware/motorware_1_01_00_18/sw/solutions/instaspin_foc/src/proj_lab07.c",line 
    2957 00000177 A810-         MOVL      @_halHandle,XAR4      ; [CPU_] |178| 
    2958                      .dwpsn  file "C:/ti/motorware/motorware_1_01_00_18/sw/solutions/instaspin_foc/src/proj_lab07.c",line 
    2959 00000178 8AA2          MOVL      XAR4,XAR2             ; [CPU_] |182| 
    2960              $C$DW$347       .dwtag  DW_TAG_TI_branch
    2961                      .dwattr $C$DW$347, DW_AT_low_pc(0x00)
    2962                      .dwattr $C$DW$347, DW_AT_name("_USER_checkForErrors")
    2963                      .dwattr $C$DW$347, DW_AT_TI_call
    2964 00000179 7640!         LCR       #_USER_checkForErrors ; [CPU_] |182| 
         0000017a 0000 
    2965                      ; call occurs [#_USER_checkForErrors] ; [] |182| 
    2966                      .dwpsn  file "C:/ti/motorware/motorware_1_01_00_18/sw/solutions/instaspin_foc/src/proj_lab07.c",line 
    2967 0000017b 8AA2          MOVL      XAR4,XAR2             ; [CPU_] |186| 
    2968              $C$DW$348       .dwtag  DW_TAG_TI_branch
    2969                      .dwattr $C$DW$348, DW_AT_low_pc(0x00)
    2970                      .dwattr $C$DW$348, DW_AT_name("_USER_getErrorCode")
    2971                      .dwattr $C$DW$348, DW_AT_TI_call
    2972 0000017c 7640!         LCR       #_USER_getErrorCode   ; [CPU_] |186| 
         0000017d 0000 
    2973                      ; call occurs [#_USER_getErrorCode] ; [] |186| 
    2974 0000017e 8D40-         MOVL      XAR1,#_gMotorVars     ; [CPU_U] |186| 
         0000017f 0080 
    2975 00000180 D00F          MOVB      XAR0,#15              ; [CPU_] |186| 
    2976 00000181 9691          MOV       *+XAR1[AR0],AL        ; [CPU_] |186| 
    2977                      .dwpsn  file "C:/ti/motorware/motorware_1_01_00_18/sw/solutions/instaspin_foc/src/proj_lab07.c",line 
TMS320C2000 Assembler PC v6.2.5 Thu Jun 22 20:41:15 2017

Tools Copyright (c) 1996-2014 Texas Instruments Incorporated
C:\Users\wmj\AppData\Local\Temp\1712410                              PAGE   59

    2978 00000182 D00F          MOVB      XAR0,#15              ; [CPU_] |190| 
    2979 00000183 9291          MOV       AL,*+XAR1[AR0]        ; [CPU_] |190| 
    2980 00000184 56C0          BF        $C$L34,NEQ            ; [CPU_] |190| 
         00000185 0246 
    2981                      ; branchcc occurs ; [] |190| 
    2982                      .dwpsn  file "C:/ti/motorware/motorware_1_01_00_18/sw/solutions/instaspin_foc/src/proj_lab07.c",line 
    2983 00000186 8AA2          MOVL      XAR4,XAR2             ; [CPU_] |199| 
    2984              $C$DW$349       .dwtag  DW_TAG_TI_branch
    2985                      .dwattr $C$DW$349, DW_AT_low_pc(0x00)
    2986                      .dwattr $C$DW$349, DW_AT_name("_USER_setParams")
    2987                      .dwattr $C$DW$349, DW_AT_TI_call
    2988 00000187 7640!         LCR       #_USER_setParams      ; [CPU_] |199| 
         00000188 0000 
    2989                      ; call occurs [#_USER_setParams] ; [] |199| 
    2990 00000189 761F-         MOVW      DP,#_halHandle        ; [CPU_U] 
         0000018a 0000 
    2991                      .dwpsn  file "C:/ti/motorware/motorware_1_01_00_18/sw/solutions/instaspin_foc/src/proj_lab07.c",line 
    2992 0000018b 83A2          MOVL      XAR5,XAR2             ; [CPU_] |202| 
    2993 0000018c 8A10-         MOVL      XAR4,@_halHandle      ; [CPU_] |202| 
    2994              $C$DW$350       .dwtag  DW_TAG_TI_branch
    2995                      .dwattr $C$DW$350, DW_AT_low_pc(0x00)
    2996                      .dwattr $C$DW$350, DW_AT_name("_HAL_setParams")
    2997                      .dwattr $C$DW$350, DW_AT_TI_call
    2998 0000018d 7640!         LCR       #_HAL_setParams       ; [CPU_] |202| 
         0000018e 0000 
    2999                      ; call occurs [#_HAL_setParams] ; [] |202| 
    3000 0000018f 761F-         MOVW      DP,#_halHandle        ; [CPU_U] 
         00000190 0000 
    3001                      .dwpsn  file "C:/ti/motorware/motorware_1_01_00_18/sw/solutions/instaspin_foc/src/proj_lab07.c",line 
    3002 00000191 9A02          MOVB      AL,#2                 ; [CPU_] |203| 
    3003 00000192 9B58          MOVB      AH,#88                ; [CPU_] |203| 
    3004 00000193 8A10-         MOVL      XAR4,@_halHandle      ; [CPU_] |203| 
    3005              $C$DW$351       .dwtag  DW_TAG_TI_branch
    3006                      .dwattr $C$DW$351, DW_AT_low_pc(0x00)
    3007                      .dwattr $C$DW$351, DW_AT_name("_HAL_I2c_Pca9555_WrData")
    3008                      .dwattr $C$DW$351, DW_AT_TI_call
    3009 00000194 7640!         LCR       #_HAL_I2c_Pca9555_WrData ; [CPU_] |203| 
         00000195 0000 
    3010                      ; call occurs [#_HAL_I2c_Pca9555_WrData] ; [] |203| 
    3011 00000196 761F-         MOVW      DP,#_halHandle        ; [CPU_U] 
         00000197 0000 
    3012                      .dwpsn  file "C:/ti/motorware/motorware_1_01_00_18/sw/solutions/instaspin_foc/src/proj_lab07.c",line 
    3013 00000198 9A02          MOVB      AL,#2                 ; [CPU_] |204| 
    3014 00000199 9B5C          MOVB      AH,#92                ; [CPU_] |204| 
    3015 0000019a 8A10-         MOVL      XAR4,@_halHandle      ; [CPU_] |204| 
    3016              $C$DW$352       .dwtag  DW_TAG_TI_branch
    3017                      .dwattr $C$DW$352, DW_AT_low_pc(0x00)
    3018                      .dwattr $C$DW$352, DW_AT_name("_HAL_I2c_Pca9555_WrData")
    3019                      .dwattr $C$DW$352, DW_AT_TI_call
    3020 0000019b 7640!         LCR       #_HAL_I2c_Pca9555_WrData ; [CPU_] |204| 
         0000019c 0000 
    3021                      ; call occurs [#_HAL_I2c_Pca9555_WrData] ; [] |204| 
    3022                      .dwpsn  file "C:/ti/motorware/motorware_1_01_00_18/sw/solutions/instaspin_foc/src/proj_lab07.c",line 
    3023 0000019d D500          MOVB      XAR5,#0               ; [CPU_] |212| 
    3024 0000019e 8F00-         MOVL      XAR4,#_ctrl           ; [CPU_U] |212| 
TMS320C2000 Assembler PC v6.2.5 Thu Jun 22 20:41:15 2017

Tools Copyright (c) 1996-2014 Texas Instruments Incorporated
C:\Users\wmj\AppData\Local\Temp\1712410                              PAGE   60

         0000019f 01C0 
    3025 000001a0 FF20          MOV       ACC,#264              ; [CPU_] |212| 
         000001a1 0108 
    3026              $C$DW$353       .dwtag  DW_TAG_TI_branch
    3027                      .dwattr $C$DW$353, DW_AT_low_pc(0x00)
    3028                      .dwattr $C$DW$353, DW_AT_name("_CTRL_initCtrl")
    3029                      .dwattr $C$DW$353, DW_AT_TI_call
    3030 000001a2 7640!         LCR       #_CTRL_initCtrl       ; [CPU_] |212| 
         000001a3 0000 
    3031                      ; call occurs [#_CTRL_initCtrl] ; [] |212| 
    3032 000001a4 761F-         MOVW      DP,#_ctrlHandle       ; [CPU_U] 
         000001a5 0000 
    3033                      .dwpsn  file "C:/ti/motorware/motorware_1_01_00_18/sw/solutions/instaspin_foc/src/proj_lab07.c",line 
    3034 000001a6 5DAD          MOVZ      AR5,SP                ; [CPU_U] |220| 
    3035 000001a7 DD8A          SUBB      XAR5,#10              ; [CPU_U] |220| 
    3036                      .dwpsn  file "C:/ti/motorware/motorware_1_01_00_18/sw/solutions/instaspin_foc/src/proj_lab07.c",line 
    3037 000001a8 A81A-         MOVL      @_ctrlHandle,XAR4     ; [CPU_] |212| 
    3038                      .dwpsn  file "C:/ti/motorware/motorware_1_01_00_18/sw/solutions/instaspin_foc/src/proj_lab07.c",line 
    3039              $C$DW$354       .dwtag  DW_TAG_TI_branch
    3040                      .dwattr $C$DW$354, DW_AT_low_pc(0x00)
    3041                      .dwattr $C$DW$354, DW_AT_name("_CTRL_getVersion")
    3042                      .dwattr $C$DW$354, DW_AT_TI_call
    3043 000001a9 7640!         LCR       #_CTRL_getVersion     ; [CPU_] |220| 
         000001aa 0000 
    3044                      ; call occurs [#_CTRL_getVersion] ; [] |220| 
    3045                      .dwpsn  file "C:/ti/motorware/motorware_1_01_00_18/sw/solutions/instaspin_foc/src/proj_lab07.c",line 
    3046 000001ab D910          ADDB      XAR1,#16              ; [CPU_] |222| 
    3047 000001ac 761F-         MOVW      DP,#_ctrlHandle       ; [CPU_U] 
         000001ad 0000 
    3048 000001ae C448          MOVL      XAR6,*-SP[8]          ; [CPU_] |222| 
    3049 000001af 064A          MOVL      ACC,*-SP[10]          ; [CPU_] |222| 
    3050                      .dwpsn  file "C:/ti/motorware/motorware_1_01_00_18/sw/solutions/instaspin_foc/src/proj_lab07.c",line 
    3051 000001b0 83A2          MOVL      XAR5,XAR2             ; [CPU_] |227| 
    3052                      .dwpsn  file "C:/ti/motorware/motorware_1_01_00_18/sw/solutions/instaspin_foc/src/proj_lab07.c",line 
    3053 000001b1 1EC1          MOVL      *+XAR1[0],ACC         ; [CPU_] |222| 
    3054 000001b2 C2D1          MOVL      *+XAR1[2],XAR6        ; [CPU_] |222| 
    3055                      .dwpsn  file "C:/ti/motorware/motorware_1_01_00_18/sw/solutions/instaspin_foc/src/proj_lab07.c",line 
    3056 000001b3 8A1A-         MOVL      XAR4,@_ctrlHandle     ; [CPU_] |227| 
    3057              $C$DW$355       .dwtag  DW_TAG_TI_branch
    3058                      .dwattr $C$DW$355, DW_AT_low_pc(0x00)
    3059                      .dwattr $C$DW$355, DW_AT_name("_CTRL_setParams")
    3060                      .dwattr $C$DW$355, DW_AT_TI_call
    3061 000001b4 7640!         LCR       #_CTRL_setParams      ; [CPU_] |227| 
         000001b5 0000 
    3062                      ; call occurs [#_CTRL_setParams] ; [] |227| 
    3063                      .dwpsn  file "C:/ti/motorware/motorware_1_01_00_18/sw/solutions/instaspin_foc/src/proj_lab07.c",line 
    3064 000001b6 8F00-         MOVL      XAR4,#_fem            ; [CPU_U] |231| 
         000001b7 0040 
    3065 000001b8 0212          MOVB      ACC,#18               ; [CPU_] |231| 
    3066              $C$DW$356       .dwtag  DW_TAG_TI_branch
    3067                      .dwattr $C$DW$356, DW_AT_low_pc(0x00)
    3068                      .dwattr $C$DW$356, DW_AT_name("_FEM_init")
    3069                      .dwattr $C$DW$356, DW_AT_TI_call
    3070 000001b9 7640!         LCR       #_FEM_init            ; [CPU_] |231| 
         000001ba 0000 
TMS320C2000 Assembler PC v6.2.5 Thu Jun 22 20:41:15 2017

Tools Copyright (c) 1996-2014 Texas Instruments Incorporated
C:\Users\wmj\AppData\Local\Temp\1712410                              PAGE   61

    3071                      ; call occurs [#_FEM_init] ; [] |231| 
    3072 000001bb 761F-         MOVW      DP,#_femHandle        ; [CPU_U] 
         000001bc 0000 
    3073                      .dwpsn  file "C:/ti/motorware/motorware_1_01_00_18/sw/modules/hal/boards/hvkit_rev1p1/f28x/f2802x/src
    3074 000001bd 8310-         MOVL      XAR5,@_halHandle      ; [CPU_] |671| 
    3075 000001be D08A          MOVB      XAR0,#138             ; [CPU_] |671| 
    3076 000001bf 8395          MOVL      XAR5,*+XAR5[AR0]      ; [CPU_] |671| 
    3077                      .dwpsn  file "C:/ti/motorware/motorware_1_01_00_18/sw/solutions/instaspin_foc/src/proj_lab07.c",line 
    3078 000001c0 A80E-         MOVL      @_femHandle,XAR4      ; [CPU_] |231| 
    3079                      .dwpsn  file "C:/ti/motorware/motorware_1_01_00_18/sw/drivers/timer/src/32b/f28x/f2802x/timer.h",line
    3080 000001c1 06D5          MOVL      ACC,*+XAR5[2]         ; [CPU_] |225| 
    3081                      .dwpsn  file "C:/ti/motorware/motorware_1_01_00_18/sw/solutions/instaspin_foc/src/proj_lab07.c",line 
    3082 000001c2 1E42          MOVL      *-SP[2],ACC           ; [CPU_] |232| 
    3083 000001c3 28A9          MOV       AL,#24576             ; [CPU_] |232| 
         000001c4 6000 
    3084 000001c5 28A8          MOV       AH,#18026             ; [CPU_] |232| 
         000001c6 466A 
    3085 000001c7 1E44          MOVL      *-SP[4],ACC           ; [CPU_] |232| 
    3086 000001c8 9A00          MOV       AL,#0                 ; [CPU_] |232| 
    3087 000001c9 28A8          MOV       AH,#17530             ; [CPU_] |232| 
         000001ca 447A 
    3088 000001cb 1E46          MOVL      *-SP[6],ACC           ; [CPU_] |232| 
    3089 000001cc 28A9          MOV       AL,#57792             ; [CPU_] |232| 
         000001cd E1C0 
    3090 000001ce 28A8          MOV       AH,#19556             ; [CPU_] |232| 
         000001cf 4C64 
    3091              $C$DW$357       .dwtag  DW_TAG_TI_branch
    3092                      .dwattr $C$DW$357, DW_AT_low_pc(0x00)
    3093                      .dwattr $C$DW$357, DW_AT_name("_FEM_setParams")
    3094                      .dwattr $C$DW$357, DW_AT_TI_call
    3095 000001d0 7640!         LCR       #_FEM_setParams       ; [CPU_] |232| 
         000001d1 0000 
    3096                      ; call occurs [#_FEM_setParams] ; [] |232| 
    3097                      .dwpsn  file "C:/ti/motorware/motorware_1_01_00_18/sw/solutions/instaspin_foc/src/proj_lab07.c",line 
    3098 000001d2 8F00-         MOVL      XAR4,#_cpu_usage      ; [CPU_U] |240| 
         000001d3 0052 
    3099 000001d4 0216          MOVB      ACC,#22               ; [CPU_] |240| 
    3100              $C$DW$358       .dwtag  DW_TAG_TI_branch
    3101                      .dwattr $C$DW$358, DW_AT_low_pc(0x00)
    3102                      .dwattr $C$DW$358, DW_AT_name("_CPU_USAGE_init")
    3103                      .dwattr $C$DW$358, DW_AT_TI_call
    3104 000001d5 7640!         LCR       #_CPU_USAGE_init      ; [CPU_] |240| 
         000001d6 0000 
    3105                      ; call occurs [#_CPU_USAGE_init] ; [] |240| 
    3106 000001d7 761F-         MOVW      DP,#_cpu_usageHandle  ; [CPU_U] 
         000001d8 0000 
    3107                      .dwpsn  file "C:/ti/motorware/motorware_1_01_00_18/sw/modules/hal/boards/hvkit_rev1p1/f28x/f2802x/src
    3108 000001d9 8310-         MOVL      XAR5,@_halHandle      ; [CPU_] |671| 
    3109 000001da D08C          MOVB      XAR0,#140             ; [CPU_] |671| 
    3110 000001db 8395          MOVL      XAR5,*+XAR5[AR0]      ; [CPU_] |671| 
    3111                      .dwpsn  file "C:/ti/motorware/motorware_1_01_00_18/sw/solutions/instaspin_foc/src/proj_lab07.c",line 
    3112 000001dc A81E-         MOVL      @_cpu_usageHandle,XAR4 ; [CPU_] |240| 
    3113                      .dwpsn  file "C:/ti/motorware/motorware_1_01_00_18/sw/drivers/timer/src/32b/f28x/f2802x/timer.h",line
    3114 000001dd 06D5          MOVL      ACC,*+XAR5[2]         ; [CPU_] |225| 
    3115                      .dwpsn  file "C:/ti/motorware/motorware_1_01_00_18/sw/solutions/instaspin_foc/src/proj_lab07.c",line 
TMS320C2000 Assembler PC v6.2.5 Thu Jun 22 20:41:15 2017

Tools Copyright (c) 1996-2014 Texas Instruments Incorporated
C:\Users\wmj\AppData\Local\Temp\1712410                              PAGE   62

    3116 000001de 8F40          MOVL      XAR5,#15000           ; [CPU_U] |241| 
         000001df 3A98 
    3117 000001e0 A042          MOVL      *-SP[2],XAR5          ; [CPU_] |241| 
    3118              $C$DW$359       .dwtag  DW_TAG_TI_branch
    3119                      .dwattr $C$DW$359, DW_AT_low_pc(0x00)
    3120                      .dwattr $C$DW$359, DW_AT_name("_CPU_USAGE_setParams")
    3121                      .dwattr $C$DW$359, DW_AT_TI_call
    3122 000001e1 7640!         LCR       #_CPU_USAGE_setParams ; [CPU_] |241| 
         000001e2 0000 
    3123                      ; call occurs [#_CPU_USAGE_setParams] ; [] |241| 
    3124 000001e3 761F-         MOVW      DP,#_halHandle        ; [CPU_U] 
         000001e4 0000 
    3125                      .dwpsn  file "C:/ti/motorware/motorware_1_01_00_18/sw/solutions/instaspin_foc/src/proj_lab07.c",line 
    3126 000001e5 8A10-         MOVL      XAR4,@_halHandle      ; [CPU_] |247| 
    3127              $C$DW$360       .dwtag  DW_TAG_TI_branch
    3128                      .dwattr $C$DW$360, DW_AT_low_pc(0x00)
    3129                      .dwattr $C$DW$360, DW_AT_name("_HAL_setupFaults")
    3130                      .dwattr $C$DW$360, DW_AT_TI_call
    3131 000001e6 7640!         LCR       #_HAL_setupFaults     ; [CPU_] |247| 
         000001e7 0000 
    3132                      ; call occurs [#_HAL_setupFaults] ; [] |247| 
    3133 000001e8 761F-         MOVW      DP,#_halHandle        ; [CPU_U] 
         000001e9 0000 
    3134                      .dwpsn  file "C:/ti/motorware/motorware_1_01_00_18/sw/solutions/instaspin_foc/src/proj_lab07.c",line 
    3135 000001ea 8A10-         MOVL      XAR4,@_halHandle      ; [CPU_] |251| 
    3136 000001eb 7622   EALLOW
    3137                      .dwpsn  file "C:/ti/motorware/motorware_1_01_00_18/sw/modules/hal/boards/hvkit_rev1p1/f28x/f2802x/src
    3138 000001ec D078          MOVB      XAR0,#120             ; [CPU_] |473| 
    3139 000001ed C494          MOVL      XAR6,*+XAR4[AR0]      ; [CPU_] |473| 
    3140 000001ee 8F40+         MOVL      XAR5,#_mainISR        ; [CPU_U] |473| 
         000001ef 0000 
    3141 000001f0 D0F0          MOVB      XAR0,#240             ; [CPU_] |473| 
    3142 000001f1 A096          MOVL      *+XAR6[AR0],XAR5      ; [CPU_] |473| 
    3143 000001f2 761A   EDIS
    3144 000001f3 FF69          SPM       #0                    ; [CPU_] 
    3145                      .dwpsn  file "C:/ti/motorware/motorware_1_01_00_18/sw/solutions/instaspin_foc/src/proj_lab07.c",line 
    3146              $C$DW$361       .dwtag  DW_TAG_TI_branch
    3147                      .dwattr $C$DW$361, DW_AT_low_pc(0x00)
    3148                      .dwattr $C$DW$361, DW_AT_name("_HAL_enableAdcInts")
    3149                      .dwattr $C$DW$361, DW_AT_TI_call
    3150 000001f4 7640!         LCR       #_HAL_enableAdcInts   ; [CPU_] |255| 
         000001f5 0000 
    3151                      ; call occurs [#_HAL_enableAdcInts] ; [] |255| 
    3152 000001f6 761F-         MOVW      DP,#_halHandle        ; [CPU_U] 
         000001f7 0000 
    3153                      .dwpsn  file "C:/ti/motorware/motorware_1_01_00_18/sw/solutions/instaspin_foc/src/proj_lab07.c",line 
    3154 000001f8 8A10-         MOVL      XAR4,@_halHandle      ; [CPU_] |259| 
    3155                      .dwpsn  file "C:/ti/motorware/motorware_1_01_00_18/sw/modules/hal/boards/hvkit_rev1p1/f28x/f2802x/src
    3156 000001f9 D08A          MOVB      XAR0,#138             ; [CPU_] |614| 
    3157 000001fa 8394          MOVL      XAR5,*+XAR4[AR0]      ; [CPU_] |614| 
    3158                      .dwpsn  file "C:/ti/motorware/motorware_1_01_00_18/sw/drivers/timer/src/32b/f28x/f2802x/timer.h",line
    3159 000001fb 1AE5          OR        *+XAR5[4],#0x0020     ; [CPU_] |196| 
         000001fc 0020 
    3160                      .dwpsn  file "C:/ti/motorware/motorware_1_01_00_18/sw/solutions/instaspin_foc/src/proj_lab07.c",line 
    3161              $C$DW$362       .dwtag  DW_TAG_TI_branch
TMS320C2000 Assembler PC v6.2.5 Thu Jun 22 20:41:15 2017

Tools Copyright (c) 1996-2014 Texas Instruments Incorporated
C:\Users\wmj\AppData\Local\Temp\1712410                              PAGE   63

    3162                      .dwattr $C$DW$362, DW_AT_low_pc(0x00)
    3163                      .dwattr $C$DW$362, DW_AT_name("_HAL_enableGlobalInts")
    3164                      .dwattr $C$DW$362, DW_AT_TI_call
    3165 000001fd 7640!         LCR       #_HAL_enableGlobalInts ; [CPU_] |263| 
         000001fe 0000 
    3166                      ; call occurs [#_HAL_enableGlobalInts] ; [] |263| 
    3167 000001ff 761F-         MOVW      DP,#_halHandle        ; [CPU_U] 
         00000200 0000 
    3168                      .dwpsn  file "C:/ti/motorware/motorware_1_01_00_18/sw/solutions/instaspin_foc/src/proj_lab07.c",line 
    3169 00000201 8A10-         MOVL      XAR4,@_halHandle      ; [CPU_] |267| 
    3170              $C$DW$363       .dwtag  DW_TAG_TI_branch
    3171                      .dwattr $C$DW$363, DW_AT_low_pc(0x00)
    3172                      .dwattr $C$DW$363, DW_AT_name("_HAL_enableDebugInt")
    3173                      .dwattr $C$DW$363, DW_AT_TI_call
    3174 00000202 7640!         LCR       #_HAL_enableDebugInt  ; [CPU_] |267| 
         00000203 0000 
    3175                      ; call occurs [#_HAL_enableDebugInt] ; [] |267| 
    3176 00000204 761F-         MOVW      DP,#_halHandle        ; [CPU_U] 
         00000205 0000 
    3177                      .dwpsn  file "C:/ti/motorware/motorware_1_01_00_18/sw/modules/hal/boards/hvkit_rev1p1/f28x/f2802x/src
    3178 00000206 8A10-         MOVL      XAR4,@_halHandle      ; [CPU_] |242| 
    3179                      .dwpsn  file "C:/ti/motorware/motorware_1_01_00_18/sw/modules/hal/boards/hvkit_rev1p1/f28x/f2802x/src
    3180 00000207 DC7C          ADDB      XAR4,#124             ; [CPU_] |244| 
    3181 00000208 83C4          MOVL      XAR5,*+XAR4[0]        ; [CPU_] |244| 
    3182 00000209 7622   EALLOW
    3183                      .dwpsn  file "C:/ti/motorware/motorware_1_01_00_18/sw/drivers/pwm/src/32b/f28x/f2802x/pwm.h",line 156
    3184 0000020a DD18          ADDB      XAR5,#24              ; [CPU_] |1567| 
    3185 0000020b 1AC5          OR        *+XAR5[0],#0x0004     ; [CPU_] |1567| 
         0000020c 0004 
    3186 0000020d 761A   EDIS
    3187                      .dwpsn  file "C:/ti/motorware/motorware_1_01_00_18/sw/modules/hal/boards/hvkit_rev1p1/f28x/f2802x/src
    3188 0000020e 83D4          MOVL      XAR5,*+XAR4[2]        ; [CPU_] |245| 
    3189 0000020f 7622   EALLOW
    3190                      .dwpsn  file "C:/ti/motorware/motorware_1_01_00_18/sw/drivers/pwm/src/32b/f28x/f2802x/pwm.h",line 156
    3191 00000210 DD18          ADDB      XAR5,#24              ; [CPU_] |1567| 
    3192 00000211 1AC5          OR        *+XAR5[0],#0x0004     ; [CPU_] |1567| 
         00000212 0004 
    3193 00000213 761A   EDIS
    3194                      .dwpsn  file "C:/ti/motorware/motorware_1_01_00_18/sw/modules/hal/boards/hvkit_rev1p1/f28x/f2802x/src
    3195 00000214 8AE4          MOVL      XAR4,*+XAR4[4]        ; [CPU_] |246| 
    3196 00000215 7622   EALLOW
    3197                      .dwpsn  file "C:/ti/motorware/motorware_1_01_00_18/sw/drivers/pwm/src/32b/f28x/f2802x/pwm.h",line 156
    3198 00000216 DC18          ADDB      XAR4,#24              ; [CPU_] |1567| 
    3199 00000217 1AC4          OR        *+XAR4[0],#0x0004     ; [CPU_] |1567| 
         00000218 0004 
    3200 00000219 761A   EDIS
    3201                      .dwpsn  file "C:/ti/motorware/motorware_1_01_00_18/sw/modules/ctrl/src/32b/ctrl.h",line 1246,column 3
    3202 0000021a 8A1A-         MOVL      XAR4,@_ctrlHandle     ; [CPU_] |1246| 
    3203 0000021b D0F1          MOVB      XAR0,#241             ; [CPU_] |1246| 
    3204 0000021c FF69          SPM       #0                    ; [CPU_] 
    3205 0000021d 56BF          MOVB      *+XAR4[AR0],#1,UNC    ; [CPU_] |1246| 
         0000021e 0194 
    3206                      .dwpsn  file "C:/ti/motorware/motorware_1_01_00_18/sw/solutions/instaspin_foc/src/proj_lab07.c",line 
    3207              $C$DW$364       .dwtag  DW_TAG_TI_branch
    3208                      .dwattr $C$DW$364, DW_AT_low_pc(0x00)
TMS320C2000 Assembler PC v6.2.5 Thu Jun 22 20:41:15 2017

Tools Copyright (c) 1996-2014 Texas Instruments Incorporated
C:\Users\wmj\AppData\Local\Temp\1712410                              PAGE   64

    3209                      .dwattr $C$DW$364, DW_AT_name("_USER_computeFlux_pu_to_Wb_sf")
    3210                      .dwattr $C$DW$364, DW_AT_TI_call
    3211 0000021f 7640!         LCR       #_USER_computeFlux_pu_to_Wb_sf ; [CPU_] |294| 
         00000220 0000 
    3212                      ; call occurs [#_USER_computeFlux_pu_to_Wb_sf] ; [] |294| 
    3213 00000221 761F-         MOVW      DP,#_gFlux_pu_to_Wb_sf ; [CPU_U] 
         00000222 0000 
    3214 00000223 1E0C-         MOVL      @_gFlux_pu_to_Wb_sf,ACC ; [CPU_] |294| 
    3215                      .dwpsn  file "C:/ti/motorware/motorware_1_01_00_18/sw/solutions/instaspin_foc/src/proj_lab07.c",line 
    3216              $C$DW$365       .dwtag  DW_TAG_TI_branch
    3217                      .dwattr $C$DW$365, DW_AT_low_pc(0x00)
    3218                      .dwattr $C$DW$365, DW_AT_name("_USER_computeFlux_pu_to_VpHz_sf")
    3219                      .dwattr $C$DW$365, DW_AT_TI_call
    3220 00000224 7640!         LCR       #_USER_computeFlux_pu_to_VpHz_sf ; [CPU_] |295| 
         00000225 0000 
    3221                      ; call occurs [#_USER_computeFlux_pu_to_VpHz_sf] ; [] |295| 
    3222 00000226 761F-         MOVW      DP,#_gFlux_pu_to_VpHz_sf ; [CPU_U] 
         00000227 0000 
    3223 00000228 1E0A-         MOVL      @_gFlux_pu_to_VpHz_sf,ACC ; [CPU_] |295| 
    3224                      .dwpsn  file "C:/ti/motorware/motorware_1_01_00_18/sw/solutions/instaspin_foc/src/proj_lab07.c",line 
    3225              $C$DW$366       .dwtag  DW_TAG_TI_branch
    3226                      .dwattr $C$DW$366, DW_AT_low_pc(0x00)
    3227                      .dwattr $C$DW$366, DW_AT_name("_USER_computeTorque_Ls_Id_Iq_pu_to_Nm_sf")
    3228                      .dwattr $C$DW$366, DW_AT_TI_call
    3229 00000229 7640!         LCR       #_USER_computeTorque_Ls_Id_Iq_pu_to_Nm_sf ; [CPU_] |296| 
         0000022a 0000 
    3230                      ; call occurs [#_USER_computeTorque_Ls_Id_Iq_pu_to_Nm_sf] ; [] |296| 
    3231 0000022b 761F-         MOVW      DP,#_gTorque_Ls_Id_Iq_pu_to_Nm_sf ; [CPU_U] 
         0000022c 0000 
    3232 0000022d 1E08-         MOVL      @_gTorque_Ls_Id_Iq_pu_to_Nm_sf,ACC ; [CPU_] |296| 
    3233                      .dwpsn  file "C:/ti/motorware/motorware_1_01_00_18/sw/solutions/instaspin_foc/src/proj_lab07.c",line 
    3234              $C$DW$367       .dwtag  DW_TAG_TI_branch
    3235                      .dwattr $C$DW$367, DW_AT_low_pc(0x00)
    3236                      .dwattr $C$DW$367, DW_AT_name("_USER_computeTorque_Flux_Iq_pu_to_Nm_sf")
    3237                      .dwattr $C$DW$367, DW_AT_TI_call
    3238 0000022e 7640!         LCR       #_USER_computeTorque_Flux_Iq_pu_to_Nm_sf ; [CPU_] |297| 
         0000022f 0000 
    3239                      ; call occurs [#_USER_computeTorque_Flux_Iq_pu_to_Nm_sf] ; [] |297| 
    3240 00000230 761F-         MOVW      DP,#_gTorque_Flux_Iq_pu_to_Nm_sf ; [CPU_U] 
         00000231 0000 
    3241 00000232 1E06-         MOVL      @_gTorque_Flux_Iq_pu_to_Nm_sf,ACC ; [CPU_] |297| 
    3242 00000233       $C$L16:    
    3243 00000233 761F-         MOVW      DP,#_gMotorVars       ; [CPU_U] 
         00000234 0002 
    3244                      .dwpsn  file "C:/ti/motorware/motorware_1_01_00_18/sw/solutions/instaspin_foc/src/proj_lab07.c",line 
    3245 00000235 9200-         MOV       AL,@_gMotorVars       ; [CPU_] |303| 
    3246 00000236 ECFD          BF        $C$L16,EQ             ; [CPU_] |303| 
    3247                      ; branchcc occurs ; [] |303| 
    3248 00000237 761F-         MOVW      DP,#_ctrlHandle       ; [CPU_U] 
         00000238 0000 
    3249                      .dwpsn  file "C:/ti/motorware/motorware_1_01_00_18/sw/solutions/instaspin_foc/src/proj_lab07.c",line 
    3250 00000239 8B1A-         MOVL      XAR1,@_ctrlHandle     ; [CPU_] |306| 
    3251                      .dwpsn  file "C:/ti/motorware/motorware_1_01_00_18/sw/modules/ctrl/src/32b/ctrl.h",line 1288,column 3
    3252 0000023a D0F4          MOVB      XAR0,#244             ; [CPU_] |1288| 
    3253 0000023b 56BF          MOVB      *+XAR1[AR0],#1,UNC    ; [CPU_] |1288| 
TMS320C2000 Assembler PC v6.2.5 Thu Jun 22 20:41:15 2017

Tools Copyright (c) 1996-2014 Texas Instruments Incorporated
C:\Users\wmj\AppData\Local\Temp\1712410                              PAGE   65

         0000023c 0191 
    3254                      .dwpsn  file "C:/ti/motorware/motorware_1_01_00_18/sw/solutions/instaspin_foc/src/proj_lab07.c",line 
    3255 0000023d FFEF          B         $C$L33,UNC            ; [CPU_] |309| 
         0000023e 016A 
    3256                      ; branch occurs ; [] |309| 
    3257 0000023f       $C$L17:    
    3258                      .dwpsn  file "C:/ti/motorware/motorware_1_01_00_18/sw/solutions/instaspin_foc/src/proj_lab07.c",line 
    3259 0000023f 0A02-         INC       @_gCounter_updateGlobals ; [CPU_] |314| 
    3260                      .dwpsn  file "C:/ti/motorware/motorware_1_01_00_18/sw/modules/ctrl/src/32b/ctrl.h",line 1304,column 3
    3261 00000240 D0F5          MOVB      XAR0,#245             ; [CPU_] |1304| 
    3262                      .dwpsn  file "C:/ti/motorware/motorware_1_01_00_18/sw/solutions/instaspin_foc/src/proj_lab07.c",line 
    3263 00000241 92F3          MOV       AL,*+XAR3[6]          ; [CPU_] |317| 
    3264                      .dwpsn  file "C:/ti/motorware/motorware_1_01_00_18/sw/modules/ctrl/src/32b/ctrl.h",line 1304,column 3
    3265 00000242 9691          MOV       *+XAR1[AR0],AL        ; [CPU_] |1304| 
    3266                      .dwpsn  file "C:/ti/motorware/motorware_1_01_00_18/sw/solutions/instaspin_foc/src/proj_lab07.c",line 
    3267 00000243 D018          MOVB      XAR0,#24              ; [CPU_] |320| 
    3268 00000244 8A91          MOVL      XAR4,*+XAR1[AR0]      ; [CPU_] |320| 
    3269 00000245 92EB          MOV       AL,*+XAR3[5]          ; [CPU_] |320| 
    3270              $C$DW$368       .dwtag  DW_TAG_TI_branch
    3271                      .dwattr $C$DW$368, DW_AT_low_pc(0x00)
    3272                      .dwattr $C$DW$368, DW_AT_name("_EST_setFlag_enableRsRecalc")
    3273                      .dwattr $C$DW$368, DW_AT_TI_call
    3274 00000246 7640!         LCR       #_EST_setFlag_enableRsRecalc ; [CPU_] |320| 
         00000247 0000 
    3275                      ; call occurs [#_EST_setFlag_enableRsRecalc] ; [] |320| 
    3276 00000248 761F-         MOVW      DP,#_ctrlHandle       ; [CPU_U] 
         00000249 0000 
    3277                      .dwpsn  file "C:/ti/motorware/motorware_1_01_00_18/sw/solutions/instaspin_foc/src/proj_lab07.c",line 
    3278 0000024a 8A1A-         MOVL      XAR4,@_ctrlHandle     ; [CPU_] |323| 
    3279                      .dwpsn  file "C:/ti/motorware/motorware_1_01_00_18/sw/modules/ctrl/src/32b/ctrl.h",line 1275,column 3
    3280 0000024b D0F3          MOVB      XAR0,#243             ; [CPU_] |1275| 
    3281                      .dwpsn  file "C:/ti/motorware/motorware_1_01_00_18/sw/solutions/instaspin_foc/src/proj_lab07.c",line 
    3282 0000024c 92FB          MOV       AL,*+XAR3[7]          ; [CPU_] |323| 
    3283                      .dwpsn  file "C:/ti/motorware/motorware_1_01_00_18/sw/modules/ctrl/src/32b/ctrl.h",line 1275,column 3
    3284 0000024d 9694          MOV       *+XAR4[AR0],AL        ; [CPU_] |1275| 
    3285                      .dwpsn  file "C:/ti/motorware/motorware_1_01_00_18/sw/modules/ctrl/src/32b/ctrl.h",line 1060,column 3
    3286 0000024e 92E4          MOV       AL,*+XAR4[4]          ; [CPU_] |1060| 
    3287 0000024f 56C1          BF        $C$L28,EQ             ; [CPU_] |1060| 
         00000250 00C8 
    3288                      ; branchcc occurs ; [] |1060| 
    3289                      .dwpsn  file "C:/ti/motorware/motorware_1_01_00_18/sw/solutions/instaspin_foc/src/proj_lab07.c",line 
    3290              $C$DW$369       .dwtag  DW_TAG_TI_branch
    3291                      .dwattr $C$DW$369, DW_AT_low_pc(0x00)
    3292                      .dwattr $C$DW$369, DW_AT_name("_CTRL_updateState")
    3293                      .dwattr $C$DW$369, DW_AT_TI_call
    3294 00000251 7640!         LCR       #_CTRL_updateState    ; [CPU_] |340| 
         00000252 0000 
    3295                      ; call occurs [#_CTRL_updateState] ; [] |340| 
    3296 00000253 761F-         MOVW      DP,#_ctrlHandle       ; [CPU_U] 
         00000254 0000 
    3297                      .dwpsn  file "C:/ti/motorware/motorware_1_01_00_18/sw/solutions/instaspin_foc/src/proj_lab07.c",line 
    3298 00000255 8A1A-         MOVL      XAR4,@_ctrlHandle     ; [CPU_] |343| 
    3299 00000256 93CB          MOV       AH,*+XAR3[1]          ; [CPU_] |343| 
    3300                      .dwpsn  file "C:/ti/motorware/motorware_1_01_00_18/sw/modules/ctrl/src/32b/ctrl.h",line 1218,column 3
    3301 00000257 D0F0          MOVB      XAR0,#240             ; [CPU_] |1218| 
TMS320C2000 Assembler PC v6.2.5 Thu Jun 22 20:41:15 2017

Tools Copyright (c) 1996-2014 Texas Instruments Incorporated
C:\Users\wmj\AppData\Local\Temp\1712410                              PAGE   66

    3302                      .dwpsn  file "C:/ti/motorware/motorware_1_01_00_18/sw/solutions/instaspin_foc/src/proj_lab07.c",line 
    3303 00000258 5200          CMPB      AL,#0                 ; [CPU_] |345| 
    3304                      .dwpsn  file "C:/ti/motorware/motorware_1_01_00_18/sw/modules/ctrl/src/32b/ctrl.h",line 1218,column 3
    3305 00000259 9794          MOV       *+XAR4[AR0],AH        ; [CPU_] |1218| 
    3306                      .dwpsn  file "C:/ti/motorware/motorware_1_01_00_18/sw/solutions/instaspin_foc/src/proj_lab07.c",line 
    3307 0000025a 56C1          BF        $C$L29,EQ             ; [CPU_] |345| 
         0000025b 00D8 
    3308                      ; branchcc occurs ; [] |345| 
    3309                      .dwpsn  file "C:/ti/motorware/motorware_1_01_00_18/sw/modules/ctrl/src/32b/ctrl.h",line 771,column 3,
    3310 0000025c 92E4          MOV       AL,*+XAR4[4]          ; [CPU_] |771| 
    3311 0000025d 964B          MOV       *-SP[11],AL           ; [CPU_] |771| 
    3312 0000025e 5202          CMPB      AL,#2                 ; [CPU_] |771| 
    3313 0000025f 56C1          BF        $C$L25,EQ             ; [CPU_] |771| 
         00000260 0094 
    3314                      ; branchcc occurs ; [] |771| 
    3315                      .dwpsn  file "C:/ti/motorware/motorware_1_01_00_18/sw/solutions/instaspin_foc/src/proj_lab07.c",line 
    3316 00000261 5203          CMPB      AL,#3                 ; [CPU_] |354| 
    3317 00000262 EC1B          BF        $C$L18,EQ             ; [CPU_] |354| 
    3318                      ; branchcc occurs ; [] |354| 
    3319                      .dwpsn  file "C:/ti/motorware/motorware_1_01_00_18/sw/solutions/instaspin_foc/src/proj_lab07.c",line 
    3320 00000263 5201          CMPB      AL,#1                 ; [CPU_] |387| 
    3321 00000264 56C0          BF        $C$L27,NEQ            ; [CPU_] |387| 
         00000265 00A3 
    3322                      ; branchcc occurs ; [] |387| 
    3323                      .dwpsn  file "C:/ti/motorware/motorware_1_01_00_18/sw/modules/hal/boards/hvkit_rev1p1/f28x/f2802x/src
    3324 00000266 8310-         MOVL      XAR5,@_halHandle      ; [CPU_] |242| 
    3325                      .dwpsn  file "C:/ti/motorware/motorware_1_01_00_18/sw/modules/hal/boards/hvkit_rev1p1/f28x/f2802x/src
    3326 00000267 DD7C          ADDB      XAR5,#124             ; [CPU_] |244| 
    3327 00000268 C4C5          MOVL      XAR6,*+XAR5[0]        ; [CPU_] |244| 
    3328 00000269 7622   EALLOW
    3329                      .dwpsn  file "C:/ti/motorware/motorware_1_01_00_18/sw/drivers/pwm/src/32b/f28x/f2802x/pwm.h",line 156
    3330 0000026a DE18          ADDB      XAR6,#24              ; [CPU_] |1567| 
    3331 0000026b 1AC6          OR        *+XAR6[0],#0x0004     ; [CPU_] |1567| 
         0000026c 0004 
    3332 0000026d 761A   EDIS
    3333                      .dwpsn  file "C:/ti/motorware/motorware_1_01_00_18/sw/modules/hal/boards/hvkit_rev1p1/f28x/f2802x/src
    3334 0000026e C4D5          MOVL      XAR6,*+XAR5[2]        ; [CPU_] |245| 
    3335 0000026f 7622   EALLOW
    3336                      .dwpsn  file "C:/ti/motorware/motorware_1_01_00_18/sw/drivers/pwm/src/32b/f28x/f2802x/pwm.h",line 156
    3337 00000270 DE18          ADDB      XAR6,#24              ; [CPU_] |1567| 
    3338 00000271 1AC6          OR        *+XAR6[0],#0x0004     ; [CPU_] |1567| 
         00000272 0004 
    3339 00000273 761A   EDIS
    3340                      .dwpsn  file "C:/ti/motorware/motorware_1_01_00_18/sw/modules/hal/boards/hvkit_rev1p1/f28x/f2802x/src
    3341 00000274 83E5          MOVL      XAR5,*+XAR5[4]        ; [CPU_] |246| 
    3342 00000275 7622   EALLOW
    3343                      .dwpsn  file "C:/ti/motorware/motorware_1_01_00_18/sw/drivers/pwm/src/32b/f28x/f2802x/pwm.h",line 156
    3344 00000276 DD18          ADDB      XAR5,#24              ; [CPU_] |1567| 
    3345 00000277 1AC5          OR        *+XAR5[0],#0x0004     ; [CPU_] |1567| 
         00000278 0004 
    3346 00000279 761A   EDIS
    3347                      .dwpsn  file "C:/ti/motorware/motorware_1_01_00_18/sw/solutions/instaspin_foc/src/proj_lab07.c",line 
    3348 0000027a 2BCB          MOV       *+XAR3[1],#0          ; [CPU_] |391| 
    3349 0000027b FFEF          B         $C$L27,UNC            ; [CPU_] |391| 
         0000027c 008C 
TMS320C2000 Assembler PC v6.2.5 Thu Jun 22 20:41:15 2017

Tools Copyright (c) 1996-2014 Texas Instruments Incorporated
C:\Users\wmj\AppData\Local\Temp\1712410                              PAGE   67

    3350                      ; branch occurs ; [] |391| 
    3351 0000027d       $C$L18:    
    3352 0000027d 761F-         MOVW      DP,#_gMotorVars+7     ; [CPU_U] 
         0000027e 0002 
    3353                      .dwpsn  file "C:/ti/motorware/motorware_1_01_00_18/sw/solutions/instaspin_foc/src/proj_lab07.c",line 
    3354 0000027f 9207-         MOV       AL,@_gMotorVars+7     ; [CPU_] |356| 
    3355 00000280 5201          CMPB      AL,#1                 ; [CPU_] |356| 
    3356 00000281 EC23          BF        $C$L19,EQ             ; [CPU_] |356| 
    3357                      ; branchcc occurs ; [] |356| 
    3358 00000282 761F-         MOVW      DP,#_halHandle        ; [CPU_U] 
         00000283 0000 
    3359                      .dwpsn  file "C:/ti/motorware/motorware_1_01_00_18/sw/modules/hal/boards/hvkit_rev1p1/f28x/f2802x/src
    3360 00000284 0294          MOVB      ACC,#148              ; [CPU_] |708| 
    3361                      .dwpsn  file "C:/ti/motorware/motorware_1_01_00_18/sw/solutions/instaspin_foc/src/proj_lab07.c",line 
    3362 00000285 A310-         MOVL      P,@_halHandle         ; [CPU_] |364| 
    3363                      .dwpsn  file "C:/ti/motorware/motorware_1_01_00_18/sw/modules/hal/boards/hvkit_rev1p1/f28x/f2802x/src
    3364 00000286 07AB          ADDL      ACC,P                 ; [CPU_] |708| 
    3365 00000287 83A9          MOVL      XAR5,ACC              ; [CPU_] |708| 
    3366 00000288 28A9          MOV       AL,#39031             ; [CPU_] |708| 
         00000289 9877 
    3367 0000028a 9BFB          MOV       AH,#251               ; [CPU_] |708| 
    3368 0000028b 1EC5          MOVL      *+XAR5[0],ACC         ; [CPU_] |708| 
    3369 0000028c 28A9          MOV       AL,#27311             ; [CPU_] |708| 
         0000028d 6AAF 
    3370 0000028e 9BFC          MOV       AH,#252               ; [CPU_] |708| 
    3371 0000028f 1ED5          MOVL      *+XAR5[2],ACC         ; [CPU_] |708| 
    3372 00000290 28A9          MOV       AL,#52936             ; [CPU_] |708| 
         00000291 CEC8 
    3373 00000292 9BFA          MOV       AH,#250               ; [CPU_] |708| 
    3374 00000293 1EE5          MOVL      *+XAR5[4],ACC         ; [CPU_] |708| 
    3375                      .dwpsn  file "C:/ti/motorware/motorware_1_01_00_18/sw/modules/hal/boards/hvkit_rev1p1/f28x/f2802x/src
    3376 00000294 029A          MOVB      ACC,#154              ; [CPU_] |712| 
    3377 00000295 07AB          ADDL      ACC,P                 ; [CPU_] |712| 
    3378 00000296 83A9          MOVL      XAR5,ACC              ; [CPU_] |712| 
    3379 00000297 28A9          MOV       AL,#60375             ; [CPU_] |712| 
         00000298 EBD7 
    3380 00000299 9B57          MOV       AH,#87                ; [CPU_] |712| 
    3381 0000029a 1EC5          MOVL      *+XAR5[0],ACC         ; [CPU_] |712| 
    3382 0000029b 28A9          MOV       AL,#1115              ; [CPU_] |712| 
         0000029c 045B 
    3383 0000029d 9B58          MOV       AH,#88                ; [CPU_] |712| 
    3384 0000029e 1ED5          MOVL      *+XAR5[2],ACC         ; [CPU_] |712| 
    3385 0000029f 28A9          MOV       AL,#52446             ; [CPU_] |712| 
         000002a0 CCDE 
    3386 000002a1 9B57          MOV       AH,#87                ; [CPU_] |712| 
    3387 000002a2 1EE5          MOVL      *+XAR5[4],ACC         ; [CPU_] |712| 
    3388 000002a3 6F37          B         $C$L24,UNC            ; [CPU_] |712| 
    3389                      ; branch occurs ; [] |712| 
    3390 000002a4       $C$L19:    
    3391 000002a4 761F-         MOVW      DP,#_halHandle        ; [CPU_U] 
         000002a5 0000 
    3392                      .dwpsn  file "C:/ti/motorware/motorware_1_01_00_18/sw/solutions/instaspin_foc/src/proj_lab07.c",line 
    3393 000002a6 A310-         MOVL      P,@_halHandle         ; [CPU_] |359| 
    3394                      .dwpsn  file "C:/ti/motorware/motorware_1_01_00_18/sw/modules/hal/boards/hvkit_rev1p1/f28x/f2802x/src
    3395 000002a7 D300          MOVB      XAR3,#0               ; [CPU_] |987| 
TMS320C2000 Assembler PC v6.2.5 Thu Jun 22 20:41:15 2017

Tools Copyright (c) 1996-2014 Texas Instruments Incorporated
C:\Users\wmj\AppData\Local\Temp\1712410                              PAGE   68

    3396                      .dwpsn  file "C:/ti/motorware/motorware_1_01_00_18/sw/solutions/instaspin_foc/src/proj_lab07.c",line 
    3397 000002a8 A9A5          MOVL      XAR5,P                ; [CPU_] |359| 
    3398                      .dwpsn  file "C:/ti/motorware/motorware_1_01_00_18/sw/modules/hal/boards/hvkit_rev1p1/f28x/f2802x/src
    3399 000002a9 6F14          B         $C$L21,UNC            ; [CPU_] |987| 
    3400                      ; branch occurs ; [] |987| 
    3401 000002aa       $C$L20:    
    3402                      .dwpsn  file "C:/ti/motorware/motorware_1_01_00_18/sw/modules/hal/boards/hvkit_rev1p1/f28x/f2802x/src
    3403 000002aa 0EA3          MOVU      ACC,AR3               ; [CPU_] |323| 
    3404 000002ab BE94          MOVB      XAR6,#148             ; [CPU_] |323| 
    3405 000002ac FF30          LSL       ACC,1                 ; [CPU_] |323| 
    3406 000002ad 8EA9          MOVL      XAR0,ACC              ; [CPU_] |323| 
    3407 000002ae A0A9          MOVL      ACC,XAR5              ; [CPU_] |323| 
    3408 000002af 07A0          ADDL      ACC,XAR0              ; [CPU_] |323| 
    3409 000002b0 0DA6          ADDU      ACC,AR6               ; [CPU_] |323| 
    3410 000002b1 1EA7          MOVL      XAR7,ACC              ; [CPU_] |323| 
    3411                      .dwpsn  file "C:/ti/motorware/motorware_1_01_00_18/sw/modules/hal/boards/hvkit_rev1p1/f28x/f2802x/src
    3412 000002b2 C4A5          MOVL      XAR6,XAR5             ; [CPU_] |991| 
    3413 000002b3 3AA9          MOVL      ACC,XAR0              ; [CPU_] |991| 
    3414 000002b4 D00A          MOVB      XAR0,#10              ; [CPU_] |991| 
    3415 000002b5 5601          ADDL      XAR6,ACC              ; [CPU_] |991| 
         000002b6 00A6 
    3416 000002b7 C496          MOVL      XAR6,*+XAR6[AR0]      ; [CPU_] |991| 
    3417                      .dwpsn  file "C:/ti/motorware/motorware_1_01_00_18/sw/modules/hal/boards/hvkit_rev1p1/f28x/f2802x/src
    3418 000002b8 87C7          MOVL      XT,*+XAR7[0]          ; [CPU_] |323| 
    3419                      .dwpsn  file "C:/ti/motorware/motorware_1_01_00_18/sw/modules/hal/boards/hvkit_rev1p1/f28x/f2802x/src
    3420 000002b9 DB01          ADDB      XAR3,#1               ; [CPU_] |987| 
    3421                      .dwpsn  file "C:/ti/motorware/motorware_1_01_00_18/sw/modules/hal/boards/hvkit_rev1p1/f28x/f2802x/src
    3422 000002ba ABA9          MOVL      ACC,XT                ; [CPU_] |991| 
    3423 000002bb 07C6          ADDL      ACC,*+XAR6[0]         ; [CPU_] |991| 
    3424                      .dwpsn  file "C:/ti/motorware/motorware_1_01_00_18/sw/modules/hal/boards/hvkit_rev1p1/f28x/f2802x/src
    3425 000002bc 1EC7          MOVL      *+XAR7[0],ACC         ; [CPU_] |708| 
    3426 000002bd       $C$L21:    
    3427                      .dwpsn  file "C:/ti/motorware/motorware_1_01_00_18/sw/modules/hal/boards/hvkit_rev1p1/f28x/f2802x/src
    3428 000002bd D0A6          MOVB      XAR0,#166             ; [CPU_] |987| 
    3429 000002be 92A3          MOV       AL,AR3                ; [CPU_] |987| 
    3430 000002bf 5495          CMP       AL,*+XAR5[AR0]        ; [CPU_] |987| 
    3431 000002c0 68EA          B         $C$L20,LO             ; [CPU_] |987| 
    3432                      ; branchcc occurs ; [] |987| 
    3433                      .dwpsn  file "C:/ti/motorware/motorware_1_01_00_18/sw/modules/hal/boards/hvkit_rev1p1/f28x/f2802x/src
    3434 000002c1 D300          MOVB      XAR3,#0               ; [CPU_] |998| 
    3435 000002c2 6F14          B         $C$L23,UNC            ; [CPU_] |998| 
    3436                      ; branch occurs ; [] |998| 
    3437 000002c3       $C$L22:    
    3438                      .dwpsn  file "C:/ti/motorware/motorware_1_01_00_18/sw/modules/hal/boards/hvkit_rev1p1/f28x/f2802x/src
    3439 000002c3 0EA3          MOVU      ACC,AR3               ; [CPU_] |327| 
    3440 000002c4 BE9A          MOVB      XAR6,#154             ; [CPU_] |327| 
    3441 000002c5 FF30          LSL       ACC,1                 ; [CPU_] |327| 
    3442 000002c6 8EA9          MOVL      XAR0,ACC              ; [CPU_] |327| 
    3443 000002c7 A0A9          MOVL      ACC,XAR5              ; [CPU_] |327| 
    3444 000002c8 07A0          ADDL      ACC,XAR0              ; [CPU_] |327| 
    3445 000002c9 0DA6          ADDU      ACC,AR6               ; [CPU_] |327| 
    3446 000002ca 1EA7          MOVL      XAR7,ACC              ; [CPU_] |327| 
    3447                      .dwpsn  file "C:/ti/motorware/motorware_1_01_00_18/sw/modules/hal/boards/hvkit_rev1p1/f28x/f2802x/src
    3448 000002cb C4A5          MOVL      XAR6,XAR5             ; [CPU_] |1002| 
    3449 000002cc 3AA9          MOVL      ACC,XAR0              ; [CPU_] |1002| 
TMS320C2000 Assembler PC v6.2.5 Thu Jun 22 20:41:15 2017

Tools Copyright (c) 1996-2014 Texas Instruments Incorporated
C:\Users\wmj\AppData\Local\Temp\1712410                              PAGE   69

    3450 000002cd D040          MOVB      XAR0,#64              ; [CPU_] |1002| 
    3451 000002ce 5601          ADDL      XAR6,ACC              ; [CPU_] |1002| 
         000002cf 00A6 
    3452 000002d0 C496          MOVL      XAR6,*+XAR6[AR0]      ; [CPU_] |1002| 
    3453                      .dwpsn  file "C:/ti/motorware/motorware_1_01_00_18/sw/modules/hal/boards/hvkit_rev1p1/f28x/f2802x/src
    3454 000002d1 87C7          MOVL      XT,*+XAR7[0]          ; [CPU_] |327| 
    3455                      .dwpsn  file "C:/ti/motorware/motorware_1_01_00_18/sw/modules/hal/boards/hvkit_rev1p1/f28x/f2802x/src
    3456 000002d2 DB01          ADDB      XAR3,#1               ; [CPU_] |998| 
    3457                      .dwpsn  file "C:/ti/motorware/motorware_1_01_00_18/sw/modules/hal/boards/hvkit_rev1p1/f28x/f2802x/src
    3458 000002d3 ABA9          MOVL      ACC,XT                ; [CPU_] |1002| 
    3459 000002d4 07C6          ADDL      ACC,*+XAR6[0]         ; [CPU_] |1002| 
    3460                      .dwpsn  file "C:/ti/motorware/motorware_1_01_00_18/sw/modules/hal/boards/hvkit_rev1p1/f28x/f2802x/src
    3461 000002d5 1EC7          MOVL      *+XAR7[0],ACC         ; [CPU_] |712| 
    3462 000002d6       $C$L23:    
    3463                      .dwpsn  file "C:/ti/motorware/motorware_1_01_00_18/sw/modules/hal/boards/hvkit_rev1p1/f28x/f2802x/src
    3464 000002d6 D0A7          MOVB      XAR0,#167             ; [CPU_] |998| 
    3465 000002d7 92A3          MOV       AL,AR3                ; [CPU_] |998| 
    3466 000002d8 5495          CMP       AL,*+XAR5[AR0]        ; [CPU_] |998| 
    3467 000002d9 68EA          B         $C$L22,LO             ; [CPU_] |998| 
    3468                      ; branchcc occurs ; [] |998| 
    3469 000002da       $C$L24:    
    3470                      .dwpsn  file "C:/ti/motorware/motorware_1_01_00_18/sw/solutions/instaspin_foc/src/proj_lab07.c",line 
    3471 000002da 76C0-         MOVL      XAR7,#_gMotorVars     ; [CPU_U] |375| 
         000002db 0080 
    3472                      .dwpsn  file "C:/ti/motorware/motorware_1_01_00_18/sw/modules/hal/boards/hvkit_rev1p1/f28x/f2802x/src
    3473 000002dc 0294          MOVB      ACC,#148              ; [CPU_] |323| 
    3474                      .dwpsn  file "C:/ti/motorware/motorware_1_01_00_18/sw/solutions/instaspin_foc/src/proj_lab07.c",line 
    3475 000002dd C4A7          MOVL      XAR6,XAR7             ; [CPU_] |375| 
    3476                      .dwpsn  file "C:/ti/motorware/motorware_1_01_00_18/sw/modules/hal/boards/hvkit_rev1p1/f28x/f2802x/src
    3477 000002de 07AB          ADDL      ACC,P                 ; [CPU_] |323| 
    3478 000002df 83A9          MOVL      XAR5,ACC              ; [CPU_] |323| 
    3479 000002e0 06C5          MOVL      ACC,*+XAR5[0]         ; [CPU_] |323| 
    3480                      .dwpsn  file "C:/ti/motorware/motorware_1_01_00_18/sw/solutions/instaspin_foc/src/proj_lab07.c",line 
    3481 000002e1 DE5E          ADDB      XAR6,#94              ; [CPU_] |375| 
    3482 000002e2 1EC6          MOVL      *+XAR6[0],ACC         ; [CPU_] |375| 
    3483                      .dwpsn  file "C:/ti/motorware/motorware_1_01_00_18/sw/solutions/instaspin_foc/src/proj_lab07.c",line 
    3484 000002e3 DF64          ADDB      XAR7,#100             ; [CPU_] |380| 
    3485                      .dwpsn  file "C:/ti/motorware/motorware_1_01_00_18/sw/modules/hal/boards/hvkit_rev1p1/f28x/f2802x/src
    3486 000002e4 06D5          MOVL      ACC,*+XAR5[2]         ; [CPU_] |323| 
    3487                      .dwpsn  file "C:/ti/motorware/motorware_1_01_00_18/sw/solutions/instaspin_foc/src/proj_lab07.c",line 
    3488 000002e5 1ED6          MOVL      *+XAR6[2],ACC         ; [CPU_] |376| 
    3489                      .dwpsn  file "C:/ti/motorware/motorware_1_01_00_18/sw/modules/hal/boards/hvkit_rev1p1/f28x/f2802x/src
    3490 000002e6 06E5          MOVL      ACC,*+XAR5[4]         ; [CPU_] |323| 
    3491                      .dwpsn  file "C:/ti/motorware/motorware_1_01_00_18/sw/solutions/instaspin_foc/src/proj_lab07.c",line 
    3492 000002e7 1EE6          MOVL      *+XAR6[4],ACC         ; [CPU_] |377| 
    3493                      .dwpsn  file "C:/ti/motorware/motorware_1_01_00_18/sw/modules/hal/boards/hvkit_rev1p1/f28x/f2802x/src
    3494 000002e8 029A          MOVB      ACC,#154              ; [CPU_] |327| 
    3495 000002e9 07AB          ADDL      ACC,P                 ; [CPU_] |327| 
    3496 000002ea 83A9          MOVL      XAR5,ACC              ; [CPU_] |327| 
    3497 000002eb 06C5          MOVL      ACC,*+XAR5[0]         ; [CPU_] |327| 
    3498                      .dwpsn  file "C:/ti/motorware/motorware_1_01_00_18/sw/solutions/instaspin_foc/src/proj_lab07.c",line 
    3499 000002ec 1EC7          MOVL      *+XAR7[0],ACC         ; [CPU_] |380| 
    3500                      .dwpsn  file "C:/ti/motorware/motorware_1_01_00_18/sw/modules/hal/boards/hvkit_rev1p1/f28x/f2802x/src
    3501 000002ed 06D5          MOVL      ACC,*+XAR5[2]         ; [CPU_] |327| 
    3502                      .dwpsn  file "C:/ti/motorware/motorware_1_01_00_18/sw/solutions/instaspin_foc/src/proj_lab07.c",line 
TMS320C2000 Assembler PC v6.2.5 Thu Jun 22 20:41:15 2017

Tools Copyright (c) 1996-2014 Texas Instruments Incorporated
C:\Users\wmj\AppData\Local\Temp\1712410                              PAGE   70

    3503 000002ee 1ED7          MOVL      *+XAR7[2],ACC         ; [CPU_] |381| 
    3504                      .dwpsn  file "C:/ti/motorware/motorware_1_01_00_18/sw/modules/hal/boards/hvkit_rev1p1/f28x/f2802x/src
    3505 000002ef 06E5          MOVL      ACC,*+XAR5[4]         ; [CPU_] |327| 
    3506                      .dwpsn  file "C:/ti/motorware/motorware_1_01_00_18/sw/modules/hal/boards/hvkit_rev1p1/f28x/f2802x/src
    3507 000002f0 A9A5          MOVL      XAR5,P                ; [CPU_] |280| 
    3508                      .dwpsn  file "C:/ti/motorware/motorware_1_01_00_18/sw/solutions/instaspin_foc/src/proj_lab07.c",line 
    3509 000002f1 1EE7          MOVL      *+XAR7[4],ACC         ; [CPU_] |382| 
    3510                      .dwpsn  file "C:/ti/motorware/motorware_1_01_00_18/sw/drivers/pwm/src/32b/f28x/f2802x/pwm.h",line 955
    3511 000002f2 6F02          B         $C$L26,UNC            ; [CPU_] |955| 
    3512                      ; branch occurs ; [] |955| 
    3513 000002f3       $C$L25:    
    3514                      .dwpsn  file "C:/ti/motorware/motorware_1_01_00_18/sw/modules/hal/boards/hvkit_rev1p1/f28x/f2802x/src
    3515 000002f3 8310-         MOVL      XAR5,@_halHandle      ; [CPU_] |278| 
    3516 000002f4       $C$L26:    
    3517                      .dwpsn  file "C:/ti/motorware/motorware_1_01_00_18/sw/modules/hal/boards/hvkit_rev1p1/f28x/f2802x/src
    3518 000002f4 DD7C          ADDB      XAR5,#124             ; [CPU_] |280| 
    3519 000002f5 C4C5          MOVL      XAR6,*+XAR5[0]        ; [CPU_] |280| 
    3520 000002f6 7622   EALLOW
    3521                      .dwpsn  file "C:/ti/motorware/motorware_1_01_00_18/sw/drivers/pwm/src/32b/f28x/f2802x/pwm.h",line 951
    3522 000002f7 D017          MOVB      XAR0,#23              ; [CPU_] |951| 
    3523 000002f8 56BF          MOVB      *+XAR6[AR0],#4,UNC    ; [CPU_] |951| 
         000002f9 0496 
    3524 000002fa 761A   EDIS
    3525                      .dwpsn  file "C:/ti/motorware/motorware_1_01_00_18/sw/modules/hal/boards/hvkit_rev1p1/f28x/f2802x/src
    3526 000002fb C4D5          MOVL      XAR6,*+XAR5[2]        ; [CPU_] |281| 
    3527 000002fc 7622   EALLOW
    3528                      .dwpsn  file "C:/ti/motorware/motorware_1_01_00_18/sw/drivers/pwm/src/32b/f28x/f2802x/pwm.h",line 951
    3529 000002fd D017          MOVB      XAR0,#23              ; [CPU_] |951| 
    3530 000002fe 56BF          MOVB      *+XAR6[AR0],#4,UNC    ; [CPU_] |951| 
         000002ff 0496 
    3531 00000300 761A   EDIS
    3532                      .dwpsn  file "C:/ti/motorware/motorware_1_01_00_18/sw/modules/hal/boards/hvkit_rev1p1/f28x/f2802x/src
    3533 00000301 83E5          MOVL      XAR5,*+XAR5[4]        ; [CPU_] |282| 
    3534 00000302 7622   EALLOW
    3535                      .dwpsn  file "C:/ti/motorware/motorware_1_01_00_18/sw/drivers/pwm/src/32b/f28x/f2802x/pwm.h",line 951
    3536 00000303 D017          MOVB      XAR0,#23              ; [CPU_] |951| 
    3537 00000304 56BF          MOVB      *+XAR5[AR0],#4,UNC    ; [CPU_] |951| 
         00000305 0495 
    3538 00000306 761A   EDIS
    3539 00000307       $C$L27:    
    3540                      .dwpsn  file "C:/ti/motorware/motorware_1_01_00_18/sw/solutions/instaspin_foc/src/proj_lab07.c",line 
    3541 00000307 D0F5          MOVB      XAR0,#245             ; [CPU_] |394| 
    3542 00000308 9294          MOV       AL,*+XAR4[AR0]        ; [CPU_] |394| 
    3543 00000309 5201          CMPB      AL,#1                 ; [CPU_] |394| 
    3544 0000030a ED28          BF        $C$L29,NEQ            ; [CPU_] |394| 
    3545                      ; branchcc occurs ; [] |394| 
    3546 0000030b 924B          MOV       AL,*-SP[11]           ; [CPU_] 
    3547 0000030c 5202          CMPB      AL,#2                 ; [CPU_] |394| 
    3548 0000030d 6425          B         $C$L29,LT             ; [CPU_] |394| 
    3549                      ; branchcc occurs ; [] |394| 
    3550 0000030e 761F-         MOVW      DP,#_gMotorVars+19    ; [CPU_U] 
         0000030f 0002 
    3551 00000310 9213-         MOV       AL,@_gMotorVars+19    ; [CPU_] |394| 
    3552 00000311 5206          CMPB      AL,#6                 ; [CPU_] |394| 
    3553 00000312 ED20          BF        $C$L29,NEQ            ; [CPU_] |394| 
TMS320C2000 Assembler PC v6.2.5 Thu Jun 22 20:41:15 2017

Tools Copyright (c) 1996-2014 Texas Instruments Incorporated
C:\Users\wmj\AppData\Local\Temp\1712410                              PAGE   71

    3554                      ; branchcc occurs ; [] |394| 
    3555 00000313 FF69          SPM       #0                    ; [CPU_] 
    3556                      .dwpsn  file "C:/ti/motorware/motorware_1_01_00_18/sw/solutions/instaspin_foc/src/proj_lab07.c",line 
    3557              $C$DW$370       .dwtag  DW_TAG_TI_branch
    3558                      .dwattr $C$DW$370, DW_AT_low_pc(0x00)
    3559                      .dwattr $C$DW$370, DW_AT_name("_USER_softwareUpdate1p6")
    3560                      .dwattr $C$DW$370, DW_AT_TI_call
    3561 00000314 7640!         LCR       #_USER_softwareUpdate1p6 ; [CPU_] |399| 
         00000315 0000 
    3562                      ; call occurs [#_USER_softwareUpdate1p6] ; [] |399| 
    3563 00000316 6F1C          B         $C$L29,UNC            ; [CPU_] |399| 
    3564                      ; branch occurs ; [] |399| 
    3565 00000317       $C$L28:    
    3566                      .dwpsn  file "C:/ti/motorware/motorware_1_01_00_18/sw/modules/ctrl/src/32b/ctrl.h",line 1218,column 3
    3567 00000317 D0F0          MOVB      XAR0,#240             ; [CPU_] |1218| 
    3568 00000318 761F-         MOVW      DP,#_gMotorVars       ; [CPU_U] 
         00000319 0002 
    3569 0000031a 2B94          MOV       *+XAR4[AR0],#0        ; [CPU_] |1218| 
    3570                      .dwpsn  file "C:/ti/motorware/motorware_1_01_00_18/sw/solutions/instaspin_foc/src/proj_lab07.c",line 
    3571 0000031b 2B00-         MOV       @_gMotorVars,#0       ; [CPU_] |332| 
    3572 0000031c 761F-         MOVW      DP,#_halHandle        ; [CPU_U] 
         0000031d 0000 
    3573                      .dwpsn  file "C:/ti/motorware/motorware_1_01_00_18/sw/modules/hal/boards/hvkit_rev1p1/f28x/f2802x/src
    3574 0000031e 8A10-         MOVL      XAR4,@_halHandle      ; [CPU_] |242| 
    3575                      .dwpsn  file "C:/ti/motorware/motorware_1_01_00_18/sw/modules/hal/boards/hvkit_rev1p1/f28x/f2802x/src
    3576 0000031f DC7C          ADDB      XAR4,#124             ; [CPU_] |244| 
    3577 00000320 83C4          MOVL      XAR5,*+XAR4[0]        ; [CPU_] |244| 
    3578 00000321 7622   EALLOW
    3579                      .dwpsn  file "C:/ti/motorware/motorware_1_01_00_18/sw/drivers/pwm/src/32b/f28x/f2802x/pwm.h",line 156
    3580 00000322 DD18          ADDB      XAR5,#24              ; [CPU_] |1567| 
    3581 00000323 1AC5          OR        *+XAR5[0],#0x0004     ; [CPU_] |1567| 
         00000324 0004 
    3582 00000325 761A   EDIS
    3583                      .dwpsn  file "C:/ti/motorware/motorware_1_01_00_18/sw/modules/hal/boards/hvkit_rev1p1/f28x/f2802x/src
    3584 00000326 83D4          MOVL      XAR5,*+XAR4[2]        ; [CPU_] |245| 
    3585 00000327 7622   EALLOW
    3586                      .dwpsn  file "C:/ti/motorware/motorware_1_01_00_18/sw/drivers/pwm/src/32b/f28x/f2802x/pwm.h",line 156
    3587 00000328 DD18          ADDB      XAR5,#24              ; [CPU_] |1567| 
    3588 00000329 1AC5          OR        *+XAR5[0],#0x0004     ; [CPU_] |1567| 
         0000032a 0004 
    3589 0000032b 761A   EDIS
    3590                      .dwpsn  file "C:/ti/motorware/motorware_1_01_00_18/sw/modules/hal/boards/hvkit_rev1p1/f28x/f2802x/src
    3591 0000032c 8AE4          MOVL      XAR4,*+XAR4[4]        ; [CPU_] |246| 
    3592 0000032d 7622   EALLOW
    3593                      .dwpsn  file "C:/ti/motorware/motorware_1_01_00_18/sw/drivers/pwm/src/32b/f28x/f2802x/pwm.h",line 156
    3594 0000032e DC18          ADDB      XAR4,#24              ; [CPU_] |1567| 
    3595 0000032f 1AC4          OR        *+XAR4[0],#0x0004     ; [CPU_] |1567| 
         00000330 0004 
    3596 00000331 761A   EDIS
    3597 00000332       $C$L29:    
    3598                      .dwpsn  file "C:/ti/motorware/motorware_1_01_00_18/sw/solutions/instaspin_foc/src/proj_lab07.c",line 
    3599 00000332 D018          MOVB      XAR0,#24              ; [CPU_] |406| 
    3600 00000333 FF69          SPM       #0                    ; [CPU_] 
    3601 00000334 8A91          MOVL      XAR4,*+XAR1[AR0]      ; [CPU_] |406| 
    3602              $C$DW$371       .dwtag  DW_TAG_TI_branch
TMS320C2000 Assembler PC v6.2.5 Thu Jun 22 20:41:15 2017

Tools Copyright (c) 1996-2014 Texas Instruments Incorporated
C:\Users\wmj\AppData\Local\Temp\1712410                              PAGE   72

    3603                      .dwattr $C$DW$371, DW_AT_low_pc(0x00)
    3604                      .dwattr $C$DW$371, DW_AT_name("_EST_isMotorIdentified")
    3605                      .dwattr $C$DW$371, DW_AT_TI_call
    3606 00000335 7640!         LCR       #_EST_isMotorIdentified ; [CPU_] |406| 
         00000336 0000 
    3607                      ; call occurs [#_EST_isMotorIdentified] ; [] |406| 
    3608 00000337 5200          CMPB      AL,#0                 ; [CPU_] |406| 
    3609 00000338 EC3A          BF        $C$L30,EQ             ; [CPU_] |406| 
    3610                      ; branchcc occurs ; [] |406| 
    3611                      .dwpsn  file "C:/ti/motorware/motorware_1_01_00_18/sw/solutions/instaspin_foc/src/proj_lab07.c",line 
    3612 00000339 D018          MOVB      XAR0,#24              ; [CPU_] |409| 
    3613 0000033a 761F-         MOVW      DP,#_gMaxCurrentSlope ; [CPU_U] 
         0000033b 0000 
    3614 0000033c 8A91          MOVL      XAR4,*+XAR1[AR0]      ; [CPU_] |409| 
    3615 0000033d 0604-         MOVL      ACC,@_gMaxCurrentSlope ; [CPU_] |409| 
    3616              $C$DW$372       .dwtag  DW_TAG_TI_branch
    3617                      .dwattr $C$DW$372, DW_AT_low_pc(0x00)
    3618                      .dwattr $C$DW$372, DW_AT_name("_EST_setMaxCurrentSlope_pu")
    3619                      .dwattr $C$DW$372, DW_AT_TI_call
    3620 0000033e 7640!         LCR       #_EST_setMaxCurrentSlope_pu ; [CPU_] |409| 
         0000033f 0000 
    3621                      ; call occurs [#_EST_setMaxCurrentSlope_pu] ; [] |409| 
    3622                      .dwpsn  file "C:/ti/motorware/motorware_1_01_00_18/sw/solutions/instaspin_foc/src/proj_lab07.c",line 
    3623 00000340 8DC0-         MOVL      XAR3,#_gMotorVars     ; [CPU_U] |410| 
         00000341 0080 
    3624 00000342 761F-         MOVW      DP,#_ctrlHandle       ; [CPU_U] 
         00000343 0000 
    3625                      .dwpsn  file "C:/ti/motorware/motorware_1_01_00_18/sw/solutions/instaspin_foc/src/proj_lab07.c",line 
    3626 00000344 D01A          MOVB      XAR0,#26              ; [CPU_] |413| 
    3627                      .dwpsn  file "C:/ti/motorware/motorware_1_01_00_18/sw/solutions/instaspin_foc/src/proj_lab07.c",line 
    3628 00000345 56BF          MOVB      *+XAR3[2],#1,UNC      ; [CPU_] |410| 
         00000346 01D3 
    3629                      .dwpsn  file "C:/ti/motorware/motorware_1_01_00_18/sw/solutions/instaspin_foc/src/proj_lab07.c",line 
    3630 00000347 8A1A-         MOVL      XAR4,@_ctrlHandle     ; [CPU_] |413| 
    3631 00000348 0693          MOVL      ACC,*+XAR3[AR0]       ; [CPU_] |413| 
    3632              $C$DW$373       .dwtag  DW_TAG_TI_branch
    3633                      .dwattr $C$DW$373, DW_AT_low_pc(0x00)
    3634                      .dwattr $C$DW$373, DW_AT_name("_CTRL_setSpd_ref_krpm")
    3635                      .dwattr $C$DW$373, DW_AT_TI_call
    3636 00000349 7640!         LCR       #_CTRL_setSpd_ref_krpm ; [CPU_] |413| 
         0000034a 0000 
    3637                      ; call occurs [#_CTRL_setSpd_ref_krpm] ; [] |413| 
    3638 0000034b 761F-         MOVW      DP,#_ctrlHandle       ; [CPU_U] 
         0000034c 0000 
    3639                      .dwpsn  file "C:/ti/motorware/motorware_1_01_00_18/sw/solutions/instaspin_foc/src/proj_lab07.c",line 
    3640 0000034d D01E          MOVB      XAR0,#30              ; [CPU_] |416| 
    3641 0000034e 8F40          MOVL      XAR5,#5592            ; [CPU_U] |416| 
         0000034f 15D8 
    3642 00000350 A0AC          MOVL      XT,XAR5               ; [CPU_] |416| 
    3643 00000351 8A1A-         MOVL      XAR4,@_ctrlHandle     ; [CPU_] |416| 
    3644 00000352 5605          IMPYL     P,XT,*+XAR3[AR0]      ; [CPU_] |416| 
         00000353 0093 
    3645 00000354 5663          QMPYL     ACC,XT,*+XAR3[AR0]    ; [CPU_] |416| 
         00000355 0093 
    3646                      .dwpsn  file "C:/ti/motorware/motorware_1_01_00_18/sw/modules/ctrl/src/32b/ctrl.h",line 1560,column 3
TMS320C2000 Assembler PC v6.2.5 Thu Jun 22 20:41:15 2017

Tools Copyright (c) 1996-2014 Texas Instruments Incorporated
C:\Users\wmj\AppData\Local\Temp\1712410                              PAGE   73

    3647 00000356 D076          MOVB      XAR0,#118             ; [CPU_] |1560| 
    3648                      .dwpsn  file "C:/ti/motorware/motorware_1_01_00_18/sw/solutions/instaspin_foc/src/proj_lab07.c",line 
    3649 00000357 56A7          LSL64     ACC:P,#8              ; [CPU_] |416| 
    3650                      .dwpsn  file "C:/ti/motorware/motorware_1_01_00_18/sw/modules/ctrl/src/32b/ctrl.h",line 1560,column 3
    3651 00000358 1E94          MOVL      *+XAR4[AR0],ACC       ; [CPU_] |1560| 
    3652                      .dwpsn  file "C:/ti/motorware/motorware_1_01_00_18/sw/solutions/instaspin_foc/src/proj_lab07.c",line 
    3653 00000359 9201-         MOV       AL,@_Flag_Latch_softwareUpdate ; [CPU_] |418| 
    3654 0000035a EC24          BF        $C$L31,EQ             ; [CPU_] |418| 
    3655                      ; branchcc occurs ; [] |418| 
    3656                      .dwpsn  file "C:/ti/motorware/motorware_1_01_00_18/sw/solutions/instaspin_foc/src/proj_lab07.c",line 
    3657 0000035b 2B01-         MOV       @_Flag_Latch_softwareUpdate,#0 ; [CPU_] |420| 
    3658                      .dwpsn  file "C:/ti/motorware/motorware_1_01_00_18/sw/solutions/instaspin_foc/src/proj_lab07.c",line 
    3659              $C$DW$374       .dwtag  DW_TAG_TI_branch
    3660                      .dwattr $C$DW$374, DW_AT_low_pc(0x00)
    3661                      .dwattr $C$DW$374, DW_AT_name("_USER_calcPIgains")
    3662                      .dwattr $C$DW$374, DW_AT_TI_call
    3663 0000035c 7640!         LCR       #_USER_calcPIgains    ; [CPU_] |422| 
         0000035d 0000 
    3664                      ; call occurs [#_USER_calcPIgains] ; [] |422| 
    3665 0000035e 761F-         MOVW      DP,#_ctrlHandle       ; [CPU_U] 
         0000035f 0000 
    3666                      .dwpsn  file "C:/ti/motorware/motorware_1_01_00_18/sw/solutions/instaspin_foc/src/proj_lab07.c",line 
    3667 00000360 8A1A-         MOVL      XAR4,@_ctrlHandle     ; [CPU_] |425| 
    3668 00000361 D0CA          MOVB      XAR0,#202             ; [CPU_] |425| 
    3669 00000362 0694          MOVL      ACC,*+XAR4[AR0]       ; [CPU_] |425| 
    3670 00000363 D04A          MOVB      XAR0,#74              ; [CPU_] |425| 
    3671 00000364 1E93          MOVL      *+XAR3[AR0],ACC       ; [CPU_] |425| 
    3672                      .dwpsn  file "C:/ti/motorware/motorware_1_01_00_18/sw/solutions/instaspin_foc/src/proj_lab07.c",line 
    3673 00000365 D0D0          MOVB      XAR0,#208             ; [CPU_] |426| 
    3674 00000366 0694          MOVL      ACC,*+XAR4[AR0]       ; [CPU_] |426| 
    3675 00000367 D04C          MOVB      XAR0,#76              ; [CPU_] |426| 
    3676 00000368 1E93          MOVL      *+XAR3[AR0],ACC       ; [CPU_] |426| 
    3677                      .dwpsn  file "C:/ti/motorware/motorware_1_01_00_18/sw/solutions/instaspin_foc/src/proj_lab07.c",line 
    3678 00000369 D0CE          MOVB      XAR0,#206             ; [CPU_] |429| 
    3679 0000036a 0694          MOVL      ACC,*+XAR4[AR0]       ; [CPU_] |429| 
    3680 0000036b D046          MOVB      XAR0,#70              ; [CPU_] |429| 
    3681 0000036c 1E93          MOVL      *+XAR3[AR0],ACC       ; [CPU_] |429| 
    3682                      .dwpsn  file "C:/ti/motorware/motorware_1_01_00_18/sw/solutions/instaspin_foc/src/proj_lab07.c",line 
    3683 0000036d D0D4          MOVB      XAR0,#212             ; [CPU_] |430| 
    3684 0000036e 0694          MOVL      ACC,*+XAR4[AR0]       ; [CPU_] |430| 
    3685 0000036f D048          MOVB      XAR0,#72              ; [CPU_] |430| 
    3686 00000370 1E93          MOVL      *+XAR3[AR0],ACC       ; [CPU_] |430| 
    3687 00000371 6F0D          B         $C$L31,UNC            ; [CPU_] |430| 
    3688                      ; branch occurs ; [] |430| 
    3689 00000372       $C$L30:    
    3690                      .dwpsn  file "C:/ti/motorware/motorware_1_01_00_18/sw/solutions/instaspin_foc/src/proj_lab07.c",line 
    3691 00000372 D018          MOVB      XAR0,#24              ; [CPU_] |439| 
    3692 00000373 761F-         MOVW      DP,#_Flag_Latch_softwareUpdate ; [CPU_U] 
         00000374 0000 
    3693 00000375 8A91          MOVL      XAR4,*+XAR1[AR0]      ; [CPU_] |439| 
    3694                      .dwpsn  file "C:/ti/motorware/motorware_1_01_00_18/sw/solutions/instaspin_foc/src/proj_lab07.c",line 
    3695 00000376 56BF-         MOVB      @_Flag_Latch_softwareUpdate,#1,UNC ; [CPU_] |436| 
         00000377 0101 
    3696                      .dwpsn  file "C:/ti/motorware/motorware_1_01_00_18/sw/solutions/instaspin_foc/src/proj_lab07.c",line 
    3697              $C$DW$375       .dwtag  DW_TAG_TI_branch
TMS320C2000 Assembler PC v6.2.5 Thu Jun 22 20:41:15 2017

Tools Copyright (c) 1996-2014 Texas Instruments Incorporated
C:\Users\wmj\AppData\Local\Temp\1712410                              PAGE   74

    3698                      .dwattr $C$DW$375, DW_AT_low_pc(0x00)
    3699                      .dwattr $C$DW$375, DW_AT_name("_EST_getMaxCurrentSlope_pu")
    3700                      .dwattr $C$DW$375, DW_AT_TI_call
    3701 00000378 7640!         LCR       #_EST_getMaxCurrentSlope_pu ; [CPU_] |439| 
         00000379 0000 
    3702                      ; call occurs [#_EST_getMaxCurrentSlope_pu] ; [] |439| 
    3703 0000037a 761F-         MOVW      DP,#_gMaxCurrentSlope ; [CPU_U] 
         0000037b 0000 
    3704 0000037c 1E04-         MOVL      @_gMaxCurrentSlope,ACC ; [CPU_] |439| 
    3705 0000037d 8A1A-         MOVL      XAR4,@_ctrlHandle     ; [CPU_] |439| 
    3706 0000037e       $C$L31:    
    3707                      .dwpsn  file "C:/ti/motorware/motorware_1_01_00_18/sw/solutions/instaspin_foc/src/proj_lab07.c",line 
    3708 0000037e 9202-         MOV       AL,@_gCounter_updateGlobals ; [CPU_] |444| 
    3709 0000037f EC07          BF        $C$L32,EQ             ; [CPU_] |444| 
    3710                      ; branchcc occurs ; [] |444| 
    3711                      .dwpsn  file "C:/ti/motorware/motorware_1_01_00_18/sw/solutions/instaspin_foc/src/proj_lab07.c",line 
    3712 00000380 2B02-         MOV       @_gCounter_updateGlobals,#0 ; [CPU_] |447| 
    3713                      .dwpsn  file "C:/ti/motorware/motorware_1_01_00_18/sw/solutions/instaspin_foc/src/proj_lab07.c",line 
    3714              $C$DW$376       .dwtag  DW_TAG_TI_branch
    3715                      .dwattr $C$DW$376, DW_AT_low_pc(0x00)
    3716                      .dwattr $C$DW$376, DW_AT_name("_updateGlobalVariables_motor")
    3717                      .dwattr $C$DW$376, DW_AT_TI_call
    3718 00000381 7640'         LCR       #_updateGlobalVariables_motor ; [CPU_] |449| 
         00000382 0021 
    3719                      ; call occurs [#_updateGlobalVariables_motor] ; [] |449| 
    3720 00000383 761F-         MOVW      DP,#_ctrlHandle       ; [CPU_U] 
         00000384 0000 
    3721 00000385 8A1A-         MOVL      XAR4,@_ctrlHandle     ; [CPU_] |449| 
    3722 00000386       $C$L32:    
    3723                      .dwpsn  file "C:/ti/motorware/motorware_1_01_00_18/sw/solutions/instaspin_foc/src/proj_lab07.c",line 
    3724              $C$DW$377       .dwtag  DW_TAG_TI_branch
    3725                      .dwattr $C$DW$377, DW_AT_low_pc(0x00)
    3726                      .dwattr $C$DW$377, DW_AT_name("_updateKpKiGains")
    3727                      .dwattr $C$DW$377, DW_AT_TI_call
    3728 00000386 7640'         LCR       #_updateKpKiGains     ; [CPU_] |453| 
         00000387 0000 
    3729                      ; call occurs [#_updateKpKiGains] ; [] |453| 
    3730 00000388 761F-         MOVW      DP,#_ctrlHandle       ; [CPU_U] 
         00000389 0000 
    3731                      .dwpsn  file "C:/ti/motorware/motorware_1_01_00_18/sw/solutions/instaspin_foc/src/proj_lab07.c",line 
    3732 0000038a 8A1A-         MOVL      XAR4,@_ctrlHandle     ; [CPU_] |456| 
    3733              $C$DW$378       .dwtag  DW_TAG_TI_branch
    3734                      .dwattr $C$DW$378, DW_AT_low_pc(0x00)
    3735                      .dwattr $C$DW$378, DW_AT_name("_runRsOnLine")
    3736                      .dwattr $C$DW$378, DW_AT_TI_call
    3737 0000038b 7640'         LCR       #_runRsOnLine         ; [CPU_] |456| 
         0000038c 00EB 
    3738                      ; call occurs [#_runRsOnLine] ; [] |456| 
    3739                      .dwpsn  file "C:/ti/motorware/motorware_1_01_00_18/sw/solutions/instaspin_foc/src/proj_lab07.c",line 
    3740              $C$DW$379       .dwtag  DW_TAG_TI_branch
    3741                      .dwattr $C$DW$379, DW_AT_low_pc(0x00)
    3742                      .dwattr $C$DW$379, DW_AT_name("_updateCPUusage")
    3743                      .dwattr $C$DW$379, DW_AT_TI_call
    3744 0000038d 7640'         LCR       #_updateCPUusage      ; [CPU_] |459| 
         0000038e 009C 
TMS320C2000 Assembler PC v6.2.5 Thu Jun 22 20:41:15 2017

Tools Copyright (c) 1996-2014 Texas Instruments Incorporated
C:\Users\wmj\AppData\Local\Temp\1712410                              PAGE   75

    3745                      ; call occurs [#_updateCPUusage] ; [] |459| 
    3746                      .dwpsn  file "C:/ti/motorware/motorware_1_01_00_18/sw/solutions/instaspin_foc/src/proj_lab07.c",line 
    3747 0000038f 8DC0-         MOVL      XAR3,#_gMotorVars     ; [CPU_U] |462| 
         00000390 0080 
    3748 00000391 D018          MOVB      XAR0,#24              ; [CPU_] |462| 
    3749 00000392 92DB          MOV       AL,*+XAR3[3]          ; [CPU_] |462| 
    3750 00000393 8A91          MOVL      XAR4,*+XAR1[AR0]      ; [CPU_] |462| 
    3751              $C$DW$380       .dwtag  DW_TAG_TI_branch
    3752                      .dwattr $C$DW$380, DW_AT_low_pc(0x00)
    3753                      .dwattr $C$DW$380, DW_AT_name("_EST_setFlag_enableForceAngle")
    3754                      .dwattr $C$DW$380, DW_AT_TI_call
    3755 00000394 7640!         LCR       #_EST_setFlag_enableForceAngle ; [CPU_] |462| 
         00000395 0000 
    3756                      ; call occurs [#_EST_setFlag_enableForceAngle] ; [] |462| 
    3757 00000396 761F-         MOVW      DP,#_ctrlHandle       ; [CPU_U] 
         00000397 0000 
    3758                      .dwpsn  file "C:/ti/motorware/motorware_1_01_00_18/sw/solutions/instaspin_foc/src/proj_lab07.c",line 
    3759 00000398 D008          MOVB      XAR0,#8               ; [CPU_] |465| 
    3760 00000399 8B1A-         MOVL      XAR1,@_ctrlHandle     ; [CPU_] |465| 
    3761 0000039a 9293          MOV       AL,*+XAR3[AR0]        ; [CPU_] |465| 
    3762                      .dwpsn  file "C:/ti/motorware/motorware_1_01_00_18/sw/solutions/instaspin_foc/src/proj_lab07.c",line 
    3763 0000039b 8A0E-         MOVL      XAR4,@_femHandle      ; [CPU_] |478| 
    3764                      .dwpsn  file "C:/ti/motorware/motorware_1_01_00_18/sw/modules/ctrl/src/32b/ctrl.h",line 1262,column 3
    3765 0000039c D0F2          MOVB      XAR0,#242             ; [CPU_] |1262| 
    3766 0000039d 9691          MOV       *+XAR1[AR0],AL        ; [CPU_] |1262| 
    3767                      .dwpsn  file "C:/ti/motorware/motorware_1_01_00_18/sw/modules/fem/src/32b/fem.h",line 144,column 3,is
    3768 0000039e D00C          MOVB      XAR0,#12              ; [CPU_] |144| 
    3769 0000039f 0694          MOVL      ACC,*+XAR4[AR0]       ; [CPU_] |144| 
    3770                      .dwpsn  file "C:/ti/motorware/motorware_1_01_00_18/sw/modules/fem/src/32b/fem.h",line 184,column 3,is
    3771 000003a0 D010          MOVB      XAR0,#16              ; [CPU_] |184| 
    3772                      .dwpsn  file "C:/ti/motorware/motorware_1_01_00_18/sw/modules/fem/src/32b/fem.h",line 144,column 3,is
    3773 000003a1 1E14-         MOVL      @_gMaxDeltaCntObserved,ACC ; [CPU_] |144| 
    3774                      .dwpsn  file "C:/ti/motorware/motorware_1_01_00_18/sw/modules/fem/src/32b/fem.h",line 184,column 3,is
    3775 000003a2 9294          MOV       AL,*+XAR4[AR0]        ; [CPU_] |184| 
    3776 000003a3 EC04          BF        $C$L33,EQ             ; [CPU_] |184| 
    3777                      ; branchcc occurs ; [] |184| 
    3778                      .dwpsn  file "C:/ti/motorware/motorware_1_01_00_18/sw/modules/fem/src/32b/fem.h",line 111,column 3,is
    3779 000003a4 D00E          MOVB      XAR0,#14              ; [CPU_] |111| 
    3780 000003a5 0694          MOVL      ACC,*+XAR4[AR0]       ; [CPU_] |111| 
    3781 000003a6 1E12-         MOVL      @_gNumFreqErrors,ACC  ; [CPU_] |111| 
    3782 000003a7       $C$L33:    
    3783                      .dwpsn  file "C:/ti/motorware/motorware_1_01_00_18/sw/solutions/instaspin_foc/src/proj_lab07.c",line 
    3784 000003a7 8DC0-         MOVL      XAR3,#_gMotorVars     ; [CPU_U] |486| 
         000003a8 0080 
    3785 000003a9 92C3          MOV       AL,*+XAR3[0]          ; [CPU_] |486| 
    3786 000003aa 56C0          BF        $C$L17,NEQ            ; [CPU_] |486| 
         000003ab FE95 
    3787                      ; branchcc occurs ; [] |486| 
    3788                      .dwpsn  file "C:/ti/motorware/motorware_1_01_00_18/sw/modules/hal/boards/hvkit_rev1p1/f28x/f2802x/src
    3789 000003ac 8A10-         MOVL      XAR4,@_halHandle      ; [CPU_] |242| 
    3790                      .dwpsn  file "C:/ti/motorware/motorware_1_01_00_18/sw/modules/hal/boards/hvkit_rev1p1/f28x/f2802x/src
    3791 000003ad DC7C          ADDB      XAR4,#124             ; [CPU_] |244| 
    3792 000003ae 83C4          MOVL      XAR5,*+XAR4[0]        ; [CPU_] |244| 
    3793 000003af 7622   EALLOW
    3794                      .dwpsn  file "C:/ti/motorware/motorware_1_01_00_18/sw/drivers/pwm/src/32b/f28x/f2802x/pwm.h",line 156
TMS320C2000 Assembler PC v6.2.5 Thu Jun 22 20:41:15 2017

Tools Copyright (c) 1996-2014 Texas Instruments Incorporated
C:\Users\wmj\AppData\Local\Temp\1712410                              PAGE   76

    3795 000003b0 DD18          ADDB      XAR5,#24              ; [CPU_] |1567| 
    3796 000003b1 1AC5          OR        *+XAR5[0],#0x0004     ; [CPU_] |1567| 
         000003b2 0004 
    3797 000003b3 761A   EDIS
    3798                      .dwpsn  file "C:/ti/motorware/motorware_1_01_00_18/sw/modules/hal/boards/hvkit_rev1p1/f28x/f2802x/src
    3799 000003b4 83D4          MOVL      XAR5,*+XAR4[2]        ; [CPU_] |245| 
    3800 000003b5 7622   EALLOW
    3801                      .dwpsn  file "C:/ti/motorware/motorware_1_01_00_18/sw/drivers/pwm/src/32b/f28x/f2802x/pwm.h",line 156
    3802 000003b6 DD18          ADDB      XAR5,#24              ; [CPU_] |1567| 
    3803 000003b7 1AC5          OR        *+XAR5[0],#0x0004     ; [CPU_] |1567| 
         000003b8 0004 
    3804 000003b9 761A   EDIS
    3805                      .dwpsn  file "C:/ti/motorware/motorware_1_01_00_18/sw/modules/hal/boards/hvkit_rev1p1/f28x/f2802x/src
    3806 000003ba 8AE4          MOVL      XAR4,*+XAR4[4]        ; [CPU_] |246| 
    3807 000003bb 7622   EALLOW
    3808                      .dwpsn  file "C:/ti/motorware/motorware_1_01_00_18/sw/drivers/pwm/src/32b/f28x/f2802x/pwm.h",line 156
    3809 000003bc DC18          ADDB      XAR4,#24              ; [CPU_] |1567| 
    3810 000003bd 1AC4          OR        *+XAR4[0],#0x0004     ; [CPU_] |1567| 
         000003be 0004 
    3811 000003bf 761A   EDIS
    3812 000003c0 FF69          SPM       #0                    ; [CPU_] 
    3813                      .dwpsn  file "C:/ti/motorware/motorware_1_01_00_18/sw/solutions/instaspin_foc/src/proj_lab07.c",line 
    3814 000003c1 8AA1          MOVL      XAR4,XAR1             ; [CPU_] |493| 
    3815 000003c2 83A2          MOVL      XAR5,XAR2             ; [CPU_] |493| 
    3816              $C$DW$381       .dwtag  DW_TAG_TI_branch
    3817                      .dwattr $C$DW$381, DW_AT_low_pc(0x00)
    3818                      .dwattr $C$DW$381, DW_AT_name("_CTRL_setParams")
    3819                      .dwattr $C$DW$381, DW_AT_TI_call
    3820 000003c3 7640!         LCR       #_CTRL_setParams      ; [CPU_] |493| 
         000003c4 0000 
    3821                      ; call occurs [#_CTRL_setParams] ; [] |493| 
    3822 000003c5 761F-         MOVW      DP,#_gMotorVars+1     ; [CPU_U] 
         000003c6 0002 
    3823                      .dwpsn  file "C:/ti/motorware/motorware_1_01_00_18/sw/solutions/instaspin_foc/src/proj_lab07.c",line 
    3824 000003c7 2B01-         MOV       @_gMotorVars+1,#0     ; [CPU_] |494| 
    3825                      .dwpsn  file "C:/ti/motorware/motorware_1_01_00_18/sw/solutions/instaspin_foc/src/proj_lab07.c",line 
    3826 000003c8 FFEF          B         $C$L16,UNC            ; [CPU_] |496| 
         000003c9 FE6B 
    3827                      ; branch occurs ; [] |496| 
    3828 000003ca       $C$L34:    
    3829 000003ca 761F-         MOVW      DP,#_gMotorVars       ; [CPU_U] 
         000003cb 0002 
    3830                      .dwpsn  file "C:/ti/motorware/motorware_1_01_00_18/sw/solutions/instaspin_foc/src/proj_lab07.c",line 
    3831 000003cc 2B00-         MOV       @_gMotorVars,#0       ; [CPU_] |194| 
    3832                      .dwpsn  file "C:/ti/motorware/motorware_1_01_00_18/sw/solutions/instaspin_foc/src/proj_lab07.c",line 
    3833 000003cd 6FFD          B         $C$L34,UNC            ; [CPU_] |195| 
    3834                      ; branch occurs ; [] |195| 
    3835                      .dwattr $C$DW$291, DW_AT_TI_end_file("C:/ti/motorware/motorware_1_01_00_18/sw/solutions/instaspin_foc
    3836                      .dwattr $C$DW$291, DW_AT_TI_end_line(0x1f2)
    3837                      .dwattr $C$DW$291, DW_AT_TI_end_column(0x01)
    3838                      .dwendentry
    3839                      .dwendtag $C$DW$291
    3840              
    3841              ;**************************************************************
    3842              ;* UNDEFINED EXTERNAL REFERENCES                              *
TMS320C2000 Assembler PC v6.2.5 Thu Jun 22 20:41:15 2017

Tools Copyright (c) 1996-2014 Texas Instruments Incorporated
C:\Users\wmj\AppData\Local\Temp\1712410                              PAGE   77

    3843              ;**************************************************************
    3844                      .global _USER_setParams
    3845                      .global _GPIO_toggle
    3846                      .global _CPU_USAGE_setParams
    3847                      .global _HAL_setParams
    3848                      .global _CTRL_setParams
    3849                      .global _CTRL_setup
    3850                      .global _CTRL_setSpd_ref_krpm
    3851                      .global _HAL_enableDebugInt
    3852                      .global _HAL_enableAdcInts
    3853                      .global _HAL_enableGlobalInts
    3854                      .global _CTRL_getVersion
    3855                      .global _USER_softwareUpdate1p6
    3856                      .global _USER_checkForErrors
    3857                      .global _HAL_setupFaults
    3858                      .global _CTRL_run
    3859                      .global _USER_calcPIgains
    3860                      .global _EST_setRsOnLineId_mag_pu
    3861                      .global _EST_setRsOnLine_pu
    3862                      .global _EST_setRsOnLine_qFmt
    3863                      .global _EST_setFlag_enableForceAngle
    3864                      .global _EST_setFlag_enableRsOnLine
    3865                      .global _memCopy
    3866                      .global _EST_setRsOnLineId_pu
    3867                      .global _EST_setMaxCurrentSlope_pu
    3868                      .global _EST_setFlag_enableRsRecalc
    3869                      .global _FEM_setParams
    3870                      .global _EST_setFlag_updateRs
    3871                      .global _HAL_I2c_Pca9555_WrData
    3872                      .global _EST_getRs_qFmt
    3873                      .global _CTRL_updateState
    3874                      .global _EST_getState
    3875                      .global _EST_isMotorIdentified
    3876                      .global _USER_getErrorCode
    3877                      .global _RamfuncsLoadEnd
    3878                      .global _RamfuncsRunStart
    3879                      .global _RamfuncsLoadStart
    3880                      .global _HAL_init
    3881                      .global _EST_getSpeed_krpm
    3882                      .global _EST_getRsOnLine_Ohm
    3883                      .global _FEM_init
    3884                      .global _EST_getIdRated
    3885                      .global _EST_getLs_d_H
    3886                      .global _EST_getFlux_VpHz
    3887                      .global _EST_get_pu_to_krpm_sf
    3888                      .global _EST_getRs_pu
    3889                      .global _EST_getRs_Ohm
    3890                      .global _EST_getMaxCurrentSlope_pu
    3891                      .global _EST_getRr_Ohm
    3892                      .global _USER_computeTorque_Ls_Id_Iq_pu_to_Nm_sf
    3893                      .global _USER_computeFlux_pu_to_Wb_sf
    3894                      .global _USER_computeTorque_Flux_Iq_pu_to_Nm_sf
    3895                      .global _CTRL_initCtrl
    3896                      .global _USER_computeFlux
    3897                      .global _USER_computeFlux_pu_to_VpHz_sf
TMS320C2000 Assembler PC v6.2.5 Thu Jun 22 20:41:15 2017

Tools Copyright (c) 1996-2014 Texas Instruments Incorporated
C:\Users\wmj\AppData\Local\Temp\1712410                              PAGE   78

    3898                      .global _USER_computeTorque_Nm
    3899                      .global _EST_getLs_q_H
    3900                      .global _CPU_USAGE_init
    3901                      .global _hal
    3902                      .global U$$TOFS
    3903                      .global FS$$ADD
    3904                      .global UL$$TOFS
    3905                      .global FS$$DIV
    3906                      .global FS$$MPY
    3907                      .global FS$$SUB
    3908                      .global FS$$TOI
    3909                      .global I$$TOFS
    3910                      .global FS$$CMP
    3911              
    3912              ;***************************************************************
    3913              ;* TYPE INFORMATION                                            *
    3914              ;***************************************************************
    3915              
    3916              $C$DW$T$42      .dwtag  DW_TAG_enumeration_type
    3917                      .dwattr $C$DW$T$42, DW_AT_byte_size(0x01)
    3918              $C$DW$382       .dwtag  DW_TAG_enumerator, DW_AT_name("CTRL_State_Error"), DW_AT_const_value(0x00)
    3919              $C$DW$383       .dwtag  DW_TAG_enumerator, DW_AT_name("CTRL_State_Idle"), DW_AT_const_value(0x01)
    3920              $C$DW$384       .dwtag  DW_TAG_enumerator, DW_AT_name("CTRL_State_OffLine"), DW_AT_const_value(0x02)
    3921              $C$DW$385       .dwtag  DW_TAG_enumerator, DW_AT_name("CTRL_State_OnLine"), DW_AT_const_value(0x03)
    3922              $C$DW$386       .dwtag  DW_TAG_enumerator, DW_AT_name("CTRL_numStates"), DW_AT_const_value(0x04)
    3923                      .dwendtag $C$DW$T$42
    3924              
    3925              $C$DW$T$43      .dwtag  DW_TAG_typedef, DW_AT_name("CTRL_State_e")
    3926                      .dwattr $C$DW$T$43, DW_AT_type(*$C$DW$T$42)
    3927                      .dwattr $C$DW$T$43, DW_AT_language(DW_LANG_C)
    3928              
    3929              $C$DW$T$44      .dwtag  DW_TAG_enumeration_type
    3930                      .dwattr $C$DW$T$44, DW_AT_byte_size(0x01)
    3931              $C$DW$387       .dwtag  DW_TAG_enumerator, DW_AT_name("CTRL_ErrorCode_NoError"), DW_AT_const_value(0x00)
    3932              $C$DW$388       .dwtag  DW_TAG_enumerator, DW_AT_name("CTRL_ErrorCode_IdClip"), DW_AT_const_value(0x01)
    3933              $C$DW$389       .dwtag  DW_TAG_enumerator, DW_AT_name("CTRL_ErrorCode_EstError"), DW_AT_const_value(0x02)
    3934              $C$DW$390       .dwtag  DW_TAG_enumerator, DW_AT_name("CTRL_numErrorCodes"), DW_AT_const_value(0x03)
    3935                      .dwendtag $C$DW$T$44
    3936              
    3937              $C$DW$T$45      .dwtag  DW_TAG_typedef, DW_AT_name("CTRL_ErrorCode_e")
    3938                      .dwattr $C$DW$T$45, DW_AT_type(*$C$DW$T$44)
    3939                      .dwattr $C$DW$T$45, DW_AT_language(DW_LANG_C)
    3940              
    3941              $C$DW$T$73      .dwtag  DW_TAG_enumeration_type
    3942                      .dwattr $C$DW$T$73, DW_AT_byte_size(0x01)
    3943              $C$DW$391       .dwtag  DW_TAG_enumerator, DW_AT_name("CTRL_TargetProc_2806x"), DW_AT_const_value(0x00)
    3944              $C$DW$392       .dwtag  DW_TAG_enumerator, DW_AT_name("CTRL_TargetProc_2805x"), DW_AT_const_value(0x01)
    3945              $C$DW$393       .dwtag  DW_TAG_enumerator, DW_AT_name("CTRL_TargetProc_2803x"), DW_AT_const_value(0x02)
    3946              $C$DW$394       .dwtag  DW_TAG_enumerator, DW_AT_name("CTRL_TargetProc_2802x"), DW_AT_const_value(0x03)
    3947              $C$DW$395       .dwtag  DW_TAG_enumerator, DW_AT_name("CTRL_TargetProc_Unknown"), DW_AT_const_value(0x04)
    3948                      .dwendtag $C$DW$T$73
    3949              
    3950              $C$DW$T$74      .dwtag  DW_TAG_typedef, DW_AT_name("CTRL_TargetProc_e")
    3951                      .dwattr $C$DW$T$74, DW_AT_type(*$C$DW$T$73)
    3952                      .dwattr $C$DW$T$74, DW_AT_language(DW_LANG_C)
TMS320C2000 Assembler PC v6.2.5 Thu Jun 22 20:41:15 2017

Tools Copyright (c) 1996-2014 Texas Instruments Incorporated
C:\Users\wmj\AppData\Local\Temp\1712410                              PAGE   79

    3953              
    3954              $C$DW$T$126     .dwtag  DW_TAG_enumeration_type
    3955                      .dwattr $C$DW$T$126, DW_AT_byte_size(0x01)
    3956              $C$DW$396       .dwtag  DW_TAG_enumerator, DW_AT_name("MOTOR_Type_Induction"), DW_AT_const_value(0x00)
    3957              $C$DW$397       .dwtag  DW_TAG_enumerator, DW_AT_name("MOTOR_Type_Pm"), DW_AT_const_value(0x01)
    3958                      .dwendtag $C$DW$T$126
    3959              
    3960              $C$DW$T$127     .dwtag  DW_TAG_typedef, DW_AT_name("MOTOR_Type_e")
    3961                      .dwattr $C$DW$T$127, DW_AT_type(*$C$DW$T$126)
    3962                      .dwattr $C$DW$T$127, DW_AT_language(DW_LANG_C)
    3963              
    3964              $C$DW$T$129     .dwtag  DW_TAG_enumeration_type
    3965                      .dwattr $C$DW$T$129, DW_AT_byte_size(0x01)
    3966              $C$DW$398       .dwtag  DW_TAG_enumerator, DW_AT_name("EST_State_Error"), DW_AT_const_value(0x00)
    3967              $C$DW$399       .dwtag  DW_TAG_enumerator, DW_AT_name("EST_State_Idle"), DW_AT_const_value(0x01)
    3968              $C$DW$400       .dwtag  DW_TAG_enumerator, DW_AT_name("EST_State_RoverL"), DW_AT_const_value(0x02)
    3969              $C$DW$401       .dwtag  DW_TAG_enumerator, DW_AT_name("EST_State_Rs"), DW_AT_const_value(0x03)
    3970              $C$DW$402       .dwtag  DW_TAG_enumerator, DW_AT_name("EST_State_RampUp"), DW_AT_const_value(0x04)
    3971              $C$DW$403       .dwtag  DW_TAG_enumerator, DW_AT_name("EST_State_IdRated"), DW_AT_const_value(0x05)
    3972              $C$DW$404       .dwtag  DW_TAG_enumerator, DW_AT_name("EST_State_RatedFlux_OL"), DW_AT_const_value(0x06)
    3973              $C$DW$405       .dwtag  DW_TAG_enumerator, DW_AT_name("EST_State_RatedFlux"), DW_AT_const_value(0x07)
    3974              $C$DW$406       .dwtag  DW_TAG_enumerator, DW_AT_name("EST_State_RampDown"), DW_AT_const_value(0x08)
    3975              $C$DW$407       .dwtag  DW_TAG_enumerator, DW_AT_name("EST_State_LockRotor"), DW_AT_const_value(0x09)
    3976              $C$DW$408       .dwtag  DW_TAG_enumerator, DW_AT_name("EST_State_Ls"), DW_AT_const_value(0x0a)
    3977              $C$DW$409       .dwtag  DW_TAG_enumerator, DW_AT_name("EST_State_Rr"), DW_AT_const_value(0x0b)
    3978              $C$DW$410       .dwtag  DW_TAG_enumerator, DW_AT_name("EST_State_MotorIdentified"), DW_AT_const_value(0x0c)
    3979              $C$DW$411       .dwtag  DW_TAG_enumerator, DW_AT_name("EST_State_OnLine"), DW_AT_const_value(0x0d)
    3980              $C$DW$412       .dwtag  DW_TAG_enumerator, DW_AT_name("EST_numStates"), DW_AT_const_value(0x0e)
    3981                      .dwendtag $C$DW$T$129
    3982              
    3983              $C$DW$T$130     .dwtag  DW_TAG_typedef, DW_AT_name("EST_State_e")
    3984                      .dwattr $C$DW$T$130, DW_AT_type(*$C$DW$T$129)
    3985                      .dwattr $C$DW$T$130, DW_AT_language(DW_LANG_C)
    3986              
    3987              $C$DW$T$131     .dwtag  DW_TAG_enumeration_type
    3988                      .dwattr $C$DW$T$131, DW_AT_byte_size(0x01)
    3989              $C$DW$413       .dwtag  DW_TAG_enumerator, DW_AT_name("USER_ErrorCode_NoError"), DW_AT_const_value(0x00)
    3990              $C$DW$414       .dwtag  DW_TAG_enumerator, DW_AT_name("USER_ErrorCode_iqFullScaleCurrent_A_High"), DW_AT_cons
    3991              $C$DW$415       .dwtag  DW_TAG_enumerator, DW_AT_name("USER_ErrorCode_iqFullScaleCurrent_A_Low"), DW_AT_const
    3992              $C$DW$416       .dwtag  DW_TAG_enumerator, DW_AT_name("USER_ErrorCode_iqFullScaleVoltage_V_High"), DW_AT_cons
    3993              $C$DW$417       .dwtag  DW_TAG_enumerator, DW_AT_name("USER_ErrorCode_iqFullScaleVoltage_V_Low"), DW_AT_const
    3994              $C$DW$418       .dwtag  DW_TAG_enumerator, DW_AT_name("USER_ErrorCode_iqFullScaleFreq_Hz_High"), DW_AT_const_
    3995              $C$DW$419       .dwtag  DW_TAG_enumerator, DW_AT_name("USER_ErrorCode_iqFullScaleFreq_Hz_Low"), DW_AT_const_v
    3996              $C$DW$420       .dwtag  DW_TAG_enumerator, DW_AT_name("USER_ErrorCode_numPwmTicksPerIsrTick_High"), DW_AT_con
    3997              $C$DW$421       .dwtag  DW_TAG_enumerator, DW_AT_name("USER_ErrorCode_numPwmTicksPerIsrTick_Low"), DW_AT_cons
    3998              $C$DW$422       .dwtag  DW_TAG_enumerator, DW_AT_name("USER_ErrorCode_numIsrTicksPerCtrlTick_High"), DW_AT_co
    3999              $C$DW$423       .dwtag  DW_TAG_enumerator, DW_AT_name("USER_ErrorCode_numIsrTicksPerCtrlTick_Low"), DW_AT_con
    4000              $C$DW$424       .dwtag  DW_TAG_enumerator, DW_AT_name("USER_ErrorCode_numCtrlTicksPerCurrentTick_High"), DW_A
    4001              $C$DW$425       .dwtag  DW_TAG_enumerator, DW_AT_name("USER_ErrorCode_numCtrlTicksPerCurrentTick_Low"), DW_AT
    4002              $C$DW$426       .dwtag  DW_TAG_enumerator, DW_AT_name("USER_ErrorCode_numCtrlTicksPerEstTick_High"), DW_AT_co
    4003              $C$DW$427       .dwtag  DW_TAG_enumerator, DW_AT_name("USER_ErrorCode_numCtrlTicksPerEstTick_Low"), DW_AT_con
    4004              $C$DW$428       .dwtag  DW_TAG_enumerator, DW_AT_name("USER_ErrorCode_numCtrlTicksPerSpeedTick_High"), DW_AT_
    4005              $C$DW$429       .dwtag  DW_TAG_enumerator, DW_AT_name("USER_ErrorCode_numCtrlTicksPerSpeedTick_Low"), DW_AT_c
    4006              $C$DW$430       .dwtag  DW_TAG_enumerator, DW_AT_name("USER_ErrorCode_numCtrlTicksPerTrajTick_High"), DW_AT_c
    4007              $C$DW$431       .dwtag  DW_TAG_enumerator, DW_AT_name("USER_ErrorCode_numCtrlTicksPerTrajTick_Low"), DW_AT_co
TMS320C2000 Assembler PC v6.2.5 Thu Jun 22 20:41:15 2017

Tools Copyright (c) 1996-2014 Texas Instruments Incorporated
C:\Users\wmj\AppData\Local\Temp\1712410                              PAGE   80

    4008              $C$DW$432       .dwtag  DW_TAG_enumerator, DW_AT_name("USER_ErrorCode_numCurrentSensors_High"), DW_AT_const_v
    4009              $C$DW$433       .dwtag  DW_TAG_enumerator, DW_AT_name("USER_ErrorCode_numCurrentSensors_Low"), DW_AT_const_va
    4010              $C$DW$434       .dwtag  DW_TAG_enumerator, DW_AT_name("USER_ErrorCode_numVoltageSensors_High"), DW_AT_const_v
    4011              $C$DW$435       .dwtag  DW_TAG_enumerator, DW_AT_name("USER_ErrorCode_numVoltageSensors_Low"), DW_AT_const_va
    4012              $C$DW$436       .dwtag  DW_TAG_enumerator, DW_AT_name("USER_ErrorCode_offsetPole_rps_High"), DW_AT_const_valu
    4013              $C$DW$437       .dwtag  DW_TAG_enumerator, DW_AT_name("USER_ErrorCode_offsetPole_rps_Low"), DW_AT_const_value
    4014              $C$DW$438       .dwtag  DW_TAG_enumerator, DW_AT_name("USER_ErrorCode_fluxPole_rps_High"), DW_AT_const_value(
    4015              $C$DW$439       .dwtag  DW_TAG_enumerator, DW_AT_name("USER_ErrorCode_fluxPole_rps_Low"), DW_AT_const_value(0
    4016              $C$DW$440       .dwtag  DW_TAG_enumerator, DW_AT_name("USER_ErrorCode_zeroSpeedLimit_High"), DW_AT_const_valu
    4017              $C$DW$441       .dwtag  DW_TAG_enumerator, DW_AT_name("USER_ErrorCode_zeroSpeedLimit_Low"), DW_AT_const_value
    4018              $C$DW$442       .dwtag  DW_TAG_enumerator, DW_AT_name("USER_ErrorCode_forceAngleFreq_Hz_High"), DW_AT_const_v
    4019              $C$DW$443       .dwtag  DW_TAG_enumerator, DW_AT_name("USER_ErrorCode_forceAngleFreq_Hz_Low"), DW_AT_const_va
    4020              $C$DW$444       .dwtag  DW_TAG_enumerator, DW_AT_name("USER_ErrorCode_maxAccel_Hzps_High"), DW_AT_const_value
    4021              $C$DW$445       .dwtag  DW_TAG_enumerator, DW_AT_name("USER_ErrorCode_maxAccel_Hzps_Low"), DW_AT_const_value(
    4022              $C$DW$446       .dwtag  DW_TAG_enumerator, DW_AT_name("USER_ErrorCode_maxAccel_est_Hzps_High"), DW_AT_const_v
    4023              $C$DW$447       .dwtag  DW_TAG_enumerator, DW_AT_name("USER_ErrorCode_maxAccel_est_Hzps_Low"), DW_AT_const_va
    4024              $C$DW$448       .dwtag  DW_TAG_enumerator, DW_AT_name("USER_ErrorCode_directionPole_rps_High"), DW_AT_const_v
    4025              $C$DW$449       .dwtag  DW_TAG_enumerator, DW_AT_name("USER_ErrorCode_directionPole_rps_Low"), DW_AT_const_va
    4026              $C$DW$450       .dwtag  DW_TAG_enumerator, DW_AT_name("USER_ErrorCode_speedPole_rps_High"), DW_AT_const_value
    4027              $C$DW$451       .dwtag  DW_TAG_enumerator, DW_AT_name("USER_ErrorCode_speedPole_rps_Low"), DW_AT_const_value(
    4028              $C$DW$452       .dwtag  DW_TAG_enumerator, DW_AT_name("USER_ErrorCode_dcBusPole_rps_High"), DW_AT_const_value
    4029              $C$DW$453       .dwtag  DW_TAG_enumerator, DW_AT_name("USER_ErrorCode_dcBusPole_rps_Low"), DW_AT_const_value(
    4030              $C$DW$454       .dwtag  DW_TAG_enumerator, DW_AT_name("USER_ErrorCode_fluxFraction_High"), DW_AT_const_value(
    4031              $C$DW$455       .dwtag  DW_TAG_enumerator, DW_AT_name("USER_ErrorCode_fluxFraction_Low"), DW_AT_const_value(0
    4032              $C$DW$456       .dwtag  DW_TAG_enumerator, DW_AT_name("USER_ErrorCode_indEst_speedMaxFraction_High"), DW_AT_c
    4033              $C$DW$457       .dwtag  DW_TAG_enumerator, DW_AT_name("USER_ErrorCode_indEst_speedMaxFraction_Low"), DW_AT_co
    4034              $C$DW$458       .dwtag  DW_TAG_enumerator, DW_AT_name("USER_ErrorCode_powerWarpGain_High"), DW_AT_const_value
    4035              $C$DW$459       .dwtag  DW_TAG_enumerator, DW_AT_name("USER_ErrorCode_powerWarpGain_Low"), DW_AT_const_value(
    4036              $C$DW$460       .dwtag  DW_TAG_enumerator, DW_AT_name("USER_ErrorCode_systemFreq_MHz_High"), DW_AT_const_valu
    4037              $C$DW$461       .dwtag  DW_TAG_enumerator, DW_AT_name("USER_ErrorCode_systemFreq_MHz_Low"), DW_AT_const_value
    4038              $C$DW$462       .dwtag  DW_TAG_enumerator, DW_AT_name("USER_ErrorCode_pwmFreq_kHz_High"), DW_AT_const_value(0
    4039              $C$DW$463       .dwtag  DW_TAG_enumerator, DW_AT_name("USER_ErrorCode_pwmFreq_kHz_Low"), DW_AT_const_value(0x
    4040              $C$DW$464       .dwtag  DW_TAG_enumerator, DW_AT_name("USER_ErrorCode_voltage_sf_High"), DW_AT_const_value(0x
    4041              $C$DW$465       .dwtag  DW_TAG_enumerator, DW_AT_name("USER_ErrorCode_voltage_sf_Low"), DW_AT_const_value(0x3
    4042              $C$DW$466       .dwtag  DW_TAG_enumerator, DW_AT_name("USER_ErrorCode_current_sf_High"), DW_AT_const_value(0x
    4043              $C$DW$467       .dwtag  DW_TAG_enumerator, DW_AT_name("USER_ErrorCode_current_sf_Low"), DW_AT_const_value(0x3
    4044              $C$DW$468       .dwtag  DW_TAG_enumerator, DW_AT_name("USER_ErrorCode_voltageFilterPole_Hz_High"), DW_AT_cons
    4045              $C$DW$469       .dwtag  DW_TAG_enumerator, DW_AT_name("USER_ErrorCode_voltageFilterPole_Hz_Low"), DW_AT_const
    4046              $C$DW$470       .dwtag  DW_TAG_enumerator, DW_AT_name("USER_ErrorCode_maxVsMag_pu_High"), DW_AT_const_value(0
    4047              $C$DW$471       .dwtag  DW_TAG_enumerator, DW_AT_name("USER_ErrorCode_maxVsMag_pu_Low"), DW_AT_const_value(0x
    4048              $C$DW$472       .dwtag  DW_TAG_enumerator, DW_AT_name("USER_ErrorCode_estKappa_High"), DW_AT_const_value(0x3b
    4049              $C$DW$473       .dwtag  DW_TAG_enumerator, DW_AT_name("USER_ErrorCode_estKappa_Low"), DW_AT_const_value(0x3c)
    4050              $C$DW$474       .dwtag  DW_TAG_enumerator, DW_AT_name("USER_ErrorCode_motor_type_Unknown"), DW_AT_const_value
    4051              $C$DW$475       .dwtag  DW_TAG_enumerator, DW_AT_name("USER_ErrorCode_motor_numPolePairs_High"), DW_AT_const_
    4052              $C$DW$476       .dwtag  DW_TAG_enumerator, DW_AT_name("USER_ErrorCode_motor_numPolePairs_Low"), DW_AT_const_v
    4053              $C$DW$477       .dwtag  DW_TAG_enumerator, DW_AT_name("USER_ErrorCode_motor_ratedFlux_High"), DW_AT_const_val
    4054              $C$DW$478       .dwtag  DW_TAG_enumerator, DW_AT_name("USER_ErrorCode_motor_ratedFlux_Low"), DW_AT_const_valu
    4055              $C$DW$479       .dwtag  DW_TAG_enumerator, DW_AT_name("USER_ErrorCode_motor_Rr_High"), DW_AT_const_value(0x42
    4056              $C$DW$480       .dwtag  DW_TAG_enumerator, DW_AT_name("USER_ErrorCode_motor_Rr_Low"), DW_AT_const_value(0x43)
    4057              $C$DW$481       .dwtag  DW_TAG_enumerator, DW_AT_name("USER_ErrorCode_motor_Rs_High"), DW_AT_const_value(0x44
    4058              $C$DW$482       .dwtag  DW_TAG_enumerator, DW_AT_name("USER_ErrorCode_motor_Rs_Low"), DW_AT_const_value(0x45)
    4059              $C$DW$483       .dwtag  DW_TAG_enumerator, DW_AT_name("USER_ErrorCode_motor_Ls_d_High"), DW_AT_const_value(0x
    4060              $C$DW$484       .dwtag  DW_TAG_enumerator, DW_AT_name("USER_ErrorCode_motor_Ls_d_Low"), DW_AT_const_value(0x4
    4061              $C$DW$485       .dwtag  DW_TAG_enumerator, DW_AT_name("USER_ErrorCode_motor_Ls_q_High"), DW_AT_const_value(0x
    4062              $C$DW$486       .dwtag  DW_TAG_enumerator, DW_AT_name("USER_ErrorCode_motor_Ls_q_Low"), DW_AT_const_value(0x4
TMS320C2000 Assembler PC v6.2.5 Thu Jun 22 20:41:15 2017

Tools Copyright (c) 1996-2014 Texas Instruments Incorporated
C:\Users\wmj\AppData\Local\Temp\1712410                              PAGE   81

    4063              $C$DW$487       .dwtag  DW_TAG_enumerator, DW_AT_name("USER_ErrorCode_maxCurrent_High"), DW_AT_const_value(0x
    4064              $C$DW$488       .dwtag  DW_TAG_enumerator, DW_AT_name("USER_ErrorCode_maxCurrent_Low"), DW_AT_const_value(0x4
    4065              $C$DW$489       .dwtag  DW_TAG_enumerator, DW_AT_name("USER_ErrorCode_maxCurrent_resEst_High"), DW_AT_const_v
    4066              $C$DW$490       .dwtag  DW_TAG_enumerator, DW_AT_name("USER_ErrorCode_maxCurrent_resEst_Low"), DW_AT_const_va
    4067              $C$DW$491       .dwtag  DW_TAG_enumerator, DW_AT_name("USER_ErrorCode_maxCurrent_indEst_High"), DW_AT_const_v
    4068              $C$DW$492       .dwtag  DW_TAG_enumerator, DW_AT_name("USER_ErrorCode_maxCurrent_indEst_Low"), DW_AT_const_va
    4069              $C$DW$493       .dwtag  DW_TAG_enumerator, DW_AT_name("USER_ErrorCode_maxCurrentSlope_High"), DW_AT_const_val
    4070              $C$DW$494       .dwtag  DW_TAG_enumerator, DW_AT_name("USER_ErrorCode_maxCurrentSlope_Low"), DW_AT_const_valu
    4071              $C$DW$495       .dwtag  DW_TAG_enumerator, DW_AT_name("USER_ErrorCode_maxCurrentSlope_powerWarp_High"), DW_AT
    4072              $C$DW$496       .dwtag  DW_TAG_enumerator, DW_AT_name("USER_ErrorCode_maxCurrentSlope_powerWarp_Low"), DW_AT_
    4073              $C$DW$497       .dwtag  DW_TAG_enumerator, DW_AT_name("USER_ErrorCode_IdRated_High"), DW_AT_const_value(0x54)
    4074              $C$DW$498       .dwtag  DW_TAG_enumerator, DW_AT_name("USER_ErrorCode_IdRated_Low"), DW_AT_const_value(0x55)
    4075              $C$DW$499       .dwtag  DW_TAG_enumerator, DW_AT_name("USER_ErrorCode_IdRatedFraction_indEst_High"), DW_AT_co
    4076              $C$DW$500       .dwtag  DW_TAG_enumerator, DW_AT_name("USER_ErrorCode_IdRatedFraction_indEst_Low"), DW_AT_con
    4077              $C$DW$501       .dwtag  DW_TAG_enumerator, DW_AT_name("USER_ErrorCode_IdRatedFraction_ratedFlux_High"), DW_AT
    4078              $C$DW$502       .dwtag  DW_TAG_enumerator, DW_AT_name("USER_ErrorCode_IdRatedFraction_ratedFlux_Low"), DW_AT_
    4079              $C$DW$503       .dwtag  DW_TAG_enumerator, DW_AT_name("USER_ErrorCode_IdRated_delta_High"), DW_AT_const_value
    4080              $C$DW$504       .dwtag  DW_TAG_enumerator, DW_AT_name("USER_ErrorCode_IdRated_delta_Low"), DW_AT_const_value(
    4081              $C$DW$505       .dwtag  DW_TAG_enumerator, DW_AT_name("USER_ErrorCode_fluxEstFreq_Hz_High"), DW_AT_const_valu
    4082              $C$DW$506       .dwtag  DW_TAG_enumerator, DW_AT_name("USER_ErrorCode_fluxEstFreq_Hz_Low"), DW_AT_const_value
    4083              $C$DW$507       .dwtag  DW_TAG_enumerator, DW_AT_name("USER_ErrorCode_ctrlFreq_Hz_High"), DW_AT_const_value(0
    4084              $C$DW$508       .dwtag  DW_TAG_enumerator, DW_AT_name("USER_ErrorCode_ctrlFreq_Hz_Low"), DW_AT_const_value(0x
    4085              $C$DW$509       .dwtag  DW_TAG_enumerator, DW_AT_name("USER_ErrorCode_estFreq_Hz_High"), DW_AT_const_value(0x
    4086              $C$DW$510       .dwtag  DW_TAG_enumerator, DW_AT_name("USER_ErrorCode_estFreq_Hz_Low"), DW_AT_const_value(0x6
    4087              $C$DW$511       .dwtag  DW_TAG_enumerator, DW_AT_name("USER_ErrorCode_RoverL_estFreq_Hz_High"), DW_AT_const_v
    4088              $C$DW$512       .dwtag  DW_TAG_enumerator, DW_AT_name("USER_ErrorCode_RoverL_estFreq_Hz_Low"), DW_AT_const_va
    4089              $C$DW$513       .dwtag  DW_TAG_enumerator, DW_AT_name("USER_ErrorCode_trajFreq_Hz_High"), DW_AT_const_value(0
    4090              $C$DW$514       .dwtag  DW_TAG_enumerator, DW_AT_name("USER_ErrorCode_trajFreq_Hz_Low"), DW_AT_const_value(0x
    4091              $C$DW$515       .dwtag  DW_TAG_enumerator, DW_AT_name("USER_ErrorCode_ctrlPeriod_sec_High"), DW_AT_const_valu
    4092              $C$DW$516       .dwtag  DW_TAG_enumerator, DW_AT_name("USER_ErrorCode_ctrlPeriod_sec_Low"), DW_AT_const_value
    4093              $C$DW$517       .dwtag  DW_TAG_enumerator, DW_AT_name("USER_ErrorCode_maxNegativeIdCurrent_a_High"), DW_AT_co
    4094              $C$DW$518       .dwtag  DW_TAG_enumerator, DW_AT_name("USER_ErrorCode_maxNegativeIdCurrent_a_Low"), DW_AT_con
    4095              $C$DW$519       .dwtag  DW_TAG_enumerator, DW_AT_name("USER_numErrorCodes"), DW_AT_const_value(0x6a)
    4096                      .dwendtag $C$DW$T$131
    4097              
    4098              $C$DW$T$132     .dwtag  DW_TAG_typedef, DW_AT_name("USER_ErrorCode_e")
    4099                      .dwattr $C$DW$T$132, DW_AT_type(*$C$DW$T$131)
    4100                      .dwattr $C$DW$T$132, DW_AT_language(DW_LANG_C)
    4101              
    4102              $C$DW$T$175     .dwtag  DW_TAG_enumeration_type
    4103                      .dwattr $C$DW$T$175, DW_AT_byte_size(0x01)
    4104              $C$DW$520       .dwtag  DW_TAG_enumerator, DW_AT_name("ADC_IntNumber_1"), DW_AT_const_value(0x00)
    4105              $C$DW$521       .dwtag  DW_TAG_enumerator, DW_AT_name("ADC_IntNumber_2"), DW_AT_const_value(0x01)
    4106              $C$DW$522       .dwtag  DW_TAG_enumerator, DW_AT_name("ADC_IntNumber_3"), DW_AT_const_value(0x02)
    4107              $C$DW$523       .dwtag  DW_TAG_enumerator, DW_AT_name("ADC_IntNumber_4"), DW_AT_const_value(0x03)
    4108              $C$DW$524       .dwtag  DW_TAG_enumerator, DW_AT_name("ADC_IntNumber_5"), DW_AT_const_value(0x04)
    4109              $C$DW$525       .dwtag  DW_TAG_enumerator, DW_AT_name("ADC_IntNumber_6"), DW_AT_const_value(0x05)
    4110              $C$DW$526       .dwtag  DW_TAG_enumerator, DW_AT_name("ADC_IntNumber_7"), DW_AT_const_value(0x06)
    4111              $C$DW$527       .dwtag  DW_TAG_enumerator, DW_AT_name("ADC_IntNumber_8"), DW_AT_const_value(0x07)
    4112              $C$DW$528       .dwtag  DW_TAG_enumerator, DW_AT_name("ADC_IntNumber_9"), DW_AT_const_value(0x08)
    4113              $C$DW$529       .dwtag  DW_TAG_enumerator, DW_AT_name("ADC_IntNumber_1HP"), DW_AT_const_value(0x09)
    4114              $C$DW$530       .dwtag  DW_TAG_enumerator, DW_AT_name("ADC_IntNumber_2HP"), DW_AT_const_value(0x0a)
    4115              $C$DW$531       .dwtag  DW_TAG_enumerator, DW_AT_name("ADC_IntNumber_9HP"), DW_AT_const_value(0x0e)
    4116                      .dwendtag $C$DW$T$175
    4117              
TMS320C2000 Assembler PC v6.2.5 Thu Jun 22 20:41:15 2017

Tools Copyright (c) 1996-2014 Texas Instruments Incorporated
C:\Users\wmj\AppData\Local\Temp\1712410                              PAGE   82

    4118              $C$DW$T$176     .dwtag  DW_TAG_typedef, DW_AT_name("ADC_IntNumber_e")
    4119                      .dwattr $C$DW$T$176, DW_AT_type(*$C$DW$T$175)
    4120                      .dwattr $C$DW$T$176, DW_AT_language(DW_LANG_C)
    4121              
    4122              $C$DW$T$178     .dwtag  DW_TAG_enumeration_type
    4123                      .dwattr $C$DW$T$178, DW_AT_byte_size(0x01)
    4124              $C$DW$532       .dwtag  DW_TAG_enumerator, DW_AT_name("ADC_ResultNumber_0"), DW_AT_const_value(0x00)
    4125              $C$DW$533       .dwtag  DW_TAG_enumerator, DW_AT_name("ADC_ResultNumber_1"), DW_AT_const_value(0x01)
    4126              $C$DW$534       .dwtag  DW_TAG_enumerator, DW_AT_name("ADC_ResultNumber_2"), DW_AT_const_value(0x02)
    4127              $C$DW$535       .dwtag  DW_TAG_enumerator, DW_AT_name("ADC_ResultNumber_3"), DW_AT_const_value(0x03)
    4128              $C$DW$536       .dwtag  DW_TAG_enumerator, DW_AT_name("ADC_ResultNumber_4"), DW_AT_const_value(0x04)
    4129              $C$DW$537       .dwtag  DW_TAG_enumerator, DW_AT_name("ADC_ResultNumber_5"), DW_AT_const_value(0x05)
    4130              $C$DW$538       .dwtag  DW_TAG_enumerator, DW_AT_name("ADC_ResultNumber_6"), DW_AT_const_value(0x06)
    4131              $C$DW$539       .dwtag  DW_TAG_enumerator, DW_AT_name("ADC_ResultNumber_7"), DW_AT_const_value(0x07)
    4132              $C$DW$540       .dwtag  DW_TAG_enumerator, DW_AT_name("ADC_ResultNumber_8"), DW_AT_const_value(0x08)
    4133              $C$DW$541       .dwtag  DW_TAG_enumerator, DW_AT_name("ADC_ResultNumber_9"), DW_AT_const_value(0x09)
    4134              $C$DW$542       .dwtag  DW_TAG_enumerator, DW_AT_name("ADC_ResultNumber_10"), DW_AT_const_value(0x0a)
    4135              $C$DW$543       .dwtag  DW_TAG_enumerator, DW_AT_name("ADC_ResultNumber_11"), DW_AT_const_value(0x0b)
    4136              $C$DW$544       .dwtag  DW_TAG_enumerator, DW_AT_name("ADC_ResultNumber_12"), DW_AT_const_value(0x0c)
    4137              $C$DW$545       .dwtag  DW_TAG_enumerator, DW_AT_name("ADC_ResultNumber_13"), DW_AT_const_value(0x0d)
    4138              $C$DW$546       .dwtag  DW_TAG_enumerator, DW_AT_name("ADC_ResultNumber_14"), DW_AT_const_value(0x0e)
    4139              $C$DW$547       .dwtag  DW_TAG_enumerator, DW_AT_name("ADC_ResultNumber_15"), DW_AT_const_value(0x0f)
    4140                      .dwendtag $C$DW$T$178
    4141              
    4142              $C$DW$T$179     .dwtag  DW_TAG_typedef, DW_AT_name("ADC_ResultNumber_e")
    4143                      .dwattr $C$DW$T$179, DW_AT_type(*$C$DW$T$178)
    4144                      .dwattr $C$DW$T$179, DW_AT_language(DW_LANG_C)
    4145              
    4146              $C$DW$T$181     .dwtag  DW_TAG_enumeration_type
    4147                      .dwattr $C$DW$T$181, DW_AT_byte_size(0x01)
    4148              $C$DW$548       .dwtag  DW_TAG_enumerator, DW_AT_name("GPIO_Number_0"), DW_AT_const_value(0x00)
    4149              $C$DW$549       .dwtag  DW_TAG_enumerator, DW_AT_name("GPIO_Number_1"), DW_AT_const_value(0x01)
    4150              $C$DW$550       .dwtag  DW_TAG_enumerator, DW_AT_name("GPIO_Number_2"), DW_AT_const_value(0x02)
    4151              $C$DW$551       .dwtag  DW_TAG_enumerator, DW_AT_name("GPIO_Number_3"), DW_AT_const_value(0x03)
    4152              $C$DW$552       .dwtag  DW_TAG_enumerator, DW_AT_name("GPIO_Number_4"), DW_AT_const_value(0x04)
    4153              $C$DW$553       .dwtag  DW_TAG_enumerator, DW_AT_name("GPIO_Number_5"), DW_AT_const_value(0x05)
    4154              $C$DW$554       .dwtag  DW_TAG_enumerator, DW_AT_name("GPIO_Number_6"), DW_AT_const_value(0x06)
    4155              $C$DW$555       .dwtag  DW_TAG_enumerator, DW_AT_name("GPIO_Number_7"), DW_AT_const_value(0x07)
    4156              $C$DW$556       .dwtag  DW_TAG_enumerator, DW_AT_name("GPIO_Rsvd_8"), DW_AT_const_value(0x08)
    4157              $C$DW$557       .dwtag  DW_TAG_enumerator, DW_AT_name("GPIO_Rsvd_9"), DW_AT_const_value(0x09)
    4158              $C$DW$558       .dwtag  DW_TAG_enumerator, DW_AT_name("GPIO_Rsvd_10"), DW_AT_const_value(0x0a)
    4159              $C$DW$559       .dwtag  DW_TAG_enumerator, DW_AT_name("GPIO_Rsvd_11"), DW_AT_const_value(0x0b)
    4160              $C$DW$560       .dwtag  DW_TAG_enumerator, DW_AT_name("GPIO_Number_12"), DW_AT_const_value(0x0c)
    4161              $C$DW$561       .dwtag  DW_TAG_enumerator, DW_AT_name("GPIO_Rsvd_13"), DW_AT_const_value(0x0d)
    4162              $C$DW$562       .dwtag  DW_TAG_enumerator, DW_AT_name("GPIO_Rsvd_14"), DW_AT_const_value(0x0e)
    4163              $C$DW$563       .dwtag  DW_TAG_enumerator, DW_AT_name("GPIO_Rsvd_15"), DW_AT_const_value(0x0f)
    4164              $C$DW$564       .dwtag  DW_TAG_enumerator, DW_AT_name("GPIO_Number_16"), DW_AT_const_value(0x10)
    4165              $C$DW$565       .dwtag  DW_TAG_enumerator, DW_AT_name("GPIO_Number_17"), DW_AT_const_value(0x11)
    4166              $C$DW$566       .dwtag  DW_TAG_enumerator, DW_AT_name("GPIO_Number_18"), DW_AT_const_value(0x12)
    4167              $C$DW$567       .dwtag  DW_TAG_enumerator, DW_AT_name("GPIO_Number_19"), DW_AT_const_value(0x13)
    4168              $C$DW$568       .dwtag  DW_TAG_enumerator, DW_AT_name("GPIO_Rsvd_20"), DW_AT_const_value(0x14)
    4169              $C$DW$569       .dwtag  DW_TAG_enumerator, DW_AT_name("GPIO_Rsvd_21"), DW_AT_const_value(0x15)
    4170              $C$DW$570       .dwtag  DW_TAG_enumerator, DW_AT_name("GPIO_Rsvd_22"), DW_AT_const_value(0x16)
    4171              $C$DW$571       .dwtag  DW_TAG_enumerator, DW_AT_name("GPIO_Rsvd_23"), DW_AT_const_value(0x17)
    4172              $C$DW$572       .dwtag  DW_TAG_enumerator, DW_AT_name("GPIO_Rsvd_24"), DW_AT_const_value(0x18)
TMS320C2000 Assembler PC v6.2.5 Thu Jun 22 20:41:15 2017

Tools Copyright (c) 1996-2014 Texas Instruments Incorporated
C:\Users\wmj\AppData\Local\Temp\1712410                              PAGE   83

    4173              $C$DW$573       .dwtag  DW_TAG_enumerator, DW_AT_name("GPIO_Rsvd_25"), DW_AT_const_value(0x19)
    4174              $C$DW$574       .dwtag  DW_TAG_enumerator, DW_AT_name("GPIO_Rsvd_26"), DW_AT_const_value(0x1a)
    4175              $C$DW$575       .dwtag  DW_TAG_enumerator, DW_AT_name("GPIO_Rsvd_27"), DW_AT_const_value(0x1b)
    4176              $C$DW$576       .dwtag  DW_TAG_enumerator, DW_AT_name("GPIO_Number_28"), DW_AT_const_value(0x1c)
    4177              $C$DW$577       .dwtag  DW_TAG_enumerator, DW_AT_name("GPIO_Number_29"), DW_AT_const_value(0x1d)
    4178              $C$DW$578       .dwtag  DW_TAG_enumerator, DW_AT_name("GPIO_Rsvd_30"), DW_AT_const_value(0x1e)
    4179              $C$DW$579       .dwtag  DW_TAG_enumerator, DW_AT_name("GPIO_Rsvd_31"), DW_AT_const_value(0x1f)
    4180              $C$DW$580       .dwtag  DW_TAG_enumerator, DW_AT_name("GPIO_Number_32"), DW_AT_const_value(0x20)
    4181              $C$DW$581       .dwtag  DW_TAG_enumerator, DW_AT_name("GPIO_Number_33"), DW_AT_const_value(0x21)
    4182              $C$DW$582       .dwtag  DW_TAG_enumerator, DW_AT_name("GPIO_Number_34"), DW_AT_const_value(0x22)
    4183              $C$DW$583       .dwtag  DW_TAG_enumerator, DW_AT_name("GPIO_Number_35"), DW_AT_const_value(0x23)
    4184              $C$DW$584       .dwtag  DW_TAG_enumerator, DW_AT_name("GPIO_Number_36"), DW_AT_const_value(0x24)
    4185              $C$DW$585       .dwtag  DW_TAG_enumerator, DW_AT_name("GPIO_Number_37"), DW_AT_const_value(0x25)
    4186              $C$DW$586       .dwtag  DW_TAG_enumerator, DW_AT_name("GPIO_Number_38"), DW_AT_const_value(0x26)
    4187              $C$DW$587       .dwtag  DW_TAG_enumerator, DW_AT_name("GPIO_numGpios"), DW_AT_const_value(0x27)
    4188                      .dwendtag $C$DW$T$181
    4189              
    4190              $C$DW$T$182     .dwtag  DW_TAG_typedef, DW_AT_name("GPIO_Number_e")
    4191                      .dwattr $C$DW$T$182, DW_AT_type(*$C$DW$T$181)
    4192                      .dwattr $C$DW$T$182, DW_AT_language(DW_LANG_C)
    4193              $C$DW$588       .dwtag  DW_TAG_TI_far_type
    4194                      .dwattr $C$DW$588, DW_AT_type(*$C$DW$T$182)
    4195              $C$DW$T$183     .dwtag  DW_TAG_const_type
    4196                      .dwattr $C$DW$T$183, DW_AT_type(*$C$DW$588)
    4197              
    4198              $C$DW$T$184     .dwtag  DW_TAG_enumeration_type
    4199                      .dwattr $C$DW$T$184, DW_AT_byte_size(0x01)
    4200              $C$DW$589       .dwtag  DW_TAG_enumerator, DW_AT_name("PIE_GroupNumber_1"), DW_AT_const_value(0x00)
    4201              $C$DW$590       .dwtag  DW_TAG_enumerator, DW_AT_name("PIE_GroupNumber_2"), DW_AT_const_value(0x01)
    4202              $C$DW$591       .dwtag  DW_TAG_enumerator, DW_AT_name("PIE_GroupNumber_3"), DW_AT_const_value(0x02)
    4203              $C$DW$592       .dwtag  DW_TAG_enumerator, DW_AT_name("PIE_GroupNumber_4"), DW_AT_const_value(0x03)
    4204              $C$DW$593       .dwtag  DW_TAG_enumerator, DW_AT_name("PIE_GroupNumber_5"), DW_AT_const_value(0x04)
    4205              $C$DW$594       .dwtag  DW_TAG_enumerator, DW_AT_name("PIE_GroupNumber_6"), DW_AT_const_value(0x05)
    4206              $C$DW$595       .dwtag  DW_TAG_enumerator, DW_AT_name("PIE_GroupNumber_7"), DW_AT_const_value(0x06)
    4207              $C$DW$596       .dwtag  DW_TAG_enumerator, DW_AT_name("PIE_GroupNumber_8"), DW_AT_const_value(0x07)
    4208              $C$DW$597       .dwtag  DW_TAG_enumerator, DW_AT_name("PIE_GroupNumber_9"), DW_AT_const_value(0x08)
    4209              $C$DW$598       .dwtag  DW_TAG_enumerator, DW_AT_name("PIE_GroupNumber_10"), DW_AT_const_value(0x09)
    4210              $C$DW$599       .dwtag  DW_TAG_enumerator, DW_AT_name("PIE_GroupNumber_11"), DW_AT_const_value(0x0a)
    4211              $C$DW$600       .dwtag  DW_TAG_enumerator, DW_AT_name("PIE_GroupNumber_12"), DW_AT_const_value(0x0b)
    4212                      .dwendtag $C$DW$T$184
    4213              
    4214              $C$DW$T$185     .dwtag  DW_TAG_typedef, DW_AT_name("PIE_GroupNumber_e")
    4215                      .dwattr $C$DW$T$185, DW_AT_type(*$C$DW$T$184)
    4216                      .dwattr $C$DW$T$185, DW_AT_language(DW_LANG_C)
    4217              
    4218              $C$DW$T$187     .dwtag  DW_TAG_enumeration_type
    4219                      .dwattr $C$DW$T$187, DW_AT_byte_size(0x01)
    4220              $C$DW$601       .dwtag  DW_TAG_enumerator, DW_AT_name("CTRL_Type_PID_spd"), DW_AT_const_value(0x00)
    4221              $C$DW$602       .dwtag  DW_TAG_enumerator, DW_AT_name("CTRL_Type_PID_Id"), DW_AT_const_value(0x01)
    4222              $C$DW$603       .dwtag  DW_TAG_enumerator, DW_AT_name("CTRL_Type_PID_Iq"), DW_AT_const_value(0x02)
    4223                      .dwendtag $C$DW$T$187
    4224              
    4225              $C$DW$T$188     .dwtag  DW_TAG_typedef, DW_AT_name("CTRL_Type_e")
    4226                      .dwattr $C$DW$T$188, DW_AT_type(*$C$DW$T$187)
    4227                      .dwattr $C$DW$T$188, DW_AT_language(DW_LANG_C)
TMS320C2000 Assembler PC v6.2.5 Thu Jun 22 20:41:15 2017

Tools Copyright (c) 1996-2014 Texas Instruments Incorporated
C:\Users\wmj\AppData\Local\Temp\1712410                              PAGE   84

    4228              
    4229              $C$DW$T$190     .dwtag  DW_TAG_enumeration_type
    4230                      .dwattr $C$DW$T$190, DW_AT_byte_size(0x01)
    4231              $C$DW$604       .dwtag  DW_TAG_enumerator, DW_AT_name("HAL_SensorType_Current"), DW_AT_const_value(0x00)
    4232              $C$DW$605       .dwtag  DW_TAG_enumerator, DW_AT_name("HAL_SensorType_Voltage"), DW_AT_const_value(0x01)
    4233                      .dwendtag $C$DW$T$190
    4234              
    4235              $C$DW$T$191     .dwtag  DW_TAG_typedef, DW_AT_name("HAL_SensorType_e")
    4236                      .dwattr $C$DW$T$191, DW_AT_type(*$C$DW$T$190)
    4237                      .dwattr $C$DW$T$191, DW_AT_language(DW_LANG_C)
    4238              
    4239              $C$DW$T$193     .dwtag  DW_TAG_enumeration_type
    4240                      .dwattr $C$DW$T$193, DW_AT_byte_size(0x01)
    4241              $C$DW$606       .dwtag  DW_TAG_enumerator, DW_AT_name("PWM_Number_1"), DW_AT_const_value(0x00)
    4242              $C$DW$607       .dwtag  DW_TAG_enumerator, DW_AT_name("PWM_Number_2"), DW_AT_const_value(0x01)
    4243              $C$DW$608       .dwtag  DW_TAG_enumerator, DW_AT_name("PWM_Number_3"), DW_AT_const_value(0x02)
    4244              $C$DW$609       .dwtag  DW_TAG_enumerator, DW_AT_name("PWM_Number_4"), DW_AT_const_value(0x03)
    4245                      .dwendtag $C$DW$T$193
    4246              
    4247              $C$DW$T$194     .dwtag  DW_TAG_typedef, DW_AT_name("PWM_Number_e")
    4248                      .dwattr $C$DW$T$194, DW_AT_type(*$C$DW$T$193)
    4249                      .dwattr $C$DW$T$194, DW_AT_language(DW_LANG_C)
    4250              
    4251              $C$DW$T$19      .dwtag  DW_TAG_structure_type
    4252                      .dwattr $C$DW$T$19, DW_AT_name("I2C_Obj")
    4253                      .dwattr $C$DW$T$19, DW_AT_declaration
    4254                      .dwendtag $C$DW$T$19
    4255              
    4256              $C$DW$T$114     .dwtag  DW_TAG_pointer_type
    4257                      .dwattr $C$DW$T$114, DW_AT_type(*$C$DW$T$19)
    4258                      .dwattr $C$DW$T$114, DW_AT_address_class(0x16)
    4259              $C$DW$T$115     .dwtag  DW_TAG_typedef, DW_AT_name("I2C_Handle")
    4260                      .dwattr $C$DW$T$115, DW_AT_type(*$C$DW$T$114)
    4261                      .dwattr $C$DW$T$115, DW_AT_language(DW_LANG_C)
    4262              
    4263              $C$DW$T$31      .dwtag  DW_TAG_structure_type
    4264                      .dwattr $C$DW$T$31, DW_AT_name("_ADC_Obj_")
    4265                      .dwattr $C$DW$T$31, DW_AT_byte_size(0x6650)
    4266              $C$DW$610       .dwtag  DW_TAG_member
    4267                      .dwattr $C$DW$610, DW_AT_type(*$C$DW$T$25)
    4268                      .dwattr $C$DW$610, DW_AT_name("ADCRESULT")
    4269                      .dwattr $C$DW$610, DW_AT_TI_symbol_name("_ADCRESULT")
    4270                      .dwattr $C$DW$610, DW_AT_data_member_location[DW_OP_plus_uconst 0x0]
    4271                      .dwattr $C$DW$610, DW_AT_accessibility(DW_ACCESS_public)
    4272              $C$DW$611       .dwtag  DW_TAG_member
    4273                      .dwattr $C$DW$611, DW_AT_type(*$C$DW$T$26)
    4274                      .dwattr $C$DW$611, DW_AT_name("resvd_1")
    4275                      .dwattr $C$DW$611, DW_AT_TI_symbol_name("_resvd_1")
    4276                      .dwattr $C$DW$611, DW_AT_data_member_location[DW_OP_plus_uconst 0x10]
    4277                      .dwattr $C$DW$611, DW_AT_accessibility(DW_ACCESS_public)
    4278              $C$DW$612       .dwtag  DW_TAG_member
    4279                      .dwattr $C$DW$612, DW_AT_type(*$C$DW$T$24)
    4280                      .dwattr $C$DW$612, DW_AT_name("ADCCTL1")
    4281                      .dwattr $C$DW$612, DW_AT_TI_symbol_name("_ADCCTL1")
    4282                      .dwattr $C$DW$612, DW_AT_data_member_location[DW_OP_plus_uconst 0x6600]
TMS320C2000 Assembler PC v6.2.5 Thu Jun 22 20:41:15 2017

Tools Copyright (c) 1996-2014 Texas Instruments Incorporated
C:\Users\wmj\AppData\Local\Temp\1712410                              PAGE   85

    4283                      .dwattr $C$DW$612, DW_AT_accessibility(DW_ACCESS_public)
    4284              $C$DW$613       .dwtag  DW_TAG_member
    4285                      .dwattr $C$DW$613, DW_AT_type(*$C$DW$T$24)
    4286                      .dwattr $C$DW$613, DW_AT_name("ADCCTL2")
    4287                      .dwattr $C$DW$613, DW_AT_TI_symbol_name("_ADCCTL2")
    4288                      .dwattr $C$DW$613, DW_AT_data_member_location[DW_OP_plus_uconst 0x6601]
    4289                      .dwattr $C$DW$613, DW_AT_accessibility(DW_ACCESS_public)
    4290              $C$DW$614       .dwtag  DW_TAG_member
    4291                      .dwattr $C$DW$614, DW_AT_type(*$C$DW$T$27)
    4292                      .dwattr $C$DW$614, DW_AT_name("rsvd_2")
    4293                      .dwattr $C$DW$614, DW_AT_TI_symbol_name("_rsvd_2")
    4294                      .dwattr $C$DW$614, DW_AT_data_member_location[DW_OP_plus_uconst 0x6602]
    4295                      .dwattr $C$DW$614, DW_AT_accessibility(DW_ACCESS_public)
    4296              $C$DW$615       .dwtag  DW_TAG_member
    4297                      .dwattr $C$DW$615, DW_AT_type(*$C$DW$T$24)
    4298                      .dwattr $C$DW$615, DW_AT_name("ADCINTFLG")
    4299                      .dwattr $C$DW$615, DW_AT_TI_symbol_name("_ADCINTFLG")
    4300                      .dwattr $C$DW$615, DW_AT_data_member_location[DW_OP_plus_uconst 0x6604]
    4301                      .dwattr $C$DW$615, DW_AT_accessibility(DW_ACCESS_public)
    4302              $C$DW$616       .dwtag  DW_TAG_member
    4303                      .dwattr $C$DW$616, DW_AT_type(*$C$DW$T$24)
    4304                      .dwattr $C$DW$616, DW_AT_name("ADCINTFLGCLR")
    4305                      .dwattr $C$DW$616, DW_AT_TI_symbol_name("_ADCINTFLGCLR")
    4306                      .dwattr $C$DW$616, DW_AT_data_member_location[DW_OP_plus_uconst 0x6605]
    4307                      .dwattr $C$DW$616, DW_AT_accessibility(DW_ACCESS_public)
    4308              $C$DW$617       .dwtag  DW_TAG_member
    4309                      .dwattr $C$DW$617, DW_AT_type(*$C$DW$T$24)
    4310                      .dwattr $C$DW$617, DW_AT_name("ADCINTOVF")
    4311                      .dwattr $C$DW$617, DW_AT_TI_symbol_name("_ADCINTOVF")
    4312                      .dwattr $C$DW$617, DW_AT_data_member_location[DW_OP_plus_uconst 0x6606]
    4313                      .dwattr $C$DW$617, DW_AT_accessibility(DW_ACCESS_public)
    4314              $C$DW$618       .dwtag  DW_TAG_member
    4315                      .dwattr $C$DW$618, DW_AT_type(*$C$DW$T$24)
    4316                      .dwattr $C$DW$618, DW_AT_name("ADCINTOVFCLR")
    4317                      .dwattr $C$DW$618, DW_AT_TI_symbol_name("_ADCINTOVFCLR")
    4318                      .dwattr $C$DW$618, DW_AT_data_member_location[DW_OP_plus_uconst 0x6607]
    4319                      .dwattr $C$DW$618, DW_AT_accessibility(DW_ACCESS_public)
    4320              $C$DW$619       .dwtag  DW_TAG_member
    4321                      .dwattr $C$DW$619, DW_AT_type(*$C$DW$T$28)
    4322                      .dwattr $C$DW$619, DW_AT_name("INTSELxNy")
    4323                      .dwattr $C$DW$619, DW_AT_TI_symbol_name("_INTSELxNy")
    4324                      .dwattr $C$DW$619, DW_AT_data_member_location[DW_OP_plus_uconst 0x6608]
    4325                      .dwattr $C$DW$619, DW_AT_accessibility(DW_ACCESS_public)
    4326              $C$DW$620       .dwtag  DW_TAG_member
    4327                      .dwattr $C$DW$620, DW_AT_type(*$C$DW$T$29)
    4328                      .dwattr $C$DW$620, DW_AT_name("rsvd_3")
    4329                      .dwattr $C$DW$620, DW_AT_TI_symbol_name("_rsvd_3")
    4330                      .dwattr $C$DW$620, DW_AT_data_member_location[DW_OP_plus_uconst 0x660d]
    4331                      .dwattr $C$DW$620, DW_AT_accessibility(DW_ACCESS_public)
    4332              $C$DW$621       .dwtag  DW_TAG_member
    4333                      .dwattr $C$DW$621, DW_AT_type(*$C$DW$T$24)
    4334                      .dwattr $C$DW$621, DW_AT_name("SOCPRICTRL")
    4335                      .dwattr $C$DW$621, DW_AT_TI_symbol_name("_SOCPRICTRL")
    4336                      .dwattr $C$DW$621, DW_AT_data_member_location[DW_OP_plus_uconst 0x6610]
    4337                      .dwattr $C$DW$621, DW_AT_accessibility(DW_ACCESS_public)
TMS320C2000 Assembler PC v6.2.5 Thu Jun 22 20:41:15 2017

Tools Copyright (c) 1996-2014 Texas Instruments Incorporated
C:\Users\wmj\AppData\Local\Temp\1712410                              PAGE   86

    4338              $C$DW$622       .dwtag  DW_TAG_member
    4339                      .dwattr $C$DW$622, DW_AT_type(*$C$DW$T$24)
    4340                      .dwattr $C$DW$622, DW_AT_name("rsvd_4")
    4341                      .dwattr $C$DW$622, DW_AT_TI_symbol_name("_rsvd_4")
    4342                      .dwattr $C$DW$622, DW_AT_data_member_location[DW_OP_plus_uconst 0x6611]
    4343                      .dwattr $C$DW$622, DW_AT_accessibility(DW_ACCESS_public)
    4344              $C$DW$623       .dwtag  DW_TAG_member
    4345                      .dwattr $C$DW$623, DW_AT_type(*$C$DW$T$24)
    4346                      .dwattr $C$DW$623, DW_AT_name("ADCSAMPLEMODE")
    4347                      .dwattr $C$DW$623, DW_AT_TI_symbol_name("_ADCSAMPLEMODE")
    4348                      .dwattr $C$DW$623, DW_AT_data_member_location[DW_OP_plus_uconst 0x6612]
    4349                      .dwattr $C$DW$623, DW_AT_accessibility(DW_ACCESS_public)
    4350              $C$DW$624       .dwtag  DW_TAG_member
    4351                      .dwattr $C$DW$624, DW_AT_type(*$C$DW$T$24)
    4352                      .dwattr $C$DW$624, DW_AT_name("rsvd_5")
    4353                      .dwattr $C$DW$624, DW_AT_TI_symbol_name("_rsvd_5")
    4354                      .dwattr $C$DW$624, DW_AT_data_member_location[DW_OP_plus_uconst 0x6613]
    4355                      .dwattr $C$DW$624, DW_AT_accessibility(DW_ACCESS_public)
    4356              $C$DW$625       .dwtag  DW_TAG_member
    4357                      .dwattr $C$DW$625, DW_AT_type(*$C$DW$T$24)
    4358                      .dwattr $C$DW$625, DW_AT_name("ADCINTSOCSEL1")
    4359                      .dwattr $C$DW$625, DW_AT_TI_symbol_name("_ADCINTSOCSEL1")
    4360                      .dwattr $C$DW$625, DW_AT_data_member_location[DW_OP_plus_uconst 0x6614]
    4361                      .dwattr $C$DW$625, DW_AT_accessibility(DW_ACCESS_public)
    4362              $C$DW$626       .dwtag  DW_TAG_member
    4363                      .dwattr $C$DW$626, DW_AT_type(*$C$DW$T$24)
    4364                      .dwattr $C$DW$626, DW_AT_name("ADCINTSOCSEL2")
    4365                      .dwattr $C$DW$626, DW_AT_TI_symbol_name("_ADCINTSOCSEL2")
    4366                      .dwattr $C$DW$626, DW_AT_data_member_location[DW_OP_plus_uconst 0x6615]
    4367                      .dwattr $C$DW$626, DW_AT_accessibility(DW_ACCESS_public)
    4368              $C$DW$627       .dwtag  DW_TAG_member
    4369                      .dwattr $C$DW$627, DW_AT_type(*$C$DW$T$27)
    4370                      .dwattr $C$DW$627, DW_AT_name("rsvd_6")
    4371                      .dwattr $C$DW$627, DW_AT_TI_symbol_name("_rsvd_6")
    4372                      .dwattr $C$DW$627, DW_AT_data_member_location[DW_OP_plus_uconst 0x6616]
    4373                      .dwattr $C$DW$627, DW_AT_accessibility(DW_ACCESS_public)
    4374              $C$DW$628       .dwtag  DW_TAG_member
    4375                      .dwattr $C$DW$628, DW_AT_type(*$C$DW$T$24)
    4376                      .dwattr $C$DW$628, DW_AT_name("ADCSOCFLG1")
    4377                      .dwattr $C$DW$628, DW_AT_TI_symbol_name("_ADCSOCFLG1")
    4378                      .dwattr $C$DW$628, DW_AT_data_member_location[DW_OP_plus_uconst 0x6618]
    4379                      .dwattr $C$DW$628, DW_AT_accessibility(DW_ACCESS_public)
    4380              $C$DW$629       .dwtag  DW_TAG_member
    4381                      .dwattr $C$DW$629, DW_AT_type(*$C$DW$T$24)
    4382                      .dwattr $C$DW$629, DW_AT_name("rsvd_7")
    4383                      .dwattr $C$DW$629, DW_AT_TI_symbol_name("_rsvd_7")
    4384                      .dwattr $C$DW$629, DW_AT_data_member_location[DW_OP_plus_uconst 0x6619]
    4385                      .dwattr $C$DW$629, DW_AT_accessibility(DW_ACCESS_public)
    4386              $C$DW$630       .dwtag  DW_TAG_member
    4387                      .dwattr $C$DW$630, DW_AT_type(*$C$DW$T$24)
    4388                      .dwattr $C$DW$630, DW_AT_name("ADCSOCFRC1")
    4389                      .dwattr $C$DW$630, DW_AT_TI_symbol_name("_ADCSOCFRC1")
    4390                      .dwattr $C$DW$630, DW_AT_data_member_location[DW_OP_plus_uconst 0x661a]
    4391                      .dwattr $C$DW$630, DW_AT_accessibility(DW_ACCESS_public)
    4392              $C$DW$631       .dwtag  DW_TAG_member
TMS320C2000 Assembler PC v6.2.5 Thu Jun 22 20:41:15 2017

Tools Copyright (c) 1996-2014 Texas Instruments Incorporated
C:\Users\wmj\AppData\Local\Temp\1712410                              PAGE   87

    4393                      .dwattr $C$DW$631, DW_AT_type(*$C$DW$T$24)
    4394                      .dwattr $C$DW$631, DW_AT_name("rsvd_8")
    4395                      .dwattr $C$DW$631, DW_AT_TI_symbol_name("_rsvd_8")
    4396                      .dwattr $C$DW$631, DW_AT_data_member_location[DW_OP_plus_uconst 0x661b]
    4397                      .dwattr $C$DW$631, DW_AT_accessibility(DW_ACCESS_public)
    4398              $C$DW$632       .dwtag  DW_TAG_member
    4399                      .dwattr $C$DW$632, DW_AT_type(*$C$DW$T$24)
    4400                      .dwattr $C$DW$632, DW_AT_name("ADCSOCOVF1")
    4401                      .dwattr $C$DW$632, DW_AT_TI_symbol_name("_ADCSOCOVF1")
    4402                      .dwattr $C$DW$632, DW_AT_data_member_location[DW_OP_plus_uconst 0x661c]
    4403                      .dwattr $C$DW$632, DW_AT_accessibility(DW_ACCESS_public)
    4404              $C$DW$633       .dwtag  DW_TAG_member
    4405                      .dwattr $C$DW$633, DW_AT_type(*$C$DW$T$24)
    4406                      .dwattr $C$DW$633, DW_AT_name("rsvd_9")
    4407                      .dwattr $C$DW$633, DW_AT_TI_symbol_name("_rsvd_9")
    4408                      .dwattr $C$DW$633, DW_AT_data_member_location[DW_OP_plus_uconst 0x661d]
    4409                      .dwattr $C$DW$633, DW_AT_accessibility(DW_ACCESS_public)
    4410              $C$DW$634       .dwtag  DW_TAG_member
    4411                      .dwattr $C$DW$634, DW_AT_type(*$C$DW$T$24)
    4412                      .dwattr $C$DW$634, DW_AT_name("ADCSOCOVFCLR1")
    4413                      .dwattr $C$DW$634, DW_AT_TI_symbol_name("_ADCSOCOVFCLR1")
    4414                      .dwattr $C$DW$634, DW_AT_data_member_location[DW_OP_plus_uconst 0x661e]
    4415                      .dwattr $C$DW$634, DW_AT_accessibility(DW_ACCESS_public)
    4416              $C$DW$635       .dwtag  DW_TAG_member
    4417                      .dwattr $C$DW$635, DW_AT_type(*$C$DW$T$24)
    4418                      .dwattr $C$DW$635, DW_AT_name("rsvd_10")
    4419                      .dwattr $C$DW$635, DW_AT_TI_symbol_name("_rsvd_10")
    4420                      .dwattr $C$DW$635, DW_AT_data_member_location[DW_OP_plus_uconst 0x661f]
    4421                      .dwattr $C$DW$635, DW_AT_accessibility(DW_ACCESS_public)
    4422              $C$DW$636       .dwtag  DW_TAG_member
    4423                      .dwattr $C$DW$636, DW_AT_type(*$C$DW$T$25)
    4424                      .dwattr $C$DW$636, DW_AT_name("ADCSOCxCTL")
    4425                      .dwattr $C$DW$636, DW_AT_TI_symbol_name("_ADCSOCxCTL")
    4426                      .dwattr $C$DW$636, DW_AT_data_member_location[DW_OP_plus_uconst 0x6620]
    4427                      .dwattr $C$DW$636, DW_AT_accessibility(DW_ACCESS_public)
    4428              $C$DW$637       .dwtag  DW_TAG_member
    4429                      .dwattr $C$DW$637, DW_AT_type(*$C$DW$T$25)
    4430                      .dwattr $C$DW$637, DW_AT_name("rsvd_11")
    4431                      .dwattr $C$DW$637, DW_AT_TI_symbol_name("_rsvd_11")
    4432                      .dwattr $C$DW$637, DW_AT_data_member_location[DW_OP_plus_uconst 0x6630]
    4433                      .dwattr $C$DW$637, DW_AT_accessibility(DW_ACCESS_public)
    4434              $C$DW$638       .dwtag  DW_TAG_member
    4435                      .dwattr $C$DW$638, DW_AT_type(*$C$DW$T$24)
    4436                      .dwattr $C$DW$638, DW_AT_name("ADCREFTRIM")
    4437                      .dwattr $C$DW$638, DW_AT_TI_symbol_name("_ADCREFTRIM")
    4438                      .dwattr $C$DW$638, DW_AT_data_member_location[DW_OP_plus_uconst 0x6640]
    4439                      .dwattr $C$DW$638, DW_AT_accessibility(DW_ACCESS_public)
    4440              $C$DW$639       .dwtag  DW_TAG_member
    4441                      .dwattr $C$DW$639, DW_AT_type(*$C$DW$T$24)
    4442                      .dwattr $C$DW$639, DW_AT_name("ADCOFFTRIM")
    4443                      .dwattr $C$DW$639, DW_AT_TI_symbol_name("_ADCOFFTRIM")
    4444                      .dwattr $C$DW$639, DW_AT_data_member_location[DW_OP_plus_uconst 0x6641]
    4445                      .dwattr $C$DW$639, DW_AT_accessibility(DW_ACCESS_public)
    4446              $C$DW$640       .dwtag  DW_TAG_member
    4447                      .dwattr $C$DW$640, DW_AT_type(*$C$DW$T$30)
TMS320C2000 Assembler PC v6.2.5 Thu Jun 22 20:41:15 2017

Tools Copyright (c) 1996-2014 Texas Instruments Incorporated
C:\Users\wmj\AppData\Local\Temp\1712410                              PAGE   88

    4448                      .dwattr $C$DW$640, DW_AT_name("resvd_12")
    4449                      .dwattr $C$DW$640, DW_AT_TI_symbol_name("_resvd_12")
    4450                      .dwattr $C$DW$640, DW_AT_data_member_location[DW_OP_plus_uconst 0x6642]
    4451                      .dwattr $C$DW$640, DW_AT_accessibility(DW_ACCESS_public)
    4452              $C$DW$641       .dwtag  DW_TAG_member
    4453                      .dwattr $C$DW$641, DW_AT_type(*$C$DW$T$24)
    4454                      .dwattr $C$DW$641, DW_AT_name("ADCREV")
    4455                      .dwattr $C$DW$641, DW_AT_TI_symbol_name("_ADCREV")
    4456                      .dwattr $C$DW$641, DW_AT_data_member_location[DW_OP_plus_uconst 0x664f]
    4457                      .dwattr $C$DW$641, DW_AT_accessibility(DW_ACCESS_public)
    4458                      .dwendtag $C$DW$T$31
    4459              
    4460              $C$DW$T$196     .dwtag  DW_TAG_typedef, DW_AT_name("ADC_Obj")
    4461                      .dwattr $C$DW$T$196, DW_AT_type(*$C$DW$T$31)
    4462                      .dwattr $C$DW$T$196, DW_AT_language(DW_LANG_C)
    4463              $C$DW$T$85      .dwtag  DW_TAG_pointer_type
    4464                      .dwattr $C$DW$T$85, DW_AT_type(*$C$DW$T$31)
    4465                      .dwattr $C$DW$T$85, DW_AT_address_class(0x16)
    4466              $C$DW$T$86      .dwtag  DW_TAG_typedef, DW_AT_name("ADC_Handle")
    4467                      .dwattr $C$DW$T$86, DW_AT_type(*$C$DW$T$85)
    4468                      .dwattr $C$DW$T$86, DW_AT_language(DW_LANG_C)
    4469              
    4470              $C$DW$T$34      .dwtag  DW_TAG_structure_type
    4471                      .dwattr $C$DW$T$34, DW_AT_name("_CLARKE_Obj_")
    4472                      .dwattr $C$DW$T$34, DW_AT_byte_size(0x06)
    4473              $C$DW$642       .dwtag  DW_TAG_member
    4474                      .dwattr $C$DW$642, DW_AT_type(*$C$DW$T$32)
    4475                      .dwattr $C$DW$642, DW_AT_name("alpha_sf")
    4476                      .dwattr $C$DW$642, DW_AT_TI_symbol_name("_alpha_sf")
    4477                      .dwattr $C$DW$642, DW_AT_data_member_location[DW_OP_plus_uconst 0x0]
    4478                      .dwattr $C$DW$642, DW_AT_accessibility(DW_ACCESS_public)
    4479              $C$DW$643       .dwtag  DW_TAG_member
    4480                      .dwattr $C$DW$643, DW_AT_type(*$C$DW$T$32)
    4481                      .dwattr $C$DW$643, DW_AT_name("beta_sf")
    4482                      .dwattr $C$DW$643, DW_AT_TI_symbol_name("_beta_sf")
    4483                      .dwattr $C$DW$643, DW_AT_data_member_location[DW_OP_plus_uconst 0x2]
    4484                      .dwattr $C$DW$643, DW_AT_accessibility(DW_ACCESS_public)
    4485              $C$DW$644       .dwtag  DW_TAG_member
    4486                      .dwattr $C$DW$644, DW_AT_type(*$C$DW$T$33)
    4487                      .dwattr $C$DW$644, DW_AT_name("numSensors")
    4488                      .dwattr $C$DW$644, DW_AT_TI_symbol_name("_numSensors")
    4489                      .dwattr $C$DW$644, DW_AT_data_member_location[DW_OP_plus_uconst 0x4]
    4490                      .dwattr $C$DW$644, DW_AT_accessibility(DW_ACCESS_public)
    4491                      .dwendtag $C$DW$T$34
    4492              
    4493              $C$DW$T$48      .dwtag  DW_TAG_typedef, DW_AT_name("CLARKE_Obj")
    4494                      .dwattr $C$DW$T$48, DW_AT_type(*$C$DW$T$34)
    4495                      .dwattr $C$DW$T$48, DW_AT_language(DW_LANG_C)
    4496              $C$DW$T$46      .dwtag  DW_TAG_pointer_type
    4497                      .dwattr $C$DW$T$46, DW_AT_type(*$C$DW$T$34)
    4498                      .dwattr $C$DW$T$46, DW_AT_address_class(0x16)
    4499              $C$DW$T$47      .dwtag  DW_TAG_typedef, DW_AT_name("CLARKE_Handle")
    4500                      .dwattr $C$DW$T$47, DW_AT_type(*$C$DW$T$46)
    4501                      .dwattr $C$DW$T$47, DW_AT_language(DW_LANG_C)
    4502              
TMS320C2000 Assembler PC v6.2.5 Thu Jun 22 20:41:15 2017

Tools Copyright (c) 1996-2014 Texas Instruments Incorporated
C:\Users\wmj\AppData\Local\Temp\1712410                              PAGE   89

    4503              $C$DW$T$36      .dwtag  DW_TAG_structure_type
    4504                      .dwattr $C$DW$T$36, DW_AT_name("_CLK_Obj_")
    4505                      .dwattr $C$DW$T$36, DW_AT_byte_size(0x11)
    4506              $C$DW$645       .dwtag  DW_TAG_member
    4507                      .dwattr $C$DW$645, DW_AT_type(*$C$DW$T$24)
    4508                      .dwattr $C$DW$645, DW_AT_name("XCLK")
    4509                      .dwattr $C$DW$645, DW_AT_TI_symbol_name("_XCLK")
    4510                      .dwattr $C$DW$645, DW_AT_data_member_location[DW_OP_plus_uconst 0x0]
    4511                      .dwattr $C$DW$645, DW_AT_accessibility(DW_ACCESS_public)
    4512              $C$DW$646       .dwtag  DW_TAG_member
    4513                      .dwattr $C$DW$646, DW_AT_type(*$C$DW$T$24)
    4514                      .dwattr $C$DW$646, DW_AT_name("rsvd_1")
    4515                      .dwattr $C$DW$646, DW_AT_TI_symbol_name("_rsvd_1")
    4516                      .dwattr $C$DW$646, DW_AT_data_member_location[DW_OP_plus_uconst 0x1]
    4517                      .dwattr $C$DW$646, DW_AT_accessibility(DW_ACCESS_public)
    4518              $C$DW$647       .dwtag  DW_TAG_member
    4519                      .dwattr $C$DW$647, DW_AT_type(*$C$DW$T$24)
    4520                      .dwattr $C$DW$647, DW_AT_name("CLKCTL")
    4521                      .dwattr $C$DW$647, DW_AT_TI_symbol_name("_CLKCTL")
    4522                      .dwattr $C$DW$647, DW_AT_data_member_location[DW_OP_plus_uconst 0x2]
    4523                      .dwattr $C$DW$647, DW_AT_accessibility(DW_ACCESS_public)
    4524              $C$DW$648       .dwtag  DW_TAG_member
    4525                      .dwattr $C$DW$648, DW_AT_type(*$C$DW$T$35)
    4526                      .dwattr $C$DW$648, DW_AT_name("rsvd_2")
    4527                      .dwattr $C$DW$648, DW_AT_TI_symbol_name("_rsvd_2")
    4528                      .dwattr $C$DW$648, DW_AT_data_member_location[DW_OP_plus_uconst 0x3]
    4529                      .dwattr $C$DW$648, DW_AT_accessibility(DW_ACCESS_public)
    4530              $C$DW$649       .dwtag  DW_TAG_member
    4531                      .dwattr $C$DW$649, DW_AT_type(*$C$DW$T$24)
    4532                      .dwattr $C$DW$649, DW_AT_name("LOSPCP")
    4533                      .dwattr $C$DW$649, DW_AT_TI_symbol_name("_LOSPCP")
    4534                      .dwattr $C$DW$649, DW_AT_data_member_location[DW_OP_plus_uconst 0xb]
    4535                      .dwattr $C$DW$649, DW_AT_accessibility(DW_ACCESS_public)
    4536              $C$DW$650       .dwtag  DW_TAG_member
    4537                      .dwattr $C$DW$650, DW_AT_type(*$C$DW$T$24)
    4538                      .dwattr $C$DW$650, DW_AT_name("PCLKCR0")
    4539                      .dwattr $C$DW$650, DW_AT_TI_symbol_name("_PCLKCR0")
    4540                      .dwattr $C$DW$650, DW_AT_data_member_location[DW_OP_plus_uconst 0xc]
    4541                      .dwattr $C$DW$650, DW_AT_accessibility(DW_ACCESS_public)
    4542              $C$DW$651       .dwtag  DW_TAG_member
    4543                      .dwattr $C$DW$651, DW_AT_type(*$C$DW$T$24)
    4544                      .dwattr $C$DW$651, DW_AT_name("PCLKCR1")
    4545                      .dwattr $C$DW$651, DW_AT_TI_symbol_name("_PCLKCR1")
    4546                      .dwattr $C$DW$651, DW_AT_data_member_location[DW_OP_plus_uconst 0xd]
    4547                      .dwattr $C$DW$651, DW_AT_accessibility(DW_ACCESS_public)
    4548              $C$DW$652       .dwtag  DW_TAG_member
    4549                      .dwattr $C$DW$652, DW_AT_type(*$C$DW$T$27)
    4550                      .dwattr $C$DW$652, DW_AT_name("rsvd_3")
    4551                      .dwattr $C$DW$652, DW_AT_TI_symbol_name("_rsvd_3")
    4552                      .dwattr $C$DW$652, DW_AT_data_member_location[DW_OP_plus_uconst 0xe]
    4553                      .dwattr $C$DW$652, DW_AT_accessibility(DW_ACCESS_public)
    4554              $C$DW$653       .dwtag  DW_TAG_member
    4555                      .dwattr $C$DW$653, DW_AT_type(*$C$DW$T$24)
    4556                      .dwattr $C$DW$653, DW_AT_name("PCLKCR3")
    4557                      .dwattr $C$DW$653, DW_AT_TI_symbol_name("_PCLKCR3")
TMS320C2000 Assembler PC v6.2.5 Thu Jun 22 20:41:15 2017

Tools Copyright (c) 1996-2014 Texas Instruments Incorporated
C:\Users\wmj\AppData\Local\Temp\1712410                              PAGE   90

    4558                      .dwattr $C$DW$653, DW_AT_data_member_location[DW_OP_plus_uconst 0x10]
    4559                      .dwattr $C$DW$653, DW_AT_accessibility(DW_ACCESS_public)
    4560                      .dwendtag $C$DW$T$36
    4561              
    4562              $C$DW$T$87      .dwtag  DW_TAG_pointer_type
    4563                      .dwattr $C$DW$T$87, DW_AT_type(*$C$DW$T$36)
    4564                      .dwattr $C$DW$T$87, DW_AT_address_class(0x16)
    4565              $C$DW$T$88      .dwtag  DW_TAG_typedef, DW_AT_name("CLK_Handle")
    4566                      .dwattr $C$DW$T$88, DW_AT_type(*$C$DW$T$87)
    4567                      .dwattr $C$DW$T$88, DW_AT_language(DW_LANG_C)
    4568              
    4569              $C$DW$T$37      .dwtag  DW_TAG_structure_type
    4570                      .dwattr $C$DW$T$37, DW_AT_name("_CPU_Obj_")
    4571                      .dwattr $C$DW$T$37, DW_AT_byte_size(0x01)
    4572              $C$DW$654       .dwtag  DW_TAG_member
    4573                      .dwattr $C$DW$654, DW_AT_type(*$C$DW$T$33)
    4574                      .dwattr $C$DW$654, DW_AT_name("tmp")
    4575                      .dwattr $C$DW$654, DW_AT_TI_symbol_name("_tmp")
    4576                      .dwattr $C$DW$654, DW_AT_data_member_location[DW_OP_plus_uconst 0x0]
    4577                      .dwattr $C$DW$654, DW_AT_accessibility(DW_ACCESS_public)
    4578                      .dwendtag $C$DW$T$37
    4579              
    4580              $C$DW$T$89      .dwtag  DW_TAG_pointer_type
    4581                      .dwattr $C$DW$T$89, DW_AT_type(*$C$DW$T$37)
    4582                      .dwattr $C$DW$T$89, DW_AT_address_class(0x16)
    4583              $C$DW$T$90      .dwtag  DW_TAG_typedef, DW_AT_name("CPU_Handle")
    4584                      .dwattr $C$DW$T$90, DW_AT_type(*$C$DW$T$89)
    4585                      .dwattr $C$DW$T$90, DW_AT_language(DW_LANG_C)
    4586              
    4587              $C$DW$T$40      .dwtag  DW_TAG_structure_type
    4588                      .dwattr $C$DW$T$40, DW_AT_name("_CPU_USAGE_Obj_")
    4589                      .dwattr $C$DW$T$40, DW_AT_byte_size(0x16)
    4590              $C$DW$655       .dwtag  DW_TAG_member
    4591                      .dwattr $C$DW$655, DW_AT_type(*$C$DW$T$38)
    4592                      .dwattr $C$DW$655, DW_AT_name("timerPeriod_cnts")
    4593                      .dwattr $C$DW$655, DW_AT_TI_symbol_name("_timerPeriod_cnts")
    4594                      .dwattr $C$DW$655, DW_AT_data_member_location[DW_OP_plus_uconst 0x0]
    4595                      .dwattr $C$DW$655, DW_AT_accessibility(DW_ACCESS_public)
    4596              $C$DW$656       .dwtag  DW_TAG_member
    4597                      .dwattr $C$DW$656, DW_AT_type(*$C$DW$T$38)
    4598                      .dwattr $C$DW$656, DW_AT_name("cnt_z0")
    4599                      .dwattr $C$DW$656, DW_AT_TI_symbol_name("_cnt_z0")
    4600                      .dwattr $C$DW$656, DW_AT_data_member_location[DW_OP_plus_uconst 0x2]
    4601                      .dwattr $C$DW$656, DW_AT_accessibility(DW_ACCESS_public)
    4602              $C$DW$657       .dwtag  DW_TAG_member
    4603                      .dwattr $C$DW$657, DW_AT_type(*$C$DW$T$38)
    4604                      .dwattr $C$DW$657, DW_AT_name("cnt_z1")
    4605                      .dwattr $C$DW$657, DW_AT_TI_symbol_name("_cnt_z1")
    4606                      .dwattr $C$DW$657, DW_AT_data_member_location[DW_OP_plus_uconst 0x4]
    4607                      .dwattr $C$DW$657, DW_AT_accessibility(DW_ACCESS_public)
    4608              $C$DW$658       .dwtag  DW_TAG_member
    4609                      .dwattr $C$DW$658, DW_AT_type(*$C$DW$T$38)
    4610                      .dwattr $C$DW$658, DW_AT_name("deltaCnt")
    4611                      .dwattr $C$DW$658, DW_AT_TI_symbol_name("_deltaCnt")
    4612                      .dwattr $C$DW$658, DW_AT_data_member_location[DW_OP_plus_uconst 0x6]
TMS320C2000 Assembler PC v6.2.5 Thu Jun 22 20:41:15 2017

Tools Copyright (c) 1996-2014 Texas Instruments Incorporated
C:\Users\wmj\AppData\Local\Temp\1712410                              PAGE   91

    4613                      .dwattr $C$DW$658, DW_AT_accessibility(DW_ACCESS_public)
    4614              $C$DW$659       .dwtag  DW_TAG_member
    4615                      .dwattr $C$DW$659, DW_AT_type(*$C$DW$T$38)
    4616                      .dwattr $C$DW$659, DW_AT_name("deltaCntAcc")
    4617                      .dwattr $C$DW$659, DW_AT_TI_symbol_name("_deltaCntAcc")
    4618                      .dwattr $C$DW$659, DW_AT_data_member_location[DW_OP_plus_uconst 0x8]
    4619                      .dwattr $C$DW$659, DW_AT_accessibility(DW_ACCESS_public)
    4620              $C$DW$660       .dwtag  DW_TAG_member
    4621                      .dwattr $C$DW$660, DW_AT_type(*$C$DW$T$38)
    4622                      .dwattr $C$DW$660, DW_AT_name("deltaCntAccNum")
    4623                      .dwattr $C$DW$660, DW_AT_TI_symbol_name("_deltaCntAccNum")
    4624                      .dwattr $C$DW$660, DW_AT_data_member_location[DW_OP_plus_uconst 0xa]
    4625                      .dwattr $C$DW$660, DW_AT_accessibility(DW_ACCESS_public)
    4626              $C$DW$661       .dwtag  DW_TAG_member
    4627                      .dwattr $C$DW$661, DW_AT_type(*$C$DW$T$38)
    4628                      .dwattr $C$DW$661, DW_AT_name("deltaCntAccNumMax")
    4629                      .dwattr $C$DW$661, DW_AT_TI_symbol_name("_deltaCntAccNumMax")
    4630                      .dwattr $C$DW$661, DW_AT_data_member_location[DW_OP_plus_uconst 0xc]
    4631                      .dwattr $C$DW$661, DW_AT_accessibility(DW_ACCESS_public)
    4632              $C$DW$662       .dwtag  DW_TAG_member
    4633                      .dwattr $C$DW$662, DW_AT_type(*$C$DW$T$38)
    4634                      .dwattr $C$DW$662, DW_AT_name("minDeltaCntObserved")
    4635                      .dwattr $C$DW$662, DW_AT_TI_symbol_name("_minDeltaCntObserved")
    4636                      .dwattr $C$DW$662, DW_AT_data_member_location[DW_OP_plus_uconst 0xe]
    4637                      .dwattr $C$DW$662, DW_AT_accessibility(DW_ACCESS_public)
    4638              $C$DW$663       .dwtag  DW_TAG_member
    4639                      .dwattr $C$DW$663, DW_AT_type(*$C$DW$T$38)
    4640                      .dwattr $C$DW$663, DW_AT_name("avgDeltaCntObserved")
    4641                      .dwattr $C$DW$663, DW_AT_TI_symbol_name("_avgDeltaCntObserved")
    4642                      .dwattr $C$DW$663, DW_AT_data_member_location[DW_OP_plus_uconst 0x10]
    4643                      .dwattr $C$DW$663, DW_AT_accessibility(DW_ACCESS_public)
    4644              $C$DW$664       .dwtag  DW_TAG_member
    4645                      .dwattr $C$DW$664, DW_AT_type(*$C$DW$T$38)
    4646                      .dwattr $C$DW$664, DW_AT_name("maxDeltaCntObserved")
    4647                      .dwattr $C$DW$664, DW_AT_TI_symbol_name("_maxDeltaCntObserved")
    4648                      .dwattr $C$DW$664, DW_AT_data_member_location[DW_OP_plus_uconst 0x12]
    4649                      .dwattr $C$DW$664, DW_AT_accessibility(DW_ACCESS_public)
    4650              $C$DW$665       .dwtag  DW_TAG_member
    4651                      .dwattr $C$DW$665, DW_AT_type(*$C$DW$T$39)
    4652                      .dwattr $C$DW$665, DW_AT_name("flag_resetStats")
    4653                      .dwattr $C$DW$665, DW_AT_TI_symbol_name("_flag_resetStats")
    4654                      .dwattr $C$DW$665, DW_AT_data_member_location[DW_OP_plus_uconst 0x14]
    4655                      .dwattr $C$DW$665, DW_AT_accessibility(DW_ACCESS_public)
    4656                      .dwendtag $C$DW$T$40
    4657              
    4658              $C$DW$T$197     .dwtag  DW_TAG_typedef, DW_AT_name("CPU_USAGE_Obj")
    4659                      .dwattr $C$DW$T$197, DW_AT_type(*$C$DW$T$40)
    4660                      .dwattr $C$DW$T$197, DW_AT_language(DW_LANG_C)
    4661              $C$DW$T$198     .dwtag  DW_TAG_pointer_type
    4662                      .dwattr $C$DW$T$198, DW_AT_type(*$C$DW$T$40)
    4663                      .dwattr $C$DW$T$198, DW_AT_address_class(0x16)
    4664              $C$DW$T$199     .dwtag  DW_TAG_typedef, DW_AT_name("CPU_USAGE_Handle")
    4665                      .dwattr $C$DW$T$199, DW_AT_type(*$C$DW$T$198)
    4666                      .dwattr $C$DW$T$199, DW_AT_language(DW_LANG_C)
    4667              
TMS320C2000 Assembler PC v6.2.5 Thu Jun 22 20:41:15 2017

Tools Copyright (c) 1996-2014 Texas Instruments Incorporated
C:\Users\wmj\AppData\Local\Temp\1712410                              PAGE   92

    4668              $C$DW$T$72      .dwtag  DW_TAG_structure_type
    4669                      .dwattr $C$DW$T$72, DW_AT_name("_CTRL_Obj_")
    4670                      .dwattr $C$DW$T$72, DW_AT_byte_size(0x108)
    4671              $C$DW$666       .dwtag  DW_TAG_member
    4672                      .dwattr $C$DW$666, DW_AT_type(*$C$DW$T$41)
    4673                      .dwattr $C$DW$666, DW_AT_name("version")
    4674                      .dwattr $C$DW$666, DW_AT_TI_symbol_name("_version")
    4675                      .dwattr $C$DW$666, DW_AT_data_member_location[DW_OP_plus_uconst 0x0]
    4676                      .dwattr $C$DW$666, DW_AT_accessibility(DW_ACCESS_public)
    4677              $C$DW$667       .dwtag  DW_TAG_member
    4678                      .dwattr $C$DW$667, DW_AT_type(*$C$DW$T$43)
    4679                      .dwattr $C$DW$667, DW_AT_name("state")
    4680                      .dwattr $C$DW$667, DW_AT_TI_symbol_name("_state")
    4681                      .dwattr $C$DW$667, DW_AT_data_member_location[DW_OP_plus_uconst 0x4]
    4682                      .dwattr $C$DW$667, DW_AT_accessibility(DW_ACCESS_public)
    4683              $C$DW$668       .dwtag  DW_TAG_member
    4684                      .dwattr $C$DW$668, DW_AT_type(*$C$DW$T$43)
    4685                      .dwattr $C$DW$668, DW_AT_name("prevState")
    4686                      .dwattr $C$DW$668, DW_AT_TI_symbol_name("_prevState")
    4687                      .dwattr $C$DW$668, DW_AT_data_member_location[DW_OP_plus_uconst 0x5]
    4688                      .dwattr $C$DW$668, DW_AT_accessibility(DW_ACCESS_public)
    4689              $C$DW$669       .dwtag  DW_TAG_member
    4690                      .dwattr $C$DW$669, DW_AT_type(*$C$DW$T$45)
    4691                      .dwattr $C$DW$669, DW_AT_name("errorCode")
    4692                      .dwattr $C$DW$669, DW_AT_TI_symbol_name("_errorCode")
    4693                      .dwattr $C$DW$669, DW_AT_data_member_location[DW_OP_plus_uconst 0x6]
    4694                      .dwattr $C$DW$669, DW_AT_accessibility(DW_ACCESS_public)
    4695              $C$DW$670       .dwtag  DW_TAG_member
    4696                      .dwattr $C$DW$670, DW_AT_type(*$C$DW$T$47)
    4697                      .dwattr $C$DW$670, DW_AT_name("clarkeHandle_I")
    4698                      .dwattr $C$DW$670, DW_AT_TI_symbol_name("_clarkeHandle_I")
    4699                      .dwattr $C$DW$670, DW_AT_data_member_location[DW_OP_plus_uconst 0x8]
    4700                      .dwattr $C$DW$670, DW_AT_accessibility(DW_ACCESS_public)
    4701              $C$DW$671       .dwtag  DW_TAG_member
    4702                      .dwattr $C$DW$671, DW_AT_type(*$C$DW$T$48)
    4703                      .dwattr $C$DW$671, DW_AT_name("clarke_I")
    4704                      .dwattr $C$DW$671, DW_AT_TI_symbol_name("_clarke_I")
    4705                      .dwattr $C$DW$671, DW_AT_data_member_location[DW_OP_plus_uconst 0xa]
    4706                      .dwattr $C$DW$671, DW_AT_accessibility(DW_ACCESS_public)
    4707              $C$DW$672       .dwtag  DW_TAG_member
    4708                      .dwattr $C$DW$672, DW_AT_type(*$C$DW$T$47)
    4709                      .dwattr $C$DW$672, DW_AT_name("clarkeHandle_V")
    4710                      .dwattr $C$DW$672, DW_AT_TI_symbol_name("_clarkeHandle_V")
    4711                      .dwattr $C$DW$672, DW_AT_data_member_location[DW_OP_plus_uconst 0x10]
    4712                      .dwattr $C$DW$672, DW_AT_accessibility(DW_ACCESS_public)
    4713              $C$DW$673       .dwtag  DW_TAG_member
    4714                      .dwattr $C$DW$673, DW_AT_type(*$C$DW$T$48)
    4715                      .dwattr $C$DW$673, DW_AT_name("clarke_V")
    4716                      .dwattr $C$DW$673, DW_AT_TI_symbol_name("_clarke_V")
    4717                      .dwattr $C$DW$673, DW_AT_data_member_location[DW_OP_plus_uconst 0x12]
    4718                      .dwattr $C$DW$673, DW_AT_accessibility(DW_ACCESS_public)
    4719              $C$DW$674       .dwtag  DW_TAG_member
    4720                      .dwattr $C$DW$674, DW_AT_type(*$C$DW$T$50)
    4721                      .dwattr $C$DW$674, DW_AT_name("estHandle")
    4722                      .dwattr $C$DW$674, DW_AT_TI_symbol_name("_estHandle")
TMS320C2000 Assembler PC v6.2.5 Thu Jun 22 20:41:15 2017

Tools Copyright (c) 1996-2014 Texas Instruments Incorporated
C:\Users\wmj\AppData\Local\Temp\1712410                              PAGE   93

    4723                      .dwattr $C$DW$674, DW_AT_data_member_location[DW_OP_plus_uconst 0x18]
    4724                      .dwattr $C$DW$674, DW_AT_accessibility(DW_ACCESS_public)
    4725              $C$DW$675       .dwtag  DW_TAG_member
    4726                      .dwattr $C$DW$675, DW_AT_type(*$C$DW$T$52)
    4727                      .dwattr $C$DW$675, DW_AT_name("parkHandle")
    4728                      .dwattr $C$DW$675, DW_AT_TI_symbol_name("_parkHandle")
    4729                      .dwattr $C$DW$675, DW_AT_data_member_location[DW_OP_plus_uconst 0x1a]
    4730                      .dwattr $C$DW$675, DW_AT_accessibility(DW_ACCESS_public)
    4731              $C$DW$676       .dwtag  DW_TAG_member
    4732                      .dwattr $C$DW$676, DW_AT_type(*$C$DW$T$53)
    4733                      .dwattr $C$DW$676, DW_AT_name("park")
    4734                      .dwattr $C$DW$676, DW_AT_TI_symbol_name("_park")
    4735                      .dwattr $C$DW$676, DW_AT_data_member_location[DW_OP_plus_uconst 0x1c]
    4736                      .dwattr $C$DW$676, DW_AT_accessibility(DW_ACCESS_public)
    4737              $C$DW$677       .dwtag  DW_TAG_member
    4738                      .dwattr $C$DW$677, DW_AT_type(*$C$DW$T$55)
    4739                      .dwattr $C$DW$677, DW_AT_name("pidHandle_Id")
    4740                      .dwattr $C$DW$677, DW_AT_TI_symbol_name("_pidHandle_Id")
    4741                      .dwattr $C$DW$677, DW_AT_data_member_location[DW_OP_plus_uconst 0x20]
    4742                      .dwattr $C$DW$677, DW_AT_accessibility(DW_ACCESS_public)
    4743              $C$DW$678       .dwtag  DW_TAG_member
    4744                      .dwattr $C$DW$678, DW_AT_type(*$C$DW$T$56)
    4745                      .dwattr $C$DW$678, DW_AT_name("pid_Id")
    4746                      .dwattr $C$DW$678, DW_AT_TI_symbol_name("_pid_Id")
    4747                      .dwattr $C$DW$678, DW_AT_data_member_location[DW_OP_plus_uconst 0x22]
    4748                      .dwattr $C$DW$678, DW_AT_accessibility(DW_ACCESS_public)
    4749              $C$DW$679       .dwtag  DW_TAG_member
    4750                      .dwattr $C$DW$679, DW_AT_type(*$C$DW$T$55)
    4751                      .dwattr $C$DW$679, DW_AT_name("pidHandle_Iq")
    4752                      .dwattr $C$DW$679, DW_AT_TI_symbol_name("_pidHandle_Iq")
    4753                      .dwattr $C$DW$679, DW_AT_data_member_location[DW_OP_plus_uconst 0x32]
    4754                      .dwattr $C$DW$679, DW_AT_accessibility(DW_ACCESS_public)
    4755              $C$DW$680       .dwtag  DW_TAG_member
    4756                      .dwattr $C$DW$680, DW_AT_type(*$C$DW$T$56)
    4757                      .dwattr $C$DW$680, DW_AT_name("pid_Iq")
    4758                      .dwattr $C$DW$680, DW_AT_TI_symbol_name("_pid_Iq")
    4759                      .dwattr $C$DW$680, DW_AT_data_member_location[DW_OP_plus_uconst 0x34]
    4760                      .dwattr $C$DW$680, DW_AT_accessibility(DW_ACCESS_public)
    4761              $C$DW$681       .dwtag  DW_TAG_member
    4762                      .dwattr $C$DW$681, DW_AT_type(*$C$DW$T$55)
    4763                      .dwattr $C$DW$681, DW_AT_name("pidHandle_spd")
    4764                      .dwattr $C$DW$681, DW_AT_TI_symbol_name("_pidHandle_spd")
    4765                      .dwattr $C$DW$681, DW_AT_data_member_location[DW_OP_plus_uconst 0x44]
    4766                      .dwattr $C$DW$681, DW_AT_accessibility(DW_ACCESS_public)
    4767              $C$DW$682       .dwtag  DW_TAG_member
    4768                      .dwattr $C$DW$682, DW_AT_type(*$C$DW$T$56)
    4769                      .dwattr $C$DW$682, DW_AT_name("pid_spd")
    4770                      .dwattr $C$DW$682, DW_AT_TI_symbol_name("_pid_spd")
    4771                      .dwattr $C$DW$682, DW_AT_data_member_location[DW_OP_plus_uconst 0x46]
    4772                      .dwattr $C$DW$682, DW_AT_accessibility(DW_ACCESS_public)
    4773              $C$DW$683       .dwtag  DW_TAG_member
    4774                      .dwattr $C$DW$683, DW_AT_type(*$C$DW$T$58)
    4775                      .dwattr $C$DW$683, DW_AT_name("iparkHandle")
    4776                      .dwattr $C$DW$683, DW_AT_TI_symbol_name("_iparkHandle")
    4777                      .dwattr $C$DW$683, DW_AT_data_member_location[DW_OP_plus_uconst 0x56]
TMS320C2000 Assembler PC v6.2.5 Thu Jun 22 20:41:15 2017

Tools Copyright (c) 1996-2014 Texas Instruments Incorporated
C:\Users\wmj\AppData\Local\Temp\1712410                              PAGE   94

    4778                      .dwattr $C$DW$683, DW_AT_accessibility(DW_ACCESS_public)
    4779              $C$DW$684       .dwtag  DW_TAG_member
    4780                      .dwattr $C$DW$684, DW_AT_type(*$C$DW$T$59)
    4781                      .dwattr $C$DW$684, DW_AT_name("ipark")
    4782                      .dwattr $C$DW$684, DW_AT_TI_symbol_name("_ipark")
    4783                      .dwattr $C$DW$684, DW_AT_data_member_location[DW_OP_plus_uconst 0x58]
    4784                      .dwattr $C$DW$684, DW_AT_accessibility(DW_ACCESS_public)
    4785              $C$DW$685       .dwtag  DW_TAG_member
    4786                      .dwattr $C$DW$685, DW_AT_type(*$C$DW$T$61)
    4787                      .dwattr $C$DW$685, DW_AT_name("svgenHandle")
    4788                      .dwattr $C$DW$685, DW_AT_TI_symbol_name("_svgenHandle")
    4789                      .dwattr $C$DW$685, DW_AT_data_member_location[DW_OP_plus_uconst 0x5c]
    4790                      .dwattr $C$DW$685, DW_AT_accessibility(DW_ACCESS_public)
    4791              $C$DW$686       .dwtag  DW_TAG_member
    4792                      .dwattr $C$DW$686, DW_AT_type(*$C$DW$T$62)
    4793                      .dwattr $C$DW$686, DW_AT_name("svgen")
    4794                      .dwattr $C$DW$686, DW_AT_TI_symbol_name("_svgen")
    4795                      .dwattr $C$DW$686, DW_AT_data_member_location[DW_OP_plus_uconst 0x5e]
    4796                      .dwattr $C$DW$686, DW_AT_accessibility(DW_ACCESS_public)
    4797              $C$DW$687       .dwtag  DW_TAG_member
    4798                      .dwattr $C$DW$687, DW_AT_type(*$C$DW$T$64)
    4799                      .dwattr $C$DW$687, DW_AT_name("trajHandle_Id")
    4800                      .dwattr $C$DW$687, DW_AT_TI_symbol_name("_trajHandle_Id")
    4801                      .dwattr $C$DW$687, DW_AT_data_member_location[DW_OP_plus_uconst 0x60]
    4802                      .dwattr $C$DW$687, DW_AT_accessibility(DW_ACCESS_public)
    4803              $C$DW$688       .dwtag  DW_TAG_member
    4804                      .dwattr $C$DW$688, DW_AT_type(*$C$DW$T$65)
    4805                      .dwattr $C$DW$688, DW_AT_name("traj_Id")
    4806                      .dwattr $C$DW$688, DW_AT_TI_symbol_name("_traj_Id")
    4807                      .dwattr $C$DW$688, DW_AT_data_member_location[DW_OP_plus_uconst 0x62]
    4808                      .dwattr $C$DW$688, DW_AT_accessibility(DW_ACCESS_public)
    4809              $C$DW$689       .dwtag  DW_TAG_member
    4810                      .dwattr $C$DW$689, DW_AT_type(*$C$DW$T$64)
    4811                      .dwattr $C$DW$689, DW_AT_name("trajHandle_spd")
    4812                      .dwattr $C$DW$689, DW_AT_TI_symbol_name("_trajHandle_spd")
    4813                      .dwattr $C$DW$689, DW_AT_data_member_location[DW_OP_plus_uconst 0x6c]
    4814                      .dwattr $C$DW$689, DW_AT_accessibility(DW_ACCESS_public)
    4815              $C$DW$690       .dwtag  DW_TAG_member
    4816                      .dwattr $C$DW$690, DW_AT_type(*$C$DW$T$65)
    4817                      .dwattr $C$DW$690, DW_AT_name("traj_spd")
    4818                      .dwattr $C$DW$690, DW_AT_TI_symbol_name("_traj_spd")
    4819                      .dwattr $C$DW$690, DW_AT_data_member_location[DW_OP_plus_uconst 0x6e]
    4820                      .dwattr $C$DW$690, DW_AT_accessibility(DW_ACCESS_public)
    4821              $C$DW$691       .dwtag  DW_TAG_member
    4822                      .dwattr $C$DW$691, DW_AT_type(*$C$DW$T$64)
    4823                      .dwattr $C$DW$691, DW_AT_name("trajHandle_spdMax")
    4824                      .dwattr $C$DW$691, DW_AT_TI_symbol_name("_trajHandle_spdMax")
    4825                      .dwattr $C$DW$691, DW_AT_data_member_location[DW_OP_plus_uconst 0x78]
    4826                      .dwattr $C$DW$691, DW_AT_accessibility(DW_ACCESS_public)
    4827              $C$DW$692       .dwtag  DW_TAG_member
    4828                      .dwattr $C$DW$692, DW_AT_type(*$C$DW$T$65)
    4829                      .dwattr $C$DW$692, DW_AT_name("traj_spdMax")
    4830                      .dwattr $C$DW$692, DW_AT_TI_symbol_name("_traj_spdMax")
    4831                      .dwattr $C$DW$692, DW_AT_data_member_location[DW_OP_plus_uconst 0x7a]
    4832                      .dwattr $C$DW$692, DW_AT_accessibility(DW_ACCESS_public)
TMS320C2000 Assembler PC v6.2.5 Thu Jun 22 20:41:15 2017

Tools Copyright (c) 1996-2014 Texas Instruments Incorporated
C:\Users\wmj\AppData\Local\Temp\1712410                              PAGE   95

    4833              $C$DW$693       .dwtag  DW_TAG_member
    4834                      .dwattr $C$DW$693, DW_AT_type(*$C$DW$T$66)
    4835                      .dwattr $C$DW$693, DW_AT_name("motorParams")
    4836                      .dwattr $C$DW$693, DW_AT_TI_symbol_name("_motorParams")
    4837                      .dwattr $C$DW$693, DW_AT_data_member_location[DW_OP_plus_uconst 0x84]
    4838                      .dwattr $C$DW$693, DW_AT_accessibility(DW_ACCESS_public)
    4839              $C$DW$694       .dwtag  DW_TAG_member
    4840                      .dwattr $C$DW$694, DW_AT_type(*$C$DW$T$68)
    4841                      .dwattr $C$DW$694, DW_AT_name("waitTimes")
    4842                      .dwattr $C$DW$694, DW_AT_TI_symbol_name("_waitTimes")
    4843                      .dwattr $C$DW$694, DW_AT_data_member_location[DW_OP_plus_uconst 0x92]
    4844                      .dwattr $C$DW$694, DW_AT_accessibility(DW_ACCESS_public)
    4845              $C$DW$695       .dwtag  DW_TAG_member
    4846                      .dwattr $C$DW$695, DW_AT_type(*$C$DW$T$67)
    4847                      .dwattr $C$DW$695, DW_AT_name("counter_state")
    4848                      .dwattr $C$DW$695, DW_AT_TI_symbol_name("_counter_state")
    4849                      .dwattr $C$DW$695, DW_AT_data_member_location[DW_OP_plus_uconst 0x9a]
    4850                      .dwattr $C$DW$695, DW_AT_accessibility(DW_ACCESS_public)
    4851              $C$DW$696       .dwtag  DW_TAG_member
    4852                      .dwattr $C$DW$696, DW_AT_type(*$C$DW$T$69)
    4853                      .dwattr $C$DW$696, DW_AT_name("numIsrTicksPerCtrlTick")
    4854                      .dwattr $C$DW$696, DW_AT_TI_symbol_name("_numIsrTicksPerCtrlTick")
    4855                      .dwattr $C$DW$696, DW_AT_data_member_location[DW_OP_plus_uconst 0x9c]
    4856                      .dwattr $C$DW$696, DW_AT_accessibility(DW_ACCESS_public)
    4857              $C$DW$697       .dwtag  DW_TAG_member
    4858                      .dwattr $C$DW$697, DW_AT_type(*$C$DW$T$69)
    4859                      .dwattr $C$DW$697, DW_AT_name("numCtrlTicksPerCurrentTick")
    4860                      .dwattr $C$DW$697, DW_AT_TI_symbol_name("_numCtrlTicksPerCurrentTick")
    4861                      .dwattr $C$DW$697, DW_AT_data_member_location[DW_OP_plus_uconst 0x9d]
    4862                      .dwattr $C$DW$697, DW_AT_accessibility(DW_ACCESS_public)
    4863              $C$DW$698       .dwtag  DW_TAG_member
    4864                      .dwattr $C$DW$698, DW_AT_type(*$C$DW$T$69)
    4865                      .dwattr $C$DW$698, DW_AT_name("numCtrlTicksPerSpeedTick")
    4866                      .dwattr $C$DW$698, DW_AT_TI_symbol_name("_numCtrlTicksPerSpeedTick")
    4867                      .dwattr $C$DW$698, DW_AT_data_member_location[DW_OP_plus_uconst 0x9e]
    4868                      .dwattr $C$DW$698, DW_AT_accessibility(DW_ACCESS_public)
    4869              $C$DW$699       .dwtag  DW_TAG_member
    4870                      .dwattr $C$DW$699, DW_AT_type(*$C$DW$T$69)
    4871                      .dwattr $C$DW$699, DW_AT_name("numCtrlTicksPerTrajTick")
    4872                      .dwattr $C$DW$699, DW_AT_TI_symbol_name("_numCtrlTicksPerTrajTick")
    4873                      .dwattr $C$DW$699, DW_AT_data_member_location[DW_OP_plus_uconst 0x9f]
    4874                      .dwattr $C$DW$699, DW_AT_accessibility(DW_ACCESS_public)
    4875              $C$DW$700       .dwtag  DW_TAG_member
    4876                      .dwattr $C$DW$700, DW_AT_type(*$C$DW$T$67)
    4877                      .dwattr $C$DW$700, DW_AT_name("ctrlFreq_Hz")
    4878                      .dwattr $C$DW$700, DW_AT_TI_symbol_name("_ctrlFreq_Hz")
    4879                      .dwattr $C$DW$700, DW_AT_data_member_location[DW_OP_plus_uconst 0xa0]
    4880                      .dwattr $C$DW$700, DW_AT_accessibility(DW_ACCESS_public)
    4881              $C$DW$701       .dwtag  DW_TAG_member
    4882                      .dwattr $C$DW$701, DW_AT_type(*$C$DW$T$67)
    4883                      .dwattr $C$DW$701, DW_AT_name("trajFreq_Hz")
    4884                      .dwattr $C$DW$701, DW_AT_TI_symbol_name("_trajFreq_Hz")
    4885                      .dwattr $C$DW$701, DW_AT_data_member_location[DW_OP_plus_uconst 0xa2]
    4886                      .dwattr $C$DW$701, DW_AT_accessibility(DW_ACCESS_public)
    4887              $C$DW$702       .dwtag  DW_TAG_member
TMS320C2000 Assembler PC v6.2.5 Thu Jun 22 20:41:15 2017

Tools Copyright (c) 1996-2014 Texas Instruments Incorporated
C:\Users\wmj\AppData\Local\Temp\1712410                              PAGE   96

    4888                      .dwattr $C$DW$702, DW_AT_type(*$C$DW$T$32)
    4889                      .dwattr $C$DW$702, DW_AT_name("trajPeriod_sec")
    4890                      .dwattr $C$DW$702, DW_AT_TI_symbol_name("_trajPeriod_sec")
    4891                      .dwattr $C$DW$702, DW_AT_data_member_location[DW_OP_plus_uconst 0xa4]
    4892                      .dwattr $C$DW$702, DW_AT_accessibility(DW_ACCESS_public)
    4893              $C$DW$703       .dwtag  DW_TAG_member
    4894                      .dwattr $C$DW$703, DW_AT_type(*$C$DW$T$70)
    4895                      .dwattr $C$DW$703, DW_AT_name("ctrlPeriod_sec")
    4896                      .dwattr $C$DW$703, DW_AT_TI_symbol_name("_ctrlPeriod_sec")
    4897                      .dwattr $C$DW$703, DW_AT_data_member_location[DW_OP_plus_uconst 0xa6]
    4898                      .dwattr $C$DW$703, DW_AT_accessibility(DW_ACCESS_public)
    4899              $C$DW$704       .dwtag  DW_TAG_member
    4900                      .dwattr $C$DW$704, DW_AT_type(*$C$DW$T$32)
    4901                      .dwattr $C$DW$704, DW_AT_name("maxVsMag_pu")
    4902                      .dwattr $C$DW$704, DW_AT_TI_symbol_name("_maxVsMag_pu")
    4903                      .dwattr $C$DW$704, DW_AT_data_member_location[DW_OP_plus_uconst 0xa8]
    4904                      .dwattr $C$DW$704, DW_AT_accessibility(DW_ACCESS_public)
    4905              $C$DW$705       .dwtag  DW_TAG_member
    4906                      .dwattr $C$DW$705, DW_AT_type(*$C$DW$T$71)
    4907                      .dwattr $C$DW$705, DW_AT_name("Iab_in")
    4908                      .dwattr $C$DW$705, DW_AT_TI_symbol_name("_Iab_in")
    4909                      .dwattr $C$DW$705, DW_AT_data_member_location[DW_OP_plus_uconst 0xaa]
    4910                      .dwattr $C$DW$705, DW_AT_accessibility(DW_ACCESS_public)
    4911              $C$DW$706       .dwtag  DW_TAG_member
    4912                      .dwattr $C$DW$706, DW_AT_type(*$C$DW$T$71)
    4913                      .dwattr $C$DW$706, DW_AT_name("Iab_filt")
    4914                      .dwattr $C$DW$706, DW_AT_TI_symbol_name("_Iab_filt")
    4915                      .dwattr $C$DW$706, DW_AT_data_member_location[DW_OP_plus_uconst 0xae]
    4916                      .dwattr $C$DW$706, DW_AT_accessibility(DW_ACCESS_public)
    4917              $C$DW$707       .dwtag  DW_TAG_member
    4918                      .dwattr $C$DW$707, DW_AT_type(*$C$DW$T$71)
    4919                      .dwattr $C$DW$707, DW_AT_name("Idq_in")
    4920                      .dwattr $C$DW$707, DW_AT_TI_symbol_name("_Idq_in")
    4921                      .dwattr $C$DW$707, DW_AT_data_member_location[DW_OP_plus_uconst 0xb2]
    4922                      .dwattr $C$DW$707, DW_AT_accessibility(DW_ACCESS_public)
    4923              $C$DW$708       .dwtag  DW_TAG_member
    4924                      .dwattr $C$DW$708, DW_AT_type(*$C$DW$T$71)
    4925                      .dwattr $C$DW$708, DW_AT_name("Vab_in")
    4926                      .dwattr $C$DW$708, DW_AT_TI_symbol_name("_Vab_in")
    4927                      .dwattr $C$DW$708, DW_AT_data_member_location[DW_OP_plus_uconst 0xb6]
    4928                      .dwattr $C$DW$708, DW_AT_accessibility(DW_ACCESS_public)
    4929              $C$DW$709       .dwtag  DW_TAG_member
    4930                      .dwattr $C$DW$709, DW_AT_type(*$C$DW$T$32)
    4931                      .dwattr $C$DW$709, DW_AT_name("spd_out")
    4932                      .dwattr $C$DW$709, DW_AT_TI_symbol_name("_spd_out")
    4933                      .dwattr $C$DW$709, DW_AT_data_member_location[DW_OP_plus_uconst 0xba]
    4934                      .dwattr $C$DW$709, DW_AT_accessibility(DW_ACCESS_public)
    4935              $C$DW$710       .dwtag  DW_TAG_member
    4936                      .dwattr $C$DW$710, DW_AT_type(*$C$DW$T$71)
    4937                      .dwattr $C$DW$710, DW_AT_name("Vab_out")
    4938                      .dwattr $C$DW$710, DW_AT_TI_symbol_name("_Vab_out")
    4939                      .dwattr $C$DW$710, DW_AT_data_member_location[DW_OP_plus_uconst 0xbc]
    4940                      .dwattr $C$DW$710, DW_AT_accessibility(DW_ACCESS_public)
    4941              $C$DW$711       .dwtag  DW_TAG_member
    4942                      .dwattr $C$DW$711, DW_AT_type(*$C$DW$T$71)
TMS320C2000 Assembler PC v6.2.5 Thu Jun 22 20:41:15 2017

Tools Copyright (c) 1996-2014 Texas Instruments Incorporated
C:\Users\wmj\AppData\Local\Temp\1712410                              PAGE   97

    4943                      .dwattr $C$DW$711, DW_AT_name("Vdq_out")
    4944                      .dwattr $C$DW$711, DW_AT_TI_symbol_name("_Vdq_out")
    4945                      .dwattr $C$DW$711, DW_AT_data_member_location[DW_OP_plus_uconst 0xc0]
    4946                      .dwattr $C$DW$711, DW_AT_accessibility(DW_ACCESS_public)
    4947              $C$DW$712       .dwtag  DW_TAG_member
    4948                      .dwattr $C$DW$712, DW_AT_type(*$C$DW$T$70)
    4949                      .dwattr $C$DW$712, DW_AT_name("Rhf")
    4950                      .dwattr $C$DW$712, DW_AT_TI_symbol_name("_Rhf")
    4951                      .dwattr $C$DW$712, DW_AT_data_member_location[DW_OP_plus_uconst 0xc4]
    4952                      .dwattr $C$DW$712, DW_AT_accessibility(DW_ACCESS_public)
    4953              $C$DW$713       .dwtag  DW_TAG_member
    4954                      .dwattr $C$DW$713, DW_AT_type(*$C$DW$T$70)
    4955                      .dwattr $C$DW$713, DW_AT_name("Lhf")
    4956                      .dwattr $C$DW$713, DW_AT_TI_symbol_name("_Lhf")
    4957                      .dwattr $C$DW$713, DW_AT_data_member_location[DW_OP_plus_uconst 0xc6]
    4958                      .dwattr $C$DW$713, DW_AT_accessibility(DW_ACCESS_public)
    4959              $C$DW$714       .dwtag  DW_TAG_member
    4960                      .dwattr $C$DW$714, DW_AT_type(*$C$DW$T$70)
    4961                      .dwattr $C$DW$714, DW_AT_name("RoverL")
    4962                      .dwattr $C$DW$714, DW_AT_TI_symbol_name("_RoverL")
    4963                      .dwattr $C$DW$714, DW_AT_data_member_location[DW_OP_plus_uconst 0xc8]
    4964                      .dwattr $C$DW$714, DW_AT_accessibility(DW_ACCESS_public)
    4965              $C$DW$715       .dwtag  DW_TAG_member
    4966                      .dwattr $C$DW$715, DW_AT_type(*$C$DW$T$32)
    4967                      .dwattr $C$DW$715, DW_AT_name("Kp_Id")
    4968                      .dwattr $C$DW$715, DW_AT_TI_symbol_name("_Kp_Id")
    4969                      .dwattr $C$DW$715, DW_AT_data_member_location[DW_OP_plus_uconst 0xca]
    4970                      .dwattr $C$DW$715, DW_AT_accessibility(DW_ACCESS_public)
    4971              $C$DW$716       .dwtag  DW_TAG_member
    4972                      .dwattr $C$DW$716, DW_AT_type(*$C$DW$T$32)
    4973                      .dwattr $C$DW$716, DW_AT_name("Kp_Iq")
    4974                      .dwattr $C$DW$716, DW_AT_TI_symbol_name("_Kp_Iq")
    4975                      .dwattr $C$DW$716, DW_AT_data_member_location[DW_OP_plus_uconst 0xcc]
    4976                      .dwattr $C$DW$716, DW_AT_accessibility(DW_ACCESS_public)
    4977              $C$DW$717       .dwtag  DW_TAG_member
    4978                      .dwattr $C$DW$717, DW_AT_type(*$C$DW$T$32)
    4979                      .dwattr $C$DW$717, DW_AT_name("Kp_spd")
    4980                      .dwattr $C$DW$717, DW_AT_TI_symbol_name("_Kp_spd")
    4981                      .dwattr $C$DW$717, DW_AT_data_member_location[DW_OP_plus_uconst 0xce]
    4982                      .dwattr $C$DW$717, DW_AT_accessibility(DW_ACCESS_public)
    4983              $C$DW$718       .dwtag  DW_TAG_member
    4984                      .dwattr $C$DW$718, DW_AT_type(*$C$DW$T$32)
    4985                      .dwattr $C$DW$718, DW_AT_name("Ki_Id")
    4986                      .dwattr $C$DW$718, DW_AT_TI_symbol_name("_Ki_Id")
    4987                      .dwattr $C$DW$718, DW_AT_data_member_location[DW_OP_plus_uconst 0xd0]
    4988                      .dwattr $C$DW$718, DW_AT_accessibility(DW_ACCESS_public)
    4989              $C$DW$719       .dwtag  DW_TAG_member
    4990                      .dwattr $C$DW$719, DW_AT_type(*$C$DW$T$32)
    4991                      .dwattr $C$DW$719, DW_AT_name("Ki_Iq")
    4992                      .dwattr $C$DW$719, DW_AT_TI_symbol_name("_Ki_Iq")
    4993                      .dwattr $C$DW$719, DW_AT_data_member_location[DW_OP_plus_uconst 0xd2]
    4994                      .dwattr $C$DW$719, DW_AT_accessibility(DW_ACCESS_public)
    4995              $C$DW$720       .dwtag  DW_TAG_member
    4996                      .dwattr $C$DW$720, DW_AT_type(*$C$DW$T$32)
    4997                      .dwattr $C$DW$720, DW_AT_name("Ki_spd")
TMS320C2000 Assembler PC v6.2.5 Thu Jun 22 20:41:15 2017

Tools Copyright (c) 1996-2014 Texas Instruments Incorporated
C:\Users\wmj\AppData\Local\Temp\1712410                              PAGE   98

    4998                      .dwattr $C$DW$720, DW_AT_TI_symbol_name("_Ki_spd")
    4999                      .dwattr $C$DW$720, DW_AT_data_member_location[DW_OP_plus_uconst 0xd4]
    5000                      .dwattr $C$DW$720, DW_AT_accessibility(DW_ACCESS_public)
    5001              $C$DW$721       .dwtag  DW_TAG_member
    5002                      .dwattr $C$DW$721, DW_AT_type(*$C$DW$T$32)
    5003                      .dwattr $C$DW$721, DW_AT_name("Kd_Id")
    5004                      .dwattr $C$DW$721, DW_AT_TI_symbol_name("_Kd_Id")
    5005                      .dwattr $C$DW$721, DW_AT_data_member_location[DW_OP_plus_uconst 0xd6]
    5006                      .dwattr $C$DW$721, DW_AT_accessibility(DW_ACCESS_public)
    5007              $C$DW$722       .dwtag  DW_TAG_member
    5008                      .dwattr $C$DW$722, DW_AT_type(*$C$DW$T$32)
    5009                      .dwattr $C$DW$722, DW_AT_name("Kd_Iq")
    5010                      .dwattr $C$DW$722, DW_AT_TI_symbol_name("_Kd_Iq")
    5011                      .dwattr $C$DW$722, DW_AT_data_member_location[DW_OP_plus_uconst 0xd8]
    5012                      .dwattr $C$DW$722, DW_AT_accessibility(DW_ACCESS_public)
    5013              $C$DW$723       .dwtag  DW_TAG_member
    5014                      .dwattr $C$DW$723, DW_AT_type(*$C$DW$T$32)
    5015                      .dwattr $C$DW$723, DW_AT_name("Kd_spd")
    5016                      .dwattr $C$DW$723, DW_AT_TI_symbol_name("_Kd_spd")
    5017                      .dwattr $C$DW$723, DW_AT_data_member_location[DW_OP_plus_uconst 0xda]
    5018                      .dwattr $C$DW$723, DW_AT_accessibility(DW_ACCESS_public)
    5019              $C$DW$724       .dwtag  DW_TAG_member
    5020                      .dwattr $C$DW$724, DW_AT_type(*$C$DW$T$32)
    5021                      .dwattr $C$DW$724, DW_AT_name("Ui_Id")
    5022                      .dwattr $C$DW$724, DW_AT_TI_symbol_name("_Ui_Id")
    5023                      .dwattr $C$DW$724, DW_AT_data_member_location[DW_OP_plus_uconst 0xdc]
    5024                      .dwattr $C$DW$724, DW_AT_accessibility(DW_ACCESS_public)
    5025              $C$DW$725       .dwtag  DW_TAG_member
    5026                      .dwattr $C$DW$725, DW_AT_type(*$C$DW$T$32)
    5027                      .dwattr $C$DW$725, DW_AT_name("Ui_Iq")
    5028                      .dwattr $C$DW$725, DW_AT_TI_symbol_name("_Ui_Iq")
    5029                      .dwattr $C$DW$725, DW_AT_data_member_location[DW_OP_plus_uconst 0xde]
    5030                      .dwattr $C$DW$725, DW_AT_accessibility(DW_ACCESS_public)
    5031              $C$DW$726       .dwtag  DW_TAG_member
    5032                      .dwattr $C$DW$726, DW_AT_type(*$C$DW$T$32)
    5033                      .dwattr $C$DW$726, DW_AT_name("Ui_spd")
    5034                      .dwattr $C$DW$726, DW_AT_TI_symbol_name("_Ui_spd")
    5035                      .dwattr $C$DW$726, DW_AT_data_member_location[DW_OP_plus_uconst 0xe0]
    5036                      .dwattr $C$DW$726, DW_AT_accessibility(DW_ACCESS_public)
    5037              $C$DW$727       .dwtag  DW_TAG_member
    5038                      .dwattr $C$DW$727, DW_AT_type(*$C$DW$T$71)
    5039                      .dwattr $C$DW$727, DW_AT_name("Idq_ref")
    5040                      .dwattr $C$DW$727, DW_AT_TI_symbol_name("_Idq_ref")
    5041                      .dwattr $C$DW$727, DW_AT_data_member_location[DW_OP_plus_uconst 0xe2]
    5042                      .dwattr $C$DW$727, DW_AT_accessibility(DW_ACCESS_public)
    5043              $C$DW$728       .dwtag  DW_TAG_member
    5044                      .dwattr $C$DW$728, DW_AT_type(*$C$DW$T$32)
    5045                      .dwattr $C$DW$728, DW_AT_name("IdRated")
    5046                      .dwattr $C$DW$728, DW_AT_TI_symbol_name("_IdRated")
    5047                      .dwattr $C$DW$728, DW_AT_data_member_location[DW_OP_plus_uconst 0xe6]
    5048                      .dwattr $C$DW$728, DW_AT_accessibility(DW_ACCESS_public)
    5049              $C$DW$729       .dwtag  DW_TAG_member
    5050                      .dwattr $C$DW$729, DW_AT_type(*$C$DW$T$32)
    5051                      .dwattr $C$DW$729, DW_AT_name("spd_ref")
    5052                      .dwattr $C$DW$729, DW_AT_TI_symbol_name("_spd_ref")
TMS320C2000 Assembler PC v6.2.5 Thu Jun 22 20:41:15 2017

Tools Copyright (c) 1996-2014 Texas Instruments Incorporated
C:\Users\wmj\AppData\Local\Temp\1712410                              PAGE   99

    5053                      .dwattr $C$DW$729, DW_AT_data_member_location[DW_OP_plus_uconst 0xe8]
    5054                      .dwattr $C$DW$729, DW_AT_accessibility(DW_ACCESS_public)
    5055              $C$DW$730       .dwtag  DW_TAG_member
    5056                      .dwattr $C$DW$730, DW_AT_type(*$C$DW$T$32)
    5057                      .dwattr $C$DW$730, DW_AT_name("spd_max")
    5058                      .dwattr $C$DW$730, DW_AT_TI_symbol_name("_spd_max")
    5059                      .dwattr $C$DW$730, DW_AT_data_member_location[DW_OP_plus_uconst 0xea]
    5060                      .dwattr $C$DW$730, DW_AT_accessibility(DW_ACCESS_public)
    5061              $C$DW$731       .dwtag  DW_TAG_member
    5062                      .dwattr $C$DW$731, DW_AT_type(*$C$DW$T$69)
    5063                      .dwattr $C$DW$731, DW_AT_name("counter_current")
    5064                      .dwattr $C$DW$731, DW_AT_TI_symbol_name("_counter_current")
    5065                      .dwattr $C$DW$731, DW_AT_data_member_location[DW_OP_plus_uconst 0xec]
    5066                      .dwattr $C$DW$731, DW_AT_accessibility(DW_ACCESS_public)
    5067              $C$DW$732       .dwtag  DW_TAG_member
    5068                      .dwattr $C$DW$732, DW_AT_type(*$C$DW$T$69)
    5069                      .dwattr $C$DW$732, DW_AT_name("counter_isr")
    5070                      .dwattr $C$DW$732, DW_AT_TI_symbol_name("_counter_isr")
    5071                      .dwattr $C$DW$732, DW_AT_data_member_location[DW_OP_plus_uconst 0xed]
    5072                      .dwattr $C$DW$732, DW_AT_accessibility(DW_ACCESS_public)
    5073              $C$DW$733       .dwtag  DW_TAG_member
    5074                      .dwattr $C$DW$733, DW_AT_type(*$C$DW$T$69)
    5075                      .dwattr $C$DW$733, DW_AT_name("counter_speed")
    5076                      .dwattr $C$DW$733, DW_AT_TI_symbol_name("_counter_speed")
    5077                      .dwattr $C$DW$733, DW_AT_data_member_location[DW_OP_plus_uconst 0xee]
    5078                      .dwattr $C$DW$733, DW_AT_accessibility(DW_ACCESS_public)
    5079              $C$DW$734       .dwtag  DW_TAG_member
    5080                      .dwattr $C$DW$734, DW_AT_type(*$C$DW$T$69)
    5081                      .dwattr $C$DW$734, DW_AT_name("counter_traj")
    5082                      .dwattr $C$DW$734, DW_AT_TI_symbol_name("_counter_traj")
    5083                      .dwattr $C$DW$734, DW_AT_data_member_location[DW_OP_plus_uconst 0xef]
    5084                      .dwattr $C$DW$734, DW_AT_accessibility(DW_ACCESS_public)
    5085              $C$DW$735       .dwtag  DW_TAG_member
    5086                      .dwattr $C$DW$735, DW_AT_type(*$C$DW$T$39)
    5087                      .dwattr $C$DW$735, DW_AT_name("flag_enableCtrl")
    5088                      .dwattr $C$DW$735, DW_AT_TI_symbol_name("_flag_enableCtrl")
    5089                      .dwattr $C$DW$735, DW_AT_data_member_location[DW_OP_plus_uconst 0xf0]
    5090                      .dwattr $C$DW$735, DW_AT_accessibility(DW_ACCESS_public)
    5091              $C$DW$736       .dwtag  DW_TAG_member
    5092                      .dwattr $C$DW$736, DW_AT_type(*$C$DW$T$39)
    5093                      .dwattr $C$DW$736, DW_AT_name("flag_enableDcBusComp")
    5094                      .dwattr $C$DW$736, DW_AT_TI_symbol_name("_flag_enableDcBusComp")
    5095                      .dwattr $C$DW$736, DW_AT_data_member_location[DW_OP_plus_uconst 0xf1]
    5096                      .dwattr $C$DW$736, DW_AT_accessibility(DW_ACCESS_public)
    5097              $C$DW$737       .dwtag  DW_TAG_member
    5098                      .dwattr $C$DW$737, DW_AT_type(*$C$DW$T$39)
    5099                      .dwattr $C$DW$737, DW_AT_name("flag_enablePowerWarp")
    5100                      .dwattr $C$DW$737, DW_AT_TI_symbol_name("_flag_enablePowerWarp")
    5101                      .dwattr $C$DW$737, DW_AT_data_member_location[DW_OP_plus_uconst 0xf2]
    5102                      .dwattr $C$DW$737, DW_AT_accessibility(DW_ACCESS_public)
    5103              $C$DW$738       .dwtag  DW_TAG_member
    5104                      .dwattr $C$DW$738, DW_AT_type(*$C$DW$T$39)
    5105                      .dwattr $C$DW$738, DW_AT_name("flag_enableOffset")
    5106                      .dwattr $C$DW$738, DW_AT_TI_symbol_name("_flag_enableOffset")
    5107                      .dwattr $C$DW$738, DW_AT_data_member_location[DW_OP_plus_uconst 0xf3]
TMS320C2000 Assembler PC v6.2.5 Thu Jun 22 20:41:15 2017

Tools Copyright (c) 1996-2014 Texas Instruments Incorporated
C:\Users\wmj\AppData\Local\Temp\1712410                              PAGE  100

    5108                      .dwattr $C$DW$738, DW_AT_accessibility(DW_ACCESS_public)
    5109              $C$DW$739       .dwtag  DW_TAG_member
    5110                      .dwattr $C$DW$739, DW_AT_type(*$C$DW$T$39)
    5111                      .dwattr $C$DW$739, DW_AT_name("flag_enableSpeedCtrl")
    5112                      .dwattr $C$DW$739, DW_AT_TI_symbol_name("_flag_enableSpeedCtrl")
    5113                      .dwattr $C$DW$739, DW_AT_data_member_location[DW_OP_plus_uconst 0xf4]
    5114                      .dwattr $C$DW$739, DW_AT_accessibility(DW_ACCESS_public)
    5115              $C$DW$740       .dwtag  DW_TAG_member
    5116                      .dwattr $C$DW$740, DW_AT_type(*$C$DW$T$39)
    5117                      .dwattr $C$DW$740, DW_AT_name("flag_enableUserMotorParams")
    5118                      .dwattr $C$DW$740, DW_AT_TI_symbol_name("_flag_enableUserMotorParams")
    5119                      .dwattr $C$DW$740, DW_AT_data_member_location[DW_OP_plus_uconst 0xf5]
    5120                      .dwattr $C$DW$740, DW_AT_accessibility(DW_ACCESS_public)
    5121              $C$DW$741       .dwtag  DW_TAG_member
    5122                      .dwattr $C$DW$741, DW_AT_type(*$C$DW$T$71)
    5123                      .dwattr $C$DW$741, DW_AT_name("Idq_offset_pu")
    5124                      .dwattr $C$DW$741, DW_AT_TI_symbol_name("_Idq_offset_pu")
    5125                      .dwattr $C$DW$741, DW_AT_data_member_location[DW_OP_plus_uconst 0xf6]
    5126                      .dwattr $C$DW$741, DW_AT_accessibility(DW_ACCESS_public)
    5127              $C$DW$742       .dwtag  DW_TAG_member
    5128                      .dwattr $C$DW$742, DW_AT_type(*$C$DW$T$71)
    5129                      .dwattr $C$DW$742, DW_AT_name("Vdq_offset_pu")
    5130                      .dwattr $C$DW$742, DW_AT_TI_symbol_name("_Vdq_offset_pu")
    5131                      .dwattr $C$DW$742, DW_AT_data_member_location[DW_OP_plus_uconst 0xfa]
    5132                      .dwattr $C$DW$742, DW_AT_accessibility(DW_ACCESS_public)
    5133              $C$DW$743       .dwtag  DW_TAG_member
    5134                      .dwattr $C$DW$743, DW_AT_type(*$C$DW$T$32)
    5135                      .dwattr $C$DW$743, DW_AT_name("angle_pu")
    5136                      .dwattr $C$DW$743, DW_AT_TI_symbol_name("_angle_pu")
    5137                      .dwattr $C$DW$743, DW_AT_data_member_location[DW_OP_plus_uconst 0xfe]
    5138                      .dwattr $C$DW$743, DW_AT_accessibility(DW_ACCESS_public)
    5139              $C$DW$744       .dwtag  DW_TAG_member
    5140                      .dwattr $C$DW$744, DW_AT_type(*$C$DW$T$32)
    5141                      .dwattr $C$DW$744, DW_AT_name("speed_ref_pu")
    5142                      .dwattr $C$DW$744, DW_AT_TI_symbol_name("_speed_ref_pu")
    5143                      .dwattr $C$DW$744, DW_AT_data_member_location[DW_OP_plus_uconst 0x100]
    5144                      .dwattr $C$DW$744, DW_AT_accessibility(DW_ACCESS_public)
    5145              $C$DW$745       .dwtag  DW_TAG_member
    5146                      .dwattr $C$DW$745, DW_AT_type(*$C$DW$T$32)
    5147                      .dwattr $C$DW$745, DW_AT_name("speed_fb_pu")
    5148                      .dwattr $C$DW$745, DW_AT_TI_symbol_name("_speed_fb_pu")
    5149                      .dwattr $C$DW$745, DW_AT_data_member_location[DW_OP_plus_uconst 0x102]
    5150                      .dwattr $C$DW$745, DW_AT_accessibility(DW_ACCESS_public)
    5151              $C$DW$746       .dwtag  DW_TAG_member
    5152                      .dwattr $C$DW$746, DW_AT_type(*$C$DW$T$32)
    5153                      .dwattr $C$DW$746, DW_AT_name("speed_outMax_pu")
    5154                      .dwattr $C$DW$746, DW_AT_TI_symbol_name("_speed_outMax_pu")
    5155                      .dwattr $C$DW$746, DW_AT_data_member_location[DW_OP_plus_uconst 0x104]
    5156                      .dwattr $C$DW$746, DW_AT_accessibility(DW_ACCESS_public)
    5157              $C$DW$747       .dwtag  DW_TAG_member
    5158                      .dwattr $C$DW$747, DW_AT_type(*$C$DW$T$39)
    5159                      .dwattr $C$DW$747, DW_AT_name("flag_enableCurrentCtrl")
    5160                      .dwattr $C$DW$747, DW_AT_TI_symbol_name("_flag_enableCurrentCtrl")
    5161                      .dwattr $C$DW$747, DW_AT_data_member_location[DW_OP_plus_uconst 0x106]
    5162                      .dwattr $C$DW$747, DW_AT_accessibility(DW_ACCESS_public)
TMS320C2000 Assembler PC v6.2.5 Thu Jun 22 20:41:15 2017

Tools Copyright (c) 1996-2014 Texas Instruments Incorporated
C:\Users\wmj\AppData\Local\Temp\1712410                              PAGE  101

    5163                      .dwendtag $C$DW$T$72
    5164              
    5165              $C$DW$T$205     .dwtag  DW_TAG_typedef, DW_AT_name("CTRL_Obj")
    5166                      .dwattr $C$DW$T$205, DW_AT_type(*$C$DW$T$72)
    5167                      .dwattr $C$DW$T$205, DW_AT_language(DW_LANG_C)
    5168              $C$DW$T$206     .dwtag  DW_TAG_pointer_type
    5169                      .dwattr $C$DW$T$206, DW_AT_type(*$C$DW$T$205)
    5170                      .dwattr $C$DW$T$206, DW_AT_address_class(0x16)
    5171              $C$DW$T$164     .dwtag  DW_TAG_pointer_type
    5172                      .dwattr $C$DW$T$164, DW_AT_type(*$C$DW$T$72)
    5173                      .dwattr $C$DW$T$164, DW_AT_address_class(0x16)
    5174              $C$DW$T$165     .dwtag  DW_TAG_typedef, DW_AT_name("CTRL_Handle")
    5175                      .dwattr $C$DW$T$165, DW_AT_type(*$C$DW$T$164)
    5176                      .dwattr $C$DW$T$165, DW_AT_language(DW_LANG_C)
    5177              $C$DW$748       .dwtag  DW_TAG_TI_far_type
    5178                      .dwattr $C$DW$748, DW_AT_type(*$C$DW$T$165)
    5179              $C$DW$T$207     .dwtag  DW_TAG_const_type
    5180                      .dwattr $C$DW$T$207, DW_AT_type(*$C$DW$748)
    5181              
    5182              $C$DW$T$75      .dwtag  DW_TAG_structure_type
    5183                      .dwattr $C$DW$T$75, DW_AT_name("_CTRL_Version_")
    5184                      .dwattr $C$DW$T$75, DW_AT_byte_size(0x04)
    5185              $C$DW$749       .dwtag  DW_TAG_member
    5186                      .dwattr $C$DW$749, DW_AT_type(*$C$DW$T$23)
    5187                      .dwattr $C$DW$749, DW_AT_name("rsvd")
    5188                      .dwattr $C$DW$749, DW_AT_TI_symbol_name("_rsvd")
    5189                      .dwattr $C$DW$749, DW_AT_data_member_location[DW_OP_plus_uconst 0x0]
    5190                      .dwattr $C$DW$749, DW_AT_accessibility(DW_ACCESS_public)
    5191              $C$DW$750       .dwtag  DW_TAG_member
    5192                      .dwattr $C$DW$750, DW_AT_type(*$C$DW$T$74)
    5193                      .dwattr $C$DW$750, DW_AT_name("targetProc")
    5194                      .dwattr $C$DW$750, DW_AT_TI_symbol_name("_targetProc")
    5195                      .dwattr $C$DW$750, DW_AT_data_member_location[DW_OP_plus_uconst 0x1]
    5196                      .dwattr $C$DW$750, DW_AT_accessibility(DW_ACCESS_public)
    5197              $C$DW$751       .dwtag  DW_TAG_member
    5198                      .dwattr $C$DW$751, DW_AT_type(*$C$DW$T$23)
    5199                      .dwattr $C$DW$751, DW_AT_name("major")
    5200                      .dwattr $C$DW$751, DW_AT_TI_symbol_name("_major")
    5201                      .dwattr $C$DW$751, DW_AT_data_member_location[DW_OP_plus_uconst 0x2]
    5202                      .dwattr $C$DW$751, DW_AT_accessibility(DW_ACCESS_public)
    5203              $C$DW$752       .dwtag  DW_TAG_member
    5204                      .dwattr $C$DW$752, DW_AT_type(*$C$DW$T$23)
    5205                      .dwattr $C$DW$752, DW_AT_name("minor")
    5206                      .dwattr $C$DW$752, DW_AT_TI_symbol_name("_minor")
    5207                      .dwattr $C$DW$752, DW_AT_data_member_location[DW_OP_plus_uconst 0x3]
    5208                      .dwattr $C$DW$752, DW_AT_accessibility(DW_ACCESS_public)
    5209                      .dwendtag $C$DW$T$75
    5210              
    5211              $C$DW$T$41      .dwtag  DW_TAG_typedef, DW_AT_name("CTRL_Version")
    5212                      .dwattr $C$DW$T$41, DW_AT_type(*$C$DW$T$75)
    5213                      .dwattr $C$DW$T$41, DW_AT_language(DW_LANG_C)
    5214              $C$DW$T$213     .dwtag  DW_TAG_pointer_type
    5215                      .dwattr $C$DW$T$213, DW_AT_type(*$C$DW$T$41)
    5216                      .dwattr $C$DW$T$213, DW_AT_address_class(0x16)
    5217              
TMS320C2000 Assembler PC v6.2.5 Thu Jun 22 20:41:15 2017

Tools Copyright (c) 1996-2014 Texas Instruments Incorporated
C:\Users\wmj\AppData\Local\Temp\1712410                              PAGE  102

    5218              $C$DW$T$20      .dwtag  DW_TAG_structure_type
    5219                      .dwattr $C$DW$T$20, DW_AT_name("_EST_Obj_")
    5220                      .dwattr $C$DW$T$20, DW_AT_declaration
    5221                      .dwendtag $C$DW$T$20
    5222              
    5223              $C$DW$T$49      .dwtag  DW_TAG_pointer_type
    5224                      .dwattr $C$DW$T$49, DW_AT_type(*$C$DW$T$20)
    5225                      .dwattr $C$DW$T$49, DW_AT_address_class(0x16)
    5226              $C$DW$T$50      .dwtag  DW_TAG_typedef, DW_AT_name("EST_Handle")
    5227                      .dwattr $C$DW$T$50, DW_AT_type(*$C$DW$T$49)
    5228                      .dwattr $C$DW$T$50, DW_AT_language(DW_LANG_C)
    5229              
    5230              $C$DW$T$76      .dwtag  DW_TAG_structure_type
    5231                      .dwattr $C$DW$T$76, DW_AT_name("_FEM_Obj_")
    5232                      .dwattr $C$DW$T$76, DW_AT_byte_size(0x12)
    5233              $C$DW$753       .dwtag  DW_TAG_member
    5234                      .dwattr $C$DW$753, DW_AT_type(*$C$DW$T$38)
    5235                      .dwattr $C$DW$753, DW_AT_name("timerPeriod_cnts")
    5236                      .dwattr $C$DW$753, DW_AT_TI_symbol_name("_timerPeriod_cnts")
    5237                      .dwattr $C$DW$753, DW_AT_data_member_location[DW_OP_plus_uconst 0x0]
    5238                      .dwattr $C$DW$753, DW_AT_accessibility(DW_ACCESS_public)
    5239              $C$DW$754       .dwtag  DW_TAG_member
    5240                      .dwattr $C$DW$754, DW_AT_type(*$C$DW$T$38)
    5241                      .dwattr $C$DW$754, DW_AT_name("cnt_z0")
    5242                      .dwattr $C$DW$754, DW_AT_TI_symbol_name("_cnt_z0")
    5243                      .dwattr $C$DW$754, DW_AT_data_member_location[DW_OP_plus_uconst 0x2]
    5244                      .dwattr $C$DW$754, DW_AT_accessibility(DW_ACCESS_public)
    5245              $C$DW$755       .dwtag  DW_TAG_member
    5246                      .dwattr $C$DW$755, DW_AT_type(*$C$DW$T$38)
    5247                      .dwattr $C$DW$755, DW_AT_name("cnt_z1")
    5248                      .dwattr $C$DW$755, DW_AT_TI_symbol_name("_cnt_z1")
    5249                      .dwattr $C$DW$755, DW_AT_data_member_location[DW_OP_plus_uconst 0x4]
    5250                      .dwattr $C$DW$755, DW_AT_accessibility(DW_ACCESS_public)
    5251              $C$DW$756       .dwtag  DW_TAG_member
    5252                      .dwattr $C$DW$756, DW_AT_type(*$C$DW$T$38)
    5253                      .dwattr $C$DW$756, DW_AT_name("deltaCnt")
    5254                      .dwattr $C$DW$756, DW_AT_TI_symbol_name("_deltaCnt")
    5255                      .dwattr $C$DW$756, DW_AT_data_member_location[DW_OP_plus_uconst 0x6]
    5256                      .dwattr $C$DW$756, DW_AT_accessibility(DW_ACCESS_public)
    5257              $C$DW$757       .dwtag  DW_TAG_member
    5258                      .dwattr $C$DW$757, DW_AT_type(*$C$DW$T$38)
    5259                      .dwattr $C$DW$757, DW_AT_name("maxDeltaCnt")
    5260                      .dwattr $C$DW$757, DW_AT_TI_symbol_name("_maxDeltaCnt")
    5261                      .dwattr $C$DW$757, DW_AT_data_member_location[DW_OP_plus_uconst 0x8]
    5262                      .dwattr $C$DW$757, DW_AT_accessibility(DW_ACCESS_public)
    5263              $C$DW$758       .dwtag  DW_TAG_member
    5264                      .dwattr $C$DW$758, DW_AT_type(*$C$DW$T$38)
    5265                      .dwattr $C$DW$758, DW_AT_name("minDeltaCnt")
    5266                      .dwattr $C$DW$758, DW_AT_TI_symbol_name("_minDeltaCnt")
    5267                      .dwattr $C$DW$758, DW_AT_data_member_location[DW_OP_plus_uconst 0xa]
    5268                      .dwattr $C$DW$758, DW_AT_accessibility(DW_ACCESS_public)
    5269              $C$DW$759       .dwtag  DW_TAG_member
    5270                      .dwattr $C$DW$759, DW_AT_type(*$C$DW$T$38)
    5271                      .dwattr $C$DW$759, DW_AT_name("maxDeltaCntObserved")
    5272                      .dwattr $C$DW$759, DW_AT_TI_symbol_name("_maxDeltaCntObserved")
TMS320C2000 Assembler PC v6.2.5 Thu Jun 22 20:41:15 2017

Tools Copyright (c) 1996-2014 Texas Instruments Incorporated
C:\Users\wmj\AppData\Local\Temp\1712410                              PAGE  103

    5273                      .dwattr $C$DW$759, DW_AT_data_member_location[DW_OP_plus_uconst 0xc]
    5274                      .dwattr $C$DW$759, DW_AT_accessibility(DW_ACCESS_public)
    5275              $C$DW$760       .dwtag  DW_TAG_member
    5276                      .dwattr $C$DW$760, DW_AT_type(*$C$DW$T$38)
    5277                      .dwattr $C$DW$760, DW_AT_name("errorCnt")
    5278                      .dwattr $C$DW$760, DW_AT_TI_symbol_name("_errorCnt")
    5279                      .dwattr $C$DW$760, DW_AT_data_member_location[DW_OP_plus_uconst 0xe]
    5280                      .dwattr $C$DW$760, DW_AT_accessibility(DW_ACCESS_public)
    5281              $C$DW$761       .dwtag  DW_TAG_member
    5282                      .dwattr $C$DW$761, DW_AT_type(*$C$DW$T$39)
    5283                      .dwattr $C$DW$761, DW_AT_name("flag_freqError")
    5284                      .dwattr $C$DW$761, DW_AT_TI_symbol_name("_flag_freqError")
    5285                      .dwattr $C$DW$761, DW_AT_data_member_location[DW_OP_plus_uconst 0x10]
    5286                      .dwattr $C$DW$761, DW_AT_accessibility(DW_ACCESS_public)
    5287                      .dwendtag $C$DW$T$76
    5288              
    5289              $C$DW$T$216     .dwtag  DW_TAG_typedef, DW_AT_name("FEM_Obj")
    5290                      .dwattr $C$DW$T$216, DW_AT_type(*$C$DW$T$76)
    5291                      .dwattr $C$DW$T$216, DW_AT_language(DW_LANG_C)
    5292              $C$DW$T$217     .dwtag  DW_TAG_pointer_type
    5293                      .dwattr $C$DW$T$217, DW_AT_type(*$C$DW$T$76)
    5294                      .dwattr $C$DW$T$217, DW_AT_address_class(0x16)
    5295              $C$DW$T$218     .dwtag  DW_TAG_typedef, DW_AT_name("FEM_Handle")
    5296                      .dwattr $C$DW$T$218, DW_AT_type(*$C$DW$T$217)
    5297                      .dwattr $C$DW$T$218, DW_AT_language(DW_LANG_C)
    5298              
    5299              $C$DW$T$77      .dwtag  DW_TAG_structure_type
    5300                      .dwattr $C$DW$T$77, DW_AT_name("_FILTER_FO_")
    5301                      .dwattr $C$DW$T$77, DW_AT_byte_size(0x0a)
    5302              $C$DW$762       .dwtag  DW_TAG_member
    5303                      .dwattr $C$DW$762, DW_AT_type(*$C$DW$T$32)
    5304                      .dwattr $C$DW$762, DW_AT_name("a1")
    5305                      .dwattr $C$DW$762, DW_AT_TI_symbol_name("_a1")
    5306                      .dwattr $C$DW$762, DW_AT_data_member_location[DW_OP_plus_uconst 0x0]
    5307                      .dwattr $C$DW$762, DW_AT_accessibility(DW_ACCESS_public)
    5308              $C$DW$763       .dwtag  DW_TAG_member
    5309                      .dwattr $C$DW$763, DW_AT_type(*$C$DW$T$32)
    5310                      .dwattr $C$DW$763, DW_AT_name("b0")
    5311                      .dwattr $C$DW$763, DW_AT_TI_symbol_name("_b0")
    5312                      .dwattr $C$DW$763, DW_AT_data_member_location[DW_OP_plus_uconst 0x2]
    5313                      .dwattr $C$DW$763, DW_AT_accessibility(DW_ACCESS_public)
    5314              $C$DW$764       .dwtag  DW_TAG_member
    5315                      .dwattr $C$DW$764, DW_AT_type(*$C$DW$T$32)
    5316                      .dwattr $C$DW$764, DW_AT_name("b1")
    5317                      .dwattr $C$DW$764, DW_AT_TI_symbol_name("_b1")
    5318                      .dwattr $C$DW$764, DW_AT_data_member_location[DW_OP_plus_uconst 0x4]
    5319                      .dwattr $C$DW$764, DW_AT_accessibility(DW_ACCESS_public)
    5320              $C$DW$765       .dwtag  DW_TAG_member
    5321                      .dwattr $C$DW$765, DW_AT_type(*$C$DW$T$32)
    5322                      .dwattr $C$DW$765, DW_AT_name("x1")
    5323                      .dwattr $C$DW$765, DW_AT_TI_symbol_name("_x1")
    5324                      .dwattr $C$DW$765, DW_AT_data_member_location[DW_OP_plus_uconst 0x6]
    5325                      .dwattr $C$DW$765, DW_AT_accessibility(DW_ACCESS_public)
    5326              $C$DW$766       .dwtag  DW_TAG_member
    5327                      .dwattr $C$DW$766, DW_AT_type(*$C$DW$T$32)
TMS320C2000 Assembler PC v6.2.5 Thu Jun 22 20:41:15 2017

Tools Copyright (c) 1996-2014 Texas Instruments Incorporated
C:\Users\wmj\AppData\Local\Temp\1712410                              PAGE  104

    5328                      .dwattr $C$DW$766, DW_AT_name("y1")
    5329                      .dwattr $C$DW$766, DW_AT_TI_symbol_name("_y1")
    5330                      .dwattr $C$DW$766, DW_AT_data_member_location[DW_OP_plus_uconst 0x8]
    5331                      .dwattr $C$DW$766, DW_AT_accessibility(DW_ACCESS_public)
    5332                      .dwendtag $C$DW$T$77
    5333              
    5334              $C$DW$T$134     .dwtag  DW_TAG_typedef, DW_AT_name("FILTER_FO_Obj")
    5335                      .dwattr $C$DW$T$134, DW_AT_type(*$C$DW$T$77)
    5336                      .dwattr $C$DW$T$134, DW_AT_language(DW_LANG_C)
    5337              
    5338              $C$DW$T$21      .dwtag  DW_TAG_structure_type
    5339                      .dwattr $C$DW$T$21, DW_AT_name("_FILTER_FO_Obj_")
    5340                      .dwattr $C$DW$T$21, DW_AT_declaration
    5341                      .dwendtag $C$DW$T$21
    5342              
    5343              $C$DW$T$135     .dwtag  DW_TAG_pointer_type
    5344                      .dwattr $C$DW$T$135, DW_AT_type(*$C$DW$T$21)
    5345                      .dwattr $C$DW$T$135, DW_AT_address_class(0x16)
    5346              $C$DW$T$136     .dwtag  DW_TAG_typedef, DW_AT_name("FILTER_FO_Handle")
    5347                      .dwattr $C$DW$T$136, DW_AT_type(*$C$DW$T$135)
    5348                      .dwattr $C$DW$T$136, DW_AT_language(DW_LANG_C)
    5349              
    5350              $C$DW$T$78      .dwtag  DW_TAG_structure_type
    5351                      .dwattr $C$DW$T$78, DW_AT_name("_FLASH_Obj_")
    5352                      .dwattr $C$DW$T$78, DW_AT_byte_size(0x08)
    5353              $C$DW$767       .dwtag  DW_TAG_member
    5354                      .dwattr $C$DW$767, DW_AT_type(*$C$DW$T$24)
    5355                      .dwattr $C$DW$767, DW_AT_name("FOPT")
    5356                      .dwattr $C$DW$767, DW_AT_TI_symbol_name("_FOPT")
    5357                      .dwattr $C$DW$767, DW_AT_data_member_location[DW_OP_plus_uconst 0x0]
    5358                      .dwattr $C$DW$767, DW_AT_accessibility(DW_ACCESS_public)
    5359              $C$DW$768       .dwtag  DW_TAG_member
    5360                      .dwattr $C$DW$768, DW_AT_type(*$C$DW$T$24)
    5361                      .dwattr $C$DW$768, DW_AT_name("rsvd_1")
    5362                      .dwattr $C$DW$768, DW_AT_TI_symbol_name("_rsvd_1")
    5363                      .dwattr $C$DW$768, DW_AT_data_member_location[DW_OP_plus_uconst 0x1]
    5364                      .dwattr $C$DW$768, DW_AT_accessibility(DW_ACCESS_public)
    5365              $C$DW$769       .dwtag  DW_TAG_member
    5366                      .dwattr $C$DW$769, DW_AT_type(*$C$DW$T$24)
    5367                      .dwattr $C$DW$769, DW_AT_name("FPWR")
    5368                      .dwattr $C$DW$769, DW_AT_TI_symbol_name("_FPWR")
    5369                      .dwattr $C$DW$769, DW_AT_data_member_location[DW_OP_plus_uconst 0x2]
    5370                      .dwattr $C$DW$769, DW_AT_accessibility(DW_ACCESS_public)
    5371              $C$DW$770       .dwtag  DW_TAG_member
    5372                      .dwattr $C$DW$770, DW_AT_type(*$C$DW$T$24)
    5373                      .dwattr $C$DW$770, DW_AT_name("FSTATUS")
    5374                      .dwattr $C$DW$770, DW_AT_TI_symbol_name("_FSTATUS")
    5375                      .dwattr $C$DW$770, DW_AT_data_member_location[DW_OP_plus_uconst 0x3]
    5376                      .dwattr $C$DW$770, DW_AT_accessibility(DW_ACCESS_public)
    5377              $C$DW$771       .dwtag  DW_TAG_member
    5378                      .dwattr $C$DW$771, DW_AT_type(*$C$DW$T$24)
    5379                      .dwattr $C$DW$771, DW_AT_name("FSTDBYWAIT")
    5380                      .dwattr $C$DW$771, DW_AT_TI_symbol_name("_FSTDBYWAIT")
    5381                      .dwattr $C$DW$771, DW_AT_data_member_location[DW_OP_plus_uconst 0x4]
    5382                      .dwattr $C$DW$771, DW_AT_accessibility(DW_ACCESS_public)
TMS320C2000 Assembler PC v6.2.5 Thu Jun 22 20:41:15 2017

Tools Copyright (c) 1996-2014 Texas Instruments Incorporated
C:\Users\wmj\AppData\Local\Temp\1712410                              PAGE  105

    5383              $C$DW$772       .dwtag  DW_TAG_member
    5384                      .dwattr $C$DW$772, DW_AT_type(*$C$DW$T$24)
    5385                      .dwattr $C$DW$772, DW_AT_name("FACTIVEWAIT")
    5386                      .dwattr $C$DW$772, DW_AT_TI_symbol_name("_FACTIVEWAIT")
    5387                      .dwattr $C$DW$772, DW_AT_data_member_location[DW_OP_plus_uconst 0x5]
    5388                      .dwattr $C$DW$772, DW_AT_accessibility(DW_ACCESS_public)
    5389              $C$DW$773       .dwtag  DW_TAG_member
    5390                      .dwattr $C$DW$773, DW_AT_type(*$C$DW$T$24)
    5391                      .dwattr $C$DW$773, DW_AT_name("FBANKWAIT")
    5392                      .dwattr $C$DW$773, DW_AT_TI_symbol_name("_FBANKWAIT")
    5393                      .dwattr $C$DW$773, DW_AT_data_member_location[DW_OP_plus_uconst 0x6]
    5394                      .dwattr $C$DW$773, DW_AT_accessibility(DW_ACCESS_public)
    5395              $C$DW$774       .dwtag  DW_TAG_member
    5396                      .dwattr $C$DW$774, DW_AT_type(*$C$DW$T$24)
    5397                      .dwattr $C$DW$774, DW_AT_name("FOTPWAIT")
    5398                      .dwattr $C$DW$774, DW_AT_TI_symbol_name("_FOTPWAIT")
    5399                      .dwattr $C$DW$774, DW_AT_data_member_location[DW_OP_plus_uconst 0x7]
    5400                      .dwattr $C$DW$774, DW_AT_accessibility(DW_ACCESS_public)
    5401                      .dwendtag $C$DW$T$78
    5402              
    5403              $C$DW$T$91      .dwtag  DW_TAG_pointer_type
    5404                      .dwattr $C$DW$T$91, DW_AT_type(*$C$DW$T$78)
    5405                      .dwattr $C$DW$T$91, DW_AT_address_class(0x16)
    5406              $C$DW$T$92      .dwtag  DW_TAG_typedef, DW_AT_name("FLASH_Handle")
    5407                      .dwattr $C$DW$T$92, DW_AT_type(*$C$DW$T$91)
    5408                      .dwattr $C$DW$T$92, DW_AT_language(DW_LANG_C)
    5409              
    5410              $C$DW$T$82      .dwtag  DW_TAG_structure_type
    5411                      .dwattr $C$DW$T$82, DW_AT_name("_GPIO_Obj_")
    5412                      .dwattr $C$DW$T$82, DW_AT_byte_size(0x6a)
    5413              $C$DW$775       .dwtag  DW_TAG_member
    5414                      .dwattr $C$DW$775, DW_AT_type(*$C$DW$T$79)
    5415                      .dwattr $C$DW$775, DW_AT_name("GPACTRL")
    5416                      .dwattr $C$DW$775, DW_AT_TI_symbol_name("_GPACTRL")
    5417                      .dwattr $C$DW$775, DW_AT_data_member_location[DW_OP_plus_uconst 0x0]
    5418                      .dwattr $C$DW$775, DW_AT_accessibility(DW_ACCESS_public)
    5419              $C$DW$776       .dwtag  DW_TAG_member
    5420                      .dwattr $C$DW$776, DW_AT_type(*$C$DW$T$79)
    5421                      .dwattr $C$DW$776, DW_AT_name("GPAQSEL1")
    5422                      .dwattr $C$DW$776, DW_AT_TI_symbol_name("_GPAQSEL1")
    5423                      .dwattr $C$DW$776, DW_AT_data_member_location[DW_OP_plus_uconst 0x2]
    5424                      .dwattr $C$DW$776, DW_AT_accessibility(DW_ACCESS_public)
    5425              $C$DW$777       .dwtag  DW_TAG_member
    5426                      .dwattr $C$DW$777, DW_AT_type(*$C$DW$T$79)
    5427                      .dwattr $C$DW$777, DW_AT_name("GPAQSEL2")
    5428                      .dwattr $C$DW$777, DW_AT_TI_symbol_name("_GPAQSEL2")
    5429                      .dwattr $C$DW$777, DW_AT_data_member_location[DW_OP_plus_uconst 0x4]
    5430                      .dwattr $C$DW$777, DW_AT_accessibility(DW_ACCESS_public)
    5431              $C$DW$778       .dwtag  DW_TAG_member
    5432                      .dwattr $C$DW$778, DW_AT_type(*$C$DW$T$79)
    5433                      .dwattr $C$DW$778, DW_AT_name("GPAMUX1")
    5434                      .dwattr $C$DW$778, DW_AT_TI_symbol_name("_GPAMUX1")
    5435                      .dwattr $C$DW$778, DW_AT_data_member_location[DW_OP_plus_uconst 0x6]
    5436                      .dwattr $C$DW$778, DW_AT_accessibility(DW_ACCESS_public)
    5437              $C$DW$779       .dwtag  DW_TAG_member
TMS320C2000 Assembler PC v6.2.5 Thu Jun 22 20:41:15 2017

Tools Copyright (c) 1996-2014 Texas Instruments Incorporated
C:\Users\wmj\AppData\Local\Temp\1712410                              PAGE  106

    5438                      .dwattr $C$DW$779, DW_AT_type(*$C$DW$T$79)
    5439                      .dwattr $C$DW$779, DW_AT_name("GPAMUX2")
    5440                      .dwattr $C$DW$779, DW_AT_TI_symbol_name("_GPAMUX2")
    5441                      .dwattr $C$DW$779, DW_AT_data_member_location[DW_OP_plus_uconst 0x8]
    5442                      .dwattr $C$DW$779, DW_AT_accessibility(DW_ACCESS_public)
    5443              $C$DW$780       .dwtag  DW_TAG_member
    5444                      .dwattr $C$DW$780, DW_AT_type(*$C$DW$T$79)
    5445                      .dwattr $C$DW$780, DW_AT_name("GPADIR")
    5446                      .dwattr $C$DW$780, DW_AT_TI_symbol_name("_GPADIR")
    5447                      .dwattr $C$DW$780, DW_AT_data_member_location[DW_OP_plus_uconst 0xa]
    5448                      .dwattr $C$DW$780, DW_AT_accessibility(DW_ACCESS_public)
    5449              $C$DW$781       .dwtag  DW_TAG_member
    5450                      .dwattr $C$DW$781, DW_AT_type(*$C$DW$T$79)
    5451                      .dwattr $C$DW$781, DW_AT_name("GPAPUD")
    5452                      .dwattr $C$DW$781, DW_AT_TI_symbol_name("_GPAPUD")
    5453                      .dwattr $C$DW$781, DW_AT_data_member_location[DW_OP_plus_uconst 0xc]
    5454                      .dwattr $C$DW$781, DW_AT_accessibility(DW_ACCESS_public)
    5455              $C$DW$782       .dwtag  DW_TAG_member
    5456                      .dwattr $C$DW$782, DW_AT_type(*$C$DW$T$27)
    5457                      .dwattr $C$DW$782, DW_AT_name("rsvd_1")
    5458                      .dwattr $C$DW$782, DW_AT_TI_symbol_name("_rsvd_1")
    5459                      .dwattr $C$DW$782, DW_AT_data_member_location[DW_OP_plus_uconst 0xe]
    5460                      .dwattr $C$DW$782, DW_AT_accessibility(DW_ACCESS_public)
    5461              $C$DW$783       .dwtag  DW_TAG_member
    5462                      .dwattr $C$DW$783, DW_AT_type(*$C$DW$T$79)
    5463                      .dwattr $C$DW$783, DW_AT_name("GPBCTRL")
    5464                      .dwattr $C$DW$783, DW_AT_TI_symbol_name("_GPBCTRL")
    5465                      .dwattr $C$DW$783, DW_AT_data_member_location[DW_OP_plus_uconst 0x10]
    5466                      .dwattr $C$DW$783, DW_AT_accessibility(DW_ACCESS_public)
    5467              $C$DW$784       .dwtag  DW_TAG_member
    5468                      .dwattr $C$DW$784, DW_AT_type(*$C$DW$T$79)
    5469                      .dwattr $C$DW$784, DW_AT_name("GPBQSEL1")
    5470                      .dwattr $C$DW$784, DW_AT_TI_symbol_name("_GPBQSEL1")
    5471                      .dwattr $C$DW$784, DW_AT_data_member_location[DW_OP_plus_uconst 0x12]
    5472                      .dwattr $C$DW$784, DW_AT_accessibility(DW_ACCESS_public)
    5473              $C$DW$785       .dwtag  DW_TAG_member
    5474                      .dwattr $C$DW$785, DW_AT_type(*$C$DW$T$27)
    5475                      .dwattr $C$DW$785, DW_AT_name("rsvd_2")
    5476                      .dwattr $C$DW$785, DW_AT_TI_symbol_name("_rsvd_2")
    5477                      .dwattr $C$DW$785, DW_AT_data_member_location[DW_OP_plus_uconst 0x14]
    5478                      .dwattr $C$DW$785, DW_AT_accessibility(DW_ACCESS_public)
    5479              $C$DW$786       .dwtag  DW_TAG_member
    5480                      .dwattr $C$DW$786, DW_AT_type(*$C$DW$T$79)
    5481                      .dwattr $C$DW$786, DW_AT_name("GPBMUX1")
    5482                      .dwattr $C$DW$786, DW_AT_TI_symbol_name("_GPBMUX1")
    5483                      .dwattr $C$DW$786, DW_AT_data_member_location[DW_OP_plus_uconst 0x16]
    5484                      .dwattr $C$DW$786, DW_AT_accessibility(DW_ACCESS_public)
    5485              $C$DW$787       .dwtag  DW_TAG_member
    5486                      .dwattr $C$DW$787, DW_AT_type(*$C$DW$T$27)
    5487                      .dwattr $C$DW$787, DW_AT_name("rsvd_3")
    5488                      .dwattr $C$DW$787, DW_AT_TI_symbol_name("_rsvd_3")
    5489                      .dwattr $C$DW$787, DW_AT_data_member_location[DW_OP_plus_uconst 0x18]
    5490                      .dwattr $C$DW$787, DW_AT_accessibility(DW_ACCESS_public)
    5491              $C$DW$788       .dwtag  DW_TAG_member
    5492                      .dwattr $C$DW$788, DW_AT_type(*$C$DW$T$79)
TMS320C2000 Assembler PC v6.2.5 Thu Jun 22 20:41:15 2017

Tools Copyright (c) 1996-2014 Texas Instruments Incorporated
C:\Users\wmj\AppData\Local\Temp\1712410                              PAGE  107

    5493                      .dwattr $C$DW$788, DW_AT_name("GPBDIR")
    5494                      .dwattr $C$DW$788, DW_AT_TI_symbol_name("_GPBDIR")
    5495                      .dwattr $C$DW$788, DW_AT_data_member_location[DW_OP_plus_uconst 0x1a]
    5496                      .dwattr $C$DW$788, DW_AT_accessibility(DW_ACCESS_public)
    5497              $C$DW$789       .dwtag  DW_TAG_member
    5498                      .dwattr $C$DW$789, DW_AT_type(*$C$DW$T$79)
    5499                      .dwattr $C$DW$789, DW_AT_name("GPBPUD")
    5500                      .dwattr $C$DW$789, DW_AT_TI_symbol_name("_GPBPUD")
    5501                      .dwattr $C$DW$789, DW_AT_data_member_location[DW_OP_plus_uconst 0x1c]
    5502                      .dwattr $C$DW$789, DW_AT_accessibility(DW_ACCESS_public)
    5503              $C$DW$790       .dwtag  DW_TAG_member
    5504                      .dwattr $C$DW$790, DW_AT_type(*$C$DW$T$80)
    5505                      .dwattr $C$DW$790, DW_AT_name("rsvd_4")
    5506                      .dwattr $C$DW$790, DW_AT_TI_symbol_name("_rsvd_4")
    5507                      .dwattr $C$DW$790, DW_AT_data_member_location[DW_OP_plus_uconst 0x1e]
    5508                      .dwattr $C$DW$790, DW_AT_accessibility(DW_ACCESS_public)
    5509              $C$DW$791       .dwtag  DW_TAG_member
    5510                      .dwattr $C$DW$791, DW_AT_type(*$C$DW$T$79)
    5511                      .dwattr $C$DW$791, DW_AT_name("AIOMUX1")
    5512                      .dwattr $C$DW$791, DW_AT_TI_symbol_name("_AIOMUX1")
    5513                      .dwattr $C$DW$791, DW_AT_data_member_location[DW_OP_plus_uconst 0x36]
    5514                      .dwattr $C$DW$791, DW_AT_accessibility(DW_ACCESS_public)
    5515              $C$DW$792       .dwtag  DW_TAG_member
    5516                      .dwattr $C$DW$792, DW_AT_type(*$C$DW$T$27)
    5517                      .dwattr $C$DW$792, DW_AT_name("rsvd_5")
    5518                      .dwattr $C$DW$792, DW_AT_TI_symbol_name("_rsvd_5")
    5519                      .dwattr $C$DW$792, DW_AT_data_member_location[DW_OP_plus_uconst 0x38]
    5520                      .dwattr $C$DW$792, DW_AT_accessibility(DW_ACCESS_public)
    5521              $C$DW$793       .dwtag  DW_TAG_member
    5522                      .dwattr $C$DW$793, DW_AT_type(*$C$DW$T$79)
    5523                      .dwattr $C$DW$793, DW_AT_name("AIODIR")
    5524                      .dwattr $C$DW$793, DW_AT_TI_symbol_name("_AIODIR")
    5525                      .dwattr $C$DW$793, DW_AT_data_member_location[DW_OP_plus_uconst 0x3a]
    5526                      .dwattr $C$DW$793, DW_AT_accessibility(DW_ACCESS_public)
    5527              $C$DW$794       .dwtag  DW_TAG_member
    5528                      .dwattr $C$DW$794, DW_AT_type(*$C$DW$T$81)
    5529                      .dwattr $C$DW$794, DW_AT_name("rsvd_6")
    5530                      .dwattr $C$DW$794, DW_AT_TI_symbol_name("_rsvd_6")
    5531                      .dwattr $C$DW$794, DW_AT_data_member_location[DW_OP_plus_uconst 0x3c]
    5532                      .dwattr $C$DW$794, DW_AT_accessibility(DW_ACCESS_public)
    5533              $C$DW$795       .dwtag  DW_TAG_member
    5534                      .dwattr $C$DW$795, DW_AT_type(*$C$DW$T$79)
    5535                      .dwattr $C$DW$795, DW_AT_name("GPADAT")
    5536                      .dwattr $C$DW$795, DW_AT_TI_symbol_name("_GPADAT")
    5537                      .dwattr $C$DW$795, DW_AT_data_member_location[DW_OP_plus_uconst 0x40]
    5538                      .dwattr $C$DW$795, DW_AT_accessibility(DW_ACCESS_public)
    5539              $C$DW$796       .dwtag  DW_TAG_member
    5540                      .dwattr $C$DW$796, DW_AT_type(*$C$DW$T$79)
    5541                      .dwattr $C$DW$796, DW_AT_name("GPASET")
    5542                      .dwattr $C$DW$796, DW_AT_TI_symbol_name("_GPASET")
    5543                      .dwattr $C$DW$796, DW_AT_data_member_location[DW_OP_plus_uconst 0x42]
    5544                      .dwattr $C$DW$796, DW_AT_accessibility(DW_ACCESS_public)
    5545              $C$DW$797       .dwtag  DW_TAG_member
    5546                      .dwattr $C$DW$797, DW_AT_type(*$C$DW$T$79)
    5547                      .dwattr $C$DW$797, DW_AT_name("GPACLEAR")
TMS320C2000 Assembler PC v6.2.5 Thu Jun 22 20:41:15 2017

Tools Copyright (c) 1996-2014 Texas Instruments Incorporated
C:\Users\wmj\AppData\Local\Temp\1712410                              PAGE  108

    5548                      .dwattr $C$DW$797, DW_AT_TI_symbol_name("_GPACLEAR")
    5549                      .dwattr $C$DW$797, DW_AT_data_member_location[DW_OP_plus_uconst 0x44]
    5550                      .dwattr $C$DW$797, DW_AT_accessibility(DW_ACCESS_public)
    5551              $C$DW$798       .dwtag  DW_TAG_member
    5552                      .dwattr $C$DW$798, DW_AT_type(*$C$DW$T$79)
    5553                      .dwattr $C$DW$798, DW_AT_name("GPATOGGLE")
    5554                      .dwattr $C$DW$798, DW_AT_TI_symbol_name("_GPATOGGLE")
    5555                      .dwattr $C$DW$798, DW_AT_data_member_location[DW_OP_plus_uconst 0x46]
    5556                      .dwattr $C$DW$798, DW_AT_accessibility(DW_ACCESS_public)
    5557              $C$DW$799       .dwtag  DW_TAG_member
    5558                      .dwattr $C$DW$799, DW_AT_type(*$C$DW$T$79)
    5559                      .dwattr $C$DW$799, DW_AT_name("GPBDAT")
    5560                      .dwattr $C$DW$799, DW_AT_TI_symbol_name("_GPBDAT")
    5561                      .dwattr $C$DW$799, DW_AT_data_member_location[DW_OP_plus_uconst 0x48]
    5562                      .dwattr $C$DW$799, DW_AT_accessibility(DW_ACCESS_public)
    5563              $C$DW$800       .dwtag  DW_TAG_member
    5564                      .dwattr $C$DW$800, DW_AT_type(*$C$DW$T$79)
    5565                      .dwattr $C$DW$800, DW_AT_name("GPBSET")
    5566                      .dwattr $C$DW$800, DW_AT_TI_symbol_name("_GPBSET")
    5567                      .dwattr $C$DW$800, DW_AT_data_member_location[DW_OP_plus_uconst 0x4a]
    5568                      .dwattr $C$DW$800, DW_AT_accessibility(DW_ACCESS_public)
    5569              $C$DW$801       .dwtag  DW_TAG_member
    5570                      .dwattr $C$DW$801, DW_AT_type(*$C$DW$T$79)
    5571                      .dwattr $C$DW$801, DW_AT_name("GPBCLEAR")
    5572                      .dwattr $C$DW$801, DW_AT_TI_symbol_name("_GPBCLEAR")
    5573                      .dwattr $C$DW$801, DW_AT_data_member_location[DW_OP_plus_uconst 0x4c]
    5574                      .dwattr $C$DW$801, DW_AT_accessibility(DW_ACCESS_public)
    5575              $C$DW$802       .dwtag  DW_TAG_member
    5576                      .dwattr $C$DW$802, DW_AT_type(*$C$DW$T$79)
    5577                      .dwattr $C$DW$802, DW_AT_name("GPBTOGGLE")
    5578                      .dwattr $C$DW$802, DW_AT_TI_symbol_name("_GPBTOGGLE")
    5579                      .dwattr $C$DW$802, DW_AT_data_member_location[DW_OP_plus_uconst 0x4e]
    5580                      .dwattr $C$DW$802, DW_AT_accessibility(DW_ACCESS_public)
    5581              $C$DW$803       .dwtag  DW_TAG_member
    5582                      .dwattr $C$DW$803, DW_AT_type(*$C$DW$T$35)
    5583                      .dwattr $C$DW$803, DW_AT_name("rsvd_7")
    5584                      .dwattr $C$DW$803, DW_AT_TI_symbol_name("_rsvd_7")
    5585                      .dwattr $C$DW$803, DW_AT_data_member_location[DW_OP_plus_uconst 0x50]
    5586                      .dwattr $C$DW$803, DW_AT_accessibility(DW_ACCESS_public)
    5587              $C$DW$804       .dwtag  DW_TAG_member
    5588                      .dwattr $C$DW$804, DW_AT_type(*$C$DW$T$79)
    5589                      .dwattr $C$DW$804, DW_AT_name("AIODAT")
    5590                      .dwattr $C$DW$804, DW_AT_TI_symbol_name("_AIODAT")
    5591                      .dwattr $C$DW$804, DW_AT_data_member_location[DW_OP_plus_uconst 0x58]
    5592                      .dwattr $C$DW$804, DW_AT_accessibility(DW_ACCESS_public)
    5593              $C$DW$805       .dwtag  DW_TAG_member
    5594                      .dwattr $C$DW$805, DW_AT_type(*$C$DW$T$79)
    5595                      .dwattr $C$DW$805, DW_AT_name("AIOSET")
    5596                      .dwattr $C$DW$805, DW_AT_TI_symbol_name("_AIOSET")
    5597                      .dwattr $C$DW$805, DW_AT_data_member_location[DW_OP_plus_uconst 0x5a]
    5598                      .dwattr $C$DW$805, DW_AT_accessibility(DW_ACCESS_public)
    5599              $C$DW$806       .dwtag  DW_TAG_member
    5600                      .dwattr $C$DW$806, DW_AT_type(*$C$DW$T$79)
    5601                      .dwattr $C$DW$806, DW_AT_name("AIOCLEAR")
    5602                      .dwattr $C$DW$806, DW_AT_TI_symbol_name("_AIOCLEAR")
TMS320C2000 Assembler PC v6.2.5 Thu Jun 22 20:41:15 2017

Tools Copyright (c) 1996-2014 Texas Instruments Incorporated
C:\Users\wmj\AppData\Local\Temp\1712410                              PAGE  109

    5603                      .dwattr $C$DW$806, DW_AT_data_member_location[DW_OP_plus_uconst 0x5c]
    5604                      .dwattr $C$DW$806, DW_AT_accessibility(DW_ACCESS_public)
    5605              $C$DW$807       .dwtag  DW_TAG_member
    5606                      .dwattr $C$DW$807, DW_AT_type(*$C$DW$T$79)
    5607                      .dwattr $C$DW$807, DW_AT_name("AIOTOGGLE")
    5608                      .dwattr $C$DW$807, DW_AT_TI_symbol_name("_AIOTOGGLE")
    5609                      .dwattr $C$DW$807, DW_AT_data_member_location[DW_OP_plus_uconst 0x5e]
    5610                      .dwattr $C$DW$807, DW_AT_accessibility(DW_ACCESS_public)
    5611              $C$DW$808       .dwtag  DW_TAG_member
    5612                      .dwattr $C$DW$808, DW_AT_type(*$C$DW$T$29)
    5613                      .dwattr $C$DW$808, DW_AT_name("GPIOXINTnSEL")
    5614                      .dwattr $C$DW$808, DW_AT_TI_symbol_name("_GPIOXINTnSEL")
    5615                      .dwattr $C$DW$808, DW_AT_data_member_location[DW_OP_plus_uconst 0x60]
    5616                      .dwattr $C$DW$808, DW_AT_accessibility(DW_ACCESS_public)
    5617              $C$DW$809       .dwtag  DW_TAG_member
    5618                      .dwattr $C$DW$809, DW_AT_type(*$C$DW$T$28)
    5619                      .dwattr $C$DW$809, DW_AT_name("rsvd_8")
    5620                      .dwattr $C$DW$809, DW_AT_TI_symbol_name("_rsvd_8")
    5621                      .dwattr $C$DW$809, DW_AT_data_member_location[DW_OP_plus_uconst 0x63]
    5622                      .dwattr $C$DW$809, DW_AT_accessibility(DW_ACCESS_public)
    5623              $C$DW$810       .dwtag  DW_TAG_member
    5624                      .dwattr $C$DW$810, DW_AT_type(*$C$DW$T$79)
    5625                      .dwattr $C$DW$810, DW_AT_name("GPIOLPMSEL")
    5626                      .dwattr $C$DW$810, DW_AT_TI_symbol_name("_GPIOLPMSEL")
    5627                      .dwattr $C$DW$810, DW_AT_data_member_location[DW_OP_plus_uconst 0x68]
    5628                      .dwattr $C$DW$810, DW_AT_accessibility(DW_ACCESS_public)
    5629                      .dwendtag $C$DW$T$82
    5630              
    5631              $C$DW$T$93      .dwtag  DW_TAG_pointer_type
    5632                      .dwattr $C$DW$T$93, DW_AT_type(*$C$DW$T$82)
    5633                      .dwattr $C$DW$T$93, DW_AT_address_class(0x16)
    5634              $C$DW$T$94      .dwtag  DW_TAG_typedef, DW_AT_name("GPIO_Handle")
    5635                      .dwattr $C$DW$T$94, DW_AT_type(*$C$DW$T$93)
    5636                      .dwattr $C$DW$T$94, DW_AT_language(DW_LANG_C)
    5637              
    5638              $C$DW$T$84      .dwtag  DW_TAG_structure_type
    5639                      .dwattr $C$DW$T$84, DW_AT_name("_HAL_AdcData_t_")
    5640                      .dwattr $C$DW$T$84, DW_AT_byte_size(0x0e)
    5641              $C$DW$811       .dwtag  DW_TAG_member
    5642                      .dwattr $C$DW$811, DW_AT_type(*$C$DW$T$83)
    5643                      .dwattr $C$DW$811, DW_AT_name("I")
    5644                      .dwattr $C$DW$811, DW_AT_TI_symbol_name("_I")
    5645                      .dwattr $C$DW$811, DW_AT_data_member_location[DW_OP_plus_uconst 0x0]
    5646                      .dwattr $C$DW$811, DW_AT_accessibility(DW_ACCESS_public)
    5647              $C$DW$812       .dwtag  DW_TAG_member
    5648                      .dwattr $C$DW$812, DW_AT_type(*$C$DW$T$83)
    5649                      .dwattr $C$DW$812, DW_AT_name("V")
    5650                      .dwattr $C$DW$812, DW_AT_TI_symbol_name("_V")
    5651                      .dwattr $C$DW$812, DW_AT_data_member_location[DW_OP_plus_uconst 0x6]
    5652                      .dwattr $C$DW$812, DW_AT_accessibility(DW_ACCESS_public)
    5653              $C$DW$813       .dwtag  DW_TAG_member
    5654                      .dwattr $C$DW$813, DW_AT_type(*$C$DW$T$32)
    5655                      .dwattr $C$DW$813, DW_AT_name("dcBus")
    5656                      .dwattr $C$DW$813, DW_AT_TI_symbol_name("_dcBus")
    5657                      .dwattr $C$DW$813, DW_AT_data_member_location[DW_OP_plus_uconst 0xc]
TMS320C2000 Assembler PC v6.2.5 Thu Jun 22 20:41:15 2017

Tools Copyright (c) 1996-2014 Texas Instruments Incorporated
C:\Users\wmj\AppData\Local\Temp\1712410                              PAGE  110

    5658                      .dwattr $C$DW$813, DW_AT_accessibility(DW_ACCESS_public)
    5659                      .dwendtag $C$DW$T$84
    5660              
    5661              $C$DW$T$118     .dwtag  DW_TAG_typedef, DW_AT_name("HAL_AdcData_t")
    5662                      .dwattr $C$DW$T$118, DW_AT_type(*$C$DW$T$84)
    5663                      .dwattr $C$DW$T$118, DW_AT_language(DW_LANG_C)
    5664              $C$DW$814       .dwtag  DW_TAG_TI_far_type
    5665                      .dwattr $C$DW$814, DW_AT_type(*$C$DW$T$118)
    5666              $C$DW$T$222     .dwtag  DW_TAG_const_type
    5667                      .dwattr $C$DW$T$222, DW_AT_type(*$C$DW$814)
    5668              $C$DW$T$223     .dwtag  DW_TAG_pointer_type
    5669                      .dwattr $C$DW$T$223, DW_AT_type(*$C$DW$T$222)
    5670                      .dwattr $C$DW$T$223, DW_AT_address_class(0x16)
    5671              
    5672              $C$DW$T$119     .dwtag  DW_TAG_structure_type
    5673                      .dwattr $C$DW$T$119, DW_AT_name("_HAL_Obj_")
    5674                      .dwattr $C$DW$T$119, DW_AT_byte_size(0xa8)
    5675              $C$DW$815       .dwtag  DW_TAG_member
    5676                      .dwattr $C$DW$815, DW_AT_type(*$C$DW$T$86)
    5677                      .dwattr $C$DW$815, DW_AT_name("adcHandle")
    5678                      .dwattr $C$DW$815, DW_AT_TI_symbol_name("_adcHandle")
    5679                      .dwattr $C$DW$815, DW_AT_data_member_location[DW_OP_plus_uconst 0x0]
    5680                      .dwattr $C$DW$815, DW_AT_accessibility(DW_ACCESS_public)
    5681              $C$DW$816       .dwtag  DW_TAG_member
    5682                      .dwattr $C$DW$816, DW_AT_type(*$C$DW$T$88)
    5683                      .dwattr $C$DW$816, DW_AT_name("clkHandle")
    5684                      .dwattr $C$DW$816, DW_AT_TI_symbol_name("_clkHandle")
    5685                      .dwattr $C$DW$816, DW_AT_data_member_location[DW_OP_plus_uconst 0x2]
    5686                      .dwattr $C$DW$816, DW_AT_accessibility(DW_ACCESS_public)
    5687              $C$DW$817       .dwtag  DW_TAG_member
    5688                      .dwattr $C$DW$817, DW_AT_type(*$C$DW$T$90)
    5689                      .dwattr $C$DW$817, DW_AT_name("cpuHandle")
    5690                      .dwattr $C$DW$817, DW_AT_TI_symbol_name("_cpuHandle")
    5691                      .dwattr $C$DW$817, DW_AT_data_member_location[DW_OP_plus_uconst 0x4]
    5692                      .dwattr $C$DW$817, DW_AT_accessibility(DW_ACCESS_public)
    5693              $C$DW$818       .dwtag  DW_TAG_member
    5694                      .dwattr $C$DW$818, DW_AT_type(*$C$DW$T$92)
    5695                      .dwattr $C$DW$818, DW_AT_name("flashHandle")
    5696                      .dwattr $C$DW$818, DW_AT_TI_symbol_name("_flashHandle")
    5697                      .dwattr $C$DW$818, DW_AT_data_member_location[DW_OP_plus_uconst 0x6]
    5698                      .dwattr $C$DW$818, DW_AT_accessibility(DW_ACCESS_public)
    5699              $C$DW$819       .dwtag  DW_TAG_member
    5700                      .dwattr $C$DW$819, DW_AT_type(*$C$DW$T$94)
    5701                      .dwattr $C$DW$819, DW_AT_name("gpioHandle")
    5702                      .dwattr $C$DW$819, DW_AT_TI_symbol_name("_gpioHandle")
    5703                      .dwattr $C$DW$819, DW_AT_data_member_location[DW_OP_plus_uconst 0x8]
    5704                      .dwattr $C$DW$819, DW_AT_accessibility(DW_ACCESS_public)
    5705              $C$DW$820       .dwtag  DW_TAG_member
    5706                      .dwattr $C$DW$820, DW_AT_type(*$C$DW$T$97)
    5707                      .dwattr $C$DW$820, DW_AT_name("offsetHandle_I")
    5708                      .dwattr $C$DW$820, DW_AT_TI_symbol_name("_offsetHandle_I")
    5709                      .dwattr $C$DW$820, DW_AT_data_member_location[DW_OP_plus_uconst 0xa]
    5710                      .dwattr $C$DW$820, DW_AT_accessibility(DW_ACCESS_public)
    5711              $C$DW$821       .dwtag  DW_TAG_member
    5712                      .dwattr $C$DW$821, DW_AT_type(*$C$DW$T$99)
TMS320C2000 Assembler PC v6.2.5 Thu Jun 22 20:41:15 2017

Tools Copyright (c) 1996-2014 Texas Instruments Incorporated
C:\Users\wmj\AppData\Local\Temp\1712410                              PAGE  111

    5713                      .dwattr $C$DW$821, DW_AT_name("offset_I")
    5714                      .dwattr $C$DW$821, DW_AT_TI_symbol_name("_offset_I")
    5715                      .dwattr $C$DW$821, DW_AT_data_member_location[DW_OP_plus_uconst 0x10]
    5716                      .dwattr $C$DW$821, DW_AT_accessibility(DW_ACCESS_public)
    5717              $C$DW$822       .dwtag  DW_TAG_member
    5718                      .dwattr $C$DW$822, DW_AT_type(*$C$DW$T$97)
    5719                      .dwattr $C$DW$822, DW_AT_name("offsetHandle_V")
    5720                      .dwattr $C$DW$822, DW_AT_TI_symbol_name("_offsetHandle_V")
    5721                      .dwattr $C$DW$822, DW_AT_data_member_location[DW_OP_plus_uconst 0x40]
    5722                      .dwattr $C$DW$822, DW_AT_accessibility(DW_ACCESS_public)
    5723              $C$DW$823       .dwtag  DW_TAG_member
    5724                      .dwattr $C$DW$823, DW_AT_type(*$C$DW$T$99)
    5725                      .dwattr $C$DW$823, DW_AT_name("offset_V")
    5726                      .dwattr $C$DW$823, DW_AT_TI_symbol_name("_offset_V")
    5727                      .dwattr $C$DW$823, DW_AT_data_member_location[DW_OP_plus_uconst 0x46]
    5728                      .dwattr $C$DW$823, DW_AT_accessibility(DW_ACCESS_public)
    5729              $C$DW$824       .dwtag  DW_TAG_member
    5730                      .dwattr $C$DW$824, DW_AT_type(*$C$DW$T$101)
    5731                      .dwattr $C$DW$824, DW_AT_name("oscHandle")
    5732                      .dwattr $C$DW$824, DW_AT_TI_symbol_name("_oscHandle")
    5733                      .dwattr $C$DW$824, DW_AT_data_member_location[DW_OP_plus_uconst 0x76]
    5734                      .dwattr $C$DW$824, DW_AT_accessibility(DW_ACCESS_public)
    5735              $C$DW$825       .dwtag  DW_TAG_member
    5736                      .dwattr $C$DW$825, DW_AT_type(*$C$DW$T$103)
    5737                      .dwattr $C$DW$825, DW_AT_name("pieHandle")
    5738                      .dwattr $C$DW$825, DW_AT_TI_symbol_name("_pieHandle")
    5739                      .dwattr $C$DW$825, DW_AT_data_member_location[DW_OP_plus_uconst 0x78]
    5740                      .dwattr $C$DW$825, DW_AT_accessibility(DW_ACCESS_public)
    5741              $C$DW$826       .dwtag  DW_TAG_member
    5742                      .dwattr $C$DW$826, DW_AT_type(*$C$DW$T$105)
    5743                      .dwattr $C$DW$826, DW_AT_name("pllHandle")
    5744                      .dwattr $C$DW$826, DW_AT_TI_symbol_name("_pllHandle")
    5745                      .dwattr $C$DW$826, DW_AT_data_member_location[DW_OP_plus_uconst 0x7a]
    5746                      .dwattr $C$DW$826, DW_AT_accessibility(DW_ACCESS_public)
    5747              $C$DW$827       .dwtag  DW_TAG_member
    5748                      .dwattr $C$DW$827, DW_AT_type(*$C$DW$T$108)
    5749                      .dwattr $C$DW$827, DW_AT_name("pwmHandle")
    5750                      .dwattr $C$DW$827, DW_AT_TI_symbol_name("_pwmHandle")
    5751                      .dwattr $C$DW$827, DW_AT_data_member_location[DW_OP_plus_uconst 0x7c]
    5752                      .dwattr $C$DW$827, DW_AT_accessibility(DW_ACCESS_public)
    5753              $C$DW$828       .dwtag  DW_TAG_member
    5754                      .dwattr $C$DW$828, DW_AT_type(*$C$DW$T$108)
    5755                      .dwattr $C$DW$828, DW_AT_name("pwmDacHandle")
    5756                      .dwattr $C$DW$828, DW_AT_TI_symbol_name("_pwmDacHandle")
    5757                      .dwattr $C$DW$828, DW_AT_data_member_location[DW_OP_plus_uconst 0x82]
    5758                      .dwattr $C$DW$828, DW_AT_accessibility(DW_ACCESS_public)
    5759              $C$DW$829       .dwtag  DW_TAG_member
    5760                      .dwattr $C$DW$829, DW_AT_type(*$C$DW$T$110)
    5761                      .dwattr $C$DW$829, DW_AT_name("pwrHandle")
    5762                      .dwattr $C$DW$829, DW_AT_TI_symbol_name("_pwrHandle")
    5763                      .dwattr $C$DW$829, DW_AT_data_member_location[DW_OP_plus_uconst 0x88]
    5764                      .dwattr $C$DW$829, DW_AT_accessibility(DW_ACCESS_public)
    5765              $C$DW$830       .dwtag  DW_TAG_member
    5766                      .dwattr $C$DW$830, DW_AT_type(*$C$DW$T$113)
    5767                      .dwattr $C$DW$830, DW_AT_name("timerHandle")
TMS320C2000 Assembler PC v6.2.5 Thu Jun 22 20:41:15 2017

Tools Copyright (c) 1996-2014 Texas Instruments Incorporated
C:\Users\wmj\AppData\Local\Temp\1712410                              PAGE  112

    5768                      .dwattr $C$DW$830, DW_AT_TI_symbol_name("_timerHandle")
    5769                      .dwattr $C$DW$830, DW_AT_data_member_location[DW_OP_plus_uconst 0x8a]
    5770                      .dwattr $C$DW$830, DW_AT_accessibility(DW_ACCESS_public)
    5771              $C$DW$831       .dwtag  DW_TAG_member
    5772                      .dwattr $C$DW$831, DW_AT_type(*$C$DW$T$115)
    5773                      .dwattr $C$DW$831, DW_AT_name("i2cHandle")
    5774                      .dwattr $C$DW$831, DW_AT_TI_symbol_name("_i2cHandle")
    5775                      .dwattr $C$DW$831, DW_AT_data_member_location[DW_OP_plus_uconst 0x90]
    5776                      .dwattr $C$DW$831, DW_AT_accessibility(DW_ACCESS_public)
    5777              $C$DW$832       .dwtag  DW_TAG_member
    5778                      .dwattr $C$DW$832, DW_AT_type(*$C$DW$T$117)
    5779                      .dwattr $C$DW$832, DW_AT_name("wdogHandle")
    5780                      .dwattr $C$DW$832, DW_AT_TI_symbol_name("_wdogHandle")
    5781                      .dwattr $C$DW$832, DW_AT_data_member_location[DW_OP_plus_uconst 0x92]
    5782                      .dwattr $C$DW$832, DW_AT_accessibility(DW_ACCESS_public)
    5783              $C$DW$833       .dwtag  DW_TAG_member
    5784                      .dwattr $C$DW$833, DW_AT_type(*$C$DW$T$118)
    5785                      .dwattr $C$DW$833, DW_AT_name("adcBias")
    5786                      .dwattr $C$DW$833, DW_AT_TI_symbol_name("_adcBias")
    5787                      .dwattr $C$DW$833, DW_AT_data_member_location[DW_OP_plus_uconst 0x94]
    5788                      .dwattr $C$DW$833, DW_AT_accessibility(DW_ACCESS_public)
    5789              $C$DW$834       .dwtag  DW_TAG_member
    5790                      .dwattr $C$DW$834, DW_AT_type(*$C$DW$T$32)
    5791                      .dwattr $C$DW$834, DW_AT_name("current_sf")
    5792                      .dwattr $C$DW$834, DW_AT_TI_symbol_name("_current_sf")
    5793                      .dwattr $C$DW$834, DW_AT_data_member_location[DW_OP_plus_uconst 0xa2]
    5794                      .dwattr $C$DW$834, DW_AT_accessibility(DW_ACCESS_public)
    5795              $C$DW$835       .dwtag  DW_TAG_member
    5796                      .dwattr $C$DW$835, DW_AT_type(*$C$DW$T$32)
    5797                      .dwattr $C$DW$835, DW_AT_name("voltage_sf")
    5798                      .dwattr $C$DW$835, DW_AT_TI_symbol_name("_voltage_sf")
    5799                      .dwattr $C$DW$835, DW_AT_data_member_location[DW_OP_plus_uconst 0xa4]
    5800                      .dwattr $C$DW$835, DW_AT_accessibility(DW_ACCESS_public)
    5801              $C$DW$836       .dwtag  DW_TAG_member
    5802                      .dwattr $C$DW$836, DW_AT_type(*$C$DW$T$33)
    5803                      .dwattr $C$DW$836, DW_AT_name("numCurrentSensors")
    5804                      .dwattr $C$DW$836, DW_AT_TI_symbol_name("_numCurrentSensors")
    5805                      .dwattr $C$DW$836, DW_AT_data_member_location[DW_OP_plus_uconst 0xa6]
    5806                      .dwattr $C$DW$836, DW_AT_accessibility(DW_ACCESS_public)
    5807              $C$DW$837       .dwtag  DW_TAG_member
    5808                      .dwattr $C$DW$837, DW_AT_type(*$C$DW$T$33)
    5809                      .dwattr $C$DW$837, DW_AT_name("numVoltageSensors")
    5810                      .dwattr $C$DW$837, DW_AT_TI_symbol_name("_numVoltageSensors")
    5811                      .dwattr $C$DW$837, DW_AT_data_member_location[DW_OP_plus_uconst 0xa7]
    5812                      .dwattr $C$DW$837, DW_AT_accessibility(DW_ACCESS_public)
    5813                      .dwendtag $C$DW$T$119
    5814              
    5815              $C$DW$T$226     .dwtag  DW_TAG_typedef, DW_AT_name("HAL_Obj")
    5816                      .dwattr $C$DW$T$226, DW_AT_type(*$C$DW$T$119)
    5817                      .dwattr $C$DW$T$226, DW_AT_language(DW_LANG_C)
    5818              $C$DW$T$227     .dwtag  DW_TAG_pointer_type
    5819                      .dwattr $C$DW$T$227, DW_AT_type(*$C$DW$T$226)
    5820                      .dwattr $C$DW$T$227, DW_AT_address_class(0x16)
    5821              $C$DW$T$228     .dwtag  DW_TAG_pointer_type
    5822                      .dwattr $C$DW$T$228, DW_AT_type(*$C$DW$T$119)
TMS320C2000 Assembler PC v6.2.5 Thu Jun 22 20:41:15 2017

Tools Copyright (c) 1996-2014 Texas Instruments Incorporated
C:\Users\wmj\AppData\Local\Temp\1712410                              PAGE  113

    5823                      .dwattr $C$DW$T$228, DW_AT_address_class(0x16)
    5824              $C$DW$T$229     .dwtag  DW_TAG_typedef, DW_AT_name("HAL_Handle")
    5825                      .dwattr $C$DW$T$229, DW_AT_type(*$C$DW$T$228)
    5826                      .dwattr $C$DW$T$229, DW_AT_language(DW_LANG_C)
    5827              
    5828              $C$DW$T$120     .dwtag  DW_TAG_structure_type
    5829                      .dwattr $C$DW$T$120, DW_AT_name("_HAL_PwmData_t_")
    5830                      .dwattr $C$DW$T$120, DW_AT_byte_size(0x06)
    5831              $C$DW$838       .dwtag  DW_TAG_member
    5832                      .dwattr $C$DW$838, DW_AT_type(*$C$DW$T$83)
    5833                      .dwattr $C$DW$838, DW_AT_name("Tabc")
    5834                      .dwattr $C$DW$838, DW_AT_TI_symbol_name("_Tabc")
    5835                      .dwattr $C$DW$838, DW_AT_data_member_location[DW_OP_plus_uconst 0x0]
    5836                      .dwattr $C$DW$838, DW_AT_accessibility(DW_ACCESS_public)
    5837                      .dwendtag $C$DW$T$120
    5838              
    5839              $C$DW$T$233     .dwtag  DW_TAG_typedef, DW_AT_name("HAL_PwmData_t")
    5840                      .dwattr $C$DW$T$233, DW_AT_type(*$C$DW$T$120)
    5841                      .dwattr $C$DW$T$233, DW_AT_language(DW_LANG_C)
    5842              $C$DW$T$234     .dwtag  DW_TAG_pointer_type
    5843                      .dwattr $C$DW$T$234, DW_AT_type(*$C$DW$T$233)
    5844                      .dwattr $C$DW$T$234, DW_AT_address_class(0x16)
    5845              
    5846              $C$DW$T$121     .dwtag  DW_TAG_structure_type
    5847                      .dwattr $C$DW$T$121, DW_AT_name("_IPARK_Obj_")
    5848                      .dwattr $C$DW$T$121, DW_AT_byte_size(0x04)
    5849              $C$DW$839       .dwtag  DW_TAG_member
    5850                      .dwattr $C$DW$839, DW_AT_type(*$C$DW$T$32)
    5851                      .dwattr $C$DW$839, DW_AT_name("sinTh")
    5852                      .dwattr $C$DW$839, DW_AT_TI_symbol_name("_sinTh")
    5853                      .dwattr $C$DW$839, DW_AT_data_member_location[DW_OP_plus_uconst 0x0]
    5854                      .dwattr $C$DW$839, DW_AT_accessibility(DW_ACCESS_public)
    5855              $C$DW$840       .dwtag  DW_TAG_member
    5856                      .dwattr $C$DW$840, DW_AT_type(*$C$DW$T$32)
    5857                      .dwattr $C$DW$840, DW_AT_name("cosTh")
    5858                      .dwattr $C$DW$840, DW_AT_TI_symbol_name("_cosTh")
    5859                      .dwattr $C$DW$840, DW_AT_data_member_location[DW_OP_plus_uconst 0x2]
    5860                      .dwattr $C$DW$840, DW_AT_accessibility(DW_ACCESS_public)
    5861                      .dwendtag $C$DW$T$121
    5862              
    5863              $C$DW$T$59      .dwtag  DW_TAG_typedef, DW_AT_name("IPARK_Obj")
    5864                      .dwattr $C$DW$T$59, DW_AT_type(*$C$DW$T$121)
    5865                      .dwattr $C$DW$T$59, DW_AT_language(DW_LANG_C)
    5866              $C$DW$T$57      .dwtag  DW_TAG_pointer_type
    5867                      .dwattr $C$DW$T$57, DW_AT_type(*$C$DW$T$121)
    5868                      .dwattr $C$DW$T$57, DW_AT_address_class(0x16)
    5869              $C$DW$T$58      .dwtag  DW_TAG_typedef, DW_AT_name("IPARK_Handle")
    5870                      .dwattr $C$DW$T$58, DW_AT_type(*$C$DW$T$57)
    5871                      .dwattr $C$DW$T$58, DW_AT_language(DW_LANG_C)
    5872              
    5873              $C$DW$T$123     .dwtag  DW_TAG_structure_type
    5874                      .dwattr $C$DW$T$123, DW_AT_name("_MATH_vec2_")
    5875                      .dwattr $C$DW$T$123, DW_AT_byte_size(0x04)
    5876              $C$DW$841       .dwtag  DW_TAG_member
    5877                      .dwattr $C$DW$841, DW_AT_type(*$C$DW$T$122)
TMS320C2000 Assembler PC v6.2.5 Thu Jun 22 20:41:15 2017

Tools Copyright (c) 1996-2014 Texas Instruments Incorporated
C:\Users\wmj\AppData\Local\Temp\1712410                              PAGE  114

    5878                      .dwattr $C$DW$841, DW_AT_name("value")
    5879                      .dwattr $C$DW$841, DW_AT_TI_symbol_name("_value")
    5880                      .dwattr $C$DW$841, DW_AT_data_member_location[DW_OP_plus_uconst 0x0]
    5881                      .dwattr $C$DW$841, DW_AT_accessibility(DW_ACCESS_public)
    5882                      .dwendtag $C$DW$T$123
    5883              
    5884              $C$DW$T$71      .dwtag  DW_TAG_typedef, DW_AT_name("MATH_vec2")
    5885                      .dwattr $C$DW$T$71, DW_AT_type(*$C$DW$T$123)
    5886                      .dwattr $C$DW$T$71, DW_AT_language(DW_LANG_C)
    5887              
    5888              $C$DW$T$125     .dwtag  DW_TAG_structure_type
    5889                      .dwattr $C$DW$T$125, DW_AT_name("_MATH_vec3_")
    5890                      .dwattr $C$DW$T$125, DW_AT_byte_size(0x06)
    5891              $C$DW$842       .dwtag  DW_TAG_member
    5892                      .dwattr $C$DW$842, DW_AT_type(*$C$DW$T$124)
    5893                      .dwattr $C$DW$842, DW_AT_name("value")
    5894                      .dwattr $C$DW$842, DW_AT_TI_symbol_name("_value")
    5895                      .dwattr $C$DW$842, DW_AT_data_member_location[DW_OP_plus_uconst 0x0]
    5896                      .dwattr $C$DW$842, DW_AT_accessibility(DW_ACCESS_public)
    5897                      .dwendtag $C$DW$T$125
    5898              
    5899              $C$DW$T$83      .dwtag  DW_TAG_typedef, DW_AT_name("MATH_vec3")
    5900                      .dwattr $C$DW$T$83, DW_AT_type(*$C$DW$T$125)
    5901                      .dwattr $C$DW$T$83, DW_AT_language(DW_LANG_C)
    5902              
    5903              $C$DW$T$128     .dwtag  DW_TAG_structure_type
    5904                      .dwattr $C$DW$T$128, DW_AT_name("_MOTOR_Params_")
    5905                      .dwattr $C$DW$T$128, DW_AT_byte_size(0x0e)
    5906              $C$DW$843       .dwtag  DW_TAG_member
    5907                      .dwattr $C$DW$843, DW_AT_type(*$C$DW$T$127)
    5908                      .dwattr $C$DW$843, DW_AT_name("type")
    5909                      .dwattr $C$DW$843, DW_AT_TI_symbol_name("_type")
    5910                      .dwattr $C$DW$843, DW_AT_data_member_location[DW_OP_plus_uconst 0x0]
    5911                      .dwattr $C$DW$843, DW_AT_accessibility(DW_ACCESS_public)
    5912              $C$DW$844       .dwtag  DW_TAG_member
    5913                      .dwattr $C$DW$844, DW_AT_type(*$C$DW$T$69)
    5914                      .dwattr $C$DW$844, DW_AT_name("numPolePairs")
    5915                      .dwattr $C$DW$844, DW_AT_TI_symbol_name("_numPolePairs")
    5916                      .dwattr $C$DW$844, DW_AT_data_member_location[DW_OP_plus_uconst 0x1]
    5917                      .dwattr $C$DW$844, DW_AT_accessibility(DW_ACCESS_public)
    5918              $C$DW$845       .dwtag  DW_TAG_member
    5919                      .dwattr $C$DW$845, DW_AT_type(*$C$DW$T$70)
    5920                      .dwattr $C$DW$845, DW_AT_name("Lr_H")
    5921                      .dwattr $C$DW$845, DW_AT_TI_symbol_name("_Lr_H")
    5922                      .dwattr $C$DW$845, DW_AT_data_member_location[DW_OP_plus_uconst 0x2]
    5923                      .dwattr $C$DW$845, DW_AT_accessibility(DW_ACCESS_public)
    5924              $C$DW$846       .dwtag  DW_TAG_member
    5925                      .dwattr $C$DW$846, DW_AT_type(*$C$DW$T$70)
    5926                      .dwattr $C$DW$846, DW_AT_name("Ls_d_H")
    5927                      .dwattr $C$DW$846, DW_AT_TI_symbol_name("_Ls_d_H")
    5928                      .dwattr $C$DW$846, DW_AT_data_member_location[DW_OP_plus_uconst 0x4]
    5929                      .dwattr $C$DW$846, DW_AT_accessibility(DW_ACCESS_public)
    5930              $C$DW$847       .dwtag  DW_TAG_member
    5931                      .dwattr $C$DW$847, DW_AT_type(*$C$DW$T$70)
    5932                      .dwattr $C$DW$847, DW_AT_name("Ls_q_H")
TMS320C2000 Assembler PC v6.2.5 Thu Jun 22 20:41:15 2017

Tools Copyright (c) 1996-2014 Texas Instruments Incorporated
C:\Users\wmj\AppData\Local\Temp\1712410                              PAGE  115

    5933                      .dwattr $C$DW$847, DW_AT_TI_symbol_name("_Ls_q_H")
    5934                      .dwattr $C$DW$847, DW_AT_data_member_location[DW_OP_plus_uconst 0x6]
    5935                      .dwattr $C$DW$847, DW_AT_accessibility(DW_ACCESS_public)
    5936              $C$DW$848       .dwtag  DW_TAG_member
    5937                      .dwattr $C$DW$848, DW_AT_type(*$C$DW$T$70)
    5938                      .dwattr $C$DW$848, DW_AT_name("Rr_Ohm")
    5939                      .dwattr $C$DW$848, DW_AT_TI_symbol_name("_Rr_Ohm")
    5940                      .dwattr $C$DW$848, DW_AT_data_member_location[DW_OP_plus_uconst 0x8]
    5941                      .dwattr $C$DW$848, DW_AT_accessibility(DW_ACCESS_public)
    5942              $C$DW$849       .dwtag  DW_TAG_member
    5943                      .dwattr $C$DW$849, DW_AT_type(*$C$DW$T$70)
    5944                      .dwattr $C$DW$849, DW_AT_name("Rs_Ohm")
    5945                      .dwattr $C$DW$849, DW_AT_TI_symbol_name("_Rs_Ohm")
    5946                      .dwattr $C$DW$849, DW_AT_data_member_location[DW_OP_plus_uconst 0xa]
    5947                      .dwattr $C$DW$849, DW_AT_accessibility(DW_ACCESS_public)
    5948              $C$DW$850       .dwtag  DW_TAG_member
    5949                      .dwattr $C$DW$850, DW_AT_type(*$C$DW$T$70)
    5950                      .dwattr $C$DW$850, DW_AT_name("ratedFlux_VpHz")
    5951                      .dwattr $C$DW$850, DW_AT_TI_symbol_name("_ratedFlux_VpHz")
    5952                      .dwattr $C$DW$850, DW_AT_data_member_location[DW_OP_plus_uconst 0xc]
    5953                      .dwattr $C$DW$850, DW_AT_accessibility(DW_ACCESS_public)
    5954                      .dwendtag $C$DW$T$128
    5955              
    5956              $C$DW$T$66      .dwtag  DW_TAG_typedef, DW_AT_name("MOTOR_Params")
    5957                      .dwattr $C$DW$T$66, DW_AT_type(*$C$DW$T$128)
    5958                      .dwattr $C$DW$T$66, DW_AT_language(DW_LANG_C)
    5959              
    5960              $C$DW$T$133     .dwtag  DW_TAG_structure_type
    5961                      .dwattr $C$DW$T$133, DW_AT_name("_MOTOR_Vars_t_")
    5962                      .dwattr $C$DW$T$133, DW_AT_byte_size(0x80)
    5963              $C$DW$851       .dwtag  DW_TAG_member
    5964                      .dwattr $C$DW$851, DW_AT_type(*$C$DW$T$39)
    5965                      .dwattr $C$DW$851, DW_AT_name("Flag_enableSys")
    5966                      .dwattr $C$DW$851, DW_AT_TI_symbol_name("_Flag_enableSys")
    5967                      .dwattr $C$DW$851, DW_AT_data_member_location[DW_OP_plus_uconst 0x0]
    5968                      .dwattr $C$DW$851, DW_AT_accessibility(DW_ACCESS_public)
    5969              $C$DW$852       .dwtag  DW_TAG_member
    5970                      .dwattr $C$DW$852, DW_AT_type(*$C$DW$T$39)
    5971                      .dwattr $C$DW$852, DW_AT_name("Flag_Run_Identify")
    5972                      .dwattr $C$DW$852, DW_AT_TI_symbol_name("_Flag_Run_Identify")
    5973                      .dwattr $C$DW$852, DW_AT_data_member_location[DW_OP_plus_uconst 0x1]
    5974                      .dwattr $C$DW$852, DW_AT_accessibility(DW_ACCESS_public)
    5975              $C$DW$853       .dwtag  DW_TAG_member
    5976                      .dwattr $C$DW$853, DW_AT_type(*$C$DW$T$39)
    5977                      .dwattr $C$DW$853, DW_AT_name("Flag_MotorIdentified")
    5978                      .dwattr $C$DW$853, DW_AT_TI_symbol_name("_Flag_MotorIdentified")
    5979                      .dwattr $C$DW$853, DW_AT_data_member_location[DW_OP_plus_uconst 0x2]
    5980                      .dwattr $C$DW$853, DW_AT_accessibility(DW_ACCESS_public)
    5981              $C$DW$854       .dwtag  DW_TAG_member
    5982                      .dwattr $C$DW$854, DW_AT_type(*$C$DW$T$39)
    5983                      .dwattr $C$DW$854, DW_AT_name("Flag_enableForceAngle")
    5984                      .dwattr $C$DW$854, DW_AT_TI_symbol_name("_Flag_enableForceAngle")
    5985                      .dwattr $C$DW$854, DW_AT_data_member_location[DW_OP_plus_uconst 0x3]
    5986                      .dwattr $C$DW$854, DW_AT_accessibility(DW_ACCESS_public)
    5987              $C$DW$855       .dwtag  DW_TAG_member
TMS320C2000 Assembler PC v6.2.5 Thu Jun 22 20:41:15 2017

Tools Copyright (c) 1996-2014 Texas Instruments Incorporated
C:\Users\wmj\AppData\Local\Temp\1712410                              PAGE  116

    5988                      .dwattr $C$DW$855, DW_AT_type(*$C$DW$T$39)
    5989                      .dwattr $C$DW$855, DW_AT_name("Flag_enableFieldWeakening")
    5990                      .dwattr $C$DW$855, DW_AT_TI_symbol_name("_Flag_enableFieldWeakening")
    5991                      .dwattr $C$DW$855, DW_AT_data_member_location[DW_OP_plus_uconst 0x4]
    5992                      .dwattr $C$DW$855, DW_AT_accessibility(DW_ACCESS_public)
    5993              $C$DW$856       .dwtag  DW_TAG_member
    5994                      .dwattr $C$DW$856, DW_AT_type(*$C$DW$T$39)
    5995                      .dwattr $C$DW$856, DW_AT_name("Flag_enableRsRecalc")
    5996                      .dwattr $C$DW$856, DW_AT_TI_symbol_name("_Flag_enableRsRecalc")
    5997                      .dwattr $C$DW$856, DW_AT_data_member_location[DW_OP_plus_uconst 0x5]
    5998                      .dwattr $C$DW$856, DW_AT_accessibility(DW_ACCESS_public)
    5999              $C$DW$857       .dwtag  DW_TAG_member
    6000                      .dwattr $C$DW$857, DW_AT_type(*$C$DW$T$39)
    6001                      .dwattr $C$DW$857, DW_AT_name("Flag_enableUserParams")
    6002                      .dwattr $C$DW$857, DW_AT_TI_symbol_name("_Flag_enableUserParams")
    6003                      .dwattr $C$DW$857, DW_AT_data_member_location[DW_OP_plus_uconst 0x6]
    6004                      .dwattr $C$DW$857, DW_AT_accessibility(DW_ACCESS_public)
    6005              $C$DW$858       .dwtag  DW_TAG_member
    6006                      .dwattr $C$DW$858, DW_AT_type(*$C$DW$T$39)
    6007                      .dwattr $C$DW$858, DW_AT_name("Flag_enableOffsetcalc")
    6008                      .dwattr $C$DW$858, DW_AT_TI_symbol_name("_Flag_enableOffsetcalc")
    6009                      .dwattr $C$DW$858, DW_AT_data_member_location[DW_OP_plus_uconst 0x7]
    6010                      .dwattr $C$DW$858, DW_AT_accessibility(DW_ACCESS_public)
    6011              $C$DW$859       .dwtag  DW_TAG_member
    6012                      .dwattr $C$DW$859, DW_AT_type(*$C$DW$T$39)
    6013                      .dwattr $C$DW$859, DW_AT_name("Flag_enablePowerWarp")
    6014                      .dwattr $C$DW$859, DW_AT_TI_symbol_name("_Flag_enablePowerWarp")
    6015                      .dwattr $C$DW$859, DW_AT_data_member_location[DW_OP_plus_uconst 0x8]
    6016                      .dwattr $C$DW$859, DW_AT_accessibility(DW_ACCESS_public)
    6017              $C$DW$860       .dwtag  DW_TAG_member
    6018                      .dwattr $C$DW$860, DW_AT_type(*$C$DW$T$39)
    6019                      .dwattr $C$DW$860, DW_AT_name("Flag_enableSpeedCtrl")
    6020                      .dwattr $C$DW$860, DW_AT_TI_symbol_name("_Flag_enableSpeedCtrl")
    6021                      .dwattr $C$DW$860, DW_AT_data_member_location[DW_OP_plus_uconst 0x9]
    6022                      .dwattr $C$DW$860, DW_AT_accessibility(DW_ACCESS_public)
    6023              $C$DW$861       .dwtag  DW_TAG_member
    6024                      .dwattr $C$DW$861, DW_AT_type(*$C$DW$T$39)
    6025                      .dwattr $C$DW$861, DW_AT_name("Flag_enableRun")
    6026                      .dwattr $C$DW$861, DW_AT_TI_symbol_name("_Flag_enableRun")
    6027                      .dwattr $C$DW$861, DW_AT_data_member_location[DW_OP_plus_uconst 0xa]
    6028                      .dwattr $C$DW$861, DW_AT_accessibility(DW_ACCESS_public)
    6029              $C$DW$862       .dwtag  DW_TAG_member
    6030                      .dwattr $C$DW$862, DW_AT_type(*$C$DW$T$39)
    6031                      .dwattr $C$DW$862, DW_AT_name("Flag_RunState")
    6032                      .dwattr $C$DW$862, DW_AT_TI_symbol_name("_Flag_RunState")
    6033                      .dwattr $C$DW$862, DW_AT_data_member_location[DW_OP_plus_uconst 0xb]
    6034                      .dwattr $C$DW$862, DW_AT_accessibility(DW_ACCESS_public)
    6035              $C$DW$863       .dwtag  DW_TAG_member
    6036                      .dwattr $C$DW$863, DW_AT_type(*$C$DW$T$39)
    6037                      .dwattr $C$DW$863, DW_AT_name("Flag_enableFlyingStart")
    6038                      .dwattr $C$DW$863, DW_AT_TI_symbol_name("_Flag_enableFlyingStart")
    6039                      .dwattr $C$DW$863, DW_AT_data_member_location[DW_OP_plus_uconst 0xc]
    6040                      .dwattr $C$DW$863, DW_AT_accessibility(DW_ACCESS_public)
    6041              $C$DW$864       .dwtag  DW_TAG_member
    6042                      .dwattr $C$DW$864, DW_AT_type(*$C$DW$T$43)
TMS320C2000 Assembler PC v6.2.5 Thu Jun 22 20:41:15 2017

Tools Copyright (c) 1996-2014 Texas Instruments Incorporated
C:\Users\wmj\AppData\Local\Temp\1712410                              PAGE  117

    6043                      .dwattr $C$DW$864, DW_AT_name("CtrlState")
    6044                      .dwattr $C$DW$864, DW_AT_TI_symbol_name("_CtrlState")
    6045                      .dwattr $C$DW$864, DW_AT_data_member_location[DW_OP_plus_uconst 0xd]
    6046                      .dwattr $C$DW$864, DW_AT_accessibility(DW_ACCESS_public)
    6047              $C$DW$865       .dwtag  DW_TAG_member
    6048                      .dwattr $C$DW$865, DW_AT_type(*$C$DW$T$130)
    6049                      .dwattr $C$DW$865, DW_AT_name("EstState")
    6050                      .dwattr $C$DW$865, DW_AT_TI_symbol_name("_EstState")
    6051                      .dwattr $C$DW$865, DW_AT_data_member_location[DW_OP_plus_uconst 0xe]
    6052                      .dwattr $C$DW$865, DW_AT_accessibility(DW_ACCESS_public)
    6053              $C$DW$866       .dwtag  DW_TAG_member
    6054                      .dwattr $C$DW$866, DW_AT_type(*$C$DW$T$132)
    6055                      .dwattr $C$DW$866, DW_AT_name("UserErrorCode")
    6056                      .dwattr $C$DW$866, DW_AT_TI_symbol_name("_UserErrorCode")
    6057                      .dwattr $C$DW$866, DW_AT_data_member_location[DW_OP_plus_uconst 0xf]
    6058                      .dwattr $C$DW$866, DW_AT_accessibility(DW_ACCESS_public)
    6059              $C$DW$867       .dwtag  DW_TAG_member
    6060                      .dwattr $C$DW$867, DW_AT_type(*$C$DW$T$41)
    6061                      .dwattr $C$DW$867, DW_AT_name("CtrlVersion")
    6062                      .dwattr $C$DW$867, DW_AT_TI_symbol_name("_CtrlVersion")
    6063                      .dwattr $C$DW$867, DW_AT_data_member_location[DW_OP_plus_uconst 0x10]
    6064                      .dwattr $C$DW$867, DW_AT_accessibility(DW_ACCESS_public)
    6065              $C$DW$868       .dwtag  DW_TAG_member
    6066                      .dwattr $C$DW$868, DW_AT_type(*$C$DW$T$32)
    6067                      .dwattr $C$DW$868, DW_AT_name("IdRef_A")
    6068                      .dwattr $C$DW$868, DW_AT_TI_symbol_name("_IdRef_A")
    6069                      .dwattr $C$DW$868, DW_AT_data_member_location[DW_OP_plus_uconst 0x14]
    6070                      .dwattr $C$DW$868, DW_AT_accessibility(DW_ACCESS_public)
    6071              $C$DW$869       .dwtag  DW_TAG_member
    6072                      .dwattr $C$DW$869, DW_AT_type(*$C$DW$T$32)
    6073                      .dwattr $C$DW$869, DW_AT_name("IqRef_A")
    6074                      .dwattr $C$DW$869, DW_AT_TI_symbol_name("_IqRef_A")
    6075                      .dwattr $C$DW$869, DW_AT_data_member_location[DW_OP_plus_uconst 0x16]
    6076                      .dwattr $C$DW$869, DW_AT_accessibility(DW_ACCESS_public)
    6077              $C$DW$870       .dwtag  DW_TAG_member
    6078                      .dwattr $C$DW$870, DW_AT_type(*$C$DW$T$32)
    6079                      .dwattr $C$DW$870, DW_AT_name("SpeedRef_pu")
    6080                      .dwattr $C$DW$870, DW_AT_TI_symbol_name("_SpeedRef_pu")
    6081                      .dwattr $C$DW$870, DW_AT_data_member_location[DW_OP_plus_uconst 0x18]
    6082                      .dwattr $C$DW$870, DW_AT_accessibility(DW_ACCESS_public)
    6083              $C$DW$871       .dwtag  DW_TAG_member
    6084                      .dwattr $C$DW$871, DW_AT_type(*$C$DW$T$32)
    6085                      .dwattr $C$DW$871, DW_AT_name("SpeedRef_krpm")
    6086                      .dwattr $C$DW$871, DW_AT_TI_symbol_name("_SpeedRef_krpm")
    6087                      .dwattr $C$DW$871, DW_AT_data_member_location[DW_OP_plus_uconst 0x1a]
    6088                      .dwattr $C$DW$871, DW_AT_accessibility(DW_ACCESS_public)
    6089              $C$DW$872       .dwtag  DW_TAG_member
    6090                      .dwattr $C$DW$872, DW_AT_type(*$C$DW$T$32)
    6091                      .dwattr $C$DW$872, DW_AT_name("SpeedTraj_krpm")
    6092                      .dwattr $C$DW$872, DW_AT_TI_symbol_name("_SpeedTraj_krpm")
    6093                      .dwattr $C$DW$872, DW_AT_data_member_location[DW_OP_plus_uconst 0x1c]
    6094                      .dwattr $C$DW$872, DW_AT_accessibility(DW_ACCESS_public)
    6095              $C$DW$873       .dwtag  DW_TAG_member
    6096                      .dwattr $C$DW$873, DW_AT_type(*$C$DW$T$32)
    6097                      .dwattr $C$DW$873, DW_AT_name("MaxAccel_krpmps")
TMS320C2000 Assembler PC v6.2.5 Thu Jun 22 20:41:15 2017

Tools Copyright (c) 1996-2014 Texas Instruments Incorporated
C:\Users\wmj\AppData\Local\Temp\1712410                              PAGE  118

    6098                      .dwattr $C$DW$873, DW_AT_TI_symbol_name("_MaxAccel_krpmps")
    6099                      .dwattr $C$DW$873, DW_AT_data_member_location[DW_OP_plus_uconst 0x1e]
    6100                      .dwattr $C$DW$873, DW_AT_accessibility(DW_ACCESS_public)
    6101              $C$DW$874       .dwtag  DW_TAG_member
    6102                      .dwattr $C$DW$874, DW_AT_type(*$C$DW$T$32)
    6103                      .dwattr $C$DW$874, DW_AT_name("Speed_krpm")
    6104                      .dwattr $C$DW$874, DW_AT_TI_symbol_name("_Speed_krpm")
    6105                      .dwattr $C$DW$874, DW_AT_data_member_location[DW_OP_plus_uconst 0x20]
    6106                      .dwattr $C$DW$874, DW_AT_accessibility(DW_ACCESS_public)
    6107              $C$DW$875       .dwtag  DW_TAG_member
    6108                      .dwattr $C$DW$875, DW_AT_type(*$C$DW$T$32)
    6109                      .dwattr $C$DW$875, DW_AT_name("OverModulation")
    6110                      .dwattr $C$DW$875, DW_AT_TI_symbol_name("_OverModulation")
    6111                      .dwattr $C$DW$875, DW_AT_data_member_location[DW_OP_plus_uconst 0x22]
    6112                      .dwattr $C$DW$875, DW_AT_accessibility(DW_ACCESS_public)
    6113              $C$DW$876       .dwtag  DW_TAG_member
    6114                      .dwattr $C$DW$876, DW_AT_type(*$C$DW$T$32)
    6115                      .dwattr $C$DW$876, DW_AT_name("RsOnLineCurrent_A")
    6116                      .dwattr $C$DW$876, DW_AT_TI_symbol_name("_RsOnLineCurrent_A")
    6117                      .dwattr $C$DW$876, DW_AT_data_member_location[DW_OP_plus_uconst 0x24]
    6118                      .dwattr $C$DW$876, DW_AT_accessibility(DW_ACCESS_public)
    6119              $C$DW$877       .dwtag  DW_TAG_member
    6120                      .dwattr $C$DW$877, DW_AT_type(*$C$DW$T$32)
    6121                      .dwattr $C$DW$877, DW_AT_name("SvgenMaxModulation_ticks")
    6122                      .dwattr $C$DW$877, DW_AT_TI_symbol_name("_SvgenMaxModulation_ticks")
    6123                      .dwattr $C$DW$877, DW_AT_data_member_location[DW_OP_plus_uconst 0x26]
    6124                      .dwattr $C$DW$877, DW_AT_accessibility(DW_ACCESS_public)
    6125              $C$DW$878       .dwtag  DW_TAG_member
    6126                      .dwattr $C$DW$878, DW_AT_type(*$C$DW$T$32)
    6127                      .dwattr $C$DW$878, DW_AT_name("Flux_Wb")
    6128                      .dwattr $C$DW$878, DW_AT_TI_symbol_name("_Flux_Wb")
    6129                      .dwattr $C$DW$878, DW_AT_data_member_location[DW_OP_plus_uconst 0x28]
    6130                      .dwattr $C$DW$878, DW_AT_accessibility(DW_ACCESS_public)
    6131              $C$DW$879       .dwtag  DW_TAG_member
    6132                      .dwattr $C$DW$879, DW_AT_type(*$C$DW$T$32)
    6133                      .dwattr $C$DW$879, DW_AT_name("Torque_Nm")
    6134                      .dwattr $C$DW$879, DW_AT_TI_symbol_name("_Torque_Nm")
    6135                      .dwattr $C$DW$879, DW_AT_data_member_location[DW_OP_plus_uconst 0x2a]
    6136                      .dwattr $C$DW$879, DW_AT_accessibility(DW_ACCESS_public)
    6137              $C$DW$880       .dwtag  DW_TAG_member
    6138                      .dwattr $C$DW$880, DW_AT_type(*$C$DW$T$70)
    6139                      .dwattr $C$DW$880, DW_AT_name("MagnCurr_A")
    6140                      .dwattr $C$DW$880, DW_AT_TI_symbol_name("_MagnCurr_A")
    6141                      .dwattr $C$DW$880, DW_AT_data_member_location[DW_OP_plus_uconst 0x2c]
    6142                      .dwattr $C$DW$880, DW_AT_accessibility(DW_ACCESS_public)
    6143              $C$DW$881       .dwtag  DW_TAG_member
    6144                      .dwattr $C$DW$881, DW_AT_type(*$C$DW$T$70)
    6145                      .dwattr $C$DW$881, DW_AT_name("Rr_Ohm")
    6146                      .dwattr $C$DW$881, DW_AT_TI_symbol_name("_Rr_Ohm")
    6147                      .dwattr $C$DW$881, DW_AT_data_member_location[DW_OP_plus_uconst 0x2e]
    6148                      .dwattr $C$DW$881, DW_AT_accessibility(DW_ACCESS_public)
    6149              $C$DW$882       .dwtag  DW_TAG_member
    6150                      .dwattr $C$DW$882, DW_AT_type(*$C$DW$T$70)
    6151                      .dwattr $C$DW$882, DW_AT_name("Rs_Ohm")
    6152                      .dwattr $C$DW$882, DW_AT_TI_symbol_name("_Rs_Ohm")
TMS320C2000 Assembler PC v6.2.5 Thu Jun 22 20:41:15 2017

Tools Copyright (c) 1996-2014 Texas Instruments Incorporated
C:\Users\wmj\AppData\Local\Temp\1712410                              PAGE  119

    6153                      .dwattr $C$DW$882, DW_AT_data_member_location[DW_OP_plus_uconst 0x30]
    6154                      .dwattr $C$DW$882, DW_AT_accessibility(DW_ACCESS_public)
    6155              $C$DW$883       .dwtag  DW_TAG_member
    6156                      .dwattr $C$DW$883, DW_AT_type(*$C$DW$T$70)
    6157                      .dwattr $C$DW$883, DW_AT_name("RsOnLine_Ohm")
    6158                      .dwattr $C$DW$883, DW_AT_TI_symbol_name("_RsOnLine_Ohm")
    6159                      .dwattr $C$DW$883, DW_AT_data_member_location[DW_OP_plus_uconst 0x32]
    6160                      .dwattr $C$DW$883, DW_AT_accessibility(DW_ACCESS_public)
    6161              $C$DW$884       .dwtag  DW_TAG_member
    6162                      .dwattr $C$DW$884, DW_AT_type(*$C$DW$T$70)
    6163                      .dwattr $C$DW$884, DW_AT_name("Lsd_H")
    6164                      .dwattr $C$DW$884, DW_AT_TI_symbol_name("_Lsd_H")
    6165                      .dwattr $C$DW$884, DW_AT_data_member_location[DW_OP_plus_uconst 0x34]
    6166                      .dwattr $C$DW$884, DW_AT_accessibility(DW_ACCESS_public)
    6167              $C$DW$885       .dwtag  DW_TAG_member
    6168                      .dwattr $C$DW$885, DW_AT_type(*$C$DW$T$70)
    6169                      .dwattr $C$DW$885, DW_AT_name("Lsq_H")
    6170                      .dwattr $C$DW$885, DW_AT_TI_symbol_name("_Lsq_H")
    6171                      .dwattr $C$DW$885, DW_AT_data_member_location[DW_OP_plus_uconst 0x36]
    6172                      .dwattr $C$DW$885, DW_AT_accessibility(DW_ACCESS_public)
    6173              $C$DW$886       .dwtag  DW_TAG_member
    6174                      .dwattr $C$DW$886, DW_AT_type(*$C$DW$T$70)
    6175                      .dwattr $C$DW$886, DW_AT_name("Flux_VpHz")
    6176                      .dwattr $C$DW$886, DW_AT_TI_symbol_name("_Flux_VpHz")
    6177                      .dwattr $C$DW$886, DW_AT_data_member_location[DW_OP_plus_uconst 0x38]
    6178                      .dwattr $C$DW$886, DW_AT_accessibility(DW_ACCESS_public)
    6179              $C$DW$887       .dwtag  DW_TAG_member
    6180                      .dwattr $C$DW$887, DW_AT_type(*$C$DW$T$70)
    6181                      .dwattr $C$DW$887, DW_AT_name("ipd_excFreq_Hz")
    6182                      .dwattr $C$DW$887, DW_AT_TI_symbol_name("_ipd_excFreq_Hz")
    6183                      .dwattr $C$DW$887, DW_AT_data_member_location[DW_OP_plus_uconst 0x3a]
    6184                      .dwattr $C$DW$887, DW_AT_accessibility(DW_ACCESS_public)
    6185              $C$DW$888       .dwtag  DW_TAG_member
    6186                      .dwattr $C$DW$888, DW_AT_type(*$C$DW$T$32)
    6187                      .dwattr $C$DW$888, DW_AT_name("ipd_Kspd")
    6188                      .dwattr $C$DW$888, DW_AT_TI_symbol_name("_ipd_Kspd")
    6189                      .dwattr $C$DW$888, DW_AT_data_member_location[DW_OP_plus_uconst 0x3c]
    6190                      .dwattr $C$DW$888, DW_AT_accessibility(DW_ACCESS_public)
    6191              $C$DW$889       .dwtag  DW_TAG_member
    6192                      .dwattr $C$DW$889, DW_AT_type(*$C$DW$T$32)
    6193                      .dwattr $C$DW$889, DW_AT_name("ipd_excMag_coarse_pu")
    6194                      .dwattr $C$DW$889, DW_AT_TI_symbol_name("_ipd_excMag_coarse_pu")
    6195                      .dwattr $C$DW$889, DW_AT_data_member_location[DW_OP_plus_uconst 0x3e]
    6196                      .dwattr $C$DW$889, DW_AT_accessibility(DW_ACCESS_public)
    6197              $C$DW$890       .dwtag  DW_TAG_member
    6198                      .dwattr $C$DW$890, DW_AT_type(*$C$DW$T$32)
    6199                      .dwattr $C$DW$890, DW_AT_name("ipd_excMag_fine_pu")
    6200                      .dwattr $C$DW$890, DW_AT_TI_symbol_name("_ipd_excMag_fine_pu")
    6201                      .dwattr $C$DW$890, DW_AT_data_member_location[DW_OP_plus_uconst 0x40]
    6202                      .dwattr $C$DW$890, DW_AT_accessibility(DW_ACCESS_public)
    6203              $C$DW$891       .dwtag  DW_TAG_member
    6204                      .dwattr $C$DW$891, DW_AT_type(*$C$DW$T$16)
    6205                      .dwattr $C$DW$891, DW_AT_name("ipd_waitTime_coarse_sec")
    6206                      .dwattr $C$DW$891, DW_AT_TI_symbol_name("_ipd_waitTime_coarse_sec")
    6207                      .dwattr $C$DW$891, DW_AT_data_member_location[DW_OP_plus_uconst 0x42]
TMS320C2000 Assembler PC v6.2.5 Thu Jun 22 20:41:15 2017

Tools Copyright (c) 1996-2014 Texas Instruments Incorporated
C:\Users\wmj\AppData\Local\Temp\1712410                              PAGE  120

    6208                      .dwattr $C$DW$891, DW_AT_accessibility(DW_ACCESS_public)
    6209              $C$DW$892       .dwtag  DW_TAG_member
    6210                      .dwattr $C$DW$892, DW_AT_type(*$C$DW$T$16)
    6211                      .dwattr $C$DW$892, DW_AT_name("ipd_waitTime_fine_sec")
    6212                      .dwattr $C$DW$892, DW_AT_TI_symbol_name("_ipd_waitTime_fine_sec")
    6213                      .dwattr $C$DW$892, DW_AT_data_member_location[DW_OP_plus_uconst 0x44]
    6214                      .dwattr $C$DW$892, DW_AT_accessibility(DW_ACCESS_public)
    6215              $C$DW$893       .dwtag  DW_TAG_member
    6216                      .dwattr $C$DW$893, DW_AT_type(*$C$DW$T$32)
    6217                      .dwattr $C$DW$893, DW_AT_name("Kp_spd")
    6218                      .dwattr $C$DW$893, DW_AT_TI_symbol_name("_Kp_spd")
    6219                      .dwattr $C$DW$893, DW_AT_data_member_location[DW_OP_plus_uconst 0x46]
    6220                      .dwattr $C$DW$893, DW_AT_accessibility(DW_ACCESS_public)
    6221              $C$DW$894       .dwtag  DW_TAG_member
    6222                      .dwattr $C$DW$894, DW_AT_type(*$C$DW$T$32)
    6223                      .dwattr $C$DW$894, DW_AT_name("Ki_spd")
    6224                      .dwattr $C$DW$894, DW_AT_TI_symbol_name("_Ki_spd")
    6225                      .dwattr $C$DW$894, DW_AT_data_member_location[DW_OP_plus_uconst 0x48]
    6226                      .dwattr $C$DW$894, DW_AT_accessibility(DW_ACCESS_public)
    6227              $C$DW$895       .dwtag  DW_TAG_member
    6228                      .dwattr $C$DW$895, DW_AT_type(*$C$DW$T$32)
    6229                      .dwattr $C$DW$895, DW_AT_name("Kp_Idq")
    6230                      .dwattr $C$DW$895, DW_AT_TI_symbol_name("_Kp_Idq")
    6231                      .dwattr $C$DW$895, DW_AT_data_member_location[DW_OP_plus_uconst 0x4a]
    6232                      .dwattr $C$DW$895, DW_AT_accessibility(DW_ACCESS_public)
    6233              $C$DW$896       .dwtag  DW_TAG_member
    6234                      .dwattr $C$DW$896, DW_AT_type(*$C$DW$T$32)
    6235                      .dwattr $C$DW$896, DW_AT_name("Ki_Idq")
    6236                      .dwattr $C$DW$896, DW_AT_TI_symbol_name("_Ki_Idq")
    6237                      .dwattr $C$DW$896, DW_AT_data_member_location[DW_OP_plus_uconst 0x4c]
    6238                      .dwattr $C$DW$896, DW_AT_accessibility(DW_ACCESS_public)
    6239              $C$DW$897       .dwtag  DW_TAG_member
    6240                      .dwattr $C$DW$897, DW_AT_type(*$C$DW$T$32)
    6241                      .dwattr $C$DW$897, DW_AT_name("Vd")
    6242                      .dwattr $C$DW$897, DW_AT_TI_symbol_name("_Vd")
    6243                      .dwattr $C$DW$897, DW_AT_data_member_location[DW_OP_plus_uconst 0x4e]
    6244                      .dwattr $C$DW$897, DW_AT_accessibility(DW_ACCESS_public)
    6245              $C$DW$898       .dwtag  DW_TAG_member
    6246                      .dwattr $C$DW$898, DW_AT_type(*$C$DW$T$32)
    6247                      .dwattr $C$DW$898, DW_AT_name("Vq")
    6248                      .dwattr $C$DW$898, DW_AT_TI_symbol_name("_Vq")
    6249                      .dwattr $C$DW$898, DW_AT_data_member_location[DW_OP_plus_uconst 0x50]
    6250                      .dwattr $C$DW$898, DW_AT_accessibility(DW_ACCESS_public)
    6251              $C$DW$899       .dwtag  DW_TAG_member
    6252                      .dwattr $C$DW$899, DW_AT_type(*$C$DW$T$32)
    6253                      .dwattr $C$DW$899, DW_AT_name("Vs")
    6254                      .dwattr $C$DW$899, DW_AT_TI_symbol_name("_Vs")
    6255                      .dwattr $C$DW$899, DW_AT_data_member_location[DW_OP_plus_uconst 0x52]
    6256                      .dwattr $C$DW$899, DW_AT_accessibility(DW_ACCESS_public)
    6257              $C$DW$900       .dwtag  DW_TAG_member
    6258                      .dwattr $C$DW$900, DW_AT_type(*$C$DW$T$32)
    6259                      .dwattr $C$DW$900, DW_AT_name("VsRef")
    6260                      .dwattr $C$DW$900, DW_AT_TI_symbol_name("_VsRef")
    6261                      .dwattr $C$DW$900, DW_AT_data_member_location[DW_OP_plus_uconst 0x54]
    6262                      .dwattr $C$DW$900, DW_AT_accessibility(DW_ACCESS_public)
TMS320C2000 Assembler PC v6.2.5 Thu Jun 22 20:41:15 2017

Tools Copyright (c) 1996-2014 Texas Instruments Incorporated
C:\Users\wmj\AppData\Local\Temp\1712410                              PAGE  121

    6263              $C$DW$901       .dwtag  DW_TAG_member
    6264                      .dwattr $C$DW$901, DW_AT_type(*$C$DW$T$32)
    6265                      .dwattr $C$DW$901, DW_AT_name("VdcBus_kV")
    6266                      .dwattr $C$DW$901, DW_AT_TI_symbol_name("_VdcBus_kV")
    6267                      .dwattr $C$DW$901, DW_AT_data_member_location[DW_OP_plus_uconst 0x56]
    6268                      .dwattr $C$DW$901, DW_AT_accessibility(DW_ACCESS_public)
    6269              $C$DW$902       .dwtag  DW_TAG_member
    6270                      .dwattr $C$DW$902, DW_AT_type(*$C$DW$T$32)
    6271                      .dwattr $C$DW$902, DW_AT_name("Id_A")
    6272                      .dwattr $C$DW$902, DW_AT_TI_symbol_name("_Id_A")
    6273                      .dwattr $C$DW$902, DW_AT_data_member_location[DW_OP_plus_uconst 0x58]
    6274                      .dwattr $C$DW$902, DW_AT_accessibility(DW_ACCESS_public)
    6275              $C$DW$903       .dwtag  DW_TAG_member
    6276                      .dwattr $C$DW$903, DW_AT_type(*$C$DW$T$32)
    6277                      .dwattr $C$DW$903, DW_AT_name("Iq_A")
    6278                      .dwattr $C$DW$903, DW_AT_TI_symbol_name("_Iq_A")
    6279                      .dwattr $C$DW$903, DW_AT_data_member_location[DW_OP_plus_uconst 0x5a]
    6280                      .dwattr $C$DW$903, DW_AT_accessibility(DW_ACCESS_public)
    6281              $C$DW$904       .dwtag  DW_TAG_member
    6282                      .dwattr $C$DW$904, DW_AT_type(*$C$DW$T$32)
    6283                      .dwattr $C$DW$904, DW_AT_name("Is_A")
    6284                      .dwattr $C$DW$904, DW_AT_TI_symbol_name("_Is_A")
    6285                      .dwattr $C$DW$904, DW_AT_data_member_location[DW_OP_plus_uconst 0x5c]
    6286                      .dwattr $C$DW$904, DW_AT_accessibility(DW_ACCESS_public)
    6287              $C$DW$905       .dwtag  DW_TAG_member
    6288                      .dwattr $C$DW$905, DW_AT_type(*$C$DW$T$83)
    6289                      .dwattr $C$DW$905, DW_AT_name("I_bias")
    6290                      .dwattr $C$DW$905, DW_AT_TI_symbol_name("_I_bias")
    6291                      .dwattr $C$DW$905, DW_AT_data_member_location[DW_OP_plus_uconst 0x5e]
    6292                      .dwattr $C$DW$905, DW_AT_accessibility(DW_ACCESS_public)
    6293              $C$DW$906       .dwtag  DW_TAG_member
    6294                      .dwattr $C$DW$906, DW_AT_type(*$C$DW$T$83)
    6295                      .dwattr $C$DW$906, DW_AT_name("V_bias")
    6296                      .dwattr $C$DW$906, DW_AT_TI_symbol_name("_V_bias")
    6297                      .dwattr $C$DW$906, DW_AT_data_member_location[DW_OP_plus_uconst 0x64]
    6298                      .dwattr $C$DW$906, DW_AT_accessibility(DW_ACCESS_public)
    6299              $C$DW$907       .dwtag  DW_TAG_member
    6300                      .dwattr $C$DW$907, DW_AT_type(*$C$DW$T$32)
    6301                      .dwattr $C$DW$907, DW_AT_name("SpeedSet_krpm")
    6302                      .dwattr $C$DW$907, DW_AT_TI_symbol_name("_SpeedSet_krpm")
    6303                      .dwattr $C$DW$907, DW_AT_data_member_location[DW_OP_plus_uconst 0x6a]
    6304                      .dwattr $C$DW$907, DW_AT_accessibility(DW_ACCESS_public)
    6305              $C$DW$908       .dwtag  DW_TAG_member
    6306                      .dwattr $C$DW$908, DW_AT_type(*$C$DW$T$32)
    6307                      .dwattr $C$DW$908, DW_AT_name("angle_sen_pu")
    6308                      .dwattr $C$DW$908, DW_AT_TI_symbol_name("_angle_sen_pu")
    6309                      .dwattr $C$DW$908, DW_AT_data_member_location[DW_OP_plus_uconst 0x6c]
    6310                      .dwattr $C$DW$908, DW_AT_accessibility(DW_ACCESS_public)
    6311              $C$DW$909       .dwtag  DW_TAG_member
    6312                      .dwattr $C$DW$909, DW_AT_type(*$C$DW$T$32)
    6313                      .dwattr $C$DW$909, DW_AT_name("angle_est_pu")
    6314                      .dwattr $C$DW$909, DW_AT_TI_symbol_name("_angle_est_pu")
    6315                      .dwattr $C$DW$909, DW_AT_data_member_location[DW_OP_plus_uconst 0x6e]
    6316                      .dwattr $C$DW$909, DW_AT_accessibility(DW_ACCESS_public)
    6317              $C$DW$910       .dwtag  DW_TAG_member
TMS320C2000 Assembler PC v6.2.5 Thu Jun 22 20:41:15 2017

Tools Copyright (c) 1996-2014 Texas Instruments Incorporated
C:\Users\wmj\AppData\Local\Temp\1712410                              PAGE  122

    6318                      .dwattr $C$DW$910, DW_AT_type(*$C$DW$T$32)
    6319                      .dwattr $C$DW$910, DW_AT_name("speed_sen_pu")
    6320                      .dwattr $C$DW$910, DW_AT_TI_symbol_name("_speed_sen_pu")
    6321                      .dwattr $C$DW$910, DW_AT_data_member_location[DW_OP_plus_uconst 0x70]
    6322                      .dwattr $C$DW$910, DW_AT_accessibility(DW_ACCESS_public)
    6323              $C$DW$911       .dwtag  DW_TAG_member
    6324                      .dwattr $C$DW$911, DW_AT_type(*$C$DW$T$32)
    6325                      .dwattr $C$DW$911, DW_AT_name("speed_est_pu")
    6326                      .dwattr $C$DW$911, DW_AT_TI_symbol_name("_speed_est_pu")
    6327                      .dwattr $C$DW$911, DW_AT_data_member_location[DW_OP_plus_uconst 0x72]
    6328                      .dwattr $C$DW$911, DW_AT_accessibility(DW_ACCESS_public)
    6329              $C$DW$912       .dwtag  DW_TAG_member
    6330                      .dwattr $C$DW$912, DW_AT_type(*$C$DW$T$32)
    6331                      .dwattr $C$DW$912, DW_AT_name("speedHigh_hall2fast_pu")
    6332                      .dwattr $C$DW$912, DW_AT_TI_symbol_name("_speedHigh_hall2fast_pu")
    6333                      .dwattr $C$DW$912, DW_AT_data_member_location[DW_OP_plus_uconst 0x74]
    6334                      .dwattr $C$DW$912, DW_AT_accessibility(DW_ACCESS_public)
    6335              $C$DW$913       .dwtag  DW_TAG_member
    6336                      .dwattr $C$DW$913, DW_AT_type(*$C$DW$T$32)
    6337                      .dwattr $C$DW$913, DW_AT_name("speedLow_hall2fast_pu")
    6338                      .dwattr $C$DW$913, DW_AT_TI_symbol_name("_speedLow_hall2fast_pu")
    6339                      .dwattr $C$DW$913, DW_AT_data_member_location[DW_OP_plus_uconst 0x76]
    6340                      .dwattr $C$DW$913, DW_AT_accessibility(DW_ACCESS_public)
    6341              $C$DW$914       .dwtag  DW_TAG_member
    6342                      .dwattr $C$DW$914, DW_AT_type(*$C$DW$T$32)
    6343                      .dwattr $C$DW$914, DW_AT_name("IdSet_A")
    6344                      .dwattr $C$DW$914, DW_AT_TI_symbol_name("_IdSet_A")
    6345                      .dwattr $C$DW$914, DW_AT_data_member_location[DW_OP_plus_uconst 0x78]
    6346                      .dwattr $C$DW$914, DW_AT_accessibility(DW_ACCESS_public)
    6347              $C$DW$915       .dwtag  DW_TAG_member
    6348                      .dwattr $C$DW$915, DW_AT_type(*$C$DW$T$32)
    6349                      .dwattr $C$DW$915, DW_AT_name("IqSet_A")
    6350                      .dwattr $C$DW$915, DW_AT_TI_symbol_name("_IqSet_A")
    6351                      .dwattr $C$DW$915, DW_AT_data_member_location[DW_OP_plus_uconst 0x7a]
    6352                      .dwattr $C$DW$915, DW_AT_accessibility(DW_ACCESS_public)
    6353              $C$DW$916       .dwtag  DW_TAG_member
    6354                      .dwattr $C$DW$916, DW_AT_type(*$C$DW$T$32)
    6355                      .dwattr $C$DW$916, DW_AT_name("IdRef_pu")
    6356                      .dwattr $C$DW$916, DW_AT_TI_symbol_name("_IdRef_pu")
    6357                      .dwattr $C$DW$916, DW_AT_data_member_location[DW_OP_plus_uconst 0x7c]
    6358                      .dwattr $C$DW$916, DW_AT_accessibility(DW_ACCESS_public)
    6359              $C$DW$917       .dwtag  DW_TAG_member
    6360                      .dwattr $C$DW$917, DW_AT_type(*$C$DW$T$32)
    6361                      .dwattr $C$DW$917, DW_AT_name("IqRef_pu")
    6362                      .dwattr $C$DW$917, DW_AT_TI_symbol_name("_IqRef_pu")
    6363                      .dwattr $C$DW$917, DW_AT_data_member_location[DW_OP_plus_uconst 0x7e]
    6364                      .dwattr $C$DW$917, DW_AT_accessibility(DW_ACCESS_public)
    6365                      .dwendtag $C$DW$T$133
    6366              
    6367              $C$DW$T$236     .dwtag  DW_TAG_typedef, DW_AT_name("MOTOR_Vars_t")
    6368                      .dwattr $C$DW$T$236, DW_AT_type(*$C$DW$T$133)
    6369                      .dwattr $C$DW$T$236, DW_AT_language(DW_LANG_C)
    6370              $C$DW$918       .dwtag  DW_TAG_TI_far_type
    6371                      .dwattr $C$DW$918, DW_AT_type(*$C$DW$T$236)
    6372              $C$DW$T$237     .dwtag  DW_TAG_volatile_type
TMS320C2000 Assembler PC v6.2.5 Thu Jun 22 20:41:15 2017

Tools Copyright (c) 1996-2014 Texas Instruments Incorporated
C:\Users\wmj\AppData\Local\Temp\1712410                              PAGE  123

    6373                      .dwattr $C$DW$T$237, DW_AT_type(*$C$DW$918)
    6374              
    6375              $C$DW$T$137     .dwtag  DW_TAG_structure_type
    6376                      .dwattr $C$DW$T$137, DW_AT_name("_OFFSET_")
    6377                      .dwattr $C$DW$T$137, DW_AT_byte_size(0x10)
    6378              $C$DW$919       .dwtag  DW_TAG_member
    6379                      .dwattr $C$DW$919, DW_AT_type(*$C$DW$T$32)
    6380                      .dwattr $C$DW$919, DW_AT_name("value")
    6381                      .dwattr $C$DW$919, DW_AT_TI_symbol_name("_value")
    6382                      .dwattr $C$DW$919, DW_AT_data_member_location[DW_OP_plus_uconst 0x0]
    6383                      .dwattr $C$DW$919, DW_AT_accessibility(DW_ACCESS_public)
    6384              $C$DW$920       .dwtag  DW_TAG_member
    6385                      .dwattr $C$DW$920, DW_AT_type(*$C$DW$T$32)
    6386                      .dwattr $C$DW$920, DW_AT_name("bias")
    6387                      .dwattr $C$DW$920, DW_AT_TI_symbol_name("_bias")
    6388                      .dwattr $C$DW$920, DW_AT_data_member_location[DW_OP_plus_uconst 0x2]
    6389                      .dwattr $C$DW$920, DW_AT_accessibility(DW_ACCESS_public)
    6390              $C$DW$921       .dwtag  DW_TAG_member
    6391                      .dwattr $C$DW$921, DW_AT_type(*$C$DW$T$134)
    6392                      .dwattr $C$DW$921, DW_AT_name("filter")
    6393                      .dwattr $C$DW$921, DW_AT_TI_symbol_name("_filter")
    6394                      .dwattr $C$DW$921, DW_AT_data_member_location[DW_OP_plus_uconst 0x4]
    6395                      .dwattr $C$DW$921, DW_AT_accessibility(DW_ACCESS_public)
    6396              $C$DW$922       .dwtag  DW_TAG_member
    6397                      .dwattr $C$DW$922, DW_AT_type(*$C$DW$T$136)
    6398                      .dwattr $C$DW$922, DW_AT_name("filterHandle")
    6399                      .dwattr $C$DW$922, DW_AT_TI_symbol_name("_filterHandle")
    6400                      .dwattr $C$DW$922, DW_AT_data_member_location[DW_OP_plus_uconst 0xe]
    6401                      .dwattr $C$DW$922, DW_AT_accessibility(DW_ACCESS_public)
    6402                      .dwendtag $C$DW$T$137
    6403              
    6404              $C$DW$T$98      .dwtag  DW_TAG_typedef, DW_AT_name("OFFSET_Obj")
    6405                      .dwattr $C$DW$T$98, DW_AT_type(*$C$DW$T$137)
    6406                      .dwattr $C$DW$T$98, DW_AT_language(DW_LANG_C)
    6407              
    6408              $C$DW$T$99      .dwtag  DW_TAG_array_type
    6409                      .dwattr $C$DW$T$99, DW_AT_type(*$C$DW$T$98)
    6410                      .dwattr $C$DW$T$99, DW_AT_language(DW_LANG_C)
    6411                      .dwattr $C$DW$T$99, DW_AT_byte_size(0x30)
    6412              $C$DW$923       .dwtag  DW_TAG_subrange_type
    6413                      .dwattr $C$DW$923, DW_AT_upper_bound(0x02)
    6414                      .dwendtag $C$DW$T$99
    6415              
    6416              
    6417              $C$DW$T$22      .dwtag  DW_TAG_structure_type
    6418                      .dwattr $C$DW$T$22, DW_AT_name("_OFFSET_Obj_")
    6419                      .dwattr $C$DW$T$22, DW_AT_declaration
    6420                      .dwendtag $C$DW$T$22
    6421              
    6422              $C$DW$T$95      .dwtag  DW_TAG_pointer_type
    6423                      .dwattr $C$DW$T$95, DW_AT_type(*$C$DW$T$22)
    6424                      .dwattr $C$DW$T$95, DW_AT_address_class(0x16)
    6425              $C$DW$T$96      .dwtag  DW_TAG_typedef, DW_AT_name("OFFSET_Handle")
    6426                      .dwattr $C$DW$T$96, DW_AT_type(*$C$DW$T$95)
    6427                      .dwattr $C$DW$T$96, DW_AT_language(DW_LANG_C)
TMS320C2000 Assembler PC v6.2.5 Thu Jun 22 20:41:15 2017

Tools Copyright (c) 1996-2014 Texas Instruments Incorporated
C:\Users\wmj\AppData\Local\Temp\1712410                              PAGE  124

    6428              
    6429              $C$DW$T$97      .dwtag  DW_TAG_array_type
    6430                      .dwattr $C$DW$T$97, DW_AT_type(*$C$DW$T$96)
    6431                      .dwattr $C$DW$T$97, DW_AT_language(DW_LANG_C)
    6432                      .dwattr $C$DW$T$97, DW_AT_byte_size(0x06)
    6433              $C$DW$924       .dwtag  DW_TAG_subrange_type
    6434                      .dwattr $C$DW$924, DW_AT_upper_bound(0x02)
    6435                      .dwendtag $C$DW$T$97
    6436              
    6437              
    6438              $C$DW$T$138     .dwtag  DW_TAG_structure_type
    6439                      .dwattr $C$DW$T$138, DW_AT_name("_OSC_Obj_")
    6440                      .dwattr $C$DW$T$138, DW_AT_byte_size(0x03)
    6441              $C$DW$925       .dwtag  DW_TAG_member
    6442                      .dwattr $C$DW$925, DW_AT_type(*$C$DW$T$24)
    6443                      .dwattr $C$DW$925, DW_AT_name("INTOSC1TRIM")
    6444                      .dwattr $C$DW$925, DW_AT_TI_symbol_name("_INTOSC1TRIM")
    6445                      .dwattr $C$DW$925, DW_AT_data_member_location[DW_OP_plus_uconst 0x0]
    6446                      .dwattr $C$DW$925, DW_AT_accessibility(DW_ACCESS_public)
    6447              $C$DW$926       .dwtag  DW_TAG_member
    6448                      .dwattr $C$DW$926, DW_AT_type(*$C$DW$T$24)
    6449                      .dwattr $C$DW$926, DW_AT_name("rsvd_1")
    6450                      .dwattr $C$DW$926, DW_AT_TI_symbol_name("_rsvd_1")
    6451                      .dwattr $C$DW$926, DW_AT_data_member_location[DW_OP_plus_uconst 0x1]
    6452                      .dwattr $C$DW$926, DW_AT_accessibility(DW_ACCESS_public)
    6453              $C$DW$927       .dwtag  DW_TAG_member
    6454                      .dwattr $C$DW$927, DW_AT_type(*$C$DW$T$24)
    6455                      .dwattr $C$DW$927, DW_AT_name("INTOSC2TRIM")
    6456                      .dwattr $C$DW$927, DW_AT_TI_symbol_name("_INTOSC2TRIM")
    6457                      .dwattr $C$DW$927, DW_AT_data_member_location[DW_OP_plus_uconst 0x2]
    6458                      .dwattr $C$DW$927, DW_AT_accessibility(DW_ACCESS_public)
    6459                      .dwendtag $C$DW$T$138
    6460              
    6461              $C$DW$T$100     .dwtag  DW_TAG_pointer_type
    6462                      .dwattr $C$DW$T$100, DW_AT_type(*$C$DW$T$138)
    6463                      .dwattr $C$DW$T$100, DW_AT_address_class(0x16)
    6464              $C$DW$T$101     .dwtag  DW_TAG_typedef, DW_AT_name("OSC_Handle")
    6465                      .dwattr $C$DW$T$101, DW_AT_type(*$C$DW$T$100)
    6466                      .dwattr $C$DW$T$101, DW_AT_language(DW_LANG_C)
    6467              
    6468              $C$DW$T$139     .dwtag  DW_TAG_structure_type
    6469                      .dwattr $C$DW$T$139, DW_AT_name("_PARK_Obj_")
    6470                      .dwattr $C$DW$T$139, DW_AT_byte_size(0x04)
    6471              $C$DW$928       .dwtag  DW_TAG_member
    6472                      .dwattr $C$DW$928, DW_AT_type(*$C$DW$T$32)
    6473                      .dwattr $C$DW$928, DW_AT_name("sinTh")
    6474                      .dwattr $C$DW$928, DW_AT_TI_symbol_name("_sinTh")
    6475                      .dwattr $C$DW$928, DW_AT_data_member_location[DW_OP_plus_uconst 0x0]
    6476                      .dwattr $C$DW$928, DW_AT_accessibility(DW_ACCESS_public)
    6477              $C$DW$929       .dwtag  DW_TAG_member
    6478                      .dwattr $C$DW$929, DW_AT_type(*$C$DW$T$32)
    6479                      .dwattr $C$DW$929, DW_AT_name("cosTh")
    6480                      .dwattr $C$DW$929, DW_AT_TI_symbol_name("_cosTh")
    6481                      .dwattr $C$DW$929, DW_AT_data_member_location[DW_OP_plus_uconst 0x2]
    6482                      .dwattr $C$DW$929, DW_AT_accessibility(DW_ACCESS_public)
TMS320C2000 Assembler PC v6.2.5 Thu Jun 22 20:41:15 2017

Tools Copyright (c) 1996-2014 Texas Instruments Incorporated
C:\Users\wmj\AppData\Local\Temp\1712410                              PAGE  125

    6483                      .dwendtag $C$DW$T$139
    6484              
    6485              $C$DW$T$53      .dwtag  DW_TAG_typedef, DW_AT_name("PARK_Obj")
    6486                      .dwattr $C$DW$T$53, DW_AT_type(*$C$DW$T$139)
    6487                      .dwattr $C$DW$T$53, DW_AT_language(DW_LANG_C)
    6488              $C$DW$T$51      .dwtag  DW_TAG_pointer_type
    6489                      .dwattr $C$DW$T$51, DW_AT_type(*$C$DW$T$139)
    6490                      .dwattr $C$DW$T$51, DW_AT_address_class(0x16)
    6491              $C$DW$T$52      .dwtag  DW_TAG_typedef, DW_AT_name("PARK_Handle")
    6492                      .dwattr $C$DW$T$52, DW_AT_type(*$C$DW$T$51)
    6493                      .dwattr $C$DW$T$52, DW_AT_language(DW_LANG_C)
    6494              
    6495              $C$DW$T$140     .dwtag  DW_TAG_structure_type
    6496                      .dwattr $C$DW$T$140, DW_AT_name("_PID_Obj_")
    6497                      .dwattr $C$DW$T$140, DW_AT_byte_size(0x10)
    6498              $C$DW$930       .dwtag  DW_TAG_member
    6499                      .dwattr $C$DW$930, DW_AT_type(*$C$DW$T$32)
    6500                      .dwattr $C$DW$930, DW_AT_name("Kp")
    6501                      .dwattr $C$DW$930, DW_AT_TI_symbol_name("_Kp")
    6502                      .dwattr $C$DW$930, DW_AT_data_member_location[DW_OP_plus_uconst 0x0]
    6503                      .dwattr $C$DW$930, DW_AT_accessibility(DW_ACCESS_public)
    6504              $C$DW$931       .dwtag  DW_TAG_member
    6505                      .dwattr $C$DW$931, DW_AT_type(*$C$DW$T$32)
    6506                      .dwattr $C$DW$931, DW_AT_name("Ki")
    6507                      .dwattr $C$DW$931, DW_AT_TI_symbol_name("_Ki")
    6508                      .dwattr $C$DW$931, DW_AT_data_member_location[DW_OP_plus_uconst 0x2]
    6509                      .dwattr $C$DW$931, DW_AT_accessibility(DW_ACCESS_public)
    6510              $C$DW$932       .dwtag  DW_TAG_member
    6511                      .dwattr $C$DW$932, DW_AT_type(*$C$DW$T$32)
    6512                      .dwattr $C$DW$932, DW_AT_name("Kd")
    6513                      .dwattr $C$DW$932, DW_AT_TI_symbol_name("_Kd")
    6514                      .dwattr $C$DW$932, DW_AT_data_member_location[DW_OP_plus_uconst 0x4]
    6515                      .dwattr $C$DW$932, DW_AT_accessibility(DW_ACCESS_public)
    6516              $C$DW$933       .dwtag  DW_TAG_member
    6517                      .dwattr $C$DW$933, DW_AT_type(*$C$DW$T$32)
    6518                      .dwattr $C$DW$933, DW_AT_name("Ui")
    6519                      .dwattr $C$DW$933, DW_AT_TI_symbol_name("_Ui")
    6520                      .dwattr $C$DW$933, DW_AT_data_member_location[DW_OP_plus_uconst 0x6]
    6521                      .dwattr $C$DW$933, DW_AT_accessibility(DW_ACCESS_public)
    6522              $C$DW$934       .dwtag  DW_TAG_member
    6523                      .dwattr $C$DW$934, DW_AT_type(*$C$DW$T$32)
    6524                      .dwattr $C$DW$934, DW_AT_name("refValue")
    6525                      .dwattr $C$DW$934, DW_AT_TI_symbol_name("_refValue")
    6526                      .dwattr $C$DW$934, DW_AT_data_member_location[DW_OP_plus_uconst 0x8]
    6527                      .dwattr $C$DW$934, DW_AT_accessibility(DW_ACCESS_public)
    6528              $C$DW$935       .dwtag  DW_TAG_member
    6529                      .dwattr $C$DW$935, DW_AT_type(*$C$DW$T$32)
    6530                      .dwattr $C$DW$935, DW_AT_name("fbackValue")
    6531                      .dwattr $C$DW$935, DW_AT_TI_symbol_name("_fbackValue")
    6532                      .dwattr $C$DW$935, DW_AT_data_member_location[DW_OP_plus_uconst 0xa]
    6533                      .dwattr $C$DW$935, DW_AT_accessibility(DW_ACCESS_public)
    6534              $C$DW$936       .dwtag  DW_TAG_member
    6535                      .dwattr $C$DW$936, DW_AT_type(*$C$DW$T$32)
    6536                      .dwattr $C$DW$936, DW_AT_name("outMin")
    6537                      .dwattr $C$DW$936, DW_AT_TI_symbol_name("_outMin")
TMS320C2000 Assembler PC v6.2.5 Thu Jun 22 20:41:15 2017

Tools Copyright (c) 1996-2014 Texas Instruments Incorporated
C:\Users\wmj\AppData\Local\Temp\1712410                              PAGE  126

    6538                      .dwattr $C$DW$936, DW_AT_data_member_location[DW_OP_plus_uconst 0xc]
    6539                      .dwattr $C$DW$936, DW_AT_accessibility(DW_ACCESS_public)
    6540              $C$DW$937       .dwtag  DW_TAG_member
    6541                      .dwattr $C$DW$937, DW_AT_type(*$C$DW$T$32)
    6542                      .dwattr $C$DW$937, DW_AT_name("outMax")
    6543                      .dwattr $C$DW$937, DW_AT_TI_symbol_name("_outMax")
    6544                      .dwattr $C$DW$937, DW_AT_data_member_location[DW_OP_plus_uconst 0xe]
    6545                      .dwattr $C$DW$937, DW_AT_accessibility(DW_ACCESS_public)
    6546                      .dwendtag $C$DW$T$140
    6547              
    6548              $C$DW$T$56      .dwtag  DW_TAG_typedef, DW_AT_name("PID_Obj")
    6549                      .dwattr $C$DW$T$56, DW_AT_type(*$C$DW$T$140)
    6550                      .dwattr $C$DW$T$56, DW_AT_language(DW_LANG_C)
    6551              $C$DW$T$54      .dwtag  DW_TAG_pointer_type
    6552                      .dwattr $C$DW$T$54, DW_AT_type(*$C$DW$T$140)
    6553                      .dwattr $C$DW$T$54, DW_AT_address_class(0x16)
    6554              $C$DW$T$55      .dwtag  DW_TAG_typedef, DW_AT_name("PID_Handle")
    6555                      .dwattr $C$DW$T$55, DW_AT_type(*$C$DW$T$54)
    6556                      .dwattr $C$DW$T$55, DW_AT_language(DW_LANG_C)
    6557              
    6558              $C$DW$T$141     .dwtag  DW_TAG_structure_type
    6559                      .dwattr $C$DW$T$141, DW_AT_name("_PIE_IERIFR_t")
    6560                      .dwattr $C$DW$T$141, DW_AT_byte_size(0x02)
    6561              $C$DW$938       .dwtag  DW_TAG_member
    6562                      .dwattr $C$DW$938, DW_AT_type(*$C$DW$T$24)
    6563                      .dwattr $C$DW$938, DW_AT_name("IER")
    6564                      .dwattr $C$DW$938, DW_AT_TI_symbol_name("_IER")
    6565                      .dwattr $C$DW$938, DW_AT_data_member_location[DW_OP_plus_uconst 0x0]
    6566                      .dwattr $C$DW$938, DW_AT_accessibility(DW_ACCESS_public)
    6567              $C$DW$939       .dwtag  DW_TAG_member
    6568                      .dwattr $C$DW$939, DW_AT_type(*$C$DW$T$24)
    6569                      .dwattr $C$DW$939, DW_AT_name("IFR")
    6570                      .dwattr $C$DW$939, DW_AT_TI_symbol_name("_IFR")
    6571                      .dwattr $C$DW$939, DW_AT_data_member_location[DW_OP_plus_uconst 0x1]
    6572                      .dwattr $C$DW$939, DW_AT_accessibility(DW_ACCESS_public)
    6573                      .dwendtag $C$DW$T$141
    6574              
    6575              $C$DW$T$142     .dwtag  DW_TAG_typedef, DW_AT_name("PIE_IERIFR_t")
    6576                      .dwattr $C$DW$T$142, DW_AT_type(*$C$DW$T$141)
    6577                      .dwattr $C$DW$T$142, DW_AT_language(DW_LANG_C)
    6578              $C$DW$940       .dwtag  DW_TAG_TI_far_type
    6579                      .dwattr $C$DW$940, DW_AT_type(*$C$DW$T$142)
    6580              $C$DW$T$143     .dwtag  DW_TAG_volatile_type
    6581                      .dwattr $C$DW$T$143, DW_AT_type(*$C$DW$940)
    6582              
    6583              $C$DW$T$144     .dwtag  DW_TAG_array_type
    6584                      .dwattr $C$DW$T$144, DW_AT_type(*$C$DW$T$143)
    6585                      .dwattr $C$DW$T$144, DW_AT_language(DW_LANG_C)
    6586                      .dwattr $C$DW$T$144, DW_AT_byte_size(0x18)
    6587              $C$DW$941       .dwtag  DW_TAG_subrange_type
    6588                      .dwattr $C$DW$941, DW_AT_upper_bound(0x0b)
    6589                      .dwendtag $C$DW$T$144
    6590              
    6591              
    6592              $C$DW$T$151     .dwtag  DW_TAG_structure_type
TMS320C2000 Assembler PC v6.2.5 Thu Jun 22 20:41:15 2017

Tools Copyright (c) 1996-2014 Texas Instruments Incorporated
C:\Users\wmj\AppData\Local\Temp\1712410                              PAGE  127

    6593                      .dwattr $C$DW$T$151, DW_AT_name("_PIE_Obj_")
    6594                      .dwattr $C$DW$T$151, DW_AT_byte_size(0x639c)
    6595              $C$DW$942       .dwtag  DW_TAG_member
    6596                      .dwattr $C$DW$942, DW_AT_type(*$C$DW$T$24)
    6597                      .dwattr $C$DW$942, DW_AT_name("PIECTRL")
    6598                      .dwattr $C$DW$942, DW_AT_TI_symbol_name("_PIECTRL")
    6599                      .dwattr $C$DW$942, DW_AT_data_member_location[DW_OP_plus_uconst 0x0]
    6600                      .dwattr $C$DW$942, DW_AT_accessibility(DW_ACCESS_public)
    6601              $C$DW$943       .dwtag  DW_TAG_member
    6602                      .dwattr $C$DW$943, DW_AT_type(*$C$DW$T$24)
    6603                      .dwattr $C$DW$943, DW_AT_name("PIEACK")
    6604                      .dwattr $C$DW$943, DW_AT_TI_symbol_name("_PIEACK")
    6605                      .dwattr $C$DW$943, DW_AT_data_member_location[DW_OP_plus_uconst 0x1]
    6606                      .dwattr $C$DW$943, DW_AT_accessibility(DW_ACCESS_public)
    6607              $C$DW$944       .dwtag  DW_TAG_member
    6608                      .dwattr $C$DW$944, DW_AT_type(*$C$DW$T$144)
    6609                      .dwattr $C$DW$944, DW_AT_name("PIEIER_PIEIFR")
    6610                      .dwattr $C$DW$944, DW_AT_TI_symbol_name("_PIEIER_PIEIFR")
    6611                      .dwattr $C$DW$944, DW_AT_data_member_location[DW_OP_plus_uconst 0x2]
    6612                      .dwattr $C$DW$944, DW_AT_accessibility(DW_ACCESS_public)
    6613              $C$DW$945       .dwtag  DW_TAG_member
    6614                      .dwattr $C$DW$945, DW_AT_type(*$C$DW$T$145)
    6615                      .dwattr $C$DW$945, DW_AT_name("rsvd_1")
    6616                      .dwattr $C$DW$945, DW_AT_TI_symbol_name("_rsvd_1")
    6617                      .dwattr $C$DW$945, DW_AT_data_member_location[DW_OP_plus_uconst 0x1a]
    6618                      .dwattr $C$DW$945, DW_AT_accessibility(DW_ACCESS_public)
    6619              $C$DW$946       .dwtag  DW_TAG_member
    6620                      .dwattr $C$DW$946, DW_AT_type(*$C$DW$T$149)
    6621                      .dwattr $C$DW$946, DW_AT_name("Reset")
    6622                      .dwattr $C$DW$946, DW_AT_TI_symbol_name("_Reset")
    6623                      .dwattr $C$DW$946, DW_AT_data_member_location[DW_OP_plus_uconst 0x20]
    6624                      .dwattr $C$DW$946, DW_AT_accessibility(DW_ACCESS_public)
    6625              $C$DW$947       .dwtag  DW_TAG_member
    6626                      .dwattr $C$DW$947, DW_AT_type(*$C$DW$T$149)
    6627                      .dwattr $C$DW$947, DW_AT_name("INT1")
    6628                      .dwattr $C$DW$947, DW_AT_TI_symbol_name("_INT1")
    6629                      .dwattr $C$DW$947, DW_AT_data_member_location[DW_OP_plus_uconst 0x22]
    6630                      .dwattr $C$DW$947, DW_AT_accessibility(DW_ACCESS_public)
    6631              $C$DW$948       .dwtag  DW_TAG_member
    6632                      .dwattr $C$DW$948, DW_AT_type(*$C$DW$T$149)
    6633                      .dwattr $C$DW$948, DW_AT_name("INT2")
    6634                      .dwattr $C$DW$948, DW_AT_TI_symbol_name("_INT2")
    6635                      .dwattr $C$DW$948, DW_AT_data_member_location[DW_OP_plus_uconst 0x24]
    6636                      .dwattr $C$DW$948, DW_AT_accessibility(DW_ACCESS_public)
    6637              $C$DW$949       .dwtag  DW_TAG_member
    6638                      .dwattr $C$DW$949, DW_AT_type(*$C$DW$T$149)
    6639                      .dwattr $C$DW$949, DW_AT_name("INT3")
    6640                      .dwattr $C$DW$949, DW_AT_TI_symbol_name("_INT3")
    6641                      .dwattr $C$DW$949, DW_AT_data_member_location[DW_OP_plus_uconst 0x26]
    6642                      .dwattr $C$DW$949, DW_AT_accessibility(DW_ACCESS_public)
    6643              $C$DW$950       .dwtag  DW_TAG_member
    6644                      .dwattr $C$DW$950, DW_AT_type(*$C$DW$T$149)
    6645                      .dwattr $C$DW$950, DW_AT_name("INT4")
    6646                      .dwattr $C$DW$950, DW_AT_TI_symbol_name("_INT4")
    6647                      .dwattr $C$DW$950, DW_AT_data_member_location[DW_OP_plus_uconst 0x28]
TMS320C2000 Assembler PC v6.2.5 Thu Jun 22 20:41:15 2017

Tools Copyright (c) 1996-2014 Texas Instruments Incorporated
C:\Users\wmj\AppData\Local\Temp\1712410                              PAGE  128

    6648                      .dwattr $C$DW$950, DW_AT_accessibility(DW_ACCESS_public)
    6649              $C$DW$951       .dwtag  DW_TAG_member
    6650                      .dwattr $C$DW$951, DW_AT_type(*$C$DW$T$149)
    6651                      .dwattr $C$DW$951, DW_AT_name("INT5")
    6652                      .dwattr $C$DW$951, DW_AT_TI_symbol_name("_INT5")
    6653                      .dwattr $C$DW$951, DW_AT_data_member_location[DW_OP_plus_uconst 0x2a]
    6654                      .dwattr $C$DW$951, DW_AT_accessibility(DW_ACCESS_public)
    6655              $C$DW$952       .dwtag  DW_TAG_member
    6656                      .dwattr $C$DW$952, DW_AT_type(*$C$DW$T$149)
    6657                      .dwattr $C$DW$952, DW_AT_name("INT6")
    6658                      .dwattr $C$DW$952, DW_AT_TI_symbol_name("_INT6")
    6659                      .dwattr $C$DW$952, DW_AT_data_member_location[DW_OP_plus_uconst 0x2c]
    6660                      .dwattr $C$DW$952, DW_AT_accessibility(DW_ACCESS_public)
    6661              $C$DW$953       .dwtag  DW_TAG_member
    6662                      .dwattr $C$DW$953, DW_AT_type(*$C$DW$T$149)
    6663                      .dwattr $C$DW$953, DW_AT_name("INT7")
    6664                      .dwattr $C$DW$953, DW_AT_TI_symbol_name("_INT7")
    6665                      .dwattr $C$DW$953, DW_AT_data_member_location[DW_OP_plus_uconst 0x2e]
    6666                      .dwattr $C$DW$953, DW_AT_accessibility(DW_ACCESS_public)
    6667              $C$DW$954       .dwtag  DW_TAG_member
    6668                      .dwattr $C$DW$954, DW_AT_type(*$C$DW$T$149)
    6669                      .dwattr $C$DW$954, DW_AT_name("INT8")
    6670                      .dwattr $C$DW$954, DW_AT_TI_symbol_name("_INT8")
    6671                      .dwattr $C$DW$954, DW_AT_data_member_location[DW_OP_plus_uconst 0x30]
    6672                      .dwattr $C$DW$954, DW_AT_accessibility(DW_ACCESS_public)
    6673              $C$DW$955       .dwtag  DW_TAG_member
    6674                      .dwattr $C$DW$955, DW_AT_type(*$C$DW$T$149)
    6675                      .dwattr $C$DW$955, DW_AT_name("INT9")
    6676                      .dwattr $C$DW$955, DW_AT_TI_symbol_name("_INT9")
    6677                      .dwattr $C$DW$955, DW_AT_data_member_location[DW_OP_plus_uconst 0x32]
    6678                      .dwattr $C$DW$955, DW_AT_accessibility(DW_ACCESS_public)
    6679              $C$DW$956       .dwtag  DW_TAG_member
    6680                      .dwattr $C$DW$956, DW_AT_type(*$C$DW$T$149)
    6681                      .dwattr $C$DW$956, DW_AT_name("INT10")
    6682                      .dwattr $C$DW$956, DW_AT_TI_symbol_name("_INT10")
    6683                      .dwattr $C$DW$956, DW_AT_data_member_location[DW_OP_plus_uconst 0x34]
    6684                      .dwattr $C$DW$956, DW_AT_accessibility(DW_ACCESS_public)
    6685              $C$DW$957       .dwtag  DW_TAG_member
    6686                      .dwattr $C$DW$957, DW_AT_type(*$C$DW$T$149)
    6687                      .dwattr $C$DW$957, DW_AT_name("INT11")
    6688                      .dwattr $C$DW$957, DW_AT_TI_symbol_name("_INT11")
    6689                      .dwattr $C$DW$957, DW_AT_data_member_location[DW_OP_plus_uconst 0x36]
    6690                      .dwattr $C$DW$957, DW_AT_accessibility(DW_ACCESS_public)
    6691              $C$DW$958       .dwtag  DW_TAG_member
    6692                      .dwattr $C$DW$958, DW_AT_type(*$C$DW$T$149)
    6693                      .dwattr $C$DW$958, DW_AT_name("INT12")
    6694                      .dwattr $C$DW$958, DW_AT_TI_symbol_name("_INT12")
    6695                      .dwattr $C$DW$958, DW_AT_data_member_location[DW_OP_plus_uconst 0x38]
    6696                      .dwattr $C$DW$958, DW_AT_accessibility(DW_ACCESS_public)
    6697              $C$DW$959       .dwtag  DW_TAG_member
    6698                      .dwattr $C$DW$959, DW_AT_type(*$C$DW$T$149)
    6699                      .dwattr $C$DW$959, DW_AT_name("TINT1")
    6700                      .dwattr $C$DW$959, DW_AT_TI_symbol_name("_TINT1")
    6701                      .dwattr $C$DW$959, DW_AT_data_member_location[DW_OP_plus_uconst 0x3a]
    6702                      .dwattr $C$DW$959, DW_AT_accessibility(DW_ACCESS_public)
TMS320C2000 Assembler PC v6.2.5 Thu Jun 22 20:41:15 2017

Tools Copyright (c) 1996-2014 Texas Instruments Incorporated
C:\Users\wmj\AppData\Local\Temp\1712410                              PAGE  129

    6703              $C$DW$960       .dwtag  DW_TAG_member
    6704                      .dwattr $C$DW$960, DW_AT_type(*$C$DW$T$149)
    6705                      .dwattr $C$DW$960, DW_AT_name("TINT2")
    6706                      .dwattr $C$DW$960, DW_AT_TI_symbol_name("_TINT2")
    6707                      .dwattr $C$DW$960, DW_AT_data_member_location[DW_OP_plus_uconst 0x3c]
    6708                      .dwattr $C$DW$960, DW_AT_accessibility(DW_ACCESS_public)
    6709              $C$DW$961       .dwtag  DW_TAG_member
    6710                      .dwattr $C$DW$961, DW_AT_type(*$C$DW$T$149)
    6711                      .dwattr $C$DW$961, DW_AT_name("DATALOG")
    6712                      .dwattr $C$DW$961, DW_AT_TI_symbol_name("_DATALOG")
    6713                      .dwattr $C$DW$961, DW_AT_data_member_location[DW_OP_plus_uconst 0x3e]
    6714                      .dwattr $C$DW$961, DW_AT_accessibility(DW_ACCESS_public)
    6715              $C$DW$962       .dwtag  DW_TAG_member
    6716                      .dwattr $C$DW$962, DW_AT_type(*$C$DW$T$149)
    6717                      .dwattr $C$DW$962, DW_AT_name("RTOSINT")
    6718                      .dwattr $C$DW$962, DW_AT_TI_symbol_name("_RTOSINT")
    6719                      .dwattr $C$DW$962, DW_AT_data_member_location[DW_OP_plus_uconst 0x40]
    6720                      .dwattr $C$DW$962, DW_AT_accessibility(DW_ACCESS_public)
    6721              $C$DW$963       .dwtag  DW_TAG_member
    6722                      .dwattr $C$DW$963, DW_AT_type(*$C$DW$T$149)
    6723                      .dwattr $C$DW$963, DW_AT_name("EMUINT")
    6724                      .dwattr $C$DW$963, DW_AT_TI_symbol_name("_EMUINT")
    6725                      .dwattr $C$DW$963, DW_AT_data_member_location[DW_OP_plus_uconst 0x42]
    6726                      .dwattr $C$DW$963, DW_AT_accessibility(DW_ACCESS_public)
    6727              $C$DW$964       .dwtag  DW_TAG_member
    6728                      .dwattr $C$DW$964, DW_AT_type(*$C$DW$T$149)
    6729                      .dwattr $C$DW$964, DW_AT_name("NMI")
    6730                      .dwattr $C$DW$964, DW_AT_TI_symbol_name("_NMI")
    6731                      .dwattr $C$DW$964, DW_AT_data_member_location[DW_OP_plus_uconst 0x44]
    6732                      .dwattr $C$DW$964, DW_AT_accessibility(DW_ACCESS_public)
    6733              $C$DW$965       .dwtag  DW_TAG_member
    6734                      .dwattr $C$DW$965, DW_AT_type(*$C$DW$T$149)
    6735                      .dwattr $C$DW$965, DW_AT_name("ILLEGAL")
    6736                      .dwattr $C$DW$965, DW_AT_TI_symbol_name("_ILLEGAL")
    6737                      .dwattr $C$DW$965, DW_AT_data_member_location[DW_OP_plus_uconst 0x46]
    6738                      .dwattr $C$DW$965, DW_AT_accessibility(DW_ACCESS_public)
    6739              $C$DW$966       .dwtag  DW_TAG_member
    6740                      .dwattr $C$DW$966, DW_AT_type(*$C$DW$T$149)
    6741                      .dwattr $C$DW$966, DW_AT_name("USER1")
    6742                      .dwattr $C$DW$966, DW_AT_TI_symbol_name("_USER1")
    6743                      .dwattr $C$DW$966, DW_AT_data_member_location[DW_OP_plus_uconst 0x48]
    6744                      .dwattr $C$DW$966, DW_AT_accessibility(DW_ACCESS_public)
    6745              $C$DW$967       .dwtag  DW_TAG_member
    6746                      .dwattr $C$DW$967, DW_AT_type(*$C$DW$T$149)
    6747                      .dwattr $C$DW$967, DW_AT_name("USER2")
    6748                      .dwattr $C$DW$967, DW_AT_TI_symbol_name("_USER2")
    6749                      .dwattr $C$DW$967, DW_AT_data_member_location[DW_OP_plus_uconst 0x4a]
    6750                      .dwattr $C$DW$967, DW_AT_accessibility(DW_ACCESS_public)
    6751              $C$DW$968       .dwtag  DW_TAG_member
    6752                      .dwattr $C$DW$968, DW_AT_type(*$C$DW$T$149)
    6753                      .dwattr $C$DW$968, DW_AT_name("USER3")
    6754                      .dwattr $C$DW$968, DW_AT_TI_symbol_name("_USER3")
    6755                      .dwattr $C$DW$968, DW_AT_data_member_location[DW_OP_plus_uconst 0x4c]
    6756                      .dwattr $C$DW$968, DW_AT_accessibility(DW_ACCESS_public)
    6757              $C$DW$969       .dwtag  DW_TAG_member
TMS320C2000 Assembler PC v6.2.5 Thu Jun 22 20:41:15 2017

Tools Copyright (c) 1996-2014 Texas Instruments Incorporated
C:\Users\wmj\AppData\Local\Temp\1712410                              PAGE  130

    6758                      .dwattr $C$DW$969, DW_AT_type(*$C$DW$T$149)
    6759                      .dwattr $C$DW$969, DW_AT_name("USER4")
    6760                      .dwattr $C$DW$969, DW_AT_TI_symbol_name("_USER4")
    6761                      .dwattr $C$DW$969, DW_AT_data_member_location[DW_OP_plus_uconst 0x4e]
    6762                      .dwattr $C$DW$969, DW_AT_accessibility(DW_ACCESS_public)
    6763              $C$DW$970       .dwtag  DW_TAG_member
    6764                      .dwattr $C$DW$970, DW_AT_type(*$C$DW$T$149)
    6765                      .dwattr $C$DW$970, DW_AT_name("USER5")
    6766                      .dwattr $C$DW$970, DW_AT_TI_symbol_name("_USER5")
    6767                      .dwattr $C$DW$970, DW_AT_data_member_location[DW_OP_plus_uconst 0x50]
    6768                      .dwattr $C$DW$970, DW_AT_accessibility(DW_ACCESS_public)
    6769              $C$DW$971       .dwtag  DW_TAG_member
    6770                      .dwattr $C$DW$971, DW_AT_type(*$C$DW$T$149)
    6771                      .dwattr $C$DW$971, DW_AT_name("USER6")
    6772                      .dwattr $C$DW$971, DW_AT_TI_symbol_name("_USER6")
    6773                      .dwattr $C$DW$971, DW_AT_data_member_location[DW_OP_plus_uconst 0x52]
    6774                      .dwattr $C$DW$971, DW_AT_accessibility(DW_ACCESS_public)
    6775              $C$DW$972       .dwtag  DW_TAG_member
    6776                      .dwattr $C$DW$972, DW_AT_type(*$C$DW$T$149)
    6777                      .dwattr $C$DW$972, DW_AT_name("USER7")
    6778                      .dwattr $C$DW$972, DW_AT_TI_symbol_name("_USER7")
    6779                      .dwattr $C$DW$972, DW_AT_data_member_location[DW_OP_plus_uconst 0x54]
    6780                      .dwattr $C$DW$972, DW_AT_accessibility(DW_ACCESS_public)
    6781              $C$DW$973       .dwtag  DW_TAG_member
    6782                      .dwattr $C$DW$973, DW_AT_type(*$C$DW$T$149)
    6783                      .dwattr $C$DW$973, DW_AT_name("USER8")
    6784                      .dwattr $C$DW$973, DW_AT_TI_symbol_name("_USER8")
    6785                      .dwattr $C$DW$973, DW_AT_data_member_location[DW_OP_plus_uconst 0x56]
    6786                      .dwattr $C$DW$973, DW_AT_accessibility(DW_ACCESS_public)
    6787              $C$DW$974       .dwtag  DW_TAG_member
    6788                      .dwattr $C$DW$974, DW_AT_type(*$C$DW$T$149)
    6789                      .dwattr $C$DW$974, DW_AT_name("USER9")
    6790                      .dwattr $C$DW$974, DW_AT_TI_symbol_name("_USER9")
    6791                      .dwattr $C$DW$974, DW_AT_data_member_location[DW_OP_plus_uconst 0x58]
    6792                      .dwattr $C$DW$974, DW_AT_accessibility(DW_ACCESS_public)
    6793              $C$DW$975       .dwtag  DW_TAG_member
    6794                      .dwattr $C$DW$975, DW_AT_type(*$C$DW$T$149)
    6795                      .dwattr $C$DW$975, DW_AT_name("USER10")
    6796                      .dwattr $C$DW$975, DW_AT_TI_symbol_name("_USER10")
    6797                      .dwattr $C$DW$975, DW_AT_data_member_location[DW_OP_plus_uconst 0x5a]
    6798                      .dwattr $C$DW$975, DW_AT_accessibility(DW_ACCESS_public)
    6799              $C$DW$976       .dwtag  DW_TAG_member
    6800                      .dwattr $C$DW$976, DW_AT_type(*$C$DW$T$149)
    6801                      .dwattr $C$DW$976, DW_AT_name("USER11")
    6802                      .dwattr $C$DW$976, DW_AT_TI_symbol_name("_USER11")
    6803                      .dwattr $C$DW$976, DW_AT_data_member_location[DW_OP_plus_uconst 0x5c]
    6804                      .dwattr $C$DW$976, DW_AT_accessibility(DW_ACCESS_public)
    6805              $C$DW$977       .dwtag  DW_TAG_member
    6806                      .dwattr $C$DW$977, DW_AT_type(*$C$DW$T$149)
    6807                      .dwattr $C$DW$977, DW_AT_name("USER12")
    6808                      .dwattr $C$DW$977, DW_AT_TI_symbol_name("_USER12")
    6809                      .dwattr $C$DW$977, DW_AT_data_member_location[DW_OP_plus_uconst 0x5e]
    6810                      .dwattr $C$DW$977, DW_AT_accessibility(DW_ACCESS_public)
    6811              $C$DW$978       .dwtag  DW_TAG_member
    6812                      .dwattr $C$DW$978, DW_AT_type(*$C$DW$T$149)
TMS320C2000 Assembler PC v6.2.5 Thu Jun 22 20:41:15 2017

Tools Copyright (c) 1996-2014 Texas Instruments Incorporated
C:\Users\wmj\AppData\Local\Temp\1712410                              PAGE  131

    6813                      .dwattr $C$DW$978, DW_AT_name("ADCINT1_HP")
    6814                      .dwattr $C$DW$978, DW_AT_TI_symbol_name("_ADCINT1_HP")
    6815                      .dwattr $C$DW$978, DW_AT_data_member_location[DW_OP_plus_uconst 0x60]
    6816                      .dwattr $C$DW$978, DW_AT_accessibility(DW_ACCESS_public)
    6817              $C$DW$979       .dwtag  DW_TAG_member
    6818                      .dwattr $C$DW$979, DW_AT_type(*$C$DW$T$149)
    6819                      .dwattr $C$DW$979, DW_AT_name("ADCINT2_HP")
    6820                      .dwattr $C$DW$979, DW_AT_TI_symbol_name("_ADCINT2_HP")
    6821                      .dwattr $C$DW$979, DW_AT_data_member_location[DW_OP_plus_uconst 0x62]
    6822                      .dwattr $C$DW$979, DW_AT_accessibility(DW_ACCESS_public)
    6823              $C$DW$980       .dwtag  DW_TAG_member
    6824                      .dwattr $C$DW$980, DW_AT_type(*$C$DW$T$149)
    6825                      .dwattr $C$DW$980, DW_AT_name("rsvd1_3")
    6826                      .dwattr $C$DW$980, DW_AT_TI_symbol_name("_rsvd1_3")
    6827                      .dwattr $C$DW$980, DW_AT_data_member_location[DW_OP_plus_uconst 0x64]
    6828                      .dwattr $C$DW$980, DW_AT_accessibility(DW_ACCESS_public)
    6829              $C$DW$981       .dwtag  DW_TAG_member
    6830                      .dwattr $C$DW$981, DW_AT_type(*$C$DW$T$149)
    6831                      .dwattr $C$DW$981, DW_AT_name("XINT1")
    6832                      .dwattr $C$DW$981, DW_AT_TI_symbol_name("_XINT1")
    6833                      .dwattr $C$DW$981, DW_AT_data_member_location[DW_OP_plus_uconst 0x66]
    6834                      .dwattr $C$DW$981, DW_AT_accessibility(DW_ACCESS_public)
    6835              $C$DW$982       .dwtag  DW_TAG_member
    6836                      .dwattr $C$DW$982, DW_AT_type(*$C$DW$T$149)
    6837                      .dwattr $C$DW$982, DW_AT_name("XINT2")
    6838                      .dwattr $C$DW$982, DW_AT_TI_symbol_name("_XINT2")
    6839                      .dwattr $C$DW$982, DW_AT_data_member_location[DW_OP_plus_uconst 0x68]
    6840                      .dwattr $C$DW$982, DW_AT_accessibility(DW_ACCESS_public)
    6841              $C$DW$983       .dwtag  DW_TAG_member
    6842                      .dwattr $C$DW$983, DW_AT_type(*$C$DW$T$149)
    6843                      .dwattr $C$DW$983, DW_AT_name("ADCINT9")
    6844                      .dwattr $C$DW$983, DW_AT_TI_symbol_name("_ADCINT9")
    6845                      .dwattr $C$DW$983, DW_AT_data_member_location[DW_OP_plus_uconst 0x6a]
    6846                      .dwattr $C$DW$983, DW_AT_accessibility(DW_ACCESS_public)
    6847              $C$DW$984       .dwtag  DW_TAG_member
    6848                      .dwattr $C$DW$984, DW_AT_type(*$C$DW$T$149)
    6849                      .dwattr $C$DW$984, DW_AT_name("TINT0")
    6850                      .dwattr $C$DW$984, DW_AT_TI_symbol_name("_TINT0")
    6851                      .dwattr $C$DW$984, DW_AT_data_member_location[DW_OP_plus_uconst 0x6c]
    6852                      .dwattr $C$DW$984, DW_AT_accessibility(DW_ACCESS_public)
    6853              $C$DW$985       .dwtag  DW_TAG_member
    6854                      .dwattr $C$DW$985, DW_AT_type(*$C$DW$T$149)
    6855                      .dwattr $C$DW$985, DW_AT_name("WAKEINT")
    6856                      .dwattr $C$DW$985, DW_AT_TI_symbol_name("_WAKEINT")
    6857                      .dwattr $C$DW$985, DW_AT_data_member_location[DW_OP_plus_uconst 0x6e]
    6858                      .dwattr $C$DW$985, DW_AT_accessibility(DW_ACCESS_public)
    6859              $C$DW$986       .dwtag  DW_TAG_member
    6860                      .dwattr $C$DW$986, DW_AT_type(*$C$DW$T$149)
    6861                      .dwattr $C$DW$986, DW_AT_name("EPWM1_TZINT")
    6862                      .dwattr $C$DW$986, DW_AT_TI_symbol_name("_EPWM1_TZINT")
    6863                      .dwattr $C$DW$986, DW_AT_data_member_location[DW_OP_plus_uconst 0x70]
    6864                      .dwattr $C$DW$986, DW_AT_accessibility(DW_ACCESS_public)
    6865              $C$DW$987       .dwtag  DW_TAG_member
    6866                      .dwattr $C$DW$987, DW_AT_type(*$C$DW$T$149)
    6867                      .dwattr $C$DW$987, DW_AT_name("EPWM2_TZINT")
TMS320C2000 Assembler PC v6.2.5 Thu Jun 22 20:41:15 2017

Tools Copyright (c) 1996-2014 Texas Instruments Incorporated
C:\Users\wmj\AppData\Local\Temp\1712410                              PAGE  132

    6868                      .dwattr $C$DW$987, DW_AT_TI_symbol_name("_EPWM2_TZINT")
    6869                      .dwattr $C$DW$987, DW_AT_data_member_location[DW_OP_plus_uconst 0x72]
    6870                      .dwattr $C$DW$987, DW_AT_accessibility(DW_ACCESS_public)
    6871              $C$DW$988       .dwtag  DW_TAG_member
    6872                      .dwattr $C$DW$988, DW_AT_type(*$C$DW$T$149)
    6873                      .dwattr $C$DW$988, DW_AT_name("EPWM3_TZINT")
    6874                      .dwattr $C$DW$988, DW_AT_TI_symbol_name("_EPWM3_TZINT")
    6875                      .dwattr $C$DW$988, DW_AT_data_member_location[DW_OP_plus_uconst 0x74]
    6876                      .dwattr $C$DW$988, DW_AT_accessibility(DW_ACCESS_public)
    6877              $C$DW$989       .dwtag  DW_TAG_member
    6878                      .dwattr $C$DW$989, DW_AT_type(*$C$DW$T$149)
    6879                      .dwattr $C$DW$989, DW_AT_name("EPWM4_TZINT")
    6880                      .dwattr $C$DW$989, DW_AT_TI_symbol_name("_EPWM4_TZINT")
    6881                      .dwattr $C$DW$989, DW_AT_data_member_location[DW_OP_plus_uconst 0x76]
    6882                      .dwattr $C$DW$989, DW_AT_accessibility(DW_ACCESS_public)
    6883              $C$DW$990       .dwtag  DW_TAG_member
    6884                      .dwattr $C$DW$990, DW_AT_type(*$C$DW$T$149)
    6885                      .dwattr $C$DW$990, DW_AT_name("rsvd2_5")
    6886                      .dwattr $C$DW$990, DW_AT_TI_symbol_name("_rsvd2_5")
    6887                      .dwattr $C$DW$990, DW_AT_data_member_location[DW_OP_plus_uconst 0x78]
    6888                      .dwattr $C$DW$990, DW_AT_accessibility(DW_ACCESS_public)
    6889              $C$DW$991       .dwtag  DW_TAG_member
    6890                      .dwattr $C$DW$991, DW_AT_type(*$C$DW$T$149)
    6891                      .dwattr $C$DW$991, DW_AT_name("rsvd2_6")
    6892                      .dwattr $C$DW$991, DW_AT_TI_symbol_name("_rsvd2_6")
    6893                      .dwattr $C$DW$991, DW_AT_data_member_location[DW_OP_plus_uconst 0x7a]
    6894                      .dwattr $C$DW$991, DW_AT_accessibility(DW_ACCESS_public)
    6895              $C$DW$992       .dwtag  DW_TAG_member
    6896                      .dwattr $C$DW$992, DW_AT_type(*$C$DW$T$149)
    6897                      .dwattr $C$DW$992, DW_AT_name("rsvd2_7")
    6898                      .dwattr $C$DW$992, DW_AT_TI_symbol_name("_rsvd2_7")
    6899                      .dwattr $C$DW$992, DW_AT_data_member_location[DW_OP_plus_uconst 0x7c]
    6900                      .dwattr $C$DW$992, DW_AT_accessibility(DW_ACCESS_public)
    6901              $C$DW$993       .dwtag  DW_TAG_member
    6902                      .dwattr $C$DW$993, DW_AT_type(*$C$DW$T$149)
    6903                      .dwattr $C$DW$993, DW_AT_name("rsvd2_8")
    6904                      .dwattr $C$DW$993, DW_AT_TI_symbol_name("_rsvd2_8")
    6905                      .dwattr $C$DW$993, DW_AT_data_member_location[DW_OP_plus_uconst 0x7e]
    6906                      .dwattr $C$DW$993, DW_AT_accessibility(DW_ACCESS_public)
    6907              $C$DW$994       .dwtag  DW_TAG_member
    6908                      .dwattr $C$DW$994, DW_AT_type(*$C$DW$T$149)
    6909                      .dwattr $C$DW$994, DW_AT_name("EPWM1_INT")
    6910                      .dwattr $C$DW$994, DW_AT_TI_symbol_name("_EPWM1_INT")
    6911                      .dwattr $C$DW$994, DW_AT_data_member_location[DW_OP_plus_uconst 0x80]
    6912                      .dwattr $C$DW$994, DW_AT_accessibility(DW_ACCESS_public)
    6913              $C$DW$995       .dwtag  DW_TAG_member
    6914                      .dwattr $C$DW$995, DW_AT_type(*$C$DW$T$149)
    6915                      .dwattr $C$DW$995, DW_AT_name("EPWM2_INT")
    6916                      .dwattr $C$DW$995, DW_AT_TI_symbol_name("_EPWM2_INT")
    6917                      .dwattr $C$DW$995, DW_AT_data_member_location[DW_OP_plus_uconst 0x82]
    6918                      .dwattr $C$DW$995, DW_AT_accessibility(DW_ACCESS_public)
    6919              $C$DW$996       .dwtag  DW_TAG_member
    6920                      .dwattr $C$DW$996, DW_AT_type(*$C$DW$T$149)
    6921                      .dwattr $C$DW$996, DW_AT_name("EPWM3_INT")
    6922                      .dwattr $C$DW$996, DW_AT_TI_symbol_name("_EPWM3_INT")
TMS320C2000 Assembler PC v6.2.5 Thu Jun 22 20:41:15 2017

Tools Copyright (c) 1996-2014 Texas Instruments Incorporated
C:\Users\wmj\AppData\Local\Temp\1712410                              PAGE  133

    6923                      .dwattr $C$DW$996, DW_AT_data_member_location[DW_OP_plus_uconst 0x84]
    6924                      .dwattr $C$DW$996, DW_AT_accessibility(DW_ACCESS_public)
    6925              $C$DW$997       .dwtag  DW_TAG_member
    6926                      .dwattr $C$DW$997, DW_AT_type(*$C$DW$T$149)
    6927                      .dwattr $C$DW$997, DW_AT_name("EPWM4_INT")
    6928                      .dwattr $C$DW$997, DW_AT_TI_symbol_name("_EPWM4_INT")
    6929                      .dwattr $C$DW$997, DW_AT_data_member_location[DW_OP_plus_uconst 0x86]
    6930                      .dwattr $C$DW$997, DW_AT_accessibility(DW_ACCESS_public)
    6931              $C$DW$998       .dwtag  DW_TAG_member
    6932                      .dwattr $C$DW$998, DW_AT_type(*$C$DW$T$149)
    6933                      .dwattr $C$DW$998, DW_AT_name("rsvd3_5")
    6934                      .dwattr $C$DW$998, DW_AT_TI_symbol_name("_rsvd3_5")
    6935                      .dwattr $C$DW$998, DW_AT_data_member_location[DW_OP_plus_uconst 0x88]
    6936                      .dwattr $C$DW$998, DW_AT_accessibility(DW_ACCESS_public)
    6937              $C$DW$999       .dwtag  DW_TAG_member
    6938                      .dwattr $C$DW$999, DW_AT_type(*$C$DW$T$149)
    6939                      .dwattr $C$DW$999, DW_AT_name("rsvd3_6")
    6940                      .dwattr $C$DW$999, DW_AT_TI_symbol_name("_rsvd3_6")
    6941                      .dwattr $C$DW$999, DW_AT_data_member_location[DW_OP_plus_uconst 0x8a]
    6942                      .dwattr $C$DW$999, DW_AT_accessibility(DW_ACCESS_public)
    6943              $C$DW$1000      .dwtag  DW_TAG_member
    6944                      .dwattr $C$DW$1000, DW_AT_type(*$C$DW$T$149)
    6945                      .dwattr $C$DW$1000, DW_AT_name("rsvd3_7")
    6946                      .dwattr $C$DW$1000, DW_AT_TI_symbol_name("_rsvd3_7")
    6947                      .dwattr $C$DW$1000, DW_AT_data_member_location[DW_OP_plus_uconst 0x8c]
    6948                      .dwattr $C$DW$1000, DW_AT_accessibility(DW_ACCESS_public)
    6949              $C$DW$1001      .dwtag  DW_TAG_member
    6950                      .dwattr $C$DW$1001, DW_AT_type(*$C$DW$T$149)
    6951                      .dwattr $C$DW$1001, DW_AT_name("rsvd3_8")
    6952                      .dwattr $C$DW$1001, DW_AT_TI_symbol_name("_rsvd3_8")
    6953                      .dwattr $C$DW$1001, DW_AT_data_member_location[DW_OP_plus_uconst 0x8e]
    6954                      .dwattr $C$DW$1001, DW_AT_accessibility(DW_ACCESS_public)
    6955              $C$DW$1002      .dwtag  DW_TAG_member
    6956                      .dwattr $C$DW$1002, DW_AT_type(*$C$DW$T$149)
    6957                      .dwattr $C$DW$1002, DW_AT_name("ECAP1_INT")
    6958                      .dwattr $C$DW$1002, DW_AT_TI_symbol_name("_ECAP1_INT")
    6959                      .dwattr $C$DW$1002, DW_AT_data_member_location[DW_OP_plus_uconst 0x90]
    6960                      .dwattr $C$DW$1002, DW_AT_accessibility(DW_ACCESS_public)
    6961              $C$DW$1003      .dwtag  DW_TAG_member
    6962                      .dwattr $C$DW$1003, DW_AT_type(*$C$DW$T$149)
    6963                      .dwattr $C$DW$1003, DW_AT_name("rsvd4_2")
    6964                      .dwattr $C$DW$1003, DW_AT_TI_symbol_name("_rsvd4_2")
    6965                      .dwattr $C$DW$1003, DW_AT_data_member_location[DW_OP_plus_uconst 0x92]
    6966                      .dwattr $C$DW$1003, DW_AT_accessibility(DW_ACCESS_public)
    6967              $C$DW$1004      .dwtag  DW_TAG_member
    6968                      .dwattr $C$DW$1004, DW_AT_type(*$C$DW$T$149)
    6969                      .dwattr $C$DW$1004, DW_AT_name("rsvd4_3")
    6970                      .dwattr $C$DW$1004, DW_AT_TI_symbol_name("_rsvd4_3")
    6971                      .dwattr $C$DW$1004, DW_AT_data_member_location[DW_OP_plus_uconst 0x94]
    6972                      .dwattr $C$DW$1004, DW_AT_accessibility(DW_ACCESS_public)
    6973              $C$DW$1005      .dwtag  DW_TAG_member
    6974                      .dwattr $C$DW$1005, DW_AT_type(*$C$DW$T$149)
    6975                      .dwattr $C$DW$1005, DW_AT_name("rsvd4_4")
    6976                      .dwattr $C$DW$1005, DW_AT_TI_symbol_name("_rsvd4_4")
    6977                      .dwattr $C$DW$1005, DW_AT_data_member_location[DW_OP_plus_uconst 0x96]
TMS320C2000 Assembler PC v6.2.5 Thu Jun 22 20:41:15 2017

Tools Copyright (c) 1996-2014 Texas Instruments Incorporated
C:\Users\wmj\AppData\Local\Temp\1712410                              PAGE  134

    6978                      .dwattr $C$DW$1005, DW_AT_accessibility(DW_ACCESS_public)
    6979              $C$DW$1006      .dwtag  DW_TAG_member
    6980                      .dwattr $C$DW$1006, DW_AT_type(*$C$DW$T$149)
    6981                      .dwattr $C$DW$1006, DW_AT_name("rsvd4_5")
    6982                      .dwattr $C$DW$1006, DW_AT_TI_symbol_name("_rsvd4_5")
    6983                      .dwattr $C$DW$1006, DW_AT_data_member_location[DW_OP_plus_uconst 0x98]
    6984                      .dwattr $C$DW$1006, DW_AT_accessibility(DW_ACCESS_public)
    6985              $C$DW$1007      .dwtag  DW_TAG_member
    6986                      .dwattr $C$DW$1007, DW_AT_type(*$C$DW$T$149)
    6987                      .dwattr $C$DW$1007, DW_AT_name("rsvd4_6")
    6988                      .dwattr $C$DW$1007, DW_AT_TI_symbol_name("_rsvd4_6")
    6989                      .dwattr $C$DW$1007, DW_AT_data_member_location[DW_OP_plus_uconst 0x9a]
    6990                      .dwattr $C$DW$1007, DW_AT_accessibility(DW_ACCESS_public)
    6991              $C$DW$1008      .dwtag  DW_TAG_member
    6992                      .dwattr $C$DW$1008, DW_AT_type(*$C$DW$T$149)
    6993                      .dwattr $C$DW$1008, DW_AT_name("rsvd4_7")
    6994                      .dwattr $C$DW$1008, DW_AT_TI_symbol_name("_rsvd4_7")
    6995                      .dwattr $C$DW$1008, DW_AT_data_member_location[DW_OP_plus_uconst 0x9c]
    6996                      .dwattr $C$DW$1008, DW_AT_accessibility(DW_ACCESS_public)
    6997              $C$DW$1009      .dwtag  DW_TAG_member
    6998                      .dwattr $C$DW$1009, DW_AT_type(*$C$DW$T$149)
    6999                      .dwattr $C$DW$1009, DW_AT_name("rsvd4_8")
    7000                      .dwattr $C$DW$1009, DW_AT_TI_symbol_name("_rsvd4_8")
    7001                      .dwattr $C$DW$1009, DW_AT_data_member_location[DW_OP_plus_uconst 0x9e]
    7002                      .dwattr $C$DW$1009, DW_AT_accessibility(DW_ACCESS_public)
    7003              $C$DW$1010      .dwtag  DW_TAG_member
    7004                      .dwattr $C$DW$1010, DW_AT_type(*$C$DW$T$149)
    7005                      .dwattr $C$DW$1010, DW_AT_name("rsvd5_1")
    7006                      .dwattr $C$DW$1010, DW_AT_TI_symbol_name("_rsvd5_1")
    7007                      .dwattr $C$DW$1010, DW_AT_data_member_location[DW_OP_plus_uconst 0xa0]
    7008                      .dwattr $C$DW$1010, DW_AT_accessibility(DW_ACCESS_public)
    7009              $C$DW$1011      .dwtag  DW_TAG_member
    7010                      .dwattr $C$DW$1011, DW_AT_type(*$C$DW$T$149)
    7011                      .dwattr $C$DW$1011, DW_AT_name("rsvd5_2")
    7012                      .dwattr $C$DW$1011, DW_AT_TI_symbol_name("_rsvd5_2")
    7013                      .dwattr $C$DW$1011, DW_AT_data_member_location[DW_OP_plus_uconst 0xa2]
    7014                      .dwattr $C$DW$1011, DW_AT_accessibility(DW_ACCESS_public)
    7015              $C$DW$1012      .dwtag  DW_TAG_member
    7016                      .dwattr $C$DW$1012, DW_AT_type(*$C$DW$T$149)
    7017                      .dwattr $C$DW$1012, DW_AT_name("rsvd5_3")
    7018                      .dwattr $C$DW$1012, DW_AT_TI_symbol_name("_rsvd5_3")
    7019                      .dwattr $C$DW$1012, DW_AT_data_member_location[DW_OP_plus_uconst 0xa4]
    7020                      .dwattr $C$DW$1012, DW_AT_accessibility(DW_ACCESS_public)
    7021              $C$DW$1013      .dwtag  DW_TAG_member
    7022                      .dwattr $C$DW$1013, DW_AT_type(*$C$DW$T$149)
    7023                      .dwattr $C$DW$1013, DW_AT_name("rsvd5_4")
    7024                      .dwattr $C$DW$1013, DW_AT_TI_symbol_name("_rsvd5_4")
    7025                      .dwattr $C$DW$1013, DW_AT_data_member_location[DW_OP_plus_uconst 0xa6]
    7026                      .dwattr $C$DW$1013, DW_AT_accessibility(DW_ACCESS_public)
    7027              $C$DW$1014      .dwtag  DW_TAG_member
    7028                      .dwattr $C$DW$1014, DW_AT_type(*$C$DW$T$149)
    7029                      .dwattr $C$DW$1014, DW_AT_name("rsvd5_5")
    7030                      .dwattr $C$DW$1014, DW_AT_TI_symbol_name("_rsvd5_5")
    7031                      .dwattr $C$DW$1014, DW_AT_data_member_location[DW_OP_plus_uconst 0xa8]
    7032                      .dwattr $C$DW$1014, DW_AT_accessibility(DW_ACCESS_public)
TMS320C2000 Assembler PC v6.2.5 Thu Jun 22 20:41:15 2017

Tools Copyright (c) 1996-2014 Texas Instruments Incorporated
C:\Users\wmj\AppData\Local\Temp\1712410                              PAGE  135

    7033              $C$DW$1015      .dwtag  DW_TAG_member
    7034                      .dwattr $C$DW$1015, DW_AT_type(*$C$DW$T$149)
    7035                      .dwattr $C$DW$1015, DW_AT_name("rsvd5_6")
    7036                      .dwattr $C$DW$1015, DW_AT_TI_symbol_name("_rsvd5_6")
    7037                      .dwattr $C$DW$1015, DW_AT_data_member_location[DW_OP_plus_uconst 0xaa]
    7038                      .dwattr $C$DW$1015, DW_AT_accessibility(DW_ACCESS_public)
    7039              $C$DW$1016      .dwtag  DW_TAG_member
    7040                      .dwattr $C$DW$1016, DW_AT_type(*$C$DW$T$149)
    7041                      .dwattr $C$DW$1016, DW_AT_name("rsvd5_7")
    7042                      .dwattr $C$DW$1016, DW_AT_TI_symbol_name("_rsvd5_7")
    7043                      .dwattr $C$DW$1016, DW_AT_data_member_location[DW_OP_plus_uconst 0xac]
    7044                      .dwattr $C$DW$1016, DW_AT_accessibility(DW_ACCESS_public)
    7045              $C$DW$1017      .dwtag  DW_TAG_member
    7046                      .dwattr $C$DW$1017, DW_AT_type(*$C$DW$T$149)
    7047                      .dwattr $C$DW$1017, DW_AT_name("rsvd5_8")
    7048                      .dwattr $C$DW$1017, DW_AT_TI_symbol_name("_rsvd5_8")
    7049                      .dwattr $C$DW$1017, DW_AT_data_member_location[DW_OP_plus_uconst 0xae]
    7050                      .dwattr $C$DW$1017, DW_AT_accessibility(DW_ACCESS_public)
    7051              $C$DW$1018      .dwtag  DW_TAG_member
    7052                      .dwattr $C$DW$1018, DW_AT_type(*$C$DW$T$149)
    7053                      .dwattr $C$DW$1018, DW_AT_name("SPIRXINTA")
    7054                      .dwattr $C$DW$1018, DW_AT_TI_symbol_name("_SPIRXINTA")
    7055                      .dwattr $C$DW$1018, DW_AT_data_member_location[DW_OP_plus_uconst 0xb0]
    7056                      .dwattr $C$DW$1018, DW_AT_accessibility(DW_ACCESS_public)
    7057              $C$DW$1019      .dwtag  DW_TAG_member
    7058                      .dwattr $C$DW$1019, DW_AT_type(*$C$DW$T$149)
    7059                      .dwattr $C$DW$1019, DW_AT_name("SPITXINTA")
    7060                      .dwattr $C$DW$1019, DW_AT_TI_symbol_name("_SPITXINTA")
    7061                      .dwattr $C$DW$1019, DW_AT_data_member_location[DW_OP_plus_uconst 0xb2]
    7062                      .dwattr $C$DW$1019, DW_AT_accessibility(DW_ACCESS_public)
    7063              $C$DW$1020      .dwtag  DW_TAG_member
    7064                      .dwattr $C$DW$1020, DW_AT_type(*$C$DW$T$149)
    7065                      .dwattr $C$DW$1020, DW_AT_name("rsvd6_3")
    7066                      .dwattr $C$DW$1020, DW_AT_TI_symbol_name("_rsvd6_3")
    7067                      .dwattr $C$DW$1020, DW_AT_data_member_location[DW_OP_plus_uconst 0xb4]
    7068                      .dwattr $C$DW$1020, DW_AT_accessibility(DW_ACCESS_public)
    7069              $C$DW$1021      .dwtag  DW_TAG_member
    7070                      .dwattr $C$DW$1021, DW_AT_type(*$C$DW$T$149)
    7071                      .dwattr $C$DW$1021, DW_AT_name("rsvd6_4")
    7072                      .dwattr $C$DW$1021, DW_AT_TI_symbol_name("_rsvd6_4")
    7073                      .dwattr $C$DW$1021, DW_AT_data_member_location[DW_OP_plus_uconst 0xb6]
    7074                      .dwattr $C$DW$1021, DW_AT_accessibility(DW_ACCESS_public)
    7075              $C$DW$1022      .dwtag  DW_TAG_member
    7076                      .dwattr $C$DW$1022, DW_AT_type(*$C$DW$T$149)
    7077                      .dwattr $C$DW$1022, DW_AT_name("rsvd6_5")
    7078                      .dwattr $C$DW$1022, DW_AT_TI_symbol_name("_rsvd6_5")
    7079                      .dwattr $C$DW$1022, DW_AT_data_member_location[DW_OP_plus_uconst 0xb8]
    7080                      .dwattr $C$DW$1022, DW_AT_accessibility(DW_ACCESS_public)
    7081              $C$DW$1023      .dwtag  DW_TAG_member
    7082                      .dwattr $C$DW$1023, DW_AT_type(*$C$DW$T$149)
    7083                      .dwattr $C$DW$1023, DW_AT_name("rsvd6_6")
    7084                      .dwattr $C$DW$1023, DW_AT_TI_symbol_name("_rsvd6_6")
    7085                      .dwattr $C$DW$1023, DW_AT_data_member_location[DW_OP_plus_uconst 0xba]
    7086                      .dwattr $C$DW$1023, DW_AT_accessibility(DW_ACCESS_public)
    7087              $C$DW$1024      .dwtag  DW_TAG_member
TMS320C2000 Assembler PC v6.2.5 Thu Jun 22 20:41:15 2017

Tools Copyright (c) 1996-2014 Texas Instruments Incorporated
C:\Users\wmj\AppData\Local\Temp\1712410                              PAGE  136

    7088                      .dwattr $C$DW$1024, DW_AT_type(*$C$DW$T$149)
    7089                      .dwattr $C$DW$1024, DW_AT_name("rsvd6_7")
    7090                      .dwattr $C$DW$1024, DW_AT_TI_symbol_name("_rsvd6_7")
    7091                      .dwattr $C$DW$1024, DW_AT_data_member_location[DW_OP_plus_uconst 0xbc]
    7092                      .dwattr $C$DW$1024, DW_AT_accessibility(DW_ACCESS_public)
    7093              $C$DW$1025      .dwtag  DW_TAG_member
    7094                      .dwattr $C$DW$1025, DW_AT_type(*$C$DW$T$149)
    7095                      .dwattr $C$DW$1025, DW_AT_name("rsvd6_8")
    7096                      .dwattr $C$DW$1025, DW_AT_TI_symbol_name("_rsvd6_8")
    7097                      .dwattr $C$DW$1025, DW_AT_data_member_location[DW_OP_plus_uconst 0xbe]
    7098                      .dwattr $C$DW$1025, DW_AT_accessibility(DW_ACCESS_public)
    7099              $C$DW$1026      .dwtag  DW_TAG_member
    7100                      .dwattr $C$DW$1026, DW_AT_type(*$C$DW$T$149)
    7101                      .dwattr $C$DW$1026, DW_AT_name("rsvd7_1")
    7102                      .dwattr $C$DW$1026, DW_AT_TI_symbol_name("_rsvd7_1")
    7103                      .dwattr $C$DW$1026, DW_AT_data_member_location[DW_OP_plus_uconst 0xc0]
    7104                      .dwattr $C$DW$1026, DW_AT_accessibility(DW_ACCESS_public)
    7105              $C$DW$1027      .dwtag  DW_TAG_member
    7106                      .dwattr $C$DW$1027, DW_AT_type(*$C$DW$T$149)
    7107                      .dwattr $C$DW$1027, DW_AT_name("rsvd7_2")
    7108                      .dwattr $C$DW$1027, DW_AT_TI_symbol_name("_rsvd7_2")
    7109                      .dwattr $C$DW$1027, DW_AT_data_member_location[DW_OP_plus_uconst 0xc2]
    7110                      .dwattr $C$DW$1027, DW_AT_accessibility(DW_ACCESS_public)
    7111              $C$DW$1028      .dwtag  DW_TAG_member
    7112                      .dwattr $C$DW$1028, DW_AT_type(*$C$DW$T$149)
    7113                      .dwattr $C$DW$1028, DW_AT_name("rsvd7_3")
    7114                      .dwattr $C$DW$1028, DW_AT_TI_symbol_name("_rsvd7_3")
    7115                      .dwattr $C$DW$1028, DW_AT_data_member_location[DW_OP_plus_uconst 0xc4]
    7116                      .dwattr $C$DW$1028, DW_AT_accessibility(DW_ACCESS_public)
    7117              $C$DW$1029      .dwtag  DW_TAG_member
    7118                      .dwattr $C$DW$1029, DW_AT_type(*$C$DW$T$149)
    7119                      .dwattr $C$DW$1029, DW_AT_name("rsvd7_4")
    7120                      .dwattr $C$DW$1029, DW_AT_TI_symbol_name("_rsvd7_4")
    7121                      .dwattr $C$DW$1029, DW_AT_data_member_location[DW_OP_plus_uconst 0xc6]
    7122                      .dwattr $C$DW$1029, DW_AT_accessibility(DW_ACCESS_public)
    7123              $C$DW$1030      .dwtag  DW_TAG_member
    7124                      .dwattr $C$DW$1030, DW_AT_type(*$C$DW$T$149)
    7125                      .dwattr $C$DW$1030, DW_AT_name("rsvd7_5")
    7126                      .dwattr $C$DW$1030, DW_AT_TI_symbol_name("_rsvd7_5")
    7127                      .dwattr $C$DW$1030, DW_AT_data_member_location[DW_OP_plus_uconst 0xc8]
    7128                      .dwattr $C$DW$1030, DW_AT_accessibility(DW_ACCESS_public)
    7129              $C$DW$1031      .dwtag  DW_TAG_member
    7130                      .dwattr $C$DW$1031, DW_AT_type(*$C$DW$T$149)
    7131                      .dwattr $C$DW$1031, DW_AT_name("rsvd7_6")
    7132                      .dwattr $C$DW$1031, DW_AT_TI_symbol_name("_rsvd7_6")
    7133                      .dwattr $C$DW$1031, DW_AT_data_member_location[DW_OP_plus_uconst 0xca]
    7134                      .dwattr $C$DW$1031, DW_AT_accessibility(DW_ACCESS_public)
    7135              $C$DW$1032      .dwtag  DW_TAG_member
    7136                      .dwattr $C$DW$1032, DW_AT_type(*$C$DW$T$149)
    7137                      .dwattr $C$DW$1032, DW_AT_name("rsvd7_7")
    7138                      .dwattr $C$DW$1032, DW_AT_TI_symbol_name("_rsvd7_7")
    7139                      .dwattr $C$DW$1032, DW_AT_data_member_location[DW_OP_plus_uconst 0xcc]
    7140                      .dwattr $C$DW$1032, DW_AT_accessibility(DW_ACCESS_public)
    7141              $C$DW$1033      .dwtag  DW_TAG_member
    7142                      .dwattr $C$DW$1033, DW_AT_type(*$C$DW$T$149)
TMS320C2000 Assembler PC v6.2.5 Thu Jun 22 20:41:15 2017

Tools Copyright (c) 1996-2014 Texas Instruments Incorporated
C:\Users\wmj\AppData\Local\Temp\1712410                              PAGE  137

    7143                      .dwattr $C$DW$1033, DW_AT_name("rsvd7_8")
    7144                      .dwattr $C$DW$1033, DW_AT_TI_symbol_name("_rsvd7_8")
    7145                      .dwattr $C$DW$1033, DW_AT_data_member_location[DW_OP_plus_uconst 0xce]
    7146                      .dwattr $C$DW$1033, DW_AT_accessibility(DW_ACCESS_public)
    7147              $C$DW$1034      .dwtag  DW_TAG_member
    7148                      .dwattr $C$DW$1034, DW_AT_type(*$C$DW$T$149)
    7149                      .dwattr $C$DW$1034, DW_AT_name("I2CINT1A")
    7150                      .dwattr $C$DW$1034, DW_AT_TI_symbol_name("_I2CINT1A")
    7151                      .dwattr $C$DW$1034, DW_AT_data_member_location[DW_OP_plus_uconst 0xd0]
    7152                      .dwattr $C$DW$1034, DW_AT_accessibility(DW_ACCESS_public)
    7153              $C$DW$1035      .dwtag  DW_TAG_member
    7154                      .dwattr $C$DW$1035, DW_AT_type(*$C$DW$T$149)
    7155                      .dwattr $C$DW$1035, DW_AT_name("I2CINT2A")
    7156                      .dwattr $C$DW$1035, DW_AT_TI_symbol_name("_I2CINT2A")
    7157                      .dwattr $C$DW$1035, DW_AT_data_member_location[DW_OP_plus_uconst 0xd2]
    7158                      .dwattr $C$DW$1035, DW_AT_accessibility(DW_ACCESS_public)
    7159              $C$DW$1036      .dwtag  DW_TAG_member
    7160                      .dwattr $C$DW$1036, DW_AT_type(*$C$DW$T$149)
    7161                      .dwattr $C$DW$1036, DW_AT_name("rsvd8_3")
    7162                      .dwattr $C$DW$1036, DW_AT_TI_symbol_name("_rsvd8_3")
    7163                      .dwattr $C$DW$1036, DW_AT_data_member_location[DW_OP_plus_uconst 0xd4]
    7164                      .dwattr $C$DW$1036, DW_AT_accessibility(DW_ACCESS_public)
    7165              $C$DW$1037      .dwtag  DW_TAG_member
    7166                      .dwattr $C$DW$1037, DW_AT_type(*$C$DW$T$149)
    7167                      .dwattr $C$DW$1037, DW_AT_name("rsvd8_4")
    7168                      .dwattr $C$DW$1037, DW_AT_TI_symbol_name("_rsvd8_4")
    7169                      .dwattr $C$DW$1037, DW_AT_data_member_location[DW_OP_plus_uconst 0xd6]
    7170                      .dwattr $C$DW$1037, DW_AT_accessibility(DW_ACCESS_public)
    7171              $C$DW$1038      .dwtag  DW_TAG_member
    7172                      .dwattr $C$DW$1038, DW_AT_type(*$C$DW$T$149)
    7173                      .dwattr $C$DW$1038, DW_AT_name("rsvd8_5")
    7174                      .dwattr $C$DW$1038, DW_AT_TI_symbol_name("_rsvd8_5")
    7175                      .dwattr $C$DW$1038, DW_AT_data_member_location[DW_OP_plus_uconst 0xd8]
    7176                      .dwattr $C$DW$1038, DW_AT_accessibility(DW_ACCESS_public)
    7177              $C$DW$1039      .dwtag  DW_TAG_member
    7178                      .dwattr $C$DW$1039, DW_AT_type(*$C$DW$T$149)
    7179                      .dwattr $C$DW$1039, DW_AT_name("rsvd8_6")
    7180                      .dwattr $C$DW$1039, DW_AT_TI_symbol_name("_rsvd8_6")
    7181                      .dwattr $C$DW$1039, DW_AT_data_member_location[DW_OP_plus_uconst 0xda]
    7182                      .dwattr $C$DW$1039, DW_AT_accessibility(DW_ACCESS_public)
    7183              $C$DW$1040      .dwtag  DW_TAG_member
    7184                      .dwattr $C$DW$1040, DW_AT_type(*$C$DW$T$149)
    7185                      .dwattr $C$DW$1040, DW_AT_name("rsvd8_7")
    7186                      .dwattr $C$DW$1040, DW_AT_TI_symbol_name("_rsvd8_7")
    7187                      .dwattr $C$DW$1040, DW_AT_data_member_location[DW_OP_plus_uconst 0xdc]
    7188                      .dwattr $C$DW$1040, DW_AT_accessibility(DW_ACCESS_public)
    7189              $C$DW$1041      .dwtag  DW_TAG_member
    7190                      .dwattr $C$DW$1041, DW_AT_type(*$C$DW$T$149)
    7191                      .dwattr $C$DW$1041, DW_AT_name("rsvd8_8")
    7192                      .dwattr $C$DW$1041, DW_AT_TI_symbol_name("_rsvd8_8")
    7193                      .dwattr $C$DW$1041, DW_AT_data_member_location[DW_OP_plus_uconst 0xde]
    7194                      .dwattr $C$DW$1041, DW_AT_accessibility(DW_ACCESS_public)
    7195              $C$DW$1042      .dwtag  DW_TAG_member
    7196                      .dwattr $C$DW$1042, DW_AT_type(*$C$DW$T$149)
    7197                      .dwattr $C$DW$1042, DW_AT_name("SCIRXINTA")
TMS320C2000 Assembler PC v6.2.5 Thu Jun 22 20:41:15 2017

Tools Copyright (c) 1996-2014 Texas Instruments Incorporated
C:\Users\wmj\AppData\Local\Temp\1712410                              PAGE  138

    7198                      .dwattr $C$DW$1042, DW_AT_TI_symbol_name("_SCIRXINTA")
    7199                      .dwattr $C$DW$1042, DW_AT_data_member_location[DW_OP_plus_uconst 0xe0]
    7200                      .dwattr $C$DW$1042, DW_AT_accessibility(DW_ACCESS_public)
    7201              $C$DW$1043      .dwtag  DW_TAG_member
    7202                      .dwattr $C$DW$1043, DW_AT_type(*$C$DW$T$149)
    7203                      .dwattr $C$DW$1043, DW_AT_name("SCITXINTA")
    7204                      .dwattr $C$DW$1043, DW_AT_TI_symbol_name("_SCITXINTA")
    7205                      .dwattr $C$DW$1043, DW_AT_data_member_location[DW_OP_plus_uconst 0xe2]
    7206                      .dwattr $C$DW$1043, DW_AT_accessibility(DW_ACCESS_public)
    7207              $C$DW$1044      .dwtag  DW_TAG_member
    7208                      .dwattr $C$DW$1044, DW_AT_type(*$C$DW$T$149)
    7209                      .dwattr $C$DW$1044, DW_AT_name("rsvd9_3")
    7210                      .dwattr $C$DW$1044, DW_AT_TI_symbol_name("_rsvd9_3")
    7211                      .dwattr $C$DW$1044, DW_AT_data_member_location[DW_OP_plus_uconst 0xe4]
    7212                      .dwattr $C$DW$1044, DW_AT_accessibility(DW_ACCESS_public)
    7213              $C$DW$1045      .dwtag  DW_TAG_member
    7214                      .dwattr $C$DW$1045, DW_AT_type(*$C$DW$T$149)
    7215                      .dwattr $C$DW$1045, DW_AT_name("rsvd9_4")
    7216                      .dwattr $C$DW$1045, DW_AT_TI_symbol_name("_rsvd9_4")
    7217                      .dwattr $C$DW$1045, DW_AT_data_member_location[DW_OP_plus_uconst 0xe6]
    7218                      .dwattr $C$DW$1045, DW_AT_accessibility(DW_ACCESS_public)
    7219              $C$DW$1046      .dwtag  DW_TAG_member
    7220                      .dwattr $C$DW$1046, DW_AT_type(*$C$DW$T$149)
    7221                      .dwattr $C$DW$1046, DW_AT_name("rsvd9_5")
    7222                      .dwattr $C$DW$1046, DW_AT_TI_symbol_name("_rsvd9_5")
    7223                      .dwattr $C$DW$1046, DW_AT_data_member_location[DW_OP_plus_uconst 0xe8]
    7224                      .dwattr $C$DW$1046, DW_AT_accessibility(DW_ACCESS_public)
    7225              $C$DW$1047      .dwtag  DW_TAG_member
    7226                      .dwattr $C$DW$1047, DW_AT_type(*$C$DW$T$149)
    7227                      .dwattr $C$DW$1047, DW_AT_name("rsvd9_6")
    7228                      .dwattr $C$DW$1047, DW_AT_TI_symbol_name("_rsvd9_6")
    7229                      .dwattr $C$DW$1047, DW_AT_data_member_location[DW_OP_plus_uconst 0xea]
    7230                      .dwattr $C$DW$1047, DW_AT_accessibility(DW_ACCESS_public)
    7231              $C$DW$1048      .dwtag  DW_TAG_member
    7232                      .dwattr $C$DW$1048, DW_AT_type(*$C$DW$T$149)
    7233                      .dwattr $C$DW$1048, DW_AT_name("rsvd9_7")
    7234                      .dwattr $C$DW$1048, DW_AT_TI_symbol_name("_rsvd9_7")
    7235                      .dwattr $C$DW$1048, DW_AT_data_member_location[DW_OP_plus_uconst 0xec]
    7236                      .dwattr $C$DW$1048, DW_AT_accessibility(DW_ACCESS_public)
    7237              $C$DW$1049      .dwtag  DW_TAG_member
    7238                      .dwattr $C$DW$1049, DW_AT_type(*$C$DW$T$149)
    7239                      .dwattr $C$DW$1049, DW_AT_name("rsvd9_8")
    7240                      .dwattr $C$DW$1049, DW_AT_TI_symbol_name("_rsvd9_8")
    7241                      .dwattr $C$DW$1049, DW_AT_data_member_location[DW_OP_plus_uconst 0xee]
    7242                      .dwattr $C$DW$1049, DW_AT_accessibility(DW_ACCESS_public)
    7243              $C$DW$1050      .dwtag  DW_TAG_member
    7244                      .dwattr $C$DW$1050, DW_AT_type(*$C$DW$T$149)
    7245                      .dwattr $C$DW$1050, DW_AT_name("ADCINT1")
    7246                      .dwattr $C$DW$1050, DW_AT_TI_symbol_name("_ADCINT1")
    7247                      .dwattr $C$DW$1050, DW_AT_data_member_location[DW_OP_plus_uconst 0xf0]
    7248                      .dwattr $C$DW$1050, DW_AT_accessibility(DW_ACCESS_public)
    7249              $C$DW$1051      .dwtag  DW_TAG_member
    7250                      .dwattr $C$DW$1051, DW_AT_type(*$C$DW$T$149)
    7251                      .dwattr $C$DW$1051, DW_AT_name("ADCINT2")
    7252                      .dwattr $C$DW$1051, DW_AT_TI_symbol_name("_ADCINT2")
TMS320C2000 Assembler PC v6.2.5 Thu Jun 22 20:41:15 2017

Tools Copyright (c) 1996-2014 Texas Instruments Incorporated
C:\Users\wmj\AppData\Local\Temp\1712410                              PAGE  139

    7253                      .dwattr $C$DW$1051, DW_AT_data_member_location[DW_OP_plus_uconst 0xf2]
    7254                      .dwattr $C$DW$1051, DW_AT_accessibility(DW_ACCESS_public)
    7255              $C$DW$1052      .dwtag  DW_TAG_member
    7256                      .dwattr $C$DW$1052, DW_AT_type(*$C$DW$T$149)
    7257                      .dwattr $C$DW$1052, DW_AT_name("ADCINT3")
    7258                      .dwattr $C$DW$1052, DW_AT_TI_symbol_name("_ADCINT3")
    7259                      .dwattr $C$DW$1052, DW_AT_data_member_location[DW_OP_plus_uconst 0xf4]
    7260                      .dwattr $C$DW$1052, DW_AT_accessibility(DW_ACCESS_public)
    7261              $C$DW$1053      .dwtag  DW_TAG_member
    7262                      .dwattr $C$DW$1053, DW_AT_type(*$C$DW$T$149)
    7263                      .dwattr $C$DW$1053, DW_AT_name("ADCINT4")
    7264                      .dwattr $C$DW$1053, DW_AT_TI_symbol_name("_ADCINT4")
    7265                      .dwattr $C$DW$1053, DW_AT_data_member_location[DW_OP_plus_uconst 0xf6]
    7266                      .dwattr $C$DW$1053, DW_AT_accessibility(DW_ACCESS_public)
    7267              $C$DW$1054      .dwtag  DW_TAG_member
    7268                      .dwattr $C$DW$1054, DW_AT_type(*$C$DW$T$149)
    7269                      .dwattr $C$DW$1054, DW_AT_name("ADCINT5")
    7270                      .dwattr $C$DW$1054, DW_AT_TI_symbol_name("_ADCINT5")
    7271                      .dwattr $C$DW$1054, DW_AT_data_member_location[DW_OP_plus_uconst 0xf8]
    7272                      .dwattr $C$DW$1054, DW_AT_accessibility(DW_ACCESS_public)
    7273              $C$DW$1055      .dwtag  DW_TAG_member
    7274                      .dwattr $C$DW$1055, DW_AT_type(*$C$DW$T$149)
    7275                      .dwattr $C$DW$1055, DW_AT_name("ADCINT6")
    7276                      .dwattr $C$DW$1055, DW_AT_TI_symbol_name("_ADCINT6")
    7277                      .dwattr $C$DW$1055, DW_AT_data_member_location[DW_OP_plus_uconst 0xfa]
    7278                      .dwattr $C$DW$1055, DW_AT_accessibility(DW_ACCESS_public)
    7279              $C$DW$1056      .dwtag  DW_TAG_member
    7280                      .dwattr $C$DW$1056, DW_AT_type(*$C$DW$T$149)
    7281                      .dwattr $C$DW$1056, DW_AT_name("ADCINT7")
    7282                      .dwattr $C$DW$1056, DW_AT_TI_symbol_name("_ADCINT7")
    7283                      .dwattr $C$DW$1056, DW_AT_data_member_location[DW_OP_plus_uconst 0xfc]
    7284                      .dwattr $C$DW$1056, DW_AT_accessibility(DW_ACCESS_public)
    7285              $C$DW$1057      .dwtag  DW_TAG_member
    7286                      .dwattr $C$DW$1057, DW_AT_type(*$C$DW$T$149)
    7287                      .dwattr $C$DW$1057, DW_AT_name("ADCINT8")
    7288                      .dwattr $C$DW$1057, DW_AT_TI_symbol_name("_ADCINT8")
    7289                      .dwattr $C$DW$1057, DW_AT_data_member_location[DW_OP_plus_uconst 0xfe]
    7290                      .dwattr $C$DW$1057, DW_AT_accessibility(DW_ACCESS_public)
    7291              $C$DW$1058      .dwtag  DW_TAG_member
    7292                      .dwattr $C$DW$1058, DW_AT_type(*$C$DW$T$149)
    7293                      .dwattr $C$DW$1058, DW_AT_name("rsvd11_1")
    7294                      .dwattr $C$DW$1058, DW_AT_TI_symbol_name("_rsvd11_1")
    7295                      .dwattr $C$DW$1058, DW_AT_data_member_location[DW_OP_plus_uconst 0x100]
    7296                      .dwattr $C$DW$1058, DW_AT_accessibility(DW_ACCESS_public)
    7297              $C$DW$1059      .dwtag  DW_TAG_member
    7298                      .dwattr $C$DW$1059, DW_AT_type(*$C$DW$T$149)
    7299                      .dwattr $C$DW$1059, DW_AT_name("rsvd11_2")
    7300                      .dwattr $C$DW$1059, DW_AT_TI_symbol_name("_rsvd11_2")
    7301                      .dwattr $C$DW$1059, DW_AT_data_member_location[DW_OP_plus_uconst 0x102]
    7302                      .dwattr $C$DW$1059, DW_AT_accessibility(DW_ACCESS_public)
    7303              $C$DW$1060      .dwtag  DW_TAG_member
    7304                      .dwattr $C$DW$1060, DW_AT_type(*$C$DW$T$149)
    7305                      .dwattr $C$DW$1060, DW_AT_name("rsvd11_3")
    7306                      .dwattr $C$DW$1060, DW_AT_TI_symbol_name("_rsvd11_3")
    7307                      .dwattr $C$DW$1060, DW_AT_data_member_location[DW_OP_plus_uconst 0x104]
TMS320C2000 Assembler PC v6.2.5 Thu Jun 22 20:41:15 2017

Tools Copyright (c) 1996-2014 Texas Instruments Incorporated
C:\Users\wmj\AppData\Local\Temp\1712410                              PAGE  140

    7308                      .dwattr $C$DW$1060, DW_AT_accessibility(DW_ACCESS_public)
    7309              $C$DW$1061      .dwtag  DW_TAG_member
    7310                      .dwattr $C$DW$1061, DW_AT_type(*$C$DW$T$149)
    7311                      .dwattr $C$DW$1061, DW_AT_name("rsvd11_4")
    7312                      .dwattr $C$DW$1061, DW_AT_TI_symbol_name("_rsvd11_4")
    7313                      .dwattr $C$DW$1061, DW_AT_data_member_location[DW_OP_plus_uconst 0x106]
    7314                      .dwattr $C$DW$1061, DW_AT_accessibility(DW_ACCESS_public)
    7315              $C$DW$1062      .dwtag  DW_TAG_member
    7316                      .dwattr $C$DW$1062, DW_AT_type(*$C$DW$T$149)
    7317                      .dwattr $C$DW$1062, DW_AT_name("rsvd11_5")
    7318                      .dwattr $C$DW$1062, DW_AT_TI_symbol_name("_rsvd11_5")
    7319                      .dwattr $C$DW$1062, DW_AT_data_member_location[DW_OP_plus_uconst 0x108]
    7320                      .dwattr $C$DW$1062, DW_AT_accessibility(DW_ACCESS_public)
    7321              $C$DW$1063      .dwtag  DW_TAG_member
    7322                      .dwattr $C$DW$1063, DW_AT_type(*$C$DW$T$149)
    7323                      .dwattr $C$DW$1063, DW_AT_name("rsvd11_6")
    7324                      .dwattr $C$DW$1063, DW_AT_TI_symbol_name("_rsvd11_6")
    7325                      .dwattr $C$DW$1063, DW_AT_data_member_location[DW_OP_plus_uconst 0x10a]
    7326                      .dwattr $C$DW$1063, DW_AT_accessibility(DW_ACCESS_public)
    7327              $C$DW$1064      .dwtag  DW_TAG_member
    7328                      .dwattr $C$DW$1064, DW_AT_type(*$C$DW$T$149)
    7329                      .dwattr $C$DW$1064, DW_AT_name("rsvd11_7")
    7330                      .dwattr $C$DW$1064, DW_AT_TI_symbol_name("_rsvd11_7")
    7331                      .dwattr $C$DW$1064, DW_AT_data_member_location[DW_OP_plus_uconst 0x10c]
    7332                      .dwattr $C$DW$1064, DW_AT_accessibility(DW_ACCESS_public)
    7333              $C$DW$1065      .dwtag  DW_TAG_member
    7334                      .dwattr $C$DW$1065, DW_AT_type(*$C$DW$T$149)
    7335                      .dwattr $C$DW$1065, DW_AT_name("rsvd11_8")
    7336                      .dwattr $C$DW$1065, DW_AT_TI_symbol_name("_rsvd11_8")
    7337                      .dwattr $C$DW$1065, DW_AT_data_member_location[DW_OP_plus_uconst 0x10e]
    7338                      .dwattr $C$DW$1065, DW_AT_accessibility(DW_ACCESS_public)
    7339              $C$DW$1066      .dwtag  DW_TAG_member
    7340                      .dwattr $C$DW$1066, DW_AT_type(*$C$DW$T$149)
    7341                      .dwattr $C$DW$1066, DW_AT_name("XINT3")
    7342                      .dwattr $C$DW$1066, DW_AT_TI_symbol_name("_XINT3")
    7343                      .dwattr $C$DW$1066, DW_AT_data_member_location[DW_OP_plus_uconst 0x110]
    7344                      .dwattr $C$DW$1066, DW_AT_accessibility(DW_ACCESS_public)
    7345              $C$DW$1067      .dwtag  DW_TAG_member
    7346                      .dwattr $C$DW$1067, DW_AT_type(*$C$DW$T$149)
    7347                      .dwattr $C$DW$1067, DW_AT_name("rsvd12_2")
    7348                      .dwattr $C$DW$1067, DW_AT_TI_symbol_name("_rsvd12_2")
    7349                      .dwattr $C$DW$1067, DW_AT_data_member_location[DW_OP_plus_uconst 0x112]
    7350                      .dwattr $C$DW$1067, DW_AT_accessibility(DW_ACCESS_public)
    7351              $C$DW$1068      .dwtag  DW_TAG_member
    7352                      .dwattr $C$DW$1068, DW_AT_type(*$C$DW$T$149)
    7353                      .dwattr $C$DW$1068, DW_AT_name("rsvd12_3")
    7354                      .dwattr $C$DW$1068, DW_AT_TI_symbol_name("_rsvd12_3")
    7355                      .dwattr $C$DW$1068, DW_AT_data_member_location[DW_OP_plus_uconst 0x114]
    7356                      .dwattr $C$DW$1068, DW_AT_accessibility(DW_ACCESS_public)
    7357              $C$DW$1069      .dwtag  DW_TAG_member
    7358                      .dwattr $C$DW$1069, DW_AT_type(*$C$DW$T$149)
    7359                      .dwattr $C$DW$1069, DW_AT_name("rsvd12_4")
    7360                      .dwattr $C$DW$1069, DW_AT_TI_symbol_name("_rsvd12_4")
    7361                      .dwattr $C$DW$1069, DW_AT_data_member_location[DW_OP_plus_uconst 0x116]
    7362                      .dwattr $C$DW$1069, DW_AT_accessibility(DW_ACCESS_public)
TMS320C2000 Assembler PC v6.2.5 Thu Jun 22 20:41:15 2017

Tools Copyright (c) 1996-2014 Texas Instruments Incorporated
C:\Users\wmj\AppData\Local\Temp\1712410                              PAGE  141

    7363              $C$DW$1070      .dwtag  DW_TAG_member
    7364                      .dwattr $C$DW$1070, DW_AT_type(*$C$DW$T$149)
    7365                      .dwattr $C$DW$1070, DW_AT_name("rsvd12_5")
    7366                      .dwattr $C$DW$1070, DW_AT_TI_symbol_name("_rsvd12_5")
    7367                      .dwattr $C$DW$1070, DW_AT_data_member_location[DW_OP_plus_uconst 0x118]
    7368                      .dwattr $C$DW$1070, DW_AT_accessibility(DW_ACCESS_public)
    7369              $C$DW$1071      .dwtag  DW_TAG_member
    7370                      .dwattr $C$DW$1071, DW_AT_type(*$C$DW$T$149)
    7371                      .dwattr $C$DW$1071, DW_AT_name("rsvd12_6")
    7372                      .dwattr $C$DW$1071, DW_AT_TI_symbol_name("_rsvd12_6")
    7373                      .dwattr $C$DW$1071, DW_AT_data_member_location[DW_OP_plus_uconst 0x11a]
    7374                      .dwattr $C$DW$1071, DW_AT_accessibility(DW_ACCESS_public)
    7375              $C$DW$1072      .dwtag  DW_TAG_member
    7376                      .dwattr $C$DW$1072, DW_AT_type(*$C$DW$T$149)
    7377                      .dwattr $C$DW$1072, DW_AT_name("rsvd12_7")
    7378                      .dwattr $C$DW$1072, DW_AT_TI_symbol_name("_rsvd12_7")
    7379                      .dwattr $C$DW$1072, DW_AT_data_member_location[DW_OP_plus_uconst 0x11c]
    7380                      .dwattr $C$DW$1072, DW_AT_accessibility(DW_ACCESS_public)
    7381              $C$DW$1073      .dwtag  DW_TAG_member
    7382                      .dwattr $C$DW$1073, DW_AT_type(*$C$DW$T$149)
    7383                      .dwattr $C$DW$1073, DW_AT_name("rsvd12_8")
    7384                      .dwattr $C$DW$1073, DW_AT_TI_symbol_name("_rsvd12_8")
    7385                      .dwattr $C$DW$1073, DW_AT_data_member_location[DW_OP_plus_uconst 0x11e]
    7386                      .dwattr $C$DW$1073, DW_AT_accessibility(DW_ACCESS_public)
    7387              $C$DW$1074      .dwtag  DW_TAG_member
    7388                      .dwattr $C$DW$1074, DW_AT_type(*$C$DW$T$150)
    7389                      .dwattr $C$DW$1074, DW_AT_name("rsvd13")
    7390                      .dwattr $C$DW$1074, DW_AT_TI_symbol_name("_rsvd13")
    7391                      .dwattr $C$DW$1074, DW_AT_data_member_location[DW_OP_plus_uconst 0x120]
    7392                      .dwattr $C$DW$1074, DW_AT_accessibility(DW_ACCESS_public)
    7393              $C$DW$1075      .dwtag  DW_TAG_member
    7394                      .dwattr $C$DW$1075, DW_AT_type(*$C$DW$T$29)
    7395                      .dwattr $C$DW$1075, DW_AT_name("XINTnCR")
    7396                      .dwattr $C$DW$1075, DW_AT_TI_symbol_name("_XINTnCR")
    7397                      .dwattr $C$DW$1075, DW_AT_data_member_location[DW_OP_plus_uconst 0x6390]
    7398                      .dwattr $C$DW$1075, DW_AT_accessibility(DW_ACCESS_public)
    7399              $C$DW$1076      .dwtag  DW_TAG_member
    7400                      .dwattr $C$DW$1076, DW_AT_type(*$C$DW$T$28)
    7401                      .dwattr $C$DW$1076, DW_AT_name("rsvd14")
    7402                      .dwattr $C$DW$1076, DW_AT_TI_symbol_name("_rsvd14")
    7403                      .dwattr $C$DW$1076, DW_AT_data_member_location[DW_OP_plus_uconst 0x6393]
    7404                      .dwattr $C$DW$1076, DW_AT_accessibility(DW_ACCESS_public)
    7405              $C$DW$1077      .dwtag  DW_TAG_member
    7406                      .dwattr $C$DW$1077, DW_AT_type(*$C$DW$T$29)
    7407                      .dwattr $C$DW$1077, DW_AT_name("XINTnCTR")
    7408                      .dwattr $C$DW$1077, DW_AT_TI_symbol_name("_XINTnCTR")
    7409                      .dwattr $C$DW$1077, DW_AT_data_member_location[DW_OP_plus_uconst 0x6398]
    7410                      .dwattr $C$DW$1077, DW_AT_accessibility(DW_ACCESS_public)
    7411                      .dwendtag $C$DW$T$151
    7412              
    7413              $C$DW$T$242     .dwtag  DW_TAG_typedef, DW_AT_name("PIE_Obj")
    7414                      .dwattr $C$DW$T$242, DW_AT_type(*$C$DW$T$151)
    7415                      .dwattr $C$DW$T$242, DW_AT_language(DW_LANG_C)
    7416              $C$DW$T$102     .dwtag  DW_TAG_pointer_type
    7417                      .dwattr $C$DW$T$102, DW_AT_type(*$C$DW$T$151)
TMS320C2000 Assembler PC v6.2.5 Thu Jun 22 20:41:15 2017

Tools Copyright (c) 1996-2014 Texas Instruments Incorporated
C:\Users\wmj\AppData\Local\Temp\1712410                              PAGE  142

    7418                      .dwattr $C$DW$T$102, DW_AT_address_class(0x16)
    7419              $C$DW$T$103     .dwtag  DW_TAG_typedef, DW_AT_name("PIE_Handle")
    7420                      .dwattr $C$DW$T$103, DW_AT_type(*$C$DW$T$102)
    7421                      .dwattr $C$DW$T$103, DW_AT_language(DW_LANG_C)
    7422              
    7423              $C$DW$T$152     .dwtag  DW_TAG_structure_type
    7424                      .dwattr $C$DW$T$152, DW_AT_name("_PLL_Obj_")
    7425                      .dwattr $C$DW$T$152, DW_AT_byte_size(0x11)
    7426              $C$DW$1078      .dwtag  DW_TAG_member
    7427                      .dwattr $C$DW$1078, DW_AT_type(*$C$DW$T$24)
    7428                      .dwattr $C$DW$1078, DW_AT_name("PLLSTS")
    7429                      .dwattr $C$DW$1078, DW_AT_TI_symbol_name("_PLLSTS")
    7430                      .dwattr $C$DW$1078, DW_AT_data_member_location[DW_OP_plus_uconst 0x0]
    7431                      .dwattr $C$DW$1078, DW_AT_accessibility(DW_ACCESS_public)
    7432              $C$DW$1079      .dwtag  DW_TAG_member
    7433                      .dwattr $C$DW$1079, DW_AT_type(*$C$DW$T$24)
    7434                      .dwattr $C$DW$1079, DW_AT_name("rsvd_1")
    7435                      .dwattr $C$DW$1079, DW_AT_TI_symbol_name("_rsvd_1")
    7436                      .dwattr $C$DW$1079, DW_AT_data_member_location[DW_OP_plus_uconst 0x1]
    7437                      .dwattr $C$DW$1079, DW_AT_accessibility(DW_ACCESS_public)
    7438              $C$DW$1080      .dwtag  DW_TAG_member
    7439                      .dwattr $C$DW$1080, DW_AT_type(*$C$DW$T$24)
    7440                      .dwattr $C$DW$1080, DW_AT_name("PLLLOCKPRD")
    7441                      .dwattr $C$DW$1080, DW_AT_TI_symbol_name("_PLLLOCKPRD")
    7442                      .dwattr $C$DW$1080, DW_AT_data_member_location[DW_OP_plus_uconst 0x2]
    7443                      .dwattr $C$DW$1080, DW_AT_accessibility(DW_ACCESS_public)
    7444              $C$DW$1081      .dwtag  DW_TAG_member
    7445                      .dwattr $C$DW$1081, DW_AT_type(*$C$DW$T$30)
    7446                      .dwattr $C$DW$1081, DW_AT_name("rsvd_2")
    7447                      .dwattr $C$DW$1081, DW_AT_TI_symbol_name("_rsvd_2")
    7448                      .dwattr $C$DW$1081, DW_AT_data_member_location[DW_OP_plus_uconst 0x3]
    7449                      .dwattr $C$DW$1081, DW_AT_accessibility(DW_ACCESS_public)
    7450              $C$DW$1082      .dwtag  DW_TAG_member
    7451                      .dwattr $C$DW$1082, DW_AT_type(*$C$DW$T$24)
    7452                      .dwattr $C$DW$1082, DW_AT_name("PLLCR")
    7453                      .dwattr $C$DW$1082, DW_AT_TI_symbol_name("_PLLCR")
    7454                      .dwattr $C$DW$1082, DW_AT_data_member_location[DW_OP_plus_uconst 0x10]
    7455                      .dwattr $C$DW$1082, DW_AT_accessibility(DW_ACCESS_public)
    7456                      .dwendtag $C$DW$T$152
    7457              
    7458              $C$DW$T$104     .dwtag  DW_TAG_pointer_type
    7459                      .dwattr $C$DW$T$104, DW_AT_type(*$C$DW$T$152)
    7460                      .dwattr $C$DW$T$104, DW_AT_address_class(0x16)
    7461              $C$DW$T$105     .dwtag  DW_TAG_typedef, DW_AT_name("PLL_Handle")
    7462                      .dwattr $C$DW$T$105, DW_AT_type(*$C$DW$T$104)
    7463                      .dwattr $C$DW$T$105, DW_AT_language(DW_LANG_C)
    7464              
    7465              $C$DW$T$153     .dwtag  DW_TAG_structure_type
    7466                      .dwattr $C$DW$T$153, DW_AT_name("_PWM_Obj_")
    7467                      .dwattr $C$DW$T$153, DW_AT_byte_size(0x3a)
    7468              $C$DW$1083      .dwtag  DW_TAG_member
    7469                      .dwattr $C$DW$1083, DW_AT_type(*$C$DW$T$24)
    7470                      .dwattr $C$DW$1083, DW_AT_name("TBCTL")
    7471                      .dwattr $C$DW$1083, DW_AT_TI_symbol_name("_TBCTL")
    7472                      .dwattr $C$DW$1083, DW_AT_data_member_location[DW_OP_plus_uconst 0x0]
TMS320C2000 Assembler PC v6.2.5 Thu Jun 22 20:41:15 2017

Tools Copyright (c) 1996-2014 Texas Instruments Incorporated
C:\Users\wmj\AppData\Local\Temp\1712410                              PAGE  143

    7473                      .dwattr $C$DW$1083, DW_AT_accessibility(DW_ACCESS_public)
    7474              $C$DW$1084      .dwtag  DW_TAG_member
    7475                      .dwattr $C$DW$1084, DW_AT_type(*$C$DW$T$24)
    7476                      .dwattr $C$DW$1084, DW_AT_name("TBSTS")
    7477                      .dwattr $C$DW$1084, DW_AT_TI_symbol_name("_TBSTS")
    7478                      .dwattr $C$DW$1084, DW_AT_data_member_location[DW_OP_plus_uconst 0x1]
    7479                      .dwattr $C$DW$1084, DW_AT_accessibility(DW_ACCESS_public)
    7480              $C$DW$1085      .dwtag  DW_TAG_member
    7481                      .dwattr $C$DW$1085, DW_AT_type(*$C$DW$T$24)
    7482                      .dwattr $C$DW$1085, DW_AT_name("TBPHSHR")
    7483                      .dwattr $C$DW$1085, DW_AT_TI_symbol_name("_TBPHSHR")
    7484                      .dwattr $C$DW$1085, DW_AT_data_member_location[DW_OP_plus_uconst 0x2]
    7485                      .dwattr $C$DW$1085, DW_AT_accessibility(DW_ACCESS_public)
    7486              $C$DW$1086      .dwtag  DW_TAG_member
    7487                      .dwattr $C$DW$1086, DW_AT_type(*$C$DW$T$24)
    7488                      .dwattr $C$DW$1086, DW_AT_name("TBPHS")
    7489                      .dwattr $C$DW$1086, DW_AT_TI_symbol_name("_TBPHS")
    7490                      .dwattr $C$DW$1086, DW_AT_data_member_location[DW_OP_plus_uconst 0x3]
    7491                      .dwattr $C$DW$1086, DW_AT_accessibility(DW_ACCESS_public)
    7492              $C$DW$1087      .dwtag  DW_TAG_member
    7493                      .dwattr $C$DW$1087, DW_AT_type(*$C$DW$T$24)
    7494                      .dwattr $C$DW$1087, DW_AT_name("TBCTR")
    7495                      .dwattr $C$DW$1087, DW_AT_TI_symbol_name("_TBCTR")
    7496                      .dwattr $C$DW$1087, DW_AT_data_member_location[DW_OP_plus_uconst 0x4]
    7497                      .dwattr $C$DW$1087, DW_AT_accessibility(DW_ACCESS_public)
    7498              $C$DW$1088      .dwtag  DW_TAG_member
    7499                      .dwattr $C$DW$1088, DW_AT_type(*$C$DW$T$24)
    7500                      .dwattr $C$DW$1088, DW_AT_name("TBPRD")
    7501                      .dwattr $C$DW$1088, DW_AT_TI_symbol_name("_TBPRD")
    7502                      .dwattr $C$DW$1088, DW_AT_data_member_location[DW_OP_plus_uconst 0x5]
    7503                      .dwattr $C$DW$1088, DW_AT_accessibility(DW_ACCESS_public)
    7504              $C$DW$1089      .dwtag  DW_TAG_member
    7505                      .dwattr $C$DW$1089, DW_AT_type(*$C$DW$T$24)
    7506                      .dwattr $C$DW$1089, DW_AT_name("TBPRDHR")
    7507                      .dwattr $C$DW$1089, DW_AT_TI_symbol_name("_TBPRDHR")
    7508                      .dwattr $C$DW$1089, DW_AT_data_member_location[DW_OP_plus_uconst 0x6]
    7509                      .dwattr $C$DW$1089, DW_AT_accessibility(DW_ACCESS_public)
    7510              $C$DW$1090      .dwtag  DW_TAG_member
    7511                      .dwattr $C$DW$1090, DW_AT_type(*$C$DW$T$24)
    7512                      .dwattr $C$DW$1090, DW_AT_name("CMPCTL")
    7513                      .dwattr $C$DW$1090, DW_AT_TI_symbol_name("_CMPCTL")
    7514                      .dwattr $C$DW$1090, DW_AT_data_member_location[DW_OP_plus_uconst 0x7]
    7515                      .dwattr $C$DW$1090, DW_AT_accessibility(DW_ACCESS_public)
    7516              $C$DW$1091      .dwtag  DW_TAG_member
    7517                      .dwattr $C$DW$1091, DW_AT_type(*$C$DW$T$24)
    7518                      .dwattr $C$DW$1091, DW_AT_name("CMPAHR")
    7519                      .dwattr $C$DW$1091, DW_AT_TI_symbol_name("_CMPAHR")
    7520                      .dwattr $C$DW$1091, DW_AT_data_member_location[DW_OP_plus_uconst 0x8]
    7521                      .dwattr $C$DW$1091, DW_AT_accessibility(DW_ACCESS_public)
    7522              $C$DW$1092      .dwtag  DW_TAG_member
    7523                      .dwattr $C$DW$1092, DW_AT_type(*$C$DW$T$24)
    7524                      .dwattr $C$DW$1092, DW_AT_name("CMPA")
    7525                      .dwattr $C$DW$1092, DW_AT_TI_symbol_name("_CMPA")
    7526                      .dwattr $C$DW$1092, DW_AT_data_member_location[DW_OP_plus_uconst 0x9]
    7527                      .dwattr $C$DW$1092, DW_AT_accessibility(DW_ACCESS_public)
TMS320C2000 Assembler PC v6.2.5 Thu Jun 22 20:41:15 2017

Tools Copyright (c) 1996-2014 Texas Instruments Incorporated
C:\Users\wmj\AppData\Local\Temp\1712410                              PAGE  144

    7528              $C$DW$1093      .dwtag  DW_TAG_member
    7529                      .dwattr $C$DW$1093, DW_AT_type(*$C$DW$T$24)
    7530                      .dwattr $C$DW$1093, DW_AT_name("CMPB")
    7531                      .dwattr $C$DW$1093, DW_AT_TI_symbol_name("_CMPB")
    7532                      .dwattr $C$DW$1093, DW_AT_data_member_location[DW_OP_plus_uconst 0xa]
    7533                      .dwattr $C$DW$1093, DW_AT_accessibility(DW_ACCESS_public)
    7534              $C$DW$1094      .dwtag  DW_TAG_member
    7535                      .dwattr $C$DW$1094, DW_AT_type(*$C$DW$T$24)
    7536                      .dwattr $C$DW$1094, DW_AT_name("AQCTLA")
    7537                      .dwattr $C$DW$1094, DW_AT_TI_symbol_name("_AQCTLA")
    7538                      .dwattr $C$DW$1094, DW_AT_data_member_location[DW_OP_plus_uconst 0xb]
    7539                      .dwattr $C$DW$1094, DW_AT_accessibility(DW_ACCESS_public)
    7540              $C$DW$1095      .dwtag  DW_TAG_member
    7541                      .dwattr $C$DW$1095, DW_AT_type(*$C$DW$T$24)
    7542                      .dwattr $C$DW$1095, DW_AT_name("AQCTLB")
    7543                      .dwattr $C$DW$1095, DW_AT_TI_symbol_name("_AQCTLB")
    7544                      .dwattr $C$DW$1095, DW_AT_data_member_location[DW_OP_plus_uconst 0xc]
    7545                      .dwattr $C$DW$1095, DW_AT_accessibility(DW_ACCESS_public)
    7546              $C$DW$1096      .dwtag  DW_TAG_member
    7547                      .dwattr $C$DW$1096, DW_AT_type(*$C$DW$T$24)
    7548                      .dwattr $C$DW$1096, DW_AT_name("AQSFRC")
    7549                      .dwattr $C$DW$1096, DW_AT_TI_symbol_name("_AQSFRC")
    7550                      .dwattr $C$DW$1096, DW_AT_data_member_location[DW_OP_plus_uconst 0xd]
    7551                      .dwattr $C$DW$1096, DW_AT_accessibility(DW_ACCESS_public)
    7552              $C$DW$1097      .dwtag  DW_TAG_member
    7553                      .dwattr $C$DW$1097, DW_AT_type(*$C$DW$T$24)
    7554                      .dwattr $C$DW$1097, DW_AT_name("AQCSFRC")
    7555                      .dwattr $C$DW$1097, DW_AT_TI_symbol_name("_AQCSFRC")
    7556                      .dwattr $C$DW$1097, DW_AT_data_member_location[DW_OP_plus_uconst 0xe]
    7557                      .dwattr $C$DW$1097, DW_AT_accessibility(DW_ACCESS_public)
    7558              $C$DW$1098      .dwtag  DW_TAG_member
    7559                      .dwattr $C$DW$1098, DW_AT_type(*$C$DW$T$24)
    7560                      .dwattr $C$DW$1098, DW_AT_name("DBCTL")
    7561                      .dwattr $C$DW$1098, DW_AT_TI_symbol_name("_DBCTL")
    7562                      .dwattr $C$DW$1098, DW_AT_data_member_location[DW_OP_plus_uconst 0xf]
    7563                      .dwattr $C$DW$1098, DW_AT_accessibility(DW_ACCESS_public)
    7564              $C$DW$1099      .dwtag  DW_TAG_member
    7565                      .dwattr $C$DW$1099, DW_AT_type(*$C$DW$T$24)
    7566                      .dwattr $C$DW$1099, DW_AT_name("DBRED")
    7567                      .dwattr $C$DW$1099, DW_AT_TI_symbol_name("_DBRED")
    7568                      .dwattr $C$DW$1099, DW_AT_data_member_location[DW_OP_plus_uconst 0x10]
    7569                      .dwattr $C$DW$1099, DW_AT_accessibility(DW_ACCESS_public)
    7570              $C$DW$1100      .dwtag  DW_TAG_member
    7571                      .dwattr $C$DW$1100, DW_AT_type(*$C$DW$T$24)
    7572                      .dwattr $C$DW$1100, DW_AT_name("DBFED")
    7573                      .dwattr $C$DW$1100, DW_AT_TI_symbol_name("_DBFED")
    7574                      .dwattr $C$DW$1100, DW_AT_data_member_location[DW_OP_plus_uconst 0x11]
    7575                      .dwattr $C$DW$1100, DW_AT_accessibility(DW_ACCESS_public)
    7576              $C$DW$1101      .dwtag  DW_TAG_member
    7577                      .dwattr $C$DW$1101, DW_AT_type(*$C$DW$T$24)
    7578                      .dwattr $C$DW$1101, DW_AT_name("TZSEL")
    7579                      .dwattr $C$DW$1101, DW_AT_TI_symbol_name("_TZSEL")
    7580                      .dwattr $C$DW$1101, DW_AT_data_member_location[DW_OP_plus_uconst 0x12]
    7581                      .dwattr $C$DW$1101, DW_AT_accessibility(DW_ACCESS_public)
    7582              $C$DW$1102      .dwtag  DW_TAG_member
TMS320C2000 Assembler PC v6.2.5 Thu Jun 22 20:41:15 2017

Tools Copyright (c) 1996-2014 Texas Instruments Incorporated
C:\Users\wmj\AppData\Local\Temp\1712410                              PAGE  145

    7583                      .dwattr $C$DW$1102, DW_AT_type(*$C$DW$T$24)
    7584                      .dwattr $C$DW$1102, DW_AT_name("TZDCSEL")
    7585                      .dwattr $C$DW$1102, DW_AT_TI_symbol_name("_TZDCSEL")
    7586                      .dwattr $C$DW$1102, DW_AT_data_member_location[DW_OP_plus_uconst 0x13]
    7587                      .dwattr $C$DW$1102, DW_AT_accessibility(DW_ACCESS_public)
    7588              $C$DW$1103      .dwtag  DW_TAG_member
    7589                      .dwattr $C$DW$1103, DW_AT_type(*$C$DW$T$24)
    7590                      .dwattr $C$DW$1103, DW_AT_name("TZCTL")
    7591                      .dwattr $C$DW$1103, DW_AT_TI_symbol_name("_TZCTL")
    7592                      .dwattr $C$DW$1103, DW_AT_data_member_location[DW_OP_plus_uconst 0x14]
    7593                      .dwattr $C$DW$1103, DW_AT_accessibility(DW_ACCESS_public)
    7594              $C$DW$1104      .dwtag  DW_TAG_member
    7595                      .dwattr $C$DW$1104, DW_AT_type(*$C$DW$T$24)
    7596                      .dwattr $C$DW$1104, DW_AT_name("TZEINT")
    7597                      .dwattr $C$DW$1104, DW_AT_TI_symbol_name("_TZEINT")
    7598                      .dwattr $C$DW$1104, DW_AT_data_member_location[DW_OP_plus_uconst 0x15]
    7599                      .dwattr $C$DW$1104, DW_AT_accessibility(DW_ACCESS_public)
    7600              $C$DW$1105      .dwtag  DW_TAG_member
    7601                      .dwattr $C$DW$1105, DW_AT_type(*$C$DW$T$24)
    7602                      .dwattr $C$DW$1105, DW_AT_name("TZFLG")
    7603                      .dwattr $C$DW$1105, DW_AT_TI_symbol_name("_TZFLG")
    7604                      .dwattr $C$DW$1105, DW_AT_data_member_location[DW_OP_plus_uconst 0x16]
    7605                      .dwattr $C$DW$1105, DW_AT_accessibility(DW_ACCESS_public)
    7606              $C$DW$1106      .dwtag  DW_TAG_member
    7607                      .dwattr $C$DW$1106, DW_AT_type(*$C$DW$T$24)
    7608                      .dwattr $C$DW$1106, DW_AT_name("TZCLR")
    7609                      .dwattr $C$DW$1106, DW_AT_TI_symbol_name("_TZCLR")
    7610                      .dwattr $C$DW$1106, DW_AT_data_member_location[DW_OP_plus_uconst 0x17]
    7611                      .dwattr $C$DW$1106, DW_AT_accessibility(DW_ACCESS_public)
    7612              $C$DW$1107      .dwtag  DW_TAG_member
    7613                      .dwattr $C$DW$1107, DW_AT_type(*$C$DW$T$24)
    7614                      .dwattr $C$DW$1107, DW_AT_name("TZFRC")
    7615                      .dwattr $C$DW$1107, DW_AT_TI_symbol_name("_TZFRC")
    7616                      .dwattr $C$DW$1107, DW_AT_data_member_location[DW_OP_plus_uconst 0x18]
    7617                      .dwattr $C$DW$1107, DW_AT_accessibility(DW_ACCESS_public)
    7618              $C$DW$1108      .dwtag  DW_TAG_member
    7619                      .dwattr $C$DW$1108, DW_AT_type(*$C$DW$T$24)
    7620                      .dwattr $C$DW$1108, DW_AT_name("ETSEL")
    7621                      .dwattr $C$DW$1108, DW_AT_TI_symbol_name("_ETSEL")
    7622                      .dwattr $C$DW$1108, DW_AT_data_member_location[DW_OP_plus_uconst 0x19]
    7623                      .dwattr $C$DW$1108, DW_AT_accessibility(DW_ACCESS_public)
    7624              $C$DW$1109      .dwtag  DW_TAG_member
    7625                      .dwattr $C$DW$1109, DW_AT_type(*$C$DW$T$24)
    7626                      .dwattr $C$DW$1109, DW_AT_name("ETPS")
    7627                      .dwattr $C$DW$1109, DW_AT_TI_symbol_name("_ETPS")
    7628                      .dwattr $C$DW$1109, DW_AT_data_member_location[DW_OP_plus_uconst 0x1a]
    7629                      .dwattr $C$DW$1109, DW_AT_accessibility(DW_ACCESS_public)
    7630              $C$DW$1110      .dwtag  DW_TAG_member
    7631                      .dwattr $C$DW$1110, DW_AT_type(*$C$DW$T$24)
    7632                      .dwattr $C$DW$1110, DW_AT_name("ETFLG")
    7633                      .dwattr $C$DW$1110, DW_AT_TI_symbol_name("_ETFLG")
    7634                      .dwattr $C$DW$1110, DW_AT_data_member_location[DW_OP_plus_uconst 0x1b]
    7635                      .dwattr $C$DW$1110, DW_AT_accessibility(DW_ACCESS_public)
    7636              $C$DW$1111      .dwtag  DW_TAG_member
    7637                      .dwattr $C$DW$1111, DW_AT_type(*$C$DW$T$24)
TMS320C2000 Assembler PC v6.2.5 Thu Jun 22 20:41:15 2017

Tools Copyright (c) 1996-2014 Texas Instruments Incorporated
C:\Users\wmj\AppData\Local\Temp\1712410                              PAGE  146

    7638                      .dwattr $C$DW$1111, DW_AT_name("ETCLR")
    7639                      .dwattr $C$DW$1111, DW_AT_TI_symbol_name("_ETCLR")
    7640                      .dwattr $C$DW$1111, DW_AT_data_member_location[DW_OP_plus_uconst 0x1c]
    7641                      .dwattr $C$DW$1111, DW_AT_accessibility(DW_ACCESS_public)
    7642              $C$DW$1112      .dwtag  DW_TAG_member
    7643                      .dwattr $C$DW$1112, DW_AT_type(*$C$DW$T$24)
    7644                      .dwattr $C$DW$1112, DW_AT_name("ETFRC")
    7645                      .dwattr $C$DW$1112, DW_AT_TI_symbol_name("_ETFRC")
    7646                      .dwattr $C$DW$1112, DW_AT_data_member_location[DW_OP_plus_uconst 0x1d]
    7647                      .dwattr $C$DW$1112, DW_AT_accessibility(DW_ACCESS_public)
    7648              $C$DW$1113      .dwtag  DW_TAG_member
    7649                      .dwattr $C$DW$1113, DW_AT_type(*$C$DW$T$24)
    7650                      .dwattr $C$DW$1113, DW_AT_name("PCCTL")
    7651                      .dwattr $C$DW$1113, DW_AT_TI_symbol_name("_PCCTL")
    7652                      .dwattr $C$DW$1113, DW_AT_data_member_location[DW_OP_plus_uconst 0x1e]
    7653                      .dwattr $C$DW$1113, DW_AT_accessibility(DW_ACCESS_public)
    7654              $C$DW$1114      .dwtag  DW_TAG_member
    7655                      .dwattr $C$DW$1114, DW_AT_type(*$C$DW$T$24)
    7656                      .dwattr $C$DW$1114, DW_AT_name("rsvd_1")
    7657                      .dwattr $C$DW$1114, DW_AT_TI_symbol_name("_rsvd_1")
    7658                      .dwattr $C$DW$1114, DW_AT_data_member_location[DW_OP_plus_uconst 0x1f]
    7659                      .dwattr $C$DW$1114, DW_AT_accessibility(DW_ACCESS_public)
    7660              $C$DW$1115      .dwtag  DW_TAG_member
    7661                      .dwattr $C$DW$1115, DW_AT_type(*$C$DW$T$24)
    7662                      .dwattr $C$DW$1115, DW_AT_name("HRCNFG")
    7663                      .dwattr $C$DW$1115, DW_AT_TI_symbol_name("_HRCNFG")
    7664                      .dwattr $C$DW$1115, DW_AT_data_member_location[DW_OP_plus_uconst 0x20]
    7665                      .dwattr $C$DW$1115, DW_AT_accessibility(DW_ACCESS_public)
    7666              $C$DW$1116      .dwtag  DW_TAG_member
    7667                      .dwattr $C$DW$1116, DW_AT_type(*$C$DW$T$24)
    7668                      .dwattr $C$DW$1116, DW_AT_name("HRPWR")
    7669                      .dwattr $C$DW$1116, DW_AT_TI_symbol_name("_HRPWR")
    7670                      .dwattr $C$DW$1116, DW_AT_data_member_location[DW_OP_plus_uconst 0x21]
    7671                      .dwattr $C$DW$1116, DW_AT_accessibility(DW_ACCESS_public)
    7672              $C$DW$1117      .dwtag  DW_TAG_member
    7673                      .dwattr $C$DW$1117, DW_AT_type(*$C$DW$T$81)
    7674                      .dwattr $C$DW$1117, DW_AT_name("rsvd_2")
    7675                      .dwattr $C$DW$1117, DW_AT_TI_symbol_name("_rsvd_2")
    7676                      .dwattr $C$DW$1117, DW_AT_data_member_location[DW_OP_plus_uconst 0x22]
    7677                      .dwattr $C$DW$1117, DW_AT_accessibility(DW_ACCESS_public)
    7678              $C$DW$1118      .dwtag  DW_TAG_member
    7679                      .dwattr $C$DW$1118, DW_AT_type(*$C$DW$T$24)
    7680                      .dwattr $C$DW$1118, DW_AT_name("HRMSTEP")
    7681                      .dwattr $C$DW$1118, DW_AT_TI_symbol_name("_HRMSTEP")
    7682                      .dwattr $C$DW$1118, DW_AT_data_member_location[DW_OP_plus_uconst 0x26]
    7683                      .dwattr $C$DW$1118, DW_AT_accessibility(DW_ACCESS_public)
    7684              $C$DW$1119      .dwtag  DW_TAG_member
    7685                      .dwattr $C$DW$1119, DW_AT_type(*$C$DW$T$24)
    7686                      .dwattr $C$DW$1119, DW_AT_name("rsvd_3")
    7687                      .dwattr $C$DW$1119, DW_AT_TI_symbol_name("_rsvd_3")
    7688                      .dwattr $C$DW$1119, DW_AT_data_member_location[DW_OP_plus_uconst 0x27]
    7689                      .dwattr $C$DW$1119, DW_AT_accessibility(DW_ACCESS_public)
    7690              $C$DW$1120      .dwtag  DW_TAG_member
    7691                      .dwattr $C$DW$1120, DW_AT_type(*$C$DW$T$24)
    7692                      .dwattr $C$DW$1120, DW_AT_name("HRPCTL")
TMS320C2000 Assembler PC v6.2.5 Thu Jun 22 20:41:15 2017

Tools Copyright (c) 1996-2014 Texas Instruments Incorporated
C:\Users\wmj\AppData\Local\Temp\1712410                              PAGE  147

    7693                      .dwattr $C$DW$1120, DW_AT_TI_symbol_name("_HRPCTL")
    7694                      .dwattr $C$DW$1120, DW_AT_data_member_location[DW_OP_plus_uconst 0x28]
    7695                      .dwattr $C$DW$1120, DW_AT_accessibility(DW_ACCESS_public)
    7696              $C$DW$1121      .dwtag  DW_TAG_member
    7697                      .dwattr $C$DW$1121, DW_AT_type(*$C$DW$T$24)
    7698                      .dwattr $C$DW$1121, DW_AT_name("rsvd_4")
    7699                      .dwattr $C$DW$1121, DW_AT_TI_symbol_name("_rsvd_4")
    7700                      .dwattr $C$DW$1121, DW_AT_data_member_location[DW_OP_plus_uconst 0x29]
    7701                      .dwattr $C$DW$1121, DW_AT_accessibility(DW_ACCESS_public)
    7702              $C$DW$1122      .dwtag  DW_TAG_member
    7703                      .dwattr $C$DW$1122, DW_AT_type(*$C$DW$T$24)
    7704                      .dwattr $C$DW$1122, DW_AT_name("TBPRDHRM")
    7705                      .dwattr $C$DW$1122, DW_AT_TI_symbol_name("_TBPRDHRM")
    7706                      .dwattr $C$DW$1122, DW_AT_data_member_location[DW_OP_plus_uconst 0x2a]
    7707                      .dwattr $C$DW$1122, DW_AT_accessibility(DW_ACCESS_public)
    7708              $C$DW$1123      .dwtag  DW_TAG_member
    7709                      .dwattr $C$DW$1123, DW_AT_type(*$C$DW$T$24)
    7710                      .dwattr $C$DW$1123, DW_AT_name("TBPRDM")
    7711                      .dwattr $C$DW$1123, DW_AT_TI_symbol_name("_TBPRDM")
    7712                      .dwattr $C$DW$1123, DW_AT_data_member_location[DW_OP_plus_uconst 0x2b]
    7713                      .dwattr $C$DW$1123, DW_AT_accessibility(DW_ACCESS_public)
    7714              $C$DW$1124      .dwtag  DW_TAG_member
    7715                      .dwattr $C$DW$1124, DW_AT_type(*$C$DW$T$24)
    7716                      .dwattr $C$DW$1124, DW_AT_name("CMPAHRM")
    7717                      .dwattr $C$DW$1124, DW_AT_TI_symbol_name("_CMPAHRM")
    7718                      .dwattr $C$DW$1124, DW_AT_data_member_location[DW_OP_plus_uconst 0x2c]
    7719                      .dwattr $C$DW$1124, DW_AT_accessibility(DW_ACCESS_public)
    7720              $C$DW$1125      .dwtag  DW_TAG_member
    7721                      .dwattr $C$DW$1125, DW_AT_type(*$C$DW$T$24)
    7722                      .dwattr $C$DW$1125, DW_AT_name("CMPAM")
    7723                      .dwattr $C$DW$1125, DW_AT_TI_symbol_name("_CMPAM")
    7724                      .dwattr $C$DW$1125, DW_AT_data_member_location[DW_OP_plus_uconst 0x2d]
    7725                      .dwattr $C$DW$1125, DW_AT_accessibility(DW_ACCESS_public)
    7726              $C$DW$1126      .dwtag  DW_TAG_member
    7727                      .dwattr $C$DW$1126, DW_AT_type(*$C$DW$T$27)
    7728                      .dwattr $C$DW$1126, DW_AT_name("rsvd_5")
    7729                      .dwattr $C$DW$1126, DW_AT_TI_symbol_name("_rsvd_5")
    7730                      .dwattr $C$DW$1126, DW_AT_data_member_location[DW_OP_plus_uconst 0x2e]
    7731                      .dwattr $C$DW$1126, DW_AT_accessibility(DW_ACCESS_public)
    7732              $C$DW$1127      .dwtag  DW_TAG_member
    7733                      .dwattr $C$DW$1127, DW_AT_type(*$C$DW$T$24)
    7734                      .dwattr $C$DW$1127, DW_AT_name("DCTRIPSEL")
    7735                      .dwattr $C$DW$1127, DW_AT_TI_symbol_name("_DCTRIPSEL")
    7736                      .dwattr $C$DW$1127, DW_AT_data_member_location[DW_OP_plus_uconst 0x30]
    7737                      .dwattr $C$DW$1127, DW_AT_accessibility(DW_ACCESS_public)
    7738              $C$DW$1128      .dwtag  DW_TAG_member
    7739                      .dwattr $C$DW$1128, DW_AT_type(*$C$DW$T$24)
    7740                      .dwattr $C$DW$1128, DW_AT_name("DCACTL")
    7741                      .dwattr $C$DW$1128, DW_AT_TI_symbol_name("_DCACTL")
    7742                      .dwattr $C$DW$1128, DW_AT_data_member_location[DW_OP_plus_uconst 0x31]
    7743                      .dwattr $C$DW$1128, DW_AT_accessibility(DW_ACCESS_public)
    7744              $C$DW$1129      .dwtag  DW_TAG_member
    7745                      .dwattr $C$DW$1129, DW_AT_type(*$C$DW$T$24)
    7746                      .dwattr $C$DW$1129, DW_AT_name("DCBCTL")
    7747                      .dwattr $C$DW$1129, DW_AT_TI_symbol_name("_DCBCTL")
TMS320C2000 Assembler PC v6.2.5 Thu Jun 22 20:41:15 2017

Tools Copyright (c) 1996-2014 Texas Instruments Incorporated
C:\Users\wmj\AppData\Local\Temp\1712410                              PAGE  148

    7748                      .dwattr $C$DW$1129, DW_AT_data_member_location[DW_OP_plus_uconst 0x32]
    7749                      .dwattr $C$DW$1129, DW_AT_accessibility(DW_ACCESS_public)
    7750              $C$DW$1130      .dwtag  DW_TAG_member
    7751                      .dwattr $C$DW$1130, DW_AT_type(*$C$DW$T$24)
    7752                      .dwattr $C$DW$1130, DW_AT_name("DCFCTL")
    7753                      .dwattr $C$DW$1130, DW_AT_TI_symbol_name("_DCFCTL")
    7754                      .dwattr $C$DW$1130, DW_AT_data_member_location[DW_OP_plus_uconst 0x33]
    7755                      .dwattr $C$DW$1130, DW_AT_accessibility(DW_ACCESS_public)
    7756              $C$DW$1131      .dwtag  DW_TAG_member
    7757                      .dwattr $C$DW$1131, DW_AT_type(*$C$DW$T$24)
    7758                      .dwattr $C$DW$1131, DW_AT_name("DCCAPCTL")
    7759                      .dwattr $C$DW$1131, DW_AT_TI_symbol_name("_DCCAPCTL")
    7760                      .dwattr $C$DW$1131, DW_AT_data_member_location[DW_OP_plus_uconst 0x34]
    7761                      .dwattr $C$DW$1131, DW_AT_accessibility(DW_ACCESS_public)
    7762              $C$DW$1132      .dwtag  DW_TAG_member
    7763                      .dwattr $C$DW$1132, DW_AT_type(*$C$DW$T$24)
    7764                      .dwattr $C$DW$1132, DW_AT_name("DCFOFFSET")
    7765                      .dwattr $C$DW$1132, DW_AT_TI_symbol_name("_DCFOFFSET")
    7766                      .dwattr $C$DW$1132, DW_AT_data_member_location[DW_OP_plus_uconst 0x35]
    7767                      .dwattr $C$DW$1132, DW_AT_accessibility(DW_ACCESS_public)
    7768              $C$DW$1133      .dwtag  DW_TAG_member
    7769                      .dwattr $C$DW$1133, DW_AT_type(*$C$DW$T$24)
    7770                      .dwattr $C$DW$1133, DW_AT_name("DCFOFFSETCNT")
    7771                      .dwattr $C$DW$1133, DW_AT_TI_symbol_name("_DCFOFFSETCNT")
    7772                      .dwattr $C$DW$1133, DW_AT_data_member_location[DW_OP_plus_uconst 0x36]
    7773                      .dwattr $C$DW$1133, DW_AT_accessibility(DW_ACCESS_public)
    7774              $C$DW$1134      .dwtag  DW_TAG_member
    7775                      .dwattr $C$DW$1134, DW_AT_type(*$C$DW$T$24)
    7776                      .dwattr $C$DW$1134, DW_AT_name("DCFWINDOW")
    7777                      .dwattr $C$DW$1134, DW_AT_TI_symbol_name("_DCFWINDOW")
    7778                      .dwattr $C$DW$1134, DW_AT_data_member_location[DW_OP_plus_uconst 0x37]
    7779                      .dwattr $C$DW$1134, DW_AT_accessibility(DW_ACCESS_public)
    7780              $C$DW$1135      .dwtag  DW_TAG_member
    7781                      .dwattr $C$DW$1135, DW_AT_type(*$C$DW$T$24)
    7782                      .dwattr $C$DW$1135, DW_AT_name("DCFWINDOWCNT")
    7783                      .dwattr $C$DW$1135, DW_AT_TI_symbol_name("_DCFWINDOWCNT")
    7784                      .dwattr $C$DW$1135, DW_AT_data_member_location[DW_OP_plus_uconst 0x38]
    7785                      .dwattr $C$DW$1135, DW_AT_accessibility(DW_ACCESS_public)
    7786              $C$DW$1136      .dwtag  DW_TAG_member
    7787                      .dwattr $C$DW$1136, DW_AT_type(*$C$DW$T$24)
    7788                      .dwattr $C$DW$1136, DW_AT_name("DCCAP")
    7789                      .dwattr $C$DW$1136, DW_AT_TI_symbol_name("_DCCAP")
    7790                      .dwattr $C$DW$1136, DW_AT_data_member_location[DW_OP_plus_uconst 0x39]
    7791                      .dwattr $C$DW$1136, DW_AT_accessibility(DW_ACCESS_public)
    7792                      .dwendtag $C$DW$T$153
    7793              
    7794              $C$DW$T$243     .dwtag  DW_TAG_typedef, DW_AT_name("PWM_Obj")
    7795                      .dwattr $C$DW$T$243, DW_AT_type(*$C$DW$T$153)
    7796                      .dwattr $C$DW$T$243, DW_AT_language(DW_LANG_C)
    7797              $C$DW$T$106     .dwtag  DW_TAG_pointer_type
    7798                      .dwattr $C$DW$T$106, DW_AT_type(*$C$DW$T$153)
    7799                      .dwattr $C$DW$T$106, DW_AT_address_class(0x16)
    7800              $C$DW$T$107     .dwtag  DW_TAG_typedef, DW_AT_name("PWM_Handle")
    7801                      .dwattr $C$DW$T$107, DW_AT_type(*$C$DW$T$106)
    7802                      .dwattr $C$DW$T$107, DW_AT_language(DW_LANG_C)
TMS320C2000 Assembler PC v6.2.5 Thu Jun 22 20:41:15 2017

Tools Copyright (c) 1996-2014 Texas Instruments Incorporated
C:\Users\wmj\AppData\Local\Temp\1712410                              PAGE  149

    7803              
    7804              $C$DW$T$108     .dwtag  DW_TAG_array_type
    7805                      .dwattr $C$DW$T$108, DW_AT_type(*$C$DW$T$107)
    7806                      .dwattr $C$DW$T$108, DW_AT_language(DW_LANG_C)
    7807                      .dwattr $C$DW$T$108, DW_AT_byte_size(0x06)
    7808              $C$DW$1137      .dwtag  DW_TAG_subrange_type
    7809                      .dwattr $C$DW$1137, DW_AT_upper_bound(0x02)
    7810                      .dwendtag $C$DW$T$108
    7811              
    7812              
    7813              $C$DW$T$155     .dwtag  DW_TAG_structure_type
    7814                      .dwattr $C$DW$T$155, DW_AT_name("_PWR_Obj_")
    7815                      .dwattr $C$DW$T$155, DW_AT_byte_size(0x669a)
    7816              $C$DW$1138      .dwtag  DW_TAG_member
    7817                      .dwattr $C$DW$1138, DW_AT_type(*$C$DW$T$24)
    7818                      .dwattr $C$DW$1138, DW_AT_name("BORCFG")
    7819                      .dwattr $C$DW$1138, DW_AT_TI_symbol_name("_BORCFG")
    7820                      .dwattr $C$DW$1138, DW_AT_data_member_location[DW_OP_plus_uconst 0x0]
    7821                      .dwattr $C$DW$1138, DW_AT_accessibility(DW_ACCESS_public)
    7822              $C$DW$1139      .dwtag  DW_TAG_member
    7823                      .dwattr $C$DW$1139, DW_AT_type(*$C$DW$T$154)
    7824                      .dwattr $C$DW$1139, DW_AT_name("rsvd_1")
    7825                      .dwattr $C$DW$1139, DW_AT_TI_symbol_name("_rsvd_1")
    7826                      .dwattr $C$DW$1139, DW_AT_data_member_location[DW_OP_plus_uconst 0x1]
    7827                      .dwattr $C$DW$1139, DW_AT_accessibility(DW_ACCESS_public)
    7828              $C$DW$1140      .dwtag  DW_TAG_member
    7829                      .dwattr $C$DW$1140, DW_AT_type(*$C$DW$T$24)
    7830                      .dwattr $C$DW$1140, DW_AT_name("LPMCR0")
    7831                      .dwattr $C$DW$1140, DW_AT_TI_symbol_name("_LPMCR0")
    7832                      .dwattr $C$DW$1140, DW_AT_data_member_location[DW_OP_plus_uconst 0x6699]
    7833                      .dwattr $C$DW$1140, DW_AT_accessibility(DW_ACCESS_public)
    7834                      .dwendtag $C$DW$T$155
    7835              
    7836              $C$DW$T$109     .dwtag  DW_TAG_pointer_type
    7837                      .dwattr $C$DW$T$109, DW_AT_type(*$C$DW$T$155)
    7838                      .dwattr $C$DW$T$109, DW_AT_address_class(0x16)
    7839              $C$DW$T$110     .dwtag  DW_TAG_typedef, DW_AT_name("PWR_Handle")
    7840                      .dwattr $C$DW$T$110, DW_AT_type(*$C$DW$T$109)
    7841                      .dwattr $C$DW$T$110, DW_AT_language(DW_LANG_C)
    7842              
    7843              $C$DW$T$156     .dwtag  DW_TAG_structure_type
    7844                      .dwattr $C$DW$T$156, DW_AT_name("_SVGEN_Obj_")
    7845                      .dwattr $C$DW$T$156, DW_AT_byte_size(0x02)
    7846              $C$DW$1141      .dwtag  DW_TAG_member
    7847                      .dwattr $C$DW$1141, DW_AT_type(*$C$DW$T$32)
    7848                      .dwattr $C$DW$1141, DW_AT_name("maxModulation")
    7849                      .dwattr $C$DW$1141, DW_AT_TI_symbol_name("_maxModulation")
    7850                      .dwattr $C$DW$1141, DW_AT_data_member_location[DW_OP_plus_uconst 0x0]
    7851                      .dwattr $C$DW$1141, DW_AT_accessibility(DW_ACCESS_public)
    7852                      .dwendtag $C$DW$T$156
    7853              
    7854              $C$DW$T$62      .dwtag  DW_TAG_typedef, DW_AT_name("SVGEN_Obj")
    7855                      .dwattr $C$DW$T$62, DW_AT_type(*$C$DW$T$156)
    7856                      .dwattr $C$DW$T$62, DW_AT_language(DW_LANG_C)
    7857              $C$DW$T$60      .dwtag  DW_TAG_pointer_type
TMS320C2000 Assembler PC v6.2.5 Thu Jun 22 20:41:15 2017

Tools Copyright (c) 1996-2014 Texas Instruments Incorporated
C:\Users\wmj\AppData\Local\Temp\1712410                              PAGE  150

    7858                      .dwattr $C$DW$T$60, DW_AT_type(*$C$DW$T$156)
    7859                      .dwattr $C$DW$T$60, DW_AT_address_class(0x16)
    7860              $C$DW$T$61      .dwtag  DW_TAG_typedef, DW_AT_name("SVGEN_Handle")
    7861                      .dwattr $C$DW$T$61, DW_AT_type(*$C$DW$T$60)
    7862                      .dwattr $C$DW$T$61, DW_AT_language(DW_LANG_C)
    7863              
    7864              $C$DW$T$157     .dwtag  DW_TAG_structure_type
    7865                      .dwattr $C$DW$T$157, DW_AT_name("_TIMER_Obj_")
    7866                      .dwattr $C$DW$T$157, DW_AT_byte_size(0x08)
    7867              $C$DW$1142      .dwtag  DW_TAG_member
    7868                      .dwattr $C$DW$1142, DW_AT_type(*$C$DW$T$79)
    7869                      .dwattr $C$DW$1142, DW_AT_name("TIM")
    7870                      .dwattr $C$DW$1142, DW_AT_TI_symbol_name("_TIM")
    7871                      .dwattr $C$DW$1142, DW_AT_data_member_location[DW_OP_plus_uconst 0x0]
    7872                      .dwattr $C$DW$1142, DW_AT_accessibility(DW_ACCESS_public)
    7873              $C$DW$1143      .dwtag  DW_TAG_member
    7874                      .dwattr $C$DW$1143, DW_AT_type(*$C$DW$T$79)
    7875                      .dwattr $C$DW$1143, DW_AT_name("PRD")
    7876                      .dwattr $C$DW$1143, DW_AT_TI_symbol_name("_PRD")
    7877                      .dwattr $C$DW$1143, DW_AT_data_member_location[DW_OP_plus_uconst 0x2]
    7878                      .dwattr $C$DW$1143, DW_AT_accessibility(DW_ACCESS_public)
    7879              $C$DW$1144      .dwtag  DW_TAG_member
    7880                      .dwattr $C$DW$1144, DW_AT_type(*$C$DW$T$24)
    7881                      .dwattr $C$DW$1144, DW_AT_name("TCR")
    7882                      .dwattr $C$DW$1144, DW_AT_TI_symbol_name("_TCR")
    7883                      .dwattr $C$DW$1144, DW_AT_data_member_location[DW_OP_plus_uconst 0x4]
    7884                      .dwattr $C$DW$1144, DW_AT_accessibility(DW_ACCESS_public)
    7885              $C$DW$1145      .dwtag  DW_TAG_member
    7886                      .dwattr $C$DW$1145, DW_AT_type(*$C$DW$T$24)
    7887                      .dwattr $C$DW$1145, DW_AT_name("resvd_1")
    7888                      .dwattr $C$DW$1145, DW_AT_TI_symbol_name("_resvd_1")
    7889                      .dwattr $C$DW$1145, DW_AT_data_member_location[DW_OP_plus_uconst 0x5]
    7890                      .dwattr $C$DW$1145, DW_AT_accessibility(DW_ACCESS_public)
    7891              $C$DW$1146      .dwtag  DW_TAG_member
    7892                      .dwattr $C$DW$1146, DW_AT_type(*$C$DW$T$79)
    7893                      .dwattr $C$DW$1146, DW_AT_name("TPR")
    7894                      .dwattr $C$DW$1146, DW_AT_TI_symbol_name("_TPR")
    7895                      .dwattr $C$DW$1146, DW_AT_data_member_location[DW_OP_plus_uconst 0x6]
    7896                      .dwattr $C$DW$1146, DW_AT_accessibility(DW_ACCESS_public)
    7897                      .dwendtag $C$DW$T$157
    7898              
    7899              $C$DW$T$245     .dwtag  DW_TAG_typedef, DW_AT_name("TIMER_Obj")
    7900                      .dwattr $C$DW$T$245, DW_AT_type(*$C$DW$T$157)
    7901                      .dwattr $C$DW$T$245, DW_AT_language(DW_LANG_C)
    7902              $C$DW$T$246     .dwtag  DW_TAG_pointer_type
    7903                      .dwattr $C$DW$T$246, DW_AT_type(*$C$DW$T$245)
    7904                      .dwattr $C$DW$T$246, DW_AT_address_class(0x16)
    7905              $C$DW$1147      .dwtag  DW_TAG_TI_far_type
    7906                      .dwattr $C$DW$1147, DW_AT_type(*$C$DW$T$246)
    7907              $C$DW$T$247     .dwtag  DW_TAG_volatile_type
    7908                      .dwattr $C$DW$T$247, DW_AT_type(*$C$DW$1147)
    7909              $C$DW$T$111     .dwtag  DW_TAG_pointer_type
    7910                      .dwattr $C$DW$T$111, DW_AT_type(*$C$DW$T$157)
    7911                      .dwattr $C$DW$T$111, DW_AT_address_class(0x16)
    7912              $C$DW$T$112     .dwtag  DW_TAG_typedef, DW_AT_name("TIMER_Handle")
TMS320C2000 Assembler PC v6.2.5 Thu Jun 22 20:41:15 2017

Tools Copyright (c) 1996-2014 Texas Instruments Incorporated
C:\Users\wmj\AppData\Local\Temp\1712410                              PAGE  151

    7913                      .dwattr $C$DW$T$112, DW_AT_type(*$C$DW$T$111)
    7914                      .dwattr $C$DW$T$112, DW_AT_language(DW_LANG_C)
    7915              $C$DW$1148      .dwtag  DW_TAG_TI_far_type
    7916                      .dwattr $C$DW$1148, DW_AT_type(*$C$DW$T$112)
    7917              $C$DW$T$248     .dwtag  DW_TAG_const_type
    7918                      .dwattr $C$DW$T$248, DW_AT_type(*$C$DW$1148)
    7919              
    7920              $C$DW$T$113     .dwtag  DW_TAG_array_type
    7921                      .dwattr $C$DW$T$113, DW_AT_type(*$C$DW$T$112)
    7922                      .dwattr $C$DW$T$113, DW_AT_language(DW_LANG_C)
    7923                      .dwattr $C$DW$T$113, DW_AT_byte_size(0x06)
    7924              $C$DW$1149      .dwtag  DW_TAG_subrange_type
    7925                      .dwattr $C$DW$1149, DW_AT_upper_bound(0x02)
    7926                      .dwendtag $C$DW$T$113
    7927              
    7928              
    7929              $C$DW$T$158     .dwtag  DW_TAG_structure_type
    7930                      .dwattr $C$DW$T$158, DW_AT_name("_TRAJ_Obj_")
    7931                      .dwattr $C$DW$T$158, DW_AT_byte_size(0x0a)
    7932              $C$DW$1150      .dwtag  DW_TAG_member
    7933                      .dwattr $C$DW$1150, DW_AT_type(*$C$DW$T$32)
    7934                      .dwattr $C$DW$1150, DW_AT_name("targetValue")
    7935                      .dwattr $C$DW$1150, DW_AT_TI_symbol_name("_targetValue")
    7936                      .dwattr $C$DW$1150, DW_AT_data_member_location[DW_OP_plus_uconst 0x0]
    7937                      .dwattr $C$DW$1150, DW_AT_accessibility(DW_ACCESS_public)
    7938              $C$DW$1151      .dwtag  DW_TAG_member
    7939                      .dwattr $C$DW$1151, DW_AT_type(*$C$DW$T$32)
    7940                      .dwattr $C$DW$1151, DW_AT_name("intValue")
    7941                      .dwattr $C$DW$1151, DW_AT_TI_symbol_name("_intValue")
    7942                      .dwattr $C$DW$1151, DW_AT_data_member_location[DW_OP_plus_uconst 0x2]
    7943                      .dwattr $C$DW$1151, DW_AT_accessibility(DW_ACCESS_public)
    7944              $C$DW$1152      .dwtag  DW_TAG_member
    7945                      .dwattr $C$DW$1152, DW_AT_type(*$C$DW$T$32)
    7946                      .dwattr $C$DW$1152, DW_AT_name("minValue")
    7947                      .dwattr $C$DW$1152, DW_AT_TI_symbol_name("_minValue")
    7948                      .dwattr $C$DW$1152, DW_AT_data_member_location[DW_OP_plus_uconst 0x4]
    7949                      .dwattr $C$DW$1152, DW_AT_accessibility(DW_ACCESS_public)
    7950              $C$DW$1153      .dwtag  DW_TAG_member
    7951                      .dwattr $C$DW$1153, DW_AT_type(*$C$DW$T$32)
    7952                      .dwattr $C$DW$1153, DW_AT_name("maxValue")
    7953                      .dwattr $C$DW$1153, DW_AT_TI_symbol_name("_maxValue")
    7954                      .dwattr $C$DW$1153, DW_AT_data_member_location[DW_OP_plus_uconst 0x6]
    7955                      .dwattr $C$DW$1153, DW_AT_accessibility(DW_ACCESS_public)
    7956              $C$DW$1154      .dwtag  DW_TAG_member
    7957                      .dwattr $C$DW$1154, DW_AT_type(*$C$DW$T$32)
    7958                      .dwattr $C$DW$1154, DW_AT_name("maxDelta")
    7959                      .dwattr $C$DW$1154, DW_AT_TI_symbol_name("_maxDelta")
    7960                      .dwattr $C$DW$1154, DW_AT_data_member_location[DW_OP_plus_uconst 0x8]
    7961                      .dwattr $C$DW$1154, DW_AT_accessibility(DW_ACCESS_public)
    7962                      .dwendtag $C$DW$T$158
    7963              
    7964              $C$DW$T$65      .dwtag  DW_TAG_typedef, DW_AT_name("TRAJ_Obj")
    7965                      .dwattr $C$DW$T$65, DW_AT_type(*$C$DW$T$158)
    7966                      .dwattr $C$DW$T$65, DW_AT_language(DW_LANG_C)
    7967              $C$DW$T$63      .dwtag  DW_TAG_pointer_type
TMS320C2000 Assembler PC v6.2.5 Thu Jun 22 20:41:15 2017

Tools Copyright (c) 1996-2014 Texas Instruments Incorporated
C:\Users\wmj\AppData\Local\Temp\1712410                              PAGE  152

    7968                      .dwattr $C$DW$T$63, DW_AT_type(*$C$DW$T$158)
    7969                      .dwattr $C$DW$T$63, DW_AT_address_class(0x16)
    7970              $C$DW$T$64      .dwtag  DW_TAG_typedef, DW_AT_name("TRAJ_Handle")
    7971                      .dwattr $C$DW$T$64, DW_AT_type(*$C$DW$T$63)
    7972                      .dwattr $C$DW$T$64, DW_AT_language(DW_LANG_C)
    7973              
    7974              $C$DW$T$162     .dwtag  DW_TAG_structure_type
    7975                      .dwattr $C$DW$T$162, DW_AT_name("_USER_Params_")
    7976                      .dwattr $C$DW$T$162, DW_AT_byte_size(0xac)
    7977              $C$DW$1155      .dwtag  DW_TAG_member
    7978                      .dwattr $C$DW$1155, DW_AT_type(*$C$DW$T$70)
    7979                      .dwattr $C$DW$1155, DW_AT_name("iqFullScaleCurrent_A")
    7980                      .dwattr $C$DW$1155, DW_AT_TI_symbol_name("_iqFullScaleCurrent_A")
    7981                      .dwattr $C$DW$1155, DW_AT_data_member_location[DW_OP_plus_uconst 0x0]
    7982                      .dwattr $C$DW$1155, DW_AT_accessibility(DW_ACCESS_public)
    7983              $C$DW$1156      .dwtag  DW_TAG_member
    7984                      .dwattr $C$DW$1156, DW_AT_type(*$C$DW$T$70)
    7985                      .dwattr $C$DW$1156, DW_AT_name("iqFullScaleVoltage_V")
    7986                      .dwattr $C$DW$1156, DW_AT_TI_symbol_name("_iqFullScaleVoltage_V")
    7987                      .dwattr $C$DW$1156, DW_AT_data_member_location[DW_OP_plus_uconst 0x2]
    7988                      .dwattr $C$DW$1156, DW_AT_accessibility(DW_ACCESS_public)
    7989              $C$DW$1157      .dwtag  DW_TAG_member
    7990                      .dwattr $C$DW$1157, DW_AT_type(*$C$DW$T$70)
    7991                      .dwattr $C$DW$1157, DW_AT_name("iqFullScaleFreq_Hz")
    7992                      .dwattr $C$DW$1157, DW_AT_TI_symbol_name("_iqFullScaleFreq_Hz")
    7993                      .dwattr $C$DW$1157, DW_AT_data_member_location[DW_OP_plus_uconst 0x4]
    7994                      .dwattr $C$DW$1157, DW_AT_accessibility(DW_ACCESS_public)
    7995              $C$DW$1158      .dwtag  DW_TAG_member
    7996                      .dwattr $C$DW$1158, DW_AT_type(*$C$DW$T$69)
    7997                      .dwattr $C$DW$1158, DW_AT_name("numIsrTicksPerCtrlTick")
    7998                      .dwattr $C$DW$1158, DW_AT_TI_symbol_name("_numIsrTicksPerCtrlTick")
    7999                      .dwattr $C$DW$1158, DW_AT_data_member_location[DW_OP_plus_uconst 0x6]
    8000                      .dwattr $C$DW$1158, DW_AT_accessibility(DW_ACCESS_public)
    8001              $C$DW$1159      .dwtag  DW_TAG_member
    8002                      .dwattr $C$DW$1159, DW_AT_type(*$C$DW$T$69)
    8003                      .dwattr $C$DW$1159, DW_AT_name("numCtrlTicksPerCurrentTick")
    8004                      .dwattr $C$DW$1159, DW_AT_TI_symbol_name("_numCtrlTicksPerCurrentTick")
    8005                      .dwattr $C$DW$1159, DW_AT_data_member_location[DW_OP_plus_uconst 0x7]
    8006                      .dwattr $C$DW$1159, DW_AT_accessibility(DW_ACCESS_public)
    8007              $C$DW$1160      .dwtag  DW_TAG_member
    8008                      .dwattr $C$DW$1160, DW_AT_type(*$C$DW$T$69)
    8009                      .dwattr $C$DW$1160, DW_AT_name("numCtrlTicksPerEstTick")
    8010                      .dwattr $C$DW$1160, DW_AT_TI_symbol_name("_numCtrlTicksPerEstTick")
    8011                      .dwattr $C$DW$1160, DW_AT_data_member_location[DW_OP_plus_uconst 0x8]
    8012                      .dwattr $C$DW$1160, DW_AT_accessibility(DW_ACCESS_public)
    8013              $C$DW$1161      .dwtag  DW_TAG_member
    8014                      .dwattr $C$DW$1161, DW_AT_type(*$C$DW$T$69)
    8015                      .dwattr $C$DW$1161, DW_AT_name("numCtrlTicksPerSpeedTick")
    8016                      .dwattr $C$DW$1161, DW_AT_TI_symbol_name("_numCtrlTicksPerSpeedTick")
    8017                      .dwattr $C$DW$1161, DW_AT_data_member_location[DW_OP_plus_uconst 0x9]
    8018                      .dwattr $C$DW$1161, DW_AT_accessibility(DW_ACCESS_public)
    8019              $C$DW$1162      .dwtag  DW_TAG_member
    8020                      .dwattr $C$DW$1162, DW_AT_type(*$C$DW$T$69)
    8021                      .dwattr $C$DW$1162, DW_AT_name("numCtrlTicksPerTrajTick")
    8022                      .dwattr $C$DW$1162, DW_AT_TI_symbol_name("_numCtrlTicksPerTrajTick")
TMS320C2000 Assembler PC v6.2.5 Thu Jun 22 20:41:15 2017

Tools Copyright (c) 1996-2014 Texas Instruments Incorporated
C:\Users\wmj\AppData\Local\Temp\1712410                              PAGE  153

    8023                      .dwattr $C$DW$1162, DW_AT_data_member_location[DW_OP_plus_uconst 0xa]
    8024                      .dwattr $C$DW$1162, DW_AT_accessibility(DW_ACCESS_public)
    8025              $C$DW$1163      .dwtag  DW_TAG_member
    8026                      .dwattr $C$DW$1163, DW_AT_type(*$C$DW$T$33)
    8027                      .dwattr $C$DW$1163, DW_AT_name("numCurrentSensors")
    8028                      .dwattr $C$DW$1163, DW_AT_TI_symbol_name("_numCurrentSensors")
    8029                      .dwattr $C$DW$1163, DW_AT_data_member_location[DW_OP_plus_uconst 0xb]
    8030                      .dwattr $C$DW$1163, DW_AT_accessibility(DW_ACCESS_public)
    8031              $C$DW$1164      .dwtag  DW_TAG_member
    8032                      .dwattr $C$DW$1164, DW_AT_type(*$C$DW$T$33)
    8033                      .dwattr $C$DW$1164, DW_AT_name("numVoltageSensors")
    8034                      .dwattr $C$DW$1164, DW_AT_TI_symbol_name("_numVoltageSensors")
    8035                      .dwattr $C$DW$1164, DW_AT_data_member_location[DW_OP_plus_uconst 0xc]
    8036                      .dwattr $C$DW$1164, DW_AT_accessibility(DW_ACCESS_public)
    8037              $C$DW$1165      .dwtag  DW_TAG_member
    8038                      .dwattr $C$DW$1165, DW_AT_type(*$C$DW$T$70)
    8039                      .dwattr $C$DW$1165, DW_AT_name("offsetPole_rps")
    8040                      .dwattr $C$DW$1165, DW_AT_TI_symbol_name("_offsetPole_rps")
    8041                      .dwattr $C$DW$1165, DW_AT_data_member_location[DW_OP_plus_uconst 0xe]
    8042                      .dwattr $C$DW$1165, DW_AT_accessibility(DW_ACCESS_public)
    8043              $C$DW$1166      .dwtag  DW_TAG_member
    8044                      .dwattr $C$DW$1166, DW_AT_type(*$C$DW$T$70)
    8045                      .dwattr $C$DW$1166, DW_AT_name("fluxPole_rps")
    8046                      .dwattr $C$DW$1166, DW_AT_TI_symbol_name("_fluxPole_rps")
    8047                      .dwattr $C$DW$1166, DW_AT_data_member_location[DW_OP_plus_uconst 0x10]
    8048                      .dwattr $C$DW$1166, DW_AT_accessibility(DW_ACCESS_public)
    8049              $C$DW$1167      .dwtag  DW_TAG_member
    8050                      .dwattr $C$DW$1167, DW_AT_type(*$C$DW$T$70)
    8051                      .dwattr $C$DW$1167, DW_AT_name("zeroSpeedLimit")
    8052                      .dwattr $C$DW$1167, DW_AT_TI_symbol_name("_zeroSpeedLimit")
    8053                      .dwattr $C$DW$1167, DW_AT_data_member_location[DW_OP_plus_uconst 0x12]
    8054                      .dwattr $C$DW$1167, DW_AT_accessibility(DW_ACCESS_public)
    8055              $C$DW$1168      .dwtag  DW_TAG_member
    8056                      .dwattr $C$DW$1168, DW_AT_type(*$C$DW$T$70)
    8057                      .dwattr $C$DW$1168, DW_AT_name("forceAngleFreq_Hz")
    8058                      .dwattr $C$DW$1168, DW_AT_TI_symbol_name("_forceAngleFreq_Hz")
    8059                      .dwattr $C$DW$1168, DW_AT_data_member_location[DW_OP_plus_uconst 0x14]
    8060                      .dwattr $C$DW$1168, DW_AT_accessibility(DW_ACCESS_public)
    8061              $C$DW$1169      .dwtag  DW_TAG_member
    8062                      .dwattr $C$DW$1169, DW_AT_type(*$C$DW$T$70)
    8063                      .dwattr $C$DW$1169, DW_AT_name("maxAccel_Hzps")
    8064                      .dwattr $C$DW$1169, DW_AT_TI_symbol_name("_maxAccel_Hzps")
    8065                      .dwattr $C$DW$1169, DW_AT_data_member_location[DW_OP_plus_uconst 0x16]
    8066                      .dwattr $C$DW$1169, DW_AT_accessibility(DW_ACCESS_public)
    8067              $C$DW$1170      .dwtag  DW_TAG_member
    8068                      .dwattr $C$DW$1170, DW_AT_type(*$C$DW$T$70)
    8069                      .dwattr $C$DW$1170, DW_AT_name("maxAccel_est_Hzps")
    8070                      .dwattr $C$DW$1170, DW_AT_TI_symbol_name("_maxAccel_est_Hzps")
    8071                      .dwattr $C$DW$1170, DW_AT_data_member_location[DW_OP_plus_uconst 0x18]
    8072                      .dwattr $C$DW$1170, DW_AT_accessibility(DW_ACCESS_public)
    8073              $C$DW$1171      .dwtag  DW_TAG_member
    8074                      .dwattr $C$DW$1171, DW_AT_type(*$C$DW$T$70)
    8075                      .dwattr $C$DW$1171, DW_AT_name("directionPole_rps")
    8076                      .dwattr $C$DW$1171, DW_AT_TI_symbol_name("_directionPole_rps")
    8077                      .dwattr $C$DW$1171, DW_AT_data_member_location[DW_OP_plus_uconst 0x1a]
TMS320C2000 Assembler PC v6.2.5 Thu Jun 22 20:41:15 2017

Tools Copyright (c) 1996-2014 Texas Instruments Incorporated
C:\Users\wmj\AppData\Local\Temp\1712410                              PAGE  154

    8078                      .dwattr $C$DW$1171, DW_AT_accessibility(DW_ACCESS_public)
    8079              $C$DW$1172      .dwtag  DW_TAG_member
    8080                      .dwattr $C$DW$1172, DW_AT_type(*$C$DW$T$70)
    8081                      .dwattr $C$DW$1172, DW_AT_name("speedPole_rps")
    8082                      .dwattr $C$DW$1172, DW_AT_TI_symbol_name("_speedPole_rps")
    8083                      .dwattr $C$DW$1172, DW_AT_data_member_location[DW_OP_plus_uconst 0x1c]
    8084                      .dwattr $C$DW$1172, DW_AT_accessibility(DW_ACCESS_public)
    8085              $C$DW$1173      .dwtag  DW_TAG_member
    8086                      .dwattr $C$DW$1173, DW_AT_type(*$C$DW$T$70)
    8087                      .dwattr $C$DW$1173, DW_AT_name("dcBusPole_rps")
    8088                      .dwattr $C$DW$1173, DW_AT_TI_symbol_name("_dcBusPole_rps")
    8089                      .dwattr $C$DW$1173, DW_AT_data_member_location[DW_OP_plus_uconst 0x1e]
    8090                      .dwattr $C$DW$1173, DW_AT_accessibility(DW_ACCESS_public)
    8091              $C$DW$1174      .dwtag  DW_TAG_member
    8092                      .dwattr $C$DW$1174, DW_AT_type(*$C$DW$T$70)
    8093                      .dwattr $C$DW$1174, DW_AT_name("fluxFraction")
    8094                      .dwattr $C$DW$1174, DW_AT_TI_symbol_name("_fluxFraction")
    8095                      .dwattr $C$DW$1174, DW_AT_data_member_location[DW_OP_plus_uconst 0x20]
    8096                      .dwattr $C$DW$1174, DW_AT_accessibility(DW_ACCESS_public)
    8097              $C$DW$1175      .dwtag  DW_TAG_member
    8098                      .dwattr $C$DW$1175, DW_AT_type(*$C$DW$T$70)
    8099                      .dwattr $C$DW$1175, DW_AT_name("indEst_speedMaxFraction")
    8100                      .dwattr $C$DW$1175, DW_AT_TI_symbol_name("_indEst_speedMaxFraction")
    8101                      .dwattr $C$DW$1175, DW_AT_data_member_location[DW_OP_plus_uconst 0x22]
    8102                      .dwattr $C$DW$1175, DW_AT_accessibility(DW_ACCESS_public)
    8103              $C$DW$1176      .dwtag  DW_TAG_member
    8104                      .dwattr $C$DW$1176, DW_AT_type(*$C$DW$T$70)
    8105                      .dwattr $C$DW$1176, DW_AT_name("powerWarpGain")
    8106                      .dwattr $C$DW$1176, DW_AT_TI_symbol_name("_powerWarpGain")
    8107                      .dwattr $C$DW$1176, DW_AT_data_member_location[DW_OP_plus_uconst 0x24]
    8108                      .dwattr $C$DW$1176, DW_AT_accessibility(DW_ACCESS_public)
    8109              $C$DW$1177      .dwtag  DW_TAG_member
    8110                      .dwattr $C$DW$1177, DW_AT_type(*$C$DW$T$69)
    8111                      .dwattr $C$DW$1177, DW_AT_name("systemFreq_MHz")
    8112                      .dwattr $C$DW$1177, DW_AT_TI_symbol_name("_systemFreq_MHz")
    8113                      .dwattr $C$DW$1177, DW_AT_data_member_location[DW_OP_plus_uconst 0x26]
    8114                      .dwattr $C$DW$1177, DW_AT_accessibility(DW_ACCESS_public)
    8115              $C$DW$1178      .dwtag  DW_TAG_member
    8116                      .dwattr $C$DW$1178, DW_AT_type(*$C$DW$T$70)
    8117                      .dwattr $C$DW$1178, DW_AT_name("pwmPeriod_usec")
    8118                      .dwattr $C$DW$1178, DW_AT_TI_symbol_name("_pwmPeriod_usec")
    8119                      .dwattr $C$DW$1178, DW_AT_data_member_location[DW_OP_plus_uconst 0x28]
    8120                      .dwattr $C$DW$1178, DW_AT_accessibility(DW_ACCESS_public)
    8121              $C$DW$1179      .dwtag  DW_TAG_member
    8122                      .dwattr $C$DW$1179, DW_AT_type(*$C$DW$T$70)
    8123                      .dwattr $C$DW$1179, DW_AT_name("voltage_sf")
    8124                      .dwattr $C$DW$1179, DW_AT_TI_symbol_name("_voltage_sf")
    8125                      .dwattr $C$DW$1179, DW_AT_data_member_location[DW_OP_plus_uconst 0x2a]
    8126                      .dwattr $C$DW$1179, DW_AT_accessibility(DW_ACCESS_public)
    8127              $C$DW$1180      .dwtag  DW_TAG_member
    8128                      .dwattr $C$DW$1180, DW_AT_type(*$C$DW$T$70)
    8129                      .dwattr $C$DW$1180, DW_AT_name("current_sf")
    8130                      .dwattr $C$DW$1180, DW_AT_TI_symbol_name("_current_sf")
    8131                      .dwattr $C$DW$1180, DW_AT_data_member_location[DW_OP_plus_uconst 0x2c]
    8132                      .dwattr $C$DW$1180, DW_AT_accessibility(DW_ACCESS_public)
TMS320C2000 Assembler PC v6.2.5 Thu Jun 22 20:41:15 2017

Tools Copyright (c) 1996-2014 Texas Instruments Incorporated
C:\Users\wmj\AppData\Local\Temp\1712410                              PAGE  155

    8133              $C$DW$1181      .dwtag  DW_TAG_member
    8134                      .dwattr $C$DW$1181, DW_AT_type(*$C$DW$T$70)
    8135                      .dwattr $C$DW$1181, DW_AT_name("voltageFilterPole_rps")
    8136                      .dwattr $C$DW$1181, DW_AT_TI_symbol_name("_voltageFilterPole_rps")
    8137                      .dwattr $C$DW$1181, DW_AT_data_member_location[DW_OP_plus_uconst 0x2e]
    8138                      .dwattr $C$DW$1181, DW_AT_accessibility(DW_ACCESS_public)
    8139              $C$DW$1182      .dwtag  DW_TAG_member
    8140                      .dwattr $C$DW$1182, DW_AT_type(*$C$DW$T$70)
    8141                      .dwattr $C$DW$1182, DW_AT_name("maxVsMag_pu")
    8142                      .dwattr $C$DW$1182, DW_AT_TI_symbol_name("_maxVsMag_pu")
    8143                      .dwattr $C$DW$1182, DW_AT_data_member_location[DW_OP_plus_uconst 0x30]
    8144                      .dwattr $C$DW$1182, DW_AT_accessibility(DW_ACCESS_public)
    8145              $C$DW$1183      .dwtag  DW_TAG_member
    8146                      .dwattr $C$DW$1183, DW_AT_type(*$C$DW$T$70)
    8147                      .dwattr $C$DW$1183, DW_AT_name("estKappa")
    8148                      .dwattr $C$DW$1183, DW_AT_TI_symbol_name("_estKappa")
    8149                      .dwattr $C$DW$1183, DW_AT_data_member_location[DW_OP_plus_uconst 0x32]
    8150                      .dwattr $C$DW$1183, DW_AT_accessibility(DW_ACCESS_public)
    8151              $C$DW$1184      .dwtag  DW_TAG_member
    8152                      .dwattr $C$DW$1184, DW_AT_type(*$C$DW$T$127)
    8153                      .dwattr $C$DW$1184, DW_AT_name("motor_type")
    8154                      .dwattr $C$DW$1184, DW_AT_TI_symbol_name("_motor_type")
    8155                      .dwattr $C$DW$1184, DW_AT_data_member_location[DW_OP_plus_uconst 0x34]
    8156                      .dwattr $C$DW$1184, DW_AT_accessibility(DW_ACCESS_public)
    8157              $C$DW$1185      .dwtag  DW_TAG_member
    8158                      .dwattr $C$DW$1185, DW_AT_type(*$C$DW$T$69)
    8159                      .dwattr $C$DW$1185, DW_AT_name("motor_numPolePairs")
    8160                      .dwattr $C$DW$1185, DW_AT_TI_symbol_name("_motor_numPolePairs")
    8161                      .dwattr $C$DW$1185, DW_AT_data_member_location[DW_OP_plus_uconst 0x35]
    8162                      .dwattr $C$DW$1185, DW_AT_accessibility(DW_ACCESS_public)
    8163              $C$DW$1186      .dwtag  DW_TAG_member
    8164                      .dwattr $C$DW$1186, DW_AT_type(*$C$DW$T$70)
    8165                      .dwattr $C$DW$1186, DW_AT_name("motor_ratedFlux")
    8166                      .dwattr $C$DW$1186, DW_AT_TI_symbol_name("_motor_ratedFlux")
    8167                      .dwattr $C$DW$1186, DW_AT_data_member_location[DW_OP_plus_uconst 0x36]
    8168                      .dwattr $C$DW$1186, DW_AT_accessibility(DW_ACCESS_public)
    8169              $C$DW$1187      .dwtag  DW_TAG_member
    8170                      .dwattr $C$DW$1187, DW_AT_type(*$C$DW$T$70)
    8171                      .dwattr $C$DW$1187, DW_AT_name("motor_Rr")
    8172                      .dwattr $C$DW$1187, DW_AT_TI_symbol_name("_motor_Rr")
    8173                      .dwattr $C$DW$1187, DW_AT_data_member_location[DW_OP_plus_uconst 0x38]
    8174                      .dwattr $C$DW$1187, DW_AT_accessibility(DW_ACCESS_public)
    8175              $C$DW$1188      .dwtag  DW_TAG_member
    8176                      .dwattr $C$DW$1188, DW_AT_type(*$C$DW$T$70)
    8177                      .dwattr $C$DW$1188, DW_AT_name("motor_Rs")
    8178                      .dwattr $C$DW$1188, DW_AT_TI_symbol_name("_motor_Rs")
    8179                      .dwattr $C$DW$1188, DW_AT_data_member_location[DW_OP_plus_uconst 0x3a]
    8180                      .dwattr $C$DW$1188, DW_AT_accessibility(DW_ACCESS_public)
    8181              $C$DW$1189      .dwtag  DW_TAG_member
    8182                      .dwattr $C$DW$1189, DW_AT_type(*$C$DW$T$70)
    8183                      .dwattr $C$DW$1189, DW_AT_name("motor_Ls_d")
    8184                      .dwattr $C$DW$1189, DW_AT_TI_symbol_name("_motor_Ls_d")
    8185                      .dwattr $C$DW$1189, DW_AT_data_member_location[DW_OP_plus_uconst 0x3c]
    8186                      .dwattr $C$DW$1189, DW_AT_accessibility(DW_ACCESS_public)
    8187              $C$DW$1190      .dwtag  DW_TAG_member
TMS320C2000 Assembler PC v6.2.5 Thu Jun 22 20:41:15 2017

Tools Copyright (c) 1996-2014 Texas Instruments Incorporated
C:\Users\wmj\AppData\Local\Temp\1712410                              PAGE  156

    8188                      .dwattr $C$DW$1190, DW_AT_type(*$C$DW$T$70)
    8189                      .dwattr $C$DW$1190, DW_AT_name("motor_Ls_q")
    8190                      .dwattr $C$DW$1190, DW_AT_TI_symbol_name("_motor_Ls_q")
    8191                      .dwattr $C$DW$1190, DW_AT_data_member_location[DW_OP_plus_uconst 0x3e]
    8192                      .dwattr $C$DW$1190, DW_AT_accessibility(DW_ACCESS_public)
    8193              $C$DW$1191      .dwtag  DW_TAG_member
    8194                      .dwattr $C$DW$1191, DW_AT_type(*$C$DW$T$70)
    8195                      .dwattr $C$DW$1191, DW_AT_name("maxCurrent")
    8196                      .dwattr $C$DW$1191, DW_AT_TI_symbol_name("_maxCurrent")
    8197                      .dwattr $C$DW$1191, DW_AT_data_member_location[DW_OP_plus_uconst 0x40]
    8198                      .dwattr $C$DW$1191, DW_AT_accessibility(DW_ACCESS_public)
    8199              $C$DW$1192      .dwtag  DW_TAG_member
    8200                      .dwattr $C$DW$1192, DW_AT_type(*$C$DW$T$70)
    8201                      .dwattr $C$DW$1192, DW_AT_name("maxCurrent_resEst")
    8202                      .dwattr $C$DW$1192, DW_AT_TI_symbol_name("_maxCurrent_resEst")
    8203                      .dwattr $C$DW$1192, DW_AT_data_member_location[DW_OP_plus_uconst 0x42]
    8204                      .dwattr $C$DW$1192, DW_AT_accessibility(DW_ACCESS_public)
    8205              $C$DW$1193      .dwtag  DW_TAG_member
    8206                      .dwattr $C$DW$1193, DW_AT_type(*$C$DW$T$70)
    8207                      .dwattr $C$DW$1193, DW_AT_name("maxCurrent_indEst")
    8208                      .dwattr $C$DW$1193, DW_AT_TI_symbol_name("_maxCurrent_indEst")
    8209                      .dwattr $C$DW$1193, DW_AT_data_member_location[DW_OP_plus_uconst 0x44]
    8210                      .dwattr $C$DW$1193, DW_AT_accessibility(DW_ACCESS_public)
    8211              $C$DW$1194      .dwtag  DW_TAG_member
    8212                      .dwattr $C$DW$1194, DW_AT_type(*$C$DW$T$70)
    8213                      .dwattr $C$DW$1194, DW_AT_name("maxCurrentSlope")
    8214                      .dwattr $C$DW$1194, DW_AT_TI_symbol_name("_maxCurrentSlope")
    8215                      .dwattr $C$DW$1194, DW_AT_data_member_location[DW_OP_plus_uconst 0x46]
    8216                      .dwattr $C$DW$1194, DW_AT_accessibility(DW_ACCESS_public)
    8217              $C$DW$1195      .dwtag  DW_TAG_member
    8218                      .dwattr $C$DW$1195, DW_AT_type(*$C$DW$T$70)
    8219                      .dwattr $C$DW$1195, DW_AT_name("maxCurrentSlope_powerWarp")
    8220                      .dwattr $C$DW$1195, DW_AT_TI_symbol_name("_maxCurrentSlope_powerWarp")
    8221                      .dwattr $C$DW$1195, DW_AT_data_member_location[DW_OP_plus_uconst 0x48]
    8222                      .dwattr $C$DW$1195, DW_AT_accessibility(DW_ACCESS_public)
    8223              $C$DW$1196      .dwtag  DW_TAG_member
    8224                      .dwattr $C$DW$1196, DW_AT_type(*$C$DW$T$70)
    8225                      .dwattr $C$DW$1196, DW_AT_name("IdRated")
    8226                      .dwattr $C$DW$1196, DW_AT_TI_symbol_name("_IdRated")
    8227                      .dwattr $C$DW$1196, DW_AT_data_member_location[DW_OP_plus_uconst 0x4a]
    8228                      .dwattr $C$DW$1196, DW_AT_accessibility(DW_ACCESS_public)
    8229              $C$DW$1197      .dwtag  DW_TAG_member
    8230                      .dwattr $C$DW$1197, DW_AT_type(*$C$DW$T$70)
    8231                      .dwattr $C$DW$1197, DW_AT_name("IdRatedFraction_indEst")
    8232                      .dwattr $C$DW$1197, DW_AT_TI_symbol_name("_IdRatedFraction_indEst")
    8233                      .dwattr $C$DW$1197, DW_AT_data_member_location[DW_OP_plus_uconst 0x4c]
    8234                      .dwattr $C$DW$1197, DW_AT_accessibility(DW_ACCESS_public)
    8235              $C$DW$1198      .dwtag  DW_TAG_member
    8236                      .dwattr $C$DW$1198, DW_AT_type(*$C$DW$T$70)
    8237                      .dwattr $C$DW$1198, DW_AT_name("IdRatedFraction_ratedFlux")
    8238                      .dwattr $C$DW$1198, DW_AT_TI_symbol_name("_IdRatedFraction_ratedFlux")
    8239                      .dwattr $C$DW$1198, DW_AT_data_member_location[DW_OP_plus_uconst 0x4e]
    8240                      .dwattr $C$DW$1198, DW_AT_accessibility(DW_ACCESS_public)
    8241              $C$DW$1199      .dwtag  DW_TAG_member
    8242                      .dwattr $C$DW$1199, DW_AT_type(*$C$DW$T$70)
TMS320C2000 Assembler PC v6.2.5 Thu Jun 22 20:41:15 2017

Tools Copyright (c) 1996-2014 Texas Instruments Incorporated
C:\Users\wmj\AppData\Local\Temp\1712410                              PAGE  157

    8243                      .dwattr $C$DW$1199, DW_AT_name("IdRated_delta")
    8244                      .dwattr $C$DW$1199, DW_AT_TI_symbol_name("_IdRated_delta")
    8245                      .dwattr $C$DW$1199, DW_AT_data_member_location[DW_OP_plus_uconst 0x50]
    8246                      .dwattr $C$DW$1199, DW_AT_accessibility(DW_ACCESS_public)
    8247              $C$DW$1200      .dwtag  DW_TAG_member
    8248                      .dwattr $C$DW$1200, DW_AT_type(*$C$DW$T$70)
    8249                      .dwattr $C$DW$1200, DW_AT_name("fluxEstFreq_Hz")
    8250                      .dwattr $C$DW$1200, DW_AT_TI_symbol_name("_fluxEstFreq_Hz")
    8251                      .dwattr $C$DW$1200, DW_AT_data_member_location[DW_OP_plus_uconst 0x52]
    8252                      .dwattr $C$DW$1200, DW_AT_accessibility(DW_ACCESS_public)
    8253              $C$DW$1201      .dwtag  DW_TAG_member
    8254                      .dwattr $C$DW$1201, DW_AT_type(*$C$DW$T$68)
    8255                      .dwattr $C$DW$1201, DW_AT_name("ctrlWaitTime")
    8256                      .dwattr $C$DW$1201, DW_AT_TI_symbol_name("_ctrlWaitTime")
    8257                      .dwattr $C$DW$1201, DW_AT_data_member_location[DW_OP_plus_uconst 0x54]
    8258                      .dwattr $C$DW$1201, DW_AT_accessibility(DW_ACCESS_public)
    8259              $C$DW$1202      .dwtag  DW_TAG_member
    8260                      .dwattr $C$DW$1202, DW_AT_type(*$C$DW$T$159)
    8261                      .dwattr $C$DW$1202, DW_AT_name("estWaitTime")
    8262                      .dwattr $C$DW$1202, DW_AT_TI_symbol_name("_estWaitTime")
    8263                      .dwattr $C$DW$1202, DW_AT_data_member_location[DW_OP_plus_uconst 0x5c]
    8264                      .dwattr $C$DW$1202, DW_AT_accessibility(DW_ACCESS_public)
    8265              $C$DW$1203      .dwtag  DW_TAG_member
    8266                      .dwattr $C$DW$1203, DW_AT_type(*$C$DW$T$160)
    8267                      .dwattr $C$DW$1203, DW_AT_name("FluxWaitTime")
    8268                      .dwattr $C$DW$1203, DW_AT_TI_symbol_name("_FluxWaitTime")
    8269                      .dwattr $C$DW$1203, DW_AT_data_member_location[DW_OP_plus_uconst 0x78]
    8270                      .dwattr $C$DW$1203, DW_AT_accessibility(DW_ACCESS_public)
    8271              $C$DW$1204      .dwtag  DW_TAG_member
    8272                      .dwattr $C$DW$1204, DW_AT_type(*$C$DW$T$161)
    8273                      .dwattr $C$DW$1204, DW_AT_name("LsWaitTime")
    8274                      .dwattr $C$DW$1204, DW_AT_TI_symbol_name("_LsWaitTime")
    8275                      .dwattr $C$DW$1204, DW_AT_data_member_location[DW_OP_plus_uconst 0x84]
    8276                      .dwattr $C$DW$1204, DW_AT_accessibility(DW_ACCESS_public)
    8277              $C$DW$1205      .dwtag  DW_TAG_member
    8278                      .dwattr $C$DW$1205, DW_AT_type(*$C$DW$T$160)
    8279                      .dwattr $C$DW$1205, DW_AT_name("RsWaitTime")
    8280                      .dwattr $C$DW$1205, DW_AT_TI_symbol_name("_RsWaitTime")
    8281                      .dwattr $C$DW$1205, DW_AT_data_member_location[DW_OP_plus_uconst 0x92]
    8282                      .dwattr $C$DW$1205, DW_AT_accessibility(DW_ACCESS_public)
    8283              $C$DW$1206      .dwtag  DW_TAG_member
    8284                      .dwattr $C$DW$1206, DW_AT_type(*$C$DW$T$67)
    8285                      .dwattr $C$DW$1206, DW_AT_name("ctrlFreq_Hz")
    8286                      .dwattr $C$DW$1206, DW_AT_TI_symbol_name("_ctrlFreq_Hz")
    8287                      .dwattr $C$DW$1206, DW_AT_data_member_location[DW_OP_plus_uconst 0x9e]
    8288                      .dwattr $C$DW$1206, DW_AT_accessibility(DW_ACCESS_public)
    8289              $C$DW$1207      .dwtag  DW_TAG_member
    8290                      .dwattr $C$DW$1207, DW_AT_type(*$C$DW$T$67)
    8291                      .dwattr $C$DW$1207, DW_AT_name("estFreq_Hz")
    8292                      .dwattr $C$DW$1207, DW_AT_TI_symbol_name("_estFreq_Hz")
    8293                      .dwattr $C$DW$1207, DW_AT_data_member_location[DW_OP_plus_uconst 0xa0]
    8294                      .dwattr $C$DW$1207, DW_AT_accessibility(DW_ACCESS_public)
    8295              $C$DW$1208      .dwtag  DW_TAG_member
    8296                      .dwattr $C$DW$1208, DW_AT_type(*$C$DW$T$67)
    8297                      .dwattr $C$DW$1208, DW_AT_name("RoverL_estFreq_Hz")
TMS320C2000 Assembler PC v6.2.5 Thu Jun 22 20:41:15 2017

Tools Copyright (c) 1996-2014 Texas Instruments Incorporated
C:\Users\wmj\AppData\Local\Temp\1712410                              PAGE  158

    8298                      .dwattr $C$DW$1208, DW_AT_TI_symbol_name("_RoverL_estFreq_Hz")
    8299                      .dwattr $C$DW$1208, DW_AT_data_member_location[DW_OP_plus_uconst 0xa2]
    8300                      .dwattr $C$DW$1208, DW_AT_accessibility(DW_ACCESS_public)
    8301              $C$DW$1209      .dwtag  DW_TAG_member
    8302                      .dwattr $C$DW$1209, DW_AT_type(*$C$DW$T$67)
    8303                      .dwattr $C$DW$1209, DW_AT_name("trajFreq_Hz")
    8304                      .dwattr $C$DW$1209, DW_AT_TI_symbol_name("_trajFreq_Hz")
    8305                      .dwattr $C$DW$1209, DW_AT_data_member_location[DW_OP_plus_uconst 0xa4]
    8306                      .dwattr $C$DW$1209, DW_AT_accessibility(DW_ACCESS_public)
    8307              $C$DW$1210      .dwtag  DW_TAG_member
    8308                      .dwattr $C$DW$1210, DW_AT_type(*$C$DW$T$70)
    8309                      .dwattr $C$DW$1210, DW_AT_name("ctrlPeriod_sec")
    8310                      .dwattr $C$DW$1210, DW_AT_TI_symbol_name("_ctrlPeriod_sec")
    8311                      .dwattr $C$DW$1210, DW_AT_data_member_location[DW_OP_plus_uconst 0xa6]
    8312                      .dwattr $C$DW$1210, DW_AT_accessibility(DW_ACCESS_public)
    8313              $C$DW$1211      .dwtag  DW_TAG_member
    8314                      .dwattr $C$DW$1211, DW_AT_type(*$C$DW$T$70)
    8315                      .dwattr $C$DW$1211, DW_AT_name("maxNegativeIdCurrent_a")
    8316                      .dwattr $C$DW$1211, DW_AT_TI_symbol_name("_maxNegativeIdCurrent_a")
    8317                      .dwattr $C$DW$1211, DW_AT_data_member_location[DW_OP_plus_uconst 0xa8]
    8318                      .dwattr $C$DW$1211, DW_AT_accessibility(DW_ACCESS_public)
    8319              $C$DW$1212      .dwtag  DW_TAG_member
    8320                      .dwattr $C$DW$1212, DW_AT_type(*$C$DW$T$132)
    8321                      .dwattr $C$DW$1212, DW_AT_name("errorCode")
    8322                      .dwattr $C$DW$1212, DW_AT_TI_symbol_name("_errorCode")
    8323                      .dwattr $C$DW$1212, DW_AT_data_member_location[DW_OP_plus_uconst 0xaa]
    8324                      .dwattr $C$DW$1212, DW_AT_accessibility(DW_ACCESS_public)
    8325                      .dwendtag $C$DW$T$162
    8326              
    8327              $C$DW$T$170     .dwtag  DW_TAG_typedef, DW_AT_name("USER_Params")
    8328                      .dwattr $C$DW$T$170, DW_AT_type(*$C$DW$T$162)
    8329                      .dwattr $C$DW$T$170, DW_AT_language(DW_LANG_C)
    8330              $C$DW$1213      .dwtag  DW_TAG_TI_far_type
    8331                      .dwattr $C$DW$1213, DW_AT_type(*$C$DW$T$170)
    8332              $C$DW$T$252     .dwtag  DW_TAG_const_type
    8333                      .dwattr $C$DW$T$252, DW_AT_type(*$C$DW$1213)
    8334              $C$DW$T$253     .dwtag  DW_TAG_pointer_type
    8335                      .dwattr $C$DW$T$253, DW_AT_type(*$C$DW$T$252)
    8336                      .dwattr $C$DW$T$253, DW_AT_address_class(0x16)
    8337              $C$DW$T$171     .dwtag  DW_TAG_pointer_type
    8338                      .dwattr $C$DW$T$171, DW_AT_type(*$C$DW$T$170)
    8339                      .dwattr $C$DW$T$171, DW_AT_address_class(0x16)
    8340              
    8341              $C$DW$T$163     .dwtag  DW_TAG_structure_type
    8342                      .dwattr $C$DW$T$163, DW_AT_name("_WDOG_Obj_")
    8343                      .dwattr $C$DW$T$163, DW_AT_byte_size(0x08)
    8344              $C$DW$1214      .dwtag  DW_TAG_member
    8345                      .dwattr $C$DW$1214, DW_AT_type(*$C$DW$T$24)
    8346                      .dwattr $C$DW$1214, DW_AT_name("SCSR")
    8347                      .dwattr $C$DW$1214, DW_AT_TI_symbol_name("_SCSR")
    8348                      .dwattr $C$DW$1214, DW_AT_data_member_location[DW_OP_plus_uconst 0x0]
    8349                      .dwattr $C$DW$1214, DW_AT_accessibility(DW_ACCESS_public)
    8350              $C$DW$1215      .dwtag  DW_TAG_member
    8351                      .dwattr $C$DW$1215, DW_AT_type(*$C$DW$T$24)
    8352                      .dwattr $C$DW$1215, DW_AT_name("WDCNTR")
TMS320C2000 Assembler PC v6.2.5 Thu Jun 22 20:41:15 2017

Tools Copyright (c) 1996-2014 Texas Instruments Incorporated
C:\Users\wmj\AppData\Local\Temp\1712410                              PAGE  159

    8353                      .dwattr $C$DW$1215, DW_AT_TI_symbol_name("_WDCNTR")
    8354                      .dwattr $C$DW$1215, DW_AT_data_member_location[DW_OP_plus_uconst 0x1]
    8355                      .dwattr $C$DW$1215, DW_AT_accessibility(DW_ACCESS_public)
    8356              $C$DW$1216      .dwtag  DW_TAG_member
    8357                      .dwattr $C$DW$1216, DW_AT_type(*$C$DW$T$24)
    8358                      .dwattr $C$DW$1216, DW_AT_name("rsvd_1")
    8359                      .dwattr $C$DW$1216, DW_AT_TI_symbol_name("_rsvd_1")
    8360                      .dwattr $C$DW$1216, DW_AT_data_member_location[DW_OP_plus_uconst 0x2]
    8361                      .dwattr $C$DW$1216, DW_AT_accessibility(DW_ACCESS_public)
    8362              $C$DW$1217      .dwtag  DW_TAG_member
    8363                      .dwattr $C$DW$1217, DW_AT_type(*$C$DW$T$24)
    8364                      .dwattr $C$DW$1217, DW_AT_name("WDKEY")
    8365                      .dwattr $C$DW$1217, DW_AT_TI_symbol_name("_WDKEY")
    8366                      .dwattr $C$DW$1217, DW_AT_data_member_location[DW_OP_plus_uconst 0x3]
    8367                      .dwattr $C$DW$1217, DW_AT_accessibility(DW_ACCESS_public)
    8368              $C$DW$1218      .dwtag  DW_TAG_member
    8369                      .dwattr $C$DW$1218, DW_AT_type(*$C$DW$T$29)
    8370                      .dwattr $C$DW$1218, DW_AT_name("rsvd_2")
    8371                      .dwattr $C$DW$1218, DW_AT_TI_symbol_name("_rsvd_2")
    8372                      .dwattr $C$DW$1218, DW_AT_data_member_location[DW_OP_plus_uconst 0x4]
    8373                      .dwattr $C$DW$1218, DW_AT_accessibility(DW_ACCESS_public)
    8374              $C$DW$1219      .dwtag  DW_TAG_member
    8375                      .dwattr $C$DW$1219, DW_AT_type(*$C$DW$T$24)
    8376                      .dwattr $C$DW$1219, DW_AT_name("WDCR")
    8377                      .dwattr $C$DW$1219, DW_AT_TI_symbol_name("_WDCR")
    8378                      .dwattr $C$DW$1219, DW_AT_data_member_location[DW_OP_plus_uconst 0x7]
    8379                      .dwattr $C$DW$1219, DW_AT_accessibility(DW_ACCESS_public)
    8380                      .dwendtag $C$DW$T$163
    8381              
    8382              $C$DW$T$116     .dwtag  DW_TAG_pointer_type
    8383                      .dwattr $C$DW$T$116, DW_AT_type(*$C$DW$T$163)
    8384                      .dwattr $C$DW$T$116, DW_AT_address_class(0x16)
    8385              $C$DW$T$117     .dwtag  DW_TAG_typedef, DW_AT_name("WDOG_Handle")
    8386                      .dwattr $C$DW$T$117, DW_AT_type(*$C$DW$T$116)
    8387                      .dwattr $C$DW$T$117, DW_AT_language(DW_LANG_C)
    8388              $C$DW$T$3       .dwtag  DW_TAG_pointer_type
    8389                      .dwattr $C$DW$T$3, DW_AT_address_class(0x16)
    8390              
    8391              $C$DW$T$146     .dwtag  DW_TAG_subroutine_type
    8392                      .dwattr $C$DW$T$146, DW_AT_language(DW_LANG_C)
    8393              $C$DW$T$147     .dwtag  DW_TAG_pointer_type
    8394                      .dwattr $C$DW$T$147, DW_AT_type(*$C$DW$T$146)
    8395                      .dwattr $C$DW$T$147, DW_AT_address_class(0x16)
    8396              $C$DW$T$148     .dwtag  DW_TAG_typedef, DW_AT_name("PIE_IntVec_t")
    8397                      .dwattr $C$DW$T$148, DW_AT_type(*$C$DW$T$147)
    8398                      .dwattr $C$DW$T$148, DW_AT_language(DW_LANG_C)
    8399              $C$DW$1220      .dwtag  DW_TAG_TI_far_type
    8400                      .dwattr $C$DW$1220, DW_AT_type(*$C$DW$T$148)
    8401              $C$DW$T$149     .dwtag  DW_TAG_volatile_type
    8402                      .dwattr $C$DW$T$149, DW_AT_type(*$C$DW$1220)
    8403              $C$DW$T$4       .dwtag  DW_TAG_base_type
    8404                      .dwattr $C$DW$T$4, DW_AT_encoding(DW_ATE_boolean)
    8405                      .dwattr $C$DW$T$4, DW_AT_name("bool")
    8406                      .dwattr $C$DW$T$4, DW_AT_byte_size(0x01)
    8407              $C$DW$T$5       .dwtag  DW_TAG_base_type
TMS320C2000 Assembler PC v6.2.5 Thu Jun 22 20:41:15 2017

Tools Copyright (c) 1996-2014 Texas Instruments Incorporated
C:\Users\wmj\AppData\Local\Temp\1712410                              PAGE  160

    8408                      .dwattr $C$DW$T$5, DW_AT_encoding(DW_ATE_signed_char)
    8409                      .dwattr $C$DW$T$5, DW_AT_name("signed char")
    8410                      .dwattr $C$DW$T$5, DW_AT_byte_size(0x01)
    8411              $C$DW$T$6       .dwtag  DW_TAG_base_type
    8412                      .dwattr $C$DW$T$6, DW_AT_encoding(DW_ATE_unsigned_char)
    8413                      .dwattr $C$DW$T$6, DW_AT_name("unsigned char")
    8414                      .dwattr $C$DW$T$6, DW_AT_byte_size(0x01)
    8415              $C$DW$T$39      .dwtag  DW_TAG_typedef, DW_AT_name("_Bool")
    8416                      .dwattr $C$DW$T$39, DW_AT_type(*$C$DW$T$6)
    8417                      .dwattr $C$DW$T$39, DW_AT_language(DW_LANG_C)
    8418              $C$DW$1221      .dwtag  DW_TAG_TI_far_type
    8419                      .dwattr $C$DW$1221, DW_AT_type(*$C$DW$T$39)
    8420              $C$DW$T$262     .dwtag  DW_TAG_const_type
    8421                      .dwattr $C$DW$T$262, DW_AT_type(*$C$DW$1221)
    8422              $C$DW$T$7       .dwtag  DW_TAG_base_type
    8423                      .dwattr $C$DW$T$7, DW_AT_encoding(DW_ATE_signed_char)
    8424                      .dwattr $C$DW$T$7, DW_AT_name("wchar_t")
    8425                      .dwattr $C$DW$T$7, DW_AT_byte_size(0x01)
    8426              $C$DW$T$8       .dwtag  DW_TAG_base_type
    8427                      .dwattr $C$DW$T$8, DW_AT_encoding(DW_ATE_signed)
    8428                      .dwattr $C$DW$T$8, DW_AT_name("short")
    8429                      .dwattr $C$DW$T$8, DW_AT_byte_size(0x01)
    8430              $C$DW$T$9       .dwtag  DW_TAG_base_type
    8431                      .dwattr $C$DW$T$9, DW_AT_encoding(DW_ATE_unsigned)
    8432                      .dwattr $C$DW$T$9, DW_AT_name("unsigned short")
    8433                      .dwattr $C$DW$T$9, DW_AT_byte_size(0x01)
    8434              $C$DW$T$23      .dwtag  DW_TAG_typedef, DW_AT_name("uint16_t")
    8435                      .dwattr $C$DW$T$23, DW_AT_type(*$C$DW$T$9)
    8436                      .dwattr $C$DW$T$23, DW_AT_language(DW_LANG_C)
    8437              $C$DW$T$256     .dwtag  DW_TAG_pointer_type
    8438                      .dwattr $C$DW$T$256, DW_AT_type(*$C$DW$T$23)
    8439                      .dwattr $C$DW$T$256, DW_AT_address_class(0x16)
    8440              $C$DW$1222      .dwtag  DW_TAG_TI_far_type
    8441                      .dwattr $C$DW$1222, DW_AT_type(*$C$DW$T$23)
    8442              $C$DW$T$24      .dwtag  DW_TAG_volatile_type
    8443                      .dwattr $C$DW$T$24, DW_AT_type(*$C$DW$1222)
    8444              
    8445              $C$DW$T$25      .dwtag  DW_TAG_array_type
    8446                      .dwattr $C$DW$T$25, DW_AT_type(*$C$DW$T$24)
    8447                      .dwattr $C$DW$T$25, DW_AT_language(DW_LANG_C)
    8448                      .dwattr $C$DW$T$25, DW_AT_byte_size(0x10)
    8449              $C$DW$1223      .dwtag  DW_TAG_subrange_type
    8450                      .dwattr $C$DW$1223, DW_AT_upper_bound(0x0f)
    8451                      .dwendtag $C$DW$T$25
    8452              
    8453              
    8454              $C$DW$T$26      .dwtag  DW_TAG_array_type
    8455                      .dwattr $C$DW$T$26, DW_AT_type(*$C$DW$T$24)
    8456                      .dwattr $C$DW$T$26, DW_AT_language(DW_LANG_C)
    8457                      .dwattr $C$DW$T$26, DW_AT_byte_size(0x65f0)
    8458              $C$DW$1224      .dwtag  DW_TAG_subrange_type
    8459                      .dwattr $C$DW$1224, DW_AT_upper_bound(0x65ef)
    8460                      .dwendtag $C$DW$T$26
    8461              
    8462              
TMS320C2000 Assembler PC v6.2.5 Thu Jun 22 20:41:15 2017

Tools Copyright (c) 1996-2014 Texas Instruments Incorporated
C:\Users\wmj\AppData\Local\Temp\1712410                              PAGE  161

    8463              $C$DW$T$27      .dwtag  DW_TAG_array_type
    8464                      .dwattr $C$DW$T$27, DW_AT_type(*$C$DW$T$24)
    8465                      .dwattr $C$DW$T$27, DW_AT_language(DW_LANG_C)
    8466                      .dwattr $C$DW$T$27, DW_AT_byte_size(0x02)
    8467              $C$DW$1225      .dwtag  DW_TAG_subrange_type
    8468                      .dwattr $C$DW$1225, DW_AT_upper_bound(0x01)
    8469                      .dwendtag $C$DW$T$27
    8470              
    8471              
    8472              $C$DW$T$28      .dwtag  DW_TAG_array_type
    8473                      .dwattr $C$DW$T$28, DW_AT_type(*$C$DW$T$24)
    8474                      .dwattr $C$DW$T$28, DW_AT_language(DW_LANG_C)
    8475                      .dwattr $C$DW$T$28, DW_AT_byte_size(0x05)
    8476              $C$DW$1226      .dwtag  DW_TAG_subrange_type
    8477                      .dwattr $C$DW$1226, DW_AT_upper_bound(0x04)
    8478                      .dwendtag $C$DW$T$28
    8479              
    8480              
    8481              $C$DW$T$29      .dwtag  DW_TAG_array_type
    8482                      .dwattr $C$DW$T$29, DW_AT_type(*$C$DW$T$24)
    8483                      .dwattr $C$DW$T$29, DW_AT_language(DW_LANG_C)
    8484                      .dwattr $C$DW$T$29, DW_AT_byte_size(0x03)
    8485              $C$DW$1227      .dwtag  DW_TAG_subrange_type
    8486                      .dwattr $C$DW$1227, DW_AT_upper_bound(0x02)
    8487                      .dwendtag $C$DW$T$29
    8488              
    8489              
    8490              $C$DW$T$30      .dwtag  DW_TAG_array_type
    8491                      .dwattr $C$DW$T$30, DW_AT_type(*$C$DW$T$24)
    8492                      .dwattr $C$DW$T$30, DW_AT_language(DW_LANG_C)
    8493                      .dwattr $C$DW$T$30, DW_AT_byte_size(0x0d)
    8494              $C$DW$1228      .dwtag  DW_TAG_subrange_type
    8495                      .dwattr $C$DW$1228, DW_AT_upper_bound(0x0c)
    8496                      .dwendtag $C$DW$T$30
    8497              
    8498              
    8499              $C$DW$T$35      .dwtag  DW_TAG_array_type
    8500                      .dwattr $C$DW$T$35, DW_AT_type(*$C$DW$T$24)
    8501                      .dwattr $C$DW$T$35, DW_AT_language(DW_LANG_C)
    8502                      .dwattr $C$DW$T$35, DW_AT_byte_size(0x08)
    8503              $C$DW$1229      .dwtag  DW_TAG_subrange_type
    8504                      .dwattr $C$DW$1229, DW_AT_upper_bound(0x07)
    8505                      .dwendtag $C$DW$T$35
    8506              
    8507              
    8508              $C$DW$T$80      .dwtag  DW_TAG_array_type
    8509                      .dwattr $C$DW$T$80, DW_AT_type(*$C$DW$T$24)
    8510                      .dwattr $C$DW$T$80, DW_AT_language(DW_LANG_C)
    8511                      .dwattr $C$DW$T$80, DW_AT_byte_size(0x18)
    8512              $C$DW$1230      .dwtag  DW_TAG_subrange_type
    8513                      .dwattr $C$DW$1230, DW_AT_upper_bound(0x17)
    8514                      .dwendtag $C$DW$T$80
    8515              
    8516              
    8517              $C$DW$T$81      .dwtag  DW_TAG_array_type
TMS320C2000 Assembler PC v6.2.5 Thu Jun 22 20:41:15 2017

Tools Copyright (c) 1996-2014 Texas Instruments Incorporated
C:\Users\wmj\AppData\Local\Temp\1712410                              PAGE  162

    8518                      .dwattr $C$DW$T$81, DW_AT_type(*$C$DW$T$24)
    8519                      .dwattr $C$DW$T$81, DW_AT_language(DW_LANG_C)
    8520                      .dwattr $C$DW$T$81, DW_AT_byte_size(0x04)
    8521              $C$DW$1231      .dwtag  DW_TAG_subrange_type
    8522                      .dwattr $C$DW$1231, DW_AT_upper_bound(0x03)
    8523                      .dwendtag $C$DW$T$81
    8524              
    8525              
    8526              $C$DW$T$145     .dwtag  DW_TAG_array_type
    8527                      .dwattr $C$DW$T$145, DW_AT_type(*$C$DW$T$24)
    8528                      .dwattr $C$DW$T$145, DW_AT_language(DW_LANG_C)
    8529                      .dwattr $C$DW$T$145, DW_AT_byte_size(0x06)
    8530              $C$DW$1232      .dwtag  DW_TAG_subrange_type
    8531                      .dwattr $C$DW$1232, DW_AT_upper_bound(0x05)
    8532                      .dwendtag $C$DW$T$145
    8533              
    8534              
    8535              $C$DW$T$150     .dwtag  DW_TAG_array_type
    8536                      .dwattr $C$DW$T$150, DW_AT_type(*$C$DW$T$24)
    8537                      .dwattr $C$DW$T$150, DW_AT_language(DW_LANG_C)
    8538                      .dwattr $C$DW$T$150, DW_AT_byte_size(0x6270)
    8539              $C$DW$1233      .dwtag  DW_TAG_subrange_type
    8540                      .dwattr $C$DW$1233, DW_AT_upper_bound(0x626f)
    8541                      .dwendtag $C$DW$T$150
    8542              
    8543              
    8544              $C$DW$T$154     .dwtag  DW_TAG_array_type
    8545                      .dwattr $C$DW$T$154, DW_AT_type(*$C$DW$T$24)
    8546                      .dwattr $C$DW$T$154, DW_AT_language(DW_LANG_C)
    8547                      .dwattr $C$DW$T$154, DW_AT_byte_size(0x6698)
    8548              $C$DW$1234      .dwtag  DW_TAG_subrange_type
    8549                      .dwattr $C$DW$1234, DW_AT_upper_bound(0x6697)
    8550                      .dwendtag $C$DW$T$154
    8551              
    8552              $C$DW$T$69      .dwtag  DW_TAG_typedef, DW_AT_name("uint_least16_t")
    8553                      .dwattr $C$DW$T$69, DW_AT_type(*$C$DW$T$23)
    8554                      .dwattr $C$DW$T$69, DW_AT_language(DW_LANG_C)
    8555              $C$DW$T$33      .dwtag  DW_TAG_typedef, DW_AT_name("uint_least8_t")
    8556                      .dwattr $C$DW$T$33, DW_AT_type(*$C$DW$T$23)
    8557                      .dwattr $C$DW$T$33, DW_AT_language(DW_LANG_C)
    8558              $C$DW$1235      .dwtag  DW_TAG_TI_far_type
    8559                      .dwattr $C$DW$1235, DW_AT_type(*$C$DW$T$33)
    8560              $C$DW$T$208     .dwtag  DW_TAG_const_type
    8561                      .dwattr $C$DW$T$208, DW_AT_type(*$C$DW$1235)
    8562              $C$DW$T$10      .dwtag  DW_TAG_base_type
    8563                      .dwattr $C$DW$T$10, DW_AT_encoding(DW_ATE_signed)
    8564                      .dwattr $C$DW$T$10, DW_AT_name("int")
    8565                      .dwattr $C$DW$T$10, DW_AT_byte_size(0x01)
    8566              $C$DW$T$11      .dwtag  DW_TAG_base_type
    8567                      .dwattr $C$DW$T$11, DW_AT_encoding(DW_ATE_unsigned)
    8568                      .dwattr $C$DW$T$11, DW_AT_name("unsigned int")
    8569                      .dwattr $C$DW$T$11, DW_AT_byte_size(0x01)
    8570              $C$DW$T$12      .dwtag  DW_TAG_base_type
    8571                      .dwattr $C$DW$T$12, DW_AT_encoding(DW_ATE_signed)
    8572                      .dwattr $C$DW$T$12, DW_AT_name("long")
TMS320C2000 Assembler PC v6.2.5 Thu Jun 22 20:41:15 2017

Tools Copyright (c) 1996-2014 Texas Instruments Incorporated
C:\Users\wmj\AppData\Local\Temp\1712410                              PAGE  163

    8573                      .dwattr $C$DW$T$12, DW_AT_byte_size(0x02)
    8574              $C$DW$T$32      .dwtag  DW_TAG_typedef, DW_AT_name("_iq")
    8575                      .dwattr $C$DW$T$32, DW_AT_type(*$C$DW$T$12)
    8576                      .dwattr $C$DW$T$32, DW_AT_language(DW_LANG_C)
    8577              
    8578              $C$DW$T$122     .dwtag  DW_TAG_array_type
    8579                      .dwattr $C$DW$T$122, DW_AT_type(*$C$DW$T$32)
    8580                      .dwattr $C$DW$T$122, DW_AT_language(DW_LANG_C)
    8581                      .dwattr $C$DW$T$122, DW_AT_byte_size(0x04)
    8582              $C$DW$1236      .dwtag  DW_TAG_subrange_type
    8583                      .dwattr $C$DW$1236, DW_AT_upper_bound(0x01)
    8584                      .dwendtag $C$DW$T$122
    8585              
    8586              
    8587              $C$DW$T$124     .dwtag  DW_TAG_array_type
    8588                      .dwattr $C$DW$T$124, DW_AT_type(*$C$DW$T$32)
    8589                      .dwattr $C$DW$T$124, DW_AT_language(DW_LANG_C)
    8590                      .dwattr $C$DW$T$124, DW_AT_byte_size(0x06)
    8591              $C$DW$1237      .dwtag  DW_TAG_subrange_type
    8592                      .dwattr $C$DW$1237, DW_AT_upper_bound(0x02)
    8593                      .dwendtag $C$DW$T$124
    8594              
    8595              $C$DW$1238      .dwtag  DW_TAG_TI_far_type
    8596                      .dwattr $C$DW$1238, DW_AT_type(*$C$DW$T$32)
    8597              $C$DW$T$259     .dwtag  DW_TAG_const_type
    8598                      .dwattr $C$DW$T$259, DW_AT_type(*$C$DW$1238)
    8599              $C$DW$T$13      .dwtag  DW_TAG_base_type
    8600                      .dwattr $C$DW$T$13, DW_AT_encoding(DW_ATE_unsigned)
    8601                      .dwattr $C$DW$T$13, DW_AT_name("unsigned long")
    8602                      .dwattr $C$DW$T$13, DW_AT_byte_size(0x02)
    8603              $C$DW$T$200     .dwtag  DW_TAG_typedef, DW_AT_name("size_t")
    8604                      .dwattr $C$DW$T$200, DW_AT_type(*$C$DW$T$13)
    8605                      .dwattr $C$DW$T$200, DW_AT_language(DW_LANG_C)
    8606              $C$DW$1239      .dwtag  DW_TAG_TI_far_type
    8607                      .dwattr $C$DW$1239, DW_AT_type(*$C$DW$T$200)
    8608              $C$DW$T$201     .dwtag  DW_TAG_const_type
    8609                      .dwattr $C$DW$T$201, DW_AT_type(*$C$DW$1239)
    8610              $C$DW$T$38      .dwtag  DW_TAG_typedef, DW_AT_name("uint32_t")
    8611                      .dwattr $C$DW$T$38, DW_AT_type(*$C$DW$T$13)
    8612                      .dwattr $C$DW$T$38, DW_AT_language(DW_LANG_C)
    8613              $C$DW$1240      .dwtag  DW_TAG_TI_far_type
    8614                      .dwattr $C$DW$1240, DW_AT_type(*$C$DW$T$38)
    8615              $C$DW$T$79      .dwtag  DW_TAG_volatile_type
    8616                      .dwattr $C$DW$T$79, DW_AT_type(*$C$DW$1240)
    8617              $C$DW$1241      .dwtag  DW_TAG_TI_far_type
    8618                      .dwattr $C$DW$1241, DW_AT_type(*$C$DW$T$38)
    8619              $C$DW$T$267     .dwtag  DW_TAG_const_type
    8620                      .dwattr $C$DW$T$267, DW_AT_type(*$C$DW$1241)
    8621              $C$DW$T$67      .dwtag  DW_TAG_typedef, DW_AT_name("uint_least32_t")
    8622                      .dwattr $C$DW$T$67, DW_AT_type(*$C$DW$T$38)
    8623                      .dwattr $C$DW$T$67, DW_AT_language(DW_LANG_C)
    8624              
    8625              $C$DW$T$68      .dwtag  DW_TAG_array_type
    8626                      .dwattr $C$DW$T$68, DW_AT_type(*$C$DW$T$67)
    8627                      .dwattr $C$DW$T$68, DW_AT_language(DW_LANG_C)
TMS320C2000 Assembler PC v6.2.5 Thu Jun 22 20:41:15 2017

Tools Copyright (c) 1996-2014 Texas Instruments Incorporated
C:\Users\wmj\AppData\Local\Temp\1712410                              PAGE  164

    8628                      .dwattr $C$DW$T$68, DW_AT_byte_size(0x08)
    8629              $C$DW$1242      .dwtag  DW_TAG_subrange_type
    8630                      .dwattr $C$DW$1242, DW_AT_upper_bound(0x03)
    8631                      .dwendtag $C$DW$T$68
    8632              
    8633              
    8634              $C$DW$T$159     .dwtag  DW_TAG_array_type
    8635                      .dwattr $C$DW$T$159, DW_AT_type(*$C$DW$T$67)
    8636                      .dwattr $C$DW$T$159, DW_AT_language(DW_LANG_C)
    8637                      .dwattr $C$DW$T$159, DW_AT_byte_size(0x1c)
    8638              $C$DW$1243      .dwtag  DW_TAG_subrange_type
    8639                      .dwattr $C$DW$1243, DW_AT_upper_bound(0x0d)
    8640                      .dwendtag $C$DW$T$159
    8641              
    8642              
    8643              $C$DW$T$160     .dwtag  DW_TAG_array_type
    8644                      .dwattr $C$DW$T$160, DW_AT_type(*$C$DW$T$67)
    8645                      .dwattr $C$DW$T$160, DW_AT_language(DW_LANG_C)
    8646                      .dwattr $C$DW$T$160, DW_AT_byte_size(0x0c)
    8647              $C$DW$1244      .dwtag  DW_TAG_subrange_type
    8648                      .dwattr $C$DW$1244, DW_AT_upper_bound(0x05)
    8649                      .dwendtag $C$DW$T$160
    8650              
    8651              
    8652              $C$DW$T$161     .dwtag  DW_TAG_array_type
    8653                      .dwattr $C$DW$T$161, DW_AT_type(*$C$DW$T$67)
    8654                      .dwattr $C$DW$T$161, DW_AT_language(DW_LANG_C)
    8655                      .dwattr $C$DW$T$161, DW_AT_byte_size(0x0e)
    8656              $C$DW$1245      .dwtag  DW_TAG_subrange_type
    8657                      .dwattr $C$DW$1245, DW_AT_upper_bound(0x06)
    8658                      .dwendtag $C$DW$T$161
    8659              
    8660              $C$DW$T$14      .dwtag  DW_TAG_base_type
    8661                      .dwattr $C$DW$T$14, DW_AT_encoding(DW_ATE_signed)
    8662                      .dwattr $C$DW$T$14, DW_AT_name("long long")
    8663                      .dwattr $C$DW$T$14, DW_AT_byte_size(0x04)
    8664              $C$DW$T$15      .dwtag  DW_TAG_base_type
    8665                      .dwattr $C$DW$T$15, DW_AT_encoding(DW_ATE_unsigned)
    8666                      .dwattr $C$DW$T$15, DW_AT_name("unsigned long long")
    8667                      .dwattr $C$DW$T$15, DW_AT_byte_size(0x04)
    8668              $C$DW$T$16      .dwtag  DW_TAG_base_type
    8669                      .dwattr $C$DW$T$16, DW_AT_encoding(DW_ATE_float)
    8670                      .dwattr $C$DW$T$16, DW_AT_name("float")
    8671                      .dwattr $C$DW$T$16, DW_AT_byte_size(0x02)
    8672              $C$DW$T$70      .dwtag  DW_TAG_typedef, DW_AT_name("float_t")
    8673                      .dwattr $C$DW$T$70, DW_AT_type(*$C$DW$T$16)
    8674                      .dwattr $C$DW$T$70, DW_AT_language(DW_LANG_C)
    8675              $C$DW$1246      .dwtag  DW_TAG_TI_far_type
    8676                      .dwattr $C$DW$1246, DW_AT_type(*$C$DW$T$70)
    8677              $C$DW$T$270     .dwtag  DW_TAG_const_type
    8678                      .dwattr $C$DW$T$270, DW_AT_type(*$C$DW$1246)
    8679              $C$DW$T$17      .dwtag  DW_TAG_base_type
    8680                      .dwattr $C$DW$T$17, DW_AT_encoding(DW_ATE_float)
    8681                      .dwattr $C$DW$T$17, DW_AT_name("double")
    8682                      .dwattr $C$DW$T$17, DW_AT_byte_size(0x02)
TMS320C2000 Assembler PC v6.2.5 Thu Jun 22 20:41:15 2017

Tools Copyright (c) 1996-2014 Texas Instruments Incorporated
C:\Users\wmj\AppData\Local\Temp\1712410                              PAGE  165

    8683              $C$DW$T$18      .dwtag  DW_TAG_base_type
    8684                      .dwattr $C$DW$T$18, DW_AT_encoding(DW_ATE_float)
    8685                      .dwattr $C$DW$T$18, DW_AT_name("long double")
    8686                      .dwattr $C$DW$T$18, DW_AT_byte_size(0x04)
    8687                      .dwattr $C$DW$CU, DW_AT_language(DW_LANG_C)
    8688              
    8689              ;***************************************************************
    8690              ;* DWARF CIE ENTRIES                                           *
    8691              ;***************************************************************
    8692              
    8693              $C$DW$CIE       .dwcie 78
    8694                      .dwcfi  cfa_register, 20
    8695                      .dwcfi  cfa_offset, 0
    8696                      .dwcfi  undefined, 0
    8697                      .dwcfi  undefined, 1
    8698                      .dwcfi  undefined, 2
    8699                      .dwcfi  undefined, 3
    8700                      .dwcfi  undefined, 20
    8701                      .dwcfi  undefined, 21
    8702                      .dwcfi  undefined, 22
    8703                      .dwcfi  undefined, 23
    8704                      .dwcfi  undefined, 24
    8705                      .dwcfi  undefined, 25
    8706                      .dwcfi  undefined, 26
    8707                      .dwcfi  same_value, 28
    8708                      .dwcfi  undefined, 29
    8709                      .dwcfi  undefined, 30
    8710                      .dwcfi  undefined, 31
    8711                      .dwcfi  undefined, 32
    8712                      .dwcfi  undefined, 33
    8713                      .dwcfi  undefined, 34
    8714                      .dwcfi  undefined, 35
    8715                      .dwcfi  undefined, 36
    8716                      .dwcfi  undefined, 37
    8717                      .dwcfi  undefined, 38
    8718                      .dwcfi  undefined, 75
    8719                      .dwcfi  undefined, 76
    8720                      .dwcfi  undefined, 77
    8721                      .dwcfi  undefined, 4
    8722                      .dwcfi  same_value, 6
    8723                      .dwcfi  same_value, 8
    8724                      .dwcfi  same_value, 10
    8725                      .dwcfi  undefined, 12
    8726                      .dwcfi  undefined, 14
    8727                      .dwcfi  undefined, 16
    8728                      .dwcfi  undefined, 17
    8729                      .dwcfi  undefined, 18
    8730                      .dwcfi  undefined, 19
    8731                      .dwcfi  undefined, 5
    8732                      .dwcfi  same_value, 7
    8733                      .dwcfi  same_value, 9
    8734                      .dwcfi  same_value, 11
    8735                      .dwcfi  undefined, 13
    8736                      .dwcfi  undefined, 15
    8737                      .dwcfi  undefined, 78
TMS320C2000 Assembler PC v6.2.5 Thu Jun 22 20:41:15 2017

Tools Copyright (c) 1996-2014 Texas Instruments Incorporated
C:\Users\wmj\AppData\Local\Temp\1712410                              PAGE  166

    8738                      .dwendentry
    8739              
    8740              ;***************************************************************
    8741              ;* DWARF REGISTER MAP                                          *
    8742              ;***************************************************************
    8743              
    8744              $C$DW$1247      .dwtag  DW_TAG_TI_assign_register, DW_AT_name("AL")
    8745                      .dwattr $C$DW$1247, DW_AT_location[DW_OP_reg0]
    8746              $C$DW$1248      .dwtag  DW_TAG_TI_assign_register, DW_AT_name("AH")
    8747                      .dwattr $C$DW$1248, DW_AT_location[DW_OP_reg1]
    8748              $C$DW$1249      .dwtag  DW_TAG_TI_assign_register, DW_AT_name("PL")
    8749                      .dwattr $C$DW$1249, DW_AT_location[DW_OP_reg2]
    8750              $C$DW$1250      .dwtag  DW_TAG_TI_assign_register, DW_AT_name("PH")
    8751                      .dwattr $C$DW$1250, DW_AT_location[DW_OP_reg3]
    8752              $C$DW$1251      .dwtag  DW_TAG_TI_assign_register, DW_AT_name("SP")
    8753                      .dwattr $C$DW$1251, DW_AT_location[DW_OP_reg20]
    8754              $C$DW$1252      .dwtag  DW_TAG_TI_assign_register, DW_AT_name("XT")
    8755                      .dwattr $C$DW$1252, DW_AT_location[DW_OP_reg21]
    8756              $C$DW$1253      .dwtag  DW_TAG_TI_assign_register, DW_AT_name("T")
    8757                      .dwattr $C$DW$1253, DW_AT_location[DW_OP_reg22]
    8758              $C$DW$1254      .dwtag  DW_TAG_TI_assign_register, DW_AT_name("ST0")
    8759                      .dwattr $C$DW$1254, DW_AT_location[DW_OP_reg23]
    8760              $C$DW$1255      .dwtag  DW_TAG_TI_assign_register, DW_AT_name("ST1")
    8761                      .dwattr $C$DW$1255, DW_AT_location[DW_OP_reg24]
    8762              $C$DW$1256      .dwtag  DW_TAG_TI_assign_register, DW_AT_name("PC")
    8763                      .dwattr $C$DW$1256, DW_AT_location[DW_OP_reg25]
    8764              $C$DW$1257      .dwtag  DW_TAG_TI_assign_register, DW_AT_name("RPC")
    8765                      .dwattr $C$DW$1257, DW_AT_location[DW_OP_reg26]
    8766              $C$DW$1258      .dwtag  DW_TAG_TI_assign_register, DW_AT_name("FP")
    8767                      .dwattr $C$DW$1258, DW_AT_location[DW_OP_reg28]
    8768              $C$DW$1259      .dwtag  DW_TAG_TI_assign_register, DW_AT_name("DP")
    8769                      .dwattr $C$DW$1259, DW_AT_location[DW_OP_reg29]
    8770              $C$DW$1260      .dwtag  DW_TAG_TI_assign_register, DW_AT_name("SXM")
    8771                      .dwattr $C$DW$1260, DW_AT_location[DW_OP_reg30]
    8772              $C$DW$1261      .dwtag  DW_TAG_TI_assign_register, DW_AT_name("PM")
    8773                      .dwattr $C$DW$1261, DW_AT_location[DW_OP_reg31]
    8774              $C$DW$1262      .dwtag  DW_TAG_TI_assign_register, DW_AT_name("OVM")
    8775                      .dwattr $C$DW$1262, DW_AT_location[DW_OP_regx 0x20]
    8776              $C$DW$1263      .dwtag  DW_TAG_TI_assign_register, DW_AT_name("PAGE0")
    8777                      .dwattr $C$DW$1263, DW_AT_location[DW_OP_regx 0x21]
    8778              $C$DW$1264      .dwtag  DW_TAG_TI_assign_register, DW_AT_name("AMODE")
    8779                      .dwattr $C$DW$1264, DW_AT_location[DW_OP_regx 0x22]
    8780              $C$DW$1265      .dwtag  DW_TAG_TI_assign_register, DW_AT_name("INTM")
    8781                      .dwattr $C$DW$1265, DW_AT_location[DW_OP_regx 0x23]
    8782              $C$DW$1266      .dwtag  DW_TAG_TI_assign_register, DW_AT_name("IFR")
    8783                      .dwattr $C$DW$1266, DW_AT_location[DW_OP_regx 0x24]
    8784              $C$DW$1267      .dwtag  DW_TAG_TI_assign_register, DW_AT_name("IER")
    8785                      .dwattr $C$DW$1267, DW_AT_location[DW_OP_regx 0x25]
    8786              $C$DW$1268      .dwtag  DW_TAG_TI_assign_register, DW_AT_name("V")
    8787                      .dwattr $C$DW$1268, DW_AT_location[DW_OP_regx 0x26]
    8788              $C$DW$1269      .dwtag  DW_TAG_TI_assign_register, DW_AT_name("PSEUDOH")
    8789                      .dwattr $C$DW$1269, DW_AT_location[DW_OP_regx 0x4c]
    8790              $C$DW$1270      .dwtag  DW_TAG_TI_assign_register, DW_AT_name("VOL")
    8791                      .dwattr $C$DW$1270, DW_AT_location[DW_OP_regx 0x4d]
    8792              $C$DW$1271      .dwtag  DW_TAG_TI_assign_register, DW_AT_name("AR0")
TMS320C2000 Assembler PC v6.2.5 Thu Jun 22 20:41:15 2017

Tools Copyright (c) 1996-2014 Texas Instruments Incorporated
C:\Users\wmj\AppData\Local\Temp\1712410                              PAGE  167

    8793                      .dwattr $C$DW$1271, DW_AT_location[DW_OP_reg4]
    8794              $C$DW$1272      .dwtag  DW_TAG_TI_assign_register, DW_AT_name("AR1")
    8795                      .dwattr $C$DW$1272, DW_AT_location[DW_OP_reg6]
    8796              $C$DW$1273      .dwtag  DW_TAG_TI_assign_register, DW_AT_name("AR2")
    8797                      .dwattr $C$DW$1273, DW_AT_location[DW_OP_reg8]
    8798              $C$DW$1274      .dwtag  DW_TAG_TI_assign_register, DW_AT_name("AR3")
    8799                      .dwattr $C$DW$1274, DW_AT_location[DW_OP_reg10]
    8800              $C$DW$1275      .dwtag  DW_TAG_TI_assign_register, DW_AT_name("AR4")
    8801                      .dwattr $C$DW$1275, DW_AT_location[DW_OP_reg12]
    8802              $C$DW$1276      .dwtag  DW_TAG_TI_assign_register, DW_AT_name("AR5")
    8803                      .dwattr $C$DW$1276, DW_AT_location[DW_OP_reg14]
    8804              $C$DW$1277      .dwtag  DW_TAG_TI_assign_register, DW_AT_name("AR6")
    8805                      .dwattr $C$DW$1277, DW_AT_location[DW_OP_reg16]
    8806              $C$DW$1278      .dwtag  DW_TAG_TI_assign_register, DW_AT_name("XAR6")
    8807                      .dwattr $C$DW$1278, DW_AT_location[DW_OP_reg17]
    8808              $C$DW$1279      .dwtag  DW_TAG_TI_assign_register, DW_AT_name("AR7")
    8809                      .dwattr $C$DW$1279, DW_AT_location[DW_OP_reg18]
    8810              $C$DW$1280      .dwtag  DW_TAG_TI_assign_register, DW_AT_name("XAR7")
    8811                      .dwattr $C$DW$1280, DW_AT_location[DW_OP_reg19]
    8812              $C$DW$1281      .dwtag  DW_TAG_TI_assign_register, DW_AT_name("XAR0")
    8813                      .dwattr $C$DW$1281, DW_AT_location[DW_OP_reg5]
    8814              $C$DW$1282      .dwtag  DW_TAG_TI_assign_register, DW_AT_name("XAR1")
    8815                      .dwattr $C$DW$1282, DW_AT_location[DW_OP_reg7]
    8816              $C$DW$1283      .dwtag  DW_TAG_TI_assign_register, DW_AT_name("XAR2")
    8817                      .dwattr $C$DW$1283, DW_AT_location[DW_OP_reg9]
    8818              $C$DW$1284      .dwtag  DW_TAG_TI_assign_register, DW_AT_name("XAR3")
    8819                      .dwattr $C$DW$1284, DW_AT_location[DW_OP_reg11]
    8820              $C$DW$1285      .dwtag  DW_TAG_TI_assign_register, DW_AT_name("XAR4")
    8821                      .dwattr $C$DW$1285, DW_AT_location[DW_OP_reg13]
    8822              $C$DW$1286      .dwtag  DW_TAG_TI_assign_register, DW_AT_name("XAR5")
    8823                      .dwattr $C$DW$1286, DW_AT_location[DW_OP_reg15]
    8824              $C$DW$1287      .dwtag  DW_TAG_TI_assign_register, DW_AT_name("CIE_RETA")
    8825                      .dwattr $C$DW$1287, DW_AT_location[DW_OP_regx 0x4e]
    8826                      .dwendtag $C$DW$CU
    8827              

No Assembly Errors, No Assembly Warnings
