TMS320C2000 Assembler PC v6.2.5 Thu Jun 22 20:41:15 2017

Tools Copyright (c) 1996-2014 Texas Instruments Incorporated
C:\Users\wmj\AppData\Local\Temp\1712410                              PAGE    1

       1              ;***************************************************************
       2              ;* TMS320C2000 C/C++ Codegen                         PC v6.2.5 *
       3              ;* Date/Time created: Thu Jun 22 20:41:14 2017                 *
       4              ;***************************************************************
       5                      .compiler_opts --float_support=softlib --hll_source=on --mem_model:code=flat --mem_model:data=large -
       6        0002  FP      .set    XAR2
       7              
       8              $C$DW$CU        .dwtag  DW_TAG_compile_unit
       9                      .dwattr $C$DW$CU, DW_AT_name("C:/ti/motorware/motorware_1_01_00_18/sw/solutions/instaspin_foc/src/pro
      10                      .dwattr $C$DW$CU, DW_AT_producer("TMS320C2000 C/C++ Codegen PC v6.2.5 Copyright (c) 1996-2014 Texas I
      11                      .dwattr $C$DW$CU, DW_AT_TI_version(0x01)
      12                      .dwattr $C$DW$CU, DW_AT_comp_dir("C:\ti\motorware\motorware_1_01_00_18\sw\solutions\instaspin_foc\boa
      13              ;**************************************************************
      14              ;* CINIT RECORDS                                              *
      15              ;**************************************************************
      16 00000000               .sect   ".cinit"
      17                      .align  1
      18 00000000 FFFF          .field          -1,16
      19 00000001 0000-         .field          _gLEDcnt+0,32
         00000002 0000 
      20 00000003 0000          .bits   0,16                    ; _gLEDcnt @ 0
      21              
      22 00000004               .sect   ".cinit"
      23                      .align  1
      24 00000004 FFFF          .field          -1,16
      25 00000005 0001-         .field          _Flag_Latch_softwareUpdate+0,32
         00000006 0000 
      26 00000007 0001          .bits   1,16                    ; _Flag_Latch_softwareUpdate @ 0
      27              
      28 00000008               .sect   ".cinit"
      29                      .align  1
      30 00000008 FFFF          .field          -1,16
      31 00000009 0002-         .field          _gCounter_updateGlobals+0,32
         0000000a 0000 
      32 0000000b 0000          .bits   0,16                    ; _gCounter_updateGlobals @ 0
      33              
      34 0000000c               .sect   ".cinit"
      35                      .align  1
      36 0000000c FFFE          .field          -2,16
      37 0000000d 0004-         .field          _gMaxCurrentSlope+0,32
         0000000e 0000 
      38 0000000f 0000          .bits   0,32                    ; _gMaxCurrentSlope @ 0
         00000010 0000 
      39              
      40 00000011               .sect   ".cinit"
      41                      .align  1
      42 00000011 FFFE          .field          -2,16
      43 00000012 0012-         .field          _gNumFreqErrors+0,32
         00000013 0000 
      44 00000014 0000          .bits   0,32                    ; _gNumFreqErrors @ 0
         00000015 0000 
      45              
      46 00000016               .sect   ".cinit"
      47                      .align  1
      48 00000016 FFFE          .field          -2,16
TMS320C2000 Assembler PC v6.2.5 Thu Jun 22 20:41:15 2017

Tools Copyright (c) 1996-2014 Texas Instruments Incorporated
C:\Users\wmj\AppData\Local\Temp\1712410                              PAGE    2

      49 00000017 0014-         .field          _gMaxDeltaCntObserved+0,32
         00000018 0000 
      50 00000019 0000          .bits   0,32                    ; _gMaxDeltaCntObserved @ 0
         0000001a 0000 
      51              
      52 0000001b               .sect   ".cinit"
      53                      .align  1
      54 0000001b FFFE          .field          -2,16
      55 0000001c 0016-         .field          _gCpuUsagePercentageAvg+0,32
         0000001d 0000 
      56 0000001e 0000          .xfloat $strtod("0x0p+0")               ; _gCpuUsagePercentageAvg @ 0
         0000001f 0000 
      57              
      58 00000020               .sect   ".cinit"
      59                      .align  1
      60 00000020 FFFE          .field          -2,16
      61 00000021 0018-         .field          _gCpuUsagePercentageMax+0,32
         00000022 0000 
      62 00000023 0000          .xfloat $strtod("0x0p+0")               ; _gCpuUsagePercentageMax @ 0
         00000024 0000 
      63              
      64 00000025               .sect   ".cinit"
      65                      .align  1
      66 00000025 FFFE          .field          -2,16
      67 00000026 001C-         .field          _gCpuUsagePercentageMin+0,32
         00000027 0000 
      68 00000028 0000          .xfloat $strtod("0x0p+0")               ; _gCpuUsagePercentageMin @ 0
         00000029 0000 
      69              
      70 0000002a               .sect   ".cinit"
      71                      .align  1
      72 0000002a FFFA          .field          -$C$IR_1,16
      73 0000002b 0020-         .field          _gPwmData+0,32
         0000002c 0000 
      74 0000002d 0000          .bits   0,32                    ; _gPwmData._Tabc._value[0] @ 0
         0000002e 0000 
      75 0000002f 0000          .bits   0,32                    ; _gPwmData._Tabc._value[1] @ 32
         00000030 0000 
      76 00000031 0000          .bits   0,32                    ; _gPwmData._Tabc._value[2] @ 64
         00000032 0000 
      77        0006  $C$IR_1:        .set    6
      78              
      79 00000033               .sect   ".cinit"
      80                      .align  1
      81 00000033 FF80          .field          -$C$IR_2,16
      82 00000034 0080-         .field          _gMotorVars+0,32
         00000035 0000 
      83 00000036 0000          .bits   0,16                    ; _gMotorVars._Flag_enableSys @ 0
      84 00000037 0000          .bits   0,16                    ; _gMotorVars._Flag_Run_Identify @ 16
      85 00000038 0000          .bits   0,16                    ; _gMotorVars._Flag_MotorIdentified @ 32
      86 00000039 0001          .bits   1,16                    ; _gMotorVars._Flag_enableForceAngle @ 48
      87 0000003a 0000          .bits   0,16                    ; _gMotorVars._Flag_enableFieldWeakening @ 64
      88 0000003b 0000          .bits   0,16                    ; _gMotorVars._Flag_enableRsRecalc @ 80
      89 0000003c 0001          .bits   1,16                    ; _gMotorVars._Flag_enableUserParams @ 96
      90 0000003d 0001          .bits   1,16                    ; _gMotorVars._Flag_enableOffsetcalc @ 112
TMS320C2000 Assembler PC v6.2.5 Thu Jun 22 20:41:15 2017

Tools Copyright (c) 1996-2014 Texas Instruments Incorporated
C:\Users\wmj\AppData\Local\Temp\1712410                              PAGE    3

      91 0000003e 0000          .bits   0,16                    ; _gMotorVars._Flag_enablePowerWarp @ 128
      92 0000003f 0000          .bits   0,16                    ; _gMotorVars._Flag_enableSpeedCtrl @ 144
      93 00000040 0000          .bits   0,16                    ; _gMotorVars._Flag_enableRun @ 160
      94 00000041 0000          .bits   0,16                    ; _gMotorVars._Flag_RunState @ 176
      95 00000042 0000          .bits   0,16                    ; _gMotorVars._Flag_enableFlyingStart @ 192
      96 00000043 0001          .bits   1,16                    ; _gMotorVars._CtrlState @ 208
      97 00000044 0001          .bits   1,16                    ; _gMotorVars._EstState @ 224
      98 00000045 0000          .bits   0,16                    ; _gMotorVars._UserErrorCode @ 240
      99 00000046 0000          .bits   0,16                    ; _gMotorVars._CtrlVersion._rsvd @ 256
     100 00000047 0004          .bits   4,16                    ; _gMotorVars._CtrlVersion._targetProc @ 272
     101 00000048 0000          .bits   0,16                    ; _gMotorVars._CtrlVersion._major @ 288
     102 00000049 0000          .bits   0,16                    ; _gMotorVars._CtrlVersion._minor @ 304
     103 0000004a 0000          .bits   0,32                    ; _gMotorVars._IdRef_A @ 320
         0000004b 0000 
     104 0000004c 0000          .bits   0,32                    ; _gMotorVars._IqRef_A @ 352
         0000004d 0000 
     105 0000004e 0000          .bits   0,32                    ; _gMotorVars._SpeedRef_pu @ 384
         0000004f 0000 
     106 00000050 9999          .bits   1677721,32                      ; _gMotorVars._SpeedRef_krpm @ 416
         00000051 0019 
     107 00000052 0000          .bits   0,32                    ; _gMotorVars._SpeedTraj_krpm @ 448
         00000053 0000 
     108 00000054 3333          .bits   3355443,32                      ; _gMotorVars._MaxAccel_krpmps @ 480
         00000055 0033 
     109 00000056 0000          .bits   0,32                    ; _gMotorVars._Speed_krpm @ 512
         00000057 0000 
     110 00000058 0000          .bits   8388608,32                      ; _gMotorVars._OverModulation @ 544
         00000059 0080 
     111 0000005a EB85          .bits   1174405,32                      ; _gMotorVars._RsOnLineCurrent_A @ 576
         0000005b 0011 
     112 0000005c 0190          .bits   400,32                  ; _gMotorVars._SvgenMaxModulation_ticks @ 608
         0000005d 0000 
     113 0000005e 0000          .bits   0,32                    ; _gMotorVars._Flux_Wb @ 640
         0000005f 0000 
     114 00000060 0000          .bits   0,32                    ; _gMotorVars._Torque_Nm @ 672
         00000061 0000 
     115 00000062 0000          .xfloat $strtod("0x0p+0")               ; _gMotorVars._MagnCurr_A @ 704
         00000063 0000 
     116 00000064 0000          .xfloat $strtod("0x0p+0")               ; _gMotorVars._Rr_Ohm @ 736
         00000065 0000 
     117 00000066 0000          .xfloat $strtod("0x0p+0")               ; _gMotorVars._Rs_Ohm @ 768
         00000067 0000 
     118 00000068 0000          .xfloat $strtod("0x0p+0")               ; _gMotorVars._RsOnLine_Ohm @ 800
         00000069 0000 
     119 0000006a 0000          .xfloat $strtod("0x0p+0")               ; _gMotorVars._Lsd_H @ 832
         0000006b 0000 
     120 0000006c 0000          .xfloat $strtod("0x0p+0")               ; _gMotorVars._Lsq_H @ 864
         0000006d 0000 
     121 0000006e 0000          .xfloat $strtod("0x0p+0")               ; _gMotorVars._Flux_VpHz @ 896
         0000006f 0000 
     122 00000070 0000          .xfloat $strtod("0x0p+0")               ; _gMotorVars._ipd_excFreq_Hz @ 928
         00000071 0000 
     123 00000072 0000          .bits   0,32                    ; _gMotorVars._ipd_Kspd @ 960
         00000073 0000 
     124 00000074 0000          .bits   0,32                    ; _gMotorVars._ipd_excMag_coarse_pu @ 992
TMS320C2000 Assembler PC v6.2.5 Thu Jun 22 20:41:15 2017

Tools Copyright (c) 1996-2014 Texas Instruments Incorporated
C:\Users\wmj\AppData\Local\Temp\1712410                              PAGE    4

         00000075 0000 
     125 00000076 0000          .bits   0,32                    ; _gMotorVars._ipd_excMag_fine_pu @ 1024
         00000077 0000 
     126 00000078 0000          .xfloat $strtod("0x0p+0")               ; _gMotorVars._ipd_waitTime_coarse_sec @ 1056
         00000079 0000 
     127 0000007a 0000          .xfloat $strtod("0x0p+0")               ; _gMotorVars._ipd_waitTime_fine_sec @ 1088
         0000007b 0000 
     128 0000007c 0000          .bits   0,32                    ; _gMotorVars._Kp_spd @ 1120
         0000007d 0000 
     129 0000007e 0000          .bits   0,32                    ; _gMotorVars._Ki_spd @ 1152
         0000007f 0000 
     130 00000080 0000          .bits   0,32                    ; _gMotorVars._Kp_Idq @ 1184
         00000081 0000 
     131 00000082 0000          .bits   0,32                    ; _gMotorVars._Ki_Idq @ 1216
         00000083 0000 
     132 00000084 0000          .bits   0,32                    ; _gMotorVars._Vd @ 1248
         00000085 0000 
     133 00000086 0000          .bits   0,32                    ; _gMotorVars._Vq @ 1280
         00000087 0000 
     134 00000088 0000          .bits   0,32                    ; _gMotorVars._Vs @ 1312
         00000089 0000 
     135 0000008a 6666          .bits   6710886,32                      ; _gMotorVars._VsRef @ 1344
         0000008b 0066 
     136 0000008c 0000          .bits   0,32                    ; _gMotorVars._VdcBus_kV @ 1376
         0000008d 0000 
     137 0000008e 0000          .bits   0,32                    ; _gMotorVars._Id_A @ 1408
         0000008f 0000 
     138 00000090 0000          .bits   0,32                    ; _gMotorVars._Iq_A @ 1440
         00000091 0000 
     139 00000092 0000          .bits   0,32                    ; _gMotorVars._Is_A @ 1472
         00000093 0000 
     140 00000094 0000          .bits   0,32                    ; _gMotorVars._I_bias._value[0] @ 1504
         00000095 0000 
     141 00000096 0000          .bits   0,32                    ; _gMotorVars._I_bias._value[1] @ 1536
         00000097 0000 
     142 00000098 0000          .bits   0,32                    ; _gMotorVars._I_bias._value[2] @ 1568
         00000099 0000 
     143 0000009a 0000          .bits   0,32                    ; _gMotorVars._V_bias._value[0] @ 1600
         0000009b 0000 
     144 0000009c 0000          .bits   0,32                    ; _gMotorVars._V_bias._value[1] @ 1632
         0000009d 0000 
     145 0000009e 0000          .bits   0,32                    ; _gMotorVars._V_bias._value[2] @ 1664
         0000009f 0000 
     146 000000a0 999A          .bits   10066330,32                     ; _gMotorVars._SpeedSet_krpm @ 1696
         000000a1 0099 
     147 000000a2 0000          .bits   0,32                    ; _gMotorVars._angle_sen_pu @ 1728
         000000a3 0000 
     148 000000a4 0000          .bits   0,32                    ; _gMotorVars._angle_est_pu @ 1760
         000000a5 0000 
     149 000000a6 0000          .bits   0,32                    ; _gMotorVars._speed_sen_pu @ 1792
         000000a7 0000 
     150 000000a8 0000          .bits   0,32                    ; _gMotorVars._speed_est_pu @ 1824
         000000a9 0000 
     151 000000aa 0000          .bits   0,32                    ; _gMotorVars._speedHigh_hall2fast_pu @ 1856
         000000ab 0000 
TMS320C2000 Assembler PC v6.2.5 Thu Jun 22 20:41:15 2017

Tools Copyright (c) 1996-2014 Texas Instruments Incorporated
C:\Users\wmj\AppData\Local\Temp\1712410                              PAGE    5

     152 000000ac 0000          .bits   0,32                    ; _gMotorVars._speedLow_hall2fast_pu @ 1888
         000000ad 0000 
     153 000000ae 0000          .bits   0,32                    ; _gMotorVars._IdSet_A @ 1920
         000000af 0000 
     154 000000b0 0000          .bits   0,32                    ; _gMotorVars._IqSet_A @ 1952
         000000b1 0000 
     155 000000b2 0000          .bits   0,32                    ; _gMotorVars._IdRef_pu @ 1984
         000000b3 0000 
     156 000000b4 0000          .bits   0,32                    ; _gMotorVars._IqRef_pu @ 2016
         000000b5 0000 
     157        0080  $C$IR_2:        .set    128
     158              
     159              
     160              $C$DW$1 .dwtag  DW_TAG_subprogram, DW_AT_name("USER_setParams")
     161                      .dwattr $C$DW$1, DW_AT_TI_symbol_name("_USER_setParams")
     162                      .dwattr $C$DW$1, DW_AT_declaration
     163                      .dwattr $C$DW$1, DW_AT_external
     164              $C$DW$2 .dwtag  DW_TAG_formal_parameter
     165                      .dwattr $C$DW$2, DW_AT_type(*$C$DW$T$171)
     166                      .dwendtag $C$DW$1
     167              
     168              
     169              $C$DW$3 .dwtag  DW_TAG_subprogram, DW_AT_name("GPIO_toggle")
     170                      .dwattr $C$DW$3, DW_AT_TI_symbol_name("_GPIO_toggle")
     171                      .dwattr $C$DW$3, DW_AT_declaration
     172                      .dwattr $C$DW$3, DW_AT_external
     173              $C$DW$4 .dwtag  DW_TAG_formal_parameter
     174                      .dwattr $C$DW$4, DW_AT_type(*$C$DW$T$94)
     175              $C$DW$5 .dwtag  DW_TAG_formal_parameter
     176                      .dwattr $C$DW$5, DW_AT_type(*$C$DW$T$183)
     177                      .dwendtag $C$DW$3
     178              
     179              
     180              $C$DW$6 .dwtag  DW_TAG_subprogram, DW_AT_name("CPU_USAGE_setParams")
     181                      .dwattr $C$DW$6, DW_AT_TI_symbol_name("_CPU_USAGE_setParams")
     182                      .dwattr $C$DW$6, DW_AT_declaration
     183                      .dwattr $C$DW$6, DW_AT_external
     184              $C$DW$7 .dwtag  DW_TAG_formal_parameter
     185                      .dwattr $C$DW$7, DW_AT_type(*$C$DW$T$199)
     186              $C$DW$8 .dwtag  DW_TAG_formal_parameter
     187                      .dwattr $C$DW$8, DW_AT_type(*$C$DW$T$267)
     188              $C$DW$9 .dwtag  DW_TAG_formal_parameter
     189                      .dwattr $C$DW$9, DW_AT_type(*$C$DW$T$267)
     190                      .dwendtag $C$DW$6
     191              
     192              
     193              $C$DW$10        .dwtag  DW_TAG_subprogram, DW_AT_name("HAL_setParams")
     194                      .dwattr $C$DW$10, DW_AT_TI_symbol_name("_HAL_setParams")
     195                      .dwattr $C$DW$10, DW_AT_declaration
     196                      .dwattr $C$DW$10, DW_AT_external
     197              $C$DW$11        .dwtag  DW_TAG_formal_parameter
     198                      .dwattr $C$DW$11, DW_AT_type(*$C$DW$T$229)
     199              $C$DW$12        .dwtag  DW_TAG_formal_parameter
     200                      .dwattr $C$DW$12, DW_AT_type(*$C$DW$T$253)
     201                      .dwendtag $C$DW$10
TMS320C2000 Assembler PC v6.2.5 Thu Jun 22 20:41:15 2017

Tools Copyright (c) 1996-2014 Texas Instruments Incorporated
C:\Users\wmj\AppData\Local\Temp\1712410                              PAGE    6

     202              
     203              
     204              $C$DW$13        .dwtag  DW_TAG_subprogram, DW_AT_name("CTRL_setParams")
     205                      .dwattr $C$DW$13, DW_AT_TI_symbol_name("_CTRL_setParams")
     206                      .dwattr $C$DW$13, DW_AT_declaration
     207                      .dwattr $C$DW$13, DW_AT_external
     208              $C$DW$14        .dwtag  DW_TAG_formal_parameter
     209                      .dwattr $C$DW$14, DW_AT_type(*$C$DW$T$165)
     210              $C$DW$15        .dwtag  DW_TAG_formal_parameter
     211                      .dwattr $C$DW$15, DW_AT_type(*$C$DW$T$171)
     212                      .dwendtag $C$DW$13
     213              
     214              
     215              $C$DW$16        .dwtag  DW_TAG_subprogram, DW_AT_name("CTRL_setup")
     216                      .dwattr $C$DW$16, DW_AT_TI_symbol_name("_CTRL_setup")
     217                      .dwattr $C$DW$16, DW_AT_declaration
     218                      .dwattr $C$DW$16, DW_AT_external
     219              $C$DW$17        .dwtag  DW_TAG_formal_parameter
     220                      .dwattr $C$DW$17, DW_AT_type(*$C$DW$T$165)
     221                      .dwendtag $C$DW$16
     222              
     223              
     224              $C$DW$18        .dwtag  DW_TAG_subprogram, DW_AT_name("CTRL_setSpd_ref_krpm")
     225                      .dwattr $C$DW$18, DW_AT_TI_symbol_name("_CTRL_setSpd_ref_krpm")
     226                      .dwattr $C$DW$18, DW_AT_declaration
     227                      .dwattr $C$DW$18, DW_AT_external
     228              $C$DW$19        .dwtag  DW_TAG_formal_parameter
     229                      .dwattr $C$DW$19, DW_AT_type(*$C$DW$T$165)
     230              $C$DW$20        .dwtag  DW_TAG_formal_parameter
     231                      .dwattr $C$DW$20, DW_AT_type(*$C$DW$T$259)
     232                      .dwendtag $C$DW$18
     233              
     234              
     235              $C$DW$21        .dwtag  DW_TAG_subprogram, DW_AT_name("HAL_enableDebugInt")
     236                      .dwattr $C$DW$21, DW_AT_TI_symbol_name("_HAL_enableDebugInt")
     237                      .dwattr $C$DW$21, DW_AT_declaration
     238                      .dwattr $C$DW$21, DW_AT_external
     239              $C$DW$22        .dwtag  DW_TAG_formal_parameter
     240                      .dwattr $C$DW$22, DW_AT_type(*$C$DW$T$229)
     241                      .dwendtag $C$DW$21
     242              
     243              
     244              $C$DW$23        .dwtag  DW_TAG_subprogram, DW_AT_name("HAL_enableAdcInts")
     245                      .dwattr $C$DW$23, DW_AT_TI_symbol_name("_HAL_enableAdcInts")
     246                      .dwattr $C$DW$23, DW_AT_declaration
     247                      .dwattr $C$DW$23, DW_AT_external
     248              $C$DW$24        .dwtag  DW_TAG_formal_parameter
     249                      .dwattr $C$DW$24, DW_AT_type(*$C$DW$T$229)
     250                      .dwendtag $C$DW$23
     251              
     252              
     253              $C$DW$25        .dwtag  DW_TAG_subprogram, DW_AT_name("HAL_enableGlobalInts")
     254                      .dwattr $C$DW$25, DW_AT_TI_symbol_name("_HAL_enableGlobalInts")
     255                      .dwattr $C$DW$25, DW_AT_declaration
     256                      .dwattr $C$DW$25, DW_AT_external
TMS320C2000 Assembler PC v6.2.5 Thu Jun 22 20:41:15 2017

Tools Copyright (c) 1996-2014 Texas Instruments Incorporated
C:\Users\wmj\AppData\Local\Temp\1712410                              PAGE    7

     257              $C$DW$26        .dwtag  DW_TAG_formal_parameter
     258                      .dwattr $C$DW$26, DW_AT_type(*$C$DW$T$229)
     259                      .dwendtag $C$DW$25
     260              
     261              
     262              $C$DW$27        .dwtag  DW_TAG_subprogram, DW_AT_name("CTRL_getVersion")
     263                      .dwattr $C$DW$27, DW_AT_TI_symbol_name("_CTRL_getVersion")
     264                      .dwattr $C$DW$27, DW_AT_declaration
     265                      .dwattr $C$DW$27, DW_AT_external
     266              $C$DW$28        .dwtag  DW_TAG_formal_parameter
     267                      .dwattr $C$DW$28, DW_AT_type(*$C$DW$T$165)
     268              $C$DW$29        .dwtag  DW_TAG_formal_parameter
     269                      .dwattr $C$DW$29, DW_AT_type(*$C$DW$T$213)
     270                      .dwendtag $C$DW$27
     271              
     272              
     273              $C$DW$30        .dwtag  DW_TAG_subprogram, DW_AT_name("USER_softwareUpdate1p6")
     274                      .dwattr $C$DW$30, DW_AT_TI_symbol_name("_USER_softwareUpdate1p6")
     275                      .dwattr $C$DW$30, DW_AT_declaration
     276                      .dwattr $C$DW$30, DW_AT_external
     277              $C$DW$31        .dwtag  DW_TAG_formal_parameter
     278                      .dwattr $C$DW$31, DW_AT_type(*$C$DW$T$165)
     279                      .dwendtag $C$DW$30
     280              
     281              
     282              $C$DW$32        .dwtag  DW_TAG_subprogram, DW_AT_name("USER_checkForErrors")
     283                      .dwattr $C$DW$32, DW_AT_TI_symbol_name("_USER_checkForErrors")
     284                      .dwattr $C$DW$32, DW_AT_declaration
     285                      .dwattr $C$DW$32, DW_AT_external
     286              $C$DW$33        .dwtag  DW_TAG_formal_parameter
     287                      .dwattr $C$DW$33, DW_AT_type(*$C$DW$T$171)
     288                      .dwendtag $C$DW$32
     289              
     290              
     291              $C$DW$34        .dwtag  DW_TAG_subprogram, DW_AT_name("HAL_setupFaults")
     292                      .dwattr $C$DW$34, DW_AT_TI_symbol_name("_HAL_setupFaults")
     293                      .dwattr $C$DW$34, DW_AT_declaration
     294                      .dwattr $C$DW$34, DW_AT_external
     295              $C$DW$35        .dwtag  DW_TAG_formal_parameter
     296                      .dwattr $C$DW$35, DW_AT_type(*$C$DW$T$229)
     297                      .dwendtag $C$DW$34
     298              
     299              
     300              $C$DW$36        .dwtag  DW_TAG_subprogram, DW_AT_name("CTRL_run")
     301                      .dwattr $C$DW$36, DW_AT_TI_symbol_name("_CTRL_run")
     302                      .dwattr $C$DW$36, DW_AT_declaration
     303                      .dwattr $C$DW$36, DW_AT_external
     304              $C$DW$37        .dwtag  DW_TAG_formal_parameter
     305                      .dwattr $C$DW$37, DW_AT_type(*$C$DW$T$165)
     306              $C$DW$38        .dwtag  DW_TAG_formal_parameter
     307                      .dwattr $C$DW$38, DW_AT_type(*$C$DW$T$229)
     308              $C$DW$39        .dwtag  DW_TAG_formal_parameter
     309                      .dwattr $C$DW$39, DW_AT_type(*$C$DW$T$223)
     310              $C$DW$40        .dwtag  DW_TAG_formal_parameter
     311                      .dwattr $C$DW$40, DW_AT_type(*$C$DW$T$234)
TMS320C2000 Assembler PC v6.2.5 Thu Jun 22 20:41:15 2017

Tools Copyright (c) 1996-2014 Texas Instruments Incorporated
C:\Users\wmj\AppData\Local\Temp\1712410                              PAGE    8

     312                      .dwendtag $C$DW$36
     313              
     314              
     315              $C$DW$41        .dwtag  DW_TAG_subprogram, DW_AT_name("USER_calcPIgains")
     316                      .dwattr $C$DW$41, DW_AT_TI_symbol_name("_USER_calcPIgains")
     317                      .dwattr $C$DW$41, DW_AT_declaration
     318                      .dwattr $C$DW$41, DW_AT_external
     319              $C$DW$42        .dwtag  DW_TAG_formal_parameter
     320                      .dwattr $C$DW$42, DW_AT_type(*$C$DW$T$165)
     321                      .dwendtag $C$DW$41
     322              
     323              
     324              $C$DW$43        .dwtag  DW_TAG_subprogram, DW_AT_name("EST_setRsOnLineId_mag_pu")
     325                      .dwattr $C$DW$43, DW_AT_TI_symbol_name("_EST_setRsOnLineId_mag_pu")
     326                      .dwattr $C$DW$43, DW_AT_declaration
     327                      .dwattr $C$DW$43, DW_AT_external
     328              $C$DW$44        .dwtag  DW_TAG_formal_parameter
     329                      .dwattr $C$DW$44, DW_AT_type(*$C$DW$T$50)
     330              $C$DW$45        .dwtag  DW_TAG_formal_parameter
     331                      .dwattr $C$DW$45, DW_AT_type(*$C$DW$T$259)
     332                      .dwendtag $C$DW$43
     333              
     334              
     335              $C$DW$46        .dwtag  DW_TAG_subprogram, DW_AT_name("EST_setRsOnLine_pu")
     336                      .dwattr $C$DW$46, DW_AT_TI_symbol_name("_EST_setRsOnLine_pu")
     337                      .dwattr $C$DW$46, DW_AT_declaration
     338                      .dwattr $C$DW$46, DW_AT_external
     339              $C$DW$47        .dwtag  DW_TAG_formal_parameter
     340                      .dwattr $C$DW$47, DW_AT_type(*$C$DW$T$50)
     341              $C$DW$48        .dwtag  DW_TAG_formal_parameter
     342                      .dwattr $C$DW$48, DW_AT_type(*$C$DW$T$259)
     343                      .dwendtag $C$DW$46
     344              
     345              
     346              $C$DW$49        .dwtag  DW_TAG_subprogram, DW_AT_name("EST_setRsOnLine_qFmt")
     347                      .dwattr $C$DW$49, DW_AT_TI_symbol_name("_EST_setRsOnLine_qFmt")
     348                      .dwattr $C$DW$49, DW_AT_declaration
     349                      .dwattr $C$DW$49, DW_AT_external
     350              $C$DW$50        .dwtag  DW_TAG_formal_parameter
     351                      .dwattr $C$DW$50, DW_AT_type(*$C$DW$T$50)
     352              $C$DW$51        .dwtag  DW_TAG_formal_parameter
     353                      .dwattr $C$DW$51, DW_AT_type(*$C$DW$T$208)
     354                      .dwendtag $C$DW$49
     355              
     356              
     357              $C$DW$52        .dwtag  DW_TAG_subprogram, DW_AT_name("EST_setFlag_enableForceAngle")
     358                      .dwattr $C$DW$52, DW_AT_TI_symbol_name("_EST_setFlag_enableForceAngle")
     359                      .dwattr $C$DW$52, DW_AT_declaration
     360                      .dwattr $C$DW$52, DW_AT_external
     361              $C$DW$53        .dwtag  DW_TAG_formal_parameter
     362                      .dwattr $C$DW$53, DW_AT_type(*$C$DW$T$50)
     363              $C$DW$54        .dwtag  DW_TAG_formal_parameter
     364                      .dwattr $C$DW$54, DW_AT_type(*$C$DW$T$262)
     365                      .dwendtag $C$DW$52
     366              
TMS320C2000 Assembler PC v6.2.5 Thu Jun 22 20:41:15 2017

Tools Copyright (c) 1996-2014 Texas Instruments Incorporated
C:\Users\wmj\AppData\Local\Temp\1712410                              PAGE    9

     367              
     368              $C$DW$55        .dwtag  DW_TAG_subprogram, DW_AT_name("EST_setFlag_enableRsOnLine")
     369                      .dwattr $C$DW$55, DW_AT_TI_symbol_name("_EST_setFlag_enableRsOnLine")
     370                      .dwattr $C$DW$55, DW_AT_declaration
     371                      .dwattr $C$DW$55, DW_AT_external
     372              $C$DW$56        .dwtag  DW_TAG_formal_parameter
     373                      .dwattr $C$DW$56, DW_AT_type(*$C$DW$T$50)
     374              $C$DW$57        .dwtag  DW_TAG_formal_parameter
     375                      .dwattr $C$DW$57, DW_AT_type(*$C$DW$T$262)
     376                      .dwendtag $C$DW$55
     377              
     378              
     379              $C$DW$58        .dwtag  DW_TAG_subprogram, DW_AT_name("memCopy")
     380                      .dwattr $C$DW$58, DW_AT_TI_symbol_name("_memCopy")
     381                      .dwattr $C$DW$58, DW_AT_declaration
     382                      .dwattr $C$DW$58, DW_AT_external
     383              $C$DW$59        .dwtag  DW_TAG_formal_parameter
     384                      .dwattr $C$DW$59, DW_AT_type(*$C$DW$T$256)
     385              $C$DW$60        .dwtag  DW_TAG_formal_parameter
     386                      .dwattr $C$DW$60, DW_AT_type(*$C$DW$T$256)
     387              $C$DW$61        .dwtag  DW_TAG_formal_parameter
     388                      .dwattr $C$DW$61, DW_AT_type(*$C$DW$T$256)
     389                      .dwendtag $C$DW$58
     390              
     391              
     392              $C$DW$62        .dwtag  DW_TAG_subprogram, DW_AT_name("EST_setRsOnLineId_pu")
     393                      .dwattr $C$DW$62, DW_AT_TI_symbol_name("_EST_setRsOnLineId_pu")
     394                      .dwattr $C$DW$62, DW_AT_declaration
     395                      .dwattr $C$DW$62, DW_AT_external
     396              $C$DW$63        .dwtag  DW_TAG_formal_parameter
     397                      .dwattr $C$DW$63, DW_AT_type(*$C$DW$T$50)
     398              $C$DW$64        .dwtag  DW_TAG_formal_parameter
     399                      .dwattr $C$DW$64, DW_AT_type(*$C$DW$T$259)
     400                      .dwendtag $C$DW$62
     401              
     402              
     403              $C$DW$65        .dwtag  DW_TAG_subprogram, DW_AT_name("EST_setMaxCurrentSlope_pu")
     404                      .dwattr $C$DW$65, DW_AT_TI_symbol_name("_EST_setMaxCurrentSlope_pu")
     405                      .dwattr $C$DW$65, DW_AT_declaration
     406                      .dwattr $C$DW$65, DW_AT_external
     407              $C$DW$66        .dwtag  DW_TAG_formal_parameter
     408                      .dwattr $C$DW$66, DW_AT_type(*$C$DW$T$50)
     409              $C$DW$67        .dwtag  DW_TAG_formal_parameter
     410                      .dwattr $C$DW$67, DW_AT_type(*$C$DW$T$259)
     411                      .dwendtag $C$DW$65
     412              
     413              
     414              $C$DW$68        .dwtag  DW_TAG_subprogram, DW_AT_name("EST_setFlag_enableRsRecalc")
     415                      .dwattr $C$DW$68, DW_AT_TI_symbol_name("_EST_setFlag_enableRsRecalc")
     416                      .dwattr $C$DW$68, DW_AT_declaration
     417                      .dwattr $C$DW$68, DW_AT_external
     418              $C$DW$69        .dwtag  DW_TAG_formal_parameter
     419                      .dwattr $C$DW$69, DW_AT_type(*$C$DW$T$50)
     420              $C$DW$70        .dwtag  DW_TAG_formal_parameter
     421                      .dwattr $C$DW$70, DW_AT_type(*$C$DW$T$262)
TMS320C2000 Assembler PC v6.2.5 Thu Jun 22 20:41:15 2017

Tools Copyright (c) 1996-2014 Texas Instruments Incorporated
C:\Users\wmj\AppData\Local\Temp\1712410                              PAGE   10

     422                      .dwendtag $C$DW$68
     423              
     424              
     425              $C$DW$71        .dwtag  DW_TAG_subprogram, DW_AT_name("FEM_setParams")
     426                      .dwattr $C$DW$71, DW_AT_TI_symbol_name("_FEM_setParams")
     427                      .dwattr $C$DW$71, DW_AT_declaration
     428                      .dwattr $C$DW$71, DW_AT_external
     429              $C$DW$72        .dwtag  DW_TAG_formal_parameter
     430                      .dwattr $C$DW$72, DW_AT_type(*$C$DW$T$218)
     431              $C$DW$73        .dwtag  DW_TAG_formal_parameter
     432                      .dwattr $C$DW$73, DW_AT_type(*$C$DW$T$270)
     433              $C$DW$74        .dwtag  DW_TAG_formal_parameter
     434                      .dwattr $C$DW$74, DW_AT_type(*$C$DW$T$267)
     435              $C$DW$75        .dwtag  DW_TAG_formal_parameter
     436                      .dwattr $C$DW$75, DW_AT_type(*$C$DW$T$270)
     437              $C$DW$76        .dwtag  DW_TAG_formal_parameter
     438                      .dwattr $C$DW$76, DW_AT_type(*$C$DW$T$270)
     439                      .dwendtag $C$DW$71
     440              
     441              
     442              $C$DW$77        .dwtag  DW_TAG_subprogram, DW_AT_name("EST_setFlag_updateRs")
     443                      .dwattr $C$DW$77, DW_AT_TI_symbol_name("_EST_setFlag_updateRs")
     444                      .dwattr $C$DW$77, DW_AT_declaration
     445                      .dwattr $C$DW$77, DW_AT_external
     446              $C$DW$78        .dwtag  DW_TAG_formal_parameter
     447                      .dwattr $C$DW$78, DW_AT_type(*$C$DW$T$50)
     448              $C$DW$79        .dwtag  DW_TAG_formal_parameter
     449                      .dwattr $C$DW$79, DW_AT_type(*$C$DW$T$262)
     450                      .dwendtag $C$DW$77
     451              
     452              
     453              $C$DW$80        .dwtag  DW_TAG_subprogram, DW_AT_name("HAL_I2c_Pca9555_WrData")
     454                      .dwattr $C$DW$80, DW_AT_TI_symbol_name("_HAL_I2c_Pca9555_WrData")
     455                      .dwattr $C$DW$80, DW_AT_declaration
     456                      .dwattr $C$DW$80, DW_AT_external
     457              $C$DW$81        .dwtag  DW_TAG_formal_parameter
     458                      .dwattr $C$DW$81, DW_AT_type(*$C$DW$T$229)
     459              $C$DW$82        .dwtag  DW_TAG_formal_parameter
     460                      .dwattr $C$DW$82, DW_AT_type(*$C$DW$T$23)
     461              $C$DW$83        .dwtag  DW_TAG_formal_parameter
     462                      .dwattr $C$DW$83, DW_AT_type(*$C$DW$T$23)
     463                      .dwendtag $C$DW$80
     464              
     465                      .global _gLEDcnt
     466 00000000       _gLEDcnt:       .usect  ".ebss",1,1,0
     467              $C$DW$84        .dwtag  DW_TAG_variable, DW_AT_name("gLEDcnt")
     468                      .dwattr $C$DW$84, DW_AT_TI_symbol_name("_gLEDcnt")
     469                      .dwattr $C$DW$84, DW_AT_location[DW_OP_addr _gLEDcnt]
     470                      .dwattr $C$DW$84, DW_AT_type(*$C$DW$T$23)
     471                      .dwattr $C$DW$84, DW_AT_external
     472              
     473              $C$DW$85        .dwtag  DW_TAG_subprogram, DW_AT_name("EST_getRs_qFmt")
     474                      .dwattr $C$DW$85, DW_AT_TI_symbol_name("_EST_getRs_qFmt")
     475                      .dwattr $C$DW$85, DW_AT_type(*$C$DW$T$33)
     476                      .dwattr $C$DW$85, DW_AT_declaration
TMS320C2000 Assembler PC v6.2.5 Thu Jun 22 20:41:15 2017

Tools Copyright (c) 1996-2014 Texas Instruments Incorporated
C:\Users\wmj\AppData\Local\Temp\1712410                              PAGE   11

     477                      .dwattr $C$DW$85, DW_AT_external
     478              $C$DW$86        .dwtag  DW_TAG_formal_parameter
     479                      .dwattr $C$DW$86, DW_AT_type(*$C$DW$T$50)
     480                      .dwendtag $C$DW$85
     481              
     482              
     483              $C$DW$87        .dwtag  DW_TAG_subprogram, DW_AT_name("CTRL_updateState")
     484                      .dwattr $C$DW$87, DW_AT_TI_symbol_name("_CTRL_updateState")
     485                      .dwattr $C$DW$87, DW_AT_type(*$C$DW$T$39)
     486                      .dwattr $C$DW$87, DW_AT_declaration
     487                      .dwattr $C$DW$87, DW_AT_external
     488              $C$DW$88        .dwtag  DW_TAG_formal_parameter
     489                      .dwattr $C$DW$88, DW_AT_type(*$C$DW$T$165)
     490                      .dwendtag $C$DW$87
     491              
     492              
     493              $C$DW$89        .dwtag  DW_TAG_subprogram, DW_AT_name("EST_getState")
     494                      .dwattr $C$DW$89, DW_AT_TI_symbol_name("_EST_getState")
     495                      .dwattr $C$DW$89, DW_AT_type(*$C$DW$T$130)
     496                      .dwattr $C$DW$89, DW_AT_declaration
     497                      .dwattr $C$DW$89, DW_AT_external
     498              $C$DW$90        .dwtag  DW_TAG_formal_parameter
     499                      .dwattr $C$DW$90, DW_AT_type(*$C$DW$T$50)
     500                      .dwendtag $C$DW$89
     501              
     502              
     503              $C$DW$91        .dwtag  DW_TAG_subprogram, DW_AT_name("EST_isMotorIdentified")
     504                      .dwattr $C$DW$91, DW_AT_TI_symbol_name("_EST_isMotorIdentified")
     505                      .dwattr $C$DW$91, DW_AT_type(*$C$DW$T$39)
     506                      .dwattr $C$DW$91, DW_AT_declaration
     507                      .dwattr $C$DW$91, DW_AT_external
     508              $C$DW$92        .dwtag  DW_TAG_formal_parameter
     509                      .dwattr $C$DW$92, DW_AT_type(*$C$DW$T$50)
     510                      .dwendtag $C$DW$91
     511              
     512              
     513              $C$DW$93        .dwtag  DW_TAG_subprogram, DW_AT_name("abs")
     514                      .dwattr $C$DW$93, DW_AT_TI_symbol_name("_abs")
     515                      .dwattr $C$DW$93, DW_AT_type(*$C$DW$T$10)
     516                      .dwattr $C$DW$93, DW_AT_declaration
     517                      .dwattr $C$DW$93, DW_AT_external
     518              $C$DW$94        .dwtag  DW_TAG_formal_parameter
     519                      .dwattr $C$DW$94, DW_AT_type(*$C$DW$T$10)
     520                      .dwendtag $C$DW$93
     521              
     522                      .global _Flag_Latch_softwareUpdate
     523 00000001       _Flag_Latch_softwareUpdate:     .usect  ".ebss",1,1,0
     524              $C$DW$95        .dwtag  DW_TAG_variable, DW_AT_name("Flag_Latch_softwareUpdate")
     525                      .dwattr $C$DW$95, DW_AT_TI_symbol_name("_Flag_Latch_softwareUpdate")
     526                      .dwattr $C$DW$95, DW_AT_location[DW_OP_addr _Flag_Latch_softwareUpdate]
     527                      .dwattr $C$DW$95, DW_AT_type(*$C$DW$T$39)
     528                      .dwattr $C$DW$95, DW_AT_external
     529                      .global _gCounter_updateGlobals
     530 00000002       _gCounter_updateGlobals:        .usect  ".ebss",1,1,0
     531              $C$DW$96        .dwtag  DW_TAG_variable, DW_AT_name("gCounter_updateGlobals")
TMS320C2000 Assembler PC v6.2.5 Thu Jun 22 20:41:15 2017

Tools Copyright (c) 1996-2014 Texas Instruments Incorporated
C:\Users\wmj\AppData\Local\Temp\1712410                              PAGE   12

     532                      .dwattr $C$DW$96, DW_AT_TI_symbol_name("_gCounter_updateGlobals")
     533                      .dwattr $C$DW$96, DW_AT_location[DW_OP_addr _gCounter_updateGlobals]
     534                      .dwattr $C$DW$96, DW_AT_type(*$C$DW$T$69)
     535                      .dwattr $C$DW$96, DW_AT_external
     536              
     537              $C$DW$97        .dwtag  DW_TAG_subprogram, DW_AT_name("USER_getErrorCode")
     538                      .dwattr $C$DW$97, DW_AT_TI_symbol_name("_USER_getErrorCode")
     539                      .dwattr $C$DW$97, DW_AT_type(*$C$DW$T$132)
     540                      .dwattr $C$DW$97, DW_AT_declaration
     541                      .dwattr $C$DW$97, DW_AT_external
     542              $C$DW$98        .dwtag  DW_TAG_formal_parameter
     543                      .dwattr $C$DW$98, DW_AT_type(*$C$DW$T$171)
     544                      .dwendtag $C$DW$97
     545              
     546              $C$DW$99        .dwtag  DW_TAG_variable, DW_AT_name("RamfuncsLoadEnd")
     547                      .dwattr $C$DW$99, DW_AT_TI_symbol_name("_RamfuncsLoadEnd")
     548                      .dwattr $C$DW$99, DW_AT_type(*$C$DW$T$256)
     549                      .dwattr $C$DW$99, DW_AT_declaration
     550                      .dwattr $C$DW$99, DW_AT_external
     551              $C$DW$100       .dwtag  DW_TAG_variable, DW_AT_name("RamfuncsRunStart")
     552                      .dwattr $C$DW$100, DW_AT_TI_symbol_name("_RamfuncsRunStart")
     553                      .dwattr $C$DW$100, DW_AT_type(*$C$DW$T$256)
     554                      .dwattr $C$DW$100, DW_AT_declaration
     555                      .dwattr $C$DW$100, DW_AT_external
     556              $C$DW$101       .dwtag  DW_TAG_variable, DW_AT_name("RamfuncsLoadStart")
     557                      .dwattr $C$DW$101, DW_AT_TI_symbol_name("_RamfuncsLoadStart")
     558                      .dwattr $C$DW$101, DW_AT_type(*$C$DW$T$256)
     559                      .dwattr $C$DW$101, DW_AT_declaration
     560                      .dwattr $C$DW$101, DW_AT_external
     561                      .global _gMaxCurrentSlope
     562 00000004       _gMaxCurrentSlope:      .usect  ".ebss",2,1,1
     563              $C$DW$102       .dwtag  DW_TAG_variable, DW_AT_name("gMaxCurrentSlope")
     564                      .dwattr $C$DW$102, DW_AT_TI_symbol_name("_gMaxCurrentSlope")
     565                      .dwattr $C$DW$102, DW_AT_location[DW_OP_addr _gMaxCurrentSlope]
     566                      .dwattr $C$DW$102, DW_AT_type(*$C$DW$T$32)
     567                      .dwattr $C$DW$102, DW_AT_external
     568                      .global _gTorque_Flux_Iq_pu_to_Nm_sf
     569 00000006       _gTorque_Flux_Iq_pu_to_Nm_sf:   .usect  ".ebss",2,1,1
     570              $C$DW$103       .dwtag  DW_TAG_variable, DW_AT_name("gTorque_Flux_Iq_pu_to_Nm_sf")
     571                      .dwattr $C$DW$103, DW_AT_TI_symbol_name("_gTorque_Flux_Iq_pu_to_Nm_sf")
     572                      .dwattr $C$DW$103, DW_AT_location[DW_OP_addr _gTorque_Flux_Iq_pu_to_Nm_sf]
     573                      .dwattr $C$DW$103, DW_AT_type(*$C$DW$T$32)
     574                      .dwattr $C$DW$103, DW_AT_external
     575                      .global _gTorque_Ls_Id_Iq_pu_to_Nm_sf
     576 00000008       _gTorque_Ls_Id_Iq_pu_to_Nm_sf:  .usect  ".ebss",2,1,1
     577              $C$DW$104       .dwtag  DW_TAG_variable, DW_AT_name("gTorque_Ls_Id_Iq_pu_to_Nm_sf")
     578                      .dwattr $C$DW$104, DW_AT_TI_symbol_name("_gTorque_Ls_Id_Iq_pu_to_Nm_sf")
     579                      .dwattr $C$DW$104, DW_AT_location[DW_OP_addr _gTorque_Ls_Id_Iq_pu_to_Nm_sf]
     580                      .dwattr $C$DW$104, DW_AT_type(*$C$DW$T$32)
     581                      .dwattr $C$DW$104, DW_AT_external
     582                      .global _gFlux_pu_to_VpHz_sf
     583 0000000a       _gFlux_pu_to_VpHz_sf:   .usect  ".ebss",2,1,1
     584              $C$DW$105       .dwtag  DW_TAG_variable, DW_AT_name("gFlux_pu_to_VpHz_sf")
     585                      .dwattr $C$DW$105, DW_AT_TI_symbol_name("_gFlux_pu_to_VpHz_sf")
     586                      .dwattr $C$DW$105, DW_AT_location[DW_OP_addr _gFlux_pu_to_VpHz_sf]
TMS320C2000 Assembler PC v6.2.5 Thu Jun 22 20:41:15 2017

Tools Copyright (c) 1996-2014 Texas Instruments Incorporated
C:\Users\wmj\AppData\Local\Temp\1712410                              PAGE   13

     587                      .dwattr $C$DW$105, DW_AT_type(*$C$DW$T$32)
     588                      .dwattr $C$DW$105, DW_AT_external
     589              
     590              $C$DW$106       .dwtag  DW_TAG_subprogram, DW_AT_name("HAL_init")
     591                      .dwattr $C$DW$106, DW_AT_TI_symbol_name("_HAL_init")
     592                      .dwattr $C$DW$106, DW_AT_type(*$C$DW$T$229)
     593                      .dwattr $C$DW$106, DW_AT_declaration
     594                      .dwattr $C$DW$106, DW_AT_external
     595              $C$DW$107       .dwtag  DW_TAG_formal_parameter
     596                      .dwattr $C$DW$107, DW_AT_type(*$C$DW$T$3)
     597              $C$DW$108       .dwtag  DW_TAG_formal_parameter
     598                      .dwattr $C$DW$108, DW_AT_type(*$C$DW$T$201)
     599                      .dwendtag $C$DW$106
     600              
     601                      .global _gFlux_pu_to_Wb_sf
     602 0000000c       _gFlux_pu_to_Wb_sf:     .usect  ".ebss",2,1,1
     603              $C$DW$109       .dwtag  DW_TAG_variable, DW_AT_name("gFlux_pu_to_Wb_sf")
     604                      .dwattr $C$DW$109, DW_AT_TI_symbol_name("_gFlux_pu_to_Wb_sf")
     605                      .dwattr $C$DW$109, DW_AT_location[DW_OP_addr _gFlux_pu_to_Wb_sf]
     606                      .dwattr $C$DW$109, DW_AT_type(*$C$DW$T$32)
     607                      .dwattr $C$DW$109, DW_AT_external
     608                      .global _femHandle
     609 0000000e       _femHandle:     .usect  ".ebss",2,1,1
     610              $C$DW$110       .dwtag  DW_TAG_variable, DW_AT_name("femHandle")
     611                      .dwattr $C$DW$110, DW_AT_TI_symbol_name("_femHandle")
     612                      .dwattr $C$DW$110, DW_AT_location[DW_OP_addr _femHandle]
     613                      .dwattr $C$DW$110, DW_AT_type(*$C$DW$T$218)
     614                      .dwattr $C$DW$110, DW_AT_external
     615                      .global _halHandle
     616 00000010       _halHandle:     .usect  ".ebss",2,1,1
     617              $C$DW$111       .dwtag  DW_TAG_variable, DW_AT_name("halHandle")
     618                      .dwattr $C$DW$111, DW_AT_TI_symbol_name("_halHandle")
     619                      .dwattr $C$DW$111, DW_AT_location[DW_OP_addr _halHandle]
     620                      .dwattr $C$DW$111, DW_AT_type(*$C$DW$T$229)
     621                      .dwattr $C$DW$111, DW_AT_external
     622                      .global _gNumFreqErrors
     623 00000012       _gNumFreqErrors:        .usect  ".ebss",2,1,1
     624              $C$DW$112       .dwtag  DW_TAG_variable, DW_AT_name("gNumFreqErrors")
     625                      .dwattr $C$DW$112, DW_AT_TI_symbol_name("_gNumFreqErrors")
     626                      .dwattr $C$DW$112, DW_AT_location[DW_OP_addr _gNumFreqErrors]
     627                      .dwattr $C$DW$112, DW_AT_type(*$C$DW$T$38)
     628                      .dwattr $C$DW$112, DW_AT_external
     629                      .global _gMaxDeltaCntObserved
     630 00000014       _gMaxDeltaCntObserved:  .usect  ".ebss",2,1,1
     631              $C$DW$113       .dwtag  DW_TAG_variable, DW_AT_name("gMaxDeltaCntObserved")
     632                      .dwattr $C$DW$113, DW_AT_TI_symbol_name("_gMaxDeltaCntObserved")
     633                      .dwattr $C$DW$113, DW_AT_location[DW_OP_addr _gMaxDeltaCntObserved]
     634                      .dwattr $C$DW$113, DW_AT_type(*$C$DW$T$38)
     635                      .dwattr $C$DW$113, DW_AT_external
     636                      .global _gCpuUsagePercentageAvg
     637 00000016       _gCpuUsagePercentageAvg:        .usect  ".ebss",2,1,1
     638              $C$DW$114       .dwtag  DW_TAG_variable, DW_AT_name("gCpuUsagePercentageAvg")
     639                      .dwattr $C$DW$114, DW_AT_TI_symbol_name("_gCpuUsagePercentageAvg")
     640                      .dwattr $C$DW$114, DW_AT_location[DW_OP_addr _gCpuUsagePercentageAvg]
     641                      .dwattr $C$DW$114, DW_AT_type(*$C$DW$T$70)
TMS320C2000 Assembler PC v6.2.5 Thu Jun 22 20:41:15 2017

Tools Copyright (c) 1996-2014 Texas Instruments Incorporated
C:\Users\wmj\AppData\Local\Temp\1712410                              PAGE   14

     642                      .dwattr $C$DW$114, DW_AT_external
     643                      .global _gCpuUsagePercentageMax
     644 00000018       _gCpuUsagePercentageMax:        .usect  ".ebss",2,1,1
     645              $C$DW$115       .dwtag  DW_TAG_variable, DW_AT_name("gCpuUsagePercentageMax")
     646                      .dwattr $C$DW$115, DW_AT_TI_symbol_name("_gCpuUsagePercentageMax")
     647                      .dwattr $C$DW$115, DW_AT_location[DW_OP_addr _gCpuUsagePercentageMax]
     648                      .dwattr $C$DW$115, DW_AT_type(*$C$DW$T$70)
     649                      .dwattr $C$DW$115, DW_AT_external
     650                      .global _ctrlHandle
     651 0000001a       _ctrlHandle:    .usect  ".ebss",2,1,1
     652              $C$DW$116       .dwtag  DW_TAG_variable, DW_AT_name("ctrlHandle")
     653                      .dwattr $C$DW$116, DW_AT_TI_symbol_name("_ctrlHandle")
     654                      .dwattr $C$DW$116, DW_AT_location[DW_OP_addr _ctrlHandle]
     655                      .dwattr $C$DW$116, DW_AT_type(*$C$DW$T$165)
     656                      .dwattr $C$DW$116, DW_AT_external
     657                      .global _gCpuUsagePercentageMin
     658 0000001c       _gCpuUsagePercentageMin:        .usect  ".ebss",2,1,1
     659              $C$DW$117       .dwtag  DW_TAG_variable, DW_AT_name("gCpuUsagePercentageMin")
     660                      .dwattr $C$DW$117, DW_AT_TI_symbol_name("_gCpuUsagePercentageMin")
     661                      .dwattr $C$DW$117, DW_AT_location[DW_OP_addr _gCpuUsagePercentageMin]
     662                      .dwattr $C$DW$117, DW_AT_type(*$C$DW$T$70)
     663                      .dwattr $C$DW$117, DW_AT_external
     664                      .global _cpu_usageHandle
     665 0000001e       _cpu_usageHandle:       .usect  ".ebss",2,1,1
     666              $C$DW$118       .dwtag  DW_TAG_variable, DW_AT_name("cpu_usageHandle")
     667                      .dwattr $C$DW$118, DW_AT_TI_symbol_name("_cpu_usageHandle")
     668                      .dwattr $C$DW$118, DW_AT_location[DW_OP_addr _cpu_usageHandle]
     669                      .dwattr $C$DW$118, DW_AT_type(*$C$DW$T$199)
     670                      .dwattr $C$DW$118, DW_AT_external
     671              
     672              $C$DW$119       .dwtag  DW_TAG_subprogram, DW_AT_name("EST_getSpeed_krpm")
     673                      .dwattr $C$DW$119, DW_AT_TI_symbol_name("_EST_getSpeed_krpm")
     674                      .dwattr $C$DW$119, DW_AT_type(*$C$DW$T$32)
     675                      .dwattr $C$DW$119, DW_AT_declaration
     676                      .dwattr $C$DW$119, DW_AT_external
     677              $C$DW$120       .dwtag  DW_TAG_formal_parameter
     678                      .dwattr $C$DW$120, DW_AT_type(*$C$DW$T$50)
     679                      .dwendtag $C$DW$119
     680              
     681              
     682              $C$DW$121       .dwtag  DW_TAG_subprogram, DW_AT_name("EST_getRsOnLine_Ohm")
     683                      .dwattr $C$DW$121, DW_AT_TI_symbol_name("_EST_getRsOnLine_Ohm")
     684                      .dwattr $C$DW$121, DW_AT_type(*$C$DW$T$70)
     685                      .dwattr $C$DW$121, DW_AT_declaration
     686                      .dwattr $C$DW$121, DW_AT_external
     687              $C$DW$122       .dwtag  DW_TAG_formal_parameter
     688                      .dwattr $C$DW$122, DW_AT_type(*$C$DW$T$50)
     689                      .dwendtag $C$DW$121
     690              
     691              
     692              $C$DW$123       .dwtag  DW_TAG_subprogram, DW_AT_name("FEM_init")
     693                      .dwattr $C$DW$123, DW_AT_TI_symbol_name("_FEM_init")
     694                      .dwattr $C$DW$123, DW_AT_type(*$C$DW$T$218)
     695                      .dwattr $C$DW$123, DW_AT_declaration
     696                      .dwattr $C$DW$123, DW_AT_external
TMS320C2000 Assembler PC v6.2.5 Thu Jun 22 20:41:15 2017

Tools Copyright (c) 1996-2014 Texas Instruments Incorporated
C:\Users\wmj\AppData\Local\Temp\1712410                              PAGE   15

     697              $C$DW$124       .dwtag  DW_TAG_formal_parameter
     698                      .dwattr $C$DW$124, DW_AT_type(*$C$DW$T$3)
     699              $C$DW$125       .dwtag  DW_TAG_formal_parameter
     700                      .dwattr $C$DW$125, DW_AT_type(*$C$DW$T$201)
     701                      .dwendtag $C$DW$123
     702              
     703              
     704              $C$DW$126       .dwtag  DW_TAG_subprogram, DW_AT_name("EST_getIdRated")
     705                      .dwattr $C$DW$126, DW_AT_TI_symbol_name("_EST_getIdRated")
     706                      .dwattr $C$DW$126, DW_AT_type(*$C$DW$T$70)
     707                      .dwattr $C$DW$126, DW_AT_declaration
     708                      .dwattr $C$DW$126, DW_AT_external
     709              $C$DW$127       .dwtag  DW_TAG_formal_parameter
     710                      .dwattr $C$DW$127, DW_AT_type(*$C$DW$T$50)
     711                      .dwendtag $C$DW$126
     712              
     713              
     714              $C$DW$128       .dwtag  DW_TAG_subprogram, DW_AT_name("EST_getLs_d_H")
     715                      .dwattr $C$DW$128, DW_AT_TI_symbol_name("_EST_getLs_d_H")
     716                      .dwattr $C$DW$128, DW_AT_type(*$C$DW$T$70)
     717                      .dwattr $C$DW$128, DW_AT_declaration
     718                      .dwattr $C$DW$128, DW_AT_external
     719              $C$DW$129       .dwtag  DW_TAG_formal_parameter
     720                      .dwattr $C$DW$129, DW_AT_type(*$C$DW$T$50)
     721                      .dwendtag $C$DW$128
     722              
     723              
     724              $C$DW$130       .dwtag  DW_TAG_subprogram, DW_AT_name("EST_getFlux_VpHz")
     725                      .dwattr $C$DW$130, DW_AT_TI_symbol_name("_EST_getFlux_VpHz")
     726                      .dwattr $C$DW$130, DW_AT_type(*$C$DW$T$70)
     727                      .dwattr $C$DW$130, DW_AT_declaration
     728                      .dwattr $C$DW$130, DW_AT_external
     729              $C$DW$131       .dwtag  DW_TAG_formal_parameter
     730                      .dwattr $C$DW$131, DW_AT_type(*$C$DW$T$50)
     731                      .dwendtag $C$DW$130
     732              
     733              
     734              $C$DW$132       .dwtag  DW_TAG_subprogram, DW_AT_name("__IQsat")
     735                      .dwattr $C$DW$132, DW_AT_TI_symbol_name("___IQsat")
     736                      .dwattr $C$DW$132, DW_AT_type(*$C$DW$T$12)
     737                      .dwattr $C$DW$132, DW_AT_declaration
     738                      .dwattr $C$DW$132, DW_AT_external
     739              $C$DW$133       .dwtag  DW_TAG_formal_parameter
     740                      .dwattr $C$DW$133, DW_AT_type(*$C$DW$T$12)
     741              $C$DW$134       .dwtag  DW_TAG_formal_parameter
     742                      .dwattr $C$DW$134, DW_AT_type(*$C$DW$T$12)
     743              $C$DW$135       .dwtag  DW_TAG_formal_parameter
     744                      .dwattr $C$DW$135, DW_AT_type(*$C$DW$T$12)
     745                      .dwendtag $C$DW$132
     746              
     747              
     748              $C$DW$136       .dwtag  DW_TAG_subprogram, DW_AT_name("EST_get_pu_to_krpm_sf")
     749                      .dwattr $C$DW$136, DW_AT_TI_symbol_name("_EST_get_pu_to_krpm_sf")
     750                      .dwattr $C$DW$136, DW_AT_type(*$C$DW$T$32)
     751                      .dwattr $C$DW$136, DW_AT_declaration
TMS320C2000 Assembler PC v6.2.5 Thu Jun 22 20:41:15 2017

Tools Copyright (c) 1996-2014 Texas Instruments Incorporated
C:\Users\wmj\AppData\Local\Temp\1712410                              PAGE   16

     752                      .dwattr $C$DW$136, DW_AT_external
     753              $C$DW$137       .dwtag  DW_TAG_formal_parameter
     754                      .dwattr $C$DW$137, DW_AT_type(*$C$DW$T$50)
     755                      .dwendtag $C$DW$136
     756              
     757              
     758              $C$DW$138       .dwtag  DW_TAG_subprogram, DW_AT_name("__IQmpy")
     759                      .dwattr $C$DW$138, DW_AT_TI_symbol_name("___IQmpy")
     760                      .dwattr $C$DW$138, DW_AT_type(*$C$DW$T$12)
     761                      .dwattr $C$DW$138, DW_AT_declaration
     762                      .dwattr $C$DW$138, DW_AT_external
     763              $C$DW$139       .dwtag  DW_TAG_formal_parameter
     764                      .dwattr $C$DW$139, DW_AT_type(*$C$DW$T$12)
     765              $C$DW$140       .dwtag  DW_TAG_formal_parameter
     766                      .dwattr $C$DW$140, DW_AT_type(*$C$DW$T$12)
     767              $C$DW$141       .dwtag  DW_TAG_formal_parameter
     768                      .dwattr $C$DW$141, DW_AT_type(*$C$DW$T$10)
     769                      .dwendtag $C$DW$138
     770              
     771              
     772              $C$DW$142       .dwtag  DW_TAG_subprogram, DW_AT_name("EST_getRs_pu")
     773                      .dwattr $C$DW$142, DW_AT_TI_symbol_name("_EST_getRs_pu")
     774                      .dwattr $C$DW$142, DW_AT_type(*$C$DW$T$32)
     775                      .dwattr $C$DW$142, DW_AT_declaration
     776                      .dwattr $C$DW$142, DW_AT_external
     777              $C$DW$143       .dwtag  DW_TAG_formal_parameter
     778                      .dwattr $C$DW$143, DW_AT_type(*$C$DW$T$50)
     779                      .dwendtag $C$DW$142
     780              
     781              
     782              $C$DW$144       .dwtag  DW_TAG_subprogram, DW_AT_name("EST_getRs_Ohm")
     783                      .dwattr $C$DW$144, DW_AT_TI_symbol_name("_EST_getRs_Ohm")
     784                      .dwattr $C$DW$144, DW_AT_type(*$C$DW$T$70)
     785                      .dwattr $C$DW$144, DW_AT_declaration
     786                      .dwattr $C$DW$144, DW_AT_external
     787              $C$DW$145       .dwtag  DW_TAG_formal_parameter
     788                      .dwattr $C$DW$145, DW_AT_type(*$C$DW$T$50)
     789                      .dwendtag $C$DW$144
     790              
     791              
     792              $C$DW$146       .dwtag  DW_TAG_subprogram, DW_AT_name("EST_getMaxCurrentSlope_pu")
     793                      .dwattr $C$DW$146, DW_AT_TI_symbol_name("_EST_getMaxCurrentSlope_pu")
     794                      .dwattr $C$DW$146, DW_AT_type(*$C$DW$T$32)
     795                      .dwattr $C$DW$146, DW_AT_declaration
     796                      .dwattr $C$DW$146, DW_AT_external
     797              $C$DW$147       .dwtag  DW_TAG_formal_parameter
     798                      .dwattr $C$DW$147, DW_AT_type(*$C$DW$T$50)
     799                      .dwendtag $C$DW$146
     800              
     801              
     802              $C$DW$148       .dwtag  DW_TAG_subprogram, DW_AT_name("EST_getRr_Ohm")
     803                      .dwattr $C$DW$148, DW_AT_TI_symbol_name("_EST_getRr_Ohm")
     804                      .dwattr $C$DW$148, DW_AT_type(*$C$DW$T$70)
     805                      .dwattr $C$DW$148, DW_AT_declaration
     806                      .dwattr $C$DW$148, DW_AT_external
TMS320C2000 Assembler PC v6.2.5 Thu Jun 22 20:41:15 2017

Tools Copyright (c) 1996-2014 Texas Instruments Incorporated
C:\Users\wmj\AppData\Local\Temp\1712410                              PAGE   17

     807              $C$DW$149       .dwtag  DW_TAG_formal_parameter
     808                      .dwattr $C$DW$149, DW_AT_type(*$C$DW$T$50)
     809                      .dwendtag $C$DW$148
     810              
     811              
     812              $C$DW$150       .dwtag  DW_TAG_subprogram, DW_AT_name("USER_computeTorque_Ls_Id_Iq_pu_to_Nm_sf")
     813                      .dwattr $C$DW$150, DW_AT_TI_symbol_name("_USER_computeTorque_Ls_Id_Iq_pu_to_Nm_sf")
     814                      .dwattr $C$DW$150, DW_AT_type(*$C$DW$T$32)
     815                      .dwattr $C$DW$150, DW_AT_declaration
     816                      .dwattr $C$DW$150, DW_AT_external
     817              
     818              $C$DW$151       .dwtag  DW_TAG_subprogram, DW_AT_name("USER_computeFlux_pu_to_Wb_sf")
     819                      .dwattr $C$DW$151, DW_AT_TI_symbol_name("_USER_computeFlux_pu_to_Wb_sf")
     820                      .dwattr $C$DW$151, DW_AT_type(*$C$DW$T$32)
     821                      .dwattr $C$DW$151, DW_AT_declaration
     822                      .dwattr $C$DW$151, DW_AT_external
     823              
     824              $C$DW$152       .dwtag  DW_TAG_subprogram, DW_AT_name("USER_computeTorque_Flux_Iq_pu_to_Nm_sf")
     825                      .dwattr $C$DW$152, DW_AT_TI_symbol_name("_USER_computeTorque_Flux_Iq_pu_to_Nm_sf")
     826                      .dwattr $C$DW$152, DW_AT_type(*$C$DW$T$32)
     827                      .dwattr $C$DW$152, DW_AT_declaration
     828                      .dwattr $C$DW$152, DW_AT_external
     829              
     830              $C$DW$153       .dwtag  DW_TAG_subprogram, DW_AT_name("CTRL_initCtrl")
     831                      .dwattr $C$DW$153, DW_AT_TI_symbol_name("_CTRL_initCtrl")
     832                      .dwattr $C$DW$153, DW_AT_type(*$C$DW$T$165)
     833                      .dwattr $C$DW$153, DW_AT_declaration
     834                      .dwattr $C$DW$153, DW_AT_external
     835              $C$DW$154       .dwtag  DW_TAG_formal_parameter
     836                      .dwattr $C$DW$154, DW_AT_type(*$C$DW$T$208)
     837              $C$DW$155       .dwtag  DW_TAG_formal_parameter
     838                      .dwattr $C$DW$155, DW_AT_type(*$C$DW$T$3)
     839              $C$DW$156       .dwtag  DW_TAG_formal_parameter
     840                      .dwattr $C$DW$156, DW_AT_type(*$C$DW$T$201)
     841                      .dwendtag $C$DW$153
     842              
     843              
     844              $C$DW$157       .dwtag  DW_TAG_subprogram, DW_AT_name("USER_computeFlux")
     845                      .dwattr $C$DW$157, DW_AT_TI_symbol_name("_USER_computeFlux")
     846                      .dwattr $C$DW$157, DW_AT_type(*$C$DW$T$32)
     847                      .dwattr $C$DW$157, DW_AT_declaration
     848                      .dwattr $C$DW$157, DW_AT_external
     849              $C$DW$158       .dwtag  DW_TAG_formal_parameter
     850                      .dwattr $C$DW$158, DW_AT_type(*$C$DW$T$165)
     851              $C$DW$159       .dwtag  DW_TAG_formal_parameter
     852                      .dwattr $C$DW$159, DW_AT_type(*$C$DW$T$259)
     853                      .dwendtag $C$DW$157
     854              
     855              
     856              $C$DW$160       .dwtag  DW_TAG_subprogram, DW_AT_name("USER_computeFlux_pu_to_VpHz_sf")
     857                      .dwattr $C$DW$160, DW_AT_TI_symbol_name("_USER_computeFlux_pu_to_VpHz_sf")
     858                      .dwattr $C$DW$160, DW_AT_type(*$C$DW$T$32)
     859                      .dwattr $C$DW$160, DW_AT_declaration
     860                      .dwattr $C$DW$160, DW_AT_external
     861              
TMS320C2000 Assembler PC v6.2.5 Thu Jun 22 20:41:15 2017

Tools Copyright (c) 1996-2014 Texas Instruments Incorporated
C:\Users\wmj\AppData\Local\Temp\1712410                              PAGE   18

     862              $C$DW$161       .dwtag  DW_TAG_subprogram, DW_AT_name("USER_computeTorque_Nm")
     863                      .dwattr $C$DW$161, DW_AT_TI_symbol_name("_USER_computeTorque_Nm")
     864                      .dwattr $C$DW$161, DW_AT_type(*$C$DW$T$32)
     865                      .dwattr $C$DW$161, DW_AT_declaration
     866                      .dwattr $C$DW$161, DW_AT_external
     867              $C$DW$162       .dwtag  DW_TAG_formal_parameter
     868                      .dwattr $C$DW$162, DW_AT_type(*$C$DW$T$165)
     869              $C$DW$163       .dwtag  DW_TAG_formal_parameter
     870                      .dwattr $C$DW$163, DW_AT_type(*$C$DW$T$259)
     871              $C$DW$164       .dwtag  DW_TAG_formal_parameter
     872                      .dwattr $C$DW$164, DW_AT_type(*$C$DW$T$259)
     873                      .dwendtag $C$DW$161
     874              
     875              
     876              $C$DW$165       .dwtag  DW_TAG_subprogram, DW_AT_name("EST_getLs_q_H")
     877                      .dwattr $C$DW$165, DW_AT_TI_symbol_name("_EST_getLs_q_H")
     878                      .dwattr $C$DW$165, DW_AT_type(*$C$DW$T$70)
     879                      .dwattr $C$DW$165, DW_AT_declaration
     880                      .dwattr $C$DW$165, DW_AT_external
     881              $C$DW$166       .dwtag  DW_TAG_formal_parameter
     882                      .dwattr $C$DW$166, DW_AT_type(*$C$DW$T$50)
     883                      .dwendtag $C$DW$165
     884              
     885              
     886              $C$DW$167       .dwtag  DW_TAG_subprogram, DW_AT_name("CPU_USAGE_init")
     887                      .dwattr $C$DW$167, DW_AT_TI_symbol_name("_CPU_USAGE_init")
     888                      .dwattr $C$DW$167, DW_AT_type(*$C$DW$T$199)
     889                      .dwattr $C$DW$167, DW_AT_declaration
     890                      .dwattr $C$DW$167, DW_AT_external
     891              $C$DW$168       .dwtag  DW_TAG_formal_parameter
     892                      .dwattr $C$DW$168, DW_AT_type(*$C$DW$T$3)
     893              $C$DW$169       .dwtag  DW_TAG_formal_parameter
     894                      .dwattr $C$DW$169, DW_AT_type(*$C$DW$T$201)
     895                      .dwendtag $C$DW$167
     896              
     897                      .global _gPwmData
     898 00000020       _gPwmData:      .usect  ".ebss",6,1,1
     899              $C$DW$170       .dwtag  DW_TAG_variable, DW_AT_name("gPwmData")
     900                      .dwattr $C$DW$170, DW_AT_TI_symbol_name("_gPwmData")
     901                      .dwattr $C$DW$170, DW_AT_location[DW_OP_addr _gPwmData]
     902                      .dwattr $C$DW$170, DW_AT_type(*$C$DW$T$233)
     903                      .dwattr $C$DW$170, DW_AT_external
     904                      .global _gAdcData
     905 00000026       _gAdcData:      .usect  ".ebss",14,1,1
     906              $C$DW$171       .dwtag  DW_TAG_variable, DW_AT_name("gAdcData")
     907                      .dwattr $C$DW$171, DW_AT_TI_symbol_name("_gAdcData")
     908                      .dwattr $C$DW$171, DW_AT_location[DW_OP_addr _gAdcData]
     909                      .dwattr $C$DW$171, DW_AT_type(*$C$DW$T$118)
     910                      .dwattr $C$DW$171, DW_AT_external
     911                      .global _fem
     912 00000040       _fem:   .usect  ".ebss",18,1,1
     913              $C$DW$172       .dwtag  DW_TAG_variable, DW_AT_name("fem")
     914                      .dwattr $C$DW$172, DW_AT_TI_symbol_name("_fem")
     915                      .dwattr $C$DW$172, DW_AT_location[DW_OP_addr _fem]
     916                      .dwattr $C$DW$172, DW_AT_type(*$C$DW$T$216)
TMS320C2000 Assembler PC v6.2.5 Thu Jun 22 20:41:15 2017

Tools Copyright (c) 1996-2014 Texas Instruments Incorporated
C:\Users\wmj\AppData\Local\Temp\1712410                              PAGE   19

     917                      .dwattr $C$DW$172, DW_AT_external
     918                      .global _cpu_usage
     919 00000052       _cpu_usage:     .usect  ".ebss",22,1,1
     920              $C$DW$173       .dwtag  DW_TAG_variable, DW_AT_name("cpu_usage")
     921                      .dwattr $C$DW$173, DW_AT_TI_symbol_name("_cpu_usage")
     922                      .dwattr $C$DW$173, DW_AT_location[DW_OP_addr _cpu_usage]
     923                      .dwattr $C$DW$173, DW_AT_type(*$C$DW$T$197)
     924                      .dwattr $C$DW$173, DW_AT_external
     925                      .global _gMotorVars
     926 00000080       _gMotorVars:    .usect  ".ebss",128,1,1
     927              $C$DW$174       .dwtag  DW_TAG_variable, DW_AT_name("gMotorVars")
     928                      .dwattr $C$DW$174, DW_AT_TI_symbol_name("_gMotorVars")
     929                      .dwattr $C$DW$174, DW_AT_location[DW_OP_addr _gMotorVars]
     930                      .dwattr $C$DW$174, DW_AT_type(*$C$DW$T$237)
     931                      .dwattr $C$DW$174, DW_AT_external
     932              $C$DW$175       .dwtag  DW_TAG_variable, DW_AT_name("hal")
     933                      .dwattr $C$DW$175, DW_AT_TI_symbol_name("_hal")
     934                      .dwattr $C$DW$175, DW_AT_type(*$C$DW$T$226)
     935                      .dwattr $C$DW$175, DW_AT_declaration
     936                      .dwattr $C$DW$175, DW_AT_external
     937                      .global _gUserParams
     938 00000100       _gUserParams:   .usect  ".ebss",172,1,1
     939              $C$DW$176       .dwtag  DW_TAG_variable, DW_AT_name("gUserParams")
     940                      .dwattr $C$DW$176, DW_AT_TI_symbol_name("_gUserParams")
     941                      .dwattr $C$DW$176, DW_AT_location[DW_OP_addr _gUserParams]
     942                      .dwattr $C$DW$176, DW_AT_type(*$C$DW$T$170)
     943                      .dwattr $C$DW$176, DW_AT_external
     944                      .global _ctrl
     945 000001c0       _ctrl:  .usect  ".ebss",264,1,1
     946              $C$DW$177       .dwtag  DW_TAG_variable, DW_AT_name("ctrl")
     947                      .dwattr $C$DW$177, DW_AT_TI_symbol_name("_ctrl")
     948                      .dwattr $C$DW$177, DW_AT_location[DW_OP_addr _ctrl]
     949                      .dwattr $C$DW$177, DW_AT_type(*$C$DW$T$205)
     950                      .dwattr $C$DW$177, DW_AT_external
     951              ;       c:\ti\ccsv6\tools\compiler\c2000_6.2.5\bin\opt2000.exe C:\\Users\\wmj\\AppData\\Local\\Temp\\171242 C
     952              ;       c:\ti\ccsv6\tools\compiler\c2000_6.2.5\bin\ac2000.exe -@C:\\Users\\wmj\\AppData\\Local\\Temp\\1712416
     953 00000000               .sect   ".text"
     954                      .clink
     955                      .global _updateKpKiGains
     956              
     957              $C$DW$178       .dwtag  DW_TAG_subprogram, DW_AT_name("updateKpKiGains")
     958                      .dwattr $C$DW$178, DW_AT_low_pc(_updateKpKiGains)
     959                      .dwattr $C$DW$178, DW_AT_high_pc(0x00)
     960                      .dwattr $C$DW$178, DW_AT_TI_symbol_name("_updateKpKiGains")
     961                      .dwattr $C$DW$178, DW_AT_external
     962                      .dwattr $C$DW$178, DW_AT_TI_begin_file("C:/ti/motorware/motorware_1_01_00_18/sw/solutions/instaspin_f
     963                      .dwattr $C$DW$178, DW_AT_TI_begin_line(0x261)
     964                      .dwattr $C$DW$178, DW_AT_TI_begin_column(0x06)
     965                      .dwattr $C$DW$178, DW_AT_TI_max_frame_size(-2)
     966                      .dwpsn  file "C:/ti/motorware/motorware_1_01_00_18/sw/solutions/instaspin_foc/src/proj_lab07.c",line 
     967              
     968                      .dwfde $C$DW$CIE, _updateKpKiGains
     969              $C$DW$179       .dwtag  DW_TAG_formal_parameter, DW_AT_name("handle")
     970                      .dwattr $C$DW$179, DW_AT_TI_symbol_name("_handle")
     971                      .dwattr $C$DW$179, DW_AT_type(*$C$DW$T$165)
TMS320C2000 Assembler PC v6.2.5 Thu Jun 22 20:41:15 2017

Tools Copyright (c) 1996-2014 Texas Instruments Incorporated
C:\Users\wmj\AppData\Local\Temp\1712410                              PAGE   20

     972                      .dwattr $C$DW$179, DW_AT_location[DW_OP_reg12]
     973              
     974              ;***************************************************************
     975              ;* FNAME: _updateKpKiGains              FR SIZE:   0           *
     976              ;*                                                             *
     977              ;* FUNCTION ENVIRONMENT                                        *
     978              ;*                                                             *
     979              ;* FUNCTION PROPERTIES                                         *
     980              ;*                            0 Parameter,  0 Auto,  0 SOE     *
     981              ;***************************************************************
     982              
     983              _updateKpKiGains:
     984              ;* AR4   assigned to _handle
     985              $C$DW$180       .dwtag  DW_TAG_variable, DW_AT_name("handle")
     986                      .dwattr $C$DW$180, DW_AT_TI_symbol_name("_handle")
     987                      .dwattr $C$DW$180, DW_AT_type(*$C$DW$T$207)
     988                      .dwattr $C$DW$180, DW_AT_location[DW_OP_reg12]
     989              ;* AL    assigned to _Ki
     990              $C$DW$181       .dwtag  DW_TAG_variable, DW_AT_name("Ki")
     991                      .dwattr $C$DW$181, DW_AT_TI_symbol_name("_Ki")
     992                      .dwattr $C$DW$181, DW_AT_type(*$C$DW$T$32)
     993                      .dwattr $C$DW$181, DW_AT_location[DW_OP_reg0]
     994              ;* AL    assigned to _Kp
     995              $C$DW$182       .dwtag  DW_TAG_variable, DW_AT_name("Kp")
     996                      .dwattr $C$DW$182, DW_AT_TI_symbol_name("_Kp")
     997                      .dwattr $C$DW$182, DW_AT_type(*$C$DW$T$32)
     998                      .dwattr $C$DW$182, DW_AT_location[DW_OP_reg0]
     999              ;* AL    assigned to _Ki
    1000              $C$DW$183       .dwtag  DW_TAG_variable, DW_AT_name("Ki")
    1001                      .dwattr $C$DW$183, DW_AT_TI_symbol_name("_Ki")
    1002                      .dwattr $C$DW$183, DW_AT_type(*$C$DW$T$32)
    1003                      .dwattr $C$DW$183, DW_AT_location[DW_OP_reg0]
    1004              ;* AL    assigned to _Kp
    1005              $C$DW$184       .dwtag  DW_TAG_variable, DW_AT_name("Kp")
    1006                      .dwattr $C$DW$184, DW_AT_TI_symbol_name("_Kp")
    1007                      .dwattr $C$DW$184, DW_AT_type(*$C$DW$T$32)
    1008                      .dwattr $C$DW$184, DW_AT_location[DW_OP_reg0]
    1009              ;* AL    assigned to _Ki
    1010              $C$DW$185       .dwtag  DW_TAG_variable, DW_AT_name("Ki")
    1011                      .dwattr $C$DW$185, DW_AT_TI_symbol_name("_Ki")
    1012                      .dwattr $C$DW$185, DW_AT_type(*$C$DW$T$32)
    1013                      .dwattr $C$DW$185, DW_AT_location[DW_OP_reg0]
    1014              ;* AL    assigned to _Kp
    1015              $C$DW$186       .dwtag  DW_TAG_variable, DW_AT_name("Kp")
    1016                      .dwattr $C$DW$186, DW_AT_TI_symbol_name("_Kp")
    1017                      .dwattr $C$DW$186, DW_AT_type(*$C$DW$T$32)
    1018                      .dwattr $C$DW$186, DW_AT_location[DW_OP_reg0]
    1019                      .dwcfi  cfa_offset, -2
    1020                      .dwcfi  save_reg_to_mem, 26, 0
    1021                      .dwcfi  save_reg_to_reg, 78, 26
    1022 00000000 761F-         MOVW      DP,#_gMotorVars+13    ; [CPU_U] 
         00000001 0002 
    1023                      .dwpsn  file "C:/ti/motorware/motorware_1_01_00_18/sw/solutions/instaspin_foc/src/proj_lab07.c",line 
    1024 00000002 920D-         MOV       AL,@_gMotorVars+13    ; [CPU_] |611| 
    1025 00000003 5203          CMPB      AL,#3                 ; [CPU_] |611| 
TMS320C2000 Assembler PC v6.2.5 Thu Jun 22 20:41:15 2017

Tools Copyright (c) 1996-2014 Texas Instruments Incorporated
C:\Users\wmj\AppData\Local\Temp\1712410                              PAGE   21

    1026 00000004 ED1C          BF        $C$L1,NEQ             ; [CPU_] |611| 
    1027                      ; branchcc occurs ; [] |611| 
    1028 00000005 9202-         MOV       AL,@_gMotorVars+2     ; [CPU_] |611| 
    1029 00000006 5201          CMPB      AL,#1                 ; [CPU_] |611| 
    1030 00000007 ED19          BF        $C$L1,NEQ             ; [CPU_] |611| 
    1031                      ; branchcc occurs ; [] |611| 
    1032 00000008 761F-         MOVW      DP,#_Flag_Latch_softwareUpdate ; [CPU_U] 
         00000009 0000 
    1033 0000000a 9201-         MOV       AL,@_Flag_Latch_softwareUpdate ; [CPU_] |611| 
    1034 0000000b ED15          BF        $C$L1,NEQ             ; [CPU_] |611| 
    1035                      ; branchcc occurs ; [] |611| 
    1036 0000000c 761F-         MOVW      DP,#_gMotorVars+70    ; [CPU_U] 
         0000000d 0003 
    1037                      .dwpsn  file "C:/ti/motorware/motorware_1_01_00_18/sw/modules/ctrl/src/32b/ctrl.h",line 1505,column 7
    1038 0000000e D0CE          MOVB      XAR0,#206             ; [CPU_] |1505| 
    1039                      .dwpsn  file "C:/ti/motorware/motorware_1_01_00_18/sw/solutions/instaspin_foc/src/proj_lab07.c",line 
    1040 0000000f 0606-         MOVL      ACC,@_gMotorVars+70   ; [CPU_] |614| 
    1041                      .dwpsn  file "C:/ti/motorware/motorware_1_01_00_18/sw/modules/ctrl/src/32b/ctrl.h",line 1505,column 7
    1042 00000010 1E94          MOVL      *+XAR4[AR0],ACC       ; [CPU_] |1505| 
    1043                      .dwpsn  file "C:/ti/motorware/motorware_1_01_00_18/sw/modules/ctrl/src/32b/ctrl.h",line 1480,column 7
    1044 00000011 D0D4          MOVB      XAR0,#212             ; [CPU_] |1480| 
    1045                      .dwpsn  file "C:/ti/motorware/motorware_1_01_00_18/sw/solutions/instaspin_foc/src/proj_lab07.c",line 
    1046 00000012 0608-         MOVL      ACC,@_gMotorVars+72   ; [CPU_] |615| 
    1047                      .dwpsn  file "C:/ti/motorware/motorware_1_01_00_18/sw/modules/ctrl/src/32b/ctrl.h",line 1480,column 7
    1048 00000013 1E94          MOVL      *+XAR4[AR0],ACC       ; [CPU_] |1480| 
    1049                      .dwpsn  file "C:/ti/motorware/motorware_1_01_00_18/sw/modules/ctrl/src/32b/ctrl.h",line 1509,column 7
    1050 00000014 D0CA          MOVB      XAR0,#202             ; [CPU_] |1509| 
    1051                      .dwpsn  file "C:/ti/motorware/motorware_1_01_00_18/sw/solutions/instaspin_foc/src/proj_lab07.c",line 
    1052 00000015 060A-         MOVL      ACC,@_gMotorVars+74   ; [CPU_] |618| 
    1053                      .dwpsn  file "C:/ti/motorware/motorware_1_01_00_18/sw/modules/ctrl/src/32b/ctrl.h",line 1509,column 7
    1054 00000016 1E94          MOVL      *+XAR4[AR0],ACC       ; [CPU_] |1509| 
    1055                      .dwpsn  file "C:/ti/motorware/motorware_1_01_00_18/sw/modules/ctrl/src/32b/ctrl.h",line 1484,column 7
    1056 00000017 D0D0          MOVB      XAR0,#208             ; [CPU_] |1484| 
    1057                      .dwpsn  file "C:/ti/motorware/motorware_1_01_00_18/sw/solutions/instaspin_foc/src/proj_lab07.c",line 
    1058 00000018 060C-         MOVL      ACC,@_gMotorVars+76   ; [CPU_] |619| 
    1059                      .dwpsn  file "C:/ti/motorware/motorware_1_01_00_18/sw/modules/ctrl/src/32b/ctrl.h",line 1484,column 7
    1060 00000019 1E94          MOVL      *+XAR4[AR0],ACC       ; [CPU_] |1484| 
    1061                      .dwpsn  file "C:/ti/motorware/motorware_1_01_00_18/sw/modules/ctrl/src/32b/ctrl.h",line 1513,column 7
    1062 0000001a D0CC          MOVB      XAR0,#204             ; [CPU_] |1513| 
    1063                      .dwpsn  file "C:/ti/motorware/motorware_1_01_00_18/sw/solutions/instaspin_foc/src/proj_lab07.c",line 
    1064 0000001b 060A-         MOVL      ACC,@_gMotorVars+74   ; [CPU_] |620| 
    1065                      .dwpsn  file "C:/ti/motorware/motorware_1_01_00_18/sw/modules/ctrl/src/32b/ctrl.h",line 1513,column 7
    1066 0000001c 1E94          MOVL      *+XAR4[AR0],ACC       ; [CPU_] |1513| 
    1067                      .dwpsn  file "C:/ti/motorware/motorware_1_01_00_18/sw/solutions/instaspin_foc/src/proj_lab07.c",line 
    1068 0000001d 060C-         MOVL      ACC,@_gMotorVars+76   ; [CPU_] |621| 
    1069                      .dwpsn  file "C:/ti/motorware/motorware_1_01_00_18/sw/modules/ctrl/src/32b/ctrl.h",line 1488,column 7
    1070 0000001e D0D2          MOVB      XAR0,#210             ; [CPU_] |1488| 
    1071 0000001f 1E94          MOVL      *+XAR4[AR0],ACC       ; [CPU_] |1488| 
    1072              $C$L1:    
    1073              $C$DW$187       .dwtag  DW_TAG_TI_branch
    1074                      .dwattr $C$DW$187, DW_AT_low_pc(0x00)
    1075                      .dwattr $C$DW$187, DW_AT_TI_return
    1076 00000020 0006          LRETR     ; [CPU_] 
    1077                      ; return occurs ; [] 
    1078                      .dwattr $C$DW$178, DW_AT_TI_end_file("C:/ti/motorware/motorware_1_01_00_18/sw/solutions/instaspin_foc
TMS320C2000 Assembler PC v6.2.5 Thu Jun 22 20:41:15 2017

Tools Copyright (c) 1996-2014 Texas Instruments Incorporated
C:\Users\wmj\AppData\Local\Temp\1712410                              PAGE   22

    1079                      .dwattr $C$DW$178, DW_AT_TI_end_line(0x271)
    1080                      .dwattr $C$DW$178, DW_AT_TI_end_column(0x01)
    1081                      .dwendentry
    1082                      .dwendtag $C$DW$178
    1083              
    1084 00000021               .sect   ".text"
    1085                      .clink
    1086                      .global _updateGlobalVariables_motor
    1087              
    1088              $C$DW$188       .dwtag  DW_TAG_subprogram, DW_AT_name("updateGlobalVariables_motor")
    1089                      .dwattr $C$DW$188, DW_AT_low_pc(_updateGlobalVariables_motor)
    1090                      .dwattr $C$DW$188, DW_AT_high_pc(0x00)
    1091                      .dwattr $C$DW$188, DW_AT_TI_symbol_name("_updateGlobalVariables_motor")
    1092                      .dwattr $C$DW$188, DW_AT_external
    1093                      .dwattr $C$DW$188, DW_AT_TI_begin_file("C:/ti/motorware/motorware_1_01_00_18/sw/solutions/instaspin_f
    1094                      .dwattr $C$DW$188, DW_AT_TI_begin_line(0x22f)
    1095                      .dwattr $C$DW$188, DW_AT_TI_begin_column(0x06)
    1096                      .dwattr $C$DW$188, DW_AT_TI_max_frame_size(-8)
    1097                      .dwpsn  file "C:/ti/motorware/motorware_1_01_00_18/sw/solutions/instaspin_foc/src/proj_lab07.c",line 
    1098              
    1099                      .dwfde $C$DW$CIE, _updateGlobalVariables_motor
    1100              $C$DW$189       .dwtag  DW_TAG_formal_parameter, DW_AT_name("handle")
    1101                      .dwattr $C$DW$189, DW_AT_TI_symbol_name("_handle")
    1102                      .dwattr $C$DW$189, DW_AT_type(*$C$DW$T$165)
    1103                      .dwattr $C$DW$189, DW_AT_location[DW_OP_reg12]
    1104              
    1105              ;***************************************************************
    1106              ;* FNAME: _updateGlobalVariables_motor  FR SIZE:   6           *
    1107              ;*                                                             *
    1108              ;* FUNCTION ENVIRONMENT                                        *
    1109              ;*                                                             *
    1110              ;* FUNCTION PROPERTIES                                         *
    1111              ;*                            2 Parameter,  0 Auto,  4 SOE     *
    1112              ;***************************************************************
    1113              
    1114              _updateGlobalVariables_motor:
    1115              ;* XT    assigned to $O$R2
    1116              ;* AR2   assigned to _handle
    1117              $C$DW$190       .dwtag  DW_TAG_variable, DW_AT_name("handle")
    1118                      .dwattr $C$DW$190, DW_AT_TI_symbol_name("_handle")
    1119                      .dwattr $C$DW$190, DW_AT_type(*$C$DW$T$207)
    1120                      .dwattr $C$DW$190, DW_AT_location[DW_OP_reg8]
    1121                      .dwcfi  cfa_offset, -2
    1122                      .dwcfi  save_reg_to_mem, 26, 0
    1123                      .dwcfi  save_reg_to_reg, 78, 26
    1124 00000021 B2BD          MOVL      *SP++,XAR1            ; [CPU_] 
    1125                      .dwcfi  save_reg_to_mem, 7, 2
    1126                      .dwcfi  cfa_offset, -4
    1127 00000022 AABD          MOVL      *SP++,XAR2            ; [CPU_] 
    1128                      .dwcfi  save_reg_to_mem, 9, 4
    1129                      .dwcfi  cfa_offset, -6
    1130 00000023 FE02          ADDB      SP,#2                 ; [CPU_U] 
    1131                      .dwcfi  cfa_offset, -8
    1132                      .dwpsn  file "C:/ti/motorware/motorware_1_01_00_18/sw/solutions/instaspin_foc/src/proj_lab07.c",line 
    1133 00000024 D018          MOVB      XAR0,#24              ; [CPU_] |564| 
TMS320C2000 Assembler PC v6.2.5 Thu Jun 22 20:41:15 2017

Tools Copyright (c) 1996-2014 Texas Instruments Incorporated
C:\Users\wmj\AppData\Local\Temp\1712410                              PAGE   23

    1134                      .dwpsn  file "C:/ti/motorware/motorware_1_01_00_18/sw/solutions/instaspin_foc/src/proj_lab07.c",line 
    1135 00000025 86A4          MOVL      XAR2,XAR4             ; [CPU_] |560| 
    1136                      .dwpsn  file "C:/ti/motorware/motorware_1_01_00_18/sw/solutions/instaspin_foc/src/proj_lab07.c",line 
    1137 00000026 8A92          MOVL      XAR4,*+XAR2[AR0]      ; [CPU_] |564| 
    1138              $C$DW$191       .dwtag  DW_TAG_TI_branch
    1139                      .dwattr $C$DW$191, DW_AT_low_pc(0x00)
    1140                      .dwattr $C$DW$191, DW_AT_name("_EST_getSpeed_krpm")
    1141                      .dwattr $C$DW$191, DW_AT_TI_call
    1142 00000027 7640!         LCR       #_EST_getSpeed_krpm   ; [CPU_] |564| 
         00000028 0000 
    1143                      ; call occurs [#_EST_getSpeed_krpm] ; [] |564| 
    1144 00000029 761F-         MOVW      DP,#_gMotorVars+32    ; [CPU_U] 
         0000002a 0002 
    1145                      .dwpsn  file "C:/ti/motorware/motorware_1_01_00_18/sw/modules/traj/src/32b/traj.h",line 96,column 3,i
    1146 0000002b D06C          MOVB      XAR0,#108             ; [CPU_] |96| 
    1147                      .dwpsn  file "C:/ti/motorware/motorware_1_01_00_18/sw/solutions/instaspin_foc/src/proj_lab07.c",line 
    1148 0000002c 1E20-         MOVL      @_gMotorVars+32,ACC   ; [CPU_] |564| 
    1149                      .dwpsn  file "C:/ti/motorware/motorware_1_01_00_18/sw/modules/traj/src/32b/traj.h",line 96,column 3,i
    1150 0000002d 8A92          MOVL      XAR4,*+XAR2[AR0]      ; [CPU_] |96| 
    1151                      .dwpsn  file "C:/ti/motorware/motorware_1_01_00_18/sw/solutions/instaspin_foc/src/proj_lab07.c",line 
    1152 0000002e D018          MOVB      XAR0,#24              ; [CPU_] |567| 
    1153                      .dwpsn  file "C:/ti/motorware/motorware_1_01_00_18/sw/modules/traj/src/32b/traj.h",line 96,column 3,i
    1154 0000002f 8BD4          MOVL      XAR1,*+XAR4[2]        ; [CPU_] |96| 
    1155                      .dwpsn  file "C:/ti/motorware/motorware_1_01_00_18/sw/solutions/instaspin_foc/src/proj_lab07.c",line 
    1156 00000030 8A92          MOVL      XAR4,*+XAR2[AR0]      ; [CPU_] |567| 
    1157              $C$DW$192       .dwtag  DW_TAG_TI_branch
    1158                      .dwattr $C$DW$192, DW_AT_low_pc(0x00)
    1159                      .dwattr $C$DW$192, DW_AT_name("_EST_get_pu_to_krpm_sf")
    1160                      .dwattr $C$DW$192, DW_AT_TI_call
    1161 00000031 7640!         LCR       #_EST_get_pu_to_krpm_sf ; [CPU_] |567| 
         00000032 0000 
    1162                      ; call occurs [#_EST_get_pu_to_krpm_sf] ; [] |567| 
    1163 00000033 761F-         MOVW      DP,#_gMotorVars+28    ; [CPU_U] 
         00000034 0002 
    1164 00000035 B2AC          MOVL      XT,XAR1               ; [CPU_] |567| 
    1165                      .dwpsn  file "C:/ti/motorware/motorware_1_01_00_18/sw/solutions/instaspin_foc/src/proj_lab07.c",line 
    1166 00000036 8AA2          MOVL      XAR4,XAR2             ; [CPU_] |570| 
    1167                      .dwpsn  file "C:/ti/motorware/motorware_1_01_00_18/sw/solutions/instaspin_foc/src/proj_lab07.c",line 
    1168 00000037 5605          IMPYL     P,XT,ACC              ; [CPU_] |567| 
         00000038 00A9 
    1169 00000039 5663          QMPYL     ACC,XT,ACC            ; [CPU_] |567| 
         0000003a 00A9 
    1170 0000003b 56A7          LSL64     ACC:P,#8              ; [CPU_] |567| 
    1171 0000003c 1E1C-         MOVL      @_gMotorVars+28,ACC   ; [CPU_] |567| 
    1172 0000003d 761F-         MOVW      DP,#_gTorque_Ls_Id_Iq_pu_to_Nm_sf ; [CPU_U] 
         0000003e 0000 
    1173                      .dwpsn  file "C:/ti/motorware/motorware_1_01_00_18/sw/solutions/instaspin_foc/src/proj_lab07.c",line 
    1174 0000003f 0608-         MOVL      ACC,@_gTorque_Ls_Id_Iq_pu_to_Nm_sf ; [CPU_] |570| 
    1175 00000040 1E42          MOVL      *-SP[2],ACC           ; [CPU_] |570| 
    1176 00000041 0606-         MOVL      ACC,@_gTorque_Flux_Iq_pu_to_Nm_sf ; [CPU_] |570| 
    1177              $C$DW$193       .dwtag  DW_TAG_TI_branch
    1178                      .dwattr $C$DW$193, DW_AT_low_pc(0x00)
    1179                      .dwattr $C$DW$193, DW_AT_name("_USER_computeTorque_Nm")
    1180                      .dwattr $C$DW$193, DW_AT_TI_call
    1181 00000042 7640!         LCR       #_USER_computeTorque_Nm ; [CPU_] |570| 
TMS320C2000 Assembler PC v6.2.5 Thu Jun 22 20:41:15 2017

Tools Copyright (c) 1996-2014 Texas Instruments Incorporated
C:\Users\wmj\AppData\Local\Temp\1712410                              PAGE   24

         00000043 0000 
    1182                      ; call occurs [#_USER_computeTorque_Nm] ; [] |570| 
    1183 00000044 761F-         MOVW      DP,#_gMotorVars+42    ; [CPU_U] 
         00000045 0002 
    1184                      .dwpsn  file "C:/ti/motorware/motorware_1_01_00_18/sw/solutions/instaspin_foc/src/proj_lab07.c",line 
    1185 00000046 D018          MOVB      XAR0,#24              ; [CPU_] |573| 
    1186                      .dwpsn  file "C:/ti/motorware/motorware_1_01_00_18/sw/solutions/instaspin_foc/src/proj_lab07.c",line 
    1187 00000047 1E2A-         MOVL      @_gMotorVars+42,ACC   ; [CPU_] |570| 
    1188                      .dwpsn  file "C:/ti/motorware/motorware_1_01_00_18/sw/solutions/instaspin_foc/src/proj_lab07.c",line 
    1189 00000048 8A92          MOVL      XAR4,*+XAR2[AR0]      ; [CPU_] |573| 
    1190              $C$DW$194       .dwtag  DW_TAG_TI_branch
    1191                      .dwattr $C$DW$194, DW_AT_low_pc(0x00)
    1192                      .dwattr $C$DW$194, DW_AT_name("_EST_getIdRated")
    1193                      .dwattr $C$DW$194, DW_AT_TI_call
    1194 00000049 7640!         LCR       #_EST_getIdRated      ; [CPU_] |573| 
         0000004a 0000 
    1195                      ; call occurs [#_EST_getIdRated] ; [] |573| 
    1196 0000004b 761F-         MOVW      DP,#_gMotorVars+44    ; [CPU_U] 
         0000004c 0002 
    1197                      .dwpsn  file "C:/ti/motorware/motorware_1_01_00_18/sw/solutions/instaspin_foc/src/proj_lab07.c",line 
    1198 0000004d D018          MOVB      XAR0,#24              ; [CPU_] |576| 
    1199                      .dwpsn  file "C:/ti/motorware/motorware_1_01_00_18/sw/solutions/instaspin_foc/src/proj_lab07.c",line 
    1200 0000004e 1E2C-         MOVL      @_gMotorVars+44,ACC   ; [CPU_] |573| 
    1201                      .dwpsn  file "C:/ti/motorware/motorware_1_01_00_18/sw/solutions/instaspin_foc/src/proj_lab07.c",line 
    1202 0000004f 8A92          MOVL      XAR4,*+XAR2[AR0]      ; [CPU_] |576| 
    1203              $C$DW$195       .dwtag  DW_TAG_TI_branch
    1204                      .dwattr $C$DW$195, DW_AT_low_pc(0x00)
    1205                      .dwattr $C$DW$195, DW_AT_name("_EST_getRr_Ohm")
    1206                      .dwattr $C$DW$195, DW_AT_TI_call
    1207 00000050 7640!         LCR       #_EST_getRr_Ohm       ; [CPU_] |576| 
         00000051 0000 
    1208                      ; call occurs [#_EST_getRr_Ohm] ; [] |576| 
    1209 00000052 761F-         MOVW      DP,#_gMotorVars+46    ; [CPU_U] 
         00000053 0002 
    1210                      .dwpsn  file "C:/ti/motorware/motorware_1_01_00_18/sw/solutions/instaspin_foc/src/proj_lab07.c",line 
    1211 00000054 D018          MOVB      XAR0,#24              ; [CPU_] |579| 
    1212                      .dwpsn  file "C:/ti/motorware/motorware_1_01_00_18/sw/solutions/instaspin_foc/src/proj_lab07.c",line 
    1213 00000055 1E2E-         MOVL      @_gMotorVars+46,ACC   ; [CPU_] |576| 
    1214                      .dwpsn  file "C:/ti/motorware/motorware_1_01_00_18/sw/solutions/instaspin_foc/src/proj_lab07.c",line 
    1215 00000056 8A92          MOVL      XAR4,*+XAR2[AR0]      ; [CPU_] |579| 
    1216              $C$DW$196       .dwtag  DW_TAG_TI_branch
    1217                      .dwattr $C$DW$196, DW_AT_low_pc(0x00)
    1218                      .dwattr $C$DW$196, DW_AT_name("_EST_getRs_Ohm")
    1219                      .dwattr $C$DW$196, DW_AT_TI_call
    1220 00000057 7640!         LCR       #_EST_getRs_Ohm       ; [CPU_] |579| 
         00000058 0000 
    1221                      ; call occurs [#_EST_getRs_Ohm] ; [] |579| 
    1222 00000059 761F-         MOVW      DP,#_gMotorVars+48    ; [CPU_U] 
         0000005a 0002 
    1223                      .dwpsn  file "C:/ti/motorware/motorware_1_01_00_18/sw/solutions/instaspin_foc/src/proj_lab07.c",line 
    1224 0000005b D018          MOVB      XAR0,#24              ; [CPU_] |582| 
    1225                      .dwpsn  file "C:/ti/motorware/motorware_1_01_00_18/sw/solutions/instaspin_foc/src/proj_lab07.c",line 
    1226 0000005c 1E30-         MOVL      @_gMotorVars+48,ACC   ; [CPU_] |579| 
    1227                      .dwpsn  file "C:/ti/motorware/motorware_1_01_00_18/sw/solutions/instaspin_foc/src/proj_lab07.c",line 
    1228 0000005d 8A92          MOVL      XAR4,*+XAR2[AR0]      ; [CPU_] |582| 
TMS320C2000 Assembler PC v6.2.5 Thu Jun 22 20:41:15 2017

Tools Copyright (c) 1996-2014 Texas Instruments Incorporated
C:\Users\wmj\AppData\Local\Temp\1712410                              PAGE   25

    1229              $C$DW$197       .dwtag  DW_TAG_TI_branch
    1230                      .dwattr $C$DW$197, DW_AT_low_pc(0x00)
    1231                      .dwattr $C$DW$197, DW_AT_name("_EST_getRsOnLine_Ohm")
    1232                      .dwattr $C$DW$197, DW_AT_TI_call
    1233 0000005e 7640!         LCR       #_EST_getRsOnLine_Ohm ; [CPU_] |582| 
         0000005f 0000 
    1234                      ; call occurs [#_EST_getRsOnLine_Ohm] ; [] |582| 
    1235 00000060 761F-         MOVW      DP,#_gMotorVars+50    ; [CPU_U] 
         00000061 0002 
    1236                      .dwpsn  file "C:/ti/motorware/motorware_1_01_00_18/sw/solutions/instaspin_foc/src/proj_lab07.c",line 
    1237 00000062 D018          MOVB      XAR0,#24              ; [CPU_] |585| 
    1238                      .dwpsn  file "C:/ti/motorware/motorware_1_01_00_18/sw/solutions/instaspin_foc/src/proj_lab07.c",line 
    1239 00000063 1E32-         MOVL      @_gMotorVars+50,ACC   ; [CPU_] |582| 
    1240                      .dwpsn  file "C:/ti/motorware/motorware_1_01_00_18/sw/solutions/instaspin_foc/src/proj_lab07.c",line 
    1241 00000064 8A92          MOVL      XAR4,*+XAR2[AR0]      ; [CPU_] |585| 
    1242              $C$DW$198       .dwtag  DW_TAG_TI_branch
    1243                      .dwattr $C$DW$198, DW_AT_low_pc(0x00)
    1244                      .dwattr $C$DW$198, DW_AT_name("_EST_getLs_d_H")
    1245                      .dwattr $C$DW$198, DW_AT_TI_call
    1246 00000065 7640!         LCR       #_EST_getLs_d_H       ; [CPU_] |585| 
         00000066 0000 
    1247                      ; call occurs [#_EST_getLs_d_H] ; [] |585| 
    1248 00000067 761F-         MOVW      DP,#_gMotorVars+52    ; [CPU_U] 
         00000068 0002 
    1249                      .dwpsn  file "C:/ti/motorware/motorware_1_01_00_18/sw/solutions/instaspin_foc/src/proj_lab07.c",line 
    1250 00000069 D018          MOVB      XAR0,#24              ; [CPU_] |588| 
    1251                      .dwpsn  file "C:/ti/motorware/motorware_1_01_00_18/sw/solutions/instaspin_foc/src/proj_lab07.c",line 
    1252 0000006a 1E34-         MOVL      @_gMotorVars+52,ACC   ; [CPU_] |585| 
    1253                      .dwpsn  file "C:/ti/motorware/motorware_1_01_00_18/sw/solutions/instaspin_foc/src/proj_lab07.c",line 
    1254 0000006b 8A92          MOVL      XAR4,*+XAR2[AR0]      ; [CPU_] |588| 
    1255              $C$DW$199       .dwtag  DW_TAG_TI_branch
    1256                      .dwattr $C$DW$199, DW_AT_low_pc(0x00)
    1257                      .dwattr $C$DW$199, DW_AT_name("_EST_getLs_q_H")
    1258                      .dwattr $C$DW$199, DW_AT_TI_call
    1259 0000006c 7640!         LCR       #_EST_getLs_q_H       ; [CPU_] |588| 
         0000006d 0000 
    1260                      ; call occurs [#_EST_getLs_q_H] ; [] |588| 
    1261 0000006e 761F-         MOVW      DP,#_gMotorVars+54    ; [CPU_U] 
         0000006f 0002 
    1262                      .dwpsn  file "C:/ti/motorware/motorware_1_01_00_18/sw/solutions/instaspin_foc/src/proj_lab07.c",line 
    1263 00000070 D018          MOVB      XAR0,#24              ; [CPU_] |591| 
    1264                      .dwpsn  file "C:/ti/motorware/motorware_1_01_00_18/sw/solutions/instaspin_foc/src/proj_lab07.c",line 
    1265 00000071 1E36-         MOVL      @_gMotorVars+54,ACC   ; [CPU_] |588| 
    1266                      .dwpsn  file "C:/ti/motorware/motorware_1_01_00_18/sw/solutions/instaspin_foc/src/proj_lab07.c",line 
    1267 00000072 8A92          MOVL      XAR4,*+XAR2[AR0]      ; [CPU_] |591| 
    1268              $C$DW$200       .dwtag  DW_TAG_TI_branch
    1269                      .dwattr $C$DW$200, DW_AT_low_pc(0x00)
    1270                      .dwattr $C$DW$200, DW_AT_name("_EST_getFlux_VpHz")
    1271                      .dwattr $C$DW$200, DW_AT_TI_call
    1272 00000073 7640!         LCR       #_EST_getFlux_VpHz    ; [CPU_] |591| 
         00000074 0000 
    1273                      ; call occurs [#_EST_getFlux_VpHz] ; [] |591| 
    1274 00000075 761F-         MOVW      DP,#_gMotorVars+56    ; [CPU_U] 
         00000076 0002 
    1275                      .dwpsn  file "C:/ti/motorware/motorware_1_01_00_18/sw/solutions/instaspin_foc/src/proj_lab07.c",line 
TMS320C2000 Assembler PC v6.2.5 Thu Jun 22 20:41:15 2017

Tools Copyright (c) 1996-2014 Texas Instruments Incorporated
C:\Users\wmj\AppData\Local\Temp\1712410                              PAGE   26

    1276 00000077 8AA2          MOVL      XAR4,XAR2             ; [CPU_] |594| 
    1277                      .dwpsn  file "C:/ti/motorware/motorware_1_01_00_18/sw/solutions/instaspin_foc/src/proj_lab07.c",line 
    1278 00000078 1E38-         MOVL      @_gMotorVars+56,ACC   ; [CPU_] |591| 
    1279 00000079 761F-         MOVW      DP,#_gFlux_pu_to_Wb_sf ; [CPU_U] 
         0000007a 0000 
    1280                      .dwpsn  file "C:/ti/motorware/motorware_1_01_00_18/sw/solutions/instaspin_foc/src/proj_lab07.c",line 
    1281 0000007b 060C-         MOVL      ACC,@_gFlux_pu_to_Wb_sf ; [CPU_] |594| 
    1282              $C$DW$201       .dwtag  DW_TAG_TI_branch
    1283                      .dwattr $C$DW$201, DW_AT_low_pc(0x00)
    1284                      .dwattr $C$DW$201, DW_AT_name("_USER_computeFlux")
    1285                      .dwattr $C$DW$201, DW_AT_TI_call
    1286 0000007c 7640!         LCR       #_USER_computeFlux    ; [CPU_] |594| 
         0000007d 0000 
    1287                      ; call occurs [#_USER_computeFlux] ; [] |594| 
    1288 0000007e 761F-         MOVW      DP,#_gMotorVars+40    ; [CPU_U] 
         0000007f 0002 
    1289 00000080 1E28-         MOVL      @_gMotorVars+40,ACC   ; [CPU_] |594| 
    1290                      .dwpsn  file "C:/ti/motorware/motorware_1_01_00_18/sw/solutions/instaspin_foc/src/proj_lab07.c",line 
    1291 00000081 D018          MOVB      XAR0,#24              ; [CPU_] |600| 
    1292                      .dwpsn  file "C:/ti/motorware/motorware_1_01_00_18/sw/solutions/instaspin_foc/src/proj_lab07.c",line 
    1293 00000082 92E2          MOV       AL,*+XAR2[4]          ; [CPU_] |597| 
    1294 00000083 960D-         MOV       @_gMotorVars+13,AL    ; [CPU_] |597| 
    1295                      .dwpsn  file "C:/ti/motorware/motorware_1_01_00_18/sw/solutions/instaspin_foc/src/proj_lab07.c",line 
    1296 00000084 8A92          MOVL      XAR4,*+XAR2[AR0]      ; [CPU_] |600| 
    1297              $C$DW$202       .dwtag  DW_TAG_TI_branch
    1298                      .dwattr $C$DW$202, DW_AT_low_pc(0x00)
    1299                      .dwattr $C$DW$202, DW_AT_name("_EST_getState")
    1300                      .dwattr $C$DW$202, DW_AT_TI_call
    1301 00000085 7640!         LCR       #_EST_getState        ; [CPU_] |600| 
         00000086 0000 
    1302                      ; call occurs [#_EST_getState] ; [] |600| 
    1303 00000087 761F-         MOVW      DP,#_gMotorVars+14    ; [CPU_U] 
         00000088 0002 
    1304                      .dwpsn  file "C:/ti/motorware/motorware_1_01_00_18/sw/solutions/instaspin_foc/src/proj_lab07.c",line 
    1305 00000089 9B73          MOV       AH,#115               ; [CPU_] |603| 
    1306                      .dwpsn  file "C:/ti/motorware/motorware_1_01_00_18/sw/solutions/instaspin_foc/src/proj_lab07.c",line 
    1307 0000008a 960E-         MOV       @_gMotorVars+14,AL    ; [CPU_] |600| 
    1308 0000008b 761F-         MOVW      DP,#_gAdcData+12      ; [CPU_U] 
         0000008c 0000 
    1309                      .dwpsn  file "C:/ti/motorware/motorware_1_01_00_18/sw/solutions/instaspin_foc/src/proj_lab07.c",line 
    1310 0000008d 28A9          MOV       AL,#13107             ; [CPU_] |603| 
         0000008e 3333 
    1311 0000008f 8732-         MOVL      XT,@_gAdcData+12      ; [CPU_] |603| 
    1312 00000090 FE82          SUBB      SP,#2                 ; [CPU_U] 
    1313                      .dwcfi  cfa_offset, -6
    1314 00000091 5605          IMPYL     P,XT,ACC              ; [CPU_] |603| 
         00000092 00A9 
    1315 00000093 86BE          MOVL      XAR2,*--SP            ; [CPU_] 
    1316                      .dwcfi  cfa_offset, -4
    1317                      .dwcfi  restore_reg, 9
    1318 00000094 5663          QMPYL     ACC,XT,ACC            ; [CPU_] |603| 
         00000095 00A9 
    1319 00000096 8BBE          MOVL      XAR1,*--SP            ; [CPU_] 
    1320                      .dwcfi  cfa_offset, -2
    1321                      .dwcfi  restore_reg, 7
TMS320C2000 Assembler PC v6.2.5 Thu Jun 22 20:41:15 2017

Tools Copyright (c) 1996-2014 Texas Instruments Incorporated
C:\Users\wmj\AppData\Local\Temp\1712410                              PAGE   27

    1322 00000097 56A7          LSL64     ACC:P,#8              ; [CPU_] |603| 
    1323 00000098 761F-         MOVW      DP,#_gMotorVars+86    ; [CPU_U] 
         00000099 0003 
    1324 0000009a 1E16-         MOVL      @_gMotorVars+86,ACC   ; [CPU_] |603| 
    1325              $C$DW$203       .dwtag  DW_TAG_TI_branch
    1326                      .dwattr $C$DW$203, DW_AT_low_pc(0x00)
    1327                      .dwattr $C$DW$203, DW_AT_TI_return
    1328 0000009b 0006          LRETR     ; [CPU_] 
    1329                      ; return occurs ; [] 
    1330                      .dwattr $C$DW$188, DW_AT_TI_end_file("C:/ti/motorware/motorware_1_01_00_18/sw/solutions/instaspin_foc
    1331                      .dwattr $C$DW$188, DW_AT_TI_end_line(0x25e)
    1332                      .dwattr $C$DW$188, DW_AT_TI_end_column(0x01)
    1333                      .dwendentry
    1334                      .dwendtag $C$DW$188
    1335              
    1336 0000009c               .sect   ".text"
    1337                      .clink
    1338                      .global _updateCPUusage
    1339              
    1340              $C$DW$204       .dwtag  DW_TAG_subprogram, DW_AT_name("updateCPUusage")
    1341                      .dwattr $C$DW$204, DW_AT_low_pc(_updateCPUusage)
    1342                      .dwattr $C$DW$204, DW_AT_high_pc(0x00)
    1343                      .dwattr $C$DW$204, DW_AT_TI_symbol_name("_updateCPUusage")
    1344                      .dwattr $C$DW$204, DW_AT_external
    1345                      .dwattr $C$DW$204, DW_AT_TI_begin_file("C:/ti/motorware/motorware_1_01_00_18/sw/solutions/instaspin_f
    1346                      .dwattr $C$DW$204, DW_AT_TI_begin_line(0x296)
    1347                      .dwattr $C$DW$204, DW_AT_TI_begin_column(0x06)
    1348                      .dwattr $C$DW$204, DW_AT_TI_max_frame_size(-12)
    1349                      .dwpsn  file "C:/ti/motorware/motorware_1_01_00_18/sw/solutions/instaspin_foc/src/proj_lab07.c",line 
    1350              
    1351                      .dwfde $C$DW$CIE, _updateCPUusage
    1352              
    1353              ;***************************************************************
    1354              ;* FNAME: _updateCPUusage               FR SIZE:  10           *
    1355              ;*                                                             *
    1356              ;* FUNCTION ENVIRONMENT                                        *
    1357              ;*                                                             *
    1358              ;* FUNCTION PROPERTIES                                         *
    1359              ;*                            2 Parameter,  2 Auto,  6 SOE     *
    1360              ;***************************************************************
    1361              
    1362              _updateCPUusage:
    1363              ;* AR1   assigned to $O$C1
    1364              ;* AR2   assigned to $O$C2
    1365              ;* AL    assigned to $O$C3
    1366              $C$DW$205       .dwtag  DW_TAG_variable, DW_AT_name("avgDeltaCntObserved")
    1367                      .dwattr $C$DW$205, DW_AT_TI_symbol_name("_avgDeltaCntObserved")
    1368                      .dwattr $C$DW$205, DW_AT_type(*$C$DW$T$38)
    1369                      .dwattr $C$DW$205, DW_AT_location[DW_OP_breg20 -4]
    1370              ;* AR3   assigned to _maxDeltaCntObserved
    1371              $C$DW$206       .dwtag  DW_TAG_variable, DW_AT_name("maxDeltaCntObserved")
    1372                      .dwattr $C$DW$206, DW_AT_TI_symbol_name("_maxDeltaCntObserved")
    1373                      .dwattr $C$DW$206, DW_AT_type(*$C$DW$T$38)
    1374                      .dwattr $C$DW$206, DW_AT_location[DW_OP_reg10]
    1375              ;* AL    assigned to _pwmPeriodValue
TMS320C2000 Assembler PC v6.2.5 Thu Jun 22 20:41:15 2017

Tools Copyright (c) 1996-2014 Texas Instruments Incorporated
C:\Users\wmj\AppData\Local\Temp\1712410                              PAGE   28

    1376              $C$DW$207       .dwtag  DW_TAG_variable, DW_AT_name("pwmPeriodValue")
    1377                      .dwattr $C$DW$207, DW_AT_TI_symbol_name("_pwmPeriodValue")
    1378                      .dwattr $C$DW$207, DW_AT_type(*$C$DW$T$23)
    1379                      .dwattr $C$DW$207, DW_AT_location[DW_OP_reg0]
    1380              ;* AR4   assigned to _pwmHandle
    1381              $C$DW$208       .dwtag  DW_TAG_variable, DW_AT_name("pwmHandle")
    1382                      .dwattr $C$DW$208, DW_AT_TI_symbol_name("_pwmHandle")
    1383                      .dwattr $C$DW$208, DW_AT_type(*$C$DW$T$107)
    1384                      .dwattr $C$DW$208, DW_AT_location[DW_OP_reg12]
    1385                      .dwcfi  cfa_offset, -2
    1386                      .dwcfi  save_reg_to_mem, 26, 0
    1387                      .dwcfi  save_reg_to_reg, 78, 26
    1388 0000009c B2BD          MOVL      *SP++,XAR1            ; [CPU_] 
    1389                      .dwcfi  save_reg_to_mem, 7, 2
    1390                      .dwcfi  cfa_offset, -4
    1391 0000009d AABD          MOVL      *SP++,XAR2            ; [CPU_] 
    1392                      .dwcfi  save_reg_to_mem, 9, 4
    1393                      .dwcfi  cfa_offset, -6
    1394 0000009e A2BD          MOVL      *SP++,XAR3            ; [CPU_] 
    1395                      .dwcfi  save_reg_to_mem, 11, 6
    1396                      .dwcfi  cfa_offset, -8
    1397 0000009f FE04          ADDB      SP,#4                 ; [CPU_U] 
    1398                      .dwcfi  cfa_offset, -12
    1399 000000a0 761F-         MOVW      DP,#_cpu_usageHandle  ; [CPU_U] 
         000000a1 0000 
    1400                      .dwpsn  file "C:/ti/motorware/motorware_1_01_00_18/sw/modules/cpu_usage/src/32b/cpu_usage.h",line 167
    1401 000000a2 861E-         MOVL      XAR2,@_cpu_usageHandle ; [CPU_] |167| 
    1402 000000a3 D010          MOVB      XAR0,#16              ; [CPU_] |167| 
    1403                      .dwpsn  file "C:/ti/motorware/motorware_1_01_00_18/sw/modules/hal/boards/hvkit_rev1p1/f28x/f2802x/src
    1404 000000a4 8A10-         MOVL      XAR4,@_halHandle      ; [CPU_] |1129| 
    1405                      .dwpsn  file "C:/ti/motorware/motorware_1_01_00_18/sw/modules/cpu_usage/src/32b/cpu_usage.h",line 167
    1406 000000a5 0692          MOVL      ACC,*+XAR2[AR0]       ; [CPU_] |167| 
    1407                      .dwpsn  file "C:/ti/motorware/motorware_1_01_00_18/sw/modules/cpu_usage/src/32b/cpu_usage.h",line 178
    1408 000000a6 D012          MOVB      XAR0,#18              ; [CPU_] |178| 
    1409                      .dwpsn  file "C:/ti/motorware/motorware_1_01_00_18/sw/modules/cpu_usage/src/32b/cpu_usage.h",line 167
    1410 000000a7 1E44          MOVL      *-SP[4],ACC           ; [CPU_] |167| 
    1411                      .dwpsn  file "C:/ti/motorware/motorware_1_01_00_18/sw/modules/cpu_usage/src/32b/cpu_usage.h",line 178
    1412 000000a8 8292          MOVL      XAR3,*+XAR2[AR0]      ; [CPU_] |178| 
    1413                      .dwpsn  file "C:/ti/motorware/motorware_1_01_00_18/sw/modules/hal/boards/hvkit_rev1p1/f28x/f2802x/src
    1414 000000a9 D07C          MOVB      XAR0,#124             ; [CPU_] |1129| 
    1415 000000aa 8A94          MOVL      XAR4,*+XAR4[AR0]      ; [CPU_] |1129| 
    1416                      .dwpsn  file "C:/ti/motorware/motorware_1_01_00_18/sw/drivers/pwm/src/32b/f28x/f2802x/pwm.h",line 120
    1417 000000ab 92EC          MOV       AL,*+XAR4[5]          ; [CPU_] |1208| 
    1418                      .dwpsn  file "C:/ti/motorware/motorware_1_01_00_18/sw/solutions/instaspin_foc/src/proj_lab07.c",line 
    1419              $C$DW$209       .dwtag  DW_TAG_TI_branch
    1420                      .dwattr $C$DW$209, DW_AT_low_pc(0x00)
    1421                      .dwattr $C$DW$209, DW_AT_name("U$$TOFS")
    1422                      .dwattr $C$DW$209, DW_AT_TI_call
    1423 000000ac 7640!         LCR       #U$$TOFS              ; [CPU_] |671| 
         000000ad 0000 
    1424                      ; call occurs [#U$$TOFS] ; [] |671| 
    1425 000000ae 1E42          MOVL      *-SP[2],ACC           ; [CPU_] |671| 
    1426              $C$DW$210       .dwtag  DW_TAG_TI_branch
    1427                      .dwattr $C$DW$210, DW_AT_low_pc(0x00)
    1428                      .dwattr $C$DW$210, DW_AT_name("FS$$ADD")
TMS320C2000 Assembler PC v6.2.5 Thu Jun 22 20:41:15 2017

Tools Copyright (c) 1996-2014 Texas Instruments Incorporated
C:\Users\wmj\AppData\Local\Temp\1712410                              PAGE   29

    1429                      .dwattr $C$DW$210, DW_AT_TI_call
    1430 000000af 7640!         LCR       #FS$$ADD              ; [CPU_] |671| 
         000000b0 0000 
    1431                      ; call occurs [#FS$$ADD] ; [] |671| 
    1432 000000b1 D00E          MOVB      XAR0,#14              ; [CPU_] |671| 
    1433 000000b2 8BA9          MOVL      XAR1,ACC              ; [CPU_] |671| 
    1434 000000b3 0692          MOVL      ACC,*+XAR2[AR0]       ; [CPU_] |671| 
    1435              $C$DW$211       .dwtag  DW_TAG_TI_branch
    1436                      .dwattr $C$DW$211, DW_AT_low_pc(0x00)
    1437                      .dwattr $C$DW$211, DW_AT_name("UL$$TOFS")
    1438                      .dwattr $C$DW$211, DW_AT_TI_call
    1439 000000b4 7640!         LCR       #UL$$TOFS             ; [CPU_] |671| 
         000000b5 0000 
    1440                      ; call occurs [#UL$$TOFS] ; [] |671| 
    1441 000000b6 B242          MOVL      *-SP[2],XAR1          ; [CPU_] |671| 
    1442              $C$DW$212       .dwtag  DW_TAG_TI_branch
    1443                      .dwattr $C$DW$212, DW_AT_low_pc(0x00)
    1444                      .dwattr $C$DW$212, DW_AT_name("FS$$DIV")
    1445                      .dwattr $C$DW$212, DW_AT_TI_call
    1446 000000b7 7640!         LCR       #FS$$DIV              ; [CPU_] |671| 
         000000b8 0000 
    1447                      ; call occurs [#FS$$DIV] ; [] |671| 
    1448 000000b9 1EA6          MOVL      XAR6,ACC              ; [CPU_] |671| 
    1449 000000ba 9A00          MOV       AL,#0                 ; [CPU_] |671| 
    1450 000000bb 28A8          MOV       AH,#17096             ; [CPU_] |671| 
         000000bc 42C8 
    1451 000000bd 1E42          MOVL      *-SP[2],ACC           ; [CPU_] |671| 
    1452 000000be 06A6          MOVL      ACC,XAR6              ; [CPU_] |671| 
    1453              $C$DW$213       .dwtag  DW_TAG_TI_branch
    1454                      .dwattr $C$DW$213, DW_AT_low_pc(0x00)
    1455                      .dwattr $C$DW$213, DW_AT_name("FS$$MPY")
    1456                      .dwattr $C$DW$213, DW_AT_TI_call
    1457 000000bf 7640!         LCR       #FS$$MPY              ; [CPU_] |671| 
         000000c0 0000 
    1458                      ; call occurs [#FS$$MPY] ; [] |671| 
    1459 000000c1 761F-         MOVW      DP,#_gCpuUsagePercentageMin ; [CPU_U] 
         000000c2 0000 
    1460 000000c3 1E1C-         MOVL      @_gCpuUsagePercentageMin,ACC ; [CPU_] |671| 
    1461 000000c4 0644          MOVL      ACC,*-SP[4]           ; [CPU_] |671| 
    1462                      .dwpsn  file "C:/ti/motorware/motorware_1_01_00_18/sw/solutions/instaspin_foc/src/proj_lab07.c",line 
    1463              $C$DW$214       .dwtag  DW_TAG_TI_branch
    1464                      .dwattr $C$DW$214, DW_AT_low_pc(0x00)
    1465                      .dwattr $C$DW$214, DW_AT_name("UL$$TOFS")
    1466                      .dwattr $C$DW$214, DW_AT_TI_call
    1467 000000c5 7640!         LCR       #UL$$TOFS             ; [CPU_] |674| 
         000000c6 0000 
    1468                      ; call occurs [#UL$$TOFS] ; [] |674| 
    1469 000000c7 B242          MOVL      *-SP[2],XAR1          ; [CPU_] |674| 
    1470              $C$DW$215       .dwtag  DW_TAG_TI_branch
    1471                      .dwattr $C$DW$215, DW_AT_low_pc(0x00)
    1472                      .dwattr $C$DW$215, DW_AT_name("FS$$DIV")
    1473                      .dwattr $C$DW$215, DW_AT_TI_call
    1474 000000c8 7640!         LCR       #FS$$DIV              ; [CPU_] |674| 
         000000c9 0000 
    1475                      ; call occurs [#FS$$DIV] ; [] |674| 
TMS320C2000 Assembler PC v6.2.5 Thu Jun 22 20:41:15 2017

Tools Copyright (c) 1996-2014 Texas Instruments Incorporated
C:\Users\wmj\AppData\Local\Temp\1712410                              PAGE   30

    1476 000000ca 1EA6          MOVL      XAR6,ACC              ; [CPU_] |674| 
    1477 000000cb 9A00          MOV       AL,#0                 ; [CPU_] |674| 
    1478 000000cc 28A8          MOV       AH,#17096             ; [CPU_] |674| 
         000000cd 42C8 
    1479 000000ce 1E42          MOVL      *-SP[2],ACC           ; [CPU_] |674| 
    1480 000000cf 06A6          MOVL      ACC,XAR6              ; [CPU_] |674| 
    1481              $C$DW$216       .dwtag  DW_TAG_TI_branch
    1482                      .dwattr $C$DW$216, DW_AT_low_pc(0x00)
    1483                      .dwattr $C$DW$216, DW_AT_name("FS$$MPY")
    1484                      .dwattr $C$DW$216, DW_AT_TI_call
    1485 000000d0 7640!         LCR       #FS$$MPY              ; [CPU_] |674| 
         000000d1 0000 
    1486                      ; call occurs [#FS$$MPY] ; [] |674| 
    1487 000000d2 761F-         MOVW      DP,#_gCpuUsagePercentageAvg ; [CPU_U] 
         000000d3 0000 
    1488 000000d4 1E16-         MOVL      @_gCpuUsagePercentageAvg,ACC ; [CPU_] |674| 
    1489                      .dwpsn  file "C:/ti/motorware/motorware_1_01_00_18/sw/solutions/instaspin_foc/src/proj_lab07.c",line 
    1490 000000d5 A2A9          MOVL      ACC,XAR3              ; [CPU_] |677| 
    1491              $C$DW$217       .dwtag  DW_TAG_TI_branch
    1492                      .dwattr $C$DW$217, DW_AT_low_pc(0x00)
    1493                      .dwattr $C$DW$217, DW_AT_name("UL$$TOFS")
    1494                      .dwattr $C$DW$217, DW_AT_TI_call
    1495 000000d6 7640!         LCR       #UL$$TOFS             ; [CPU_] |677| 
         000000d7 0000 
    1496                      ; call occurs [#UL$$TOFS] ; [] |677| 
    1497 000000d8 B242          MOVL      *-SP[2],XAR1          ; [CPU_] |677| 
    1498              $C$DW$218       .dwtag  DW_TAG_TI_branch
    1499                      .dwattr $C$DW$218, DW_AT_low_pc(0x00)
    1500                      .dwattr $C$DW$218, DW_AT_name("FS$$DIV")
    1501                      .dwattr $C$DW$218, DW_AT_TI_call
    1502 000000d9 7640!         LCR       #FS$$DIV              ; [CPU_] |677| 
         000000da 0000 
    1503                      ; call occurs [#FS$$DIV] ; [] |677| 
    1504 000000db 1EA6          MOVL      XAR6,ACC              ; [CPU_] |677| 
    1505 000000dc 9A00          MOV       AL,#0                 ; [CPU_] |677| 
    1506 000000dd 28A8          MOV       AH,#17096             ; [CPU_] |677| 
         000000de 42C8 
    1507 000000df 1E42          MOVL      *-SP[2],ACC           ; [CPU_] |677| 
    1508 000000e0 06A6          MOVL      ACC,XAR6              ; [CPU_] |677| 
    1509              $C$DW$219       .dwtag  DW_TAG_TI_branch
    1510                      .dwattr $C$DW$219, DW_AT_low_pc(0x00)
    1511                      .dwattr $C$DW$219, DW_AT_name("FS$$MPY")
    1512                      .dwattr $C$DW$219, DW_AT_TI_call
    1513 000000e1 7640!         LCR       #FS$$MPY              ; [CPU_] |677| 
         000000e2 0000 
    1514                      ; call occurs [#FS$$MPY] ; [] |677| 
    1515 000000e3 FE84          SUBB      SP,#4                 ; [CPU_U] 
    1516                      .dwcfi  cfa_offset, -8
    1517 000000e4 82BE          MOVL      XAR3,*--SP            ; [CPU_] 
    1518                      .dwcfi  cfa_offset, -6
    1519                      .dwcfi  restore_reg, 11
    1520 000000e5 86BE          MOVL      XAR2,*--SP            ; [CPU_] 
    1521                      .dwcfi  cfa_offset, -4
    1522                      .dwcfi  restore_reg, 9
    1523 000000e6 8BBE          MOVL      XAR1,*--SP            ; [CPU_] 
TMS320C2000 Assembler PC v6.2.5 Thu Jun 22 20:41:15 2017

Tools Copyright (c) 1996-2014 Texas Instruments Incorporated
C:\Users\wmj\AppData\Local\Temp\1712410                              PAGE   31

    1524                      .dwcfi  cfa_offset, -2
    1525                      .dwcfi  restore_reg, 7
    1526 000000e7 761F-         MOVW      DP,#_gCpuUsagePercentageMax ; [CPU_U] 
         000000e8 0000 
    1527 000000e9 1E18-         MOVL      @_gCpuUsagePercentageMax,ACC ; [CPU_] |677| 
    1528              $C$DW$220       .dwtag  DW_TAG_TI_branch
    1529                      .dwattr $C$DW$220, DW_AT_low_pc(0x00)
    1530                      .dwattr $C$DW$220, DW_AT_TI_return
    1531 000000ea 0006          LRETR     ; [CPU_] 
    1532                      ; return occurs ; [] 
    1533                      .dwattr $C$DW$204, DW_AT_TI_end_file("C:/ti/motorware/motorware_1_01_00_18/sw/solutions/instaspin_foc
    1534                      .dwattr $C$DW$204, DW_AT_TI_end_line(0x2a8)
    1535                      .dwattr $C$DW$204, DW_AT_TI_end_column(0x01)
    1536                      .dwendentry
    1537                      .dwendtag $C$DW$204
    1538              
    1539 000000eb               .sect   ".text"
    1540                      .clink
    1541                      .global _runRsOnLine
    1542              
    1543              $C$DW$221       .dwtag  DW_TAG_subprogram, DW_AT_name("runRsOnLine")
    1544                      .dwattr $C$DW$221, DW_AT_low_pc(_runRsOnLine)
    1545                      .dwattr $C$DW$221, DW_AT_high_pc(0x00)
    1546                      .dwattr $C$DW$221, DW_AT_TI_symbol_name("_runRsOnLine")
    1547                      .dwattr $C$DW$221, DW_AT_external
    1548                      .dwattr $C$DW$221, DW_AT_TI_begin_file("C:/ti/motorware/motorware_1_01_00_18/sw/solutions/instaspin_f
    1549                      .dwattr $C$DW$221, DW_AT_TI_begin_line(0x274)
    1550                      .dwattr $C$DW$221, DW_AT_TI_begin_column(0x06)
    1551                      .dwattr $C$DW$221, DW_AT_TI_max_frame_size(-8)
    1552                      .dwpsn  file "C:/ti/motorware/motorware_1_01_00_18/sw/solutions/instaspin_foc/src/proj_lab07.c",line 
    1553              
    1554                      .dwfde $C$DW$CIE, _runRsOnLine
    1555              $C$DW$222       .dwtag  DW_TAG_formal_parameter, DW_AT_name("handle")
    1556                      .dwattr $C$DW$222, DW_AT_TI_symbol_name("_handle")
    1557                      .dwattr $C$DW$222, DW_AT_type(*$C$DW$T$165)
    1558                      .dwattr $C$DW$222, DW_AT_location[DW_OP_reg12]
    1559              
    1560              ;***************************************************************
    1561              ;* FNAME: _runRsOnLine                  FR SIZE:   6           *
    1562              ;*                                                             *
    1563              ;* FUNCTION ENVIRONMENT                                        *
    1564              ;*                                                             *
    1565              ;* FUNCTION PROPERTIES                                         *
    1566              ;*                            2 Parameter,  0 Auto,  4 SOE     *
    1567              ;***************************************************************
    1568              
    1569              _runRsOnLine:
    1570              ;* AR1   assigned to _RsError_Ohm
    1571              $C$DW$223       .dwtag  DW_TAG_variable, DW_AT_name("RsError_Ohm")
    1572                      .dwattr $C$DW$223, DW_AT_TI_symbol_name("_RsError_Ohm")
    1573                      .dwattr $C$DW$223, DW_AT_type(*$C$DW$T$70)
    1574                      .dwattr $C$DW$223, DW_AT_location[DW_OP_reg6]
    1575              ;* AR2   assigned to _handle
    1576              $C$DW$224       .dwtag  DW_TAG_variable, DW_AT_name("handle")
    1577                      .dwattr $C$DW$224, DW_AT_TI_symbol_name("_handle")
TMS320C2000 Assembler PC v6.2.5 Thu Jun 22 20:41:15 2017

Tools Copyright (c) 1996-2014 Texas Instruments Incorporated
C:\Users\wmj\AppData\Local\Temp\1712410                              PAGE   32

    1578                      .dwattr $C$DW$224, DW_AT_type(*$C$DW$T$207)
    1579                      .dwattr $C$DW$224, DW_AT_location[DW_OP_reg8]
    1580                      .dwcfi  cfa_offset, -2
    1581                      .dwcfi  save_reg_to_mem, 26, 0
    1582                      .dwcfi  save_reg_to_reg, 78, 26
    1583 000000eb B2BD          MOVL      *SP++,XAR1            ; [CPU_] 
    1584                      .dwcfi  save_reg_to_mem, 7, 2
    1585                      .dwcfi  cfa_offset, -4
    1586 000000ec AABD          MOVL      *SP++,XAR2            ; [CPU_] 
    1587                      .dwcfi  save_reg_to_mem, 9, 4
    1588                      .dwcfi  cfa_offset, -6
    1589 000000ed FE02          ADDB      SP,#2                 ; [CPU_U] 
    1590                      .dwcfi  cfa_offset, -8
    1591 000000ee 761F-         MOVW      DP,#_gMotorVars+1     ; [CPU_U] 
         000000ef 0002 
    1592 000000f0 86A4          MOVL      XAR2,XAR4             ; [CPU_] |629| 
    1593                      .dwpsn  file "C:/ti/motorware/motorware_1_01_00_18/sw/solutions/instaspin_foc/src/proj_lab07.c",line 
    1594 000000f1 9201-         MOV       AL,@_gMotorVars+1     ; [CPU_] |633| 
    1595 000000f2 5201          CMPB      AL,#1                 ; [CPU_] |633| 
    1596 000000f3 ED65          BF        $C$L3,NEQ             ; [CPU_] |633| 
    1597                      ; branchcc occurs ; [] |633| 
    1598                      .dwpsn  file "C:/ti/motorware/motorware_1_01_00_18/sw/solutions/instaspin_foc/src/proj_lab07.c",line 
    1599 000000f4 D018          MOVB      XAR0,#24              ; [CPU_] |635| 
    1600 000000f5 8A92          MOVL      XAR4,*+XAR2[AR0]      ; [CPU_] |635| 
    1601              $C$DW$225       .dwtag  DW_TAG_TI_branch
    1602                      .dwattr $C$DW$225, DW_AT_low_pc(0x00)
    1603                      .dwattr $C$DW$225, DW_AT_name("_EST_getState")
    1604                      .dwattr $C$DW$225, DW_AT_TI_call
    1605 000000f6 7640!         LCR       #_EST_getState        ; [CPU_] |635| 
         000000f7 0000 
    1606                      ; call occurs [#_EST_getState] ; [] |635| 
    1607 000000f8 520D          CMPB      AL,#13                ; [CPU_] |635| 
    1608 000000f9 ED3B          BF        $C$L2,NEQ             ; [CPU_] |635| 
    1609                      ; branchcc occurs ; [] |635| 
    1610 000000fa 761F-         MOVW      DP,#_gMotorVars+48    ; [CPU_U] 
         000000fb 0002 
    1611                      .dwpsn  file "C:/ti/motorware/motorware_1_01_00_18/sw/solutions/instaspin_foc/src/proj_lab07.c",line 
    1612 000000fc 0630-         MOVL      ACC,@_gMotorVars+48   ; [CPU_] |637| 
    1613 000000fd 1E42          MOVL      *-SP[2],ACC           ; [CPU_] |637| 
    1614 000000fe 0632-         MOVL      ACC,@_gMotorVars+50   ; [CPU_] |637| 
    1615              $C$DW$226       .dwtag  DW_TAG_TI_branch
    1616                      .dwattr $C$DW$226, DW_AT_low_pc(0x00)
    1617                      .dwattr $C$DW$226, DW_AT_name("FS$$SUB")
    1618                      .dwattr $C$DW$226, DW_AT_TI_call
    1619 000000ff 7640!         LCR       #FS$$SUB              ; [CPU_] |637| 
         00000100 0000 
    1620                      ; call occurs [#FS$$SUB] ; [] |637| 
    1621                      .dwpsn  file "C:/ti/motorware/motorware_1_01_00_18/sw/solutions/instaspin_foc/src/proj_lab07.c",line 
    1622 00000101 D018          MOVB      XAR0,#24              ; [CPU_] |639| 
    1623                      .dwpsn  file "C:/ti/motorware/motorware_1_01_00_18/sw/solutions/instaspin_foc/src/proj_lab07.c",line 
    1624 00000102 8BA9          MOVL      XAR1,ACC              ; [CPU_] |637| 
    1625                      .dwpsn  file "C:/ti/motorware/motorware_1_01_00_18/sw/solutions/instaspin_foc/src/proj_lab07.c",line 
    1626 00000103 9A01          MOVB      AL,#1                 ; [CPU_] |639| 
    1627 00000104 8A92          MOVL      XAR4,*+XAR2[AR0]      ; [CPU_] |639| 
    1628              $C$DW$227       .dwtag  DW_TAG_TI_branch
TMS320C2000 Assembler PC v6.2.5 Thu Jun 22 20:41:15 2017

Tools Copyright (c) 1996-2014 Texas Instruments Incorporated
C:\Users\wmj\AppData\Local\Temp\1712410                              PAGE   33

    1629                      .dwattr $C$DW$227, DW_AT_low_pc(0x00)
    1630                      .dwattr $C$DW$227, DW_AT_name("_EST_setFlag_enableRsOnLine")
    1631                      .dwattr $C$DW$227, DW_AT_TI_call
    1632 00000105 7640!         LCR       #_EST_setFlag_enableRsOnLine ; [CPU_] |639| 
         00000106 0000 
    1633                      ; call occurs [#_EST_setFlag_enableRsOnLine] ; [] |639| 
    1634 00000107 761F-         MOVW      DP,#_gMotorVars+36    ; [CPU_U] 
         00000108 0002 
    1635                      .dwpsn  file "C:/ti/motorware/motorware_1_01_00_18/sw/solutions/instaspin_foc/src/proj_lab07.c",line 
    1636 00000109 D018          MOVB      XAR0,#24              ; [CPU_] |640| 
    1637 0000010a 9A00          MOV       AL,#0                 ; [CPU_] |640| 
    1638 0000010b 9B80          MOV       AH,#128               ; [CPU_] |640| 
    1639 0000010c 8724-         MOVL      XT,@_gMotorVars+36    ; [CPU_] |640| 
    1640 0000010d 8A92          MOVL      XAR4,*+XAR2[AR0]      ; [CPU_] |640| 
    1641 0000010e 5605          IMPYL     P,XT,ACC              ; [CPU_] |640| 
         0000010f 00A9 
    1642 00000110 5663          QMPYL     ACC,XT,ACC            ; [CPU_] |640| 
         00000111 00A9 
    1643 00000112 56A7          LSL64     ACC:P,#8              ; [CPU_] |640| 
    1644              $C$DW$228       .dwtag  DW_TAG_TI_branch
    1645                      .dwattr $C$DW$228, DW_AT_low_pc(0x00)
    1646                      .dwattr $C$DW$228, DW_AT_name("_EST_setRsOnLineId_mag_pu")
    1647                      .dwattr $C$DW$228, DW_AT_TI_call
    1648 00000113 7640!         LCR       #_EST_setRsOnLineId_mag_pu ; [CPU_] |640| 
         00000114 0000 
    1649                      ; call occurs [#_EST_setRsOnLineId_mag_pu] ; [] |640| 
    1650                      .dwpsn  file "C:/ti/motorware/motorware_1_01_00_18/sw/solutions/instaspin_foc/src/proj_lab07.c",line 
    1651 00000115 B2A9          MOVL      ACC,XAR1              ; [CPU_] |642| 
    1652              $C$DW$229       .dwtag  DW_TAG_TI_branch
    1653                      .dwattr $C$DW$229, DW_AT_low_pc(0x00)
    1654                      .dwattr $C$DW$229, DW_AT_name("FS$$TOI")
    1655                      .dwattr $C$DW$229, DW_AT_TI_call
    1656 00000116 7640!         LCR       #FS$$TOI              ; [CPU_] |642| 
         00000117 0000 
    1657                      ; call occurs [#FS$$TOI] ; [] |642| 
    1658 00000118 3B01          SETC      SXM                   ; [CPU_] 
    1659 00000119 85A9          MOV       ACC,AL                ; [CPU_] |642| 
    1660 0000011a FF56          ABS       ACC                   ; [CPU_] |642| 
    1661              $C$DW$230       .dwtag  DW_TAG_TI_branch
    1662                      .dwattr $C$DW$230, DW_AT_low_pc(0x00)
    1663                      .dwattr $C$DW$230, DW_AT_name("I$$TOFS")
    1664                      .dwattr $C$DW$230, DW_AT_TI_call
    1665 0000011b 7640!         LCR       #I$$TOFS              ; [CPU_] |642| 
         0000011c 0000 
    1666                      ; call occurs [#I$$TOFS] ; [] |642| 
    1667 0000011d 761F-         MOVW      DP,#_gMotorVars+48    ; [CPU_U] 
         0000011e 0002 
    1668 0000011f 8BA9          MOVL      XAR1,ACC              ; [CPU_] |642| 
    1669 00000120 28A9          MOV       AL,#52429             ; [CPU_] |642| 
         00000121 CCCD 
    1670 00000122 28A8          MOV       AH,#15692             ; [CPU_] |642| 
         00000123 3D4C 
    1671 00000124 1E42          MOVL      *-SP[2],ACC           ; [CPU_] |642| 
    1672 00000125 0630-         MOVL      ACC,@_gMotorVars+48   ; [CPU_] |642| 
    1673              $C$DW$231       .dwtag  DW_TAG_TI_branch
TMS320C2000 Assembler PC v6.2.5 Thu Jun 22 20:41:15 2017

Tools Copyright (c) 1996-2014 Texas Instruments Incorporated
C:\Users\wmj\AppData\Local\Temp\1712410                              PAGE   34

    1674                      .dwattr $C$DW$231, DW_AT_low_pc(0x00)
    1675                      .dwattr $C$DW$231, DW_AT_name("FS$$MPY")
    1676                      .dwattr $C$DW$231, DW_AT_TI_call
    1677 00000126 7640!         LCR       #FS$$MPY              ; [CPU_] |642| 
         00000127 0000 
    1678                      ; call occurs [#FS$$MPY] ; [] |642| 
    1679 00000128 1E42          MOVL      *-SP[2],ACC           ; [CPU_] |642| 
    1680 00000129 B2A9          MOVL      ACC,XAR1              ; [CPU_] |642| 
    1681              $C$DW$232       .dwtag  DW_TAG_TI_branch
    1682                      .dwattr $C$DW$232, DW_AT_low_pc(0x00)
    1683                      .dwattr $C$DW$232, DW_AT_name("FS$$CMP")
    1684                      .dwattr $C$DW$232, DW_AT_TI_call
    1685 0000012a 7640!         LCR       #FS$$CMP              ; [CPU_] |642| 
         0000012b 0000 
    1686                      ; call occurs [#FS$$CMP] ; [] |642| 
    1687 0000012c 5200          CMPB      AL,#0                 ; [CPU_] |642| 
    1688 0000012d 632B          B         $C$L3,GEQ             ; [CPU_] |642| 
    1689                      ; branchcc occurs ; [] |642| 
    1690                      .dwpsn  file "C:/ti/motorware/motorware_1_01_00_18/sw/solutions/instaspin_foc/src/proj_lab07.c",line 
    1691 0000012e D018          MOVB      XAR0,#24              ; [CPU_] |644| 
    1692 0000012f 9A01          MOVB      AL,#1                 ; [CPU_] |644| 
    1693 00000130 8A92          MOVL      XAR4,*+XAR2[AR0]      ; [CPU_] |644| 
    1694              $C$DW$233       .dwtag  DW_TAG_TI_branch
    1695                      .dwattr $C$DW$233, DW_AT_low_pc(0x00)
    1696                      .dwattr $C$DW$233, DW_AT_name("_EST_setFlag_updateRs")
    1697                      .dwattr $C$DW$233, DW_AT_TI_call
    1698 00000131 7640!         LCR       #_EST_setFlag_updateRs ; [CPU_] |644| 
         00000132 0000 
    1699                      ; call occurs [#_EST_setFlag_updateRs] ; [] |644| 
    1700 00000133 6F25          B         $C$L3,UNC             ; [CPU_] |644| 
    1701                      ; branch occurs ; [] |644| 
    1702 00000134       $C$L2:    
    1703                      .dwpsn  file "C:/ti/motorware/motorware_1_01_00_18/sw/solutions/instaspin_foc/src/proj_lab07.c",line 
    1704 00000134 D018          MOVB      XAR0,#24              ; [CPU_] |649| 
    1705 00000135 0200          MOVB      ACC,#0                ; [CPU_] |649| 
    1706 00000136 8A92          MOVL      XAR4,*+XAR2[AR0]      ; [CPU_] |649| 
    1707              $C$DW$234       .dwtag  DW_TAG_TI_branch
    1708                      .dwattr $C$DW$234, DW_AT_low_pc(0x00)
    1709                      .dwattr $C$DW$234, DW_AT_name("_EST_setRsOnLineId_mag_pu")
    1710                      .dwattr $C$DW$234, DW_AT_TI_call
    1711 00000137 7640!         LCR       #_EST_setRsOnLineId_mag_pu ; [CPU_] |649| 
         00000138 0000 
    1712                      ; call occurs [#_EST_setRsOnLineId_mag_pu] ; [] |649| 
    1713                      .dwpsn  file "C:/ti/motorware/motorware_1_01_00_18/sw/solutions/instaspin_foc/src/proj_lab07.c",line 
    1714 00000139 D018          MOVB      XAR0,#24              ; [CPU_] |650| 
    1715 0000013a 0200          MOVB      ACC,#0                ; [CPU_] |650| 
    1716 0000013b 8A92          MOVL      XAR4,*+XAR2[AR0]      ; [CPU_] |650| 
    1717              $C$DW$235       .dwtag  DW_TAG_TI_branch
    1718                      .dwattr $C$DW$235, DW_AT_low_pc(0x00)
    1719                      .dwattr $C$DW$235, DW_AT_name("_EST_setRsOnLineId_pu")
    1720                      .dwattr $C$DW$235, DW_AT_TI_call
    1721 0000013c 7640!         LCR       #_EST_setRsOnLineId_pu ; [CPU_] |650| 
         0000013d 0000 
    1722                      ; call occurs [#_EST_setRsOnLineId_pu] ; [] |650| 
    1723                      .dwpsn  file "C:/ti/motorware/motorware_1_01_00_18/sw/solutions/instaspin_foc/src/proj_lab07.c",line 
TMS320C2000 Assembler PC v6.2.5 Thu Jun 22 20:41:15 2017

Tools Copyright (c) 1996-2014 Texas Instruments Incorporated
C:\Users\wmj\AppData\Local\Temp\1712410                              PAGE   35

    1724 0000013e D018          MOVB      XAR0,#24              ; [CPU_] |651| 
    1725 0000013f 8A92          MOVL      XAR4,*+XAR2[AR0]      ; [CPU_] |651| 
    1726              $C$DW$236       .dwtag  DW_TAG_TI_branch
    1727                      .dwattr $C$DW$236, DW_AT_low_pc(0x00)
    1728                      .dwattr $C$DW$236, DW_AT_name("_EST_getRs_pu")
    1729                      .dwattr $C$DW$236, DW_AT_TI_call
    1730 00000140 7640!         LCR       #_EST_getRs_pu        ; [CPU_] |651| 
         00000141 0000 
    1731                      ; call occurs [#_EST_getRs_pu] ; [] |651| 
    1732 00000142 D018          MOVB      XAR0,#24              ; [CPU_] |651| 
    1733 00000143 8A92          MOVL      XAR4,*+XAR2[AR0]      ; [CPU_] |651| 
    1734              $C$DW$237       .dwtag  DW_TAG_TI_branch
    1735                      .dwattr $C$DW$237, DW_AT_low_pc(0x00)
    1736                      .dwattr $C$DW$237, DW_AT_name("_EST_setRsOnLine_pu")
    1737                      .dwattr $C$DW$237, DW_AT_TI_call
    1738 00000144 7640!         LCR       #_EST_setRsOnLine_pu  ; [CPU_] |651| 
         00000145 0000 
    1739                      ; call occurs [#_EST_setRsOnLine_pu] ; [] |651| 
    1740                      .dwpsn  file "C:/ti/motorware/motorware_1_01_00_18/sw/solutions/instaspin_foc/src/proj_lab07.c",line 
    1741 00000146 D018          MOVB      XAR0,#24              ; [CPU_] |652| 
    1742 00000147 9A00          MOVB      AL,#0                 ; [CPU_] |652| 
    1743 00000148 8A92          MOVL      XAR4,*+XAR2[AR0]      ; [CPU_] |652| 
    1744              $C$DW$238       .dwtag  DW_TAG_TI_branch
    1745                      .dwattr $C$DW$238, DW_AT_low_pc(0x00)
    1746                      .dwattr $C$DW$238, DW_AT_name("_EST_setFlag_enableRsOnLine")
    1747                      .dwattr $C$DW$238, DW_AT_TI_call
    1748 00000149 7640!         LCR       #_EST_setFlag_enableRsOnLine ; [CPU_] |652| 
         0000014a 0000 
    1749                      ; call occurs [#_EST_setFlag_enableRsOnLine] ; [] |652| 
    1750                      .dwpsn  file "C:/ti/motorware/motorware_1_01_00_18/sw/solutions/instaspin_foc/src/proj_lab07.c",line 
    1751 0000014b D018          MOVB      XAR0,#24              ; [CPU_] |653| 
    1752 0000014c 9A00          MOVB      AL,#0                 ; [CPU_] |653| 
    1753 0000014d 8A92          MOVL      XAR4,*+XAR2[AR0]      ; [CPU_] |653| 
    1754              $C$DW$239       .dwtag  DW_TAG_TI_branch
    1755                      .dwattr $C$DW$239, DW_AT_low_pc(0x00)
    1756                      .dwattr $C$DW$239, DW_AT_name("_EST_setFlag_updateRs")
    1757                      .dwattr $C$DW$239, DW_AT_TI_call
    1758 0000014e 7640!         LCR       #_EST_setFlag_updateRs ; [CPU_] |653| 
         0000014f 0000 
    1759                      ; call occurs [#_EST_setFlag_updateRs] ; [] |653| 
    1760                      .dwpsn  file "C:/ti/motorware/motorware_1_01_00_18/sw/solutions/instaspin_foc/src/proj_lab07.c",line 
    1761 00000150 D018          MOVB      XAR0,#24              ; [CPU_] |654| 
    1762 00000151 8A92          MOVL      XAR4,*+XAR2[AR0]      ; [CPU_] |654| 
    1763              $C$DW$240       .dwtag  DW_TAG_TI_branch
    1764                      .dwattr $C$DW$240, DW_AT_low_pc(0x00)
    1765                      .dwattr $C$DW$240, DW_AT_name("_EST_getRs_qFmt")
    1766                      .dwattr $C$DW$240, DW_AT_TI_call
    1767 00000152 7640!         LCR       #_EST_getRs_qFmt      ; [CPU_] |654| 
         00000153 0000 
    1768                      ; call occurs [#_EST_getRs_qFmt] ; [] |654| 
    1769 00000154 D018          MOVB      XAR0,#24              ; [CPU_] |654| 
    1770 00000155 8A92          MOVL      XAR4,*+XAR2[AR0]      ; [CPU_] |654| 
    1771              $C$DW$241       .dwtag  DW_TAG_TI_branch
    1772                      .dwattr $C$DW$241, DW_AT_low_pc(0x00)
    1773                      .dwattr $C$DW$241, DW_AT_name("_EST_setRsOnLine_qFmt")
TMS320C2000 Assembler PC v6.2.5 Thu Jun 22 20:41:15 2017

Tools Copyright (c) 1996-2014 Texas Instruments Incorporated
C:\Users\wmj\AppData\Local\Temp\1712410                              PAGE   36

    1774                      .dwattr $C$DW$241, DW_AT_TI_call
    1775 00000156 7640!         LCR       #_EST_setRsOnLine_qFmt ; [CPU_] |654| 
         00000157 0000 
    1776                      ; call occurs [#_EST_setRsOnLine_qFmt] ; [] |654| 
    1777 00000158       $C$L3:    
    1778 00000158 FE82          SUBB      SP,#2                 ; [CPU_U] 
    1779                      .dwcfi  cfa_offset, -6
    1780 00000159 86BE          MOVL      XAR2,*--SP            ; [CPU_] 
    1781                      .dwcfi  cfa_offset, -4
    1782                      .dwcfi  restore_reg, 9
    1783 0000015a 8BBE          MOVL      XAR1,*--SP            ; [CPU_] 
    1784                      .dwcfi  cfa_offset, -2
    1785                      .dwcfi  restore_reg, 7
    1786              $C$DW$242       .dwtag  DW_TAG_TI_branch
    1787                      .dwattr $C$DW$242, DW_AT_low_pc(0x00)
    1788                      .dwattr $C$DW$242, DW_AT_TI_return
    1789 0000015b 0006          LRETR     ; [CPU_] 
    1790                      ; return occurs ; [] 
    1791                      .dwattr $C$DW$221, DW_AT_TI_end_file("C:/ti/motorware/motorware_1_01_00_18/sw/solutions/instaspin_foc
    1792                      .dwattr $C$DW$221, DW_AT_TI_end_line(0x293)
    1793                      .dwattr $C$DW$221, DW_AT_TI_end_column(0x01)
    1794                      .dwendentry
    1795                      .dwendtag $C$DW$221
    1796              
    1797 0000015c               .sect   ".text"
    1798                      .clink
    1799              
    1800              $C$DW$243       .dwtag  DW_TAG_subprogram, DW_AT_name("TIMER_getCount")
    1801                      .dwattr $C$DW$243, DW_AT_low_pc(_TIMER_getCount)
    1802                      .dwattr $C$DW$243, DW_AT_high_pc(0x00)
    1803                      .dwattr $C$DW$243, DW_AT_TI_symbol_name("_TIMER_getCount")
    1804                      .dwattr $C$DW$243, DW_AT_type(*$C$DW$T$38)
    1805                      .dwattr $C$DW$243, DW_AT_TI_begin_file("C:/ti/motorware/motorware_1_01_00_18/sw/drivers/timer/src/32b
    1806                      .dwattr $C$DW$243, DW_AT_TI_begin_line(0xa3)
    1807                      .dwattr $C$DW$243, DW_AT_TI_begin_column(0x18)
    1808                      .dwattr $C$DW$243, DW_AT_TI_max_frame_size(-4)
    1809                      .dwpsn  file "C:/ti/motorware/motorware_1_01_00_18/sw/drivers/timer/src/32b/f28x/f2802x/timer.h",line
    1810              
    1811                      .dwfde $C$DW$CIE, _TIMER_getCount
    1812              $C$DW$244       .dwtag  DW_TAG_formal_parameter, DW_AT_name("timerHandle")
    1813                      .dwattr $C$DW$244, DW_AT_TI_symbol_name("_timerHandle")
    1814                      .dwattr $C$DW$244, DW_AT_type(*$C$DW$T$112)
    1815                      .dwattr $C$DW$244, DW_AT_location[DW_OP_reg12]
    1816              
    1817              ;***************************************************************
    1818              ;* FNAME: _TIMER_getCount               FR SIZE:   2           *
    1819              ;*                                                             *
    1820              ;* FUNCTION ENVIRONMENT                                        *
    1821              ;*                                                             *
    1822              ;* FUNCTION PROPERTIES                                         *
    1823              ;*                            0 Parameter,  2 Auto,  0 SOE     *
    1824              ;***************************************************************
    1825              
    1826              _TIMER_getCount:
    1827              ;* AR4   assigned to _timerHandle
TMS320C2000 Assembler PC v6.2.5 Thu Jun 22 20:41:15 2017

Tools Copyright (c) 1996-2014 Texas Instruments Incorporated
C:\Users\wmj\AppData\Local\Temp\1712410                              PAGE   37

    1828              $C$DW$245       .dwtag  DW_TAG_variable, DW_AT_name("timerHandle")
    1829                      .dwattr $C$DW$245, DW_AT_TI_symbol_name("_timerHandle")
    1830                      .dwattr $C$DW$245, DW_AT_type(*$C$DW$T$248)
    1831                      .dwattr $C$DW$245, DW_AT_location[DW_OP_reg12]
    1832              ;* AL    assigned to _cnt
    1833              $C$DW$246       .dwtag  DW_TAG_variable, DW_AT_name("cnt")
    1834                      .dwattr $C$DW$246, DW_AT_TI_symbol_name("_cnt")
    1835                      .dwattr $C$DW$246, DW_AT_type(*$C$DW$T$38)
    1836                      .dwattr $C$DW$246, DW_AT_location[DW_OP_reg0]
    1837              $C$DW$247       .dwtag  DW_TAG_variable, DW_AT_name("timer")
    1838                      .dwattr $C$DW$247, DW_AT_TI_symbol_name("_timer")
    1839                      .dwattr $C$DW$247, DW_AT_type(*$C$DW$T$247)
    1840                      .dwattr $C$DW$247, DW_AT_location[DW_OP_breg20 -2]
    1841                      .dwcfi  cfa_offset, -2
    1842                      .dwcfi  save_reg_to_mem, 26, 0
    1843                      .dwcfi  save_reg_to_reg, 78, 26
    1844 0000015c FE02          ADDB      SP,#2                 ; [CPU_U] 
    1845                      .dwcfi  cfa_offset, -4
    1846                      .dwpsn  file "C:/ti/motorware/motorware_1_01_00_18/sw/drivers/timer/src/32b/f28x/f2802x/timer.h",line
    1847 0000015d A842          MOVL      *-SP[2],XAR4          ; [CPU_] |165| 
    1848                      .dwpsn  file "C:/ti/motorware/motorware_1_01_00_18/sw/drivers/timer/src/32b/f28x/f2802x/timer.h",line
    1849 0000015e 06C4          MOVL      ACC,*+XAR4[0]         ; [CPU_] |169| 
    1850 0000015f FE82          SUBB      SP,#2                 ; [CPU_U] 
    1851                      .dwcfi  cfa_offset, -2
    1852              $C$DW$248       .dwtag  DW_TAG_TI_branch
    1853                      .dwattr $C$DW$248, DW_AT_low_pc(0x00)
    1854                      .dwattr $C$DW$248, DW_AT_TI_return
    1855 00000160 0006          LRETR     ; [CPU_] 
    1856                      ; return occurs ; [] 
    1857                      .dwattr $C$DW$243, DW_AT_TI_end_file("C:/ti/motorware/motorware_1_01_00_18/sw/drivers/timer/src/32b/f
    1858                      .dwattr $C$DW$243, DW_AT_TI_end_line(0xac)
    1859                      .dwattr $C$DW$243, DW_AT_TI_end_column(0x01)
    1860                      .dwendentry
    1861                      .dwendtag $C$DW$243
    1862              
    1863 00000000               .sect   "ramfuncs:retain"
    1864                      .retain
    1865                      .retainrefs
    1866                      .global _mainISR
    1867              
    1868              $C$DW$249       .dwtag  DW_TAG_subprogram, DW_AT_name("mainISR")
    1869                      .dwattr $C$DW$249, DW_AT_low_pc(_mainISR)
    1870                      .dwattr $C$DW$249, DW_AT_high_pc(0x00)
    1871                      .dwattr $C$DW$249, DW_AT_TI_symbol_name("_mainISR")
    1872                      .dwattr $C$DW$249, DW_AT_external
    1873                      .dwattr $C$DW$249, DW_AT_TI_begin_file("C:/ti/motorware/motorware_1_01_00_18/sw/solutions/instaspin_f
    1874                      .dwattr $C$DW$249, DW_AT_TI_begin_line(0x1f5)
    1875                      .dwattr $C$DW$249, DW_AT_TI_begin_column(0x10)
    1876                      .dwattr $C$DW$249, DW_AT_TI_interrupt
    1877                      .dwattr $C$DW$249, DW_AT_TI_max_frame_size(-26)
    1878                      .dwpsn  file "C:/ti/motorware/motorware_1_01_00_18/sw/solutions/instaspin_foc/src/proj_lab07.c",line 
    1879              
    1880                      .dwfde $C$DW$CIE, _mainISR
    1881              
    1882              ;***************************************************************
TMS320C2000 Assembler PC v6.2.5 Thu Jun 22 20:41:15 2017

Tools Copyright (c) 1996-2014 Texas Instruments Incorporated
C:\Users\wmj\AppData\Local\Temp\1712410                              PAGE   38

    1883              ;* FNAME: _mainISR                      FR SIZE:  24           *
    1884              ;*                                                             *
    1885              ;* FUNCTION ENVIRONMENT                                        *
    1886              ;*                                                             *
    1887              ;* FUNCTION PROPERTIES                                         *
    1888              ;*                            4 Parameter,  4 Auto, 16 SOE     *
    1889              ;***************************************************************
    1890              
    1891              _mainISR:
    1892              ;* AR5   assigned to $O$C1
    1893              ;* AR4   assigned to $O$C2
    1894              ;* AR0   assigned to $O$C3
    1895              ;* AR1   assigned to $O$C4
    1896              ;* AR7   assigned to $O$C5
    1897              ;* AR6   assigned to $O$C6
    1898              ;* AR4   assigned to $O$C7
    1899              ;* AR7   assigned to $O$C8
    1900              ;* AR6   assigned to $O$C9
    1901              ;* AR6   assigned to $O$C10
    1902              ;* AR4   assigned to $O$v3
    1903              ;* AR4   assigned to $O$v2
    1904              ;* AR5   assigned to $O$v1
    1905              $C$DW$250       .dwtag  DW_TAG_variable, DW_AT_name("cnt_z1")
    1906                      .dwattr $C$DW$250, DW_AT_TI_symbol_name("_cnt_z1")
    1907                      .dwattr $C$DW$250, DW_AT_type(*$C$DW$T$38)
    1908                      .dwattr $C$DW$250, DW_AT_location[DW_OP_breg20 -6]
    1909              ;* AR1   assigned to _cnt_z0
    1910              $C$DW$251       .dwtag  DW_TAG_variable, DW_AT_name("cnt_z0")
    1911                      .dwattr $C$DW$251, DW_AT_TI_symbol_name("_cnt_z0")
    1912                      .dwattr $C$DW$251, DW_AT_type(*$C$DW$T$38)
    1913                      .dwattr $C$DW$251, DW_AT_location[DW_OP_reg6]
    1914              ;* XT    assigned to _value
    1915              $C$DW$252       .dwtag  DW_TAG_variable, DW_AT_name("value")
    1916                      .dwattr $C$DW$252, DW_AT_TI_symbol_name("_value")
    1917                      .dwattr $C$DW$252, DW_AT_type(*$C$DW$T$32)
    1918                      .dwattr $C$DW$252, DW_AT_location[DW_OP_reg21]
    1919              ;* XT    assigned to _value
    1920              $C$DW$253       .dwtag  DW_TAG_variable, DW_AT_name("value")
    1921                      .dwattr $C$DW$253, DW_AT_TI_symbol_name("_value")
    1922                      .dwattr $C$DW$253, DW_AT_type(*$C$DW$T$32)
    1923                      .dwattr $C$DW$253, DW_AT_location[DW_OP_reg21]
    1924              ;* XT    assigned to _value
    1925              $C$DW$254       .dwtag  DW_TAG_variable, DW_AT_name("value")
    1926                      .dwattr $C$DW$254, DW_AT_TI_symbol_name("_value")
    1927                      .dwattr $C$DW$254, DW_AT_type(*$C$DW$T$32)
    1928                      .dwattr $C$DW$254, DW_AT_location[DW_OP_reg21]
    1929              ;* XT    assigned to _value
    1930              $C$DW$255       .dwtag  DW_TAG_variable, DW_AT_name("value")
    1931                      .dwattr $C$DW$255, DW_AT_TI_symbol_name("_value")
    1932                      .dwattr $C$DW$255, DW_AT_type(*$C$DW$T$32)
    1933                      .dwattr $C$DW$255, DW_AT_location[DW_OP_reg21]
    1934              ;* XT    assigned to _value
    1935              $C$DW$256       .dwtag  DW_TAG_variable, DW_AT_name("value")
    1936                      .dwattr $C$DW$256, DW_AT_TI_symbol_name("_value")
    1937                      .dwattr $C$DW$256, DW_AT_type(*$C$DW$T$32)
TMS320C2000 Assembler PC v6.2.5 Thu Jun 22 20:41:15 2017

Tools Copyright (c) 1996-2014 Texas Instruments Incorporated
C:\Users\wmj\AppData\Local\Temp\1712410                              PAGE   39

    1938                      .dwattr $C$DW$256, DW_AT_location[DW_OP_reg21]
    1939              ;* XT    assigned to _value
    1940              $C$DW$257       .dwtag  DW_TAG_variable, DW_AT_name("value")
    1941                      .dwattr $C$DW$257, DW_AT_TI_symbol_name("_value")
    1942                      .dwattr $C$DW$257, DW_AT_type(*$C$DW$T$32)
    1943                      .dwattr $C$DW$257, DW_AT_location[DW_OP_reg21]
    1944              ;* XT    assigned to _value
    1945              $C$DW$258       .dwtag  DW_TAG_variable, DW_AT_name("value")
    1946                      .dwattr $C$DW$258, DW_AT_TI_symbol_name("_value")
    1947                      .dwattr $C$DW$258, DW_AT_type(*$C$DW$T$32)
    1948                      .dwattr $C$DW$258, DW_AT_location[DW_OP_reg21]
    1949              ;* AR0   assigned to _deltaCnt
    1950              $C$DW$259       .dwtag  DW_TAG_variable, DW_AT_name("deltaCnt")
    1951                      .dwattr $C$DW$259, DW_AT_TI_symbol_name("_deltaCnt")
    1952                      .dwattr $C$DW$259, DW_AT_type(*$C$DW$T$38)
    1953                      .dwattr $C$DW$259, DW_AT_location[DW_OP_reg4]
    1954              ;* AR6   assigned to _flag_resetStats
    1955              $C$DW$260       .dwtag  DW_TAG_variable, DW_AT_name("flag_resetStats")
    1956                      .dwattr $C$DW$260, DW_AT_TI_symbol_name("_flag_resetStats")
    1957                      .dwattr $C$DW$260, DW_AT_type(*$C$DW$T$39)
    1958                      .dwattr $C$DW$260, DW_AT_location[DW_OP_reg16]
    1959              $C$DW$261       .dwtag  DW_TAG_variable, DW_AT_name("deltaCntAccNumMax")
    1960                      .dwattr $C$DW$261, DW_AT_TI_symbol_name("_deltaCntAccNumMax")
    1961                      .dwattr $C$DW$261, DW_AT_type(*$C$DW$T$38)
    1962                      .dwattr $C$DW$261, DW_AT_location[DW_OP_breg20 -8]
    1963              ;* AR5   assigned to _deltaCntAccNum
    1964              $C$DW$262       .dwtag  DW_TAG_variable, DW_AT_name("deltaCntAccNum")
    1965                      .dwattr $C$DW$262, DW_AT_TI_symbol_name("_deltaCntAccNum")
    1966                      .dwattr $C$DW$262, DW_AT_type(*$C$DW$T$38)
    1967                      .dwattr $C$DW$262, DW_AT_location[DW_OP_reg14]
    1968              ;* PL    assigned to _deltaCntAcc
    1969              $C$DW$263       .dwtag  DW_TAG_variable, DW_AT_name("deltaCntAcc")
    1970                      .dwattr $C$DW$263, DW_AT_TI_symbol_name("_deltaCntAcc")
    1971                      .dwattr $C$DW$263, DW_AT_type(*$C$DW$T$38)
    1972                      .dwattr $C$DW$263, DW_AT_location[DW_OP_reg2]
    1973              ;* AR2   assigned to _maxDeltaCntObserved
    1974              $C$DW$264       .dwtag  DW_TAG_variable, DW_AT_name("maxDeltaCntObserved")
    1975                      .dwattr $C$DW$264, DW_AT_TI_symbol_name("_maxDeltaCntObserved")
    1976                      .dwattr $C$DW$264, DW_AT_type(*$C$DW$T$38)
    1977                      .dwattr $C$DW$264, DW_AT_location[DW_OP_reg8]
    1978              ;* XT    assigned to _avgDeltaCntObserved
    1979              $C$DW$265       .dwtag  DW_TAG_variable, DW_AT_name("avgDeltaCntObserved")
    1980                      .dwattr $C$DW$265, DW_AT_TI_symbol_name("_avgDeltaCntObserved")
    1981                      .dwattr $C$DW$265, DW_AT_type(*$C$DW$T$38)
    1982                      .dwattr $C$DW$265, DW_AT_location[DW_OP_reg21]
    1983              ;* AR7   assigned to _minDeltaCntObserved
    1984              $C$DW$266       .dwtag  DW_TAG_variable, DW_AT_name("minDeltaCntObserved")
    1985                      .dwattr $C$DW$266, DW_AT_TI_symbol_name("_minDeltaCntObserved")
    1986                      .dwattr $C$DW$266, DW_AT_type(*$C$DW$T$38)
    1987                      .dwattr $C$DW$266, DW_AT_location[DW_OP_reg18]
    1988              ;* AR3   assigned to _timerPeriod
    1989              $C$DW$267       .dwtag  DW_TAG_variable, DW_AT_name("timerPeriod")
    1990                      .dwattr $C$DW$267, DW_AT_TI_symbol_name("_timerPeriod")
    1991                      .dwattr $C$DW$267, DW_AT_type(*$C$DW$T$38)
    1992                      .dwattr $C$DW$267, DW_AT_location[DW_OP_reg10]
TMS320C2000 Assembler PC v6.2.5 Thu Jun 22 20:41:15 2017

Tools Copyright (c) 1996-2014 Texas Instruments Incorporated
C:\Users\wmj\AppData\Local\Temp\1712410                              PAGE   40

    1993              ;* AR4   assigned to _handle
    1994              $C$DW$268       .dwtag  DW_TAG_variable, DW_AT_name("handle")
    1995                      .dwattr $C$DW$268, DW_AT_TI_symbol_name("_handle")
    1996                      .dwattr $C$DW$268, DW_AT_type(*$C$DW$T$199)
    1997                      .dwattr $C$DW$268, DW_AT_location[DW_OP_reg12]
    1998              ;* AR4   assigned to _handle
    1999              $C$DW$269       .dwtag  DW_TAG_variable, DW_AT_name("handle")
    2000                      .dwattr $C$DW$269, DW_AT_TI_symbol_name("_handle")
    2001                      .dwattr $C$DW$269, DW_AT_type(*$C$DW$T$199)
    2002                      .dwattr $C$DW$269, DW_AT_location[DW_OP_reg12]
    2003              ;* AL    assigned to _timerCnt
    2004              $C$DW$270       .dwtag  DW_TAG_variable, DW_AT_name("timerCnt")
    2005                      .dwattr $C$DW$270, DW_AT_TI_symbol_name("_timerCnt")
    2006                      .dwattr $C$DW$270, DW_AT_type(*$C$DW$T$38)
    2007                      .dwattr $C$DW$270, DW_AT_location[DW_OP_reg0]
    2008              ;* AR0   assigned to _period
    2009              $C$DW$271       .dwtag  DW_TAG_variable, DW_AT_name("period")
    2010                      .dwattr $C$DW$271, DW_AT_TI_symbol_name("_period")
    2011                      .dwattr $C$DW$271, DW_AT_type(*$C$DW$T$32)
    2012                      .dwattr $C$DW$271, DW_AT_location[DW_OP_reg4]
    2013              ;* AR6   assigned to _deltaCnt
    2014              $C$DW$272       .dwtag  DW_TAG_variable, DW_AT_name("deltaCnt")
    2015                      .dwattr $C$DW$272, DW_AT_TI_symbol_name("_deltaCnt")
    2016                      .dwattr $C$DW$272, DW_AT_type(*$C$DW$T$38)
    2017                      .dwattr $C$DW$272, DW_AT_location[DW_OP_reg16]
    2018              ;* AR0   assigned to _cnt_z1
    2019              $C$DW$273       .dwtag  DW_TAG_variable, DW_AT_name("cnt_z1")
    2020                      .dwattr $C$DW$273, DW_AT_TI_symbol_name("_cnt_z1")
    2021                      .dwattr $C$DW$273, DW_AT_type(*$C$DW$T$38)
    2022                      .dwattr $C$DW$273, DW_AT_location[DW_OP_reg4]
    2023              ;* AR2   assigned to _cnt_z0
    2024              $C$DW$274       .dwtag  DW_TAG_variable, DW_AT_name("cnt_z0")
    2025                      .dwattr $C$DW$274, DW_AT_TI_symbol_name("_cnt_z0")
    2026                      .dwattr $C$DW$274, DW_AT_type(*$C$DW$T$38)
    2027                      .dwattr $C$DW$274, DW_AT_location[DW_OP_reg8]
    2028              ;* XT    assigned to _minDeltaCnt
    2029              $C$DW$275       .dwtag  DW_TAG_variable, DW_AT_name("minDeltaCnt")
    2030                      .dwattr $C$DW$275, DW_AT_TI_symbol_name("_minDeltaCnt")
    2031                      .dwattr $C$DW$275, DW_AT_type(*$C$DW$T$38)
    2032                      .dwattr $C$DW$275, DW_AT_location[DW_OP_reg21]
    2033              ;* PL    assigned to _maxDeltaCntObserved
    2034              $C$DW$276       .dwtag  DW_TAG_variable, DW_AT_name("maxDeltaCntObserved")
    2035                      .dwattr $C$DW$276, DW_AT_TI_symbol_name("_maxDeltaCntObserved")
    2036                      .dwattr $C$DW$276, DW_AT_type(*$C$DW$T$38)
    2037                      .dwattr $C$DW$276, DW_AT_location[DW_OP_reg2]
    2038              ;* AR7   assigned to _maxDeltaCnt
    2039              $C$DW$277       .dwtag  DW_TAG_variable, DW_AT_name("maxDeltaCnt")
    2040                      .dwattr $C$DW$277, DW_AT_TI_symbol_name("_maxDeltaCnt")
    2041                      .dwattr $C$DW$277, DW_AT_type(*$C$DW$T$38)
    2042                      .dwattr $C$DW$277, DW_AT_location[DW_OP_reg18]
    2043              ;* AR6   assigned to _timerPeriod
    2044              $C$DW$278       .dwtag  DW_TAG_variable, DW_AT_name("timerPeriod")
    2045                      .dwattr $C$DW$278, DW_AT_TI_symbol_name("_timerPeriod")
    2046                      .dwattr $C$DW$278, DW_AT_type(*$C$DW$T$38)
    2047                      .dwattr $C$DW$278, DW_AT_location[DW_OP_reg16]
TMS320C2000 Assembler PC v6.2.5 Thu Jun 22 20:41:15 2017

Tools Copyright (c) 1996-2014 Texas Instruments Incorporated
C:\Users\wmj\AppData\Local\Temp\1712410                              PAGE   41

    2048              ;* AR4   assigned to _handle
    2049              $C$DW$279       .dwtag  DW_TAG_variable, DW_AT_name("handle")
    2050                      .dwattr $C$DW$279, DW_AT_TI_symbol_name("_handle")
    2051                      .dwattr $C$DW$279, DW_AT_type(*$C$DW$T$218)
    2052                      .dwattr $C$DW$279, DW_AT_location[DW_OP_reg12]
    2053              ;* AR4   assigned to _handle
    2054              $C$DW$280       .dwtag  DW_TAG_variable, DW_AT_name("handle")
    2055                      .dwattr $C$DW$280, DW_AT_TI_symbol_name("_handle")
    2056                      .dwattr $C$DW$280, DW_AT_type(*$C$DW$T$218)
    2057                      .dwattr $C$DW$280, DW_AT_location[DW_OP_reg12]
    2058              ;* AL    assigned to _timerCnt
    2059              $C$DW$281       .dwtag  DW_TAG_variable, DW_AT_name("timerCnt")
    2060                      .dwattr $C$DW$281, DW_AT_TI_symbol_name("_timerCnt")
    2061                      .dwattr $C$DW$281, DW_AT_type(*$C$DW$T$38)
    2062                      .dwattr $C$DW$281, DW_AT_location[DW_OP_reg0]
    2063              ;* AR4   assigned to _handle
    2064              $C$DW$282       .dwtag  DW_TAG_variable, DW_AT_name("handle")
    2065                      .dwattr $C$DW$282, DW_AT_TI_symbol_name("_handle")
    2066                      .dwattr $C$DW$282, DW_AT_type(*$C$DW$T$199)
    2067                      .dwattr $C$DW$282, DW_AT_location[DW_OP_reg12]
    2068              ;* AL    assigned to _timerCnt
    2069              $C$DW$283       .dwtag  DW_TAG_variable, DW_AT_name("timerCnt")
    2070                      .dwattr $C$DW$283, DW_AT_TI_symbol_name("_timerCnt")
    2071                      .dwattr $C$DW$283, DW_AT_type(*$C$DW$T$38)
    2072                      .dwattr $C$DW$283, DW_AT_location[DW_OP_reg0]
    2073              ;* AR6   assigned to $O$L1
    2074              ;* AR4   assigned to $O$U149
    2075              ;* AR7   assigned to $O$U164
    2076              ;* AR4   assigned to $O$U150
    2077                      .dwcfi  cfa_offset, -2
    2078                      .dwcfi  save_reg_to_mem, 26, 0
    2079                      .dwcfi  save_reg_to_reg, 78, 26
    2080 00000000 761B          ASP       ; [CPU_] 
    2081 00000001 0005          PUSH      AR1H:AR0H             ; [CPU_] 
    2082                      .dwcfi  save_reg_to_mem, 5, 2
    2083                      .dwcfi  save_reg_to_mem, 7, 3
    2084                      .dwcfi  cfa_offset, -4
    2085 00000002 ABBD          MOVL      *SP++,XT              ; [CPU_] 
    2086                      .dwcfi  save_reg_to_mem, 21, 4
    2087                      .dwcfi  save_reg_to_mem, 22, 5
    2088                      .dwcfi  cfa_offset, -6
    2089 00000003 AABD          MOVL      *SP++,XAR2            ; [CPU_] 
    2090                      .dwcfi  save_reg_to_mem, 8, 6
    2091                      .dwcfi  save_reg_to_mem, 9, 7
    2092                      .dwcfi  cfa_offset, -8
    2093 00000004 A2BD          MOVL      *SP++,XAR3            ; [CPU_] 
    2094                      .dwcfi  save_reg_to_mem, 10, 8
    2095                      .dwcfi  save_reg_to_mem, 11, 9
    2096                      .dwcfi  cfa_offset, -10
    2097 00000005 A8BD          MOVL      *SP++,XAR4            ; [CPU_] 
    2098                      .dwcfi  save_reg_to_mem, 12, 10
    2099                      .dwcfi  save_reg_to_mem, 13, 11
    2100                      .dwcfi  cfa_offset, -12
    2101 00000006 A0BD          MOVL      *SP++,XAR5            ; [CPU_] 
    2102                      .dwcfi  save_reg_to_mem, 14, 12
TMS320C2000 Assembler PC v6.2.5 Thu Jun 22 20:41:15 2017

Tools Copyright (c) 1996-2014 Texas Instruments Incorporated
C:\Users\wmj\AppData\Local\Temp\1712410                              PAGE   42

    2103                      .dwcfi  save_reg_to_mem, 15, 13
    2104                      .dwcfi  cfa_offset, -14
    2105 00000007 C2BD          MOVL      *SP++,XAR6            ; [CPU_] 
    2106                      .dwcfi  save_reg_to_mem, 16, 14
    2107                      .dwcfi  save_reg_to_mem, 17, 15
    2108                      .dwcfi  cfa_offset, -16
    2109 00000008 C3BD          MOVL      *SP++,XAR7            ; [CPU_] 
    2110                      .dwcfi  save_reg_to_mem, 18, 16
    2111                      .dwcfi  save_reg_to_mem, 19, 17
    2112                      .dwcfi  cfa_offset, -18
    2113 00000009 FE08          ADDB      SP,#8                 ; [CPU_U] 
    2114                      .dwcfi  cfa_offset, -26
    2115 0000000a FF69          SPM       0                     ; [CPU_] 
    2116 0000000b 2942          CLRC      PAGE0,OVM             ; [CPU_] 
    2117 0000000c 5616          CLRC      AMODE                 ; [CPU_] 
    2118 0000000d 761F-         MOVW      DP,#_halHandle        ; [CPU_U] 
         0000000e 0000 
    2119                      .dwpsn  file "C:/ti/motorware/motorware_1_01_00_18/sw/solutions/instaspin_foc/src/proj_lab07.c",line 
    2120 0000000f 8310-         MOVL      XAR5,@_halHandle      ; [CPU_] |508| 
    2121                      .dwpsn  file "C:/ti/motorware/motorware_1_01_00_18/sw/modules/hal/boards/hvkit_rev1p1/f28x/f2802x/src
    2122 00000010 028A          MOVB      ACC,#138              ; [CPU_] |600| 
    2123 00000011 07A5          ADDL      ACC,XAR5              ; [CPU_] |600| 
    2124 00000012 1EA6          MOVL      XAR6,ACC              ; [CPU_] |600| 
    2125 00000013 8AD6          MOVL      XAR4,*+XAR6[2]        ; [CPU_] |600| 
    2126              $C$DW$284       .dwtag  DW_TAG_TI_branch
    2127                      .dwattr $C$DW$284, DW_AT_low_pc(0x00)
    2128                      .dwattr $C$DW$284, DW_AT_name("_TIMER_getCount")
    2129                      .dwattr $C$DW$284, DW_AT_TI_call
    2130 00000014 7640'         LCR       #_TIMER_getCount      ; [CPU_] |600| 
         00000015 015C 
    2131                      ; call occurs [#_TIMER_getCount] ; [] |600| 
    2132                      .dwpsn  file "C:/ti/motorware/motorware_1_01_00_18/sw/solutions/instaspin_foc/src/proj_lab07.c",line 
    2133 00000016 8A1E-         MOVL      XAR4,@_cpu_usageHandle ; [CPU_] |509| 
    2134                      .dwpsn  file "C:/ti/motorware/motorware_1_01_00_18/sw/modules/cpu_usage/src/32b/cpu_usage.h",line 233
    2135 00000017 C5D4          MOVL      XAR7,*+XAR4[2]        ; [CPU_] |233| 
    2136 00000018 C3E4          MOVL      *+XAR4[4],XAR7        ; [CPU_] |233| 
    2137                      .dwpsn  file "C:/ti/motorware/motorware_1_01_00_18/sw/modules/cpu_usage/src/32b/cpu_usage.h",line 220
    2138 00000019 1ED4          MOVL      *+XAR4[2],ACC         ; [CPU_] |220| 
    2139                      .dwpsn  file "C:/ti/motorware/motorware_1_01_00_18/sw/modules/hal/boards/hvkit_rev1p1/f28x/f2802x/src
    2140 0000001a 8AC6          MOVL      XAR4,*+XAR6[0]        ; [CPU_] |600| 
    2141              $C$DW$285       .dwtag  DW_TAG_TI_branch
    2142                      .dwattr $C$DW$285, DW_AT_low_pc(0x00)
    2143                      .dwattr $C$DW$285, DW_AT_name("_TIMER_getCount")
    2144                      .dwattr $C$DW$285, DW_AT_TI_call
    2145 0000001b 7640'         LCR       #_TIMER_getCount      ; [CPU_] |600| 
         0000001c 015C 
    2146                      ; call occurs [#_TIMER_getCount] ; [] |600| 
    2147                      .dwpsn  file "C:/ti/motorware/motorware_1_01_00_18/sw/solutions/instaspin_foc/src/proj_lab07.c",line 
    2148 0000001d 8A0E-         MOVL      XAR4,@_femHandle      ; [CPU_] |514| 
    2149                      .dwpsn  file "C:/ti/motorware/motorware_1_01_00_18/sw/modules/fem/src/32b/fem.h",line 208,column 3,is
    2150 0000001e C4D4          MOVL      XAR6,*+XAR4[2]        ; [CPU_] |208| 
    2151                      .dwpsn  file "C:/ti/motorware/motorware_1_01_00_18/sw/modules/fem/src/32b/fem.h",line 133,column 3,is
    2152 0000001f D008          MOVB      XAR0,#8               ; [CPU_] |133| 
    2153                      .dwpsn  file "C:/ti/motorware/motorware_1_01_00_18/sw/modules/fem/src/32b/fem.h",line 208,column 3,is
    2154 00000020 C2E4          MOVL      *+XAR4[4],XAR6        ; [CPU_] |208| 
TMS320C2000 Assembler PC v6.2.5 Thu Jun 22 20:41:15 2017

Tools Copyright (c) 1996-2014 Texas Instruments Incorporated
C:\Users\wmj\AppData\Local\Temp\1712410                              PAGE   43

    2155                      .dwpsn  file "C:/ti/motorware/motorware_1_01_00_18/sw/modules/fem/src/32b/fem.h",line 195,column 3,is
    2156 00000021 1ED4          MOVL      *+XAR4[2],ACC         ; [CPU_] |195| 
    2157                      .dwpsn  file "C:/ti/motorware/motorware_1_01_00_18/sw/modules/fem/src/32b/fem.h",line 133,column 3,is
    2158 00000022 C594          MOVL      XAR7,*+XAR4[AR0]      ; [CPU_] |133| 
    2159                      .dwpsn  file "C:/ti/motorware/motorware_1_01_00_18/sw/modules/fem/src/32b/fem.h",line 144,column 3,is
    2160 00000023 D00C          MOVB      XAR0,#12              ; [CPU_] |144| 
    2161 00000024 A394          MOVL      P,*+XAR4[AR0]         ; [CPU_] |144| 
    2162                      .dwpsn  file "C:/ti/motorware/motorware_1_01_00_18/sw/modules/fem/src/32b/fem.h",line 155,column 3,is
    2163 00000025 D00A          MOVB      XAR0,#10              ; [CPU_] |155| 
    2164 00000026 8794          MOVL      XT,*+XAR4[AR0]        ; [CPU_] |155| 
    2165                      .dwpsn  file "C:/ti/motorware/motorware_1_01_00_18/sw/modules/fem/src/32b/fem.h",line 89,column 3,is_
    2166 00000027 8EE4          MOVL      XAR0,*+XAR4[4]        ; [CPU_] |89| 
    2167                      .dwpsn  file "C:/ti/motorware/motorware_1_01_00_18/sw/modules/fem/src/32b/fem.h",line 166,column 3,is
    2168 00000028 C4C4          MOVL      XAR6,*+XAR4[0]        ; [CPU_] |166| 
    2169                      .dwpsn  file "C:/ti/motorware/motorware_1_01_00_18/sw/modules/fem/src/32b/fem.h",line 78,column 3,is_
    2170 00000029 86D4          MOVL      XAR2,*+XAR4[2]        ; [CPU_] |78| 
    2171                      .dwpsn  file "C:/ti/motorware/motorware_1_01_00_18/sw/modules/fem/src/32b/fem.h",line 89,column 3,is_
    2172 0000002a 3AA9          MOVL      ACC,XAR0              ; [CPU_] |89| 
    2173                      .dwpsn  file "C:/ti/motorware/motorware_1_01_00_18/sw/modules/fem/src/32b/fem.h",line 351,column 7,is
    2174 0000002b 0FA2          CMPL      ACC,XAR2              ; [CPU_] |351| 
    2175 0000002c 6703          B         $C$L4,HIS             ; [CPU_] |351| 
    2176                      ; branchcc occurs ; [] |351| 
    2177 0000002d 06A6          MOVL      ACC,XAR6              ; [CPU_] |351| 
    2178 0000002e 07A0          ADDL      ACC,XAR0              ; [CPU_] |351| 
    2179 0000002f       $C$L4:    
    2180 0000002f 03A2          SUBL      ACC,XAR2              ; [CPU_] |351| 
    2181 00000030 0901          ADDB      ACC,#1                ; [CPU_] |351| 
    2182 00000031 1EA6          MOVL      XAR6,ACC              ; [CPU_] |351| 
    2183                      .dwpsn  file "C:/ti/motorware/motorware_1_01_00_18/sw/modules/fem/src/32b/fem.h",line 221,column 3,is
    2184 00000032 C2F4          MOVL      *+XAR4[6],XAR6        ; [CPU_] |221| 
    2185 00000033 A9A9          MOVL      ACC,P                 ; [CPU_] |221| 
    2186                      .dwpsn  file "C:/ti/motorware/motorware_1_01_00_18/sw/modules/fem/src/32b/fem.h",line 364,column 3,is
    2187 00000034 0FA6          CMPL      ACC,XAR6              ; [CPU_] |364| 
    2188 00000035 6703          B         $C$L5,HIS             ; [CPU_] |364| 
    2189                      ; branchcc occurs ; [] |364| 
    2190                      .dwpsn  file "C:/ti/motorware/motorware_1_01_00_18/sw/modules/fem/src/32b/fem.h",line 273,column 3,is
    2191 00000036 D00C          MOVB      XAR0,#12              ; [CPU_] |273| 
    2192 00000037 C294          MOVL      *+XAR4[AR0],XAR6      ; [CPU_] |273| 
    2193 00000038       $C$L5:    
    2194 00000038 ABA9          MOVL      ACC,XT                ; [CPU_] 
    2195                      .dwpsn  file "C:/ti/motorware/motorware_1_01_00_18/sw/modules/fem/src/32b/fem.h",line 372,column 3,is
    2196 00000039 0FA6          CMPL      ACC,XAR6              ; [CPU_] |372| 
    2197 0000003a 6607          B         $C$L6,HI              ; [CPU_] |372| 
    2198                      ; branchcc occurs ; [] |372| 
    2199 0000003b 06A7          MOVL      ACC,XAR7              ; [CPU_] 
    2200 0000003c 0FA6          CMPL      ACC,XAR6              ; [CPU_] |372| 
    2201 0000003d 6804          B         $C$L6,LO              ; [CPU_] |372| 
    2202                      ; branchcc occurs ; [] |372| 
    2203                      .dwpsn  file "C:/ti/motorware/motorware_1_01_00_18/sw/modules/fem/src/32b/fem.h",line 247,column 3,is
    2204 0000003e D010          MOVB      XAR0,#16              ; [CPU_] |247| 
    2205 0000003f 2B94          MOV       *+XAR4[AR0],#0        ; [CPU_] |247| 
    2206                      .dwpsn  file "C:/ti/motorware/motorware_1_01_00_18/sw/modules/fem/src/32b/fem.h",line 249,column 3,is
    2207 00000040 6F08          B         $C$L7,UNC             ; [CPU_] |249| 
    2208                      ; branch occurs ; [] |249| 
    2209 00000041       $C$L6:    
TMS320C2000 Assembler PC v6.2.5 Thu Jun 22 20:41:15 2017

Tools Copyright (c) 1996-2014 Texas Instruments Incorporated
C:\Users\wmj\AppData\Local\Temp\1712410                              PAGE   44

    2210                      .dwpsn  file "C:/ti/motorware/motorware_1_01_00_18/sw/modules/fem/src/32b/fem.h",line 247,column 3,is
    2211 00000041 D010          MOVB      XAR0,#16              ; [CPU_] |247| 
    2212 00000042 56BF          MOVB      *+XAR4[AR0],#1,UNC    ; [CPU_] |247| 
         00000043 0194 
    2213                      .dwpsn  file "C:/ti/motorware/motorware_1_01_00_18/sw/modules/fem/src/32b/fem.h",line 234,column 3,is
    2214 00000044 0201          MOVB      ACC,#1                ; [CPU_] |234| 
    2215 00000045 DC0E          ADDB      XAR4,#14              ; [CPU_] |234| 
    2216 00000046 5601          ADDL      *+XAR4[0],ACC         ; [CPU_] |234| 
         00000047 00C4 
    2217 00000048       $C$L7:    
    2218                      .dwpsn  file "C:/ti/motorware/motorware_1_01_00_18/sw/solutions/instaspin_foc/src/proj_lab07.c",line 
    2219 00000048 0A00-         INC       @_gLEDcnt             ; [CPU_] |519| 
    2220 00000049 1B00-         CMP       @_gLEDcnt,#3000       ; [CPU_] |519| 
         0000004a 0BB8 
    2221 0000004b 680A          B         $C$L8,LO              ; [CPU_] |519| 
    2222                      ; branchcc occurs ; [] |519| 
    2223                      .dwpsn  file "C:/ti/motorware/motorware_1_01_00_18/sw/modules/hal/boards/hvkit_rev1p1/f28x/f2802x/src
    2224 0000004c D008          MOVB      XAR0,#8               ; [CPU_] |759| 
    2225 0000004d 9A22          MOVB      AL,#34                ; [CPU_] |759| 
    2226 0000004e 8A95          MOVL      XAR4,*+XAR5[AR0]      ; [CPU_] |759| 
    2227              $C$DW$286       .dwtag  DW_TAG_TI_branch
    2228                      .dwattr $C$DW$286, DW_AT_low_pc(0x00)
    2229                      .dwattr $C$DW$286, DW_AT_name("_GPIO_toggle")
    2230                      .dwattr $C$DW$286, DW_AT_TI_call
    2231 0000004f 7640!         LCR       #_GPIO_toggle         ; [CPU_] |759| 
         00000050 0000 
    2232                      ; call occurs [#_GPIO_toggle] ; [] |759| 
    2233 00000051 761F-         MOVW      DP,#_gLEDcnt          ; [CPU_U] 
         00000052 0000 
    2234                      .dwpsn  file "C:/ti/motorware/motorware_1_01_00_18/sw/solutions/instaspin_foc/src/proj_lab07.c",line 
    2235 00000053 8310-         MOVL      XAR5,@_halHandle      ; [CPU_] |522| 
    2236 00000054 2B00-         MOV       @_gLEDcnt,#0          ; [CPU_] |522| 
    2237 00000055       $C$L8:    
    2238                      .dwpsn  file "C:/ti/motorware/motorware_1_01_00_18/sw/drivers/adc/src/32b/f28x/f2802x/adc.h",line 571
    2239 00000055 8AC5          MOVL      XAR4,*+XAR5[0]        ; [CPU_] |571| 
    2240 00000056 8D00          MOVL      XAR0,#26117           ; [CPU_] |571| 
         00000057 6605 
    2241 00000058 56BF          MOVB      *+XAR4[AR0],#1,UNC    ; [CPU_] |571| 
         00000059 0194 
    2242                      .dwpsn  file "C:/ti/motorware/motorware_1_01_00_18/sw/drivers/pie/src/32b/f28x/f2802x/pie.h",line 757
    2243 0000005a D078          MOVB      XAR0,#120             ; [CPU_] |757| 
    2244 0000005b 8A95          MOVL      XAR4,*+XAR5[AR0]      ; [CPU_] |757| 
    2245 0000005c 28CC          MOV       *+XAR4[1],#512        ; [CPU_] |757| 
         0000005d 0200 
    2246                      .dwpsn  file "C:/ti/motorware/motorware_1_01_00_18/sw/drivers/adc/src/32b/f28x/f2802x/adc.h",line 684
    2247 0000005e 8BC5          MOVL      XAR1,*+XAR5[0]        ; [CPU_] |684| 
    2248                      .dwpsn  file "C:/ti/motorware/motorware_1_01_00_18/sw/modules/hal/boards/hvkit_rev1p1/f28x/f2802x/src
    2249 0000005f D0A2          MOVB      XAR0,#162             ; [CPU_] |500| 
    2250 00000060 C595          MOVL      XAR7,*+XAR5[AR0]      ; [CPU_] |500| 
    2251                      .dwpsn  file "C:/ti/motorware/motorware_1_01_00_18/sw/drivers/adc/src/32b/f28x/f2802x/adc.h",line 684
    2252 00000061 0EC9          MOVU      ACC,*+XAR1[1]         ; [CPU_] |684| 
    2253                      .dwpsn  file "C:/ti/motorware/motorware_1_01_00_18/sw/modules/hal/boards/hvkit_rev1p1/f28x/f2802x/src
    2254 00000062 8F00-         MOVL      XAR4,#_gAdcData       ; [CPU_U] |501| 
         00000063 0026 
    2255                      .dwpsn  file "C:/ti/motorware/motorware_1_01_00_18/sw/drivers/adc/src/32b/f28x/f2802x/adc.h",line 684
TMS320C2000 Assembler PC v6.2.5 Thu Jun 22 20:41:15 2017

Tools Copyright (c) 1996-2014 Texas Instruments Incorporated
C:\Users\wmj\AppData\Local\Temp\1712410                              PAGE   45

    2256 00000064 1EAC          MOVL      XT,ACC                ; [CPU_] |684| 
    2257                      .dwpsn  file "C:/ti/motorware/motorware_1_01_00_18/sw/modules/hal/boards/hvkit_rev1p1/f28x/f2802x/src
    2258 00000065 0294          MOVB      ACC,#148              ; [CPU_] |500| 
    2259 00000066 07A5          ADDL      ACC,XAR5              ; [CPU_] |500| 
    2260 00000067 5605          IMPYL     P,XT,XAR7             ; [CPU_] |500| 
         00000068 00A7 
    2261 00000069 1EA6          MOVL      XAR6,ACC              ; [CPU_] |500| 
    2262 0000006a 5663          QMPYL     ACC,XT,XAR7           ; [CPU_] |500| 
         0000006b 00A7 
    2263 0000006c 568B          ASR64     ACC:P,#12             ; [CPU_] |500| 
    2264 0000006d A9A9          MOVL      ACC,P                 ; [CPU_] |500| 
    2265 0000006e 03C6          SUBL      ACC,*+XAR6[0]         ; [CPU_] |500| 
    2266                      .dwpsn  file "C:/ti/motorware/motorware_1_01_00_18/sw/modules/hal/boards/hvkit_rev1p1/f28x/f2802x/src
    2267 0000006f 1EC4          MOVL      *+XAR4[0],ACC         ; [CPU_] |501| 
    2268                      .dwpsn  file "C:/ti/motorware/motorware_1_01_00_18/sw/drivers/adc/src/32b/f28x/f2802x/adc.h",line 684
    2269 00000070 0ED1          MOVU      ACC,*+XAR1[2]         ; [CPU_] |684| 
    2270 00000071 1EAC          MOVL      XT,ACC                ; [CPU_] |684| 
    2271                      .dwpsn  file "C:/ti/motorware/motorware_1_01_00_18/sw/modules/hal/boards/hvkit_rev1p1/f28x/f2802x/src
    2272 00000072 5605          IMPYL     P,XT,XAR7             ; [CPU_] |505| 
         00000073 00A7 
    2273 00000074 5663          QMPYL     ACC,XT,XAR7           ; [CPU_] |505| 
         00000075 00A7 
    2274 00000076 568B          ASR64     ACC:P,#12             ; [CPU_] |505| 
    2275 00000077 A9A9          MOVL      ACC,P                 ; [CPU_] |505| 
    2276 00000078 03D6          SUBL      ACC,*+XAR6[2]         ; [CPU_] |505| 
    2277                      .dwpsn  file "C:/ti/motorware/motorware_1_01_00_18/sw/modules/hal/boards/hvkit_rev1p1/f28x/f2802x/src
    2278 00000079 1ED4          MOVL      *+XAR4[2],ACC         ; [CPU_] |506| 
    2279                      .dwpsn  file "C:/ti/motorware/motorware_1_01_00_18/sw/drivers/adc/src/32b/f28x/f2802x/adc.h",line 684
    2280 0000007a 0ED9          MOVU      ACC,*+XAR1[3]         ; [CPU_] |684| 
    2281 0000007b 1EAC          MOVL      XT,ACC                ; [CPU_] |684| 
    2282                      .dwpsn  file "C:/ti/motorware/motorware_1_01_00_18/sw/modules/hal/boards/hvkit_rev1p1/f28x/f2802x/src
    2283 0000007c 5605          IMPYL     P,XT,XAR7             ; [CPU_] |510| 
         0000007d 00A7 
    2284 0000007e 5663          QMPYL     ACC,XT,XAR7           ; [CPU_] |510| 
         0000007f 00A7 
    2285 00000080 568B          ASR64     ACC:P,#12             ; [CPU_] |510| 
    2286                      .dwpsn  file "C:/ti/motorware/motorware_1_01_00_18/sw/modules/hal/boards/hvkit_rev1p1/f28x/f2802x/src
    2287 00000081 C5A4          MOVL      XAR7,XAR4             ; [CPU_] |516| 
    2288                      .dwpsn  file "C:/ti/motorware/motorware_1_01_00_18/sw/modules/hal/boards/hvkit_rev1p1/f28x/f2802x/src
    2289 00000082 A9A9          MOVL      ACC,P                 ; [CPU_] |510| 
    2290                      .dwpsn  file "C:/ti/motorware/motorware_1_01_00_18/sw/modules/hal/boards/hvkit_rev1p1/f28x/f2802x/src
    2291 00000083 D0A4          MOVB      XAR0,#164             ; [CPU_] |515| 
    2292                      .dwpsn  file "C:/ti/motorware/motorware_1_01_00_18/sw/modules/hal/boards/hvkit_rev1p1/f28x/f2802x/src
    2293 00000084 03E6          SUBL      ACC,*+XAR6[4]         ; [CPU_] |510| 
    2294                      .dwpsn  file "C:/ti/motorware/motorware_1_01_00_18/sw/modules/hal/boards/hvkit_rev1p1/f28x/f2802x/src
    2295 00000085 DF06          ADDB      XAR7,#6               ; [CPU_] |516| 
    2296                      .dwpsn  file "C:/ti/motorware/motorware_1_01_00_18/sw/modules/hal/boards/hvkit_rev1p1/f28x/f2802x/src
    2297 00000086 1EE4          MOVL      *+XAR4[4],ACC         ; [CPU_] |511| 
    2298                      .dwpsn  file "C:/ti/motorware/motorware_1_01_00_18/sw/modules/hal/boards/hvkit_rev1p1/f28x/f2802x/src
    2299 00000087 8E95          MOVL      XAR0,*+XAR5[AR0]      ; [CPU_] |515| 
    2300                      .dwpsn  file "C:/ti/motorware/motorware_1_01_00_18/sw/drivers/adc/src/32b/f28x/f2802x/adc.h",line 684
    2301 00000088 0EE1          MOVU      ACC,*+XAR1[4]         ; [CPU_] |684| 
    2302 00000089 1EAC          MOVL      XT,ACC                ; [CPU_] |684| 
    2303                      .dwpsn  file "C:/ti/motorware/motorware_1_01_00_18/sw/modules/hal/boards/hvkit_rev1p1/f28x/f2802x/src
    2304 0000008a 029A          MOVB      ACC,#154              ; [CPU_] |515| 
TMS320C2000 Assembler PC v6.2.5 Thu Jun 22 20:41:15 2017

Tools Copyright (c) 1996-2014 Texas Instruments Incorporated
C:\Users\wmj\AppData\Local\Temp\1712410                              PAGE   46

    2305 0000008b 07A5          ADDL      ACC,XAR5              ; [CPU_] |515| 
    2306 0000008c 5605          IMPYL     P,XT,XAR0             ; [CPU_] |515| 
         0000008d 00A0 
    2307 0000008e 1EA6          MOVL      XAR6,ACC              ; [CPU_] |515| 
    2308 0000008f 5663          QMPYL     ACC,XT,XAR0           ; [CPU_] |515| 
         00000090 00A0 
    2309 00000091 568B          ASR64     ACC:P,#12             ; [CPU_] |515| 
    2310 00000092 A9A9          MOVL      ACC,P                 ; [CPU_] |515| 
    2311 00000093 03C6          SUBL      ACC,*+XAR6[0]         ; [CPU_] |515| 
    2312                      .dwpsn  file "C:/ti/motorware/motorware_1_01_00_18/sw/modules/hal/boards/hvkit_rev1p1/f28x/f2802x/src
    2313 00000094 1EC7          MOVL      *+XAR7[0],ACC         ; [CPU_] |516| 
    2314                      .dwpsn  file "C:/ti/motorware/motorware_1_01_00_18/sw/drivers/adc/src/32b/f28x/f2802x/adc.h",line 684
    2315 00000095 0EE9          MOVU      ACC,*+XAR1[5]         ; [CPU_] |684| 
    2316 00000096 1EAC          MOVL      XT,ACC                ; [CPU_] |684| 
    2317                      .dwpsn  file "C:/ti/motorware/motorware_1_01_00_18/sw/modules/hal/boards/hvkit_rev1p1/f28x/f2802x/src
    2318 00000097 5605          IMPYL     P,XT,XAR0             ; [CPU_] |520| 
         00000098 00A0 
    2319 00000099 5663          QMPYL     ACC,XT,XAR0           ; [CPU_] |520| 
         0000009a 00A0 
    2320 0000009b 568B          ASR64     ACC:P,#12             ; [CPU_] |520| 
    2321 0000009c A9A9          MOVL      ACC,P                 ; [CPU_] |520| 
    2322 0000009d 03D6          SUBL      ACC,*+XAR6[2]         ; [CPU_] |520| 
    2323                      .dwpsn  file "C:/ti/motorware/motorware_1_01_00_18/sw/modules/hal/boards/hvkit_rev1p1/f28x/f2802x/src
    2324 0000009e 1ED7          MOVL      *+XAR7[2],ACC         ; [CPU_] |521| 
    2325                      .dwpsn  file "C:/ti/motorware/motorware_1_01_00_18/sw/drivers/adc/src/32b/f28x/f2802x/adc.h",line 684
    2326 0000009f 0EF1          MOVU      ACC,*+XAR1[6]         ; [CPU_] |684| 
    2327 000000a0 1EAC          MOVL      XT,ACC                ; [CPU_] |684| 
    2328                      .dwpsn  file "C:/ti/motorware/motorware_1_01_00_18/sw/modules/hal/boards/hvkit_rev1p1/f28x/f2802x/src
    2329 000000a1 5605          IMPYL     P,XT,XAR0             ; [CPU_] |525| 
         000000a2 00A0 
    2330 000000a3 5663          QMPYL     ACC,XT,XAR0           ; [CPU_] |525| 
         000000a4 00A0 
    2331 000000a5 568B          ASR64     ACC:P,#12             ; [CPU_] |525| 
    2332 000000a6 A9A9          MOVL      ACC,P                 ; [CPU_] |525| 
    2333 000000a7 03E6          SUBL      ACC,*+XAR6[4]         ; [CPU_] |525| 
    2334                      .dwpsn  file "C:/ti/motorware/motorware_1_01_00_18/sw/modules/hal/boards/hvkit_rev1p1/f28x/f2802x/src
    2335 000000a8 1EE7          MOVL      *+XAR7[4],ACC         ; [CPU_] |526| 
    2336                      .dwpsn  file "C:/ti/motorware/motorware_1_01_00_18/sw/drivers/adc/src/32b/f28x/f2802x/adc.h",line 684
    2337 000000a9 0EF9          MOVU      ACC,*+XAR1[7]         ; [CPU_] |684| 
    2338 000000aa 1EAC          MOVL      XT,ACC                ; [CPU_] |684| 
    2339                      .dwpsn  file "C:/ti/motorware/motorware_1_01_00_18/sw/modules/hal/boards/hvkit_rev1p1/f28x/f2802x/src
    2340 000000ab 5605          IMPYL     P,XT,XAR0             ; [CPU_] |530| 
         000000ac 00A0 
    2341 000000ad 5663          QMPYL     ACC,XT,XAR0           ; [CPU_] |530| 
         000000ae 00A0 
    2342                      .dwpsn  file "C:/ti/motorware/motorware_1_01_00_18/sw/modules/hal/boards/hvkit_rev1p1/f28x/f2802x/src
    2343 000000af D00C          MOVB      XAR0,#12              ; [CPU_] |531| 
    2344                      .dwpsn  file "C:/ti/motorware/motorware_1_01_00_18/sw/modules/hal/boards/hvkit_rev1p1/f28x/f2802x/src
    2345 000000b0 568B          ASR64     ACC:P,#12             ; [CPU_] |530| 
    2346                      .dwpsn  file "C:/ti/motorware/motorware_1_01_00_18/sw/modules/hal/boards/hvkit_rev1p1/f28x/f2802x/src
    2347 000000b1 A994          MOVL      *+XAR4[AR0],P         ; [CPU_] |531| 
    2348                      .dwpsn  file "C:/ti/motorware/motorware_1_01_00_18/sw/solutions/instaspin_foc/src/proj_lab07.c",line 
    2349 000000b2 A842          MOVL      *-SP[2],XAR4          ; [CPU_] |535| 
    2350 000000b3 8F00-         MOVL      XAR4,#_gPwmData       ; [CPU_U] |535| 
         000000b4 0020 
TMS320C2000 Assembler PC v6.2.5 Thu Jun 22 20:41:15 2017

Tools Copyright (c) 1996-2014 Texas Instruments Incorporated
C:\Users\wmj\AppData\Local\Temp\1712410                              PAGE   47

    2351 000000b5 A844          MOVL      *-SP[4],XAR4          ; [CPU_] |535| 
    2352 000000b6 8A1A-         MOVL      XAR4,@_ctrlHandle     ; [CPU_] |535| 
    2353              $C$DW$287       .dwtag  DW_TAG_TI_branch
    2354                      .dwattr $C$DW$287, DW_AT_low_pc(0x00)
    2355                      .dwattr $C$DW$287, DW_AT_name("_CTRL_run")
    2356                      .dwattr $C$DW$287, DW_AT_TI_call
    2357 000000b7 7640!         LCR       #_CTRL_run            ; [CPU_] |535| 
         000000b8 0000 
    2358                      ; call occurs [#_CTRL_run] ; [] |535| 
    2359 000000b9 761F-         MOVW      DP,#_halHandle        ; [CPU_U] 
         000000ba 0000 
    2360 000000bb BE02          MOVB      XAR6,#2               ; [CPU_] 
    2361 000000bc 3B01          SETC      SXM                   ; [CPU_] 
    2362 000000bd 76C0-         MOVL      XAR7,#_gPwmData       ; [CPU_U] 
         000000be 0020 
    2363 000000bf 0610-         MOVL      ACC,@_halHandle       ; [CPU_] 
    2364 000000c0 097C          ADDB      ACC,#124              ; [CPU_] 
    2365 000000c1 8AA9          MOVL      XAR4,ACC              ; [CPU_] 
    2366 000000c2       $C$L9:    
    2367                      .dwpsn  file "C:/ti/motorware/motorware_1_01_00_18/sw/modules/hal/boards/hvkit_rev1p1/f28x/f2802x/src
    2368 000000c2 83C4          MOVL      XAR5,*+XAR4[0]        ; [CPU_] |1052| 
    2369                      .dwpsn  file "C:/ti/motorware/motorware_1_01_00_18/sw/drivers/pwm/src/32b/f28x/f2802x/pwm.h",line 171
    2370 000000c3 FF2F          MOV       ACC,#-512 << 15       ; [CPU_] |1717| 
         000000c4 FE00 
    2371 000000c5 8787          MOVL      XT,*XAR7++            ; [CPU_] |1717| 
    2372 000000c6 5605          IMPYL     P,XT,ACC              ; [CPU_] |1717| 
         000000c7 00A9 
    2373                      .dwpsn  file "C:/ti/motorware/motorware_1_01_00_18/sw/modules/hal/boards/hvkit_rev1p1/f28x/f2802x/src
    2374 000000c8 58ED          MOVZ      AR0,*+XAR5[5]         ; [CPU_] |1052| 
    2375                      .dwpsn  file "C:/ti/motorware/motorware_1_01_00_18/sw/drivers/pwm/src/32b/f28x/f2802x/pwm.h",line 171
    2376 000000c9 5663          QMPYL     ACC,XT,ACC            ; [CPU_] |1717| 
         000000ca 00A9 
    2377                      .dwpsn  file "C:/ti/motorware/motorware_1_01_00_18/sw/modules/hal/boards/hvkit_rev1p1/f28x/f2802x/src
    2378 000000cb DC02          ADDB      XAR4,#2               ; [CPU_] |1049| 
    2379                      .dwpsn  file "C:/ti/motorware/motorware_1_01_00_18/sw/drivers/pwm/src/32b/f28x/f2802x/pwm.h",line 171
    2380 000000cc 56A7          LSL64     ACC:P,#8              ; [CPU_] |1717| 
    2381 000000cd 2BAB          MOV       PL,#0                 ; [CPU_] |1717| 
    2382 000000ce 28AA          MOV       PH,#128               ; [CPU_] |1717| 
         000000cf 0080 
    2383 000000d0 A9A2          MOVL      XAR2,P                ; [CPU_] |1717| 
    2384 000000d1 2BAB          MOV       PL,#0                 ; [CPU_] |1717| 
    2385 000000d2 28AA          MOV       PH,#65408             ; [CPU_] |1717| 
         000000d3 FF80 
    2386 000000d4 5650          MINL      ACC,XAR2              ; [CPU_] |1717| 
         000000d5 00A2 
    2387 000000d6 5661          MAXL      ACC,P                 ; [CPU_] |1717| 
         000000d7 00AB 
    2388 000000d8 FF1F          ADD       ACC,#256 << 15        ; [CPU_] |1717| 
         000000d9 0100 
    2389 000000da 1EAC          MOVL      XT,ACC                ; [CPU_] |1717| 
    2390 000000db 5605          IMPYL     P,XT,XAR0             ; [CPU_] |1717| 
         000000dc 00A0 
    2391 000000dd 5663          QMPYL     ACC,XT,XAR0           ; [CPU_] |1717| 
         000000de 00A0 
    2392 000000df 56A7          LSL64     ACC:P,#8              ; [CPU_] |1717| 
TMS320C2000 Assembler PC v6.2.5 Thu Jun 22 20:41:15 2017

Tools Copyright (c) 1996-2014 Texas Instruments Incorporated
C:\Users\wmj\AppData\Local\Temp\1712410                              PAGE   48

    2393 000000e0 3100          MOV       P,#0                  ; [CPU_] |1717| 
    2394 000000e1 5650          MINL      ACC,XAR0              ; [CPU_] |1717| 
         000000e2 00A0 
    2395 000000e3 D009          MOVB      XAR0,#9               ; [CPU_] |1717| 
    2396 000000e4 5661          MAXL      ACC,P                 ; [CPU_] |1717| 
         000000e5 00AB 
    2397 000000e6 9695          MOV       *+XAR5[AR0],AL        ; [CPU_] |1717| 
    2398                      .dwpsn  file "C:/ti/motorware/motorware_1_01_00_18/sw/modules/hal/boards/hvkit_rev1p1/f28x/f2802x/src
    2399 000000e7 000E          BANZ      $C$L9,AR6--           ; [CPU_] |1049| 
         000000e8 FFDB 
    2400                      ; branchcc occurs ; [] |1049| 
    2401 000000e9 761F-         MOVW      DP,#_ctrlHandle       ; [CPU_U] 
         000000ea 0000 
    2402                      .dwpsn  file "C:/ti/motorware/motorware_1_01_00_18/sw/solutions/instaspin_foc/src/proj_lab07.c",line 
    2403 000000eb 8A1A-         MOVL      XAR4,@_ctrlHandle     ; [CPU_] |543| 
    2404              $C$DW$288       .dwtag  DW_TAG_TI_branch
    2405                      .dwattr $C$DW$288, DW_AT_low_pc(0x00)
    2406                      .dwattr $C$DW$288, DW_AT_name("_CTRL_setup")
    2407                      .dwattr $C$DW$288, DW_AT_TI_call
    2408 000000ec 7640!         LCR       #_CTRL_setup          ; [CPU_] |543| 
         000000ed 0000 
    2409                      ; call occurs [#_CTRL_setup] ; [] |543| 
    2410 000000ee 761F-         MOVW      DP,#_halHandle        ; [CPU_U] 
         000000ef 0000 
    2411                      .dwpsn  file "C:/ti/motorware/motorware_1_01_00_18/sw/modules/hal/boards/hvkit_rev1p1/f28x/f2802x/src
    2412 000000f0 8A10-         MOVL      XAR4,@_halHandle      ; [CPU_] |600| 
    2413 000000f1 D08C          MOVB      XAR0,#140             ; [CPU_] |600| 
    2414 000000f2 8A94          MOVL      XAR4,*+XAR4[AR0]      ; [CPU_] |600| 
    2415              $C$DW$289       .dwtag  DW_TAG_TI_branch
    2416                      .dwattr $C$DW$289, DW_AT_low_pc(0x00)
    2417                      .dwattr $C$DW$289, DW_AT_name("_TIMER_getCount")
    2418                      .dwattr $C$DW$289, DW_AT_TI_call
    2419 000000f3 7640'         LCR       #_TIMER_getCount      ; [CPU_] |600| 
         000000f4 015C 
    2420                      ; call occurs [#_TIMER_getCount] ; [] |600| 
    2421                      .dwpsn  file "C:/ti/motorware/motorware_1_01_00_18/sw/solutions/instaspin_foc/src/proj_lab07.c",line 
    2422 000000f5 8A1E-         MOVL      XAR4,@_cpu_usageHandle ; [CPU_] |548| 
    2423                      .dwpsn  file "C:/ti/motorware/motorware_1_01_00_18/sw/modules/cpu_usage/src/32b/cpu_usage.h",line 233
    2424 000000f6 C4D4          MOVL      XAR6,*+XAR4[2]        ; [CPU_] |233| 
    2425                      .dwpsn  file "C:/ti/motorware/motorware_1_01_00_18/sw/modules/cpu_usage/src/32b/cpu_usage.h",line 156
    2426 000000f7 D00E          MOVB      XAR0,#14              ; [CPU_] |156| 
    2427                      .dwpsn  file "C:/ti/motorware/motorware_1_01_00_18/sw/modules/cpu_usage/src/32b/cpu_usage.h",line 233
    2428 000000f8 C2E4          MOVL      *+XAR4[4],XAR6        ; [CPU_] |233| 
    2429                      .dwpsn  file "C:/ti/motorware/motorware_1_01_00_18/sw/modules/cpu_usage/src/32b/cpu_usage.h",line 220
    2430 000000f9 1ED4          MOVL      *+XAR4[2],ACC         ; [CPU_] |220| 
    2431                      .dwpsn  file "C:/ti/motorware/motorware_1_01_00_18/sw/modules/cpu_usage/src/32b/cpu_usage.h",line 156
    2432 000000fa C594          MOVL      XAR7,*+XAR4[AR0]      ; [CPU_] |156| 
    2433                      .dwpsn  file "C:/ti/motorware/motorware_1_01_00_18/sw/modules/cpu_usage/src/32b/cpu_usage.h",line 79,
    2434 000000fb 82C4          MOVL      XAR3,*+XAR4[0]        ; [CPU_] |79| 
    2435                      .dwpsn  file "C:/ti/motorware/motorware_1_01_00_18/sw/modules/cpu_usage/src/32b/cpu_usage.h",line 167
    2436 000000fc D010          MOVB      XAR0,#16              ; [CPU_] |167| 
    2437 000000fd 8794          MOVL      XT,*+XAR4[AR0]        ; [CPU_] |167| 
    2438                      .dwpsn  file "C:/ti/motorware/motorware_1_01_00_18/sw/modules/cpu_usage/src/32b/cpu_usage.h",line 178
    2439 000000fe D012          MOVB      XAR0,#18              ; [CPU_] |178| 
    2440 000000ff 8694          MOVL      XAR2,*+XAR4[AR0]      ; [CPU_] |178| 
TMS320C2000 Assembler PC v6.2.5 Thu Jun 22 20:41:15 2017

Tools Copyright (c) 1996-2014 Texas Instruments Incorporated
C:\Users\wmj\AppData\Local\Temp\1712410                              PAGE   49

    2441                      .dwpsn  file "C:/ti/motorware/motorware_1_01_00_18/sw/modules/cpu_usage/src/32b/cpu_usage.h",line 123
    2442 00000100 D008          MOVB      XAR0,#8               ; [CPU_] |123| 
    2443 00000101 A394          MOVL      P,*+XAR4[AR0]         ; [CPU_] |123| 
    2444                      .dwpsn  file "C:/ti/motorware/motorware_1_01_00_18/sw/modules/cpu_usage/src/32b/cpu_usage.h",line 134
    2445 00000102 D00A          MOVB      XAR0,#10              ; [CPU_] |134| 
    2446 00000103 8394          MOVL      XAR5,*+XAR4[AR0]      ; [CPU_] |134| 
    2447                      .dwpsn  file "C:/ti/motorware/motorware_1_01_00_18/sw/modules/cpu_usage/src/32b/cpu_usage.h",line 145
    2448 00000104 D00C          MOVB      XAR0,#12              ; [CPU_] |145| 
    2449 00000105 0694          MOVL      ACC,*+XAR4[AR0]       ; [CPU_] |145| 
    2450 00000106 1E48          MOVL      *-SP[8],ACC           ; [CPU_] |145| 
    2451                      .dwpsn  file "C:/ti/motorware/motorware_1_01_00_18/sw/modules/cpu_usage/src/32b/cpu_usage.h",line 90,
    2452 00000107 8BD4          MOVL      XAR1,*+XAR4[2]        ; [CPU_] |90| 
    2453                      .dwpsn  file "C:/ti/motorware/motorware_1_01_00_18/sw/modules/cpu_usage/src/32b/cpu_usage.h",line 189
    2454 00000108 D014          MOVB      XAR0,#20              ; [CPU_] |189| 
    2455                      .dwpsn  file "C:/ti/motorware/motorware_1_01_00_18/sw/modules/cpu_usage/src/32b/cpu_usage.h",line 101
    2456 00000109 06E4          MOVL      ACC,*+XAR4[4]         ; [CPU_] |101| 
    2457 0000010a 1E46          MOVL      *-SP[6],ACC           ; [CPU_] |101| 
    2458                      .dwpsn  file "C:/ti/motorware/motorware_1_01_00_18/sw/modules/cpu_usage/src/32b/cpu_usage.h",line 376
    2459 0000010b 0FA1          CMPL      ACC,XAR1              ; [CPU_] |376| 
    2460                      .dwpsn  file "C:/ti/motorware/motorware_1_01_00_18/sw/modules/cpu_usage/src/32b/cpu_usage.h",line 189
    2461 0000010c 8894          MOVZ      AR6,*+XAR4[AR0]       ; [CPU_] |189| 
    2462                      .dwpsn  file "C:/ti/motorware/motorware_1_01_00_18/sw/modules/cpu_usage/src/32b/cpu_usage.h",line 376
    2463 0000010d 6705          B         $C$L10,HIS            ; [CPU_] |376| 
    2464                      ; branchcc occurs ; [] |376| 
    2465 0000010e 8E46          MOVL      XAR0,*-SP[6]          ; [CPU_] |376| 
    2466 0000010f A2A9          MOVL      ACC,XAR3              ; [CPU_] |376| 
    2467 00000110 07A0          ADDL      ACC,XAR0              ; [CPU_] |376| 
    2468 00000111 6F02          B         $C$L11,UNC            ; [CPU_] |376| 
    2469                      ; branch occurs ; [] |376| 
    2470 00000112       $C$L10:    
    2471 00000112 0646          MOVL      ACC,*-SP[6]           ; [CPU_] 
    2472 00000113       $C$L11:    
    2473 00000113 03A1          SUBL      ACC,XAR1              ; [CPU_] |376| 
    2474                      .dwpsn  file "C:/ti/motorware/motorware_1_01_00_18/sw/modules/cpu_usage/src/32b/cpu_usage.h",line 390
    2475 00000114 DD01          ADDB      XAR5,#1               ; [CPU_] |390| 
    2476                      .dwpsn  file "C:/ti/motorware/motorware_1_01_00_18/sw/modules/cpu_usage/src/32b/cpu_usage.h",line 376
    2477 00000115 0901          ADDB      ACC,#1                ; [CPU_] |376| 
    2478 00000116 8EA9          MOVL      XAR0,ACC              ; [CPU_] |376| 
    2479                      .dwpsn  file "C:/ti/motorware/motorware_1_01_00_18/sw/modules/cpu_usage/src/32b/cpu_usage.h",line 384
    2480 00000117 5657          ADDUL     P,XAR0                ; [CPU_] |384| 
         00000118 00A0 
    2481                      .dwpsn  file "C:/ti/motorware/motorware_1_01_00_18/sw/modules/cpu_usage/src/32b/cpu_usage.h",line 390
    2482 00000119 0648          MOVL      ACC,*-SP[8]           ; [CPU_] |390| 
    2483 0000011a 0FA5          CMPL      ACC,XAR5              ; [CPU_] |390| 
    2484 0000011b 6608          B         $C$L12,HI             ; [CPU_] |390| 
    2485                      ; branchcc occurs ; [] |390| 
    2486                      .dwpsn  file "C:/ti/motorware/motorware_1_01_00_18/sw/modules/cpu_usage/src/32b/cpu_usage.h",line 393
    2487 0000011c 0200          MOVB      ACC,#0                ; [CPU_] |393| 
    2488 0000011d F61F          RPT       #31
    2489 0000011e 5617  ||     SUBCUL    ACC,XAR5              ; [CPU_] |393| 
         0000011f 00A5 
    2490                      .dwpsn  file "C:/ti/motorware/motorware_1_01_00_18/sw/modules/cpu_usage/src/32b/cpu_usage.h",line 397
    2491 00000120 D500          MOVB      XAR5,#0               ; [CPU_] |397| 
    2492                      .dwpsn  file "C:/ti/motorware/motorware_1_01_00_18/sw/modules/cpu_usage/src/32b/cpu_usage.h",line 393
    2493 00000121 A9AC          MOVL      XT,P                  ; [CPU_] |393| 
TMS320C2000 Assembler PC v6.2.5 Thu Jun 22 20:41:15 2017

Tools Copyright (c) 1996-2014 Texas Instruments Incorporated
C:\Users\wmj\AppData\Local\Temp\1712410                              PAGE   50

    2494                      .dwpsn  file "C:/ti/motorware/motorware_1_01_00_18/sw/modules/cpu_usage/src/32b/cpu_usage.h",line 396
    2495 00000122 3100          MOV       P,#0                  ; [CPU_] |396| 
    2496 00000123       $C$L12:    
    2497 00000123 06A7          MOVL      ACC,XAR7              ; [CPU_] 
    2498                      .dwpsn  file "C:/ti/motorware/motorware_1_01_00_18/sw/modules/cpu_usage/src/32b/cpu_usage.h",line 402
    2499 00000124 0FA0          CMPL      ACC,XAR0              ; [CPU_] |402| 
    2500 00000125 6902          B         $C$L13,LOS            ; [CPU_] |402| 
    2501                      ; branchcc occurs ; [] |402| 
    2502                      .dwpsn  file "C:/ti/motorware/motorware_1_01_00_18/sw/modules/cpu_usage/src/32b/cpu_usage.h",line 404
    2503 00000126 C5A0          MOVL      XAR7,XAR0             ; [CPU_] |404| 
    2504 00000127       $C$L13:    
    2505 00000127 AAA9          MOVL      ACC,XAR2              ; [CPU_] 
    2506                      .dwpsn  file "C:/ti/motorware/motorware_1_01_00_18/sw/modules/cpu_usage/src/32b/cpu_usage.h",line 408
    2507 00000128 0FA0          CMPL      ACC,XAR0              ; [CPU_] |408| 
    2508 00000129 6702          B         $C$L14,HIS            ; [CPU_] |408| 
    2509                      ; branchcc occurs ; [] |408| 
    2510                      .dwpsn  file "C:/ti/motorware/motorware_1_01_00_18/sw/modules/cpu_usage/src/32b/cpu_usage.h",line 410
    2511 0000012a 86A0          MOVL      XAR2,XAR0             ; [CPU_] |410| 
    2512 0000012b       $C$L14:    
    2513 0000012b 92A6          MOV       AL,AR6                ; [CPU_] 
    2514                      .dwpsn  file "C:/ti/motorware/motorware_1_01_00_18/sw/modules/cpu_usage/src/32b/cpu_usage.h",line 414
    2515 0000012c 5201          CMPB      AL,#1                 ; [CPU_] |414| 
    2516 0000012d ED09          BF        $C$L15,NEQ            ; [CPU_] |414| 
    2517                      ; branchcc occurs ; [] |414| 
    2518                      .dwpsn  file "C:/ti/motorware/motorware_1_01_00_18/sw/modules/cpu_usage/src/32b/cpu_usage.h",line 424
    2519 0000012e 0200          MOVB      ACC,#0                ; [CPU_] |424| 
    2520                      .dwpsn  file "C:/ti/motorware/motorware_1_01_00_18/sw/modules/cpu_usage/src/32b/cpu_usage.h",line 423
    2521 0000012f C5A3          MOVL      XAR7,XAR3             ; [CPU_] |423| 
    2522                      .dwpsn  file "C:/ti/motorware/motorware_1_01_00_18/sw/modules/cpu_usage/src/32b/cpu_usage.h",line 418
    2523 00000130 D000          MOVB      XAR0,#0               ; [CPU_] |418| 
    2524                      .dwpsn  file "C:/ti/motorware/motorware_1_01_00_18/sw/modules/cpu_usage/src/32b/cpu_usage.h",line 420
    2525 00000131 3100          MOV       P,#0                  ; [CPU_] |420| 
    2526                      .dwpsn  file "C:/ti/motorware/motorware_1_01_00_18/sw/modules/cpu_usage/src/32b/cpu_usage.h",line 421
    2527 00000132 D500          MOVB      XAR5,#0               ; [CPU_] |421| 
    2528                      .dwpsn  file "C:/ti/motorware/motorware_1_01_00_18/sw/modules/cpu_usage/src/32b/cpu_usage.h",line 425
    2529 00000133 D200          MOVB      XAR2,#0               ; [CPU_] |425| 
    2530                      .dwpsn  file "C:/ti/motorware/motorware_1_01_00_18/sw/modules/cpu_usage/src/32b/cpu_usage.h",line 427
    2531 00000134 BE00          MOVB      XAR6,#0               ; [CPU_] |427| 
    2532                      .dwpsn  file "C:/ti/motorware/motorware_1_01_00_18/sw/modules/cpu_usage/src/32b/cpu_usage.h",line 424
    2533 00000135 1EAC          MOVL      XT,ACC                ; [CPU_] |424| 
    2534 00000136       $C$L15:    
    2535                      .dwpsn  file "C:/ti/motorware/motorware_1_01_00_18/sw/modules/cpu_usage/src/32b/cpu_usage.h",line 246
    2536 00000136 3AF4          MOVL      *+XAR4[6],XAR0        ; [CPU_] |246| 
    2537                      .dwpsn  file "C:/ti/motorware/motorware_1_01_00_18/sw/modules/cpu_usage/src/32b/cpu_usage.h",line 259
    2538 00000137 D008          MOVB      XAR0,#8               ; [CPU_] |259| 
    2539 00000138 A994          MOVL      *+XAR4[AR0],P         ; [CPU_] |259| 
    2540                      .dwpsn  file "C:/ti/motorware/motorware_1_01_00_18/sw/modules/cpu_usage/src/32b/cpu_usage.h",line 272
    2541 00000139 D00A          MOVB      XAR0,#10              ; [CPU_] |272| 
    2542 0000013a A094          MOVL      *+XAR4[AR0],XAR5      ; [CPU_] |272| 
    2543                      .dwpsn  file "C:/ti/motorware/motorware_1_01_00_18/sw/modules/cpu_usage/src/32b/cpu_usage.h",line 298
    2544 0000013b D00E          MOVB      XAR0,#14              ; [CPU_] |298| 
    2545 0000013c C394          MOVL      *+XAR4[AR0],XAR7      ; [CPU_] |298| 
    2546                      .dwpsn  file "C:/ti/motorware/motorware_1_01_00_18/sw/modules/cpu_usage/src/32b/cpu_usage.h",line 311
    2547 0000013d D010          MOVB      XAR0,#16              ; [CPU_] |311| 
    2548 0000013e AB94          MOVL      *+XAR4[AR0],XT        ; [CPU_] |311| 
TMS320C2000 Assembler PC v6.2.5 Thu Jun 22 20:41:15 2017

Tools Copyright (c) 1996-2014 Texas Instruments Incorporated
C:\Users\wmj\AppData\Local\Temp\1712410                              PAGE   51

    2549                      .dwpsn  file "C:/ti/motorware/motorware_1_01_00_18/sw/modules/cpu_usage/src/32b/cpu_usage.h",line 324
    2550 0000013f D012          MOVB      XAR0,#18              ; [CPU_] |324| 
    2551 00000140 AA94          MOVL      *+XAR4[AR0],XAR2      ; [CPU_] |324| 
    2552                      .dwpsn  file "C:/ti/motorware/motorware_1_01_00_18/sw/modules/cpu_usage/src/32b/cpu_usage.h",line 337
    2553 00000141 D014          MOVB      XAR0,#20              ; [CPU_] |337| 
    2554 00000142 FE88          SUBB      SP,#8                 ; [CPU_U] 
    2555                      .dwcfi  cfa_offset, -18
    2556 00000143 7E94          MOV       *+XAR4[AR0],AR6       ; [CPU_] |337| 
    2557 00000144 C5BE          MOVL      XAR7,*--SP            ; [CPU_] 
    2558                      .dwcfi  cfa_offset, -16
    2559                      .dwcfi  restore_reg, 18
    2560 00000145 C4BE          MOVL      XAR6,*--SP            ; [CPU_] 
    2561                      .dwcfi  cfa_offset, -14
    2562                      .dwcfi  restore_reg, 16
    2563 00000146 83BE          MOVL      XAR5,*--SP            ; [CPU_] 
    2564                      .dwcfi  cfa_offset, -12
    2565                      .dwcfi  restore_reg, 14
    2566 00000147 8ABE          MOVL      XAR4,*--SP            ; [CPU_] 
    2567                      .dwcfi  cfa_offset, -10
    2568                      .dwcfi  restore_reg, 12
    2569 00000148 82BE          MOVL      XAR3,*--SP            ; [CPU_] 
    2570                      .dwcfi  cfa_offset, -8
    2571                      .dwcfi  restore_reg, 10
    2572 00000149 86BE          MOVL      XAR2,*--SP            ; [CPU_] 
    2573                      .dwcfi  cfa_offset, -6
    2574                      .dwcfi  restore_reg, 8
    2575 0000014a 87BE          MOVL      XT,*--SP              ; [CPU_] 
    2576                      .dwcfi  cfa_offset, -4
    2577                      .dwcfi  restore_reg, 22
    2578                      .dwcfi  restore_reg, 21
    2579 0000014b 0003          POP       AR1H:AR0H             ; [CPU_] 
    2580                      .dwcfi  cfa_offset, -2
    2581                      .dwcfi  restore_reg, 5
    2582                      .dwcfi  restore_reg, 7
    2583 0000014c 7617          NASP      ; [CPU_] 
    2584              $C$DW$290       .dwtag  DW_TAG_TI_branch
    2585                      .dwattr $C$DW$290, DW_AT_low_pc(0x00)
    2586                      .dwattr $C$DW$290, DW_AT_TI_return
    2587 0000014d 7602          IRET      ; [CPU_] 
    2588                      ; return occurs ; [] 
    2589                      .dwattr $C$DW$249, DW_AT_TI_end_file("C:/ti/motorware/motorware_1_01_00_18/sw/solutions/instaspin_foc
    2590                      .dwattr $C$DW$249, DW_AT_TI_end_line(0x22c)
    2591                      .dwattr $C$DW$249, DW_AT_TI_end_column(0x01)
    2592                      .dwendentry
    2593                      .dwendtag $C$DW$249
    2594              
    2595 00000161               .sect   ".text"
    2596                      .clink
    2597                      .global _main
    2598              
    2599              $C$DW$291       .dwtag  DW_TAG_subprogram, DW_AT_name("main")
    2600                      .dwattr $C$DW$291, DW_AT_low_pc(_main)
    2601                      .dwattr $C$DW$291, DW_AT_high_pc(0x00)
    2602                      .dwattr $C$DW$291, DW_AT_TI_symbol_name("_main")
    2603                      .dwattr $C$DW$291, DW_AT_external
TMS320C2000 Assembler PC v6.2.5 Thu Jun 22 20:41:15 2017

Tools Copyright (c) 1996-2014 Texas Instruments Incorporated
C:\Users\wmj\AppData\Local\Temp\1712410                              PAGE   52

    2604                      .dwattr $C$DW$291, DW_AT_TI_begin_file("C:/ti/motorware/motorware_1_01_00_18/sw/solutions/instaspin_f
    2605                      .dwattr $C$DW$291, DW_AT_TI_begin_line(0x92)
    2606                      .dwattr $C$DW$291, DW_AT_TI_begin_column(0x06)
    2607                      .dwattr $C$DW$291, DW_AT_TI_max_frame_size(-20)
    2608                      .dwpsn  file "C:/ti/motorware/motorware_1_01_00_18/sw/solutions/instaspin_foc/src/proj_lab07.c",line 
    2609              
    2610                      .dwfde $C$DW$CIE, _main
    2611              
    2612              ;***************************************************************
    2613              ;* FNAME: _main                         FR SIZE:  18           *
    2614              ;*                                                             *
    2615              ;* FUNCTION ENVIRONMENT                                        *
    2616              ;*                                                             *
    2617              ;* FUNCTION PROPERTIES                                         *
    2618              ;*                            6 Parameter,  5 Auto,  6 SOE     *
    2619              ;***************************************************************
    2620              
    2621              _main:
    2622              ;* AR4   assigned to $O$C18
    2623              ;* AR4   assigned to $O$C19
    2624              ;* AR5   assigned to $O$C20
    2625              ;* AR5   assigned to $O$C21
    2626              ;* AR7   assigned to $O$C22
    2627              ;* AR5   assigned to $O$C23
    2628              ;* AR6   assigned to $O$C24
    2629              ;* AR5   assigned to $O$C25
    2630              ;* AR7   assigned to $O$C26
    2631              ;* AR0   assigned to $O$C27
    2632              ;* AR7   assigned to $O$C28
    2633              ;* AR0   assigned to $O$C29
    2634              ;* AR5   assigned to $O$C30
    2635              ;* AR5   assigned to $O$C31
    2636              ;* AR5   assigned to $O$C32
    2637              ;* AR4   assigned to $O$C33
    2638              ;* AR2   assigned to $O$K12
    2639              ;* AR5   assigned to _timerHandle
    2640              $C$DW$292       .dwtag  DW_TAG_variable, DW_AT_name("timerHandle")
    2641                      .dwattr $C$DW$292, DW_AT_TI_symbol_name("_timerHandle")
    2642                      .dwattr $C$DW$292, DW_AT_type(*$C$DW$T$112)
    2643                      .dwattr $C$DW$292, DW_AT_location[DW_OP_reg14]
    2644              ;* AL    assigned to _period
    2645              $C$DW$293       .dwtag  DW_TAG_variable, DW_AT_name("period")
    2646                      .dwattr $C$DW$293, DW_AT_TI_symbol_name("_period")
    2647                      .dwattr $C$DW$293, DW_AT_type(*$C$DW$T$38)
    2648                      .dwattr $C$DW$293, DW_AT_location[DW_OP_reg0]
    2649              ;* AR5   assigned to _timerHandle
    2650              $C$DW$294       .dwtag  DW_TAG_variable, DW_AT_name("timerHandle")
    2651                      .dwattr $C$DW$294, DW_AT_TI_symbol_name("_timerHandle")
    2652                      .dwattr $C$DW$294, DW_AT_type(*$C$DW$T$112)
    2653                      .dwattr $C$DW$294, DW_AT_location[DW_OP_reg14]
    2654              ;* AL    assigned to _period
    2655              $C$DW$295       .dwtag  DW_TAG_variable, DW_AT_name("period")
    2656                      .dwattr $C$DW$295, DW_AT_TI_symbol_name("_period")
    2657                      .dwattr $C$DW$295, DW_AT_type(*$C$DW$T$38)
    2658                      .dwattr $C$DW$295, DW_AT_location[DW_OP_reg0]
TMS320C2000 Assembler PC v6.2.5 Thu Jun 22 20:41:15 2017

Tools Copyright (c) 1996-2014 Texas Instruments Incorporated
C:\Users\wmj\AppData\Local\Temp\1712410                              PAGE   53

    2659              ;* AR5   assigned to _timerHandle
    2660              $C$DW$296       .dwtag  DW_TAG_variable, DW_AT_name("timerHandle")
    2661                      .dwattr $C$DW$296, DW_AT_TI_symbol_name("_timerHandle")
    2662                      .dwattr $C$DW$296, DW_AT_type(*$C$DW$T$112)
    2663                      .dwattr $C$DW$296, DW_AT_location[DW_OP_reg14]
    2664              ;* AR5   assigned to _pwmHandle
    2665              $C$DW$297       .dwtag  DW_TAG_variable, DW_AT_name("pwmHandle")
    2666                      .dwattr $C$DW$297, DW_AT_TI_symbol_name("_pwmHandle")
    2667                      .dwattr $C$DW$297, DW_AT_type(*$C$DW$T$107)
    2668                      .dwattr $C$DW$297, DW_AT_location[DW_OP_reg14]
    2669              ;* AR5   assigned to _pwmHandle
    2670              $C$DW$298       .dwtag  DW_TAG_variable, DW_AT_name("pwmHandle")
    2671                      .dwattr $C$DW$298, DW_AT_TI_symbol_name("_pwmHandle")
    2672                      .dwattr $C$DW$298, DW_AT_type(*$C$DW$T$107)
    2673                      .dwattr $C$DW$298, DW_AT_location[DW_OP_reg14]
    2674              ;* AR4   assigned to _pwmHandle
    2675              $C$DW$299       .dwtag  DW_TAG_variable, DW_AT_name("pwmHandle")
    2676                      .dwattr $C$DW$299, DW_AT_TI_symbol_name("_pwmHandle")
    2677                      .dwattr $C$DW$299, DW_AT_type(*$C$DW$T$107)
    2678                      .dwattr $C$DW$299, DW_AT_location[DW_OP_reg12]
    2679              ;* AR4   assigned to _obj
    2680              $C$DW$300       .dwtag  DW_TAG_variable, DW_AT_name("obj")
    2681                      .dwattr $C$DW$300, DW_AT_TI_symbol_name("_obj")
    2682                      .dwattr $C$DW$300, DW_AT_type(*$C$DW$T$227)
    2683                      .dwattr $C$DW$300, DW_AT_location[DW_OP_reg12]
    2684              ;* AL    assigned to _state
    2685              $C$DW$301       .dwtag  DW_TAG_variable, DW_AT_name("state")
    2686                      .dwattr $C$DW$301, DW_AT_TI_symbol_name("_state")
    2687                      .dwattr $C$DW$301, DW_AT_type(*$C$DW$T$39)
    2688                      .dwattr $C$DW$301, DW_AT_location[DW_OP_reg0]
    2689              ;* AL    assigned to _state
    2690              $C$DW$302       .dwtag  DW_TAG_variable, DW_AT_name("state")
    2691                      .dwattr $C$DW$302, DW_AT_TI_symbol_name("_state")
    2692                      .dwattr $C$DW$302, DW_AT_type(*$C$DW$T$39)
    2693                      .dwattr $C$DW$302, DW_AT_location[DW_OP_reg0]
    2694              ;* AR5   assigned to _pwmHandle
    2695              $C$DW$303       .dwtag  DW_TAG_variable, DW_AT_name("pwmHandle")
    2696                      .dwattr $C$DW$303, DW_AT_TI_symbol_name("_pwmHandle")
    2697                      .dwattr $C$DW$303, DW_AT_type(*$C$DW$T$107)
    2698                      .dwattr $C$DW$303, DW_AT_location[DW_OP_reg14]
    2699              ;* AR5   assigned to _pwmHandle
    2700              $C$DW$304       .dwtag  DW_TAG_variable, DW_AT_name("pwmHandle")
    2701                      .dwattr $C$DW$304, DW_AT_TI_symbol_name("_pwmHandle")
    2702                      .dwattr $C$DW$304, DW_AT_type(*$C$DW$T$107)
    2703                      .dwattr $C$DW$304, DW_AT_location[DW_OP_reg14]
    2704              ;* AR4   assigned to _pwmHandle
    2705              $C$DW$305       .dwtag  DW_TAG_variable, DW_AT_name("pwmHandle")
    2706                      .dwattr $C$DW$305, DW_AT_TI_symbol_name("_pwmHandle")
    2707                      .dwattr $C$DW$305, DW_AT_type(*$C$DW$T$107)
    2708                      .dwattr $C$DW$305, DW_AT_location[DW_OP_reg12]
    2709              ;* AR4   assigned to _obj
    2710              $C$DW$306       .dwtag  DW_TAG_variable, DW_AT_name("obj")
    2711                      .dwattr $C$DW$306, DW_AT_TI_symbol_name("_obj")
    2712                      .dwattr $C$DW$306, DW_AT_type(*$C$DW$T$227)
    2713                      .dwattr $C$DW$306, DW_AT_location[DW_OP_reg12]
TMS320C2000 Assembler PC v6.2.5 Thu Jun 22 20:41:15 2017

Tools Copyright (c) 1996-2014 Texas Instruments Incorporated
C:\Users\wmj\AppData\Local\Temp\1712410                              PAGE   54

    2714              ;* AH    assigned to _state
    2715              $C$DW$307       .dwtag  DW_TAG_variable, DW_AT_name("state")
    2716                      .dwattr $C$DW$307, DW_AT_TI_symbol_name("_state")
    2717                      .dwattr $C$DW$307, DW_AT_type(*$C$DW$T$39)
    2718                      .dwattr $C$DW$307, DW_AT_location[DW_OP_reg1]
    2719              ;* AR6   assigned to _pwmHandle
    2720              $C$DW$308       .dwtag  DW_TAG_variable, DW_AT_name("pwmHandle")
    2721                      .dwattr $C$DW$308, DW_AT_TI_symbol_name("_pwmHandle")
    2722                      .dwattr $C$DW$308, DW_AT_type(*$C$DW$T$107)
    2723                      .dwattr $C$DW$308, DW_AT_location[DW_OP_reg16]
    2724              ;* AR6   assigned to _pwmHandle
    2725              $C$DW$309       .dwtag  DW_TAG_variable, DW_AT_name("pwmHandle")
    2726                      .dwattr $C$DW$309, DW_AT_TI_symbol_name("_pwmHandle")
    2727                      .dwattr $C$DW$309, DW_AT_type(*$C$DW$T$107)
    2728                      .dwattr $C$DW$309, DW_AT_location[DW_OP_reg16]
    2729              ;* AR5   assigned to _pwmHandle
    2730              $C$DW$310       .dwtag  DW_TAG_variable, DW_AT_name("pwmHandle")
    2731                      .dwattr $C$DW$310, DW_AT_TI_symbol_name("_pwmHandle")
    2732                      .dwattr $C$DW$310, DW_AT_type(*$C$DW$T$107)
    2733                      .dwattr $C$DW$310, DW_AT_location[DW_OP_reg14]
    2734              ;* AR5   assigned to _obj
    2735              $C$DW$311       .dwtag  DW_TAG_variable, DW_AT_name("obj")
    2736                      .dwattr $C$DW$311, DW_AT_TI_symbol_name("_obj")
    2737                      .dwattr $C$DW$311, DW_AT_type(*$C$DW$T$227)
    2738                      .dwattr $C$DW$311, DW_AT_location[DW_OP_reg14]
    2739              ;* AR6   assigned to _handle
    2740              $C$DW$312       .dwtag  DW_TAG_variable, DW_AT_name("handle")
    2741                      .dwattr $C$DW$312, DW_AT_TI_symbol_name("_handle")
    2742                      .dwattr $C$DW$312, DW_AT_type(*$C$DW$T$96)
    2743                      .dwattr $C$DW$312, DW_AT_location[DW_OP_reg16]
    2744              ;* XT    assigned to _bias
    2745              $C$DW$313       .dwtag  DW_TAG_variable, DW_AT_name("bias")
    2746                      .dwattr $C$DW$313, DW_AT_TI_symbol_name("_bias")
    2747                      .dwattr $C$DW$313, DW_AT_type(*$C$DW$T$32)
    2748                      .dwattr $C$DW$313, DW_AT_location[DW_OP_reg21]
    2749              ;* AR6   assigned to _handle
    2750              $C$DW$314       .dwtag  DW_TAG_variable, DW_AT_name("handle")
    2751                      .dwattr $C$DW$314, DW_AT_TI_symbol_name("_handle")
    2752                      .dwattr $C$DW$314, DW_AT_type(*$C$DW$T$96)
    2753                      .dwattr $C$DW$314, DW_AT_location[DW_OP_reg16]
    2754              ;* AR5   assigned to _handle
    2755              $C$DW$315       .dwtag  DW_TAG_variable, DW_AT_name("handle")
    2756                      .dwattr $C$DW$315, DW_AT_TI_symbol_name("_handle")
    2757                      .dwattr $C$DW$315, DW_AT_type(*$C$DW$T$229)
    2758                      .dwattr $C$DW$315, DW_AT_location[DW_OP_reg14]
    2759              ;* AR5   assigned to _obj
    2760              $C$DW$316       .dwtag  DW_TAG_variable, DW_AT_name("obj")
    2761                      .dwattr $C$DW$316, DW_AT_TI_symbol_name("_obj")
    2762                      .dwattr $C$DW$316, DW_AT_type(*$C$DW$T$227)
    2763                      .dwattr $C$DW$316, DW_AT_location[DW_OP_reg14]
    2764              ;* AL    assigned to _bias
    2765              $C$DW$317       .dwtag  DW_TAG_variable, DW_AT_name("bias")
    2766                      .dwattr $C$DW$317, DW_AT_TI_symbol_name("_bias")
    2767                      .dwattr $C$DW$317, DW_AT_type(*$C$DW$T$32)
    2768                      .dwattr $C$DW$317, DW_AT_location[DW_OP_reg0]
TMS320C2000 Assembler PC v6.2.5 Thu Jun 22 20:41:15 2017

Tools Copyright (c) 1996-2014 Texas Instruments Incorporated
C:\Users\wmj\AppData\Local\Temp\1712410                              PAGE   55

    2769              ;* AL    assigned to _bias
    2770              $C$DW$318       .dwtag  DW_TAG_variable, DW_AT_name("bias")
    2771                      .dwattr $C$DW$318, DW_AT_TI_symbol_name("_bias")
    2772                      .dwattr $C$DW$318, DW_AT_type(*$C$DW$T$32)
    2773                      .dwattr $C$DW$318, DW_AT_location[DW_OP_reg0]
    2774              ;* AL    assigned to _bias
    2775              $C$DW$319       .dwtag  DW_TAG_variable, DW_AT_name("bias")
    2776                      .dwattr $C$DW$319, DW_AT_TI_symbol_name("_bias")
    2777                      .dwattr $C$DW$319, DW_AT_type(*$C$DW$T$32)
    2778                      .dwattr $C$DW$319, DW_AT_location[DW_OP_reg0]
    2779              ;* AR6   assigned to _pwmHandle
    2780              $C$DW$320       .dwtag  DW_TAG_variable, DW_AT_name("pwmHandle")
    2781                      .dwattr $C$DW$320, DW_AT_TI_symbol_name("_pwmHandle")
    2782                      .dwattr $C$DW$320, DW_AT_type(*$C$DW$T$107)
    2783                      .dwattr $C$DW$320, DW_AT_location[DW_OP_reg16]
    2784              ;* AR6   assigned to _pwmHandle
    2785              $C$DW$321       .dwtag  DW_TAG_variable, DW_AT_name("pwmHandle")
    2786                      .dwattr $C$DW$321, DW_AT_TI_symbol_name("_pwmHandle")
    2787                      .dwattr $C$DW$321, DW_AT_type(*$C$DW$T$107)
    2788                      .dwattr $C$DW$321, DW_AT_location[DW_OP_reg16]
    2789              ;* AR5   assigned to _pwmHandle
    2790              $C$DW$322       .dwtag  DW_TAG_variable, DW_AT_name("pwmHandle")
    2791                      .dwattr $C$DW$322, DW_AT_TI_symbol_name("_pwmHandle")
    2792                      .dwattr $C$DW$322, DW_AT_type(*$C$DW$T$107)
    2793                      .dwattr $C$DW$322, DW_AT_location[DW_OP_reg14]
    2794              ;* AR6   assigned to _pwmHandle
    2795              $C$DW$323       .dwtag  DW_TAG_variable, DW_AT_name("pwmHandle")
    2796                      .dwattr $C$DW$323, DW_AT_TI_symbol_name("_pwmHandle")
    2797                      .dwattr $C$DW$323, DW_AT_type(*$C$DW$T$107)
    2798                      .dwattr $C$DW$323, DW_AT_location[DW_OP_reg16]
    2799              ;* AR6   assigned to _pwmHandle
    2800              $C$DW$324       .dwtag  DW_TAG_variable, DW_AT_name("pwmHandle")
    2801                      .dwattr $C$DW$324, DW_AT_TI_symbol_name("_pwmHandle")
    2802                      .dwattr $C$DW$324, DW_AT_type(*$C$DW$T$107)
    2803                      .dwattr $C$DW$324, DW_AT_location[DW_OP_reg16]
    2804              ;* AR5   assigned to _pwmHandle
    2805              $C$DW$325       .dwtag  DW_TAG_variable, DW_AT_name("pwmHandle")
    2806                      .dwattr $C$DW$325, DW_AT_TI_symbol_name("_pwmHandle")
    2807                      .dwattr $C$DW$325, DW_AT_type(*$C$DW$T$107)
    2808                      .dwattr $C$DW$325, DW_AT_location[DW_OP_reg14]
    2809              ;* AR5   assigned to _obj
    2810              $C$DW$326       .dwtag  DW_TAG_variable, DW_AT_name("obj")
    2811                      .dwattr $C$DW$326, DW_AT_TI_symbol_name("_obj")
    2812                      .dwattr $C$DW$326, DW_AT_type(*$C$DW$T$227)
    2813                      .dwattr $C$DW$326, DW_AT_location[DW_OP_reg14]
    2814              ;* AL    assigned to _maxAccel_pu
    2815              $C$DW$327       .dwtag  DW_TAG_variable, DW_AT_name("maxAccel_pu")
    2816                      .dwattr $C$DW$327, DW_AT_TI_symbol_name("_maxAccel_pu")
    2817                      .dwattr $C$DW$327, DW_AT_type(*$C$DW$T$32)
    2818                      .dwattr $C$DW$327, DW_AT_location[DW_OP_reg0]
    2819              ;* AL    assigned to _state
    2820              $C$DW$328       .dwtag  DW_TAG_variable, DW_AT_name("state")
    2821                      .dwattr $C$DW$328, DW_AT_TI_symbol_name("_state")
    2822                      .dwattr $C$DW$328, DW_AT_type(*$C$DW$T$39)
    2823                      .dwattr $C$DW$328, DW_AT_location[DW_OP_reg0]
TMS320C2000 Assembler PC v6.2.5 Thu Jun 22 20:41:15 2017

Tools Copyright (c) 1996-2014 Texas Instruments Incorporated
C:\Users\wmj\AppData\Local\Temp\1712410                              PAGE   56

    2824              ;* AR5   assigned to _pwmHandle
    2825              $C$DW$329       .dwtag  DW_TAG_variable, DW_AT_name("pwmHandle")
    2826                      .dwattr $C$DW$329, DW_AT_TI_symbol_name("_pwmHandle")
    2827                      .dwattr $C$DW$329, DW_AT_type(*$C$DW$T$107)
    2828                      .dwattr $C$DW$329, DW_AT_location[DW_OP_reg14]
    2829              ;* AR5   assigned to _pwmHandle
    2830              $C$DW$330       .dwtag  DW_TAG_variable, DW_AT_name("pwmHandle")
    2831                      .dwattr $C$DW$330, DW_AT_TI_symbol_name("_pwmHandle")
    2832                      .dwattr $C$DW$330, DW_AT_type(*$C$DW$T$107)
    2833                      .dwattr $C$DW$330, DW_AT_location[DW_OP_reg14]
    2834              ;* AR4   assigned to _pwmHandle
    2835              $C$DW$331       .dwtag  DW_TAG_variable, DW_AT_name("pwmHandle")
    2836                      .dwattr $C$DW$331, DW_AT_TI_symbol_name("_pwmHandle")
    2837                      .dwattr $C$DW$331, DW_AT_type(*$C$DW$T$107)
    2838                      .dwattr $C$DW$331, DW_AT_location[DW_OP_reg12]
    2839              ;* AR4   assigned to _obj
    2840              $C$DW$332       .dwtag  DW_TAG_variable, DW_AT_name("obj")
    2841                      .dwattr $C$DW$332, DW_AT_TI_symbol_name("_obj")
    2842                      .dwattr $C$DW$332, DW_AT_type(*$C$DW$T$227)
    2843                      .dwattr $C$DW$332, DW_AT_location[DW_OP_reg12]
    2844              $C$DW$333       .dwtag  DW_TAG_variable, DW_AT_name("ctrlState")
    2845                      .dwattr $C$DW$333, DW_AT_TI_symbol_name("_ctrlState")
    2846                      .dwattr $C$DW$333, DW_AT_type(*$C$DW$T$43)
    2847                      .dwattr $C$DW$333, DW_AT_location[DW_OP_breg20 -11]
    2848              ;* AL    assigned to _flag_ctrlStateChanged
    2849              $C$DW$334       .dwtag  DW_TAG_variable, DW_AT_name("flag_ctrlStateChanged")
    2850                      .dwattr $C$DW$334, DW_AT_TI_symbol_name("_flag_ctrlStateChanged")
    2851                      .dwattr $C$DW$334, DW_AT_type(*$C$DW$T$39)
    2852                      .dwattr $C$DW$334, DW_AT_location[DW_OP_reg0]
    2853              ;* AR1   assigned to _obj
    2854              $C$DW$335       .dwtag  DW_TAG_variable, DW_AT_name("obj")
    2855                      .dwattr $C$DW$335, DW_AT_TI_symbol_name("_obj")
    2856                      .dwattr $C$DW$335, DW_AT_type(*$C$DW$T$206)
    2857                      .dwattr $C$DW$335, DW_AT_location[DW_OP_reg6]
    2858              ;* XT    assigned to _bias
    2859              $C$DW$336       .dwtag  DW_TAG_variable, DW_AT_name("bias")
    2860                      .dwattr $C$DW$336, DW_AT_TI_symbol_name("_bias")
    2861                      .dwattr $C$DW$336, DW_AT_type(*$C$DW$T$32)
    2862                      .dwattr $C$DW$336, DW_AT_location[DW_OP_reg21]
    2863              ;* AR3   assigned to _cnt
    2864              $C$DW$337       .dwtag  DW_TAG_variable, DW_AT_name("cnt")
    2865                      .dwattr $C$DW$337, DW_AT_TI_symbol_name("_cnt")
    2866                      .dwattr $C$DW$337, DW_AT_type(*$C$DW$T$33)
    2867                      .dwattr $C$DW$337, DW_AT_location[DW_OP_reg10]
    2868              ;* AR3   assigned to _cnt
    2869              $C$DW$338       .dwtag  DW_TAG_variable, DW_AT_name("cnt")
    2870                      .dwattr $C$DW$338, DW_AT_TI_symbol_name("_cnt")
    2871                      .dwattr $C$DW$338, DW_AT_type(*$C$DW$T$33)
    2872                      .dwattr $C$DW$338, DW_AT_location[DW_OP_reg10]
    2873              ;* XT    assigned to _bias
    2874              $C$DW$339       .dwtag  DW_TAG_variable, DW_AT_name("bias")
    2875                      .dwattr $C$DW$339, DW_AT_TI_symbol_name("_bias")
    2876                      .dwattr $C$DW$339, DW_AT_type(*$C$DW$T$32)
    2877                      .dwattr $C$DW$339, DW_AT_location[DW_OP_reg21]
    2878              ;* XT    assigned to _bias
TMS320C2000 Assembler PC v6.2.5 Thu Jun 22 20:41:15 2017

Tools Copyright (c) 1996-2014 Texas Instruments Incorporated
C:\Users\wmj\AppData\Local\Temp\1712410                              PAGE   57

    2879              $C$DW$340       .dwtag  DW_TAG_variable, DW_AT_name("bias")
    2880                      .dwattr $C$DW$340, DW_AT_TI_symbol_name("_bias")
    2881                      .dwattr $C$DW$340, DW_AT_type(*$C$DW$T$32)
    2882                      .dwattr $C$DW$340, DW_AT_location[DW_OP_reg21]
    2883              ;* AL    assigned to _bias
    2884              $C$DW$341       .dwtag  DW_TAG_variable, DW_AT_name("bias")
    2885                      .dwattr $C$DW$341, DW_AT_TI_symbol_name("_bias")
    2886                      .dwattr $C$DW$341, DW_AT_type(*$C$DW$T$32)
    2887                      .dwattr $C$DW$341, DW_AT_location[DW_OP_reg0]
    2888              ;* AL    assigned to _bias
    2889              $C$DW$342       .dwtag  DW_TAG_variable, DW_AT_name("bias")
    2890                      .dwattr $C$DW$342, DW_AT_TI_symbol_name("_bias")
    2891                      .dwattr $C$DW$342, DW_AT_type(*$C$DW$T$32)
    2892                      .dwattr $C$DW$342, DW_AT_location[DW_OP_reg0]
    2893              ;* AL    assigned to _bias
    2894              $C$DW$343       .dwtag  DW_TAG_variable, DW_AT_name("bias")
    2895                      .dwattr $C$DW$343, DW_AT_TI_symbol_name("_bias")
    2896                      .dwattr $C$DW$343, DW_AT_type(*$C$DW$T$32)
    2897                      .dwattr $C$DW$343, DW_AT_location[DW_OP_reg0]
    2898              ;* AR4   assigned to $O$v3
    2899              ;* AR1   assigned to $O$K13
    2900              ;* AR3   assigned to $O$K13
    2901              ;* AR7   assigned to $O$K13
    2902              ;* AR3   assigned to $O$K13
    2903              ;* AR3   assigned to $O$K13
    2904              ;* AR4   assigned to $O$v1
    2905              ;* AR4   assigned to $O$v1
    2906              ;* AR4   assigned to $O$v1
    2907              ;* AR4   assigned to $O$v1
    2908              ;* AR1   assigned to $O$v1
    2909              ;* AR4   assigned to $O$v2
    2910              ;* AR4   assigned to $O$v2
    2911              ;* AR4   assigned to $O$v4
    2912              ;* AR4   assigned to $O$v4
    2913              ;* AR4   assigned to $O$v4
    2914              ;* PL    assigned to $O$v4
    2915              $C$DW$344       .dwtag  DW_TAG_variable, DW_AT_name("version")
    2916                      .dwattr $C$DW$344, DW_AT_TI_symbol_name("_version")
    2917                      .dwattr $C$DW$344, DW_AT_type(*$C$DW$T$41)
    2918                      .dwattr $C$DW$344, DW_AT_location[DW_OP_breg20 -10]
    2919                      .dwcfi  cfa_offset, -2
    2920                      .dwcfi  save_reg_to_mem, 26, 0
    2921                      .dwcfi  save_reg_to_reg, 78, 26
    2922 00000161 B2BD          MOVL      *SP++,XAR1            ; [CPU_] 
    2923                      .dwcfi  save_reg_to_mem, 7, 2
    2924                      .dwcfi  cfa_offset, -4
    2925 00000162 AABD          MOVL      *SP++,XAR2            ; [CPU_] 
    2926                      .dwcfi  save_reg_to_mem, 9, 4
    2927                      .dwcfi  cfa_offset, -6
    2928 00000163 A2BD          MOVL      *SP++,XAR3            ; [CPU_] 
    2929                      .dwcfi  save_reg_to_mem, 11, 6
    2930                      .dwcfi  cfa_offset, -8
    2931 00000164 FE0C          ADDB      SP,#12                ; [CPU_U] 
    2932                      .dwcfi  cfa_offset, -20
    2933                      .dwpsn  file "C:/ti/motorware/motorware_1_01_00_18/sw/solutions/instaspin_foc/src/proj_lab07.c",line 
TMS320C2000 Assembler PC v6.2.5 Thu Jun 22 20:41:15 2017

Tools Copyright (c) 1996-2014 Texas Instruments Incorporated
C:\Users\wmj\AppData\Local\Temp\1712410                              PAGE   58

    2934 00000165 8F00!         MOVL      XAR4,#_RamfuncsRunStart ; [CPU_U] |160| 
         00000166 0000 
    2935 00000167 8F40!         MOVL      XAR5,#_RamfuncsLoadEnd ; [CPU_U] |160| 
         00000168 0000 
    2936 00000169 A842          MOVL      *-SP[2],XAR4          ; [CPU_] |160| 
    2937 0000016a 8F00!         MOVL      XAR4,#_RamfuncsLoadStart ; [CPU_U] |160| 
         0000016b 0000 
    2938              $C$DW$345       .dwtag  DW_TAG_TI_branch
    2939                      .dwattr $C$DW$345, DW_AT_low_pc(0x00)
    2940                      .dwattr $C$DW$345, DW_AT_name("_memCopy")
    2941                      .dwattr $C$DW$345, DW_AT_TI_call
    2942 0000016c 7640!         LCR       #_memCopy             ; [CPU_] |160| 
         0000016d 0000 
    2943                      ; call occurs [#_memCopy] ; [] |160| 
    2944                      .dwpsn  file "C:/ti/motorware/motorware_1_01_00_18/sw/solutions/instaspin_foc/src/proj_lab07.c",line 
    2945 0000016e 8F00!         MOVL      XAR4,#_hal            ; [CPU_U] |178| 
         0000016f 0000 
    2946 00000170 02A8          MOVB      ACC,#168              ; [CPU_] |178| 
    2947              $C$DW$346       .dwtag  DW_TAG_TI_branch
    2948                      .dwattr $C$DW$346, DW_AT_low_pc(0x00)
    2949                      .dwattr $C$DW$346, DW_AT_name("_HAL_init")
    2950                      .dwattr $C$DW$346, DW_AT_TI_call
    2951 00000171 7640!         LCR       #_HAL_init            ; [CPU_] |178| 
         00000172 0000 
    2952                      ; call occurs [#_HAL_init] ; [] |178| 
    2953                      .dwpsn  file "C:/ti/motorware/motorware_1_01_00_18/sw/solutions/instaspin_foc/src/proj_lab07.c",line 
    2954 00000173 8D80-         MOVL      XAR2,#_gUserParams    ; [CPU_U] |182| 
         00000174 0100 
    2955 00000175 761F-         MOVW      DP,#_halHandle        ; [CPU_U] 
         00000176 0000 
    2956                      .dwpsn  file "C:/ti/motorware/motorware_1_01_00_18/sw/solutions/instaspin_foc/src/proj_lab07.c",line 
    2957 00000177 A810-         MOVL      @_halHandle,XAR4      ; [CPU_] |178| 
    2958                      .dwpsn  file "C:/ti/motorware/motorware_1_01_00_18/sw/solutions/instaspin_foc/src/proj_lab07.c",line 
    2959 00000178 8AA2          MOVL      XAR4,XAR2             ; [CPU_] |182| 
    2960              $C$DW$347       .dwtag  DW_TAG_TI_branch
    2961                      .dwattr $C$DW$347, DW_AT_low_pc(0x00)
    2962                      .dwattr $C$DW$347, DW_AT_name("_USER_checkForErrors")
    2963                      .dwattr $C$DW$347, DW_AT_TI_call
    2964 00000179 7640!         LCR       #_USER_checkForErrors ; [CPU_] |182| 
         0000017a 0000 
    2965                      ; call occurs [#_USER_checkForErrors] ; [] |182| 
    2966                      .dwpsn  file "C:/ti/motorware/motorware_1_01_00_18/sw/solutions/instaspin_foc/src/proj_lab07.c",line 
    2967 0000017b 8AA2          MOVL      XAR4,XAR2             ; [CPU_] |186| 
    2968              $C$DW$348       .dwtag  DW_TAG_TI_branch
    2969                      .dwattr $C$DW$348, DW_AT_low_pc(0x00)
    2970                      .dwattr $C$DW$348, DW_AT_name("_USER_getErrorCode")
    2971                      .dwattr $C$DW$348, DW_AT_TI_call
    2972 0000017c 7640!         LCR       #_USER_getErrorCode   ; [CPU_] |186| 
         0000017d 0000 
    2973                      ; call occurs [#_USER_getErrorCode] ; [] |186| 
    2974 0000017e 8D40-         MOVL      XAR1,#_gMotorVars     ; [CPU_U] |186| 
         0000017f 0080 
    2975 00000180 D00F          MOVB      XAR0,#15              ; [CPU_] |186| 
    2976 00000181 9691          MOV       *+XAR1[AR0],AL        ; [CPU_] |186| 
    2977                      .dwpsn  file "C:/ti/motorware/motorware_1_01_00_18/sw/solutions/instaspin_foc/src/proj_lab07.c",line 
TMS320C2000 Assembler PC v6.2.5 Thu Jun 22 20:41:15 2017

Tools Copyright (c) 1996-2014 Texas Instruments Incorporated
C:\Users\wmj\AppData\Local\Temp\1712410                              PAGE   59

    2978 00000182 D00F          MOVB      XAR0,#15              ; [CPU_] |190| 
    2979 00000183 9291          MOV       AL,*+XAR1[AR0]        ; [CPU_] |190| 
    2980 00000184 56C0          BF        $C$L34,NEQ            ; [CPU_] |190| 
         00000185 0246 
    2981                      ; branchcc occurs ; [] |190| 
    2982                      .dwpsn  file "C:/ti/motorware/motorware_1_01_00_18/sw/solutions/instaspin_foc/src/proj_lab07.c",line 
    2983 00000186 8AA2          MOVL      XAR4,XAR2             ; [CPU_] |199| 
    2984              $C$DW$349       .dwtag  DW_TAG_TI_branch
    2985                      .dwattr $C$DW$349, DW_AT_low_pc(0x00)
    2986                      .dwattr $C$DW$349, DW_AT_name("_USER_setParams")
    2987                      .dwattr $C$DW$349, DW_AT_TI_call
    2988 00000187 7640!         LCR       #_USER_setParams      ; [CPU_] |199| 
         00000188 0000 
    2989                      ; call occurs [#_USER_setParams] ; [] |199| 
    2990 00000189 761F-         MOVW      DP,#_halHandle        ; [CPU_U] 
         0000018a 0000 
    2991                      .dwpsn  file "C:/ti/motorware/motorware_1_01_00_18/sw/solutions/instaspin_foc/src/proj_lab07.c",line 
    2992 0000018b 83A2          MOVL      XAR5,XAR2             ; [CPU_] |202| 
    2993 0000018c 8A10-         MOVL      XAR4,@_halHandle      ; [CPU_] |202| 
    2994              $C$DW$350       .dwtag  DW_TAG_TI_branch
    2995                      .dwattr $C$DW$350, DW_AT_low_pc(0x00)
    2996                      .dwattr $C$DW$350, DW_AT_name("_HAL_setParams")
    2997                      .dwattr $C$DW$350, DW_AT_TI_call
    2998 0000018d 7640!         LCR       #_HAL_setParams       ; [CPU_] |202| 
         0000018e 0000 
    2999                      ; call occurs [#_HAL_setParams] ; [] |202| 
    3000 0000018f 761F-         MOVW      DP,#_halHandle        ; [CPU_U] 
         00000190 0000 
    3001                      .dwpsn  file "C:/ti/motorware/motorware_1_01_00_18/sw/solutions/instaspin_foc/src/proj_lab07.c",line 
    3002 00000191 9A02          MOVB      AL,#2                 ; [CPU_] |203| 
    3003 00000192 9B58          MOVB      AH,#88                ; [CPU_] |203| 
    3004 00000193 8A10-         MOVL      XAR4,@_halHandle      ; [CPU_] |203| 
    3005              $C$DW$351       .dwtag  DW_TAG_TI_branch
    3006                      .dwattr $C$DW$351, DW_AT_low_pc(0x00)
    3007                      .dwattr $C$DW$351, DW_AT_name("_HAL_I2c_Pca9555_WrData")
    3008                      .dwattr $C$DW$351, DW_AT_TI_call
    3009 00000194 7640!         LCR       #_HAL_I2c_Pca9555_WrData ; [CPU_] |203| 
         00000195 0000 
    3010                      ; call occurs [#_HAL_I2c_Pca9555_WrData] ; [] |203| 
    3011 00000196 761F-         MOVW      DP,#_halHandle        ; [CPU_U] 
         00000197 0000 
    3012                      .dwpsn  file "C:/ti/motorware/motorware_1_01_00_18/sw/solutions/instaspin_foc/src/proj_lab07.c",line 
    3013 00000198 9A02          MOVB      AL,#2                 ; [CPU_] |204| 
    3014 00000199 9B5C          MOVB      AH,#92                ; [CPU_] |204| 
    3015 0000019a 8A10-         MOVL      XAR4,@_halHandle      ; [CPU_] |204| 
    3016              $C$DW$352       .dwtag  DW_TAG_TI_branch
    3017                      .dwattr $C$DW$352, DW_AT_low_pc(0x00)
    3018                      .dwattr $C$DW$352, DW_AT_name("_HAL_I2c_Pca9555_WrData")
    3019                      .dwattr $C$DW$352, DW_AT_TI_call
    3020 0000019b 7640!         LCR       #_HAL_I2c_Pca9555_WrData ; [CPU_] |204| 
         0000019c 0000 
    3021                      ; call occurs [#_HAL_I2c_Pca9555_WrData] ; [] |204| 
    3022                      .dwpsn  file "C:/ti/motorware/motorware_1_01_00_18/sw/solutions/instaspin_foc/src/proj_lab07.c",line 
    3023 0000019d D500          MOVB      XAR5,#0               ; [CPU_] |212| 
    3024 0000019e 8F00-         MOVL      XAR4,#_ctrl           ; [CPU_U] |212| 
TMS320C2000 Assembler PC v6.2.5 Thu Jun 22 20:41:15 2017

Tools Copyright (c) 1996-2014 Texas Instruments Incorporated
C:\Users\wmj\AppData\Local\Temp\1712410                              PAGE   60

         0000019f 01C0 
    3025 000001a0 FF20          MOV       ACC,#264              ; [CPU_] |212| 
         000001a1 0108 
    3026              $C$DW$353       .dwtag  DW_TAG_TI_branch
    3027                      .dwattr $C$DW$353, DW_AT_low_pc(0x00)
    3028                      .dwattr $C$DW$353, DW_AT_name("_CTRL_initCtrl")
    3029                      .dwattr $C$DW$353, DW_AT_TI_call
    3030 000001a2 7640!         LCR       #_CTRL_initCtrl       ; [CPU_] |212| 
         000001a3 0000 
    3031                      ; call occurs [#_CTRL_initCtrl] ; [] |212| 
    3032 000001a4 761F-         MOVW      DP,#_ctrlHandle       ; [CPU_U] 
         000001a5 0000 
    3033                      .dwpsn  file "C:/ti/motorware/motorware_1_01_00_18/sw/solutions/instaspin_foc/src/proj_lab07.c",line 
    3034 000001a6 5DAD          MOVZ      AR5,SP                ; [CPU_U] |220| 
    3035 000001a7 DD8A          SUBB      XAR5,#10              ; [CPU_U] |220| 
    3036                      .dwpsn  file "C:/ti/motorware/motorware_1_01_00_18/sw/solutions/instaspin_foc/src/proj_lab07.c",line 
    3037 000001a8 A81A-         MOVL      @_ctrlHandle,XAR4     ; [CPU_] |212| 
    3038                      .dwpsn  file "C:/ti/motorware/motorware_1_01_00_18/sw/solutions/instaspin_foc/src/proj_lab07.c",line 
    3039              $C$DW$354       .dwtag  DW_TAG_TI_branch
    3040                      .dwattr $C$DW$354, DW_AT_low_pc(0x00)
    3041                      .dwattr $C$DW$354, DW_AT_name("_CTRL_getVersion")
    3042                      .dwattr $C$DW$354, DW_AT_TI_call
    3043 000001a9 7640!         LCR       #_CTRL_getVersion     ; [CPU_] |220| 
         000001aa 0000 
    3044                      ; call occurs [#_CTRL_getVersion] ; [] |220| 
    3045                      .dwpsn  file "C:/ti/motorware/motorware_1_01_00_18/sw/solutions/instaspin_foc/src/proj_lab07.c",line 
    3046 000001ab D910          ADDB      XAR1,#16              ; [CPU_] |222| 
    3047 000001ac 761F-         MOVW      DP,#_ctrlHandle       ; [CPU_U] 
         000001ad 0000 
    3048 000001ae C448          MOVL      XAR6,*-SP[8]          ; [CPU_] |222| 
    3049 000001af 064A          MOVL      ACC,*-SP[10]          ; [CPU_] |222| 
    3050                      .dwpsn  file "C:/ti/motorware/motorware_1_01_00_18/sw/solutions/instaspin_foc/src/proj_lab07.c",line 
    3051 000001b0 83A2          MOVL      XAR5,XAR2             ; [CPU_] |227| 
    3052                      .dwpsn  file "C:/ti/motorware/motorware_1_01_00_18/sw/solutions/instaspin_foc/src/proj_lab07.c",line 
    3053 000001b1 1EC1          MOVL      *+XAR1[0],ACC         ; [CPU_] |222| 
    3054 000001b2 C2D1          MOVL      *+XAR1[2],XAR6        ; [CPU_] |222| 
    3055                      .dwpsn  file "C:/ti/motorware/motorware_1_01_00_18/sw/solutions/instaspin_foc/src/proj_lab07.c",line 
    3056 000001b3 8A1A-         MOVL      XAR4,@_ctrlHandle     ; [CPU_] |227| 
    3057              $C$DW$355       .dwtag  DW_TAG_TI_branch
    3058                      .dwattr $C$DW$355, DW_AT_low_pc(0x00)
    3059                      .dwattr $C$DW$355, DW_AT_name("_CTRL_setParams")
    3060                      .dwattr $C$DW$355, DW_AT_TI_call
    3061 000001b4 7640!         LCR       #_CTRL_setParams      ; [CPU_] |227| 
         000001b5 0000 
    3062                      ; call occurs [#_CTRL_setParams] ; [] |227| 
    3063                      .dwpsn  file "C:/ti/motorware/motorware_1_01_00_18/sw/solutions/instaspin_foc/src/proj_lab07.c",line 
    3064 000001b6 8F00-         MOVL      XAR4,#_fem            ; [CPU_U] |231| 
         000001b7 0040 
    3065 000001b8 0212          MOVB      ACC,#18               ; [CPU_] |231| 
    3066              $C$DW$356       .dwtag  DW_TAG_TI_branch
    3067                      .dwattr $C$DW$356, DW_AT_low_pc(0x00)
    3068                      .dwattr $C$DW$356, DW_AT_name("_FEM_init")
