TMS320C2000 Assembler PC v6.2.5 Mon Jun 19 18:10:36 2017

Tools Copyright (c) 1996-2014 Texas Instruments Incorporated
C:\Users\wmj\AppData\Local\Temp\1804410                              PAGE    1

       1              ;***************************************************************
       2              ;* TMS320C2000 C/C++ Codegen                         PC v6.2.5 *
       3              ;* Date/Time created: Mon Jun 19 18:10:36 2017                 *
       4              ;***************************************************************
       5                      .compiler_opts --float_support=softlib --hll_source=on --mem_model:code=flat --mem_model:data=large -
       6        0002  FP      .set    XAR2
       7              
       8              $C$DW$CU        .dwtag  DW_TAG_compile_unit
       9                      .dwattr $C$DW$CU, DW_AT_name("C:/ti/motorware/motorware_1_01_00_18/sw/drivers/pwm/src/32b/f28x/f2802x
      10                      .dwattr $C$DW$CU, DW_AT_producer("TMS320C2000 C/C++ Codegen PC v6.2.5 Copyright (c) 1996-2014 Texas I
      11                      .dwattr $C$DW$CU, DW_AT_TI_version(0x01)
      12                      .dwattr $C$DW$CU, DW_AT_comp_dir("C:\ti\motorware\motorware_1_01_00_18\sw\solutions\instaspin_foc\boa
      13              ;       c:\ti\ccsv6\tools\compiler\c2000_6.2.5\bin\opt2000.exe C:\\Users\\wmj\\AppData\\Local\\Temp\\180442 C
      14              ;       c:\ti\ccsv6\tools\compiler\c2000_6.2.5\bin\ac2000.exe -@C:\\Users\\wmj\\AppData\\Local\\Temp\\1804416
      15 00000000               .sect   ".text"
      16                      .clink
      17                      .global _PWM_setTripZoneState_TZB
      18              
      19              $C$DW$1 .dwtag  DW_TAG_subprogram, DW_AT_name("PWM_setTripZoneState_TZB")
      20                      .dwattr $C$DW$1, DW_AT_low_pc(_PWM_setTripZoneState_TZB)
      21                      .dwattr $C$DW$1, DW_AT_high_pc(0x00)
      22                      .dwattr $C$DW$1, DW_AT_TI_symbol_name("_PWM_setTripZoneState_TZB")
      23                      .dwattr $C$DW$1, DW_AT_external
      24                      .dwattr $C$DW$1, DW_AT_TI_begin_file("C:/ti/motorware/motorware_1_01_00_18/sw/drivers/pwm/src/32b/f28
      25                      .dwattr $C$DW$1, DW_AT_TI_begin_line(0x655)
      26                      .dwattr $C$DW$1, DW_AT_TI_begin_column(0x06)
      27                      .dwattr $C$DW$1, DW_AT_TI_max_frame_size(-2)
      28                      .dwpsn  file "C:/ti/motorware/motorware_1_01_00_18/sw/drivers/pwm/src/32b/f28x/f2802x/pwm.c",line 162
      29              
      30                      .dwfde $C$DW$CIE, _PWM_setTripZoneState_TZB
      31              $C$DW$2 .dwtag  DW_TAG_formal_parameter, DW_AT_name("pwmHandle")
      32                      .dwattr $C$DW$2, DW_AT_TI_symbol_name("_pwmHandle")
      33                      .dwattr $C$DW$2, DW_AT_type(*$C$DW$T$33)
      34                      .dwattr $C$DW$2, DW_AT_location[DW_OP_reg12]
      35              $C$DW$3 .dwtag  DW_TAG_formal_parameter, DW_AT_name("tripZoneState")
      36                      .dwattr $C$DW$3, DW_AT_TI_symbol_name("_tripZoneState")
      37                      .dwattr $C$DW$3, DW_AT_type(*$C$DW$T$125)
      38                      .dwattr $C$DW$3, DW_AT_location[DW_OP_reg0]
      39              
      40              ;***************************************************************
      41              ;* FNAME: _PWM_setTripZoneState_TZB     FR SIZE:   0           *
      42              ;*                                                             *
      43              ;* FUNCTION ENVIRONMENT                                        *
      44              ;*                                                             *
      45              ;* FUNCTION PROPERTIES                                         *
      46              ;*                            0 Parameter,  0 Auto,  0 SOE     *
      47              ;***************************************************************
      48              
      49              _PWM_setTripZoneState_TZB:
      50              ;* AR4   assigned to _pwmHandle
      51              $C$DW$4 .dwtag  DW_TAG_variable, DW_AT_name("pwmHandle")
      52                      .dwattr $C$DW$4, DW_AT_TI_symbol_name("_pwmHandle")
      53                      .dwattr $C$DW$4, DW_AT_type(*$C$DW$T$127)
      54                      .dwattr $C$DW$4, DW_AT_location[DW_OP_reg12]
      55              ;* AL    assigned to _tripZoneState
TMS320C2000 Assembler PC v6.2.5 Mon Jun 19 18:10:36 2017

Tools Copyright (c) 1996-2014 Texas Instruments Incorporated
C:\Users\wmj\AppData\Local\Temp\1804410                              PAGE    2

      56              $C$DW$5 .dwtag  DW_TAG_variable, DW_AT_name("tripZoneState")
      57                      .dwattr $C$DW$5, DW_AT_TI_symbol_name("_tripZoneState")
      58                      .dwattr $C$DW$5, DW_AT_type(*$C$DW$T$125)
      59                      .dwattr $C$DW$5, DW_AT_location[DW_OP_reg0]
      60                      .dwcfi  cfa_offset, -2
      61                      .dwcfi  save_reg_to_mem, 26, 0
      62                      .dwcfi  save_reg_to_reg, 78, 26
      63 00000000 7622   EALLOW
      64                      .dwpsn  file "C:/ti/motorware/motorware_1_01_00_18/sw/drivers/pwm/src/32b/f28x/f2802x/pwm.c",line 162
      65 00000001 83A4          MOVL      XAR5,XAR4             ; [CPU_] |1629| 
      66                      .dwpsn  file "C:/ti/motorware/motorware_1_01_00_18/sw/drivers/pwm/src/32b/f28x/f2802x/pwm.c",line 163
      67 00000002 5603          MOV       ACC,AL << #2          ; [CPU_] |1632| 
         00000003 02A9 
      68 00000004 DC14          ADDB      XAR4,#20              ; [CPU_] |1632| 
      69                      .dwpsn  file "C:/ti/motorware/motorware_1_01_00_18/sw/drivers/pwm/src/32b/f28x/f2802x/pwm.c",line 162
      70 00000005 DD14          ADDB      XAR5,#20              ; [CPU_] |1629| 
      71 00000006 18C5          AND       *+XAR5[0],#0xfff3     ; [CPU_] |1629| 
         00000007 FFF3 
      72                      .dwpsn  file "C:/ti/motorware/motorware_1_01_00_18/sw/drivers/pwm/src/32b/f28x/f2802x/pwm.c",line 163
      73 00000008 98C4          OR        *+XAR4[0],AL          ; [CPU_] |1632| 
      74 00000009 761A   EDIS
      75 0000000a FF69          SPM       #0                    ; [CPU_] 
      76              $C$DW$6 .dwtag  DW_TAG_TI_branch
      77                      .dwattr $C$DW$6, DW_AT_low_pc(0x00)
      78                      .dwattr $C$DW$6, DW_AT_TI_return
      79 0000000b 0006          LRETR     ; [CPU_] 
      80                      ; return occurs ; [] 
      81                      .dwattr $C$DW$1, DW_AT_TI_end_file("C:/ti/motorware/motorware_1_01_00_18/sw/drivers/pwm/src/32b/f28x/
      82                      .dwattr $C$DW$1, DW_AT_TI_end_line(0x665)
      83                      .dwattr $C$DW$1, DW_AT_TI_end_column(0x01)
      84                      .dwendentry
      85                      .dwendtag $C$DW$1
      86              
      87 0000000c               .sect   ".text"
      88                      .clink
      89                      .global _PWM_setTripZoneState_TZA
      90              
      91              $C$DW$7 .dwtag  DW_TAG_subprogram, DW_AT_name("PWM_setTripZoneState_TZA")
      92                      .dwattr $C$DW$7, DW_AT_low_pc(_PWM_setTripZoneState_TZA)
      93                      .dwattr $C$DW$7, DW_AT_high_pc(0x00)
      94                      .dwattr $C$DW$7, DW_AT_TI_symbol_name("_PWM_setTripZoneState_TZA")
      95                      .dwattr $C$DW$7, DW_AT_external
      96                      .dwattr $C$DW$7, DW_AT_TI_begin_file("C:/ti/motorware/motorware_1_01_00_18/sw/drivers/pwm/src/32b/f28
      97                      .dwattr $C$DW$7, DW_AT_TI_begin_line(0x642)
      98                      .dwattr $C$DW$7, DW_AT_TI_begin_column(0x06)
      99                      .dwattr $C$DW$7, DW_AT_TI_max_frame_size(-2)
     100                      .dwpsn  file "C:/ti/motorware/motorware_1_01_00_18/sw/drivers/pwm/src/32b/f28x/f2802x/pwm.c",line 160
     101              
     102                      .dwfde $C$DW$CIE, _PWM_setTripZoneState_TZA
     103              $C$DW$8 .dwtag  DW_TAG_formal_parameter, DW_AT_name("pwmHandle")
     104                      .dwattr $C$DW$8, DW_AT_TI_symbol_name("_pwmHandle")
     105                      .dwattr $C$DW$8, DW_AT_type(*$C$DW$T$33)
     106                      .dwattr $C$DW$8, DW_AT_location[DW_OP_reg12]
     107              $C$DW$9 .dwtag  DW_TAG_formal_parameter, DW_AT_name("tripZoneState")
     108                      .dwattr $C$DW$9, DW_AT_TI_symbol_name("_tripZoneState")
TMS320C2000 Assembler PC v6.2.5 Mon Jun 19 18:10:36 2017

Tools Copyright (c) 1996-2014 Texas Instruments Incorporated
C:\Users\wmj\AppData\Local\Temp\1804410                              PAGE    3

     109                      .dwattr $C$DW$9, DW_AT_type(*$C$DW$T$125)
     110                      .dwattr $C$DW$9, DW_AT_location[DW_OP_reg0]
     111              
     112              ;***************************************************************
     113              ;* FNAME: _PWM_setTripZoneState_TZA     FR SIZE:   0           *
     114              ;*                                                             *
     115              ;* FUNCTION ENVIRONMENT                                        *
     116              ;*                                                             *
     117              ;* FUNCTION PROPERTIES                                         *
     118              ;*                            0 Parameter,  0 Auto,  0 SOE     *
     119              ;***************************************************************
     120              
     121              _PWM_setTripZoneState_TZA:
     122              ;* AR4   assigned to _pwmHandle
     123              $C$DW$10        .dwtag  DW_TAG_variable, DW_AT_name("pwmHandle")
     124                      .dwattr $C$DW$10, DW_AT_TI_symbol_name("_pwmHandle")
     125                      .dwattr $C$DW$10, DW_AT_type(*$C$DW$T$127)
     126                      .dwattr $C$DW$10, DW_AT_location[DW_OP_reg12]
     127              ;* AL    assigned to _tripZoneState
     128              $C$DW$11        .dwtag  DW_TAG_variable, DW_AT_name("tripZoneState")
     129                      .dwattr $C$DW$11, DW_AT_TI_symbol_name("_tripZoneState")
     130                      .dwattr $C$DW$11, DW_AT_type(*$C$DW$T$125)
     131                      .dwattr $C$DW$11, DW_AT_location[DW_OP_reg0]
     132                      .dwcfi  cfa_offset, -2
     133                      .dwcfi  save_reg_to_mem, 26, 0
     134                      .dwcfi  save_reg_to_reg, 78, 26
     135 0000000c 7622   EALLOW
     136                      .dwpsn  file "C:/ti/motorware/motorware_1_01_00_18/sw/drivers/pwm/src/32b/f28x/f2802x/pwm.c",line 161
     137 0000000d 83A4          MOVL      XAR5,XAR4             ; [CPU_] |1610| 
     138                      .dwpsn  file "C:/ti/motorware/motorware_1_01_00_18/sw/drivers/pwm/src/32b/f28x/f2802x/pwm.c",line 161
     139 0000000e DC14          ADDB      XAR4,#20              ; [CPU_] |1613| 
     140                      .dwpsn  file "C:/ti/motorware/motorware_1_01_00_18/sw/drivers/pwm/src/32b/f28x/f2802x/pwm.c",line 161
     141 0000000f DD14          ADDB      XAR5,#20              ; [CPU_] |1610| 
     142 00000010 18C5          AND       *+XAR5[0],#0xfffc     ; [CPU_] |1610| 
         00000011 FFFC 
     143                      .dwpsn  file "C:/ti/motorware/motorware_1_01_00_18/sw/drivers/pwm/src/32b/f28x/f2802x/pwm.c",line 161
     144 00000012 98C4          OR        *+XAR4[0],AL          ; [CPU_] |1613| 
     145 00000013 761A   EDIS
     146 00000014 FF69          SPM       #0                    ; [CPU_] 
     147              $C$DW$12        .dwtag  DW_TAG_TI_branch
     148                      .dwattr $C$DW$12, DW_AT_low_pc(0x00)
     149                      .dwattr $C$DW$12, DW_AT_TI_return
     150 00000015 0006          LRETR     ; [CPU_] 
     151                      ; return occurs ; [] 
     152                      .dwattr $C$DW$7, DW_AT_TI_end_file("C:/ti/motorware/motorware_1_01_00_18/sw/drivers/pwm/src/32b/f28x/
     153                      .dwattr $C$DW$7, DW_AT_TI_end_line(0x652)
     154                      .dwattr $C$DW$7, DW_AT_TI_end_column(0x01)
     155                      .dwendentry
     156                      .dwendtag $C$DW$7
     157              
     158 00000016               .sect   ".text"
     159                      .clink
     160                      .global _PWM_setTripZoneState_DCBEVT2
     161              
     162              $C$DW$13        .dwtag  DW_TAG_subprogram, DW_AT_name("PWM_setTripZoneState_DCBEVT2")
TMS320C2000 Assembler PC v6.2.5 Mon Jun 19 18:10:36 2017

Tools Copyright (c) 1996-2014 Texas Instruments Incorporated
C:\Users\wmj\AppData\Local\Temp\1804410                              PAGE    4

     163                      .dwattr $C$DW$13, DW_AT_low_pc(_PWM_setTripZoneState_DCBEVT2)
     164                      .dwattr $C$DW$13, DW_AT_high_pc(0x00)
     165                      .dwattr $C$DW$13, DW_AT_TI_symbol_name("_PWM_setTripZoneState_DCBEVT2")
     166                      .dwattr $C$DW$13, DW_AT_external
     167                      .dwattr $C$DW$13, DW_AT_TI_begin_file("C:/ti/motorware/motorware_1_01_00_18/sw/drivers/pwm/src/32b/f2
     168                      .dwattr $C$DW$13, DW_AT_TI_begin_line(0x62f)
     169                      .dwattr $C$DW$13, DW_AT_TI_begin_column(0x06)
     170                      .dwattr $C$DW$13, DW_AT_TI_max_frame_size(-2)
     171                      .dwpsn  file "C:/ti/motorware/motorware_1_01_00_18/sw/drivers/pwm/src/32b/f28x/f2802x/pwm.c",line 158
     172              
     173                      .dwfde $C$DW$CIE, _PWM_setTripZoneState_DCBEVT2
     174              $C$DW$14        .dwtag  DW_TAG_formal_parameter, DW_AT_name("pwmHandle")
     175                      .dwattr $C$DW$14, DW_AT_TI_symbol_name("_pwmHandle")
     176                      .dwattr $C$DW$14, DW_AT_type(*$C$DW$T$33)
     177                      .dwattr $C$DW$14, DW_AT_location[DW_OP_reg12]
     178              $C$DW$15        .dwtag  DW_TAG_formal_parameter, DW_AT_name("tripZoneState")
     179                      .dwattr $C$DW$15, DW_AT_TI_symbol_name("_tripZoneState")
     180                      .dwattr $C$DW$15, DW_AT_type(*$C$DW$T$125)
     181                      .dwattr $C$DW$15, DW_AT_location[DW_OP_reg0]
     182              
     183              ;***************************************************************
     184              ;* FNAME: _PWM_setTripZoneState_DCBEVT2 FR SIZE:   0           *
     185              ;*                                                             *
     186              ;* FUNCTION ENVIRONMENT                                        *
     187              ;*                                                             *
     188              ;* FUNCTION PROPERTIES                                         *
     189              ;*                            0 Parameter,  0 Auto,  0 SOE     *
     190              ;***************************************************************
     191              
     192              _PWM_setTripZoneState_DCBEVT2:
     193              ;* AR4   assigned to _pwmHandle
     194              $C$DW$16        .dwtag  DW_TAG_variable, DW_AT_name("pwmHandle")
     195                      .dwattr $C$DW$16, DW_AT_TI_symbol_name("_pwmHandle")
     196                      .dwattr $C$DW$16, DW_AT_type(*$C$DW$T$127)
     197                      .dwattr $C$DW$16, DW_AT_location[DW_OP_reg12]
     198              ;* AL    assigned to _tripZoneState
     199              $C$DW$17        .dwtag  DW_TAG_variable, DW_AT_name("tripZoneState")
     200                      .dwattr $C$DW$17, DW_AT_TI_symbol_name("_tripZoneState")
     201                      .dwattr $C$DW$17, DW_AT_type(*$C$DW$T$125)
     202                      .dwattr $C$DW$17, DW_AT_location[DW_OP_reg0]
     203                      .dwcfi  cfa_offset, -2
     204                      .dwcfi  save_reg_to_mem, 26, 0
     205                      .dwcfi  save_reg_to_reg, 78, 26
     206 00000016 7622   EALLOW
     207                      .dwpsn  file "C:/ti/motorware/motorware_1_01_00_18/sw/drivers/pwm/src/32b/f28x/f2802x/pwm.c",line 159
     208 00000017 83A4          MOVL      XAR5,XAR4             ; [CPU_] |1591| 
     209                      .dwpsn  file "C:/ti/motorware/motorware_1_01_00_18/sw/drivers/pwm/src/32b/f28x/f2802x/pwm.c",line 159
     210 00000018 5603          MOV       ACC,AL << #10         ; [CPU_] |1594| 
         00000019 0AA9 
     211 0000001a DC14          ADDB      XAR4,#20              ; [CPU_] |1594| 
     212                      .dwpsn  file "C:/ti/motorware/motorware_1_01_00_18/sw/drivers/pwm/src/32b/f28x/f2802x/pwm.c",line 159
     213 0000001b DD14          ADDB      XAR5,#20              ; [CPU_] |1591| 
     214 0000001c 18C5          AND       *+XAR5[0],#0xf3ff     ; [CPU_] |1591| 
         0000001d F3FF 
     215                      .dwpsn  file "C:/ti/motorware/motorware_1_01_00_18/sw/drivers/pwm/src/32b/f28x/f2802x/pwm.c",line 159
TMS320C2000 Assembler PC v6.2.5 Mon Jun 19 18:10:36 2017

Tools Copyright (c) 1996-2014 Texas Instruments Incorporated
C:\Users\wmj\AppData\Local\Temp\1804410                              PAGE    5

     216 0000001e 98C4          OR        *+XAR4[0],AL          ; [CPU_] |1594| 
     217 0000001f 761A   EDIS
     218 00000020 FF69          SPM       #0                    ; [CPU_] 
     219              $C$DW$18        .dwtag  DW_TAG_TI_branch
     220                      .dwattr $C$DW$18, DW_AT_low_pc(0x00)
     221                      .dwattr $C$DW$18, DW_AT_TI_return
     222 00000021 0006          LRETR     ; [CPU_] 
     223                      ; return occurs ; [] 
     224                      .dwattr $C$DW$13, DW_AT_TI_end_file("C:/ti/motorware/motorware_1_01_00_18/sw/drivers/pwm/src/32b/f28x
     225                      .dwattr $C$DW$13, DW_AT_TI_end_line(0x63f)
     226                      .dwattr $C$DW$13, DW_AT_TI_end_column(0x01)
     227                      .dwendentry
     228                      .dwendtag $C$DW$13
     229              
     230 00000022               .sect   ".text"
     231                      .clink
     232                      .global _PWM_setTripZoneState_DCBEVT1
     233              
     234              $C$DW$19        .dwtag  DW_TAG_subprogram, DW_AT_name("PWM_setTripZoneState_DCBEVT1")
     235                      .dwattr $C$DW$19, DW_AT_low_pc(_PWM_setTripZoneState_DCBEVT1)
     236                      .dwattr $C$DW$19, DW_AT_high_pc(0x00)
     237                      .dwattr $C$DW$19, DW_AT_TI_symbol_name("_PWM_setTripZoneState_DCBEVT1")
     238                      .dwattr $C$DW$19, DW_AT_external
     239                      .dwattr $C$DW$19, DW_AT_TI_begin_file("C:/ti/motorware/motorware_1_01_00_18/sw/drivers/pwm/src/32b/f2
     240                      .dwattr $C$DW$19, DW_AT_TI_begin_line(0x61c)
     241                      .dwattr $C$DW$19, DW_AT_TI_begin_column(0x06)
     242                      .dwattr $C$DW$19, DW_AT_TI_max_frame_size(-2)
     243                      .dwpsn  file "C:/ti/motorware/motorware_1_01_00_18/sw/drivers/pwm/src/32b/f28x/f2802x/pwm.c",line 156
     244              
     245                      .dwfde $C$DW$CIE, _PWM_setTripZoneState_DCBEVT1
     246              $C$DW$20        .dwtag  DW_TAG_formal_parameter, DW_AT_name("pwmHandle")
     247                      .dwattr $C$DW$20, DW_AT_TI_symbol_name("_pwmHandle")
     248                      .dwattr $C$DW$20, DW_AT_type(*$C$DW$T$33)
     249                      .dwattr $C$DW$20, DW_AT_location[DW_OP_reg12]
     250              $C$DW$21        .dwtag  DW_TAG_formal_parameter, DW_AT_name("tripZoneState")
     251                      .dwattr $C$DW$21, DW_AT_TI_symbol_name("_tripZoneState")
     252                      .dwattr $C$DW$21, DW_AT_type(*$C$DW$T$125)
     253                      .dwattr $C$DW$21, DW_AT_location[DW_OP_reg0]
     254              
     255              ;***************************************************************
     256              ;* FNAME: _PWM_setTripZoneState_DCBEVT1 FR SIZE:   0           *
     257              ;*                                                             *
     258              ;* FUNCTION ENVIRONMENT                                        *
     259              ;*                                                             *
     260              ;* FUNCTION PROPERTIES                                         *
     261              ;*                            0 Parameter,  0 Auto,  0 SOE     *
     262              ;***************************************************************
     263              
     264              _PWM_setTripZoneState_DCBEVT1:
     265              ;* AR4   assigned to _pwmHandle
     266              $C$DW$22        .dwtag  DW_TAG_variable, DW_AT_name("pwmHandle")
     267                      .dwattr $C$DW$22, DW_AT_TI_symbol_name("_pwmHandle")
     268                      .dwattr $C$DW$22, DW_AT_type(*$C$DW$T$127)
     269                      .dwattr $C$DW$22, DW_AT_location[DW_OP_reg12]
     270              ;* AL    assigned to _tripZoneState
TMS320C2000 Assembler PC v6.2.5 Mon Jun 19 18:10:36 2017

Tools Copyright (c) 1996-2014 Texas Instruments Incorporated
C:\Users\wmj\AppData\Local\Temp\1804410                              PAGE    6

     271              $C$DW$23        .dwtag  DW_TAG_variable, DW_AT_name("tripZoneState")
     272                      .dwattr $C$DW$23, DW_AT_TI_symbol_name("_tripZoneState")
     273                      .dwattr $C$DW$23, DW_AT_type(*$C$DW$T$125)
     274                      .dwattr $C$DW$23, DW_AT_location[DW_OP_reg0]
     275                      .dwcfi  cfa_offset, -2
     276                      .dwcfi  save_reg_to_mem, 26, 0
     277                      .dwcfi  save_reg_to_reg, 78, 26
     278 00000022 7622   EALLOW
     279                      .dwpsn  file "C:/ti/motorware/motorware_1_01_00_18/sw/drivers/pwm/src/32b/f28x/f2802x/pwm.c",line 157
     280 00000023 83A4          MOVL      XAR5,XAR4             ; [CPU_] |1572| 
     281                      .dwpsn  file "C:/ti/motorware/motorware_1_01_00_18/sw/drivers/pwm/src/32b/f28x/f2802x/pwm.c",line 157
     282 00000024 5603          MOV       ACC,AL << #8          ; [CPU_] |1575| 
         00000025 08A9 
     283 00000026 DC14          ADDB      XAR4,#20              ; [CPU_] |1575| 
     284                      .dwpsn  file "C:/ti/motorware/motorware_1_01_00_18/sw/drivers/pwm/src/32b/f28x/f2802x/pwm.c",line 157
     285 00000027 DD14          ADDB      XAR5,#20              ; [CPU_] |1572| 
     286 00000028 18C5          AND       *+XAR5[0],#0xfcff     ; [CPU_] |1572| 
         00000029 FCFF 
     287                      .dwpsn  file "C:/ti/motorware/motorware_1_01_00_18/sw/drivers/pwm/src/32b/f28x/f2802x/pwm.c",line 157
     288 0000002a 98C4          OR        *+XAR4[0],AL          ; [CPU_] |1575| 
     289 0000002b 761A   EDIS
     290 0000002c FF69          SPM       #0                    ; [CPU_] 
     291              $C$DW$24        .dwtag  DW_TAG_TI_branch
     292                      .dwattr $C$DW$24, DW_AT_low_pc(0x00)
     293                      .dwattr $C$DW$24, DW_AT_TI_return
     294 0000002d 0006          LRETR     ; [CPU_] 
     295                      ; return occurs ; [] 
     296                      .dwattr $C$DW$19, DW_AT_TI_end_file("C:/ti/motorware/motorware_1_01_00_18/sw/drivers/pwm/src/32b/f28x
     297                      .dwattr $C$DW$19, DW_AT_TI_end_line(0x62c)
     298                      .dwattr $C$DW$19, DW_AT_TI_end_column(0x01)
     299                      .dwendentry
     300                      .dwendtag $C$DW$19
     301              
     302 0000002e               .sect   ".text"
     303                      .clink
     304                      .global _PWM_setTripZoneState_DCAEVT2
     305              
     306              $C$DW$25        .dwtag  DW_TAG_subprogram, DW_AT_name("PWM_setTripZoneState_DCAEVT2")
     307                      .dwattr $C$DW$25, DW_AT_low_pc(_PWM_setTripZoneState_DCAEVT2)
     308                      .dwattr $C$DW$25, DW_AT_high_pc(0x00)
     309                      .dwattr $C$DW$25, DW_AT_TI_symbol_name("_PWM_setTripZoneState_DCAEVT2")
     310                      .dwattr $C$DW$25, DW_AT_external
     311                      .dwattr $C$DW$25, DW_AT_TI_begin_file("C:/ti/motorware/motorware_1_01_00_18/sw/drivers/pwm/src/32b/f2
     312                      .dwattr $C$DW$25, DW_AT_TI_begin_line(0x609)
     313                      .dwattr $C$DW$25, DW_AT_TI_begin_column(0x06)
     314                      .dwattr $C$DW$25, DW_AT_TI_max_frame_size(-2)
     315                      .dwpsn  file "C:/ti/motorware/motorware_1_01_00_18/sw/drivers/pwm/src/32b/f28x/f2802x/pwm.c",line 154
     316              
     317                      .dwfde $C$DW$CIE, _PWM_setTripZoneState_DCAEVT2
     318              $C$DW$26        .dwtag  DW_TAG_formal_parameter, DW_AT_name("pwmHandle")
     319                      .dwattr $C$DW$26, DW_AT_TI_symbol_name("_pwmHandle")
     320                      .dwattr $C$DW$26, DW_AT_type(*$C$DW$T$33)
     321                      .dwattr $C$DW$26, DW_AT_location[DW_OP_reg12]
     322              $C$DW$27        .dwtag  DW_TAG_formal_parameter, DW_AT_name("tripZoneState")
     323                      .dwattr $C$DW$27, DW_AT_TI_symbol_name("_tripZoneState")
TMS320C2000 Assembler PC v6.2.5 Mon Jun 19 18:10:36 2017

Tools Copyright (c) 1996-2014 Texas Instruments Incorporated
C:\Users\wmj\AppData\Local\Temp\1804410                              PAGE    7

     324                      .dwattr $C$DW$27, DW_AT_type(*$C$DW$T$125)
     325                      .dwattr $C$DW$27, DW_AT_location[DW_OP_reg0]
     326              
     327              ;***************************************************************
     328              ;* FNAME: _PWM_setTripZoneState_DCAEVT2 FR SIZE:   0           *
     329              ;*                                                             *
     330              ;* FUNCTION ENVIRONMENT                                        *
     331              ;*                                                             *
     332              ;* FUNCTION PROPERTIES                                         *
     333              ;*                            0 Parameter,  0 Auto,  0 SOE     *
     334              ;***************************************************************
     335              
     336              _PWM_setTripZoneState_DCAEVT2:
     337              ;* AR4   assigned to _pwmHandle
     338              $C$DW$28        .dwtag  DW_TAG_variable, DW_AT_name("pwmHandle")
     339                      .dwattr $C$DW$28, DW_AT_TI_symbol_name("_pwmHandle")
     340                      .dwattr $C$DW$28, DW_AT_type(*$C$DW$T$127)
     341                      .dwattr $C$DW$28, DW_AT_location[DW_OP_reg12]
     342              ;* AL    assigned to _tripZoneState
     343              $C$DW$29        .dwtag  DW_TAG_variable, DW_AT_name("tripZoneState")
     344                      .dwattr $C$DW$29, DW_AT_TI_symbol_name("_tripZoneState")
     345                      .dwattr $C$DW$29, DW_AT_type(*$C$DW$T$125)
     346                      .dwattr $C$DW$29, DW_AT_location[DW_OP_reg0]
     347                      .dwcfi  cfa_offset, -2
     348                      .dwcfi  save_reg_to_mem, 26, 0
     349                      .dwcfi  save_reg_to_reg, 78, 26
     350 0000002e 7622   EALLOW
     351                      .dwpsn  file "C:/ti/motorware/motorware_1_01_00_18/sw/drivers/pwm/src/32b/f28x/f2802x/pwm.c",line 155
     352 0000002f 83A4          MOVL      XAR5,XAR4             ; [CPU_] |1553| 
     353                      .dwpsn  file "C:/ti/motorware/motorware_1_01_00_18/sw/drivers/pwm/src/32b/f28x/f2802x/pwm.c",line 155
     354 00000030 5603          MOV       ACC,AL << #6          ; [CPU_] |1556| 
         00000031 06A9 
     355 00000032 DC14          ADDB      XAR4,#20              ; [CPU_] |1556| 
     356                      .dwpsn  file "C:/ti/motorware/motorware_1_01_00_18/sw/drivers/pwm/src/32b/f28x/f2802x/pwm.c",line 155
     357 00000033 DD14          ADDB      XAR5,#20              ; [CPU_] |1553| 
     358 00000034 18C5          AND       *+XAR5[0],#0xff3f     ; [CPU_] |1553| 
         00000035 FF3F 
     359                      .dwpsn  file "C:/ti/motorware/motorware_1_01_00_18/sw/drivers/pwm/src/32b/f28x/f2802x/pwm.c",line 155
     360 00000036 98C4          OR        *+XAR4[0],AL          ; [CPU_] |1556| 
     361 00000037 761A   EDIS
     362 00000038 FF69          SPM       #0                    ; [CPU_] 
     363              $C$DW$30        .dwtag  DW_TAG_TI_branch
     364                      .dwattr $C$DW$30, DW_AT_low_pc(0x00)
     365                      .dwattr $C$DW$30, DW_AT_TI_return
     366 00000039 0006          LRETR     ; [CPU_] 
     367                      ; return occurs ; [] 
     368                      .dwattr $C$DW$25, DW_AT_TI_end_file("C:/ti/motorware/motorware_1_01_00_18/sw/drivers/pwm/src/32b/f28x
     369                      .dwattr $C$DW$25, DW_AT_TI_end_line(0x619)
     370                      .dwattr $C$DW$25, DW_AT_TI_end_column(0x01)
     371                      .dwendentry
     372                      .dwendtag $C$DW$25
     373              
     374 0000003a               .sect   ".text"
     375                      .clink
     376                      .global _PWM_setTripZoneState_DCAEVT1
TMS320C2000 Assembler PC v6.2.5 Mon Jun 19 18:10:36 2017

Tools Copyright (c) 1996-2014 Texas Instruments Incorporated
C:\Users\wmj\AppData\Local\Temp\1804410                              PAGE    8

     377              
     378              $C$DW$31        .dwtag  DW_TAG_subprogram, DW_AT_name("PWM_setTripZoneState_DCAEVT1")
     379                      .dwattr $C$DW$31, DW_AT_low_pc(_PWM_setTripZoneState_DCAEVT1)
     380                      .dwattr $C$DW$31, DW_AT_high_pc(0x00)
     381                      .dwattr $C$DW$31, DW_AT_TI_symbol_name("_PWM_setTripZoneState_DCAEVT1")
     382                      .dwattr $C$DW$31, DW_AT_external
     383                      .dwattr $C$DW$31, DW_AT_TI_begin_file("C:/ti/motorware/motorware_1_01_00_18/sw/drivers/pwm/src/32b/f2
     384                      .dwattr $C$DW$31, DW_AT_TI_begin_line(0x5f6)
     385                      .dwattr $C$DW$31, DW_AT_TI_begin_column(0x06)
     386                      .dwattr $C$DW$31, DW_AT_TI_max_frame_size(-2)
     387                      .dwpsn  file "C:/ti/motorware/motorware_1_01_00_18/sw/drivers/pwm/src/32b/f28x/f2802x/pwm.c",line 152
     388              
     389                      .dwfde $C$DW$CIE, _PWM_setTripZoneState_DCAEVT1
     390              $C$DW$32        .dwtag  DW_TAG_formal_parameter, DW_AT_name("pwmHandle")
     391                      .dwattr $C$DW$32, DW_AT_TI_symbol_name("_pwmHandle")
     392                      .dwattr $C$DW$32, DW_AT_type(*$C$DW$T$33)
     393                      .dwattr $C$DW$32, DW_AT_location[DW_OP_reg12]
     394              $C$DW$33        .dwtag  DW_TAG_formal_parameter, DW_AT_name("tripZoneState")
     395                      .dwattr $C$DW$33, DW_AT_TI_symbol_name("_tripZoneState")
     396                      .dwattr $C$DW$33, DW_AT_type(*$C$DW$T$125)
     397                      .dwattr $C$DW$33, DW_AT_location[DW_OP_reg0]
     398              
     399              ;***************************************************************
     400              ;* FNAME: _PWM_setTripZoneState_DCAEVT1 FR SIZE:   0           *
     401              ;*                                                             *
     402              ;* FUNCTION ENVIRONMENT                                        *
     403              ;*                                                             *
     404              ;* FUNCTION PROPERTIES                                         *
     405              ;*                            0 Parameter,  0 Auto,  0 SOE     *
     406              ;***************************************************************
     407              
     408              _PWM_setTripZoneState_DCAEVT1:
     409              ;* AR4   assigned to _pwmHandle
     410              $C$DW$34        .dwtag  DW_TAG_variable, DW_AT_name("pwmHandle")
     411                      .dwattr $C$DW$34, DW_AT_TI_symbol_name("_pwmHandle")
     412                      .dwattr $C$DW$34, DW_AT_type(*$C$DW$T$127)
     413                      .dwattr $C$DW$34, DW_AT_location[DW_OP_reg12]
     414              ;* AL    assigned to _tripZoneState
     415              $C$DW$35        .dwtag  DW_TAG_variable, DW_AT_name("tripZoneState")
     416                      .dwattr $C$DW$35, DW_AT_TI_symbol_name("_tripZoneState")
     417                      .dwattr $C$DW$35, DW_AT_type(*$C$DW$T$125)
     418                      .dwattr $C$DW$35, DW_AT_location[DW_OP_reg0]
     419                      .dwcfi  cfa_offset, -2
     420                      .dwcfi  save_reg_to_mem, 26, 0
     421                      .dwcfi  save_reg_to_reg, 78, 26
     422 0000003a 7622   EALLOW
     423                      .dwpsn  file "C:/ti/motorware/motorware_1_01_00_18/sw/drivers/pwm/src/32b/f28x/f2802x/pwm.c",line 153
     424 0000003b 83A4          MOVL      XAR5,XAR4             ; [CPU_] |1534| 
     425                      .dwpsn  file "C:/ti/motorware/motorware_1_01_00_18/sw/drivers/pwm/src/32b/f28x/f2802x/pwm.c",line 153
     426 0000003c 5603          MOV       ACC,AL << #4          ; [CPU_] |1537| 
         0000003d 04A9 
     427 0000003e DC14          ADDB      XAR4,#20              ; [CPU_] |1537| 
     428                      .dwpsn  file "C:/ti/motorware/motorware_1_01_00_18/sw/drivers/pwm/src/32b/f28x/f2802x/pwm.c",line 153
     429 0000003f DD14          ADDB      XAR5,#20              ; [CPU_] |1534| 
     430 00000040 18C5          AND       *+XAR5[0],#0xffcf     ; [CPU_] |1534| 
TMS320C2000 Assembler PC v6.2.5 Mon Jun 19 18:10:36 2017

Tools Copyright (c) 1996-2014 Texas Instruments Incorporated
C:\Users\wmj\AppData\Local\Temp\1804410                              PAGE    9

         00000041 FFCF 
     431                      .dwpsn  file "C:/ti/motorware/motorware_1_01_00_18/sw/drivers/pwm/src/32b/f28x/f2802x/pwm.c",line 153
     432 00000042 98C4          OR        *+XAR4[0],AL          ; [CPU_] |1537| 
     433 00000043 761A   EDIS
     434 00000044 FF69          SPM       #0                    ; [CPU_] 
     435              $C$DW$36        .dwtag  DW_TAG_TI_branch
     436                      .dwattr $C$DW$36, DW_AT_low_pc(0x00)
     437                      .dwattr $C$DW$36, DW_AT_TI_return
     438 00000045 0006          LRETR     ; [CPU_] 
     439                      ; return occurs ; [] 
     440                      .dwattr $C$DW$31, DW_AT_TI_end_file("C:/ti/motorware/motorware_1_01_00_18/sw/drivers/pwm/src/32b/f28x
     441                      .dwattr $C$DW$31, DW_AT_TI_end_line(0x606)
     442                      .dwattr $C$DW$31, DW_AT_TI_end_column(0x01)
     443                      .dwendentry
     444                      .dwendtag $C$DW$31
     445              
     446 00000046               .sect   ".text"
     447                      .clink
     448                      .global _PWM_setTripZoneDCEventSelect_DCBEVT2
     449              
     450              $C$DW$37        .dwtag  DW_TAG_subprogram, DW_AT_name("PWM_setTripZoneDCEventSelect_DCBEVT2")
     451                      .dwattr $C$DW$37, DW_AT_low_pc(_PWM_setTripZoneDCEventSelect_DCBEVT2)
     452                      .dwattr $C$DW$37, DW_AT_high_pc(0x00)
     453                      .dwattr $C$DW$37, DW_AT_TI_symbol_name("_PWM_setTripZoneDCEventSelect_DCBEVT2")
     454                      .dwattr $C$DW$37, DW_AT_external
     455                      .dwattr $C$DW$37, DW_AT_TI_begin_file("C:/ti/motorware/motorware_1_01_00_18/sw/drivers/pwm/src/32b/f2
     456                      .dwattr $C$DW$37, DW_AT_TI_begin_line(0x5e3)
     457                      .dwattr $C$DW$37, DW_AT_TI_begin_column(0x06)
     458                      .dwattr $C$DW$37, DW_AT_TI_max_frame_size(-2)
     459                      .dwpsn  file "C:/ti/motorware/motorware_1_01_00_18/sw/drivers/pwm/src/32b/f28x/f2802x/pwm.c",line 150
     460              
     461                      .dwfde $C$DW$CIE, _PWM_setTripZoneDCEventSelect_DCBEVT2
     462              $C$DW$38        .dwtag  DW_TAG_formal_parameter, DW_AT_name("pwmHandle")
     463                      .dwattr $C$DW$38, DW_AT_TI_symbol_name("_pwmHandle")
     464                      .dwattr $C$DW$38, DW_AT_type(*$C$DW$T$33)
     465                      .dwattr $C$DW$38, DW_AT_location[DW_OP_reg12]
     466              $C$DW$39        .dwtag  DW_TAG_formal_parameter, DW_AT_name("tripZoneEvent")
     467                      .dwattr $C$DW$39, DW_AT_TI_symbol_name("_tripZoneEvent")
     468                      .dwattr $C$DW$39, DW_AT_type(*$C$DW$T$122)
     469                      .dwattr $C$DW$39, DW_AT_location[DW_OP_reg0]
     470              
     471              ;***************************************************************
     472              ;* FNAME: _PWM_setTripZoneDCEventSelect_DCBEVT2 FR SIZE:   0           *
     473              ;*                                                             *
     474              ;* FUNCTION ENVIRONMENT                                        *
     475              ;*                                                             *
     476              ;* FUNCTION PROPERTIES                                         *
     477              ;*                            0 Parameter,  0 Auto,  0 SOE     *
     478              ;***************************************************************
     479              
     480              _PWM_setTripZoneDCEventSelect_DCBEVT2:
     481              ;* AR4   assigned to _pwmHandle
     482              $C$DW$40        .dwtag  DW_TAG_variable, DW_AT_name("pwmHandle")
     483                      .dwattr $C$DW$40, DW_AT_TI_symbol_name("_pwmHandle")
     484                      .dwattr $C$DW$40, DW_AT_type(*$C$DW$T$127)
TMS320C2000 Assembler PC v6.2.5 Mon Jun 19 18:10:36 2017

Tools Copyright (c) 1996-2014 Texas Instruments Incorporated
C:\Users\wmj\AppData\Local\Temp\1804410                              PAGE   10

     485                      .dwattr $C$DW$40, DW_AT_location[DW_OP_reg12]
     486              ;* AL    assigned to _tripZoneEvent
     487              $C$DW$41        .dwtag  DW_TAG_variable, DW_AT_name("tripZoneEvent")
     488                      .dwattr $C$DW$41, DW_AT_TI_symbol_name("_tripZoneEvent")
     489                      .dwattr $C$DW$41, DW_AT_type(*$C$DW$T$122)
     490                      .dwattr $C$DW$41, DW_AT_location[DW_OP_reg0]
     491                      .dwcfi  cfa_offset, -2
     492                      .dwcfi  save_reg_to_mem, 26, 0
     493                      .dwcfi  save_reg_to_reg, 78, 26
     494 00000046 7622   EALLOW
     495                      .dwpsn  file "C:/ti/motorware/motorware_1_01_00_18/sw/drivers/pwm/src/32b/f28x/f2802x/pwm.c",line 151
     496 00000047 83A4          MOVL      XAR5,XAR4             ; [CPU_] |1515| 
     497                      .dwpsn  file "C:/ti/motorware/motorware_1_01_00_18/sw/drivers/pwm/src/32b/f28x/f2802x/pwm.c",line 151
     498 00000048 5603          MOV       ACC,AL << #9          ; [CPU_] |1518| 
         00000049 09A9 
     499 0000004a DC13          ADDB      XAR4,#19              ; [CPU_] |1518| 
     500                      .dwpsn  file "C:/ti/motorware/motorware_1_01_00_18/sw/drivers/pwm/src/32b/f28x/f2802x/pwm.c",line 151
     501 0000004b DD13          ADDB      XAR5,#19              ; [CPU_] |1515| 
     502 0000004c 18C5          AND       *+XAR5[0],#0xf1ff     ; [CPU_] |1515| 
         0000004d F1FF 
     503                      .dwpsn  file "C:/ti/motorware/motorware_1_01_00_18/sw/drivers/pwm/src/32b/f28x/f2802x/pwm.c",line 151
     504 0000004e 98C4          OR        *+XAR4[0],AL          ; [CPU_] |1518| 
     505 0000004f 761A   EDIS
     506 00000050 FF69          SPM       #0                    ; [CPU_] 
     507              $C$DW$42        .dwtag  DW_TAG_TI_branch
     508                      .dwattr $C$DW$42, DW_AT_low_pc(0x00)
     509                      .dwattr $C$DW$42, DW_AT_TI_return
     510 00000051 0006          LRETR     ; [CPU_] 
     511                      ; return occurs ; [] 
     512                      .dwattr $C$DW$37, DW_AT_TI_end_file("C:/ti/motorware/motorware_1_01_00_18/sw/drivers/pwm/src/32b/f28x
     513                      .dwattr $C$DW$37, DW_AT_TI_end_line(0x5f3)
     514                      .dwattr $C$DW$37, DW_AT_TI_end_column(0x01)
     515                      .dwendentry
     516                      .dwendtag $C$DW$37
     517              
     518 00000052               .sect   ".text"
     519                      .clink
     520                      .global _PWM_setTripZoneDCEventSelect_DCBEVT1
     521              
     522              $C$DW$43        .dwtag  DW_TAG_subprogram, DW_AT_name("PWM_setTripZoneDCEventSelect_DCBEVT1")
     523                      .dwattr $C$DW$43, DW_AT_low_pc(_PWM_setTripZoneDCEventSelect_DCBEVT1)
     524                      .dwattr $C$DW$43, DW_AT_high_pc(0x00)
     525                      .dwattr $C$DW$43, DW_AT_TI_symbol_name("_PWM_setTripZoneDCEventSelect_DCBEVT1")
     526                      .dwattr $C$DW$43, DW_AT_external
     527                      .dwattr $C$DW$43, DW_AT_TI_begin_file("C:/ti/motorware/motorware_1_01_00_18/sw/drivers/pwm/src/32b/f2
     528                      .dwattr $C$DW$43, DW_AT_TI_begin_line(0x5d0)
     529                      .dwattr $C$DW$43, DW_AT_TI_begin_column(0x06)
     530                      .dwattr $C$DW$43, DW_AT_TI_max_frame_size(-2)
     531                      .dwpsn  file "C:/ti/motorware/motorware_1_01_00_18/sw/drivers/pwm/src/32b/f28x/f2802x/pwm.c",line 148
     532              
     533                      .dwfde $C$DW$CIE, _PWM_setTripZoneDCEventSelect_DCBEVT1
     534              $C$DW$44        .dwtag  DW_TAG_formal_parameter, DW_AT_name("pwmHandle")
     535                      .dwattr $C$DW$44, DW_AT_TI_symbol_name("_pwmHandle")
     536                      .dwattr $C$DW$44, DW_AT_type(*$C$DW$T$33)
     537                      .dwattr $C$DW$44, DW_AT_location[DW_OP_reg12]
TMS320C2000 Assembler PC v6.2.5 Mon Jun 19 18:10:36 2017

Tools Copyright (c) 1996-2014 Texas Instruments Incorporated
C:\Users\wmj\AppData\Local\Temp\1804410                              PAGE   11

     538              $C$DW$45        .dwtag  DW_TAG_formal_parameter, DW_AT_name("tripZoneEvent")
     539                      .dwattr $C$DW$45, DW_AT_TI_symbol_name("_tripZoneEvent")
     540                      .dwattr $C$DW$45, DW_AT_type(*$C$DW$T$122)
     541                      .dwattr $C$DW$45, DW_AT_location[DW_OP_reg0]
     542              
     543              ;***************************************************************
     544              ;* FNAME: _PWM_setTripZoneDCEventSelect_DCBEVT1 FR SIZE:   0           *
     545              ;*                                                             *
     546              ;* FUNCTION ENVIRONMENT                                        *
     547              ;*                                                             *
     548              ;* FUNCTION PROPERTIES                                         *
     549              ;*                            0 Parameter,  0 Auto,  0 SOE     *
     550              ;***************************************************************
     551              
     552              _PWM_setTripZoneDCEventSelect_DCBEVT1:
     553              ;* AR4   assigned to _pwmHandle
     554              $C$DW$46        .dwtag  DW_TAG_variable, DW_AT_name("pwmHandle")
     555                      .dwattr $C$DW$46, DW_AT_TI_symbol_name("_pwmHandle")
     556                      .dwattr $C$DW$46, DW_AT_type(*$C$DW$T$127)
     557                      .dwattr $C$DW$46, DW_AT_location[DW_OP_reg12]
     558              ;* AL    assigned to _tripZoneEvent
     559              $C$DW$47        .dwtag  DW_TAG_variable, DW_AT_name("tripZoneEvent")
     560                      .dwattr $C$DW$47, DW_AT_TI_symbol_name("_tripZoneEvent")
     561                      .dwattr $C$DW$47, DW_AT_type(*$C$DW$T$122)
     562                      .dwattr $C$DW$47, DW_AT_location[DW_OP_reg0]
     563                      .dwcfi  cfa_offset, -2
     564                      .dwcfi  save_reg_to_mem, 26, 0
     565                      .dwcfi  save_reg_to_reg, 78, 26
     566 00000052 7622   EALLOW
     567                      .dwpsn  file "C:/ti/motorware/motorware_1_01_00_18/sw/drivers/pwm/src/32b/f28x/f2802x/pwm.c",line 149
     568 00000053 83A4          MOVL      XAR5,XAR4             ; [CPU_] |1496| 
     569                      .dwpsn  file "C:/ti/motorware/motorware_1_01_00_18/sw/drivers/pwm/src/32b/f28x/f2802x/pwm.c",line 149
     570 00000054 5603          MOV       ACC,AL << #6          ; [CPU_] |1499| 
         00000055 06A9 
     571 00000056 DC13          ADDB      XAR4,#19              ; [CPU_] |1499| 
     572                      .dwpsn  file "C:/ti/motorware/motorware_1_01_00_18/sw/drivers/pwm/src/32b/f28x/f2802x/pwm.c",line 149
     573 00000057 DD13          ADDB      XAR5,#19              ; [CPU_] |1496| 
     574 00000058 18C5          AND       *+XAR5[0],#0xfe3f     ; [CPU_] |1496| 
         00000059 FE3F 
     575                      .dwpsn  file "C:/ti/motorware/motorware_1_01_00_18/sw/drivers/pwm/src/32b/f28x/f2802x/pwm.c",line 149
     576 0000005a 98C4          OR        *+XAR4[0],AL          ; [CPU_] |1499| 
     577 0000005b 761A   EDIS
     578 0000005c FF69          SPM       #0                    ; [CPU_] 
     579              $C$DW$48        .dwtag  DW_TAG_TI_branch
     580                      .dwattr $C$DW$48, DW_AT_low_pc(0x00)
     581                      .dwattr $C$DW$48, DW_AT_TI_return
     582 0000005d 0006          LRETR     ; [CPU_] 
     583                      ; return occurs ; [] 
     584                      .dwattr $C$DW$43, DW_AT_TI_end_file("C:/ti/motorware/motorware_1_01_00_18/sw/drivers/pwm/src/32b/f28x
     585                      .dwattr $C$DW$43, DW_AT_TI_end_line(0x5e0)
     586                      .dwattr $C$DW$43, DW_AT_TI_end_column(0x01)
     587                      .dwendentry
     588                      .dwendtag $C$DW$43
     589              
     590 0000005e               .sect   ".text"
TMS320C2000 Assembler PC v6.2.5 Mon Jun 19 18:10:36 2017

Tools Copyright (c) 1996-2014 Texas Instruments Incorporated
C:\Users\wmj\AppData\Local\Temp\1804410                              PAGE   12

     591                      .clink
     592                      .global _PWM_setTripZoneDCEventSelect_DCAEVT2
     593              
     594              $C$DW$49        .dwtag  DW_TAG_subprogram, DW_AT_name("PWM_setTripZoneDCEventSelect_DCAEVT2")
     595                      .dwattr $C$DW$49, DW_AT_low_pc(_PWM_setTripZoneDCEventSelect_DCAEVT2)
     596                      .dwattr $C$DW$49, DW_AT_high_pc(0x00)
     597                      .dwattr $C$DW$49, DW_AT_TI_symbol_name("_PWM_setTripZoneDCEventSelect_DCAEVT2")
     598                      .dwattr $C$DW$49, DW_AT_external
     599                      .dwattr $C$DW$49, DW_AT_TI_begin_file("C:/ti/motorware/motorware_1_01_00_18/sw/drivers/pwm/src/32b/f2
     600                      .dwattr $C$DW$49, DW_AT_TI_begin_line(0x5bd)
     601                      .dwattr $C$DW$49, DW_AT_TI_begin_column(0x06)
     602                      .dwattr $C$DW$49, DW_AT_TI_max_frame_size(-2)
     603                      .dwpsn  file "C:/ti/motorware/motorware_1_01_00_18/sw/drivers/pwm/src/32b/f28x/f2802x/pwm.c",line 147
     604              
     605                      .dwfde $C$DW$CIE, _PWM_setTripZoneDCEventSelect_DCAEVT2
     606              $C$DW$50        .dwtag  DW_TAG_formal_parameter, DW_AT_name("pwmHandle")
     607                      .dwattr $C$DW$50, DW_AT_TI_symbol_name("_pwmHandle")
     608                      .dwattr $C$DW$50, DW_AT_type(*$C$DW$T$33)
     609                      .dwattr $C$DW$50, DW_AT_location[DW_OP_reg12]
     610              $C$DW$51        .dwtag  DW_TAG_formal_parameter, DW_AT_name("tripZoneEvent")
     611                      .dwattr $C$DW$51, DW_AT_TI_symbol_name("_tripZoneEvent")
     612                      .dwattr $C$DW$51, DW_AT_type(*$C$DW$T$122)
     613                      .dwattr $C$DW$51, DW_AT_location[DW_OP_reg0]
     614              
     615              ;***************************************************************
     616              ;* FNAME: _PWM_setTripZoneDCEventSelect_DCAEVT2 FR SIZE:   0           *
     617              ;*                                                             *
     618              ;* FUNCTION ENVIRONMENT                                        *
     619              ;*                                                             *
     620              ;* FUNCTION PROPERTIES                                         *
     621              ;*                            0 Parameter,  0 Auto,  0 SOE     *
     622              ;***************************************************************
     623              
     624              _PWM_setTripZoneDCEventSelect_DCAEVT2:
     625              ;* AR4   assigned to _pwmHandle
     626              $C$DW$52        .dwtag  DW_TAG_variable, DW_AT_name("pwmHandle")
     627                      .dwattr $C$DW$52, DW_AT_TI_symbol_name("_pwmHandle")
     628                      .dwattr $C$DW$52, DW_AT_type(*$C$DW$T$127)
     629                      .dwattr $C$DW$52, DW_AT_location[DW_OP_reg12]
     630              ;* AL    assigned to _tripZoneEvent
     631              $C$DW$53        .dwtag  DW_TAG_variable, DW_AT_name("tripZoneEvent")
     632                      .dwattr $C$DW$53, DW_AT_TI_symbol_name("_tripZoneEvent")
     633                      .dwattr $C$DW$53, DW_AT_type(*$C$DW$T$122)
     634                      .dwattr $C$DW$53, DW_AT_location[DW_OP_reg0]
     635                      .dwcfi  cfa_offset, -2
     636                      .dwcfi  save_reg_to_mem, 26, 0
     637                      .dwcfi  save_reg_to_reg, 78, 26
     638 0000005e 7622   EALLOW
     639                      .dwpsn  file "C:/ti/motorware/motorware_1_01_00_18/sw/drivers/pwm/src/32b/f28x/f2802x/pwm.c",line 147
     640 0000005f 83A4          MOVL      XAR5,XAR4             ; [CPU_] |1477| 
     641                      .dwpsn  file "C:/ti/motorware/motorware_1_01_00_18/sw/drivers/pwm/src/32b/f28x/f2802x/pwm.c",line 148
     642 00000060 5603          MOV       ACC,AL << #3          ; [CPU_] |1480| 
         00000061 03A9 
     643 00000062 DC13          ADDB      XAR4,#19              ; [CPU_] |1480| 
     644                      .dwpsn  file "C:/ti/motorware/motorware_1_01_00_18/sw/drivers/pwm/src/32b/f28x/f2802x/pwm.c",line 147
TMS320C2000 Assembler PC v6.2.5 Mon Jun 19 18:10:36 2017

Tools Copyright (c) 1996-2014 Texas Instruments Incorporated
C:\Users\wmj\AppData\Local\Temp\1804410                              PAGE   13

     645 00000063 DD13          ADDB      XAR5,#19              ; [CPU_] |1477| 
     646 00000064 18C5          AND       *+XAR5[0],#0xffc7     ; [CPU_] |1477| 
         00000065 FFC7 
     647                      .dwpsn  file "C:/ti/motorware/motorware_1_01_00_18/sw/drivers/pwm/src/32b/f28x/f2802x/pwm.c",line 148
     648 00000066 98C4          OR        *+XAR4[0],AL          ; [CPU_] |1480| 
     649 00000067 761A   EDIS
     650 00000068 FF69          SPM       #0                    ; [CPU_] 
     651              $C$DW$54        .dwtag  DW_TAG_TI_branch
     652                      .dwattr $C$DW$54, DW_AT_low_pc(0x00)
     653                      .dwattr $C$DW$54, DW_AT_TI_return
     654 00000069 0006          LRETR     ; [CPU_] 
     655                      ; return occurs ; [] 
     656                      .dwattr $C$DW$49, DW_AT_TI_end_file("C:/ti/motorware/motorware_1_01_00_18/sw/drivers/pwm/src/32b/f28x
     657                      .dwattr $C$DW$49, DW_AT_TI_end_line(0x5cd)
     658                      .dwattr $C$DW$49, DW_AT_TI_end_column(0x01)
     659                      .dwendentry
     660                      .dwendtag $C$DW$49
     661              
     662 0000006a               .sect   ".text"
     663                      .clink
     664                      .global _PWM_setTripZoneDCEventSelect_DCAEVT1
     665              
     666              $C$DW$55        .dwtag  DW_TAG_subprogram, DW_AT_name("PWM_setTripZoneDCEventSelect_DCAEVT1")
     667                      .dwattr $C$DW$55, DW_AT_low_pc(_PWM_setTripZoneDCEventSelect_DCAEVT1)
     668                      .dwattr $C$DW$55, DW_AT_high_pc(0x00)
     669                      .dwattr $C$DW$55, DW_AT_TI_symbol_name("_PWM_setTripZoneDCEventSelect_DCAEVT1")
     670                      .dwattr $C$DW$55, DW_AT_external
     671                      .dwattr $C$DW$55, DW_AT_TI_begin_file("C:/ti/motorware/motorware_1_01_00_18/sw/drivers/pwm/src/32b/f2
     672                      .dwattr $C$DW$55, DW_AT_TI_begin_line(0x5aa)
     673                      .dwattr $C$DW$55, DW_AT_TI_begin_column(0x06)
     674                      .dwattr $C$DW$55, DW_AT_TI_max_frame_size(-2)
     675                      .dwpsn  file "C:/ti/motorware/motorware_1_01_00_18/sw/drivers/pwm/src/32b/f28x/f2802x/pwm.c",line 145
     676              
     677                      .dwfde $C$DW$CIE, _PWM_setTripZoneDCEventSelect_DCAEVT1
     678              $C$DW$56        .dwtag  DW_TAG_formal_parameter, DW_AT_name("pwmHandle")
     679                      .dwattr $C$DW$56, DW_AT_TI_symbol_name("_pwmHandle")
     680                      .dwattr $C$DW$56, DW_AT_type(*$C$DW$T$33)
     681                      .dwattr $C$DW$56, DW_AT_location[DW_OP_reg12]
     682              $C$DW$57        .dwtag  DW_TAG_formal_parameter, DW_AT_name("tripZoneEvent")
     683                      .dwattr $C$DW$57, DW_AT_TI_symbol_name("_tripZoneEvent")
     684                      .dwattr $C$DW$57, DW_AT_type(*$C$DW$T$122)
     685                      .dwattr $C$DW$57, DW_AT_location[DW_OP_reg0]
     686              
     687              ;***************************************************************
     688              ;* FNAME: _PWM_setTripZoneDCEventSelect_DCAEVT1 FR SIZE:   0           *
     689              ;*                                                             *
     690              ;* FUNCTION ENVIRONMENT                                        *
     691              ;*                                                             *
     692              ;* FUNCTION PROPERTIES                                         *
     693              ;*                            0 Parameter,  0 Auto,  0 SOE     *
     694              ;***************************************************************
     695              
     696              _PWM_setTripZoneDCEventSelect_DCAEVT1:
     697              ;* AR4   assigned to _pwmHandle
     698              $C$DW$58        .dwtag  DW_TAG_variable, DW_AT_name("pwmHandle")
TMS320C2000 Assembler PC v6.2.5 Mon Jun 19 18:10:36 2017

Tools Copyright (c) 1996-2014 Texas Instruments Incorporated
C:\Users\wmj\AppData\Local\Temp\1804410                              PAGE   14

     699                      .dwattr $C$DW$58, DW_AT_TI_symbol_name("_pwmHandle")
     700                      .dwattr $C$DW$58, DW_AT_type(*$C$DW$T$127)
     701                      .dwattr $C$DW$58, DW_AT_location[DW_OP_reg12]
     702              ;* AL    assigned to _tripZoneEvent
     703              $C$DW$59        .dwtag  DW_TAG_variable, DW_AT_name("tripZoneEvent")
     704                      .dwattr $C$DW$59, DW_AT_TI_symbol_name("_tripZoneEvent")
     705                      .dwattr $C$DW$59, DW_AT_type(*$C$DW$T$122)
     706                      .dwattr $C$DW$59, DW_AT_location[DW_OP_reg0]
     707                      .dwcfi  cfa_offset, -2
     708                      .dwcfi  save_reg_to_mem, 26, 0
     709                      .dwcfi  save_reg_to_reg, 78, 26
     710 0000006a 7622   EALLOW
     711                      .dwpsn  file "C:/ti/motorware/motorware_1_01_00_18/sw/drivers/pwm/src/32b/f28x/f2802x/pwm.c",line 145
     712 0000006b 83A4          MOVL      XAR5,XAR4             ; [CPU_] |1458| 
     713                      .dwpsn  file "C:/ti/motorware/motorware_1_01_00_18/sw/drivers/pwm/src/32b/f28x/f2802x/pwm.c",line 146
     714 0000006c DC13          ADDB      XAR4,#19              ; [CPU_] |1461| 
     715                      .dwpsn  file "C:/ti/motorware/motorware_1_01_00_18/sw/drivers/pwm/src/32b/f28x/f2802x/pwm.c",line 145
     716 0000006d DD13          ADDB      XAR5,#19              ; [CPU_] |1458| 
     717 0000006e 18C5          AND       *+XAR5[0],#0xfff8     ; [CPU_] |1458| 
         0000006f FFF8 
     718                      .dwpsn  file "C:/ti/motorware/motorware_1_01_00_18/sw/drivers/pwm/src/32b/f28x/f2802x/pwm.c",line 146
     719 00000070 98C4          OR        *+XAR4[0],AL          ; [CPU_] |1461| 
     720 00000071 761A   EDIS
     721 00000072 FF69          SPM       #0                    ; [CPU_] 
     722              $C$DW$60        .dwtag  DW_TAG_TI_branch
     723                      .dwattr $C$DW$60, DW_AT_low_pc(0x00)
     724                      .dwattr $C$DW$60, DW_AT_TI_return
     725 00000073 0006          LRETR     ; [CPU_] 
     726                      ; return occurs ; [] 
     727                      .dwattr $C$DW$55, DW_AT_TI_end_file("C:/ti/motorware/motorware_1_01_00_18/sw/drivers/pwm/src/32b/f28x
     728                      .dwattr $C$DW$55, DW_AT_TI_end_line(0x5ba)
     729                      .dwattr $C$DW$55, DW_AT_TI_end_column(0x01)
     730                      .dwendentry
     731                      .dwendtag $C$DW$55
     732              
     733 00000074               .sect   ".text"
     734                      .clink
     735                      .global _PWM_setSyncMode
     736              
     737              $C$DW$61        .dwtag  DW_TAG_subprogram, DW_AT_name("PWM_setSyncMode")
     738                      .dwattr $C$DW$61, DW_AT_low_pc(_PWM_setSyncMode)
     739                      .dwattr $C$DW$61, DW_AT_high_pc(0x00)
     740                      .dwattr $C$DW$61, DW_AT_TI_symbol_name("_PWM_setSyncMode")
     741                      .dwattr $C$DW$61, DW_AT_external
     742                      .dwattr $C$DW$61, DW_AT_TI_begin_file("C:/ti/motorware/motorware_1_01_00_18/sw/drivers/pwm/src/32b/f2
     743                      .dwattr $C$DW$61, DW_AT_TI_begin_line(0x59c)
     744                      .dwattr $C$DW$61, DW_AT_TI_begin_column(0x06)
     745                      .dwattr $C$DW$61, DW_AT_TI_max_frame_size(-2)
     746                      .dwpsn  file "C:/ti/motorware/motorware_1_01_00_18/sw/drivers/pwm/src/32b/f28x/f2802x/pwm.c",line 143
     747              
     748                      .dwfde $C$DW$CIE, _PWM_setSyncMode
     749              $C$DW$62        .dwtag  DW_TAG_formal_parameter, DW_AT_name("pwmHandle")
     750                      .dwattr $C$DW$62, DW_AT_TI_symbol_name("_pwmHandle")
     751                      .dwattr $C$DW$62, DW_AT_type(*$C$DW$T$33)
     752                      .dwattr $C$DW$62, DW_AT_location[DW_OP_reg12]
TMS320C2000 Assembler PC v6.2.5 Mon Jun 19 18:10:36 2017

Tools Copyright (c) 1996-2014 Texas Instruments Incorporated
C:\Users\wmj\AppData\Local\Temp\1804410                              PAGE   15

     753              $C$DW$63        .dwtag  DW_TAG_formal_parameter, DW_AT_name("syncMode")
     754                      .dwattr $C$DW$63, DW_AT_TI_symbol_name("_syncMode")
     755                      .dwattr $C$DW$63, DW_AT_type(*$C$DW$T$119)
     756                      .dwattr $C$DW$63, DW_AT_location[DW_OP_reg0]
     757              
     758              ;***************************************************************
     759              ;* FNAME: _PWM_setSyncMode              FR SIZE:   0           *
     760              ;*                                                             *
     761              ;* FUNCTION ENVIRONMENT                                        *
     762              ;*                                                             *
     763              ;* FUNCTION PROPERTIES                                         *
     764              ;*                            0 Parameter,  0 Auto,  0 SOE     *
     765              ;***************************************************************
     766              
     767              _PWM_setSyncMode:
     768              ;* AR4   assigned to _pwmHandle
     769              $C$DW$64        .dwtag  DW_TAG_variable, DW_AT_name("pwmHandle")
     770                      .dwattr $C$DW$64, DW_AT_TI_symbol_name("_pwmHandle")
     771                      .dwattr $C$DW$64, DW_AT_type(*$C$DW$T$127)
     772                      .dwattr $C$DW$64, DW_AT_location[DW_OP_reg12]
     773              ;* AL    assigned to _syncMode
     774              $C$DW$65        .dwtag  DW_TAG_variable, DW_AT_name("syncMode")
     775                      .dwattr $C$DW$65, DW_AT_TI_symbol_name("_syncMode")
     776                      .dwattr $C$DW$65, DW_AT_type(*$C$DW$T$119)
     777                      .dwattr $C$DW$65, DW_AT_location[DW_OP_reg0]
     778                      .dwcfi  cfa_offset, -2
     779                      .dwcfi  save_reg_to_mem, 26, 0
     780                      .dwcfi  save_reg_to_reg, 78, 26
     781                      .dwpsn  file "C:/ti/motorware/motorware_1_01_00_18/sw/drivers/pwm/src/32b/f28x/f2802x/pwm.c",line 144
     782 00000074 18C4          AND       *+XAR4[0],#0xffcf     ; [CPU_] |1442| 
         00000075 FFCF 
     783                      .dwpsn  file "C:/ti/motorware/motorware_1_01_00_18/sw/drivers/pwm/src/32b/f28x/f2802x/pwm.c",line 144
     784 00000076 98C4          OR        *+XAR4[0],AL          ; [CPU_] |1445| 
     785              $C$DW$66        .dwtag  DW_TAG_TI_branch
     786                      .dwattr $C$DW$66, DW_AT_low_pc(0x00)
     787                      .dwattr $C$DW$66, DW_AT_TI_return
     788 00000077 0006          LRETR     ; [CPU_] 
     789                      ; return occurs ; [] 
     790                      .dwattr $C$DW$61, DW_AT_TI_end_file("C:/ti/motorware/motorware_1_01_00_18/sw/drivers/pwm/src/32b/f28x
     791                      .dwattr $C$DW$61, DW_AT_TI_end_line(0x5a8)
     792                      .dwattr $C$DW$61, DW_AT_TI_end_column(0x01)
     793                      .dwendentry
     794                      .dwendtag $C$DW$61
     795              
     796 00000078               .sect   ".text"
     797                      .clink
     798                      .global _PWM_setSwSync
     799              
     800              $C$DW$67        .dwtag  DW_TAG_subprogram, DW_AT_name("PWM_setSwSync")
     801                      .dwattr $C$DW$67, DW_AT_low_pc(_PWM_setSwSync)
     802                      .dwattr $C$DW$67, DW_AT_high_pc(0x00)
     803                      .dwattr $C$DW$67, DW_AT_TI_symbol_name("_PWM_setSwSync")
     804                      .dwattr $C$DW$67, DW_AT_external
     805                      .dwattr $C$DW$67, DW_AT_TI_begin_file("C:/ti/motorware/motorware_1_01_00_18/sw/drivers/pwm/src/32b/f2
     806                      .dwattr $C$DW$67, DW_AT_TI_begin_line(0x590)
TMS320C2000 Assembler PC v6.2.5 Mon Jun 19 18:10:36 2017

Tools Copyright (c) 1996-2014 Texas Instruments Incorporated
C:\Users\wmj\AppData\Local\Temp\1804410                              PAGE   16

     807                      .dwattr $C$DW$67, DW_AT_TI_begin_column(0x06)
     808                      .dwattr $C$DW$67, DW_AT_TI_max_frame_size(-2)
     809                      .dwpsn  file "C:/ti/motorware/motorware_1_01_00_18/sw/drivers/pwm/src/32b/f28x/f2802x/pwm.c",line 142
     810              
     811                      .dwfde $C$DW$CIE, _PWM_setSwSync
     812              $C$DW$68        .dwtag  DW_TAG_formal_parameter, DW_AT_name("pwmHandle")
     813                      .dwattr $C$DW$68, DW_AT_TI_symbol_name("_pwmHandle")
     814                      .dwattr $C$DW$68, DW_AT_type(*$C$DW$T$33)
     815                      .dwattr $C$DW$68, DW_AT_location[DW_OP_reg12]
     816              
     817              ;***************************************************************
     818              ;* FNAME: _PWM_setSwSync                FR SIZE:   0           *
     819              ;*                                                             *
     820              ;* FUNCTION ENVIRONMENT                                        *
     821              ;*                                                             *
     822              ;* FUNCTION PROPERTIES                                         *
     823              ;*                            0 Parameter,  0 Auto,  0 SOE     *
     824              ;***************************************************************
     825              
     826              _PWM_setSwSync:
     827              ;* AR4   assigned to _pwmHandle
     828              $C$DW$69        .dwtag  DW_TAG_variable, DW_AT_name("pwmHandle")
     829                      .dwattr $C$DW$69, DW_AT_TI_symbol_name("_pwmHandle")
     830                      .dwattr $C$DW$69, DW_AT_type(*$C$DW$T$127)
     831                      .dwattr $C$DW$69, DW_AT_location[DW_OP_reg12]
     832                      .dwcfi  cfa_offset, -2
     833                      .dwcfi  save_reg_to_mem, 26, 0
     834                      .dwcfi  save_reg_to_reg, 78, 26
     835                      .dwpsn  file "C:/ti/motorware/motorware_1_01_00_18/sw/drivers/pwm/src/32b/f28x/f2802x/pwm.c",line 143
     836 00000078 1AC4          OR        *+XAR4[0],#0x0040     ; [CPU_] |1430| 
         00000079 0040 
     837              $C$DW$70        .dwtag  DW_TAG_TI_branch
     838                      .dwattr $C$DW$70, DW_AT_low_pc(0x00)
     839                      .dwattr $C$DW$70, DW_AT_TI_return
     840 0000007a 0006          LRETR     ; [CPU_] 
     841                      ; return occurs ; [] 
     842                      .dwattr $C$DW$67, DW_AT_TI_end_file("C:/ti/motorware/motorware_1_01_00_18/sw/drivers/pwm/src/32b/f28x
     843                      .dwattr $C$DW$67, DW_AT_TI_end_line(0x599)
     844                      .dwattr $C$DW$67, DW_AT_TI_end_column(0x01)
     845                      .dwendentry
     846                      .dwendtag $C$DW$67
     847              
     848 0000007b               .sect   ".text"
     849                      .clink
     850                      .global _PWM_setSocBPulseSrc
     851              
     852              $C$DW$71        .dwtag  DW_TAG_subprogram, DW_AT_name("PWM_setSocBPulseSrc")
     853                      .dwattr $C$DW$71, DW_AT_low_pc(_PWM_setSocBPulseSrc)
     854                      .dwattr $C$DW$71, DW_AT_high_pc(0x00)
     855                      .dwattr $C$DW$71, DW_AT_TI_symbol_name("_PWM_setSocBPulseSrc")
     856                      .dwattr $C$DW$71, DW_AT_external
     857                      .dwattr $C$DW$71, DW_AT_TI_begin_file("C:/ti/motorware/motorware_1_01_00_18/sw/drivers/pwm/src/32b/f2
     858                      .dwattr $C$DW$71, DW_AT_TI_begin_line(0x563)
     859                      .dwattr $C$DW$71, DW_AT_TI_begin_column(0x06)
     860                      .dwattr $C$DW$71, DW_AT_TI_max_frame_size(-2)
TMS320C2000 Assembler PC v6.2.5 Mon Jun 19 18:10:36 2017

Tools Copyright (c) 1996-2014 Texas Instruments Incorporated
C:\Users\wmj\AppData\Local\Temp\1804410                              PAGE   17

     861                      .dwpsn  file "C:/ti/motorware/motorware_1_01_00_18/sw/drivers/pwm/src/32b/f28x/f2802x/pwm.c",line 138
     862              
     863                      .dwfde $C$DW$CIE, _PWM_setSocBPulseSrc
     864              $C$DW$72        .dwtag  DW_TAG_formal_parameter, DW_AT_name("pwmHandle")
     865                      .dwattr $C$DW$72, DW_AT_TI_symbol_name("_pwmHandle")
     866                      .dwattr $C$DW$72, DW_AT_type(*$C$DW$T$33)
     867                      .dwattr $C$DW$72, DW_AT_location[DW_OP_reg12]
     868              $C$DW$73        .dwtag  DW_TAG_formal_parameter, DW_AT_name("pulseSrc")
     869                      .dwattr $C$DW$73, DW_AT_TI_symbol_name("_pulseSrc")
     870                      .dwattr $C$DW$73, DW_AT_type(*$C$DW$T$113)
     871                      .dwattr $C$DW$73, DW_AT_location[DW_OP_reg0]
     872              
     873              ;***************************************************************
     874              ;* FNAME: _PWM_setSocBPulseSrc          FR SIZE:   0           *
     875              ;*                                                             *
     876              ;* FUNCTION ENVIRONMENT                                        *
     877              ;*                                                             *
     878              ;* FUNCTION PROPERTIES                                         *
     879              ;*                            0 Parameter,  0 Auto,  0 SOE     *
     880              ;***************************************************************
     881              
     882              _PWM_setSocBPulseSrc:
     883              ;* AR4   assigned to _pwmHandle
     884              $C$DW$74        .dwtag  DW_TAG_variable, DW_AT_name("pwmHandle")
     885                      .dwattr $C$DW$74, DW_AT_TI_symbol_name("_pwmHandle")
     886                      .dwattr $C$DW$74, DW_AT_type(*$C$DW$T$127)
     887                      .dwattr $C$DW$74, DW_AT_location[DW_OP_reg12]
     888              ;* AL    assigned to _pulseSrc
     889              $C$DW$75        .dwtag  DW_TAG_variable, DW_AT_name("pulseSrc")
     890                      .dwattr $C$DW$75, DW_AT_TI_symbol_name("_pulseSrc")
     891                      .dwattr $C$DW$75, DW_AT_type(*$C$DW$T$113)
     892                      .dwattr $C$DW$75, DW_AT_location[DW_OP_reg0]
     893                      .dwcfi  cfa_offset, -2
     894                      .dwcfi  save_reg_to_mem, 26, 0
     895                      .dwcfi  save_reg_to_reg, 78, 26
     896                      .dwpsn  file "C:/ti/motorware/motorware_1_01_00_18/sw/drivers/pwm/src/32b/f28x/f2802x/pwm.c",line 138
     897 0000007b 83A4          MOVL      XAR5,XAR4             ; [CPU_] |1385| 
     898                      .dwpsn  file "C:/ti/motorware/motorware_1_01_00_18/sw/drivers/pwm/src/32b/f28x/f2802x/pwm.c",line 138
     899 0000007c 5603          MOV       ACC,AL << #12         ; [CPU_] |1388| 
         0000007d 0CA9 
     900                      .dwpsn  file "C:/ti/motorware/motorware_1_01_00_18/sw/drivers/pwm/src/32b/f28x/f2802x/pwm.c",line 138
     901 0000007e DD19          ADDB      XAR5,#25              ; [CPU_] |1385| 
     902 0000007f 18C5          AND       *+XAR5[0],#0x8fff     ; [CPU_] |1385| 
         00000080 8FFF 
     903                      .dwpsn  file "C:/ti/motorware/motorware_1_01_00_18/sw/drivers/pwm/src/32b/f28x/f2802x/pwm.c",line 138
     904 00000081 DC19          ADDB      XAR4,#25              ; [CPU_] |1388| 
     905 00000082 98C4          OR        *+XAR4[0],AL          ; [CPU_] |1388| 
     906              $C$DW$76        .dwtag  DW_TAG_TI_branch
     907                      .dwattr $C$DW$76, DW_AT_low_pc(0x00)
     908                      .dwattr $C$DW$76, DW_AT_TI_return
     909 00000083 0006          LRETR     ; [CPU_] 
     910                      ; return occurs ; [] 
     911                      .dwattr $C$DW$71, DW_AT_TI_end_file("C:/ti/motorware/motorware_1_01_00_18/sw/drivers/pwm/src/32b/f28x
     912                      .dwattr $C$DW$71, DW_AT_TI_end_line(0x56f)
     913                      .dwattr $C$DW$71, DW_AT_TI_end_column(0x01)
TMS320C2000 Assembler PC v6.2.5 Mon Jun 19 18:10:36 2017

Tools Copyright (c) 1996-2014 Texas Instruments Incorporated
C:\Users\wmj\AppData\Local\Temp\1804410                              PAGE   18

     914                      .dwendentry
     915                      .dwendtag $C$DW$71
     916              
     917 00000084               .sect   ".text"
     918                      .clink
     919                      .global _PWM_setSocBPeriod
     920              
     921              $C$DW$77        .dwtag  DW_TAG_subprogram, DW_AT_name("PWM_setSocBPeriod")
     922                      .dwattr $C$DW$77, DW_AT_low_pc(_PWM_setSocBPeriod)
     923                      .dwattr $C$DW$77, DW_AT_high_pc(0x00)
     924                      .dwattr $C$DW$77, DW_AT_TI_symbol_name("_PWM_setSocBPeriod")
     925                      .dwattr $C$DW$77, DW_AT_external
     926                      .dwattr $C$DW$77, DW_AT_TI_begin_file("C:/ti/motorware/motorware_1_01_00_18/sw/drivers/pwm/src/32b/f2
     927                      .dwattr $C$DW$77, DW_AT_TI_begin_line(0x554)
     928                      .dwattr $C$DW$77, DW_AT_TI_begin_column(0x06)
     929                      .dwattr $C$DW$77, DW_AT_TI_max_frame_size(-2)
     930                      .dwpsn  file "C:/ti/motorware/motorware_1_01_00_18/sw/drivers/pwm/src/32b/f28x/f2802x/pwm.c",line 136
     931              
     932                      .dwfde $C$DW$CIE, _PWM_setSocBPeriod
     933              $C$DW$78        .dwtag  DW_TAG_formal_parameter, DW_AT_name("pwmHandle")
     934                      .dwattr $C$DW$78, DW_AT_TI_symbol_name("_pwmHandle")
     935                      .dwattr $C$DW$78, DW_AT_type(*$C$DW$T$33)
     936                      .dwattr $C$DW$78, DW_AT_location[DW_OP_reg12]
     937              $C$DW$79        .dwtag  DW_TAG_formal_parameter, DW_AT_name("intPeriod")
     938                      .dwattr $C$DW$79, DW_AT_TI_symbol_name("_intPeriod")
     939                      .dwattr $C$DW$79, DW_AT_type(*$C$DW$T$110)
     940                      .dwattr $C$DW$79, DW_AT_location[DW_OP_reg0]
     941              
     942              ;***************************************************************
     943              ;* FNAME: _PWM_setSocBPeriod            FR SIZE:   0           *
     944              ;*                                                             *
     945              ;* FUNCTION ENVIRONMENT                                        *
     946              ;*                                                             *
     947              ;* FUNCTION PROPERTIES                                         *
     948              ;*                            0 Parameter,  0 Auto,  0 SOE     *
     949              ;***************************************************************
     950              
     951              _PWM_setSocBPeriod:
     952              ;* AR4   assigned to _pwmHandle
     953              $C$DW$80        .dwtag  DW_TAG_variable, DW_AT_name("pwmHandle")
     954                      .dwattr $C$DW$80, DW_AT_TI_symbol_name("_pwmHandle")
     955                      .dwattr $C$DW$80, DW_AT_type(*$C$DW$T$127)
     956                      .dwattr $C$DW$80, DW_AT_location[DW_OP_reg12]
     957              ;* AL    assigned to _intPeriod
     958              $C$DW$81        .dwtag  DW_TAG_variable, DW_AT_name("intPeriod")
     959                      .dwattr $C$DW$81, DW_AT_TI_symbol_name("_intPeriod")
     960                      .dwattr $C$DW$81, DW_AT_type(*$C$DW$T$110)
     961                      .dwattr $C$DW$81, DW_AT_location[DW_OP_reg0]
     962                      .dwcfi  cfa_offset, -2
     963                      .dwcfi  save_reg_to_mem, 26, 0
     964                      .dwcfi  save_reg_to_reg, 78, 26
     965                      .dwpsn  file "C:/ti/motorware/motorware_1_01_00_18/sw/drivers/pwm/src/32b/f28x/f2802x/pwm.c",line 137
     966 00000084 83A4          MOVL      XAR5,XAR4             ; [CPU_] |1370| 
     967                      .dwpsn  file "C:/ti/motorware/motorware_1_01_00_18/sw/drivers/pwm/src/32b/f28x/f2802x/pwm.c",line 137
     968 00000085 5603          MOV       ACC,AL << #12         ; [CPU_] |1373| 
TMS320C2000 Assembler PC v6.2.5 Mon Jun 19 18:10:36 2017

Tools Copyright (c) 1996-2014 Texas Instruments Incorporated
C:\Users\wmj\AppData\Local\Temp\1804410                              PAGE   19

         00000086 0CA9 
     969                      .dwpsn  file "C:/ti/motorware/motorware_1_01_00_18/sw/drivers/pwm/src/32b/f28x/f2802x/pwm.c",line 137
     970 00000087 DD1A          ADDB      XAR5,#26              ; [CPU_] |1370| 
     971 00000088 18C5          AND       *+XAR5[0],#0xcfff     ; [CPU_] |1370| 
         00000089 CFFF 
     972                      .dwpsn  file "C:/ti/motorware/motorware_1_01_00_18/sw/drivers/pwm/src/32b/f28x/f2802x/pwm.c",line 137
     973 0000008a DC1A          ADDB      XAR4,#26              ; [CPU_] |1373| 
     974 0000008b 98C4          OR        *+XAR4[0],AL          ; [CPU_] |1373| 
     975              $C$DW$82        .dwtag  DW_TAG_TI_branch
     976                      .dwattr $C$DW$82, DW_AT_low_pc(0x00)
     977                      .dwattr $C$DW$82, DW_AT_TI_return
     978 0000008c 0006          LRETR     ; [CPU_] 
     979                      ; return occurs ; [] 
     980                      .dwattr $C$DW$77, DW_AT_TI_end_file("C:/ti/motorware/motorware_1_01_00_18/sw/drivers/pwm/src/32b/f28x
     981                      .dwattr $C$DW$77, DW_AT_TI_end_line(0x560)
     982                      .dwattr $C$DW$77, DW_AT_TI_end_column(0x01)
     983                      .dwendentry
     984                      .dwendtag $C$DW$77
     985              
     986 0000008d               .sect   ".text"
     987                      .clink
     988                      .global _PWM_setSocAPulseSrc
     989              
     990              $C$DW$83        .dwtag  DW_TAG_subprogram, DW_AT_name("PWM_setSocAPulseSrc")
     991                      .dwattr $C$DW$83, DW_AT_low_pc(_PWM_setSocAPulseSrc)
     992                      .dwattr $C$DW$83, DW_AT_high_pc(0x00)
     993                      .dwattr $C$DW$83, DW_AT_TI_symbol_name("_PWM_setSocAPulseSrc")
     994                      .dwattr $C$DW$83, DW_AT_external
     995                      .dwattr $C$DW$83, DW_AT_TI_begin_file("C:/ti/motorware/motorware_1_01_00_18/sw/drivers/pwm/src/32b/f2
     996                      .dwattr $C$DW$83, DW_AT_TI_begin_line(0x544)
     997                      .dwattr $C$DW$83, DW_AT_TI_begin_column(0x06)
     998                      .dwattr $C$DW$83, DW_AT_TI_max_frame_size(-2)
     999                      .dwpsn  file "C:/ti/motorware/motorware_1_01_00_18/sw/drivers/pwm/src/32b/f28x/f2802x/pwm.c",line 134
    1000              
    1001                      .dwfde $C$DW$CIE, _PWM_setSocAPulseSrc
    1002              $C$DW$84        .dwtag  DW_TAG_formal_parameter, DW_AT_name("pwmHandle")
    1003                      .dwattr $C$DW$84, DW_AT_TI_symbol_name("_pwmHandle")
    1004                      .dwattr $C$DW$84, DW_AT_type(*$C$DW$T$33)
    1005                      .dwattr $C$DW$84, DW_AT_location[DW_OP_reg12]
    1006              $C$DW$85        .dwtag  DW_TAG_formal_parameter, DW_AT_name("pulseSrc")
    1007                      .dwattr $C$DW$85, DW_AT_TI_symbol_name("_pulseSrc")
    1008                      .dwattr $C$DW$85, DW_AT_type(*$C$DW$T$113)
    1009                      .dwattr $C$DW$85, DW_AT_location[DW_OP_reg0]
    1010              
    1011              ;***************************************************************
    1012              ;* FNAME: _PWM_setSocAPulseSrc          FR SIZE:   0           *
    1013              ;*                                                             *
    1014              ;* FUNCTION ENVIRONMENT                                        *
    1015              ;*                                                             *
    1016              ;* FUNCTION PROPERTIES                                         *
    1017              ;*                            0 Parameter,  0 Auto,  0 SOE     *
    1018              ;***************************************************************
    1019              
    1020              _PWM_setSocAPulseSrc:
    1021              ;* AR4   assigned to _pwmHandle
TMS320C2000 Assembler PC v6.2.5 Mon Jun 19 18:10:36 2017

Tools Copyright (c) 1996-2014 Texas Instruments Incorporated
C:\Users\wmj\AppData\Local\Temp\1804410                              PAGE   20

    1022              $C$DW$86        .dwtag  DW_TAG_variable, DW_AT_name("pwmHandle")
    1023                      .dwattr $C$DW$86, DW_AT_TI_symbol_name("_pwmHandle")
    1024                      .dwattr $C$DW$86, DW_AT_type(*$C$DW$T$127)
    1025                      .dwattr $C$DW$86, DW_AT_location[DW_OP_reg12]
    1026              ;* AL    assigned to _pulseSrc
    1027              $C$DW$87        .dwtag  DW_TAG_variable, DW_AT_name("pulseSrc")
    1028                      .dwattr $C$DW$87, DW_AT_TI_symbol_name("_pulseSrc")
    1029                      .dwattr $C$DW$87, DW_AT_type(*$C$DW$T$113)
    1030                      .dwattr $C$DW$87, DW_AT_location[DW_OP_reg0]
    1031              ;* AR6   assigned to _data
    1032              $C$DW$88        .dwtag  DW_TAG_variable, DW_AT_name("data")
    1033                      .dwattr $C$DW$88, DW_AT_TI_symbol_name("_data")
    1034                      .dwattr $C$DW$88, DW_AT_type(*$C$DW$T$19)
    1035                      .dwattr $C$DW$88, DW_AT_location[DW_OP_reg16]
    1036                      .dwcfi  cfa_offset, -2
    1037                      .dwcfi  save_reg_to_mem, 26, 0
    1038                      .dwcfi  save_reg_to_reg, 78, 26
    1039                      .dwpsn  file "C:/ti/motorware/motorware_1_01_00_18/sw/drivers/pwm/src/32b/f28x/f2802x/pwm.c",line 135
    1040 0000008d D019          MOVB      XAR0,#25              ; [CPU_] |1354| 
    1041 0000008e 8894          MOVZ      AR6,*+XAR4[AR0]       ; [CPU_] |1354| 
    1042                      .dwpsn  file "C:/ti/motorware/motorware_1_01_00_18/sw/drivers/pwm/src/32b/f28x/f2802x/pwm.c",line 135
    1043 0000008f 5603          MOV       ACC,AL << #8          ; [CPU_] |1358| 
         00000090 08A9 
    1044 00000091 18A6          AND       AR6,#0xf8ff           ; [CPU_] |1358| 
         00000092 F8FF 
    1045 00000093 CAA6          OR        AL,AR6                ; [CPU_] |1358| 
    1046 00000094 D019          MOVB      XAR0,#25              ; [CPU_] |1358| 
    1047 00000095 9694          MOV       *+XAR4[AR0],AL        ; [CPU_] |1358| 
    1048              $C$DW$89        .dwtag  DW_TAG_TI_branch
    1049                      .dwattr $C$DW$89, DW_AT_low_pc(0x00)
    1050                      .dwattr $C$DW$89, DW_AT_TI_return
    1051 00000096 0006          LRETR     ; [CPU_] 
    1052                      ; return occurs ; [] 
    1053                      .dwattr $C$DW$83, DW_AT_TI_end_file("C:/ti/motorware/motorware_1_01_00_18/sw/drivers/pwm/src/32b/f28x
    1054                      .dwattr $C$DW$83, DW_AT_TI_end_line(0x551)
    1055                      .dwattr $C$DW$83, DW_AT_TI_end_column(0x01)
    1056                      .dwendentry
    1057                      .dwendtag $C$DW$83
    1058              
    1059 00000097               .sect   ".text"
    1060                      .clink
    1061                      .global _PWM_setSocAPeriod
    1062              
    1063              $C$DW$90        .dwtag  DW_TAG_subprogram, DW_AT_name("PWM_setSocAPeriod")
    1064                      .dwattr $C$DW$90, DW_AT_low_pc(_PWM_setSocAPeriod)
    1065                      .dwattr $C$DW$90, DW_AT_high_pc(0x00)
    1066                      .dwattr $C$DW$90, DW_AT_TI_symbol_name("_PWM_setSocAPeriod")
    1067                      .dwattr $C$DW$90, DW_AT_external
    1068                      .dwattr $C$DW$90, DW_AT_TI_begin_file("C:/ti/motorware/motorware_1_01_00_18/sw/drivers/pwm/src/32b/f2
    1069                      .dwattr $C$DW$90, DW_AT_TI_begin_line(0x535)
    1070                      .dwattr $C$DW$90, DW_AT_TI_begin_column(0x06)
    1071                      .dwattr $C$DW$90, DW_AT_TI_max_frame_size(-2)
    1072                      .dwpsn  file "C:/ti/motorware/motorware_1_01_00_18/sw/drivers/pwm/src/32b/f28x/f2802x/pwm.c",line 133
    1073              
    1074                      .dwfde $C$DW$CIE, _PWM_setSocAPeriod
TMS320C2000 Assembler PC v6.2.5 Mon Jun 19 18:10:36 2017

Tools Copyright (c) 1996-2014 Texas Instruments Incorporated
C:\Users\wmj\AppData\Local\Temp\1804410                              PAGE   21

    1075              $C$DW$91        .dwtag  DW_TAG_formal_parameter, DW_AT_name("pwmHandle")
    1076                      .dwattr $C$DW$91, DW_AT_TI_symbol_name("_pwmHandle")
    1077                      .dwattr $C$DW$91, DW_AT_type(*$C$DW$T$33)
    1078                      .dwattr $C$DW$91, DW_AT_location[DW_OP_reg12]
    1079              $C$DW$92        .dwtag  DW_TAG_formal_parameter, DW_AT_name("intPeriod")
    1080                      .dwattr $C$DW$92, DW_AT_TI_symbol_name("_intPeriod")
    1081                      .dwattr $C$DW$92, DW_AT_type(*$C$DW$T$110)
    1082                      .dwattr $C$DW$92, DW_AT_location[DW_OP_reg0]
    1083              
    1084              ;***************************************************************
    1085              ;* FNAME: _PWM_setSocAPeriod            FR SIZE:   0           *
    1086              ;*                                                             *
    1087              ;* FUNCTION ENVIRONMENT                                        *
    1088              ;*                                                             *
    1089              ;* FUNCTION PROPERTIES                                         *
    1090              ;*                            0 Parameter,  0 Auto,  0 SOE     *
    1091              ;***************************************************************
    1092              
    1093              _PWM_setSocAPeriod:
    1094              ;* AR4   assigned to _pwmHandle
    1095              $C$DW$93        .dwtag  DW_TAG_variable, DW_AT_name("pwmHandle")
    1096                      .dwattr $C$DW$93, DW_AT_TI_symbol_name("_pwmHandle")
    1097                      .dwattr $C$DW$93, DW_AT_type(*$C$DW$T$127)
    1098                      .dwattr $C$DW$93, DW_AT_location[DW_OP_reg12]
    1099              ;* AL    assigned to _intPeriod
    1100              $C$DW$94        .dwtag  DW_TAG_variable, DW_AT_name("intPeriod")
    1101                      .dwattr $C$DW$94, DW_AT_TI_symbol_name("_intPeriod")
    1102                      .dwattr $C$DW$94, DW_AT_type(*$C$DW$T$110)
    1103                      .dwattr $C$DW$94, DW_AT_location[DW_OP_reg0]
    1104                      .dwcfi  cfa_offset, -2
    1105                      .dwcfi  save_reg_to_mem, 26, 0
    1106                      .dwcfi  save_reg_to_reg, 78, 26
    1107                      .dwpsn  file "C:/ti/motorware/motorware_1_01_00_18/sw/drivers/pwm/src/32b/f28x/f2802x/pwm.c",line 133
    1108 00000097 83A4          MOVL      XAR5,XAR4             ; [CPU_] |1339| 
    1109                      .dwpsn  file "C:/ti/motorware/motorware_1_01_00_18/sw/drivers/pwm/src/32b/f28x/f2802x/pwm.c",line 134
    1110 00000098 5603          MOV       ACC,AL << #8          ; [CPU_] |1342| 
         00000099 08A9 
    1111                      .dwpsn  file "C:/ti/motorware/motorware_1_01_00_18/sw/drivers/pwm/src/32b/f28x/f2802x/pwm.c",line 133
    1112 0000009a DD1A          ADDB      XAR5,#26              ; [CPU_] |1339| 
    1113 0000009b 18C5          AND       *+XAR5[0],#0xfcff     ; [CPU_] |1339| 
         0000009c FCFF 
    1114                      .dwpsn  file "C:/ti/motorware/motorware_1_01_00_18/sw/drivers/pwm/src/32b/f28x/f2802x/pwm.c",line 134
    1115 0000009d DC1A          ADDB      XAR4,#26              ; [CPU_] |1342| 
    1116 0000009e 98C4          OR        *+XAR4[0],AL          ; [CPU_] |1342| 
    1117              $C$DW$95        .dwtag  DW_TAG_TI_branch
    1118                      .dwattr $C$DW$95, DW_AT_low_pc(0x00)
    1119                      .dwattr $C$DW$95, DW_AT_TI_return
    1120 0000009f 0006          LRETR     ; [CPU_] 
    1121                      ; return occurs ; [] 
    1122                      .dwattr $C$DW$90, DW_AT_TI_end_file("C:/ti/motorware/motorware_1_01_00_18/sw/drivers/pwm/src/32b/f28x
    1123                      .dwattr $C$DW$90, DW_AT_TI_end_line(0x541)
    1124                      .dwattr $C$DW$90, DW_AT_TI_end_column(0x01)
    1125                      .dwendentry
    1126                      .dwendtag $C$DW$90
    1127              
TMS320C2000 Assembler PC v6.2.5 Mon Jun 19 18:10:36 2017

Tools Copyright (c) 1996-2014 Texas Instruments Incorporated
C:\Users\wmj\AppData\Local\Temp\1804410                              PAGE   22

    1128 000000a0               .sect   ".text"
    1129                      .clink
    1130                      .global _PWM_setShadowMode_CmpB
    1131              
    1132              $C$DW$96        .dwtag  DW_TAG_subprogram, DW_AT_name("PWM_setShadowMode_CmpB")
    1133                      .dwattr $C$DW$96, DW_AT_low_pc(_PWM_setShadowMode_CmpB)
    1134                      .dwattr $C$DW$96, DW_AT_high_pc(0x00)
    1135                      .dwattr $C$DW$96, DW_AT_TI_symbol_name("_PWM_setShadowMode_CmpB")
    1136                      .dwattr $C$DW$96, DW_AT_external
    1137                      .dwattr $C$DW$96, DW_AT_TI_begin_file("C:/ti/motorware/motorware_1_01_00_18/sw/drivers/pwm/src/32b/f2
    1138                      .dwattr $C$DW$96, DW_AT_TI_begin_line(0x581)
    1139                      .dwattr $C$DW$96, DW_AT_TI_begin_column(0x06)
    1140                      .dwattr $C$DW$96, DW_AT_TI_max_frame_size(-2)
    1141                      .dwpsn  file "C:/ti/motorware/motorware_1_01_00_18/sw/drivers/pwm/src/32b/f28x/f2802x/pwm.c",line 141
    1142              
    1143                      .dwfde $C$DW$CIE, _PWM_setShadowMode_CmpB
    1144              $C$DW$97        .dwtag  DW_TAG_formal_parameter, DW_AT_name("pwmHandle")
    1145                      .dwattr $C$DW$97, DW_AT_TI_symbol_name("_pwmHandle")
    1146                      .dwattr $C$DW$97, DW_AT_type(*$C$DW$T$33)
    1147                      .dwattr $C$DW$97, DW_AT_location[DW_OP_reg12]
    1148              $C$DW$98        .dwtag  DW_TAG_formal_parameter, DW_AT_name("shadowMode")
    1149                      .dwattr $C$DW$98, DW_AT_TI_symbol_name("_shadowMode")
    1150                      .dwattr $C$DW$98, DW_AT_type(*$C$DW$T$116)
    1151                      .dwattr $C$DW$98, DW_AT_location[DW_OP_reg0]
    1152              
    1153              ;***************************************************************
    1154              ;* FNAME: _PWM_setShadowMode_CmpB       FR SIZE:   0           *
    1155              ;*                                                             *
    1156              ;* FUNCTION ENVIRONMENT                                        *
    1157              ;*                                                             *
    1158              ;* FUNCTION PROPERTIES                                         *
    1159              ;*                            0 Parameter,  0 Auto,  0 SOE     *
    1160              ;***************************************************************
    1161              
    1162              _PWM_setShadowMode_CmpB:
    1163              ;* AR4   assigned to _pwmHandle
    1164              $C$DW$99        .dwtag  DW_TAG_variable, DW_AT_name("pwmHandle")
    1165                      .dwattr $C$DW$99, DW_AT_TI_symbol_name("_pwmHandle")
    1166                      .dwattr $C$DW$99, DW_AT_type(*$C$DW$T$127)
    1167                      .dwattr $C$DW$99, DW_AT_location[DW_OP_reg12]
    1168              ;* AL    assigned to _shadowMode
    1169              $C$DW$100       .dwtag  DW_TAG_variable, DW_AT_name("shadowMode")
    1170                      .dwattr $C$DW$100, DW_AT_TI_symbol_name("_shadowMode")
    1171                      .dwattr $C$DW$100, DW_AT_type(*$C$DW$T$116)
    1172                      .dwattr $C$DW$100, DW_AT_location[DW_OP_reg0]
    1173                      .dwcfi  cfa_offset, -2
    1174                      .dwcfi  save_reg_to_mem, 26, 0
    1175                      .dwcfi  save_reg_to_reg, 78, 26
    1176                      .dwpsn  file "C:/ti/motorware/motorware_1_01_00_18/sw/drivers/pwm/src/32b/f28x/f2802x/pwm.c",line 141
    1177 000000a0 18FC          AND       *+XAR4[7],#0xffbf     ; [CPU_] |1415| 
         000000a1 FFBF 
    1178                      .dwpsn  file "C:/ti/motorware/motorware_1_01_00_18/sw/drivers/pwm/src/32b/f28x/f2802x/pwm.c",line 141
    1179 000000a2 5603          MOV       ACC,AL << #6          ; [CPU_] |1418| 
         000000a3 06A9 
    1180 000000a4 98FC          OR        *+XAR4[7],AL          ; [CPU_] |1418| 
TMS320C2000 Assembler PC v6.2.5 Mon Jun 19 18:10:36 2017

Tools Copyright (c) 1996-2014 Texas Instruments Incorporated
C:\Users\wmj\AppData\Local\Temp\1804410                              PAGE   23

    1181              $C$DW$101       .dwtag  DW_TAG_TI_branch
    1182                      .dwattr $C$DW$101, DW_AT_low_pc(0x00)
    1183                      .dwattr $C$DW$101, DW_AT_TI_return
    1184 000000a5 0006          LRETR     ; [CPU_] 
    1185                      ; return occurs ; [] 
    1186                      .dwattr $C$DW$96, DW_AT_TI_end_file("C:/ti/motorware/motorware_1_01_00_18/sw/drivers/pwm/src/32b/f28x
    1187                      .dwattr $C$DW$96, DW_AT_TI_end_line(0x58d)
    1188                      .dwattr $C$DW$96, DW_AT_TI_end_column(0x01)
    1189                      .dwendentry
    1190                      .dwendtag $C$DW$96
    1191              
    1192 000000a6               .sect   ".text"
    1193                      .clink
    1194                      .global _PWM_setShadowMode_CmpA
    1195              
    1196              $C$DW$102       .dwtag  DW_TAG_subprogram, DW_AT_name("PWM_setShadowMode_CmpA")
    1197                      .dwattr $C$DW$102, DW_AT_low_pc(_PWM_setShadowMode_CmpA)
    1198                      .dwattr $C$DW$102, DW_AT_high_pc(0x00)
    1199                      .dwattr $C$DW$102, DW_AT_TI_symbol_name("_PWM_setShadowMode_CmpA")
    1200                      .dwattr $C$DW$102, DW_AT_external
    1201                      .dwattr $C$DW$102, DW_AT_TI_begin_file("C:/ti/motorware/motorware_1_01_00_18/sw/drivers/pwm/src/32b/f
    1202                      .dwattr $C$DW$102, DW_AT_TI_begin_line(0x572)
    1203                      .dwattr $C$DW$102, DW_AT_TI_begin_column(0x06)
    1204                      .dwattr $C$DW$102, DW_AT_TI_max_frame_size(-2)
    1205                      .dwpsn  file "C:/ti/motorware/motorware_1_01_00_18/sw/drivers/pwm/src/32b/f28x/f2802x/pwm.c",line 139
    1206              
    1207                      .dwfde $C$DW$CIE, _PWM_setShadowMode_CmpA
    1208              $C$DW$103       .dwtag  DW_TAG_formal_parameter, DW_AT_name("pwmHandle")
    1209                      .dwattr $C$DW$103, DW_AT_TI_symbol_name("_pwmHandle")
    1210                      .dwattr $C$DW$103, DW_AT_type(*$C$DW$T$33)
    1211                      .dwattr $C$DW$103, DW_AT_location[DW_OP_reg12]
    1212              $C$DW$104       .dwtag  DW_TAG_formal_parameter, DW_AT_name("shadowMode")
    1213                      .dwattr $C$DW$104, DW_AT_TI_symbol_name("_shadowMode")
    1214                      .dwattr $C$DW$104, DW_AT_type(*$C$DW$T$116)
    1215                      .dwattr $C$DW$104, DW_AT_location[DW_OP_reg0]
    1216              
    1217              ;***************************************************************
    1218              ;* FNAME: _PWM_setShadowMode_CmpA       FR SIZE:   0           *
    1219              ;*                                                             *
    1220              ;* FUNCTION ENVIRONMENT                                        *
    1221              ;*                                                             *
    1222              ;* FUNCTION PROPERTIES                                         *
    1223              ;*                            0 Parameter,  0 Auto,  0 SOE     *
    1224              ;***************************************************************
    1225              
    1226              _PWM_setShadowMode_CmpA:
    1227              ;* AR4   assigned to _pwmHandle
    1228              $C$DW$105       .dwtag  DW_TAG_variable, DW_AT_name("pwmHandle")
    1229                      .dwattr $C$DW$105, DW_AT_TI_symbol_name("_pwmHandle")
    1230                      .dwattr $C$DW$105, DW_AT_type(*$C$DW$T$127)
    1231                      .dwattr $C$DW$105, DW_AT_location[DW_OP_reg12]
    1232              ;* AL    assigned to _shadowMode
    1233              $C$DW$106       .dwtag  DW_TAG_variable, DW_AT_name("shadowMode")
    1234                      .dwattr $C$DW$106, DW_AT_TI_symbol_name("_shadowMode")
    1235                      .dwattr $C$DW$106, DW_AT_type(*$C$DW$T$116)
TMS320C2000 Assembler PC v6.2.5 Mon Jun 19 18:10:36 2017

Tools Copyright (c) 1996-2014 Texas Instruments Incorporated
C:\Users\wmj\AppData\Local\Temp\1804410                              PAGE   24

    1236                      .dwattr $C$DW$106, DW_AT_location[DW_OP_reg0]
    1237                      .dwcfi  cfa_offset, -2
    1238                      .dwcfi  save_reg_to_mem, 26, 0
    1239                      .dwcfi  save_reg_to_reg, 78, 26
    1240                      .dwpsn  file "C:/ti/motorware/motorware_1_01_00_18/sw/drivers/pwm/src/32b/f28x/f2802x/pwm.c",line 140
    1241 000000a6 18FC          AND       *+XAR4[7],#0xffef     ; [CPU_] |1400| 
         000000a7 FFEF 
    1242                      .dwpsn  file "C:/ti/motorware/motorware_1_01_00_18/sw/drivers/pwm/src/32b/f28x/f2802x/pwm.c",line 140
    1243 000000a8 5603          MOV       ACC,AL << #4          ; [CPU_] |1403| 
         000000a9 04A9 
    1244 000000aa 98FC          OR        *+XAR4[7],AL          ; [CPU_] |1403| 
    1245              $C$DW$107       .dwtag  DW_TAG_TI_branch
    1246                      .dwattr $C$DW$107, DW_AT_low_pc(0x00)
    1247                      .dwattr $C$DW$107, DW_AT_TI_return
    1248 000000ab 0006          LRETR     ; [CPU_] 
    1249                      ; return occurs ; [] 
    1250                      .dwattr $C$DW$102, DW_AT_TI_end_file("C:/ti/motorware/motorware_1_01_00_18/sw/drivers/pwm/src/32b/f28
    1251                      .dwattr $C$DW$102, DW_AT_TI_end_line(0x57e)
    1252                      .dwattr $C$DW$102, DW_AT_TI_end_column(0x01)
    1253                      .dwendentry
    1254                      .dwendtag $C$DW$102
    1255              
    1256 000000ac               .sect   ".text"
    1257                      .clink
    1258                      .global _PWM_setRunMode
    1259              
    1260              $C$DW$108       .dwtag  DW_TAG_subprogram, DW_AT_name("PWM_setRunMode")
    1261                      .dwattr $C$DW$108, DW_AT_low_pc(_PWM_setRunMode)
    1262                      .dwattr $C$DW$108, DW_AT_high_pc(0x00)
    1263                      .dwattr $C$DW$108, DW_AT_TI_symbol_name("_PWM_setRunMode")
    1264                      .dwattr $C$DW$108, DW_AT_external
    1265                      .dwattr $C$DW$108, DW_AT_TI_begin_file("C:/ti/motorware/motorware_1_01_00_18/sw/drivers/pwm/src/32b/f
    1266                      .dwattr $C$DW$108, DW_AT_TI_begin_line(0x526)
    1267                      .dwattr $C$DW$108, DW_AT_TI_begin_column(0x06)
    1268                      .dwattr $C$DW$108, DW_AT_TI_max_frame_size(-2)
    1269                      .dwpsn  file "C:/ti/motorware/motorware_1_01_00_18/sw/drivers/pwm/src/32b/f28x/f2802x/pwm.c",line 131
    1270              
    1271                      .dwfde $C$DW$CIE, _PWM_setRunMode
    1272              $C$DW$109       .dwtag  DW_TAG_formal_parameter, DW_AT_name("pwmHandle")
    1273                      .dwattr $C$DW$109, DW_AT_TI_symbol_name("_pwmHandle")
    1274                      .dwattr $C$DW$109, DW_AT_type(*$C$DW$T$33)
    1275                      .dwattr $C$DW$109, DW_AT_location[DW_OP_reg12]
    1276              $C$DW$110       .dwtag  DW_TAG_formal_parameter, DW_AT_name("runMode")
    1277                      .dwattr $C$DW$110, DW_AT_TI_symbol_name("_runMode")
    1278                      .dwattr $C$DW$110, DW_AT_type(*$C$DW$T$107)
    1279                      .dwattr $C$DW$110, DW_AT_location[DW_OP_reg0]
    1280              
    1281              ;***************************************************************
    1282              ;* FNAME: _PWM_setRunMode               FR SIZE:   0           *
    1283              ;*                                                             *
    1284              ;* FUNCTION ENVIRONMENT                                        *
    1285              ;*                                                             *
    1286              ;* FUNCTION PROPERTIES                                         *
    1287              ;*                            0 Parameter,  0 Auto,  0 SOE     *
    1288              ;***************************************************************
TMS320C2000 Assembler PC v6.2.5 Mon Jun 19 18:10:36 2017

Tools Copyright (c) 1996-2014 Texas Instruments Incorporated
C:\Users\wmj\AppData\Local\Temp\1804410                              PAGE   25

    1289              
    1290              _PWM_setRunMode:
    1291              ;* AR4   assigned to _pwmHandle
    1292              $C$DW$111       .dwtag  DW_TAG_variable, DW_AT_name("pwmHandle")
    1293                      .dwattr $C$DW$111, DW_AT_TI_symbol_name("_pwmHandle")
    1294                      .dwattr $C$DW$111, DW_AT_type(*$C$DW$T$127)
    1295                      .dwattr $C$DW$111, DW_AT_location[DW_OP_reg12]
    1296              ;* AL    assigned to _runMode
    1297              $C$DW$112       .dwtag  DW_TAG_variable, DW_AT_name("runMode")
    1298                      .dwattr $C$DW$112, DW_AT_TI_symbol_name("_runMode")
    1299                      .dwattr $C$DW$112, DW_AT_type(*$C$DW$T$107)
    1300                      .dwattr $C$DW$112, DW_AT_location[DW_OP_reg0]
    1301                      .dwcfi  cfa_offset, -2
    1302                      .dwcfi  save_reg_to_mem, 26, 0
    1303                      .dwcfi  save_reg_to_reg, 78, 26
    1304                      .dwpsn  file "C:/ti/motorware/motorware_1_01_00_18/sw/drivers/pwm/src/32b/f28x/f2802x/pwm.c",line 132
    1305 000000ac 18C4          AND       *+XAR4[0],#0x3fff     ; [CPU_] |1324| 
         000000ad 3FFF 
    1306                      .dwpsn  file "C:/ti/motorware/motorware_1_01_00_18/sw/drivers/pwm/src/32b/f28x/f2802x/pwm.c",line 132
    1307 000000ae 98C4          OR        *+XAR4[0],AL          ; [CPU_] |1327| 
    1308              $C$DW$113       .dwtag  DW_TAG_TI_branch
    1309                      .dwattr $C$DW$113, DW_AT_low_pc(0x00)
    1310                      .dwattr $C$DW$113, DW_AT_TI_return
    1311 000000af 0006          LRETR     ; [CPU_] 
    1312                      ; return occurs ; [] 
    1313                      .dwattr $C$DW$108, DW_AT_TI_end_file("C:/ti/motorware/motorware_1_01_00_18/sw/drivers/pwm/src/32b/f28
    1314                      .dwattr $C$DW$108, DW_AT_TI_end_line(0x532)
    1315                      .dwattr $C$DW$108, DW_AT_TI_end_column(0x01)
    1316                      .dwendentry
    1317                      .dwendtag $C$DW$108
    1318              
    1319 000000b0               .sect   ".text"
    1320                      .clink
    1321                      .global _PWM_setPhaseDir
    1322              
    1323              $C$DW$114       .dwtag  DW_TAG_subprogram, DW_AT_name("PWM_setPhaseDir")
    1324                      .dwattr $C$DW$114, DW_AT_low_pc(_PWM_setPhaseDir)
    1325                      .dwattr $C$DW$114, DW_AT_high_pc(0x00)
    1326                      .dwattr $C$DW$114, DW_AT_TI_symbol_name("_PWM_setPhaseDir")
    1327                      .dwattr $C$DW$114, DW_AT_external
    1328                      .dwattr $C$DW$114, DW_AT_TI_begin_file("C:/ti/motorware/motorware_1_01_00_18/sw/drivers/pwm/src/32b/f
    1329                      .dwattr $C$DW$114, DW_AT_TI_begin_line(0x508)
    1330                      .dwattr $C$DW$114, DW_AT_TI_begin_column(0x06)
    1331                      .dwattr $C$DW$114, DW_AT_TI_max_frame_size(-2)
    1332                      .dwpsn  file "C:/ti/motorware/motorware_1_01_00_18/sw/drivers/pwm/src/32b/f28x/f2802x/pwm.c",line 128
    1333              
    1334                      .dwfde $C$DW$CIE, _PWM_setPhaseDir
    1335              $C$DW$115       .dwtag  DW_TAG_formal_parameter, DW_AT_name("pwmHandle")
    1336                      .dwattr $C$DW$115, DW_AT_TI_symbol_name("_pwmHandle")
    1337                      .dwattr $C$DW$115, DW_AT_type(*$C$DW$T$33)
    1338                      .dwattr $C$DW$115, DW_AT_location[DW_OP_reg12]
    1339              $C$DW$116       .dwtag  DW_TAG_formal_parameter, DW_AT_name("phaseDir")
    1340                      .dwattr $C$DW$116, DW_AT_TI_symbol_name("_phaseDir")
    1341                      .dwattr $C$DW$116, DW_AT_type(*$C$DW$T$101)
    1342                      .dwattr $C$DW$116, DW_AT_location[DW_OP_reg0]
TMS320C2000 Assembler PC v6.2.5 Mon Jun 19 18:10:36 2017

Tools Copyright (c) 1996-2014 Texas Instruments Incorporated
C:\Users\wmj\AppData\Local\Temp\1804410                              PAGE   26

    1343              
    1344              ;***************************************************************
    1345              ;* FNAME: _PWM_setPhaseDir              FR SIZE:   0           *
    1346              ;*                                                             *
    1347              ;* FUNCTION ENVIRONMENT                                        *
    1348              ;*                                                             *
    1349              ;* FUNCTION PROPERTIES                                         *
    1350              ;*                            0 Parameter,  0 Auto,  0 SOE     *
    1351              ;***************************************************************
    1352              
    1353              _PWM_setPhaseDir:
    1354              ;* AR4   assigned to _pwmHandle
    1355              $C$DW$117       .dwtag  DW_TAG_variable, DW_AT_name("pwmHandle")
    1356                      .dwattr $C$DW$117, DW_AT_TI_symbol_name("_pwmHandle")
    1357                      .dwattr $C$DW$117, DW_AT_type(*$C$DW$T$127)
    1358                      .dwattr $C$DW$117, DW_AT_location[DW_OP_reg12]
    1359              ;* AL    assigned to _phaseDir
    1360              $C$DW$118       .dwtag  DW_TAG_variable, DW_AT_name("phaseDir")
    1361                      .dwattr $C$DW$118, DW_AT_TI_symbol_name("_phaseDir")
    1362                      .dwattr $C$DW$118, DW_AT_type(*$C$DW$T$101)
    1363                      .dwattr $C$DW$118, DW_AT_location[DW_OP_reg0]
    1364                      .dwcfi  cfa_offset, -2
    1365                      .dwcfi  save_reg_to_mem, 26, 0
    1366                      .dwcfi  save_reg_to_reg, 78, 26
    1367                      .dwpsn  file "C:/ti/motorware/motorware_1_01_00_18/sw/drivers/pwm/src/32b/f28x/f2802x/pwm.c",line 129
    1368 000000b0 18C4          AND       *+XAR4[0],#0xdfff     ; [CPU_] |1294| 
         000000b1 DFFF 
    1369                      .dwpsn  file "C:/ti/motorware/motorware_1_01_00_18/sw/drivers/pwm/src/32b/f28x/f2802x/pwm.c",line 129
    1370 000000b2 98C4          OR        *+XAR4[0],AL          ; [CPU_] |1297| 
    1371              $C$DW$119       .dwtag  DW_TAG_TI_branch
    1372                      .dwattr $C$DW$119, DW_AT_low_pc(0x00)
    1373                      .dwattr $C$DW$119, DW_AT_TI_return
    1374 000000b3 0006          LRETR     ; [CPU_] 
    1375                      ; return occurs ; [] 
    1376                      .dwattr $C$DW$114, DW_AT_TI_end_file("C:/ti/motorware/motorware_1_01_00_18/sw/drivers/pwm/src/32b/f28
    1377                      .dwattr $C$DW$114, DW_AT_TI_end_line(0x514)
    1378                      .dwattr $C$DW$114, DW_AT_TI_end_column(0x01)
    1379                      .dwendentry
    1380                      .dwendtag $C$DW$114
    1381              
    1382 000000b4               .sect   ".text"
    1383                      .clink
    1384                      .global _PWM_setPhase
    1385              
    1386              $C$DW$120       .dwtag  DW_TAG_subprogram, DW_AT_name("PWM_setPhase")
    1387                      .dwattr $C$DW$120, DW_AT_low_pc(_PWM_setPhase)
    1388                      .dwattr $C$DW$120, DW_AT_high_pc(0x00)
    1389                      .dwattr $C$DW$120, DW_AT_TI_symbol_name("_PWM_setPhase")
    1390                      .dwattr $C$DW$120, DW_AT_external
    1391                      .dwattr $C$DW$120, DW_AT_TI_begin_file("C:/ti/motorware/motorware_1_01_00_18/sw/drivers/pwm/src/32b/f
    1392                      .dwattr $C$DW$120, DW_AT_TI_begin_line(0x4fd)
    1393                      .dwattr $C$DW$120, DW_AT_TI_begin_column(0x06)
    1394                      .dwattr $C$DW$120, DW_AT_TI_max_frame_size(-2)
    1395                      .dwpsn  file "C:/ti/motorware/motorware_1_01_00_18/sw/drivers/pwm/src/32b/f28x/f2802x/pwm.c",line 127
    1396              
TMS320C2000 Assembler PC v6.2.5 Mon Jun 19 18:10:36 2017

Tools Copyright (c) 1996-2014 Texas Instruments Incorporated
C:\Users\wmj\AppData\Local\Temp\1804410                              PAGE   27

    1397                      .dwfde $C$DW$CIE, _PWM_setPhase
    1398              $C$DW$121       .dwtag  DW_TAG_formal_parameter, DW_AT_name("pwmHandle")
    1399                      .dwattr $C$DW$121, DW_AT_TI_symbol_name("_pwmHandle")
    1400                      .dwattr $C$DW$121, DW_AT_type(*$C$DW$T$33)
    1401                      .dwattr $C$DW$121, DW_AT_location[DW_OP_reg12]
    1402              $C$DW$122       .dwtag  DW_TAG_formal_parameter, DW_AT_name("phase")
    1403                      .dwattr $C$DW$122, DW_AT_TI_symbol_name("_phase")
    1404                      .dwattr $C$DW$122, DW_AT_type(*$C$DW$T$146)
    1405                      .dwattr $C$DW$122, DW_AT_location[DW_OP_reg0]
    1406              
    1407              ;***************************************************************
    1408              ;* FNAME: _PWM_setPhase                 FR SIZE:   0           *
    1409              ;*                                                             *
    1410              ;* FUNCTION ENVIRONMENT                                        *
    1411              ;*                                                             *
    1412              ;* FUNCTION PROPERTIES                                         *
    1413              ;*                            0 Parameter,  0 Auto,  0 SOE     *
    1414              ;***************************************************************
    1415              
    1416              _PWM_setPhase:
    1417              ;* AR4   assigned to _pwmHandle
    1418              $C$DW$123       .dwtag  DW_TAG_variable, DW_AT_name("pwmHandle")
    1419                      .dwattr $C$DW$123, DW_AT_TI_symbol_name("_pwmHandle")
    1420                      .dwattr $C$DW$123, DW_AT_type(*$C$DW$T$127)
    1421                      .dwattr $C$DW$123, DW_AT_location[DW_OP_reg12]
    1422              ;* AL    assigned to _phase
    1423              $C$DW$124       .dwtag  DW_TAG_variable, DW_AT_name("phase")
    1424                      .dwattr $C$DW$124, DW_AT_TI_symbol_name("_phase")
    1425                      .dwattr $C$DW$124, DW_AT_type(*$C$DW$T$146)
    1426                      .dwattr $C$DW$124, DW_AT_location[DW_OP_reg0]
    1427                      .dwcfi  cfa_offset, -2
    1428                      .dwcfi  save_reg_to_mem, 26, 0
    1429                      .dwcfi  save_reg_to_reg, 78, 26
    1430                      .dwpsn  file "C:/ti/motorware/motorware_1_01_00_18/sw/drivers/pwm/src/32b/f28x/f2802x/pwm.c",line 128
    1431 000000b4 96DC          MOV       *+XAR4[3],AL          ; [CPU_] |1282| 
    1432              $C$DW$125       .dwtag  DW_TAG_TI_branch
    1433                      .dwattr $C$DW$125, DW_AT_low_pc(0x00)
    1434                      .dwattr $C$DW$125, DW_AT_TI_return
    1435 000000b5 0006          LRETR     ; [CPU_] 
    1436                      ; return occurs ; [] 
    1437                      .dwattr $C$DW$120, DW_AT_TI_end_file("C:/ti/motorware/motorware_1_01_00_18/sw/drivers/pwm/src/32b/f28
    1438                      .dwattr $C$DW$120, DW_AT_TI_end_line(0x505)
    1439                      .dwattr $C$DW$120, DW_AT_TI_end_column(0x01)
    1440                      .dwendentry
    1441                      .dwendtag $C$DW$120
    1442              
    1443 000000b6               .sect   ".text"
    1444                      .clink
    1445                      .global _PWM_setPeriodLoad
    1446              
    1447              $C$DW$126       .dwtag  DW_TAG_subprogram, DW_AT_name("PWM_setPeriodLoad")
    1448                      .dwattr $C$DW$126, DW_AT_low_pc(_PWM_setPeriodLoad)
    1449                      .dwattr $C$DW$126, DW_AT_high_pc(0x00)
    1450                      .dwattr $C$DW$126, DW_AT_TI_symbol_name("_PWM_setPeriodLoad")
    1451                      .dwattr $C$DW$126, DW_AT_external
TMS320C2000 Assembler PC v6.2.5 Mon Jun 19 18:10:36 2017

Tools Copyright (c) 1996-2014 Texas Instruments Incorporated
C:\Users\wmj\AppData\Local\Temp\1804410                              PAGE   28

    1452                      .dwattr $C$DW$126, DW_AT_TI_begin_file("C:/ti/motorware/motorware_1_01_00_18/sw/drivers/pwm/src/32b/f
    1453                      .dwattr $C$DW$126, DW_AT_TI_begin_line(0x517)
    1454                      .dwattr $C$DW$126, DW_AT_TI_begin_column(0x06)
    1455                      .dwattr $C$DW$126, DW_AT_TI_max_frame_size(-2)
    1456                      .dwpsn  file "C:/ti/motorware/motorware_1_01_00_18/sw/drivers/pwm/src/32b/f28x/f2802x/pwm.c",line 130
    1457              
    1458                      .dwfde $C$DW$CIE, _PWM_setPeriodLoad
    1459              $C$DW$127       .dwtag  DW_TAG_formal_parameter, DW_AT_name("pwmHandle")
    1460                      .dwattr $C$DW$127, DW_AT_TI_symbol_name("_pwmHandle")
    1461                      .dwattr $C$DW$127, DW_AT_type(*$C$DW$T$33)
    1462                      .dwattr $C$DW$127, DW_AT_location[DW_OP_reg12]
    1463              $C$DW$128       .dwtag  DW_TAG_formal_parameter, DW_AT_name("periodLoad")
    1464                      .dwattr $C$DW$128, DW_AT_TI_symbol_name("_periodLoad")
    1465                      .dwattr $C$DW$128, DW_AT_type(*$C$DW$T$104)
    1466                      .dwattr $C$DW$128, DW_AT_location[DW_OP_reg0]
    1467              
    1468              ;***************************************************************
    1469              ;* FNAME: _PWM_setPeriodLoad            FR SIZE:   0           *
    1470              ;*                                                             *
    1471              ;* FUNCTION ENVIRONMENT                                        *
    1472              ;*                                                             *
    1473              ;* FUNCTION PROPERTIES                                         *
    1474              ;*                            0 Parameter,  0 Auto,  0 SOE     *
    1475              ;***************************************************************
    1476              
    1477              _PWM_setPeriodLoad:
    1478              ;* AR4   assigned to _pwmHandle
    1479              $C$DW$129       .dwtag  DW_TAG_variable, DW_AT_name("pwmHandle")
    1480                      .dwattr $C$DW$129, DW_AT_TI_symbol_name("_pwmHandle")
    1481                      .dwattr $C$DW$129, DW_AT_type(*$C$DW$T$127)
    1482                      .dwattr $C$DW$129, DW_AT_location[DW_OP_reg12]
    1483              ;* AL    assigned to _periodLoad
    1484              $C$DW$130       .dwtag  DW_TAG_variable, DW_AT_name("periodLoad")
    1485                      .dwattr $C$DW$130, DW_AT_TI_symbol_name("_periodLoad")
    1486                      .dwattr $C$DW$130, DW_AT_type(*$C$DW$T$104)
    1487                      .dwattr $C$DW$130, DW_AT_location[DW_OP_reg0]
    1488                      .dwcfi  cfa_offset, -2
    1489                      .dwcfi  save_reg_to_mem, 26, 0
    1490                      .dwcfi  save_reg_to_reg, 78, 26
    1491                      .dwpsn  file "C:/ti/motorware/motorware_1_01_00_18/sw/drivers/pwm/src/32b/f28x/f2802x/pwm.c",line 130
    1492 000000b6 18C4          AND       *+XAR4[0],#0xfff7     ; [CPU_] |1309| 
         000000b7 FFF7 
    1493                      .dwpsn  file "C:/ti/motorware/motorware_1_01_00_18/sw/drivers/pwm/src/32b/f28x/f2802x/pwm.c",line 131
    1494 000000b8 98C4          OR        *+XAR4[0],AL          ; [CPU_] |1312| 
    1495              $C$DW$131       .dwtag  DW_TAG_TI_branch
    1496                      .dwattr $C$DW$131, DW_AT_low_pc(0x00)
    1497                      .dwattr $C$DW$131, DW_AT_TI_return
    1498 000000b9 0006          LRETR     ; [CPU_] 
    1499                      ; return occurs ; [] 
    1500                      .dwattr $C$DW$126, DW_AT_TI_end_file("C:/ti/motorware/motorware_1_01_00_18/sw/drivers/pwm/src/32b/f28
    1501                      .dwattr $C$DW$126, DW_AT_TI_end_line(0x523)
    1502                      .dwattr $C$DW$126, DW_AT_TI_end_column(0x01)
    1503                      .dwendentry
    1504                      .dwendtag $C$DW$126
    1505              
TMS320C2000 Assembler PC v6.2.5 Mon Jun 19 18:10:36 2017

Tools Copyright (c) 1996-2014 Texas Instruments Incorporated
C:\Users\wmj\AppData\Local\Temp\1804410                              PAGE   29

    1506 000000ba               .sect   ".text"
    1507                      .clink
    1508                      .global _PWM_setPeriodHr
    1509              
    1510              $C$DW$132       .dwtag  DW_TAG_subprogram, DW_AT_name("PWM_setPeriodHr")
    1511                      .dwattr $C$DW$132, DW_AT_low_pc(_PWM_setPeriodHr)
    1512                      .dwattr $C$DW$132, DW_AT_high_pc(0x00)
    1513                      .dwattr $C$DW$132, DW_AT_TI_symbol_name("_PWM_setPeriodHr")
    1514                      .dwattr $C$DW$132, DW_AT_external
    1515                      .dwattr $C$DW$132, DW_AT_TI_begin_file("C:/ti/motorware/motorware_1_01_00_18/sw/drivers/pwm/src/32b/f
    1516                      .dwattr $C$DW$132, DW_AT_TI_begin_line(0x4ee)
    1517                      .dwattr $C$DW$132, DW_AT_TI_begin_column(0x06)
    1518                      .dwattr $C$DW$132, DW_AT_TI_max_frame_size(-2)
    1519                      .dwpsn  file "C:/ti/motorware/motorware_1_01_00_18/sw/drivers/pwm/src/32b/f28x/f2802x/pwm.c",line 126
    1520              
    1521                      .dwfde $C$DW$CIE, _PWM_setPeriodHr
    1522              $C$DW$133       .dwtag  DW_TAG_formal_parameter, DW_AT_name("pwmHandle")
    1523                      .dwattr $C$DW$133, DW_AT_TI_symbol_name("_pwmHandle")
    1524                      .dwattr $C$DW$133, DW_AT_type(*$C$DW$T$33)
    1525                      .dwattr $C$DW$133, DW_AT_location[DW_OP_reg12]
    1526              $C$DW$134       .dwtag  DW_TAG_formal_parameter, DW_AT_name("period")
    1527                      .dwattr $C$DW$134, DW_AT_TI_symbol_name("_period")
    1528                      .dwattr $C$DW$134, DW_AT_type(*$C$DW$T$146)
    1529                      .dwattr $C$DW$134, DW_AT_location[DW_OP_reg0]
    1530              
    1531              ;***************************************************************
    1532              ;* FNAME: _PWM_setPeriodHr              FR SIZE:   0           *
    1533              ;*                                                             *
    1534              ;* FUNCTION ENVIRONMENT                                        *
    1535              ;*                                                             *
    1536              ;* FUNCTION PROPERTIES                                         *
    1537              ;*                            0 Parameter,  0 Auto,  0 SOE     *
    1538              ;***************************************************************
    1539              
    1540              _PWM_setPeriodHr:
    1541              ;* AR4   assigned to _pwmHandle
    1542              $C$DW$135       .dwtag  DW_TAG_variable, DW_AT_name("pwmHandle")
    1543                      .dwattr $C$DW$135, DW_AT_TI_symbol_name("_pwmHandle")
    1544                      .dwattr $C$DW$135, DW_AT_type(*$C$DW$T$127)
    1545                      .dwattr $C$DW$135, DW_AT_location[DW_OP_reg12]
    1546              ;* AL    assigned to _period
    1547              $C$DW$136       .dwtag  DW_TAG_variable, DW_AT_name("period")
    1548                      .dwattr $C$DW$136, DW_AT_TI_symbol_name("_period")
    1549                      .dwattr $C$DW$136, DW_AT_type(*$C$DW$T$146)
    1550                      .dwattr $C$DW$136, DW_AT_location[DW_OP_reg0]
    1551                      .dwcfi  cfa_offset, -2
    1552                      .dwcfi  save_reg_to_mem, 26, 0
    1553                      .dwcfi  save_reg_to_reg, 78, 26
    1554 000000ba 7622   EALLOW
    1555                      .dwpsn  file "C:/ti/motorware/motorware_1_01_00_18/sw/drivers/pwm/src/32b/f28x/f2802x/pwm.c",line 126
    1556 000000bb 96F4          MOV       *+XAR4[6],AL          ; [CPU_] |1269| 
    1557 000000bc 761A   EDIS
    1558 000000bd FF69          SPM       #0                    ; [CPU_] 
    1559              $C$DW$137       .dwtag  DW_TAG_TI_branch
    1560                      .dwattr $C$DW$137, DW_AT_low_pc(0x00)
TMS320C2000 Assembler PC v6.2.5 Mon Jun 19 18:10:36 2017

Tools Copyright (c) 1996-2014 Texas Instruments Incorporated
C:\Users\wmj\AppData\Local\Temp\1804410                              PAGE   30

    1561                      .dwattr $C$DW$137, DW_AT_TI_return
    1562 000000be 0006          LRETR     ; [CPU_] 
    1563                      ; return occurs ; [] 
    1564                      .dwattr $C$DW$132, DW_AT_TI_end_file("C:/ti/motorware/motorware_1_01_00_18/sw/drivers/pwm/src/32b/f28
    1565                      .dwattr $C$DW$132, DW_AT_TI_end_line(0x4fa)
    1566                      .dwattr $C$DW$132, DW_AT_TI_end_column(0x01)
    1567                      .dwendentry
    1568                      .dwendtag $C$DW$132
    1569              
    1570 000000bf               .sect   ".text"
    1571                      .clink
    1572                      .global _PWM_setPeriod
    1573              
    1574              $C$DW$138       .dwtag  DW_TAG_subprogram, DW_AT_name("PWM_setPeriod")
    1575                      .dwattr $C$DW$138, DW_AT_low_pc(_PWM_setPeriod)
    1576                      .dwattr $C$DW$138, DW_AT_high_pc(0x00)
    1577                      .dwattr $C$DW$138, DW_AT_TI_symbol_name("_PWM_setPeriod")
    1578                      .dwattr $C$DW$138, DW_AT_external
    1579                      .dwattr $C$DW$138, DW_AT_TI_begin_file("C:/ti/motorware/motorware_1_01_00_18/sw/drivers/pwm/src/32b/f
    1580                      .dwattr $C$DW$138, DW_AT_TI_begin_line(0x4e2)
    1581                      .dwattr $C$DW$138, DW_AT_TI_begin_column(0x06)
    1582                      .dwattr $C$DW$138, DW_AT_TI_max_frame_size(-2)
    1583                      .dwpsn  file "C:/ti/motorware/motorware_1_01_00_18/sw/drivers/pwm/src/32b/f28x/f2802x/pwm.c",line 125
    1584              
    1585                      .dwfde $C$DW$CIE, _PWM_setPeriod
    1586              $C$DW$139       .dwtag  DW_TAG_formal_parameter, DW_AT_name("pwmHandle")
    1587                      .dwattr $C$DW$139, DW_AT_TI_symbol_name("_pwmHandle")
    1588                      .dwattr $C$DW$139, DW_AT_type(*$C$DW$T$33)
    1589                      .dwattr $C$DW$139, DW_AT_location[DW_OP_reg12]
    1590              $C$DW$140       .dwtag  DW_TAG_formal_parameter, DW_AT_name("period")
    1591                      .dwattr $C$DW$140, DW_AT_TI_symbol_name("_period")
    1592                      .dwattr $C$DW$140, DW_AT_type(*$C$DW$T$146)
    1593                      .dwattr $C$DW$140, DW_AT_location[DW_OP_reg0]
    1594              
    1595              ;***************************************************************
    1596              ;* FNAME: _PWM_setPeriod                FR SIZE:   0           *
    1597              ;*                                                             *
    1598              ;* FUNCTION ENVIRONMENT                                        *
    1599              ;*                                                             *
    1600              ;* FUNCTION PROPERTIES                                         *
    1601              ;*                            0 Parameter,  0 Auto,  0 SOE     *
    1602              ;***************************************************************
    1603              
    1604              _PWM_setPeriod:
    1605              ;* AR4   assigned to _pwmHandle
    1606              $C$DW$141       .dwtag  DW_TAG_variable, DW_AT_name("pwmHandle")
    1607                      .dwattr $C$DW$141, DW_AT_TI_symbol_name("_pwmHandle")
    1608                      .dwattr $C$DW$141, DW_AT_type(*$C$DW$T$127)
    1609                      .dwattr $C$DW$141, DW_AT_location[DW_OP_reg12]
    1610              ;* AL    assigned to _period
    1611              $C$DW$142       .dwtag  DW_TAG_variable, DW_AT_name("period")
    1612                      .dwattr $C$DW$142, DW_AT_TI_symbol_name("_period")
    1613                      .dwattr $C$DW$142, DW_AT_type(*$C$DW$T$146)
    1614                      .dwattr $C$DW$142, DW_AT_location[DW_OP_reg0]
    1615                      .dwcfi  cfa_offset, -2
TMS320C2000 Assembler PC v6.2.5 Mon Jun 19 18:10:36 2017

Tools Copyright (c) 1996-2014 Texas Instruments Incorporated
C:\Users\wmj\AppData\Local\Temp\1804410                              PAGE   31

    1616                      .dwcfi  save_reg_to_mem, 26, 0
    1617                      .dwcfi  save_reg_to_reg, 78, 26
    1618                      .dwpsn  file "C:/ti/motorware/motorware_1_01_00_18/sw/drivers/pwm/src/32b/f28x/f2802x/pwm.c",line 125
    1619 000000bf 96EC          MOV       *+XAR4[5],AL          ; [CPU_] |1256| 
    1620              $C$DW$143       .dwtag  DW_TAG_TI_branch
    1621                      .dwattr $C$DW$143, DW_AT_low_pc(0x00)
    1622                      .dwattr $C$DW$143, DW_AT_TI_return
    1623 000000c0 0006          LRETR     ; [CPU_] 
    1624                      ; return occurs ; [] 
    1625                      .dwattr $C$DW$138, DW_AT_TI_end_file("C:/ti/motorware/motorware_1_01_00_18/sw/drivers/pwm/src/32b/f28
    1626                      .dwattr $C$DW$138, DW_AT_TI_end_line(0x4eb)
    1627                      .dwattr $C$DW$138, DW_AT_TI_end_column(0x01)
    1628                      .dwendentry
    1629                      .dwendtag $C$DW$138
    1630              
    1631 000000c1               .sect   ".text"
    1632                      .clink
    1633                      .global _PWM_setLoadMode_CmpB
    1634              
    1635              $C$DW$144       .dwtag  DW_TAG_subprogram, DW_AT_name("PWM_setLoadMode_CmpB")
    1636                      .dwattr $C$DW$144, DW_AT_low_pc(_PWM_setLoadMode_CmpB)
    1637                      .dwattr $C$DW$144, DW_AT_high_pc(0x00)
    1638                      .dwattr $C$DW$144, DW_AT_TI_symbol_name("_PWM_setLoadMode_CmpB")
    1639                      .dwattr $C$DW$144, DW_AT_external
    1640                      .dwattr $C$DW$144, DW_AT_TI_begin_file("C:/ti/motorware/motorware_1_01_00_18/sw/drivers/pwm/src/32b/f
    1641                      .dwattr $C$DW$144, DW_AT_TI_begin_line(0x4d3)
    1642                      .dwattr $C$DW$144, DW_AT_TI_begin_column(0x06)
    1643                      .dwattr $C$DW$144, DW_AT_TI_max_frame_size(-2)
    1644                      .dwpsn  file "C:/ti/motorware/motorware_1_01_00_18/sw/drivers/pwm/src/32b/f28x/f2802x/pwm.c",line 123
    1645              
    1646                      .dwfde $C$DW$CIE, _PWM_setLoadMode_CmpB
    1647              $C$DW$145       .dwtag  DW_TAG_formal_parameter, DW_AT_name("pwmHandle")
    1648                      .dwattr $C$DW$145, DW_AT_TI_symbol_name("_pwmHandle")
    1649                      .dwattr $C$DW$145, DW_AT_type(*$C$DW$T$33)
    1650                      .dwattr $C$DW$145, DW_AT_location[DW_OP_reg12]
    1651              $C$DW$146       .dwtag  DW_TAG_formal_parameter, DW_AT_name("loadMode")
    1652                      .dwattr $C$DW$146, DW_AT_TI_symbol_name("_loadMode")
    1653                      .dwattr $C$DW$146, DW_AT_type(*$C$DW$T$98)
    1654                      .dwattr $C$DW$146, DW_AT_location[DW_OP_reg0]
    1655              
    1656              ;***************************************************************
    1657              ;* FNAME: _PWM_setLoadMode_CmpB         FR SIZE:   0           *
    1658              ;*                                                             *
    1659              ;* FUNCTION ENVIRONMENT                                        *
    1660              ;*                                                             *
    1661              ;* FUNCTION PROPERTIES                                         *
    1662              ;*                            0 Parameter,  0 Auto,  0 SOE     *
    1663              ;***************************************************************
    1664              
    1665              _PWM_setLoadMode_CmpB:
    1666              ;* AR4   assigned to _pwmHandle
    1667              $C$DW$147       .dwtag  DW_TAG_variable, DW_AT_name("pwmHandle")
    1668                      .dwattr $C$DW$147, DW_AT_TI_symbol_name("_pwmHandle")
    1669                      .dwattr $C$DW$147, DW_AT_type(*$C$DW$T$127)
    1670                      .dwattr $C$DW$147, DW_AT_location[DW_OP_reg12]
TMS320C2000 Assembler PC v6.2.5 Mon Jun 19 18:10:36 2017

Tools Copyright (c) 1996-2014 Texas Instruments Incorporated
C:\Users\wmj\AppData\Local\Temp\1804410                              PAGE   32

    1671              ;* AL    assigned to _loadMode
    1672              $C$DW$148       .dwtag  DW_TAG_variable, DW_AT_name("loadMode")
    1673                      .dwattr $C$DW$148, DW_AT_TI_symbol_name("_loadMode")
    1674                      .dwattr $C$DW$148, DW_AT_type(*$C$DW$T$98)
    1675                      .dwattr $C$DW$148, DW_AT_location[DW_OP_reg0]
    1676                      .dwcfi  cfa_offset, -2
    1677                      .dwcfi  save_reg_to_mem, 26, 0
    1678                      .dwcfi  save_reg_to_reg, 78, 26
    1679                      .dwpsn  file "C:/ti/motorware/motorware_1_01_00_18/sw/drivers/pwm/src/32b/f28x/f2802x/pwm.c",line 124
    1680 000000c1 18FC          AND       *+XAR4[7],#0xfff3     ; [CPU_] |1241| 
         000000c2 FFF3 
    1681                      .dwpsn  file "C:/ti/motorware/motorware_1_01_00_18/sw/drivers/pwm/src/32b/f28x/f2802x/pwm.c",line 124
    1682 000000c3 5603          MOV       ACC,AL << #2          ; [CPU_] |1244| 
         000000c4 02A9 
    1683 000000c5 98FC          OR        *+XAR4[7],AL          ; [CPU_] |1244| 
    1684              $C$DW$149       .dwtag  DW_TAG_TI_branch
    1685                      .dwattr $C$DW$149, DW_AT_low_pc(0x00)
    1686                      .dwattr $C$DW$149, DW_AT_TI_return
    1687 000000c6 0006          LRETR     ; [CPU_] 
    1688                      ; return occurs ; [] 
    1689                      .dwattr $C$DW$144, DW_AT_TI_end_file("C:/ti/motorware/motorware_1_01_00_18/sw/drivers/pwm/src/32b/f28
    1690                      .dwattr $C$DW$144, DW_AT_TI_end_line(0x4df)
    1691                      .dwattr $C$DW$144, DW_AT_TI_end_column(0x01)
    1692                      .dwendentry
    1693                      .dwendtag $C$DW$144
    1694              
    1695 000000c7               .sect   ".text"
    1696                      .clink
    1697                      .global _PWM_setLoadMode_CmpA
    1698              
    1699              $C$DW$150       .dwtag  DW_TAG_subprogram, DW_AT_name("PWM_setLoadMode_CmpA")
    1700                      .dwattr $C$DW$150, DW_AT_low_pc(_PWM_setLoadMode_CmpA)
    1701                      .dwattr $C$DW$150, DW_AT_high_pc(0x00)
    1702                      .dwattr $C$DW$150, DW_AT_TI_symbol_name("_PWM_setLoadMode_CmpA")
    1703                      .dwattr $C$DW$150, DW_AT_external
    1704                      .dwattr $C$DW$150, DW_AT_TI_begin_file("C:/ti/motorware/motorware_1_01_00_18/sw/drivers/pwm/src/32b/f
    1705                      .dwattr $C$DW$150, DW_AT_TI_begin_line(0x4c4)
    1706                      .dwattr $C$DW$150, DW_AT_TI_begin_column(0x06)
    1707                      .dwattr $C$DW$150, DW_AT_TI_max_frame_size(-2)
    1708                      .dwpsn  file "C:/ti/motorware/motorware_1_01_00_18/sw/drivers/pwm/src/32b/f28x/f2802x/pwm.c",line 122
    1709              
    1710                      .dwfde $C$DW$CIE, _PWM_setLoadMode_CmpA
    1711              $C$DW$151       .dwtag  DW_TAG_formal_parameter, DW_AT_name("pwmHandle")
    1712                      .dwattr $C$DW$151, DW_AT_TI_symbol_name("_pwmHandle")
    1713                      .dwattr $C$DW$151, DW_AT_type(*$C$DW$T$33)
    1714                      .dwattr $C$DW$151, DW_AT_location[DW_OP_reg12]
    1715              $C$DW$152       .dwtag  DW_TAG_formal_parameter, DW_AT_name("loadMode")
    1716                      .dwattr $C$DW$152, DW_AT_TI_symbol_name("_loadMode")
    1717                      .dwattr $C$DW$152, DW_AT_type(*$C$DW$T$98)
    1718                      .dwattr $C$DW$152, DW_AT_location[DW_OP_reg0]
    1719              
    1720              ;***************************************************************
    1721              ;* FNAME: _PWM_setLoadMode_CmpA         FR SIZE:   0           *
    1722              ;*                                                             *
    1723              ;* FUNCTION ENVIRONMENT                                        *
TMS320C2000 Assembler PC v6.2.5 Mon Jun 19 18:10:36 2017

Tools Copyright (c) 1996-2014 Texas Instruments Incorporated
C:\Users\wmj\AppData\Local\Temp\1804410                              PAGE   33

    1724              ;*                                                             *
    1725              ;* FUNCTION PROPERTIES                                         *
    1726              ;*                            0 Parameter,  0 Auto,  0 SOE     *
    1727              ;***************************************************************
    1728              
    1729              _PWM_setLoadMode_CmpA:
    1730              ;* AR4   assigned to _pwmHandle
    1731              $C$DW$153       .dwtag  DW_TAG_variable, DW_AT_name("pwmHandle")
    1732                      .dwattr $C$DW$153, DW_AT_TI_symbol_name("_pwmHandle")
    1733                      .dwattr $C$DW$153, DW_AT_type(*$C$DW$T$127)
    1734                      .dwattr $C$DW$153, DW_AT_location[DW_OP_reg12]
    1735              ;* AL    assigned to _loadMode
    1736              $C$DW$154       .dwtag  DW_TAG_variable, DW_AT_name("loadMode")
    1737                      .dwattr $C$DW$154, DW_AT_TI_symbol_name("_loadMode")
    1738                      .dwattr $C$DW$154, DW_AT_type(*$C$DW$T$98)
    1739                      .dwattr $C$DW$154, DW_AT_location[DW_OP_reg0]
    1740                      .dwcfi  cfa_offset, -2
    1741                      .dwcfi  save_reg_to_mem, 26, 0
    1742                      .dwcfi  save_reg_to_reg, 78, 26
    1743                      .dwpsn  file "C:/ti/motorware/motorware_1_01_00_18/sw/drivers/pwm/src/32b/f28x/f2802x/pwm.c",line 122
    1744 000000c7 18FC          AND       *+XAR4[7],#0xfffc     ; [CPU_] |1226| 
         000000c8 FFFC 
    1745                      .dwpsn  file "C:/ti/motorware/motorware_1_01_00_18/sw/drivers/pwm/src/32b/f28x/f2802x/pwm.c",line 122
    1746 000000c9 98FC          OR        *+XAR4[7],AL          ; [CPU_] |1229| 
    1747              $C$DW$155       .dwtag  DW_TAG_TI_branch
    1748                      .dwattr $C$DW$155, DW_AT_low_pc(0x00)
    1749                      .dwattr $C$DW$155, DW_AT_TI_return
    1750 000000ca 0006          LRETR     ; [CPU_] 
    1751                      ; return occurs ; [] 
    1752                      .dwattr $C$DW$150, DW_AT_TI_end_file("C:/ti/motorware/motorware_1_01_00_18/sw/drivers/pwm/src/32b/f28
    1753                      .dwattr $C$DW$150, DW_AT_TI_end_line(0x4d0)
    1754                      .dwattr $C$DW$150, DW_AT_TI_end_column(0x01)
    1755                      .dwendentry
    1756                      .dwendtag $C$DW$150
    1757              
    1758 000000cb               .sect   ".text"
    1759                      .clink
    1760                      .global _PWM_setIntPeriod
    1761              
    1762              $C$DW$156       .dwtag  DW_TAG_subprogram, DW_AT_name("PWM_setIntPeriod")
    1763                      .dwattr $C$DW$156, DW_AT_low_pc(_PWM_setIntPeriod)
    1764                      .dwattr $C$DW$156, DW_AT_high_pc(0x00)
    1765                      .dwattr $C$DW$156, DW_AT_TI_symbol_name("_PWM_setIntPeriod")
    1766                      .dwattr $C$DW$156, DW_AT_external
    1767                      .dwattr $C$DW$156, DW_AT_TI_begin_file("C:/ti/motorware/motorware_1_01_00_18/sw/drivers/pwm/src/32b/f
    1768                      .dwattr $C$DW$156, DW_AT_TI_begin_line(0x4b5)
    1769                      .dwattr $C$DW$156, DW_AT_TI_begin_column(0x06)
    1770                      .dwattr $C$DW$156, DW_AT_TI_max_frame_size(-2)
    1771                      .dwpsn  file "C:/ti/motorware/motorware_1_01_00_18/sw/drivers/pwm/src/32b/f28x/f2802x/pwm.c",line 120
    1772              
    1773                      .dwfde $C$DW$CIE, _PWM_setIntPeriod
    1774              $C$DW$157       .dwtag  DW_TAG_formal_parameter, DW_AT_name("pwmHandle")
    1775                      .dwattr $C$DW$157, DW_AT_TI_symbol_name("_pwmHandle")
    1776                      .dwattr $C$DW$157, DW_AT_type(*$C$DW$T$33)
    1777                      .dwattr $C$DW$157, DW_AT_location[DW_OP_reg12]
TMS320C2000 Assembler PC v6.2.5 Mon Jun 19 18:10:36 2017

Tools Copyright (c) 1996-2014 Texas Instruments Incorporated
C:\Users\wmj\AppData\Local\Temp\1804410                              PAGE   34

    1778              $C$DW$158       .dwtag  DW_TAG_formal_parameter, DW_AT_name("intPeriod")
    1779                      .dwattr $C$DW$158, DW_AT_TI_symbol_name("_intPeriod")
    1780                      .dwattr $C$DW$158, DW_AT_type(*$C$DW$T$95)
    1781                      .dwattr $C$DW$158, DW_AT_location[DW_OP_reg0]
    1782              
    1783              ;***************************************************************
    1784              ;* FNAME: _PWM_setIntPeriod             FR SIZE:   0           *
    1785              ;*                                                             *
    1786              ;* FUNCTION ENVIRONMENT                                        *
    1787              ;*                                                             *
    1788              ;* FUNCTION PROPERTIES                                         *
    1789              ;*                            0 Parameter,  0 Auto,  0 SOE     *
    1790              ;***************************************************************
    1791              
    1792              _PWM_setIntPeriod:
    1793              ;* AR4   assigned to _pwmHandle
    1794              $C$DW$159       .dwtag  DW_TAG_variable, DW_AT_name("pwmHandle")
    1795                      .dwattr $C$DW$159, DW_AT_TI_symbol_name("_pwmHandle")
    1796                      .dwattr $C$DW$159, DW_AT_type(*$C$DW$T$127)
    1797                      .dwattr $C$DW$159, DW_AT_location[DW_OP_reg12]
    1798              ;* AL    assigned to _intPeriod
    1799              $C$DW$160       .dwtag  DW_TAG_variable, DW_AT_name("intPeriod")
    1800                      .dwattr $C$DW$160, DW_AT_TI_symbol_name("_intPeriod")
    1801                      .dwattr $C$DW$160, DW_AT_type(*$C$DW$T$95)
    1802                      .dwattr $C$DW$160, DW_AT_location[DW_OP_reg0]
    1803                      .dwcfi  cfa_offset, -2
    1804                      .dwcfi  save_reg_to_mem, 26, 0
    1805                      .dwcfi  save_reg_to_reg, 78, 26
    1806                      .dwpsn  file "C:/ti/motorware/motorware_1_01_00_18/sw/drivers/pwm/src/32b/f28x/f2802x/pwm.c",line 121
    1807 000000cb 83A4          MOVL      XAR5,XAR4             ; [CPU_] |1211| 
    1808 000000cc DD1A          ADDB      XAR5,#26              ; [CPU_] |1211| 
    1809 000000cd 18C5          AND       *+XAR5[0],#0xfffc     ; [CPU_] |1211| 
         000000ce FFFC 
    1810                      .dwpsn  file "C:/ti/motorware/motorware_1_01_00_18/sw/drivers/pwm/src/32b/f28x/f2802x/pwm.c",line 121
    1811 000000cf DC1A          ADDB      XAR4,#26              ; [CPU_] |1214| 
    1812 000000d0 98C4          OR        *+XAR4[0],AL          ; [CPU_] |1214| 
    1813              $C$DW$161       .dwtag  DW_TAG_TI_branch
    1814                      .dwattr $C$DW$161, DW_AT_low_pc(0x00)
    1815                      .dwattr $C$DW$161, DW_AT_TI_return
    1816 000000d1 0006          LRETR     ; [CPU_] 
    1817                      ; return occurs ; [] 
    1818                      .dwattr $C$DW$156, DW_AT_TI_end_file("C:/ti/motorware/motorware_1_01_00_18/sw/drivers/pwm/src/32b/f28
    1819                      .dwattr $C$DW$156, DW_AT_TI_end_line(0x4c1)
    1820                      .dwattr $C$DW$156, DW_AT_TI_end_column(0x01)
    1821                      .dwendentry
    1822                      .dwendtag $C$DW$156
    1823              
    1824 000000d2               .sect   ".text"
    1825                      .clink
    1826                      .global _PWM_setIntMode
    1827              
    1828              $C$DW$162       .dwtag  DW_TAG_subprogram, DW_AT_name("PWM_setIntMode")
    1829                      .dwattr $C$DW$162, DW_AT_low_pc(_PWM_setIntMode)
    1830                      .dwattr $C$DW$162, DW_AT_high_pc(0x00)
    1831                      .dwattr $C$DW$162, DW_AT_TI_symbol_name("_PWM_setIntMode")
TMS320C2000 Assembler PC v6.2.5 Mon Jun 19 18:10:36 2017

Tools Copyright (c) 1996-2014 Texas Instruments Incorporated
C:\Users\wmj\AppData\Local\Temp\1804410                              PAGE   35

    1832                      .dwattr $C$DW$162, DW_AT_external
    1833                      .dwattr $C$DW$162, DW_AT_TI_begin_file("C:/ti/motorware/motorware_1_01_00_18/sw/drivers/pwm/src/32b/f
    1834                      .dwattr $C$DW$162, DW_AT_TI_begin_line(0x4a6)
    1835                      .dwattr $C$DW$162, DW_AT_TI_begin_column(0x06)
    1836                      .dwattr $C$DW$162, DW_AT_TI_max_frame_size(-2)
    1837                      .dwpsn  file "C:/ti/motorware/motorware_1_01_00_18/sw/drivers/pwm/src/32b/f28x/f2802x/pwm.c",line 119
    1838              
    1839                      .dwfde $C$DW$CIE, _PWM_setIntMode
    1840              $C$DW$163       .dwtag  DW_TAG_formal_parameter, DW_AT_name("pwmHandle")
    1841                      .dwattr $C$DW$163, DW_AT_TI_symbol_name("_pwmHandle")
    1842                      .dwattr $C$DW$163, DW_AT_type(*$C$DW$T$33)
    1843                      .dwattr $C$DW$163, DW_AT_location[DW_OP_reg12]
    1844              $C$DW$164       .dwtag  DW_TAG_formal_parameter, DW_AT_name("intMode")
    1845                      .dwattr $C$DW$164, DW_AT_TI_symbol_name("_intMode")
    1846                      .dwattr $C$DW$164, DW_AT_type(*$C$DW$T$92)
    1847                      .dwattr $C$DW$164, DW_AT_location[DW_OP_reg0]
    1848              
    1849              ;***************************************************************
    1850              ;* FNAME: _PWM_setIntMode               FR SIZE:   0           *
    1851              ;*                                                             *
    1852              ;* FUNCTION ENVIRONMENT                                        *
    1853              ;*                                                             *
    1854              ;* FUNCTION PROPERTIES                                         *
    1855              ;*                            0 Parameter,  0 Auto,  0 SOE     *
    1856              ;***************************************************************
    1857              
    1858              _PWM_setIntMode:
    1859              ;* AR4   assigned to _pwmHandle
    1860              $C$DW$165       .dwtag  DW_TAG_variable, DW_AT_name("pwmHandle")
    1861                      .dwattr $C$DW$165, DW_AT_TI_symbol_name("_pwmHandle")
    1862                      .dwattr $C$DW$165, DW_AT_type(*$C$DW$T$127)
    1863                      .dwattr $C$DW$165, DW_AT_location[DW_OP_reg12]
    1864              ;* AL    assigned to _intMode
    1865              $C$DW$166       .dwtag  DW_TAG_variable, DW_AT_name("intMode")
    1866                      .dwattr $C$DW$166, DW_AT_TI_symbol_name("_intMode")
    1867                      .dwattr $C$DW$166, DW_AT_type(*$C$DW$T$92)
    1868                      .dwattr $C$DW$166, DW_AT_location[DW_OP_reg0]
    1869                      .dwcfi  cfa_offset, -2
    1870                      .dwcfi  save_reg_to_mem, 26, 0
    1871                      .dwcfi  save_reg_to_reg, 78, 26
    1872                      .dwpsn  file "C:/ti/motorware/motorware_1_01_00_18/sw/drivers/pwm/src/32b/f28x/f2802x/pwm.c",line 119
    1873 000000d2 83A4          MOVL      XAR5,XAR4             ; [CPU_] |1196| 
    1874 000000d3 DD19          ADDB      XAR5,#25              ; [CPU_] |1196| 
    1875 000000d4 18C5          AND       *+XAR5[0],#0xfff8     ; [CPU_] |1196| 
         000000d5 FFF8 
    1876                      .dwpsn  file "C:/ti/motorware/motorware_1_01_00_18/sw/drivers/pwm/src/32b/f28x/f2802x/pwm.c",line 119
    1877 000000d6 DC19          ADDB      XAR4,#25              ; [CPU_] |1199| 
    1878 000000d7 98C4          OR        *+XAR4[0],AL          ; [CPU_] |1199| 
    1879              $C$DW$167       .dwtag  DW_TAG_TI_branch
    1880                      .dwattr $C$DW$167, DW_AT_low_pc(0x00)
    1881                      .dwattr $C$DW$167, DW_AT_TI_return
    1882 000000d8 0006          LRETR     ; [CPU_] 
    1883                      ; return occurs ; [] 
    1884                      .dwattr $C$DW$162, DW_AT_TI_end_file("C:/ti/motorware/motorware_1_01_00_18/sw/drivers/pwm/src/32b/f28
    1885                      .dwattr $C$DW$162, DW_AT_TI_end_line(0x4b2)
TMS320C2000 Assembler PC v6.2.5 Mon Jun 19 18:10:36 2017

Tools Copyright (c) 1996-2014 Texas Instruments Incorporated
C:\Users\wmj\AppData\Local\Temp\1804410                              PAGE   36

    1886                      .dwattr $C$DW$162, DW_AT_TI_end_column(0x01)
    1887                      .dwendentry
    1888                      .dwendtag $C$DW$162
    1889              
    1890 000000d9               .sect   ".text"
    1891                      .clink
    1892                      .global _PWM_setHrShadowMode
    1893              
    1894              $C$DW$168       .dwtag  DW_TAG_subprogram, DW_AT_name("PWM_setHrShadowMode")
    1895                      .dwattr $C$DW$168, DW_AT_low_pc(_PWM_setHrShadowMode)
    1896                      .dwattr $C$DW$168, DW_AT_high_pc(0x00)
    1897                      .dwattr $C$DW$168, DW_AT_TI_symbol_name("_PWM_setHrShadowMode")
    1898                      .dwattr $C$DW$168, DW_AT_external
    1899                      .dwattr $C$DW$168, DW_AT_TI_begin_file("C:/ti/motorware/motorware_1_01_00_18/sw/drivers/pwm/src/32b/f
    1900                      .dwattr $C$DW$168, DW_AT_TI_begin_line(0x24e)
    1901                      .dwattr $C$DW$168, DW_AT_TI_begin_column(0x06)
    1902                      .dwattr $C$DW$168, DW_AT_TI_max_frame_size(-2)
    1903                      .dwpsn  file "C:/ti/motorware/motorware_1_01_00_18/sw/drivers/pwm/src/32b/f28x/f2802x/pwm.c",line 591
    1904              
    1905                      .dwfde $C$DW$CIE, _PWM_setHrShadowMode
    1906              $C$DW$169       .dwtag  DW_TAG_formal_parameter, DW_AT_name("pwmHandle")
    1907                      .dwattr $C$DW$169, DW_AT_TI_symbol_name("_pwmHandle")
    1908                      .dwattr $C$DW$169, DW_AT_type(*$C$DW$T$33)
    1909                      .dwattr $C$DW$169, DW_AT_location[DW_OP_reg12]
    1910              $C$DW$170       .dwtag  DW_TAG_formal_parameter, DW_AT_name("shadowMode")
    1911                      .dwattr $C$DW$170, DW_AT_TI_symbol_name("_shadowMode")
    1912                      .dwattr $C$DW$170, DW_AT_type(*$C$DW$T$44)
    1913                      .dwattr $C$DW$170, DW_AT_location[DW_OP_reg0]
    1914              
    1915              ;***************************************************************
    1916              ;* FNAME: _PWM_setHrShadowMode          FR SIZE:   0           *
    1917              ;*                                                             *
    1918              ;* FUNCTION ENVIRONMENT                                        *
    1919              ;*                                                             *
    1920              ;* FUNCTION PROPERTIES                                         *
    1921              ;*                            0 Parameter,  0 Auto,  0 SOE     *
    1922              ;***************************************************************
    1923              
    1924              _PWM_setHrShadowMode:
    1925              ;* AR4   assigned to _pwmHandle
    1926              $C$DW$171       .dwtag  DW_TAG_variable, DW_AT_name("pwmHandle")
    1927                      .dwattr $C$DW$171, DW_AT_TI_symbol_name("_pwmHandle")
    1928                      .dwattr $C$DW$171, DW_AT_type(*$C$DW$T$127)
    1929                      .dwattr $C$DW$171, DW_AT_location[DW_OP_reg12]
    1930              ;* AL    assigned to _shadowMode
    1931              $C$DW$172       .dwtag  DW_TAG_variable, DW_AT_name("shadowMode")
    1932                      .dwattr $C$DW$172, DW_AT_TI_symbol_name("_shadowMode")
    1933                      .dwattr $C$DW$172, DW_AT_type(*$C$DW$T$44)
    1934                      .dwattr $C$DW$172, DW_AT_location[DW_OP_reg0]
    1935                      .dwcfi  cfa_offset, -2
    1936                      .dwcfi  save_reg_to_mem, 26, 0
    1937                      .dwcfi  save_reg_to_reg, 78, 26
    1938 000000d9 7622   EALLOW
    1939                      .dwpsn  file "C:/ti/motorware/motorware_1_01_00_18/sw/drivers/pwm/src/32b/f28x/f2802x/pwm.c",line 596
    1940 000000da 83A4          MOVL      XAR5,XAR4             ; [CPU_] |596| 
TMS320C2000 Assembler PC v6.2.5 Mon Jun 19 18:10:36 2017

Tools Copyright (c) 1996-2014 Texas Instruments Incorporated
C:\Users\wmj\AppData\Local\Temp\1804410                              PAGE   37

    1941                      .dwpsn  file "C:/ti/motorware/motorware_1_01_00_18/sw/drivers/pwm/src/32b/f28x/f2802x/pwm.c",line 598
    1942 000000db DC20          ADDB      XAR4,#32              ; [CPU_] |598| 
    1943                      .dwpsn  file "C:/ti/motorware/motorware_1_01_00_18/sw/drivers/pwm/src/32b/f28x/f2802x/pwm.c",line 596
    1944 000000dc DD20          ADDB      XAR5,#32              ; [CPU_] |596| 
    1945 000000dd 18C5          AND       *+XAR5[0],#0xffe7     ; [CPU_] |596| 
         000000de FFE7 
    1946                      .dwpsn  file "C:/ti/motorware/motorware_1_01_00_18/sw/drivers/pwm/src/32b/f28x/f2802x/pwm.c",line 598
    1947 000000df 98C4          OR        *+XAR4[0],AL          ; [CPU_] |598| 
    1948 000000e0 761A   EDIS
    1949 000000e1 FF69          SPM       #0                    ; [CPU_] 
    1950              $C$DW$173       .dwtag  DW_TAG_TI_branch
    1951                      .dwattr $C$DW$173, DW_AT_low_pc(0x00)
    1952                      .dwattr $C$DW$173, DW_AT_TI_return
    1953 000000e2 0006          LRETR     ; [CPU_] 
    1954                      ; return occurs ; [] 
    1955                      .dwattr $C$DW$168, DW_AT_TI_end_file("C:/ti/motorware/motorware_1_01_00_18/sw/drivers/pwm/src/32b/f28
    1956                      .dwattr $C$DW$168, DW_AT_TI_end_line(0x25b)
    1957                      .dwattr $C$DW$168, DW_AT_TI_end_column(0x01)
    1958                      .dwendentry
    1959                      .dwendtag $C$DW$168
    1960              
    1961 000000e3               .sect   ".text"
    1962                      .clink
    1963                      .global _PWM_setHrEdgeMode
    1964              
    1965              $C$DW$174       .dwtag  DW_TAG_subprogram, DW_AT_name("PWM_setHrEdgeMode")
    1966                      .dwattr $C$DW$174, DW_AT_low_pc(_PWM_setHrEdgeMode)
    1967                      .dwattr $C$DW$174, DW_AT_high_pc(0x00)
    1968                      .dwattr $C$DW$174, DW_AT_TI_symbol_name("_PWM_setHrEdgeMode")
    1969                      .dwattr $C$DW$174, DW_AT_external
    1970                      .dwattr $C$DW$174, DW_AT_TI_begin_file("C:/ti/motorware/motorware_1_01_00_18/sw/drivers/pwm/src/32b/f
    1971                      .dwattr $C$DW$174, DW_AT_TI_begin_line(0x23e)
    1972                      .dwattr $C$DW$174, DW_AT_TI_begin_column(0x06)
    1973                      .dwattr $C$DW$174, DW_AT_TI_max_frame_size(-2)
    1974                      .dwpsn  file "C:/ti/motorware/motorware_1_01_00_18/sw/drivers/pwm/src/32b/f28x/f2802x/pwm.c",line 575
    1975              
    1976                      .dwfde $C$DW$CIE, _PWM_setHrEdgeMode
    1977              $C$DW$175       .dwtag  DW_TAG_formal_parameter, DW_AT_name("pwmHandle")
    1978                      .dwattr $C$DW$175, DW_AT_TI_symbol_name("_pwmHandle")
    1979                      .dwattr $C$DW$175, DW_AT_type(*$C$DW$T$33)
    1980                      .dwattr $C$DW$175, DW_AT_location[DW_OP_reg12]
    1981              $C$DW$176       .dwtag  DW_TAG_formal_parameter, DW_AT_name("edgeMode")
    1982                      .dwattr $C$DW$176, DW_AT_TI_symbol_name("_edgeMode")
    1983                      .dwattr $C$DW$176, DW_AT_type(*$C$DW$T$41)
    1984                      .dwattr $C$DW$176, DW_AT_location[DW_OP_reg0]
    1985              
    1986              ;***************************************************************
    1987              ;* FNAME: _PWM_setHrEdgeMode            FR SIZE:   0           *
    1988              ;*                                                             *
    1989              ;* FUNCTION ENVIRONMENT                                        *
    1990              ;*                                                             *
    1991              ;* FUNCTION PROPERTIES                                         *
    1992              ;*                            0 Parameter,  0 Auto,  0 SOE     *
    1993              ;***************************************************************
    1994              
TMS320C2000 Assembler PC v6.2.5 Mon Jun 19 18:10:36 2017

Tools Copyright (c) 1996-2014 Texas Instruments Incorporated
C:\Users\wmj\AppData\Local\Temp\1804410                              PAGE   38

    1995              _PWM_setHrEdgeMode:
    1996              ;* AR4   assigned to _pwmHandle
    1997              $C$DW$177       .dwtag  DW_TAG_variable, DW_AT_name("pwmHandle")
    1998                      .dwattr $C$DW$177, DW_AT_TI_symbol_name("_pwmHandle")
    1999                      .dwattr $C$DW$177, DW_AT_type(*$C$DW$T$127)
    2000                      .dwattr $C$DW$177, DW_AT_location[DW_OP_reg12]
    2001              ;* AL    assigned to _edgeMode
    2002              $C$DW$178       .dwtag  DW_TAG_variable, DW_AT_name("edgeMode")
    2003                      .dwattr $C$DW$178, DW_AT_TI_symbol_name("_edgeMode")
    2004                      .dwattr $C$DW$178, DW_AT_type(*$C$DW$T$41)
    2005                      .dwattr $C$DW$178, DW_AT_location[DW_OP_reg0]
    2006                      .dwcfi  cfa_offset, -2
    2007                      .dwcfi  save_reg_to_mem, 26, 0
    2008                      .dwcfi  save_reg_to_reg, 78, 26
    2009 000000e3 7622   EALLOW
    2010                      .dwpsn  file "C:/ti/motorware/motorware_1_01_00_18/sw/drivers/pwm/src/32b/f28x/f2802x/pwm.c",line 580
    2011 000000e4 83A4          MOVL      XAR5,XAR4             ; [CPU_] |580| 
    2012                      .dwpsn  file "C:/ti/motorware/motorware_1_01_00_18/sw/drivers/pwm/src/32b/f28x/f2802x/pwm.c",line 582
    2013 000000e5 DC20          ADDB      XAR4,#32              ; [CPU_] |582| 
    2014                      .dwpsn  file "C:/ti/motorware/motorware_1_01_00_18/sw/drivers/pwm/src/32b/f28x/f2802x/pwm.c",line 580
    2015 000000e6 DD20          ADDB      XAR5,#32              ; [CPU_] |580| 
    2016 000000e7 18C5          AND       *+XAR5[0],#0xfffc     ; [CPU_] |580| 
         000000e8 FFFC 
    2017                      .dwpsn  file "C:/ti/motorware/motorware_1_01_00_18/sw/drivers/pwm/src/32b/f28x/f2802x/pwm.c",line 582
    2018 000000e9 98C4          OR        *+XAR4[0],AL          ; [CPU_] |582| 
    2019 000000ea 761A   EDIS
    2020 000000eb FF69          SPM       #0                    ; [CPU_] 
    2021              $C$DW$179       .dwtag  DW_TAG_TI_branch
    2022                      .dwattr $C$DW$179, DW_AT_low_pc(0x00)
    2023                      .dwattr $C$DW$179, DW_AT_TI_return
    2024 000000ec 0006          LRETR     ; [CPU_] 
    2025                      ; return occurs ; [] 
    2026                      .dwattr $C$DW$174, DW_AT_TI_end_file("C:/ti/motorware/motorware_1_01_00_18/sw/drivers/pwm/src/32b/f28
    2027                      .dwattr $C$DW$174, DW_AT_TI_end_line(0x24b)
    2028                      .dwattr $C$DW$174, DW_AT_TI_end_column(0x01)
    2029                      .dwendentry
    2030                      .dwendtag $C$DW$174
    2031              
    2032 000000ed               .sect   ".text"
    2033                      .clink
    2034                      .global _PWM_setHrControlMode
    2035              
    2036              $C$DW$180       .dwtag  DW_TAG_subprogram, DW_AT_name("PWM_setHrControlMode")
    2037                      .dwattr $C$DW$180, DW_AT_low_pc(_PWM_setHrControlMode)
    2038                      .dwattr $C$DW$180, DW_AT_high_pc(0x00)
    2039                      .dwattr $C$DW$180, DW_AT_TI_symbol_name("_PWM_setHrControlMode")
    2040                      .dwattr $C$DW$180, DW_AT_external
    2041                      .dwattr $C$DW$180, DW_AT_TI_begin_file("C:/ti/motorware/motorware_1_01_00_18/sw/drivers/pwm/src/32b/f
    2042                      .dwattr $C$DW$180, DW_AT_TI_begin_line(0x22e)
    2043                      .dwattr $C$DW$180, DW_AT_TI_begin_column(0x06)
    2044                      .dwattr $C$DW$180, DW_AT_TI_max_frame_size(-2)
    2045                      .dwpsn  file "C:/ti/motorware/motorware_1_01_00_18/sw/drivers/pwm/src/32b/f28x/f2802x/pwm.c",line 559
    2046              
    2047                      .dwfde $C$DW$CIE, _PWM_setHrControlMode
    2048              $C$DW$181       .dwtag  DW_TAG_formal_parameter, DW_AT_name("pwmHandle")
TMS320C2000 Assembler PC v6.2.5 Mon Jun 19 18:10:36 2017

Tools Copyright (c) 1996-2014 Texas Instruments Incorporated
C:\Users\wmj\AppData\Local\Temp\1804410                              PAGE   39

    2049                      .dwattr $C$DW$181, DW_AT_TI_symbol_name("_pwmHandle")
    2050                      .dwattr $C$DW$181, DW_AT_type(*$C$DW$T$33)
    2051                      .dwattr $C$DW$181, DW_AT_location[DW_OP_reg12]
    2052              $C$DW$182       .dwtag  DW_TAG_formal_parameter, DW_AT_name("controlMode")
    2053                      .dwattr $C$DW$182, DW_AT_TI_symbol_name("_controlMode")
    2054                      .dwattr $C$DW$182, DW_AT_type(*$C$DW$T$38)
    2055                      .dwattr $C$DW$182, DW_AT_location[DW_OP_reg0]
    2056              
    2057              ;***************************************************************
    2058              ;* FNAME: _PWM_setHrControlMode         FR SIZE:   0           *
    2059              ;*                                                             *
    2060              ;* FUNCTION ENVIRONMENT                                        *
    2061              ;*                                                             *
    2062              ;* FUNCTION PROPERTIES                                         *
    2063              ;*                            0 Parameter,  0 Auto,  0 SOE     *
    2064              ;***************************************************************
    2065              
    2066              _PWM_setHrControlMode:
    2067              ;* AR4   assigned to _pwmHandle
    2068              $C$DW$183       .dwtag  DW_TAG_variable, DW_AT_name("pwmHandle")
    2069                      .dwattr $C$DW$183, DW_AT_TI_symbol_name("_pwmHandle")
    2070                      .dwattr $C$DW$183, DW_AT_type(*$C$DW$T$127)
    2071                      .dwattr $C$DW$183, DW_AT_location[DW_OP_reg12]
    2072              ;* AL    assigned to _controlMode
    2073              $C$DW$184       .dwtag  DW_TAG_variable, DW_AT_name("controlMode")
    2074                      .dwattr $C$DW$184, DW_AT_TI_symbol_name("_controlMode")
    2075                      .dwattr $C$DW$184, DW_AT_type(*$C$DW$T$38)
    2076                      .dwattr $C$DW$184, DW_AT_location[DW_OP_reg0]
    2077                      .dwcfi  cfa_offset, -2
    2078                      .dwcfi  save_reg_to_mem, 26, 0
    2079                      .dwcfi  save_reg_to_reg, 78, 26
    2080 000000ed 7622   EALLOW
    2081                      .dwpsn  file "C:/ti/motorware/motorware_1_01_00_18/sw/drivers/pwm/src/32b/f28x/f2802x/pwm.c",line 564
    2082 000000ee 83A4          MOVL      XAR5,XAR4             ; [CPU_] |564| 
    2083                      .dwpsn  file "C:/ti/motorware/motorware_1_01_00_18/sw/drivers/pwm/src/32b/f28x/f2802x/pwm.c",line 566
    2084 000000ef DC20          ADDB      XAR4,#32              ; [CPU_] |566| 
    2085                      .dwpsn  file "C:/ti/motorware/motorware_1_01_00_18/sw/drivers/pwm/src/32b/f28x/f2802x/pwm.c",line 564
    2086 000000f0 DD20          ADDB      XAR5,#32              ; [CPU_] |564| 
    2087 000000f1 18C5          AND       *+XAR5[0],#0xfffb     ; [CPU_] |564| 
         000000f2 FFFB 
    2088                      .dwpsn  file "C:/ti/motorware/motorware_1_01_00_18/sw/drivers/pwm/src/32b/f28x/f2802x/pwm.c",line 566
    2089 000000f3 98C4          OR        *+XAR4[0],AL          ; [CPU_] |566| 
    2090 000000f4 761A   EDIS
    2091 000000f5 FF69          SPM       #0                    ; [CPU_] 
    2092              $C$DW$185       .dwtag  DW_TAG_TI_branch
    2093                      .dwattr $C$DW$185, DW_AT_low_pc(0x00)
    2094                      .dwattr $C$DW$185, DW_AT_TI_return
    2095 000000f6 0006          LRETR     ; [CPU_] 
    2096                      ; return occurs ; [] 
    2097                      .dwattr $C$DW$180, DW_AT_TI_end_file("C:/ti/motorware/motorware_1_01_00_18/sw/drivers/pwm/src/32b/f28
    2098                      .dwattr $C$DW$180, DW_AT_TI_end_line(0x23b)
    2099                      .dwattr $C$DW$180, DW_AT_TI_end_column(0x01)
    2100                      .dwendentry
    2101                      .dwendtag $C$DW$180
    2102              
TMS320C2000 Assembler PC v6.2.5 Mon Jun 19 18:10:36 2017

Tools Copyright (c) 1996-2014 Texas Instruments Incorporated
C:\Users\wmj\AppData\Local\Temp\1804410                              PAGE   40

    2103 000000f7               .sect   ".text"
    2104                      .clink
    2105                      .global _PWM_setHighSpeedClkDiv
    2106              
    2107              $C$DW$186       .dwtag  DW_TAG_subprogram, DW_AT_name("PWM_setHighSpeedClkDiv")
    2108                      .dwattr $C$DW$186, DW_AT_low_pc(_PWM_setHighSpeedClkDiv)
    2109                      .dwattr $C$DW$186, DW_AT_high_pc(0x00)
    2110                      .dwattr $C$DW$186, DW_AT_TI_symbol_name("_PWM_setHighSpeedClkDiv")
    2111                      .dwattr $C$DW$186, DW_AT_external
    2112                      .dwattr $C$DW$186, DW_AT_TI_begin_file("C:/ti/motorware/motorware_1_01_00_18/sw/drivers/pwm/src/32b/f
    2113                      .dwattr $C$DW$186, DW_AT_TI_begin_line(0x497)
    2114                      .dwattr $C$DW$186, DW_AT_TI_begin_column(0x06)
    2115                      .dwattr $C$DW$186, DW_AT_TI_max_frame_size(-2)
    2116                      .dwpsn  file "C:/ti/motorware/motorware_1_01_00_18/sw/drivers/pwm/src/32b/f28x/f2802x/pwm.c",line 117
    2117              
    2118                      .dwfde $C$DW$CIE, _PWM_setHighSpeedClkDiv
    2119              $C$DW$187       .dwtag  DW_TAG_formal_parameter, DW_AT_name("pwmHandle")
    2120                      .dwattr $C$DW$187, DW_AT_TI_symbol_name("_pwmHandle")
    2121                      .dwattr $C$DW$187, DW_AT_type(*$C$DW$T$33)
    2122                      .dwattr $C$DW$187, DW_AT_location[DW_OP_reg12]
    2123              $C$DW$188       .dwtag  DW_TAG_formal_parameter, DW_AT_name("clkDiv")
    2124                      .dwattr $C$DW$188, DW_AT_TI_symbol_name("_clkDiv")
    2125                      .dwattr $C$DW$188, DW_AT_type(*$C$DW$T$89)
    2126                      .dwattr $C$DW$188, DW_AT_location[DW_OP_reg0]
    2127              
    2128              ;***************************************************************
    2129              ;* FNAME: _PWM_setHighSpeedClkDiv       FR SIZE:   0           *
    2130              ;*                                                             *
    2131              ;* FUNCTION ENVIRONMENT                                        *
    2132              ;*                                                             *
    2133              ;* FUNCTION PROPERTIES                                         *
    2134              ;*                            0 Parameter,  0 Auto,  0 SOE     *
    2135              ;***************************************************************
    2136              
    2137              _PWM_setHighSpeedClkDiv:
    2138              ;* AR4   assigned to _pwmHandle
    2139              $C$DW$189       .dwtag  DW_TAG_variable, DW_AT_name("pwmHandle")
    2140                      .dwattr $C$DW$189, DW_AT_TI_symbol_name("_pwmHandle")
    2141                      .dwattr $C$DW$189, DW_AT_type(*$C$DW$T$127)
    2142                      .dwattr $C$DW$189, DW_AT_location[DW_OP_reg12]
    2143              ;* AL    assigned to _clkDiv
    2144              $C$DW$190       .dwtag  DW_TAG_variable, DW_AT_name("clkDiv")
    2145                      .dwattr $C$DW$190, DW_AT_TI_symbol_name("_clkDiv")
    2146                      .dwattr $C$DW$190, DW_AT_type(*$C$DW$T$89)
    2147                      .dwattr $C$DW$190, DW_AT_location[DW_OP_reg0]
    2148                      .dwcfi  cfa_offset, -2
    2149                      .dwcfi  save_reg_to_mem, 26, 0
    2150                      .dwcfi  save_reg_to_reg, 78, 26
    2151                      .dwpsn  file "C:/ti/motorware/motorware_1_01_00_18/sw/drivers/pwm/src/32b/f28x/f2802x/pwm.c",line 118
    2152 000000f7 18C4          AND       *+XAR4[0],#0xfc7f     ; [CPU_] |1181| 
         000000f8 FC7F 
    2153                      .dwpsn  file "C:/ti/motorware/motorware_1_01_00_18/sw/drivers/pwm/src/32b/f28x/f2802x/pwm.c",line 118
    2154 000000f9 98C4          OR        *+XAR4[0],AL          ; [CPU_] |1184| 
    2155              $C$DW$191       .dwtag  DW_TAG_TI_branch
    2156                      .dwattr $C$DW$191, DW_AT_low_pc(0x00)
TMS320C2000 Assembler PC v6.2.5 Mon Jun 19 18:10:36 2017

Tools Copyright (c) 1996-2014 Texas Instruments Incorporated
C:\Users\wmj\AppData\Local\Temp\1804410                              PAGE   41

    2157                      .dwattr $C$DW$191, DW_AT_TI_return
    2158 000000fa 0006          LRETR     ; [CPU_] 
    2159                      ; return occurs ; [] 
    2160                      .dwattr $C$DW$186, DW_AT_TI_end_file("C:/ti/motorware/motorware_1_01_00_18/sw/drivers/pwm/src/32b/f28
    2161                      .dwattr $C$DW$186, DW_AT_TI_end_line(0x4a3)
    2162                      .dwattr $C$DW$186, DW_AT_TI_end_column(0x01)
    2163                      .dwendentry
    2164                      .dwendtag $C$DW$186
    2165              
    2166 000000fb               .sect   ".text"
    2167                      .clink
    2168                      .global _PWM_setDigitalCompareInput
    2169              
    2170              $C$DW$192       .dwtag  DW_TAG_subprogram, DW_AT_name("PWM_setDigitalCompareInput")
    2171                      .dwattr $C$DW$192, DW_AT_low_pc(_PWM_setDigitalCompareInput)
    2172                      .dwattr $C$DW$192, DW_AT_high_pc(0x00)
    2173                      .dwattr $C$DW$192, DW_AT_TI_symbol_name("_PWM_setDigitalCompareInput")
    2174                      .dwattr $C$DW$192, DW_AT_external
    2175                      .dwattr $C$DW$192, DW_AT_TI_begin_file("C:/ti/motorware/motorware_1_01_00_18/sw/drivers/pwm/src/32b/f
    2176                      .dwattr $C$DW$192, DW_AT_TI_begin_line(0x42f)
    2177                      .dwattr $C$DW$192, DW_AT_TI_begin_column(0x06)
    2178                      .dwattr $C$DW$192, DW_AT_TI_max_frame_size(-2)
    2179                      .dwpsn  file "C:/ti/motorware/motorware_1_01_00_18/sw/drivers/pwm/src/32b/f28x/f2802x/pwm.c",line 107
    2180              
    2181                      .dwfde $C$DW$CIE, _PWM_setDigitalCompareInput
    2182              $C$DW$193       .dwtag  DW_TAG_formal_parameter, DW_AT_name("pwmHandle")
    2183                      .dwattr $C$DW$193, DW_AT_TI_symbol_name("_pwmHandle")
    2184                      .dwattr $C$DW$193, DW_AT_type(*$C$DW$T$33)
    2185                      .dwattr $C$DW$193, DW_AT_location[DW_OP_reg12]
    2186              $C$DW$194       .dwtag  DW_TAG_formal_parameter, DW_AT_name("input")
    2187                      .dwattr $C$DW$194, DW_AT_TI_symbol_name("_input")
    2188                      .dwattr $C$DW$194, DW_AT_type(*$C$DW$T$83)
    2189                      .dwattr $C$DW$194, DW_AT_location[DW_OP_reg0]
    2190              $C$DW$195       .dwtag  DW_TAG_formal_parameter, DW_AT_name("inputSel")
    2191                      .dwattr $C$DW$195, DW_AT_TI_symbol_name("_inputSel")
    2192                      .dwattr $C$DW$195, DW_AT_type(*$C$DW$T$86)
    2193                      .dwattr $C$DW$195, DW_AT_location[DW_OP_reg1]
    2194              
    2195              ;***************************************************************
    2196              ;* FNAME: _PWM_setDigitalCompareInput   FR SIZE:   0           *
    2197              ;*                                                             *
    2198              ;* FUNCTION ENVIRONMENT                                        *
    2199              ;*                                                             *
    2200              ;* FUNCTION PROPERTIES                                         *
    2201              ;*                            0 Parameter,  0 Auto,  0 SOE     *
    2202              ;***************************************************************
    2203              
    2204              _PWM_setDigitalCompareInput:
    2205              ;* AR4   assigned to _pwmHandle
    2206              $C$DW$196       .dwtag  DW_TAG_variable, DW_AT_name("pwmHandle")
    2207                      .dwattr $C$DW$196, DW_AT_TI_symbol_name("_pwmHandle")
    2208                      .dwattr $C$DW$196, DW_AT_type(*$C$DW$T$127)
    2209                      .dwattr $C$DW$196, DW_AT_location[DW_OP_reg12]
    2210              ;* T     assigned to _input
    2211              $C$DW$197       .dwtag  DW_TAG_variable, DW_AT_name("input")
TMS320C2000 Assembler PC v6.2.5 Mon Jun 19 18:10:36 2017

Tools Copyright (c) 1996-2014 Texas Instruments Incorporated
C:\Users\wmj\AppData\Local\Temp\1804410                              PAGE   42

    2212                      .dwattr $C$DW$197, DW_AT_TI_symbol_name("_input")
    2213                      .dwattr $C$DW$197, DW_AT_type(*$C$DW$T$83)
    2214                      .dwattr $C$DW$197, DW_AT_location[DW_OP_reg22]
    2215              ;* AH    assigned to _inputSel
    2216              $C$DW$198       .dwtag  DW_TAG_variable, DW_AT_name("inputSel")
    2217                      .dwattr $C$DW$198, DW_AT_TI_symbol_name("_inputSel")
    2218                      .dwattr $C$DW$198, DW_AT_type(*$C$DW$T$86)
    2219                      .dwattr $C$DW$198, DW_AT_location[DW_OP_reg1]
    2220                      .dwcfi  cfa_offset, -2
    2221                      .dwcfi  save_reg_to_mem, 26, 0
    2222                      .dwcfi  save_reg_to_reg, 78, 26
    2223 000000fb 2DA9          MOV       T,AL                  ; [CPU_] |1074| 
    2224 000000fc 7622   EALLOW
    2225                      .dwpsn  file "C:/ti/motorware/motorware_1_01_00_18/sw/drivers/pwm/src/32b/f28x/f2802x/pwm.c",line 108
    2226 000000fd 83A4          MOVL      XAR5,XAR4             ; [CPU_] |1080| 
    2227 000000fe 9A0F          MOVB      AL,#15                ; [CPU_] |1080| 
    2228 000000ff FF66          LSL       AL,T                  ; [CPU_] |1080| 
    2229                      .dwpsn  file "C:/ti/motorware/motorware_1_01_00_18/sw/drivers/pwm/src/32b/f28x/f2802x/pwm.c",line 108
    2230 00000100 DC30          ADDB      XAR4,#48              ; [CPU_] |1083| 
    2231                      .dwpsn  file "C:/ti/motorware/motorware_1_01_00_18/sw/drivers/pwm/src/32b/f28x/f2802x/pwm.c",line 108
    2232 00000101 FF5E          NOT       AL                    ; [CPU_] |1080| 
    2233 00000102 DD30          ADDB      XAR5,#48              ; [CPU_] |1080| 
    2234 00000103 C0C5          AND       *+XAR5[0],AL          ; [CPU_] |1080| 
    2235                      .dwpsn  file "C:/ti/motorware/motorware_1_01_00_18/sw/drivers/pwm/src/32b/f28x/f2802x/pwm.c",line 108
    2236 00000104 92A8          MOV       AL,AH                 ; [CPU_] |1083| 
    2237 00000105 FF66          LSL       AL,T                  ; [CPU_] |1083| 
    2238 00000106 98C4          OR        *+XAR4[0],AL          ; [CPU_] |1083| 
    2239 00000107 761A   EDIS
    2240 00000108 FF69          SPM       #0                    ; [CPU_] 
    2241              $C$DW$199       .dwtag  DW_TAG_TI_branch
    2242                      .dwattr $C$DW$199, DW_AT_low_pc(0x00)
    2243                      .dwattr $C$DW$199, DW_AT_TI_return
    2244 00000109 0006          LRETR     ; [CPU_] 
    2245                      ; return occurs ; [] 
    2246                      .dwattr $C$DW$192, DW_AT_TI_end_file("C:/ti/motorware/motorware_1_01_00_18/sw/drivers/pwm/src/32b/f28
    2247                      .dwattr $C$DW$192, DW_AT_TI_end_line(0x440)
    2248                      .dwattr $C$DW$192, DW_AT_TI_end_column(0x01)
    2249                      .dwendentry
    2250                      .dwendtag $C$DW$192
    2251              
    2252 0000010a               .sect   ".text"
    2253                      .clink
    2254                      .global _PWM_setDigitalCompareFilterWindow
    2255              
    2256              $C$DW$200       .dwtag  DW_TAG_subprogram, DW_AT_name("PWM_setDigitalCompareFilterWindow")
    2257                      .dwattr $C$DW$200, DW_AT_low_pc(_PWM_setDigitalCompareFilterWindow)
    2258                      .dwattr $C$DW$200, DW_AT_high_pc(0x00)
    2259                      .dwattr $C$DW$200, DW_AT_TI_symbol_name("_PWM_setDigitalCompareFilterWindow")
    2260                      .dwattr $C$DW$200, DW_AT_external
    2261                      .dwattr $C$DW$200, DW_AT_TI_begin_file("C:/ti/motorware/motorware_1_01_00_18/sw/drivers/pwm/src/32b/f
    2262                      .dwattr $C$DW$200, DW_AT_TI_begin_line(0x423)
    2263                      .dwattr $C$DW$200, DW_AT_TI_begin_column(0x06)
    2264                      .dwattr $C$DW$200, DW_AT_TI_max_frame_size(-2)
    2265                      .dwpsn  file "C:/ti/motorware/motorware_1_01_00_18/sw/drivers/pwm/src/32b/f28x/f2802x/pwm.c",line 106
    2266              
TMS320C2000 Assembler PC v6.2.5 Mon Jun 19 18:10:36 2017

Tools Copyright (c) 1996-2014 Texas Instruments Incorporated
C:\Users\wmj\AppData\Local\Temp\1804410                              PAGE   43

    2267                      .dwfde $C$DW$CIE, _PWM_setDigitalCompareFilterWindow
    2268              $C$DW$201       .dwtag  DW_TAG_formal_parameter, DW_AT_name("pwmHandle")
    2269                      .dwattr $C$DW$201, DW_AT_TI_symbol_name("_pwmHandle")
    2270                      .dwattr $C$DW$201, DW_AT_type(*$C$DW$T$33)
    2271                      .dwattr $C$DW$201, DW_AT_location[DW_OP_reg12]
    2272              $C$DW$202       .dwtag  DW_TAG_formal_parameter, DW_AT_name("window")
    2273                      .dwattr $C$DW$202, DW_AT_TI_symbol_name("_window")
    2274                      .dwattr $C$DW$202, DW_AT_type(*$C$DW$T$146)
    2275                      .dwattr $C$DW$202, DW_AT_location[DW_OP_reg0]
    2276              
    2277              ;***************************************************************
    2278              ;* FNAME: _PWM_setDigitalCompareFilterWindow FR SIZE:   0           *
    2279              ;*                                                             *
    2280              ;* FUNCTION ENVIRONMENT                                        *
    2281              ;*                                                             *
    2282              ;* FUNCTION PROPERTIES                                         *
    2283              ;*                            0 Parameter,  0 Auto,  0 SOE     *
    2284              ;***************************************************************
    2285              
    2286              _PWM_setDigitalCompareFilterWindow:
    2287              ;* AR4   assigned to _pwmHandle
    2288              $C$DW$203       .dwtag  DW_TAG_variable, DW_AT_name("pwmHandle")
    2289                      .dwattr $C$DW$203, DW_AT_TI_symbol_name("_pwmHandle")
    2290                      .dwattr $C$DW$203, DW_AT_type(*$C$DW$T$127)
    2291                      .dwattr $C$DW$203, DW_AT_location[DW_OP_reg12]
    2292              ;* AL    assigned to _window
    2293              $C$DW$204       .dwtag  DW_TAG_variable, DW_AT_name("window")
    2294                      .dwattr $C$DW$204, DW_AT_TI_symbol_name("_window")
    2295                      .dwattr $C$DW$204, DW_AT_type(*$C$DW$T$146)
    2296                      .dwattr $C$DW$204, DW_AT_location[DW_OP_reg0]
    2297                      .dwcfi  cfa_offset, -2
    2298                      .dwcfi  save_reg_to_mem, 26, 0
    2299                      .dwcfi  save_reg_to_reg, 78, 26
    2300                      .dwpsn  file "C:/ti/motorware/motorware_1_01_00_18/sw/drivers/pwm/src/32b/f28x/f2802x/pwm.c",line 106
    2301 0000010a D037          MOVB      XAR0,#55              ; [CPU_] |1065| 
    2302 0000010b 9694          MOV       *+XAR4[AR0],AL        ; [CPU_] |1065| 
    2303              $C$DW$205       .dwtag  DW_TAG_TI_branch
    2304                      .dwattr $C$DW$205, DW_AT_low_pc(0x00)
    2305                      .dwattr $C$DW$205, DW_AT_TI_return
    2306 0000010c 0006          LRETR     ; [CPU_] 
    2307                      ; return occurs ; [] 
    2308                      .dwattr $C$DW$200, DW_AT_TI_end_file("C:/ti/motorware/motorware_1_01_00_18/sw/drivers/pwm/src/32b/f28
    2309                      .dwattr $C$DW$200, DW_AT_TI_end_line(0x42c)
    2310                      .dwattr $C$DW$200, DW_AT_TI_end_column(0x01)
    2311                      .dwendentry
    2312                      .dwendtag $C$DW$200
    2313              
    2314 0000010d               .sect   ".text"
    2315                      .clink
    2316                      .global _PWM_setDigitalCompareFilterSource
    2317              
    2318              $C$DW$206       .dwtag  DW_TAG_subprogram, DW_AT_name("PWM_setDigitalCompareFilterSource")
    2319                      .dwattr $C$DW$206, DW_AT_low_pc(_PWM_setDigitalCompareFilterSource)
    2320                      .dwattr $C$DW$206, DW_AT_high_pc(0x00)
    2321                      .dwattr $C$DW$206, DW_AT_TI_symbol_name("_PWM_setDigitalCompareFilterSource")
TMS320C2000 Assembler PC v6.2.5 Mon Jun 19 18:10:36 2017

Tools Copyright (c) 1996-2014 Texas Instruments Incorporated
C:\Users\wmj\AppData\Local\Temp\1804410                              PAGE   44

    2322                      .dwattr $C$DW$206, DW_AT_external
    2323                      .dwattr $C$DW$206, DW_AT_TI_begin_file("C:/ti/motorware/motorware_1_01_00_18/sw/drivers/pwm/src/32b/f
    2324                      .dwattr $C$DW$206, DW_AT_TI_begin_line(0x3f1)
    2325                      .dwattr $C$DW$206, DW_AT_TI_begin_column(0x06)
    2326                      .dwattr $C$DW$206, DW_AT_TI_max_frame_size(-2)
    2327                      .dwpsn  file "C:/ti/motorware/motorware_1_01_00_18/sw/drivers/pwm/src/32b/f28x/f2802x/pwm.c",line 101
    2328              
    2329                      .dwfde $C$DW$CIE, _PWM_setDigitalCompareFilterSource
    2330              $C$DW$207       .dwtag  DW_TAG_formal_parameter, DW_AT_name("pwmHandle")
    2331                      .dwattr $C$DW$207, DW_AT_TI_symbol_name("_pwmHandle")
    2332                      .dwattr $C$DW$207, DW_AT_type(*$C$DW$T$33)
    2333                      .dwattr $C$DW$207, DW_AT_location[DW_OP_reg12]
    2334              $C$DW$208       .dwtag  DW_TAG_formal_parameter, DW_AT_name("input")
    2335                      .dwattr $C$DW$208, DW_AT_TI_symbol_name("_input")
    2336                      .dwattr $C$DW$208, DW_AT_type(*$C$DW$T$77)
    2337                      .dwattr $C$DW$208, DW_AT_location[DW_OP_reg0]
    2338              
    2339              ;***************************************************************
    2340              ;* FNAME: _PWM_setDigitalCompareFilterSource FR SIZE:   0           *
    2341              ;*                                                             *
    2342              ;* FUNCTION ENVIRONMENT                                        *
    2343              ;*                                                             *
    2344              ;* FUNCTION PROPERTIES                                         *
    2345              ;*                            0 Parameter,  0 Auto,  0 SOE     *
    2346              ;***************************************************************
    2347              
    2348              _PWM_setDigitalCompareFilterSource:
    2349              ;* AR4   assigned to _pwmHandle
    2350              $C$DW$209       .dwtag  DW_TAG_variable, DW_AT_name("pwmHandle")
    2351                      .dwattr $C$DW$209, DW_AT_TI_symbol_name("_pwmHandle")
    2352                      .dwattr $C$DW$209, DW_AT_type(*$C$DW$T$127)
    2353                      .dwattr $C$DW$209, DW_AT_location[DW_OP_reg12]
    2354              ;* AL    assigned to _input
    2355              $C$DW$210       .dwtag  DW_TAG_variable, DW_AT_name("input")
    2356                      .dwattr $C$DW$210, DW_AT_TI_symbol_name("_input")
    2357                      .dwattr $C$DW$210, DW_AT_type(*$C$DW$T$77)
    2358                      .dwattr $C$DW$210, DW_AT_location[DW_OP_reg0]
    2359                      .dwcfi  cfa_offset, -2
    2360                      .dwcfi  save_reg_to_mem, 26, 0
    2361                      .dwcfi  save_reg_to_reg, 78, 26
    2362 0000010d 7622   EALLOW
    2363                      .dwpsn  file "C:/ti/motorware/motorware_1_01_00_18/sw/drivers/pwm/src/32b/f28x/f2802x/pwm.c",line 101
    2364 0000010e 83A4          MOVL      XAR5,XAR4             ; [CPU_] |1017| 
    2365                      .dwpsn  file "C:/ti/motorware/motorware_1_01_00_18/sw/drivers/pwm/src/32b/f28x/f2802x/pwm.c",line 102
    2366 0000010f DC33          ADDB      XAR4,#51              ; [CPU_] |1020| 
    2367                      .dwpsn  file "C:/ti/motorware/motorware_1_01_00_18/sw/drivers/pwm/src/32b/f28x/f2802x/pwm.c",line 101
    2368 00000110 DD33          ADDB      XAR5,#51              ; [CPU_] |1017| 
    2369 00000111 18C5          AND       *+XAR5[0],#0xfffc     ; [CPU_] |1017| 
         00000112 FFFC 
    2370                      .dwpsn  file "C:/ti/motorware/motorware_1_01_00_18/sw/drivers/pwm/src/32b/f28x/f2802x/pwm.c",line 102
    2371 00000113 98C4          OR        *+XAR4[0],AL          ; [CPU_] |1020| 
    2372 00000114 761A   EDIS
    2373 00000115 FF69          SPM       #0                    ; [CPU_] 
    2374              $C$DW$211       .dwtag  DW_TAG_TI_branch
    2375                      .dwattr $C$DW$211, DW_AT_low_pc(0x00)
TMS320C2000 Assembler PC v6.2.5 Mon Jun 19 18:10:36 2017

Tools Copyright (c) 1996-2014 Texas Instruments Incorporated
C:\Users\wmj\AppData\Local\Temp\1804410                              PAGE   45

    2376                      .dwattr $C$DW$211, DW_AT_TI_return
    2377 00000116 0006          LRETR     ; [CPU_] 
    2378                      ; return occurs ; [] 
    2379                      .dwattr $C$DW$206, DW_AT_TI_end_file("C:/ti/motorware/motorware_1_01_00_18/sw/drivers/pwm/src/32b/f28
    2380                      .dwattr $C$DW$206, DW_AT_TI_end_line(0x401)
    2381                      .dwattr $C$DW$206, DW_AT_TI_end_column(0x01)
    2382                      .dwendentry
    2383                      .dwendtag $C$DW$206
    2384              
    2385 00000117               .sect   ".text"
    2386                      .clink
    2387                      .global _PWM_setDigitalCompareFilterOffset
    2388              
    2389              $C$DW$212       .dwtag  DW_TAG_subprogram, DW_AT_name("PWM_setDigitalCompareFilterOffset")
    2390                      .dwattr $C$DW$212, DW_AT_low_pc(_PWM_setDigitalCompareFilterOffset)
    2391                      .dwattr $C$DW$212, DW_AT_high_pc(0x00)
    2392                      .dwattr $C$DW$212, DW_AT_TI_symbol_name("_PWM_setDigitalCompareFilterOffset")
    2393                      .dwattr $C$DW$212, DW_AT_external
    2394                      .dwattr $C$DW$212, DW_AT_TI_begin_file("C:/ti/motorware/motorware_1_01_00_18/sw/drivers/pwm/src/32b/f
    2395                      .dwattr $C$DW$212, DW_AT_TI_begin_line(0x417)
    2396                      .dwattr $C$DW$212, DW_AT_TI_begin_column(0x06)
    2397                      .dwattr $C$DW$212, DW_AT_TI_max_frame_size(-2)
    2398                      .dwpsn  file "C:/ti/motorware/motorware_1_01_00_18/sw/drivers/pwm/src/32b/f28x/f2802x/pwm.c",line 104
    2399              
    2400                      .dwfde $C$DW$CIE, _PWM_setDigitalCompareFilterOffset
    2401              $C$DW$213       .dwtag  DW_TAG_formal_parameter, DW_AT_name("pwmHandle")
    2402                      .dwattr $C$DW$213, DW_AT_TI_symbol_name("_pwmHandle")
    2403                      .dwattr $C$DW$213, DW_AT_type(*$C$DW$T$33)
    2404                      .dwattr $C$DW$213, DW_AT_location[DW_OP_reg12]
    2405              $C$DW$214       .dwtag  DW_TAG_formal_parameter, DW_AT_name("offset")
    2406                      .dwattr $C$DW$214, DW_AT_TI_symbol_name("_offset")
    2407                      .dwattr $C$DW$214, DW_AT_type(*$C$DW$T$146)
    2408                      .dwattr $C$DW$214, DW_AT_location[DW_OP_reg0]
    2409              
    2410              ;***************************************************************
    2411              ;* FNAME: _PWM_setDigitalCompareFilterOffset FR SIZE:   0           *
    2412              ;*                                                             *
    2413              ;* FUNCTION ENVIRONMENT                                        *
    2414              ;*                                                             *
    2415              ;* FUNCTION PROPERTIES                                         *
    2416              ;*                            0 Parameter,  0 Auto,  0 SOE     *
    2417              ;***************************************************************
    2418              
    2419              _PWM_setDigitalCompareFilterOffset:
    2420              ;* AR4   assigned to _pwmHandle
    2421              $C$DW$215       .dwtag  DW_TAG_variable, DW_AT_name("pwmHandle")
    2422                      .dwattr $C$DW$215, DW_AT_TI_symbol_name("_pwmHandle")
    2423                      .dwattr $C$DW$215, DW_AT_type(*$C$DW$T$127)
    2424                      .dwattr $C$DW$215, DW_AT_location[DW_OP_reg12]
    2425              ;* AL    assigned to _offset
    2426              $C$DW$216       .dwtag  DW_TAG_variable, DW_AT_name("offset")
    2427                      .dwattr $C$DW$216, DW_AT_TI_symbol_name("_offset")
    2428                      .dwattr $C$DW$216, DW_AT_type(*$C$DW$T$146)
    2429                      .dwattr $C$DW$216, DW_AT_location[DW_OP_reg0]
    2430                      .dwcfi  cfa_offset, -2
TMS320C2000 Assembler PC v6.2.5 Mon Jun 19 18:10:36 2017

Tools Copyright (c) 1996-2014 Texas Instruments Incorporated
C:\Users\wmj\AppData\Local\Temp\1804410                              PAGE   46

    2431                      .dwcfi  save_reg_to_mem, 26, 0
    2432                      .dwcfi  save_reg_to_reg, 78, 26
    2433                      .dwpsn  file "C:/ti/motorware/motorware_1_01_00_18/sw/drivers/pwm/src/32b/f28x/f2802x/pwm.c",line 105
    2434 00000117 D035          MOVB      XAR0,#53              ; [CPU_] |1053| 
    2435 00000118 9694          MOV       *+XAR4[AR0],AL        ; [CPU_] |1053| 
    2436              $C$DW$217       .dwtag  DW_TAG_TI_branch
    2437                      .dwattr $C$DW$217, DW_AT_low_pc(0x00)
    2438                      .dwattr $C$DW$217, DW_AT_TI_return
    2439 00000119 0006          LRETR     ; [CPU_] 
    2440                      ; return occurs ; [] 
    2441                      .dwattr $C$DW$212, DW_AT_TI_end_file("C:/ti/motorware/motorware_1_01_00_18/sw/drivers/pwm/src/32b/f28
    2442                      .dwattr $C$DW$212, DW_AT_TI_end_line(0x420)
    2443                      .dwattr $C$DW$212, DW_AT_TI_end_column(0x01)
    2444                      .dwendentry
    2445                      .dwendtag $C$DW$212
    2446              
    2447 0000011a               .sect   ".text"
    2448                      .clink
    2449                      .global _PWM_setDigitalCompareBlankingPulse
    2450              
    2451              $C$DW$218       .dwtag  DW_TAG_subprogram, DW_AT_name("PWM_setDigitalCompareBlankingPulse")
    2452                      .dwattr $C$DW$218, DW_AT_low_pc(_PWM_setDigitalCompareBlankingPulse)
    2453                      .dwattr $C$DW$218, DW_AT_high_pc(0x00)
    2454                      .dwattr $C$DW$218, DW_AT_TI_symbol_name("_PWM_setDigitalCompareBlankingPulse")
    2455                      .dwattr $C$DW$218, DW_AT_external
    2456                      .dwattr $C$DW$218, DW_AT_TI_begin_file("C:/ti/motorware/motorware_1_01_00_18/sw/drivers/pwm/src/32b/f
    2457                      .dwattr $C$DW$218, DW_AT_TI_begin_line(0x404)
    2458                      .dwattr $C$DW$218, DW_AT_TI_begin_column(0x06)
    2459                      .dwattr $C$DW$218, DW_AT_TI_max_frame_size(-2)
    2460                      .dwpsn  file "C:/ti/motorware/motorware_1_01_00_18/sw/drivers/pwm/src/32b/f28x/f2802x/pwm.c",line 103
    2461              
    2462                      .dwfde $C$DW$CIE, _PWM_setDigitalCompareBlankingPulse
    2463              $C$DW$219       .dwtag  DW_TAG_formal_parameter, DW_AT_name("pwmHandle")
    2464                      .dwattr $C$DW$219, DW_AT_TI_symbol_name("_pwmHandle")
    2465                      .dwattr $C$DW$219, DW_AT_type(*$C$DW$T$33)
    2466                      .dwattr $C$DW$219, DW_AT_location[DW_OP_reg12]
    2467              $C$DW$220       .dwtag  DW_TAG_formal_parameter, DW_AT_name("pulseSelect")
    2468                      .dwattr $C$DW$220, DW_AT_TI_symbol_name("_pulseSelect")
    2469                      .dwattr $C$DW$220, DW_AT_type(*$C$DW$T$80)
    2470                      .dwattr $C$DW$220, DW_AT_location[DW_OP_reg0]
    2471              
    2472              ;***************************************************************
    2473              ;* FNAME: _PWM_setDigitalCompareBlankingPulse FR SIZE:   0           *
    2474              ;*                                                             *
    2475              ;* FUNCTION ENVIRONMENT                                        *
    2476              ;*                                                             *
    2477              ;* FUNCTION PROPERTIES                                         *
    2478              ;*                            0 Parameter,  0 Auto,  0 SOE     *
    2479              ;***************************************************************
    2480              
    2481              _PWM_setDigitalCompareBlankingPulse:
    2482              ;* AR4   assigned to _pwmHandle
    2483              $C$DW$221       .dwtag  DW_TAG_variable, DW_AT_name("pwmHandle")
    2484                      .dwattr $C$DW$221, DW_AT_TI_symbol_name("_pwmHandle")
    2485                      .dwattr $C$DW$221, DW_AT_type(*$C$DW$T$127)
TMS320C2000 Assembler PC v6.2.5 Mon Jun 19 18:10:36 2017

Tools Copyright (c) 1996-2014 Texas Instruments Incorporated
C:\Users\wmj\AppData\Local\Temp\1804410                              PAGE   47

    2486                      .dwattr $C$DW$221, DW_AT_location[DW_OP_reg12]
    2487              ;* AL    assigned to _pulseSelect
    2488              $C$DW$222       .dwtag  DW_TAG_variable, DW_AT_name("pulseSelect")
    2489                      .dwattr $C$DW$222, DW_AT_TI_symbol_name("_pulseSelect")
    2490                      .dwattr $C$DW$222, DW_AT_type(*$C$DW$T$80)
    2491                      .dwattr $C$DW$222, DW_AT_location[DW_OP_reg0]
    2492                      .dwcfi  cfa_offset, -2
    2493                      .dwcfi  save_reg_to_mem, 26, 0
    2494                      .dwcfi  save_reg_to_reg, 78, 26
    2495 0000011a 7622   EALLOW
    2496                      .dwpsn  file "C:/ti/motorware/motorware_1_01_00_18/sw/drivers/pwm/src/32b/f28x/f2802x/pwm.c",line 103
    2497 0000011b 83A4          MOVL      XAR5,XAR4             ; [CPU_] |1036| 
    2498                      .dwpsn  file "C:/ti/motorware/motorware_1_01_00_18/sw/drivers/pwm/src/32b/f28x/f2802x/pwm.c",line 103
    2499 0000011c 5603          MOV       ACC,AL << #4          ; [CPU_] |1039| 
         0000011d 04A9 
    2500 0000011e DC33          ADDB      XAR4,#51              ; [CPU_] |1039| 
    2501                      .dwpsn  file "C:/ti/motorware/motorware_1_01_00_18/sw/drivers/pwm/src/32b/f28x/f2802x/pwm.c",line 103
    2502 0000011f DD33          ADDB      XAR5,#51              ; [CPU_] |1036| 
    2503 00000120 18C5          AND       *+XAR5[0],#0xffcf     ; [CPU_] |1036| 
         00000121 FFCF 
    2504                      .dwpsn  file "C:/ti/motorware/motorware_1_01_00_18/sw/drivers/pwm/src/32b/f28x/f2802x/pwm.c",line 103
    2505 00000122 98C4          OR        *+XAR4[0],AL          ; [CPU_] |1039| 
    2506 00000123 761A   EDIS
    2507 00000124 FF69          SPM       #0                    ; [CPU_] 
    2508              $C$DW$223       .dwtag  DW_TAG_TI_branch
    2509                      .dwattr $C$DW$223, DW_AT_low_pc(0x00)
    2510                      .dwattr $C$DW$223, DW_AT_TI_return
    2511 00000125 0006          LRETR     ; [CPU_] 
    2512                      ; return occurs ; [] 
    2513                      .dwattr $C$DW$218, DW_AT_TI_end_file("C:/ti/motorware/motorware_1_01_00_18/sw/drivers/pwm/src/32b/f28
    2514                      .dwattr $C$DW$218, DW_AT_TI_end_line(0x414)
    2515                      .dwattr $C$DW$218, DW_AT_TI_end_column(0x01)
    2516                      .dwendentry
    2517                      .dwendtag $C$DW$218
    2518              
    2519 00000126               .sect   ".text"
    2520                      .clink
    2521                      .global _PWM_setDigitalCompareBEvent2
    2522              
    2523              $C$DW$224       .dwtag  DW_TAG_subprogram, DW_AT_name("PWM_setDigitalCompareBEvent2")
    2524                      .dwattr $C$DW$224, DW_AT_low_pc(_PWM_setDigitalCompareBEvent2)
    2525                      .dwattr $C$DW$224, DW_AT_high_pc(0x00)
    2526                      .dwattr $C$DW$224, DW_AT_TI_symbol_name("_PWM_setDigitalCompareBEvent2")
    2527                      .dwattr $C$DW$224, DW_AT_external
    2528                      .dwattr $C$DW$224, DW_AT_TI_begin_file("C:/ti/motorware/motorware_1_01_00_18/sw/drivers/pwm/src/32b/f
    2529                      .dwattr $C$DW$224, DW_AT_TI_begin_line(0x483)
    2530                      .dwattr $C$DW$224, DW_AT_TI_begin_column(0x06)
    2531                      .dwattr $C$DW$224, DW_AT_TI_max_frame_size(-2)
    2532                      .dwpsn  file "C:/ti/motorware/motorware_1_01_00_18/sw/drivers/pwm/src/32b/f28x/f2802x/pwm.c",line 115
    2533              
    2534                      .dwfde $C$DW$CIE, _PWM_setDigitalCompareBEvent2
    2535              $C$DW$225       .dwtag  DW_TAG_formal_parameter, DW_AT_name("pwmHandle")
    2536                      .dwattr $C$DW$225, DW_AT_TI_symbol_name("_pwmHandle")
    2537                      .dwattr $C$DW$225, DW_AT_type(*$C$DW$T$33)
    2538                      .dwattr $C$DW$225, DW_AT_location[DW_OP_reg12]
TMS320C2000 Assembler PC v6.2.5 Mon Jun 19 18:10:36 2017

Tools Copyright (c) 1996-2014 Texas Instruments Incorporated
C:\Users\wmj\AppData\Local\Temp\1804410                              PAGE   48

    2539              $C$DW$226       .dwtag  DW_TAG_formal_parameter, DW_AT_name("selectFilter")
    2540                      .dwattr $C$DW$226, DW_AT_TI_symbol_name("_selectFilter")
    2541                      .dwattr $C$DW$226, DW_AT_type(*$C$DW$T$156)
    2542                      .dwattr $C$DW$226, DW_AT_location[DW_OP_reg0]
    2543              $C$DW$227       .dwtag  DW_TAG_formal_parameter, DW_AT_name("disableSync")
    2544                      .dwattr $C$DW$227, DW_AT_TI_symbol_name("_disableSync")
    2545                      .dwattr $C$DW$227, DW_AT_type(*$C$DW$T$156)
    2546                      .dwattr $C$DW$227, DW_AT_location[DW_OP_reg1]
    2547              
    2548              ;***************************************************************
    2549              ;* FNAME: _PWM_setDigitalCompareBEvent2 FR SIZE:   0           *
    2550              ;*                                                             *
    2551              ;* FUNCTION ENVIRONMENT                                        *
    2552              ;*                                                             *
    2553              ;* FUNCTION PROPERTIES                                         *
    2554              ;*                            0 Parameter,  0 Auto,  0 SOE     *
    2555              ;***************************************************************
    2556              
    2557              _PWM_setDigitalCompareBEvent2:
    2558              ;* AR4   assigned to _pwmHandle
    2559              $C$DW$228       .dwtag  DW_TAG_variable, DW_AT_name("pwmHandle")
    2560                      .dwattr $C$DW$228, DW_AT_TI_symbol_name("_pwmHandle")
    2561                      .dwattr $C$DW$228, DW_AT_type(*$C$DW$T$127)
    2562                      .dwattr $C$DW$228, DW_AT_location[DW_OP_reg12]
    2563              ;* AR6   assigned to _selectFilter
    2564              $C$DW$229       .dwtag  DW_TAG_variable, DW_AT_name("selectFilter")
    2565                      .dwattr $C$DW$229, DW_AT_TI_symbol_name("_selectFilter")
    2566                      .dwattr $C$DW$229, DW_AT_type(*$C$DW$T$156)
    2567                      .dwattr $C$DW$229, DW_AT_location[DW_OP_reg16]
    2568              ;* AH    assigned to _disableSync
    2569              $C$DW$230       .dwtag  DW_TAG_variable, DW_AT_name("disableSync")
    2570                      .dwattr $C$DW$230, DW_AT_TI_symbol_name("_disableSync")
    2571                      .dwattr $C$DW$230, DW_AT_type(*$C$DW$T$156)
    2572                      .dwattr $C$DW$230, DW_AT_location[DW_OP_reg1]
    2573                      .dwcfi  cfa_offset, -2
    2574                      .dwcfi  save_reg_to_mem, 26, 0
    2575                      .dwcfi  save_reg_to_reg, 78, 26
    2576 00000126 88A9          MOVZ      AR6,AL                ; [CPU_] |1158| 
    2577 00000127 7622   EALLOW
    2578                      .dwpsn  file "C:/ti/motorware/motorware_1_01_00_18/sw/drivers/pwm/src/32b/f28x/f2802x/pwm.c",line 116
    2579 00000128 83A4          MOVL      XAR5,XAR4             ; [CPU_] |1164| 
    2580                      .dwpsn  file "C:/ti/motorware/motorware_1_01_00_18/sw/drivers/pwm/src/32b/f28x/f2802x/pwm.c",line 116
    2581 00000129 5603          MOV       ACC,AH << #1          ; [CPU_] |1167| 
         0000012a 01A8 
    2582 0000012b CAA6          OR        AL,AR6                ; [CPU_] |1167| 
    2583 0000012c DC32          ADDB      XAR4,#50              ; [CPU_] |1167| 
    2584 0000012d 5603          MOV       ACC,AL << #8          ; [CPU_] |1167| 
         0000012e 08A9 
    2585                      .dwpsn  file "C:/ti/motorware/motorware_1_01_00_18/sw/drivers/pwm/src/32b/f28x/f2802x/pwm.c",line 116
    2586 0000012f DD32          ADDB      XAR5,#50              ; [CPU_] |1164| 
    2587 00000130 18C5          AND       *+XAR5[0],#0xfcff     ; [CPU_] |1164| 
         00000131 FCFF 
    2588                      .dwpsn  file "C:/ti/motorware/motorware_1_01_00_18/sw/drivers/pwm/src/32b/f28x/f2802x/pwm.c",line 116
    2589 00000132 98C4          OR        *+XAR4[0],AL          ; [CPU_] |1167| 
    2590 00000133 761A   EDIS
TMS320C2000 Assembler PC v6.2.5 Mon Jun 19 18:10:36 2017

Tools Copyright (c) 1996-2014 Texas Instruments Incorporated
C:\Users\wmj\AppData\Local\Temp\1804410                              PAGE   49

    2591 00000134 FF69          SPM       #0                    ; [CPU_] 
    2592              $C$DW$231       .dwtag  DW_TAG_TI_branch
    2593                      .dwattr $C$DW$231, DW_AT_low_pc(0x00)
    2594                      .dwattr $C$DW$231, DW_AT_TI_return
    2595 00000135 0006          LRETR     ; [CPU_] 
    2596                      ; return occurs ; [] 
    2597                      .dwattr $C$DW$224, DW_AT_TI_end_file("C:/ti/motorware/motorware_1_01_00_18/sw/drivers/pwm/src/32b/f28
    2598                      .dwattr $C$DW$224, DW_AT_TI_end_line(0x494)
    2599                      .dwattr $C$DW$224, DW_AT_TI_end_column(0x01)
    2600                      .dwendentry
    2601                      .dwendtag $C$DW$224
    2602              
    2603 00000136               .sect   ".text"
    2604                      .clink
    2605                      .global _PWM_setDigitalCompareBEvent1
    2606              
    2607              $C$DW$232       .dwtag  DW_TAG_subprogram, DW_AT_name("PWM_setDigitalCompareBEvent1")
    2608                      .dwattr $C$DW$232, DW_AT_low_pc(_PWM_setDigitalCompareBEvent1)
    2609                      .dwattr $C$DW$232, DW_AT_high_pc(0x00)
    2610                      .dwattr $C$DW$232, DW_AT_TI_symbol_name("_PWM_setDigitalCompareBEvent1")
    2611                      .dwattr $C$DW$232, DW_AT_external
    2612                      .dwattr $C$DW$232, DW_AT_TI_begin_file("C:/ti/motorware/motorware_1_01_00_18/sw/drivers/pwm/src/32b/f
    2613                      .dwattr $C$DW$232, DW_AT_TI_begin_line(0x46d)
    2614                      .dwattr $C$DW$232, DW_AT_TI_begin_column(0x06)
    2615                      .dwattr $C$DW$232, DW_AT_TI_max_frame_size(-2)
    2616                      .dwpsn  file "C:/ti/motorware/motorware_1_01_00_18/sw/drivers/pwm/src/32b/f28x/f2802x/pwm.c",line 113
    2617              
    2618                      .dwfde $C$DW$CIE, _PWM_setDigitalCompareBEvent1
    2619              $C$DW$233       .dwtag  DW_TAG_formal_parameter, DW_AT_name("pwmHandle")
    2620                      .dwattr $C$DW$233, DW_AT_TI_symbol_name("_pwmHandle")
    2621                      .dwattr $C$DW$233, DW_AT_type(*$C$DW$T$33)
    2622                      .dwattr $C$DW$233, DW_AT_location[DW_OP_reg12]
    2623              $C$DW$234       .dwtag  DW_TAG_formal_parameter, DW_AT_name("selectFilter")
    2624                      .dwattr $C$DW$234, DW_AT_TI_symbol_name("_selectFilter")
    2625                      .dwattr $C$DW$234, DW_AT_type(*$C$DW$T$156)
    2626                      .dwattr $C$DW$234, DW_AT_location[DW_OP_reg0]
    2627              $C$DW$235       .dwtag  DW_TAG_formal_parameter, DW_AT_name("disableSync")
    2628                      .dwattr $C$DW$235, DW_AT_TI_symbol_name("_disableSync")
    2629                      .dwattr $C$DW$235, DW_AT_type(*$C$DW$T$156)
    2630                      .dwattr $C$DW$235, DW_AT_location[DW_OP_reg1]
    2631              $C$DW$236       .dwtag  DW_TAG_formal_parameter, DW_AT_name("enableSoc")
    2632                      .dwattr $C$DW$236, DW_AT_TI_symbol_name("_enableSoc")
    2633                      .dwattr $C$DW$236, DW_AT_type(*$C$DW$T$156)
    2634                      .dwattr $C$DW$236, DW_AT_location[DW_OP_reg14]
    2635              $C$DW$237       .dwtag  DW_TAG_formal_parameter, DW_AT_name("generateSync")
    2636                      .dwattr $C$DW$237, DW_AT_TI_symbol_name("_generateSync")
    2637                      .dwattr $C$DW$237, DW_AT_type(*$C$DW$T$156)
    2638                      .dwattr $C$DW$237, DW_AT_location[DW_OP_breg20 -3]
    2639              
    2640              ;***************************************************************
    2641              ;* FNAME: _PWM_setDigitalCompareBEvent1 FR SIZE:   0           *
    2642              ;*                                                             *
    2643              ;* FUNCTION ENVIRONMENT                                        *
    2644              ;*                                                             *
    2645              ;* FUNCTION PROPERTIES                                         *
TMS320C2000 Assembler PC v6.2.5 Mon Jun 19 18:10:36 2017

Tools Copyright (c) 1996-2014 Texas Instruments Incorporated
C:\Users\wmj\AppData\Local\Temp\1804410                              PAGE   50

    2646              ;*                            0 Parameter,  0 Auto,  0 SOE     *
    2647              ;***************************************************************
    2648              
    2649              _PWM_setDigitalCompareBEvent1:
    2650              ;* AR4   assigned to _pwmHandle
    2651              $C$DW$238       .dwtag  DW_TAG_variable, DW_AT_name("pwmHandle")
    2652                      .dwattr $C$DW$238, DW_AT_TI_symbol_name("_pwmHandle")
    2653                      .dwattr $C$DW$238, DW_AT_type(*$C$DW$T$127)
    2654                      .dwattr $C$DW$238, DW_AT_location[DW_OP_reg12]
    2655              ;* AR7   assigned to _selectFilter
    2656              $C$DW$239       .dwtag  DW_TAG_variable, DW_AT_name("selectFilter")
    2657                      .dwattr $C$DW$239, DW_AT_TI_symbol_name("_selectFilter")
    2658                      .dwattr $C$DW$239, DW_AT_type(*$C$DW$T$156)
    2659                      .dwattr $C$DW$239, DW_AT_location[DW_OP_reg18]
    2660              ;* PL    assigned to _disableSync
    2661              $C$DW$240       .dwtag  DW_TAG_variable, DW_AT_name("disableSync")
    2662                      .dwattr $C$DW$240, DW_AT_TI_symbol_name("_disableSync")
    2663                      .dwattr $C$DW$240, DW_AT_type(*$C$DW$T$156)
    2664                      .dwattr $C$DW$240, DW_AT_location[DW_OP_reg2]
    2665              ;* AR5   assigned to _enableSoc
    2666              $C$DW$241       .dwtag  DW_TAG_variable, DW_AT_name("enableSoc")
    2667                      .dwattr $C$DW$241, DW_AT_TI_symbol_name("_enableSoc")
    2668                      .dwattr $C$DW$241, DW_AT_type(*$C$DW$T$156)
    2669                      .dwattr $C$DW$241, DW_AT_location[DW_OP_reg14]
    2670              ;* AL    assigned to _generateSync
    2671              $C$DW$242       .dwtag  DW_TAG_variable, DW_AT_name("generateSync")
    2672                      .dwattr $C$DW$242, DW_AT_TI_symbol_name("_generateSync")
    2673                      .dwattr $C$DW$242, DW_AT_type(*$C$DW$T$156)
    2674                      .dwattr $C$DW$242, DW_AT_location[DW_OP_reg0]
    2675                      .dwcfi  cfa_offset, -2
    2676                      .dwcfi  save_reg_to_mem, 26, 0
    2677                      .dwcfi  save_reg_to_reg, 78, 26
    2678 00000136 27A8          MOV       PL,AH                 ; [CPU_] |1138| 
    2679 00000137 80A9          MOVZ      AR7,AL                ; [CPU_] |1138| 
    2680 00000138 9243          MOV       AL,*-SP[3]            ; [CPU_] |1138| 
    2681 00000139 7622   EALLOW
    2682                      .dwpsn  file "C:/ti/motorware/motorware_1_01_00_18/sw/drivers/pwm/src/32b/f28x/f2802x/pwm.c",line 114
    2683 0000013a C4A4          MOVL      XAR6,XAR4             ; [CPU_] |1144| 
    2684                      .dwpsn  file "C:/ti/motorware/motorware_1_01_00_18/sw/drivers/pwm/src/32b/f28x/f2802x/pwm.c",line 114
    2685 0000013b 5603          MOV       ACC,AL << #1          ; [CPU_] |1147| 
         0000013c 01A9 
    2686 0000013d CAA5          OR        AL,AR5                ; [CPU_] |1147| 
    2687 0000013e DC32          ADDB      XAR4,#50              ; [CPU_] |1147| 
    2688                      .dwpsn  file "C:/ti/motorware/motorware_1_01_00_18/sw/drivers/pwm/src/32b/f28x/f2802x/pwm.c",line 114
    2689 0000013f DE32          ADDB      XAR6,#50              ; [CPU_] |1144| 
    2690                      .dwpsn  file "C:/ti/motorware/motorware_1_01_00_18/sw/drivers/pwm/src/32b/f28x/f2802x/pwm.c",line 114
    2691 00000140 5603          MOV       ACC,AL << #1          ; [CPU_] |1147| 
         00000141 01A9 
    2692                      .dwpsn  file "C:/ti/motorware/motorware_1_01_00_18/sw/drivers/pwm/src/32b/f28x/f2802x/pwm.c",line 114
    2693 00000142 18C6          AND       *+XAR6[0],#0xfff0     ; [CPU_] |1144| 
         00000143 FFF0 
    2694                      .dwpsn  file "C:/ti/motorware/motorware_1_01_00_18/sw/drivers/pwm/src/32b/f28x/f2802x/pwm.c",line 114
    2695 00000144 CAAB          OR        AL,PL                 ; [CPU_] |1147| 
    2696 00000145 5603          MOV       ACC,AL << #1          ; [CPU_] |1147| 
         00000146 01A9 
TMS320C2000 Assembler PC v6.2.5 Mon Jun 19 18:10:36 2017

Tools Copyright (c) 1996-2014 Texas Instruments Incorporated
C:\Users\wmj\AppData\Local\Temp\1804410                              PAGE   51

    2697 00000147 CAC4          OR        AL,*+XAR4[0]          ; [CPU_] |1147| 
    2698 00000148 CAA7          OR        AL,AR7                ; [CPU_] |1147| 
    2699 00000149 96C4          MOV       *+XAR4[0],AL          ; [CPU_] |1147| 
    2700 0000014a 761A   EDIS
    2701 0000014b FF69          SPM       #0                    ; [CPU_] 
    2702              $C$DW$243       .dwtag  DW_TAG_TI_branch
    2703                      .dwattr $C$DW$243, DW_AT_low_pc(0x00)
    2704                      .dwattr $C$DW$243, DW_AT_TI_return
    2705 0000014c 0006          LRETR     ; [CPU_] 
    2706                      ; return occurs ; [] 
    2707                      .dwattr $C$DW$232, DW_AT_TI_end_file("C:/ti/motorware/motorware_1_01_00_18/sw/drivers/pwm/src/32b/f28
    2708                      .dwattr $C$DW$232, DW_AT_TI_end_line(0x480)
    2709                      .dwattr $C$DW$232, DW_AT_TI_end_column(0x01)
    2710                      .dwendentry
    2711                      .dwendtag $C$DW$232
    2712              
    2713 0000014d               .sect   ".text"
    2714                      .clink
    2715                      .global _PWM_setDigitalCompareAEvent2
    2716              
    2717              $C$DW$244       .dwtag  DW_TAG_subprogram, DW_AT_name("PWM_setDigitalCompareAEvent2")
    2718                      .dwattr $C$DW$244, DW_AT_low_pc(_PWM_setDigitalCompareAEvent2)
    2719                      .dwattr $C$DW$244, DW_AT_high_pc(0x00)
    2720                      .dwattr $C$DW$244, DW_AT_TI_symbol_name("_PWM_setDigitalCompareAEvent2")
    2721                      .dwattr $C$DW$244, DW_AT_external
    2722                      .dwattr $C$DW$244, DW_AT_TI_begin_file("C:/ti/motorware/motorware_1_01_00_18/sw/drivers/pwm/src/32b/f
    2723                      .dwattr $C$DW$244, DW_AT_TI_begin_line(0x459)
    2724                      .dwattr $C$DW$244, DW_AT_TI_begin_column(0x06)
    2725                      .dwattr $C$DW$244, DW_AT_TI_max_frame_size(-2)
    2726                      .dwpsn  file "C:/ti/motorware/motorware_1_01_00_18/sw/drivers/pwm/src/32b/f28x/f2802x/pwm.c",line 111
    2727              
    2728                      .dwfde $C$DW$CIE, _PWM_setDigitalCompareAEvent2
    2729              $C$DW$245       .dwtag  DW_TAG_formal_parameter, DW_AT_name("pwmHandle")
    2730                      .dwattr $C$DW$245, DW_AT_TI_symbol_name("_pwmHandle")
    2731                      .dwattr $C$DW$245, DW_AT_type(*$C$DW$T$33)
    2732                      .dwattr $C$DW$245, DW_AT_location[DW_OP_reg12]
    2733              $C$DW$246       .dwtag  DW_TAG_formal_parameter, DW_AT_name("selectFilter")
    2734                      .dwattr $C$DW$246, DW_AT_TI_symbol_name("_selectFilter")
    2735                      .dwattr $C$DW$246, DW_AT_type(*$C$DW$T$156)
    2736                      .dwattr $C$DW$246, DW_AT_location[DW_OP_reg0]
    2737              $C$DW$247       .dwtag  DW_TAG_formal_parameter, DW_AT_name("disableSync")
    2738                      .dwattr $C$DW$247, DW_AT_TI_symbol_name("_disableSync")
    2739                      .dwattr $C$DW$247, DW_AT_type(*$C$DW$T$156)
    2740                      .dwattr $C$DW$247, DW_AT_location[DW_OP_reg1]
    2741              
    2742              ;***************************************************************
    2743              ;* FNAME: _PWM_setDigitalCompareAEvent2 FR SIZE:   0           *
    2744              ;*                                                             *
    2745              ;* FUNCTION ENVIRONMENT                                        *
    2746              ;*                                                             *
    2747              ;* FUNCTION PROPERTIES                                         *
    2748              ;*                            0 Parameter,  0 Auto,  0 SOE     *
    2749              ;***************************************************************
    2750              
    2751              _PWM_setDigitalCompareAEvent2:
TMS320C2000 Assembler PC v6.2.5 Mon Jun 19 18:10:36 2017

Tools Copyright (c) 1996-2014 Texas Instruments Incorporated
C:\Users\wmj\AppData\Local\Temp\1804410                              PAGE   52

    2752              ;* AR4   assigned to _pwmHandle
    2753              $C$DW$248       .dwtag  DW_TAG_variable, DW_AT_name("pwmHandle")
    2754                      .dwattr $C$DW$248, DW_AT_TI_symbol_name("_pwmHandle")
    2755                      .dwattr $C$DW$248, DW_AT_type(*$C$DW$T$127)
    2756                      .dwattr $C$DW$248, DW_AT_location[DW_OP_reg12]
    2757              ;* AR6   assigned to _selectFilter
    2758              $C$DW$249       .dwtag  DW_TAG_variable, DW_AT_name("selectFilter")
    2759                      .dwattr $C$DW$249, DW_AT_TI_symbol_name("_selectFilter")
    2760                      .dwattr $C$DW$249, DW_AT_type(*$C$DW$T$156)
    2761                      .dwattr $C$DW$249, DW_AT_location[DW_OP_reg16]
    2762              ;* AH    assigned to _disableSync
    2763              $C$DW$250       .dwtag  DW_TAG_variable, DW_AT_name("disableSync")
    2764                      .dwattr $C$DW$250, DW_AT_TI_symbol_name("_disableSync")
    2765                      .dwattr $C$DW$250, DW_AT_type(*$C$DW$T$156)
    2766                      .dwattr $C$DW$250, DW_AT_location[DW_OP_reg1]
    2767                      .dwcfi  cfa_offset, -2
    2768                      .dwcfi  save_reg_to_mem, 26, 0
    2769                      .dwcfi  save_reg_to_reg, 78, 26
    2770 0000014d 88A9          MOVZ      AR6,AL                ; [CPU_] |1116| 
    2771 0000014e 7622   EALLOW
    2772                      .dwpsn  file "C:/ti/motorware/motorware_1_01_00_18/sw/drivers/pwm/src/32b/f28x/f2802x/pwm.c",line 112
    2773 0000014f 83A4          MOVL      XAR5,XAR4             ; [CPU_] |1122| 
    2774                      .dwpsn  file "C:/ti/motorware/motorware_1_01_00_18/sw/drivers/pwm/src/32b/f28x/f2802x/pwm.c",line 112
    2775 00000150 5603          MOV       ACC,AH << #1          ; [CPU_] |1125| 
         00000151 01A8 
    2776 00000152 CAA6          OR        AL,AR6                ; [CPU_] |1125| 
    2777 00000153 DC31          ADDB      XAR4,#49              ; [CPU_] |1125| 
    2778 00000154 5603          MOV       ACC,AL << #8          ; [CPU_] |1125| 
         00000155 08A9 
    2779                      .dwpsn  file "C:/ti/motorware/motorware_1_01_00_18/sw/drivers/pwm/src/32b/f28x/f2802x/pwm.c",line 112
    2780 00000156 DD31          ADDB      XAR5,#49              ; [CPU_] |1122| 
    2781 00000157 18C5          AND       *+XAR5[0],#0xfcff     ; [CPU_] |1122| 
         00000158 FCFF 
    2782                      .dwpsn  file "C:/ti/motorware/motorware_1_01_00_18/sw/drivers/pwm/src/32b/f28x/f2802x/pwm.c",line 112
    2783 00000159 98C4          OR        *+XAR4[0],AL          ; [CPU_] |1125| 
    2784 0000015a 761A   EDIS
    2785 0000015b FF69          SPM       #0                    ; [CPU_] 
    2786              $C$DW$251       .dwtag  DW_TAG_TI_branch
    2787                      .dwattr $C$DW$251, DW_AT_low_pc(0x00)
    2788                      .dwattr $C$DW$251, DW_AT_TI_return
    2789 0000015c 0006          LRETR     ; [CPU_] 
    2790                      ; return occurs ; [] 
    2791                      .dwattr $C$DW$244, DW_AT_TI_end_file("C:/ti/motorware/motorware_1_01_00_18/sw/drivers/pwm/src/32b/f28
    2792                      .dwattr $C$DW$244, DW_AT_TI_end_line(0x46a)
    2793                      .dwattr $C$DW$244, DW_AT_TI_end_column(0x01)
    2794                      .dwendentry
    2795                      .dwendtag $C$DW$244
    2796              
    2797 0000015d               .sect   ".text"
    2798                      .clink
    2799                      .global _PWM_setDigitalCompareAEvent1
    2800              
    2801              $C$DW$252       .dwtag  DW_TAG_subprogram, DW_AT_name("PWM_setDigitalCompareAEvent1")
    2802                      .dwattr $C$DW$252, DW_AT_low_pc(_PWM_setDigitalCompareAEvent1)
    2803                      .dwattr $C$DW$252, DW_AT_high_pc(0x00)
TMS320C2000 Assembler PC v6.2.5 Mon Jun 19 18:10:36 2017

Tools Copyright (c) 1996-2014 Texas Instruments Incorporated
C:\Users\wmj\AppData\Local\Temp\1804410                              PAGE   53

    2804                      .dwattr $C$DW$252, DW_AT_TI_symbol_name("_PWM_setDigitalCompareAEvent1")
    2805                      .dwattr $C$DW$252, DW_AT_external
    2806                      .dwattr $C$DW$252, DW_AT_TI_begin_file("C:/ti/motorware/motorware_1_01_00_18/sw/drivers/pwm/src/32b/f
    2807                      .dwattr $C$DW$252, DW_AT_TI_begin_line(0x443)
    2808                      .dwattr $C$DW$252, DW_AT_TI_begin_column(0x06)
    2809                      .dwattr $C$DW$252, DW_AT_TI_max_frame_size(-2)
    2810                      .dwpsn  file "C:/ti/motorware/motorware_1_01_00_18/sw/drivers/pwm/src/32b/f28x/f2802x/pwm.c",line 109
    2811              
    2812                      .dwfde $C$DW$CIE, _PWM_setDigitalCompareAEvent1
    2813              $C$DW$253       .dwtag  DW_TAG_formal_parameter, DW_AT_name("pwmHandle")
    2814                      .dwattr $C$DW$253, DW_AT_TI_symbol_name("_pwmHandle")
    2815                      .dwattr $C$DW$253, DW_AT_type(*$C$DW$T$33)
    2816                      .dwattr $C$DW$253, DW_AT_location[DW_OP_reg12]
    2817              $C$DW$254       .dwtag  DW_TAG_formal_parameter, DW_AT_name("selectFilter")
    2818                      .dwattr $C$DW$254, DW_AT_TI_symbol_name("_selectFilter")
    2819                      .dwattr $C$DW$254, DW_AT_type(*$C$DW$T$156)
    2820                      .dwattr $C$DW$254, DW_AT_location[DW_OP_reg0]
    2821              $C$DW$255       .dwtag  DW_TAG_formal_parameter, DW_AT_name("disableSync")
    2822                      .dwattr $C$DW$255, DW_AT_TI_symbol_name("_disableSync")
    2823                      .dwattr $C$DW$255, DW_AT_type(*$C$DW$T$156)
    2824                      .dwattr $C$DW$255, DW_AT_location[DW_OP_reg1]
    2825              $C$DW$256       .dwtag  DW_TAG_formal_parameter, DW_AT_name("enableSoc")
    2826                      .dwattr $C$DW$256, DW_AT_TI_symbol_name("_enableSoc")
    2827                      .dwattr $C$DW$256, DW_AT_type(*$C$DW$T$156)
    2828                      .dwattr $C$DW$256, DW_AT_location[DW_OP_reg14]
    2829              $C$DW$257       .dwtag  DW_TAG_formal_parameter, DW_AT_name("generateSync")
    2830                      .dwattr $C$DW$257, DW_AT_TI_symbol_name("_generateSync")
    2831                      .dwattr $C$DW$257, DW_AT_type(*$C$DW$T$156)
    2832                      .dwattr $C$DW$257, DW_AT_location[DW_OP_breg20 -3]
    2833              
    2834              ;***************************************************************
    2835              ;* FNAME: _PWM_setDigitalCompareAEvent1 FR SIZE:   0           *
    2836              ;*                                                             *
    2837              ;* FUNCTION ENVIRONMENT                                        *
    2838              ;*                                                             *
    2839              ;* FUNCTION PROPERTIES                                         *
    2840              ;*                            0 Parameter,  0 Auto,  0 SOE     *
    2841              ;***************************************************************
    2842              
    2843              _PWM_setDigitalCompareAEvent1:
    2844              ;* AR4   assigned to _pwmHandle
    2845              $C$DW$258       .dwtag  DW_TAG_variable, DW_AT_name("pwmHandle")
    2846                      .dwattr $C$DW$258, DW_AT_TI_symbol_name("_pwmHandle")
    2847                      .dwattr $C$DW$258, DW_AT_type(*$C$DW$T$127)
    2848                      .dwattr $C$DW$258, DW_AT_location[DW_OP_reg12]
    2849              ;* AR7   assigned to _selectFilter
    2850              $C$DW$259       .dwtag  DW_TAG_variable, DW_AT_name("selectFilter")
    2851                      .dwattr $C$DW$259, DW_AT_TI_symbol_name("_selectFilter")
    2852                      .dwattr $C$DW$259, DW_AT_type(*$C$DW$T$156)
    2853                      .dwattr $C$DW$259, DW_AT_location[DW_OP_reg18]
    2854              ;* PL    assigned to _disableSync
    2855              $C$DW$260       .dwtag  DW_TAG_variable, DW_AT_name("disableSync")
    2856                      .dwattr $C$DW$260, DW_AT_TI_symbol_name("_disableSync")
    2857                      .dwattr $C$DW$260, DW_AT_type(*$C$DW$T$156)
    2858                      .dwattr $C$DW$260, DW_AT_location[DW_OP_reg2]
TMS320C2000 Assembler PC v6.2.5 Mon Jun 19 18:10:36 2017

Tools Copyright (c) 1996-2014 Texas Instruments Incorporated
C:\Users\wmj\AppData\Local\Temp\1804410                              PAGE   54

    2859              ;* AR5   assigned to _enableSoc
    2860              $C$DW$261       .dwtag  DW_TAG_variable, DW_AT_name("enableSoc")
    2861                      .dwattr $C$DW$261, DW_AT_TI_symbol_name("_enableSoc")
    2862                      .dwattr $C$DW$261, DW_AT_type(*$C$DW$T$156)
    2863                      .dwattr $C$DW$261, DW_AT_location[DW_OP_reg14]
    2864              ;* AL    assigned to _generateSync
    2865              $C$DW$262       .dwtag  DW_TAG_variable, DW_AT_name("generateSync")
    2866                      .dwattr $C$DW$262, DW_AT_TI_symbol_name("_generateSync")
    2867                      .dwattr $C$DW$262, DW_AT_type(*$C$DW$T$156)
    2868                      .dwattr $C$DW$262, DW_AT_location[DW_OP_reg0]
    2869                      .dwcfi  cfa_offset, -2
    2870                      .dwcfi  save_reg_to_mem, 26, 0
    2871                      .dwcfi  save_reg_to_reg, 78, 26
    2872 0000015d 27A8          MOV       PL,AH                 ; [CPU_] |1096| 
    2873 0000015e 80A9          MOVZ      AR7,AL                ; [CPU_] |1096| 
    2874 0000015f 9243          MOV       AL,*-SP[3]            ; [CPU_] |1096| 
    2875 00000160 7622   EALLOW
    2876                      .dwpsn  file "C:/ti/motorware/motorware_1_01_00_18/sw/drivers/pwm/src/32b/f28x/f2802x/pwm.c",line 110
    2877 00000161 C4A4          MOVL      XAR6,XAR4             ; [CPU_] |1102| 
    2878                      .dwpsn  file "C:/ti/motorware/motorware_1_01_00_18/sw/drivers/pwm/src/32b/f28x/f2802x/pwm.c",line 110
    2879 00000162 5603          MOV       ACC,AL << #1          ; [CPU_] |1105| 
         00000163 01A9 
    2880 00000164 CAA5          OR        AL,AR5                ; [CPU_] |1105| 
    2881 00000165 DC31          ADDB      XAR4,#49              ; [CPU_] |1105| 
    2882                      .dwpsn  file "C:/ti/motorware/motorware_1_01_00_18/sw/drivers/pwm/src/32b/f28x/f2802x/pwm.c",line 110
    2883 00000166 DE31          ADDB      XAR6,#49              ; [CPU_] |1102| 
    2884                      .dwpsn  file "C:/ti/motorware/motorware_1_01_00_18/sw/drivers/pwm/src/32b/f28x/f2802x/pwm.c",line 110
    2885 00000167 5603          MOV       ACC,AL << #1          ; [CPU_] |1105| 
         00000168 01A9 
    2886                      .dwpsn  file "C:/ti/motorware/motorware_1_01_00_18/sw/drivers/pwm/src/32b/f28x/f2802x/pwm.c",line 110
    2887 00000169 18C6          AND       *+XAR6[0],#0xfff0     ; [CPU_] |1102| 
         0000016a FFF0 
    2888                      .dwpsn  file "C:/ti/motorware/motorware_1_01_00_18/sw/drivers/pwm/src/32b/f28x/f2802x/pwm.c",line 110
    2889 0000016b CAAB          OR        AL,PL                 ; [CPU_] |1105| 
    2890 0000016c 5603          MOV       ACC,AL << #1          ; [CPU_] |1105| 
         0000016d 01A9 
    2891 0000016e CAC4          OR        AL,*+XAR4[0]          ; [CPU_] |1105| 
    2892 0000016f CAA7          OR        AL,AR7                ; [CPU_] |1105| 
    2893 00000170 96C4          MOV       *+XAR4[0],AL          ; [CPU_] |1105| 
    2894 00000171 761A   EDIS
    2895 00000172 FF69          SPM       #0                    ; [CPU_] 
    2896              $C$DW$263       .dwtag  DW_TAG_TI_branch
    2897                      .dwattr $C$DW$263, DW_AT_low_pc(0x00)
    2898                      .dwattr $C$DW$263, DW_AT_TI_return
    2899 00000173 0006          LRETR     ; [CPU_] 
    2900                      ; return occurs ; [] 
    2901                      .dwattr $C$DW$252, DW_AT_TI_end_file("C:/ti/motorware/motorware_1_01_00_18/sw/drivers/pwm/src/32b/f28
    2902                      .dwattr $C$DW$252, DW_AT_TI_end_line(0x456)
    2903                      .dwattr $C$DW$252, DW_AT_TI_end_column(0x01)
    2904                      .dwendentry
    2905                      .dwendtag $C$DW$252
    2906              
    2907 00000174               .sect   ".text"
    2908                      .clink
    2909                      .global _PWM_setDeadBandRisingEdgeDelay
TMS320C2000 Assembler PC v6.2.5 Mon Jun 19 18:10:36 2017

Tools Copyright (c) 1996-2014 Texas Instruments Incorporated
C:\Users\wmj\AppData\Local\Temp\1804410                              PAGE   55

    2910              
    2911              $C$DW$264       .dwtag  DW_TAG_subprogram, DW_AT_name("PWM_setDeadBandRisingEdgeDelay")
    2912                      .dwattr $C$DW$264, DW_AT_low_pc(_PWM_setDeadBandRisingEdgeDelay)
    2913                      .dwattr $C$DW$264, DW_AT_high_pc(0x00)
    2914                      .dwattr $C$DW$264, DW_AT_TI_symbol_name("_PWM_setDeadBandRisingEdgeDelay")
    2915                      .dwattr $C$DW$264, DW_AT_external
    2916                      .dwattr $C$DW$264, DW_AT_TI_begin_file("C:/ti/motorware/motorware_1_01_00_18/sw/drivers/pwm/src/32b/f
    2917                      .dwattr $C$DW$264, DW_AT_TI_begin_line(0x3e5)
    2918                      .dwattr $C$DW$264, DW_AT_TI_begin_column(0x06)
    2919                      .dwattr $C$DW$264, DW_AT_TI_max_frame_size(-2)
    2920                      .dwpsn  file "C:/ti/motorware/motorware_1_01_00_18/sw/drivers/pwm/src/32b/f28x/f2802x/pwm.c",line 998
    2921              
    2922                      .dwfde $C$DW$CIE, _PWM_setDeadBandRisingEdgeDelay
    2923              $C$DW$265       .dwtag  DW_TAG_formal_parameter, DW_AT_name("pwmHandle")
    2924                      .dwattr $C$DW$265, DW_AT_TI_symbol_name("_pwmHandle")
    2925                      .dwattr $C$DW$265, DW_AT_type(*$C$DW$T$33)
    2926                      .dwattr $C$DW$265, DW_AT_location[DW_OP_reg12]
    2927              $C$DW$266       .dwtag  DW_TAG_formal_parameter, DW_AT_name("delay")
    2928                      .dwattr $C$DW$266, DW_AT_TI_symbol_name("_delay")
    2929                      .dwattr $C$DW$266, DW_AT_type(*$C$DW$T$146)
    2930                      .dwattr $C$DW$266, DW_AT_location[DW_OP_reg0]
    2931              
    2932              ;***************************************************************
    2933              ;* FNAME: _PWM_setDeadBandRisingEdgeDelay FR SIZE:   0           *
    2934              ;*                                                             *
    2935              ;* FUNCTION ENVIRONMENT                                        *
    2936              ;*                                                             *
    2937              ;* FUNCTION PROPERTIES                                         *
    2938              ;*                            0 Parameter,  0 Auto,  0 SOE     *
    2939              ;***************************************************************
    2940              
    2941              _PWM_setDeadBandRisingEdgeDelay:
    2942              ;* AR4   assigned to _pwmHandle
    2943              $C$DW$267       .dwtag  DW_TAG_variable, DW_AT_name("pwmHandle")
    2944                      .dwattr $C$DW$267, DW_AT_TI_symbol_name("_pwmHandle")
    2945                      .dwattr $C$DW$267, DW_AT_type(*$C$DW$T$127)
    2946                      .dwattr $C$DW$267, DW_AT_location[DW_OP_reg12]
    2947              ;* AL    assigned to _delay
    2948              $C$DW$268       .dwtag  DW_TAG_variable, DW_AT_name("delay")
    2949                      .dwattr $C$DW$268, DW_AT_TI_symbol_name("_delay")
    2950                      .dwattr $C$DW$268, DW_AT_type(*$C$DW$T$146)
    2951                      .dwattr $C$DW$268, DW_AT_location[DW_OP_reg0]
    2952                      .dwcfi  cfa_offset, -2
    2953                      .dwcfi  save_reg_to_mem, 26, 0
    2954                      .dwcfi  save_reg_to_reg, 78, 26
    2955                      .dwpsn  file "C:/ti/motorware/motorware_1_01_00_18/sw/drivers/pwm/src/32b/f28x/f2802x/pwm.c",line 100
    2956 00000174 D010          MOVB      XAR0,#16              ; [CPU_] |1002| 
    2957 00000175 9694          MOV       *+XAR4[AR0],AL        ; [CPU_] |1002| 
    2958              $C$DW$269       .dwtag  DW_TAG_TI_branch
    2959                      .dwattr $C$DW$269, DW_AT_low_pc(0x00)
    2960                      .dwattr $C$DW$269, DW_AT_TI_return
    2961 00000176 0006          LRETR     ; [CPU_] 
    2962                      ; return occurs ; [] 
    2963                      .dwattr $C$DW$264, DW_AT_TI_end_file("C:/ti/motorware/motorware_1_01_00_18/sw/drivers/pwm/src/32b/f28
    2964                      .dwattr $C$DW$264, DW_AT_TI_end_line(0x3ed)
TMS320C2000 Assembler PC v6.2.5 Mon Jun 19 18:10:36 2017

Tools Copyright (c) 1996-2014 Texas Instruments Incorporated
C:\Users\wmj\AppData\Local\Temp\1804410                              PAGE   56

    2965                      .dwattr $C$DW$264, DW_AT_TI_end_column(0x01)
    2966                      .dwendentry
    2967                      .dwendtag $C$DW$264
    2968              
    2969 00000177               .sect   ".text"
    2970                      .clink
    2971                      .global _PWM_setDeadBandPolarity
    2972              
    2973              $C$DW$270       .dwtag  DW_TAG_subprogram, DW_AT_name("PWM_setDeadBandPolarity")
    2974                      .dwattr $C$DW$270, DW_AT_low_pc(_PWM_setDeadBandPolarity)
    2975                      .dwattr $C$DW$270, DW_AT_high_pc(0x00)
    2976                      .dwattr $C$DW$270, DW_AT_TI_symbol_name("_PWM_setDeadBandPolarity")
    2977                      .dwattr $C$DW$270, DW_AT_external
    2978                      .dwattr $C$DW$270, DW_AT_TI_begin_file("C:/ti/motorware/motorware_1_01_00_18/sw/drivers/pwm/src/32b/f
    2979                      .dwattr $C$DW$270, DW_AT_TI_begin_line(0x3d6)
    2980                      .dwattr $C$DW$270, DW_AT_TI_begin_column(0x06)
    2981                      .dwattr $C$DW$270, DW_AT_TI_max_frame_size(-2)
    2982                      .dwpsn  file "C:/ti/motorware/motorware_1_01_00_18/sw/drivers/pwm/src/32b/f28x/f2802x/pwm.c",line 983
    2983              
    2984                      .dwfde $C$DW$CIE, _PWM_setDeadBandPolarity
    2985              $C$DW$271       .dwtag  DW_TAG_formal_parameter, DW_AT_name("pwmHandle")
    2986                      .dwattr $C$DW$271, DW_AT_TI_symbol_name("_pwmHandle")
    2987                      .dwattr $C$DW$271, DW_AT_type(*$C$DW$T$33)
    2988                      .dwattr $C$DW$271, DW_AT_location[DW_OP_reg12]
    2989              $C$DW$272       .dwtag  DW_TAG_formal_parameter, DW_AT_name("polarity")
    2990                      .dwattr $C$DW$272, DW_AT_TI_symbol_name("_polarity")
    2991                      .dwattr $C$DW$272, DW_AT_type(*$C$DW$T$74)
    2992                      .dwattr $C$DW$272, DW_AT_location[DW_OP_reg0]
    2993              
    2994              ;***************************************************************
    2995              ;* FNAME: _PWM_setDeadBandPolarity      FR SIZE:   0           *
    2996              ;*                                                             *
    2997              ;* FUNCTION ENVIRONMENT                                        *
    2998              ;*                                                             *
    2999              ;* FUNCTION PROPERTIES                                         *
    3000              ;*                            0 Parameter,  0 Auto,  0 SOE     *
    3001              ;***************************************************************
    3002              
    3003              _PWM_setDeadBandPolarity:
    3004              ;* AR4   assigned to _pwmHandle
    3005              $C$DW$273       .dwtag  DW_TAG_variable, DW_AT_name("pwmHandle")
    3006                      .dwattr $C$DW$273, DW_AT_TI_symbol_name("_pwmHandle")
    3007                      .dwattr $C$DW$273, DW_AT_type(*$C$DW$T$127)
    3008                      .dwattr $C$DW$273, DW_AT_location[DW_OP_reg12]
    3009              ;* AL    assigned to _polarity
    3010              $C$DW$274       .dwtag  DW_TAG_variable, DW_AT_name("polarity")
    3011                      .dwattr $C$DW$274, DW_AT_TI_symbol_name("_polarity")
    3012                      .dwattr $C$DW$274, DW_AT_type(*$C$DW$T$74)
    3013                      .dwattr $C$DW$274, DW_AT_location[DW_OP_reg0]
    3014                      .dwcfi  cfa_offset, -2
    3015                      .dwcfi  save_reg_to_mem, 26, 0
    3016                      .dwcfi  save_reg_to_reg, 78, 26
    3017                      .dwpsn  file "C:/ti/motorware/motorware_1_01_00_18/sw/drivers/pwm/src/32b/f28x/f2802x/pwm.c",line 988
    3018 00000177 83A4          MOVL      XAR5,XAR4             ; [CPU_] |988| 
    3019 00000178 DD0F          ADDB      XAR5,#15              ; [CPU_] |988| 
TMS320C2000 Assembler PC v6.2.5 Mon Jun 19 18:10:36 2017

Tools Copyright (c) 1996-2014 Texas Instruments Incorporated
C:\Users\wmj\AppData\Local\Temp\1804410                              PAGE   57

    3020 00000179 18C5          AND       *+XAR5[0],#0xfff3     ; [CPU_] |988| 
         0000017a FFF3 
    3021                      .dwpsn  file "C:/ti/motorware/motorware_1_01_00_18/sw/drivers/pwm/src/32b/f28x/f2802x/pwm.c",line 991
    3022 0000017b DC0F          ADDB      XAR4,#15              ; [CPU_] |991| 
    3023 0000017c 98C4          OR        *+XAR4[0],AL          ; [CPU_] |991| 
    3024              $C$DW$275       .dwtag  DW_TAG_TI_branch
    3025                      .dwattr $C$DW$275, DW_AT_low_pc(0x00)
    3026                      .dwattr $C$DW$275, DW_AT_TI_return
    3027 0000017d 0006          LRETR     ; [CPU_] 
    3028                      ; return occurs ; [] 
    3029                      .dwattr $C$DW$270, DW_AT_TI_end_file("C:/ti/motorware/motorware_1_01_00_18/sw/drivers/pwm/src/32b/f28
    3030                      .dwattr $C$DW$270, DW_AT_TI_end_line(0x3e2)
    3031                      .dwattr $C$DW$270, DW_AT_TI_end_column(0x01)
    3032                      .dwendentry
    3033                      .dwendtag $C$DW$270
    3034              
    3035 0000017e               .sect   ".text"
    3036                      .clink
    3037                      .global _PWM_setDeadBandOutputMode
    3038              
    3039              $C$DW$276       .dwtag  DW_TAG_subprogram, DW_AT_name("PWM_setDeadBandOutputMode")
    3040                      .dwattr $C$DW$276, DW_AT_low_pc(_PWM_setDeadBandOutputMode)
    3041                      .dwattr $C$DW$276, DW_AT_high_pc(0x00)
    3042                      .dwattr $C$DW$276, DW_AT_TI_symbol_name("_PWM_setDeadBandOutputMode")
    3043                      .dwattr $C$DW$276, DW_AT_external
    3044                      .dwattr $C$DW$276, DW_AT_TI_begin_file("C:/ti/motorware/motorware_1_01_00_18/sw/drivers/pwm/src/32b/f
    3045                      .dwattr $C$DW$276, DW_AT_TI_begin_line(0x3c7)
    3046                      .dwattr $C$DW$276, DW_AT_TI_begin_column(0x06)
    3047                      .dwattr $C$DW$276, DW_AT_TI_max_frame_size(-2)
    3048                      .dwpsn  file "C:/ti/motorware/motorware_1_01_00_18/sw/drivers/pwm/src/32b/f28x/f2802x/pwm.c",line 968
    3049              
    3050                      .dwfde $C$DW$CIE, _PWM_setDeadBandOutputMode
    3051              $C$DW$277       .dwtag  DW_TAG_formal_parameter, DW_AT_name("pwmHandle")
    3052                      .dwattr $C$DW$277, DW_AT_TI_symbol_name("_pwmHandle")
    3053                      .dwattr $C$DW$277, DW_AT_type(*$C$DW$T$33)
    3054                      .dwattr $C$DW$277, DW_AT_location[DW_OP_reg12]
    3055              $C$DW$278       .dwtag  DW_TAG_formal_parameter, DW_AT_name("outputMode")
    3056                      .dwattr $C$DW$278, DW_AT_TI_symbol_name("_outputMode")
    3057                      .dwattr $C$DW$278, DW_AT_type(*$C$DW$T$71)
    3058                      .dwattr $C$DW$278, DW_AT_location[DW_OP_reg0]
    3059              
    3060              ;***************************************************************
    3061              ;* FNAME: _PWM_setDeadBandOutputMode    FR SIZE:   0           *
    3062              ;*                                                             *
    3063              ;* FUNCTION ENVIRONMENT                                        *
    3064              ;*                                                             *
    3065              ;* FUNCTION PROPERTIES                                         *
    3066              ;*                            0 Parameter,  0 Auto,  0 SOE     *
    3067              ;***************************************************************
    3068              
    3069              _PWM_setDeadBandOutputMode:
    3070              ;* AR4   assigned to _pwmHandle
    3071              $C$DW$279       .dwtag  DW_TAG_variable, DW_AT_name("pwmHandle")
    3072                      .dwattr $C$DW$279, DW_AT_TI_symbol_name("_pwmHandle")
    3073                      .dwattr $C$DW$279, DW_AT_type(*$C$DW$T$127)
TMS320C2000 Assembler PC v6.2.5 Mon Jun 19 18:10:36 2017

Tools Copyright (c) 1996-2014 Texas Instruments Incorporated
C:\Users\wmj\AppData\Local\Temp\1804410                              PAGE   58

    3074                      .dwattr $C$DW$279, DW_AT_location[DW_OP_reg12]
    3075              ;* AL    assigned to _outputMode
    3076              $C$DW$280       .dwtag  DW_TAG_variable, DW_AT_name("outputMode")
    3077                      .dwattr $C$DW$280, DW_AT_TI_symbol_name("_outputMode")
    3078                      .dwattr $C$DW$280, DW_AT_type(*$C$DW$T$71)
    3079                      .dwattr $C$DW$280, DW_AT_location[DW_OP_reg0]
    3080                      .dwcfi  cfa_offset, -2
    3081                      .dwcfi  save_reg_to_mem, 26, 0
    3082                      .dwcfi  save_reg_to_reg, 78, 26
    3083                      .dwpsn  file "C:/ti/motorware/motorware_1_01_00_18/sw/drivers/pwm/src/32b/f28x/f2802x/pwm.c",line 973
    3084 0000017e 83A4          MOVL      XAR5,XAR4             ; [CPU_] |973| 
    3085 0000017f DD0F          ADDB      XAR5,#15              ; [CPU_] |973| 
    3086 00000180 18C5          AND       *+XAR5[0],#0xfffc     ; [CPU_] |973| 
         00000181 FFFC 
    3087                      .dwpsn  file "C:/ti/motorware/motorware_1_01_00_18/sw/drivers/pwm/src/32b/f28x/f2802x/pwm.c",line 976
    3088 00000182 DC0F          ADDB      XAR4,#15              ; [CPU_] |976| 
    3089 00000183 98C4          OR        *+XAR4[0],AL          ; [CPU_] |976| 
    3090              $C$DW$281       .dwtag  DW_TAG_TI_branch
    3091                      .dwattr $C$DW$281, DW_AT_low_pc(0x00)
    3092                      .dwattr $C$DW$281, DW_AT_TI_return
    3093 00000184 0006          LRETR     ; [CPU_] 
    3094                      ; return occurs ; [] 
    3095                      .dwattr $C$DW$276, DW_AT_TI_end_file("C:/ti/motorware/motorware_1_01_00_18/sw/drivers/pwm/src/32b/f28
    3096                      .dwattr $C$DW$276, DW_AT_TI_end_line(0x3d3)
    3097                      .dwattr $C$DW$276, DW_AT_TI_end_column(0x01)
    3098                      .dwendentry
    3099                      .dwendtag $C$DW$276
    3100              
    3101 00000185               .sect   ".text"
    3102                      .clink
    3103                      .global _PWM_setDeadBandInputMode
    3104              
    3105              $C$DW$282       .dwtag  DW_TAG_subprogram, DW_AT_name("PWM_setDeadBandInputMode")
    3106                      .dwattr $C$DW$282, DW_AT_low_pc(_PWM_setDeadBandInputMode)
    3107                      .dwattr $C$DW$282, DW_AT_high_pc(0x00)
    3108                      .dwattr $C$DW$282, DW_AT_TI_symbol_name("_PWM_setDeadBandInputMode")
    3109                      .dwattr $C$DW$282, DW_AT_external
    3110                      .dwattr $C$DW$282, DW_AT_TI_begin_file("C:/ti/motorware/motorware_1_01_00_18/sw/drivers/pwm/src/32b/f
    3111                      .dwattr $C$DW$282, DW_AT_TI_begin_line(0x3b8)
    3112                      .dwattr $C$DW$282, DW_AT_TI_begin_column(0x06)
    3113                      .dwattr $C$DW$282, DW_AT_TI_max_frame_size(-2)
    3114                      .dwpsn  file "C:/ti/motorware/motorware_1_01_00_18/sw/drivers/pwm/src/32b/f28x/f2802x/pwm.c",line 953
    3115              
    3116                      .dwfde $C$DW$CIE, _PWM_setDeadBandInputMode
    3117              $C$DW$283       .dwtag  DW_TAG_formal_parameter, DW_AT_name("pwmHandle")
    3118                      .dwattr $C$DW$283, DW_AT_TI_symbol_name("_pwmHandle")
    3119                      .dwattr $C$DW$283, DW_AT_type(*$C$DW$T$33)
    3120                      .dwattr $C$DW$283, DW_AT_location[DW_OP_reg12]
    3121              $C$DW$284       .dwtag  DW_TAG_formal_parameter, DW_AT_name("inputMode")
    3122                      .dwattr $C$DW$284, DW_AT_TI_symbol_name("_inputMode")
    3123                      .dwattr $C$DW$284, DW_AT_type(*$C$DW$T$68)
    3124                      .dwattr $C$DW$284, DW_AT_location[DW_OP_reg0]
    3125              
    3126              ;***************************************************************
    3127              ;* FNAME: _PWM_setDeadBandInputMode     FR SIZE:   0           *
TMS320C2000 Assembler PC v6.2.5 Mon Jun 19 18:10:36 2017

Tools Copyright (c) 1996-2014 Texas Instruments Incorporated
C:\Users\wmj\AppData\Local\Temp\1804410                              PAGE   59

    3128              ;*                                                             *
    3129              ;* FUNCTION ENVIRONMENT                                        *
    3130              ;*                                                             *
    3131              ;* FUNCTION PROPERTIES                                         *
    3132              ;*                            0 Parameter,  0 Auto,  0 SOE     *
    3133              ;***************************************************************
    3134              
    3135              _PWM_setDeadBandInputMode:
    3136              ;* AR4   assigned to _pwmHandle
    3137              $C$DW$285       .dwtag  DW_TAG_variable, DW_AT_name("pwmHandle")
    3138                      .dwattr $C$DW$285, DW_AT_TI_symbol_name("_pwmHandle")
    3139                      .dwattr $C$DW$285, DW_AT_type(*$C$DW$T$127)
    3140                      .dwattr $C$DW$285, DW_AT_location[DW_OP_reg12]
    3141              ;* AL    assigned to _inputMode
    3142              $C$DW$286       .dwtag  DW_TAG_variable, DW_AT_name("inputMode")
    3143                      .dwattr $C$DW$286, DW_AT_TI_symbol_name("_inputMode")
    3144                      .dwattr $C$DW$286, DW_AT_type(*$C$DW$T$68)
    3145                      .dwattr $C$DW$286, DW_AT_location[DW_OP_reg0]
    3146                      .dwcfi  cfa_offset, -2
    3147                      .dwcfi  save_reg_to_mem, 26, 0
    3148                      .dwcfi  save_reg_to_reg, 78, 26
    3149                      .dwpsn  file "C:/ti/motorware/motorware_1_01_00_18/sw/drivers/pwm/src/32b/f28x/f2802x/pwm.c",line 958
    3150 00000185 83A4          MOVL      XAR5,XAR4             ; [CPU_] |958| 
    3151 00000186 DD0F          ADDB      XAR5,#15              ; [CPU_] |958| 
    3152 00000187 18C5          AND       *+XAR5[0],#0xffcf     ; [CPU_] |958| 
         00000188 FFCF 
    3153                      .dwpsn  file "C:/ti/motorware/motorware_1_01_00_18/sw/drivers/pwm/src/32b/f28x/f2802x/pwm.c",line 961
    3154 00000189 DC0F          ADDB      XAR4,#15              ; [CPU_] |961| 
    3155 0000018a 98C4          OR        *+XAR4[0],AL          ; [CPU_] |961| 
    3156              $C$DW$287       .dwtag  DW_TAG_TI_branch
    3157                      .dwattr $C$DW$287, DW_AT_low_pc(0x00)
    3158                      .dwattr $C$DW$287, DW_AT_TI_return
    3159 0000018b 0006          LRETR     ; [CPU_] 
