TMS320C2000 Assembler PC v6.2.5 Mon Jun 19 18:10:37 2017

Tools Copyright (c) 1996-2014 Texas Instruments Incorporated
C:\Users\wmj\AppData\Local\Temp\1992810                              PAGE    1

       1              ;***************************************************************
       2              ;* TMS320C2000 C/C++ Codegen                         PC v6.2.5 *
       3              ;* Date/Time created: Mon Jun 19 18:10:37 2017                 *
       4              ;***************************************************************
       5                      .compiler_opts --float_support=softlib --hll_source=on --mem_model:code=flat --mem_model:data=large -
       6        0002  FP      .set    XAR2
       7              
       8              $C$DW$CU        .dwtag  DW_TAG_compile_unit
       9                      .dwattr $C$DW$CU, DW_AT_name("C:/ti/motorware/motorware_1_01_00_18/sw/modules/user/src/32b/user.c")
      10                      .dwattr $C$DW$CU, DW_AT_producer("TMS320C2000 C/C++ Codegen PC v6.2.5 Copyright (c) 1996-2014 Texas I
      11                      .dwattr $C$DW$CU, DW_AT_TI_version(0x01)
      12                      .dwattr $C$DW$CU, DW_AT_comp_dir("C:\ti\motorware\motorware_1_01_00_18\sw\solutions\instaspin_foc\boa
      13              
      14              $C$DW$1 .dwtag  DW_TAG_subprogram, DW_AT_name("EST_setLs_d_pu")
      15                      .dwattr $C$DW$1, DW_AT_TI_symbol_name("_EST_setLs_d_pu")
      16                      .dwattr $C$DW$1, DW_AT_declaration
      17                      .dwattr $C$DW$1, DW_AT_external
      18              $C$DW$2 .dwtag  DW_TAG_formal_parameter
      19                      .dwattr $C$DW$2, DW_AT_type(*$C$DW$T$33)
      20              $C$DW$3 .dwtag  DW_TAG_formal_parameter
      21                      .dwattr $C$DW$3, DW_AT_type(*$C$DW$T$93)
      22                      .dwendtag $C$DW$1
      23              
      24              
      25              $C$DW$4 .dwtag  DW_TAG_subprogram, DW_AT_name("CTRL_setGains")
      26                      .dwattr $C$DW$4, DW_AT_TI_symbol_name("_CTRL_setGains")
      27                      .dwattr $C$DW$4, DW_AT_declaration
      28                      .dwattr $C$DW$4, DW_AT_external
      29              $C$DW$5 .dwtag  DW_TAG_formal_parameter
      30                      .dwattr $C$DW$5, DW_AT_type(*$C$DW$T$87)
      31              $C$DW$6 .dwtag  DW_TAG_formal_parameter
      32                      .dwattr $C$DW$6, DW_AT_type(*$C$DW$T$84)
      33              $C$DW$7 .dwtag  DW_TAG_formal_parameter
      34                      .dwattr $C$DW$7, DW_AT_type(*$C$DW$T$93)
      35              $C$DW$8 .dwtag  DW_TAG_formal_parameter
      36                      .dwattr $C$DW$8, DW_AT_type(*$C$DW$T$93)
      37              $C$DW$9 .dwtag  DW_TAG_formal_parameter
      38                      .dwattr $C$DW$9, DW_AT_type(*$C$DW$T$93)
      39                      .dwendtag $C$DW$4
      40              
      41              
      42              $C$DW$10        .dwtag  DW_TAG_subprogram, DW_AT_name("EST_setLs_q_pu")
      43                      .dwattr $C$DW$10, DW_AT_TI_symbol_name("_EST_setLs_q_pu")
      44                      .dwattr $C$DW$10, DW_AT_declaration
      45                      .dwattr $C$DW$10, DW_AT_external
      46              $C$DW$11        .dwtag  DW_TAG_formal_parameter
      47                      .dwattr $C$DW$11, DW_AT_type(*$C$DW$T$33)
      48              $C$DW$12        .dwtag  DW_TAG_formal_parameter
      49                      .dwattr $C$DW$12, DW_AT_type(*$C$DW$T$93)
      50                      .dwendtag $C$DW$10
      51              
      52              
      53              $C$DW$13        .dwtag  DW_TAG_subprogram, DW_AT_name("EST_setLs_qFmt")
      54                      .dwattr $C$DW$13, DW_AT_TI_symbol_name("_EST_setLs_qFmt")
      55                      .dwattr $C$DW$13, DW_AT_declaration
TMS320C2000 Assembler PC v6.2.5 Mon Jun 19 18:10:37 2017

Tools Copyright (c) 1996-2014 Texas Instruments Incorporated
C:\Users\wmj\AppData\Local\Temp\1992810                              PAGE    2

      56                      .dwattr $C$DW$13, DW_AT_external
      57              $C$DW$14        .dwtag  DW_TAG_formal_parameter
      58                      .dwattr $C$DW$14, DW_AT_type(*$C$DW$T$33)
      59              $C$DW$15        .dwtag  DW_TAG_formal_parameter
      60                      .dwattr $C$DW$15, DW_AT_type(*$C$DW$T$96)
      61                      .dwendtag $C$DW$13
      62              
      63              
      64              $C$DW$16        .dwtag  DW_TAG_subprogram, DW_AT_name("pow")
      65                      .dwattr $C$DW$16, DW_AT_TI_symbol_name("_pow")
      66                      .dwattr $C$DW$16, DW_AT_type(*$C$DW$T$17)
      67                      .dwattr $C$DW$16, DW_AT_declaration
      68                      .dwattr $C$DW$16, DW_AT_external
      69              $C$DW$17        .dwtag  DW_TAG_formal_parameter
      70                      .dwattr $C$DW$17, DW_AT_type(*$C$DW$T$17)
      71              $C$DW$18        .dwtag  DW_TAG_formal_parameter
      72                      .dwattr $C$DW$18, DW_AT_type(*$C$DW$T$17)
      73                      .dwendtag $C$DW$16
      74              
      75              
      76              $C$DW$19        .dwtag  DW_TAG_subprogram, DW_AT_name("log")
      77                      .dwattr $C$DW$19, DW_AT_TI_symbol_name("_log")
      78                      .dwattr $C$DW$19, DW_AT_type(*$C$DW$T$17)
      79                      .dwattr $C$DW$19, DW_AT_declaration
      80                      .dwattr $C$DW$19, DW_AT_external
      81              $C$DW$20        .dwtag  DW_TAG_formal_parameter
      82                      .dwattr $C$DW$20, DW_AT_type(*$C$DW$T$17)
      83                      .dwendtag $C$DW$19
      84              
      85              
      86              $C$DW$21        .dwtag  DW_TAG_subprogram, DW_AT_name("EST_getFlux_pu")
      87                      .dwattr $C$DW$21, DW_AT_TI_symbol_name("_EST_getFlux_pu")
      88                      .dwattr $C$DW$21, DW_AT_type(*$C$DW$T$20)
      89                      .dwattr $C$DW$21, DW_AT_declaration
      90                      .dwattr $C$DW$21, DW_AT_external
      91              $C$DW$22        .dwtag  DW_TAG_formal_parameter
      92                      .dwattr $C$DW$22, DW_AT_type(*$C$DW$T$33)
      93                      .dwendtag $C$DW$21
      94              
      95              
      96              $C$DW$23        .dwtag  DW_TAG_subprogram, DW_AT_name("modf")
      97                      .dwattr $C$DW$23, DW_AT_TI_symbol_name("_modf")
      98                      .dwattr $C$DW$23, DW_AT_type(*$C$DW$T$17)
      99                      .dwattr $C$DW$23, DW_AT_declaration
     100                      .dwattr $C$DW$23, DW_AT_external
     101              $C$DW$24        .dwtag  DW_TAG_formal_parameter
     102                      .dwattr $C$DW$24, DW_AT_type(*$C$DW$T$17)
     103              $C$DW$25        .dwtag  DW_TAG_formal_parameter
     104                      .dwattr $C$DW$25, DW_AT_type(*$C$DW$T$124)
     105                      .dwendtag $C$DW$23
     106              
     107              
     108              $C$DW$26        .dwtag  DW_TAG_subprogram, DW_AT_name("__IQmpy")
     109                      .dwattr $C$DW$26, DW_AT_TI_symbol_name("___IQmpy")
     110                      .dwattr $C$DW$26, DW_AT_type(*$C$DW$T$12)
TMS320C2000 Assembler PC v6.2.5 Mon Jun 19 18:10:37 2017

Tools Copyright (c) 1996-2014 Texas Instruments Incorporated
C:\Users\wmj\AppData\Local\Temp\1992810                              PAGE    3

     111                      .dwattr $C$DW$26, DW_AT_declaration
     112                      .dwattr $C$DW$26, DW_AT_external
     113              $C$DW$27        .dwtag  DW_TAG_formal_parameter
     114                      .dwattr $C$DW$27, DW_AT_type(*$C$DW$T$12)
     115              $C$DW$28        .dwtag  DW_TAG_formal_parameter
     116                      .dwattr $C$DW$28, DW_AT_type(*$C$DW$T$12)
     117              $C$DW$29        .dwtag  DW_TAG_formal_parameter
     118                      .dwattr $C$DW$29, DW_AT_type(*$C$DW$T$10)
     119                      .dwendtag $C$DW$26
     120              
     121              
     122              $C$DW$30        .dwtag  DW_TAG_subprogram, DW_AT_name("_IQ30toF")
     123                      .dwattr $C$DW$30, DW_AT_TI_symbol_name("__IQ30toF")
     124                      .dwattr $C$DW$30, DW_AT_type(*$C$DW$T$16)
     125                      .dwattr $C$DW$30, DW_AT_declaration
     126                      .dwattr $C$DW$30, DW_AT_external
     127              $C$DW$31        .dwtag  DW_TAG_formal_parameter
     128                      .dwattr $C$DW$31, DW_AT_type(*$C$DW$T$12)
     129                      .dwendtag $C$DW$30
     130              
     131              
     132              $C$DW$32        .dwtag  DW_TAG_subprogram, DW_AT_name("EST_getLs_coarse_max_pu")
     133                      .dwattr $C$DW$32, DW_AT_TI_symbol_name("_EST_getLs_coarse_max_pu")
     134                      .dwattr $C$DW$32, DW_AT_type(*$C$DW$T$20)
     135                      .dwattr $C$DW$32, DW_AT_declaration
     136                      .dwattr $C$DW$32, DW_AT_external
     137              $C$DW$33        .dwtag  DW_TAG_formal_parameter
     138                      .dwattr $C$DW$33, DW_AT_type(*$C$DW$T$33)
     139                      .dwendtag $C$DW$32
     140              
     141              
     142              $C$DW$34        .dwtag  DW_TAG_subprogram, DW_AT_name("EST_getLs_q_pu")
     143                      .dwattr $C$DW$34, DW_AT_TI_symbol_name("_EST_getLs_q_pu")
     144                      .dwattr $C$DW$34, DW_AT_type(*$C$DW$T$20)
     145                      .dwattr $C$DW$34, DW_AT_declaration
     146                      .dwattr $C$DW$34, DW_AT_external
     147              $C$DW$35        .dwtag  DW_TAG_formal_parameter
     148                      .dwattr $C$DW$35, DW_AT_type(*$C$DW$T$33)
     149                      .dwendtag $C$DW$34
     150              
     151              
     152              $C$DW$36        .dwtag  DW_TAG_subprogram, DW_AT_name("EST_getLs_d_pu")
     153                      .dwattr $C$DW$36, DW_AT_TI_symbol_name("_EST_getLs_d_pu")
     154                      .dwattr $C$DW$36, DW_AT_type(*$C$DW$T$20)
     155                      .dwattr $C$DW$36, DW_AT_declaration
     156                      .dwattr $C$DW$36, DW_AT_external
     157              $C$DW$37        .dwtag  DW_TAG_formal_parameter
     158                      .dwattr $C$DW$37, DW_AT_type(*$C$DW$T$33)
     159                      .dwendtag $C$DW$36
     160              
     161              
     162              $C$DW$38        .dwtag  DW_TAG_subprogram, DW_AT_name("EST_getLs_d_H")
     163                      .dwattr $C$DW$38, DW_AT_TI_symbol_name("_EST_getLs_d_H")
     164                      .dwattr $C$DW$38, DW_AT_type(*$C$DW$T$54)
     165                      .dwattr $C$DW$38, DW_AT_declaration
TMS320C2000 Assembler PC v6.2.5 Mon Jun 19 18:10:37 2017

Tools Copyright (c) 1996-2014 Texas Instruments Incorporated
C:\Users\wmj\AppData\Local\Temp\1992810                              PAGE    4

     166                      .dwattr $C$DW$38, DW_AT_external
     167              $C$DW$39        .dwtag  DW_TAG_formal_parameter
     168                      .dwattr $C$DW$39, DW_AT_type(*$C$DW$T$33)
     169                      .dwendtag $C$DW$38
     170              
     171              
     172              $C$DW$40        .dwtag  DW_TAG_subprogram, DW_AT_name("EST_getRs_Ohm")
     173                      .dwattr $C$DW$40, DW_AT_TI_symbol_name("_EST_getRs_Ohm")
     174                      .dwattr $C$DW$40, DW_AT_type(*$C$DW$T$54)
     175                      .dwattr $C$DW$40, DW_AT_declaration
     176                      .dwattr $C$DW$40, DW_AT_external
     177              $C$DW$41        .dwtag  DW_TAG_formal_parameter
     178                      .dwattr $C$DW$41, DW_AT_type(*$C$DW$T$33)
     179                      .dwendtag $C$DW$40
     180              
     181              
     182              $C$DW$42        .dwtag  DW_TAG_subprogram, DW_AT_name("EST_getLs_q_H")
     183                      .dwattr $C$DW$42, DW_AT_TI_symbol_name("_EST_getLs_q_H")
     184                      .dwattr $C$DW$42, DW_AT_type(*$C$DW$T$54)
     185                      .dwattr $C$DW$42, DW_AT_declaration
     186                      .dwattr $C$DW$42, DW_AT_external
     187              $C$DW$43        .dwtag  DW_TAG_formal_parameter
     188                      .dwattr $C$DW$43, DW_AT_type(*$C$DW$T$33)
     189                      .dwendtag $C$DW$42
     190              
     191              ;       c:\ti\ccsv6\tools\compiler\c2000_6.2.5\bin\opt2000.exe C:\\Users\\wmj\\AppData\\Local\\Temp\\199282 C
     192              ;       c:\ti\ccsv6\tools\compiler\c2000_6.2.5\bin\ac2000.exe -@C:\\Users\\wmj\\AppData\\Local\\Temp\\1992816
     193 00000000               .sect   ".text"
     194                      .clink
     195                      .global _USER_softwareUpdate1p6
     196              
     197              $C$DW$44        .dwtag  DW_TAG_subprogram, DW_AT_name("USER_softwareUpdate1p6")
     198                      .dwattr $C$DW$44, DW_AT_low_pc(_USER_softwareUpdate1p6)
     199                      .dwattr $C$DW$44, DW_AT_high_pc(0x00)
     200                      .dwattr $C$DW$44, DW_AT_TI_symbol_name("_USER_softwareUpdate1p6")
     201                      .dwattr $C$DW$44, DW_AT_external
     202                      .dwattr $C$DW$44, DW_AT_TI_begin_file("C:/ti/motorware/motorware_1_01_00_18/sw/modules/user/src/32b/u
     203                      .dwattr $C$DW$44, DW_AT_TI_begin_line(0x343)
     204                      .dwattr $C$DW$44, DW_AT_TI_begin_column(0x06)
     205                      .dwattr $C$DW$44, DW_AT_TI_max_frame_size(-22)
     206                      .dwpsn  file "C:/ti/motorware/motorware_1_01_00_18/sw/modules/user/src/32b/user.c",line 836,column 1,
     207              
     208                      .dwfde $C$DW$CIE, _USER_softwareUpdate1p6
     209              $C$DW$45        .dwtag  DW_TAG_formal_parameter, DW_AT_name("handle")
     210                      .dwattr $C$DW$45, DW_AT_TI_symbol_name("_handle")
     211                      .dwattr $C$DW$45, DW_AT_type(*$C$DW$T$87)
     212                      .dwattr $C$DW$45, DW_AT_location[DW_OP_reg12]
     213              
     214              ;***************************************************************
     215              ;* FNAME: _USER_softwareUpdate1p6       FR SIZE:  20           *
     216              ;*                                                             *
     217              ;* FUNCTION ENVIRONMENT                                        *
     218              ;*                                                             *
     219              ;* FUNCTION PROPERTIES                                         *
     220              ;*                            2 Parameter, 11 Auto,  6 SOE     *
TMS320C2000 Assembler PC v6.2.5 Mon Jun 19 18:10:37 2017

Tools Copyright (c) 1996-2014 Texas Instruments Incorporated
C:\Users\wmj\AppData\Local\Temp\1992810                              PAGE    5

     221              ;***************************************************************
     222              
     223              _USER_softwareUpdate1p6:
     224              ;* AL    assigned to _x
     225              $C$DW$46        .dwtag  DW_TAG_variable, DW_AT_name("x")
     226                      .dwattr $C$DW$46, DW_AT_TI_symbol_name("_x")
     227                      .dwattr $C$DW$46, DW_AT_type(*$C$DW$T$17)
     228                      .dwattr $C$DW$46, DW_AT_location[DW_OP_reg0]
     229              $C$DW$47        .dwtag  DW_TAG_variable, DW_AT_name("y")
     230                      .dwattr $C$DW$47, DW_AT_TI_symbol_name("_y")
     231                      .dwattr $C$DW$47, DW_AT_type(*$C$DW$T$17)
     232                      .dwattr $C$DW$47, DW_AT_location[DW_OP_breg20 -4]
     233              ;* AR2   assigned to _Ls_q_pu
     234              $C$DW$48        .dwtag  DW_TAG_variable, DW_AT_name("Ls_q_pu")
     235                      .dwattr $C$DW$48, DW_AT_TI_symbol_name("_Ls_q_pu")
     236                      .dwattr $C$DW$48, DW_AT_type(*$C$DW$T$20)
     237                      .dwattr $C$DW$48, DW_AT_location[DW_OP_reg8]
     238              ;* AR1   assigned to _L_max
     239              $C$DW$49        .dwtag  DW_TAG_variable, DW_AT_name("L_max")
     240                      .dwattr $C$DW$49, DW_AT_TI_symbol_name("_L_max")
     241                      .dwattr $C$DW$49, DW_AT_type(*$C$DW$T$54)
     242                      .dwattr $C$DW$49, DW_AT_location[DW_OP_reg6]
     243              ;* AR6   assigned to _Ls_coarse_max
     244              $C$DW$50        .dwtag  DW_TAG_variable, DW_AT_name("Ls_coarse_max")
     245                      .dwattr $C$DW$50, DW_AT_TI_symbol_name("_Ls_coarse_max")
     246                      .dwattr $C$DW$50, DW_AT_type(*$C$DW$T$54)
     247                      .dwattr $C$DW$50, DW_AT_location[DW_OP_reg16]
     248              ;* AR3   assigned to _handle
     249              $C$DW$51        .dwtag  DW_TAG_variable, DW_AT_name("handle")
     250                      .dwattr $C$DW$51, DW_AT_TI_symbol_name("_handle")
     251                      .dwattr $C$DW$51, DW_AT_type(*$C$DW$T$88)
     252                      .dwattr $C$DW$51, DW_AT_location[DW_OP_reg10]
     253              ;* AL    assigned to $O$R1
     254                      .dwcfi  cfa_offset, -2
     255                      .dwcfi  save_reg_to_mem, 26, 0
     256                      .dwcfi  save_reg_to_reg, 78, 26
     257 00000000 B2BD          MOVL      *SP++,XAR1            ; [CPU_] 
     258                      .dwcfi  save_reg_to_mem, 7, 2
     259                      .dwcfi  cfa_offset, -4
     260 00000001 AABD          MOVL      *SP++,XAR2            ; [CPU_] 
     261                      .dwcfi  save_reg_to_mem, 9, 4
     262                      .dwcfi  cfa_offset, -6
     263 00000002 A2BD          MOVL      *SP++,XAR3            ; [CPU_] 
     264                      .dwcfi  save_reg_to_mem, 11, 6
     265                      .dwcfi  cfa_offset, -8
     266 00000003 FE0E          ADDB      SP,#14                ; [CPU_U] 
     267                      .dwcfi  cfa_offset, -22
     268                      .dwpsn  file "C:/ti/motorware/motorware_1_01_00_18/sw/modules/user/src/32b/user.c",line 839,column 25
     269 00000004 D018          MOVB      XAR0,#24              ; [CPU_] |839| 
     270                      .dwpsn  file "C:/ti/motorware/motorware_1_01_00_18/sw/modules/user/src/32b/user.c",line 836,column 1,
     271 00000005 82A4          MOVL      XAR3,XAR4             ; [CPU_] |836| 
     272                      .dwpsn  file "C:/ti/motorware/motorware_1_01_00_18/sw/modules/user/src/32b/user.c",line 839,column 25
     273 00000006 8A93          MOVL      XAR4,*+XAR3[AR0]      ; [CPU_] |839| 
     274              $C$DW$52        .dwtag  DW_TAG_TI_branch
     275                      .dwattr $C$DW$52, DW_AT_low_pc(0x00)
TMS320C2000 Assembler PC v6.2.5 Mon Jun 19 18:10:37 2017

Tools Copyright (c) 1996-2014 Texas Instruments Incorporated
C:\Users\wmj\AppData\Local\Temp\1992810                              PAGE    6

     276                      .dwattr $C$DW$52, DW_AT_name("_EST_getLs_coarse_max_pu")
     277                      .dwattr $C$DW$52, DW_AT_TI_call
     278 00000007 7640!         LCR       #_EST_getLs_coarse_max_pu ; [CPU_] |839| 
         00000008 0000 
     279                      ; call occurs [#_EST_getLs_coarse_max_pu] ; [] |839| 
     280              $C$DW$53        .dwtag  DW_TAG_TI_branch
     281                      .dwattr $C$DW$53, DW_AT_low_pc(0x00)
     282                      .dwattr $C$DW$53, DW_AT_name("__IQ30toF")
     283                      .dwattr $C$DW$53, DW_AT_TI_call
     284 00000009 7640!         LCR       #__IQ30toF            ; [CPU_] |839| 
         0000000a 0000 
     285                      ; call occurs [#__IQ30toF] ; [] |839| 
     286 0000000b 1EA6          MOVL      XAR6,ACC              ; [CPU_] |839| 
     287                      .dwpsn  file "C:/ti/motorware/motorware_1_01_00_18/sw/modules/user/src/32b/user.c",line 840,column 23
     288 0000000c 28A9          MOV       AL,#16696             ; [CPU_] |840| 
         0000000d 4138 
     289 0000000e 28A8          MOV       AH,#15619             ; [CPU_] |840| 
         0000000f 3D03 
     290 00000010 1E42          MOVL      *-SP[2],ACC           ; [CPU_] |840| 
     291 00000011 06A6          MOVL      ACC,XAR6              ; [CPU_] |840| 
     292              $C$DW$54        .dwtag  DW_TAG_TI_branch
     293                      .dwattr $C$DW$54, DW_AT_low_pc(0x00)
     294                      .dwattr $C$DW$54, DW_AT_name("FS$$MPY")
     295                      .dwattr $C$DW$54, DW_AT_TI_call
     296 00000012 7640!         LCR       #FS$$MPY              ; [CPU_] |840| 
         00000013 0000 
     297                      ; call occurs [#FS$$MPY] ; [] |840| 
     298 00000014 D088          MOVB      XAR0,#136             ; [CPU_] |840| 
     299 00000015 1E42          MOVL      *-SP[2],ACC           ; [CPU_] |840| 
     300 00000016 0693          MOVL      ACC,*+XAR3[AR0]       ; [CPU_] |840| 
     301              $C$DW$55        .dwtag  DW_TAG_TI_branch
     302                      .dwattr $C$DW$55, DW_AT_low_pc(0x00)
     303                      .dwattr $C$DW$55, DW_AT_name("FS$$DIV")
     304                      .dwattr $C$DW$55, DW_AT_TI_call
     305 00000017 7640!         LCR       #FS$$DIV              ; [CPU_] |840| 
         00000018 0000 
     306                      ; call occurs [#FS$$DIV] ; [] |840| 
     307              $C$DW$56        .dwtag  DW_TAG_TI_branch
     308                      .dwattr $C$DW$56, DW_AT_low_pc(0x00)
     309                      .dwattr $C$DW$56, DW_AT_name("_log")
     310                      .dwattr $C$DW$56, DW_AT_TI_call
     311 00000019 7640!         LCR       #_log                 ; [CPU_] |840| 
         0000001a 0000 
     312                      ; call occurs [#_log] ; [] |840| 
     313 0000001b 8BA9          MOVL      XAR1,ACC              ; [CPU_] |840| 
     314 0000001c 9A00          MOV       AL,#0                 ; [CPU_] |840| 
     315 0000001d 28A8          MOV       AH,#16384             ; [CPU_] |840| 
         0000001e 4000 
     316              $C$DW$57        .dwtag  DW_TAG_TI_branch
     317                      .dwattr $C$DW$57, DW_AT_low_pc(0x00)
     318                      .dwattr $C$DW$57, DW_AT_name("_log")
     319                      .dwattr $C$DW$57, DW_AT_TI_call
     320 0000001f 7640!         LCR       #_log                 ; [CPU_] |840| 
         00000020 0000 
     321                      ; call occurs [#_log] ; [] |840| 
TMS320C2000 Assembler PC v6.2.5 Mon Jun 19 18:10:37 2017

Tools Copyright (c) 1996-2014 Texas Instruments Incorporated
C:\Users\wmj\AppData\Local\Temp\1992810                              PAGE    7

     322 00000021 1E42          MOVL      *-SP[2],ACC           ; [CPU_] |840| 
     323 00000022 B2A9          MOVL      ACC,XAR1              ; [CPU_] |840| 
     324              $C$DW$58        .dwtag  DW_TAG_TI_branch
     325                      .dwattr $C$DW$58, DW_AT_low_pc(0x00)
     326                      .dwattr $C$DW$58, DW_AT_name("FS$$DIV")
     327                      .dwattr $C$DW$58, DW_AT_TI_call
     328 00000023 7640!         LCR       #FS$$DIV              ; [CPU_] |840| 
         00000024 0000 
     329                      ; call occurs [#FS$$DIV] ; [] |840| 
     330                      .dwpsn  file "c:/ti/ccsv6/tools/compiler/c2000_6.2.5/include/math.h",line 110,column 45,is_stmt
     331 00000025 5CAD          MOVZ      AR4,SP                ; [CPU_U] |110| 
     332 00000026 DC84          SUBB      XAR4,#4               ; [CPU_U] |110| 
     333              $C$DW$59        .dwtag  DW_TAG_TI_branch
     334                      .dwattr $C$DW$59, DW_AT_low_pc(0x00)
     335                      .dwattr $C$DW$59, DW_AT_name("_modf")
     336                      .dwattr $C$DW$59, DW_AT_TI_call
     337 00000027 7640!         LCR       #_modf                ; [CPU_] |110| 
         00000028 0000 
     338                      ; call occurs [#_modf] ; [] |110| 
     339 00000029 1EA6          MOVL      XAR6,ACC              ; [CPU_] |110| 
     340 0000002a 9A00          MOV       AL,#0                 ; [CPU_] |110| 
     341 0000002b 9B00          MOV       AH,#0                 ; [CPU_] |110| 
     342 0000002c 1E42          MOVL      *-SP[2],ACC           ; [CPU_] |110| 
     343 0000002d 06A6          MOVL      ACC,XAR6              ; [CPU_] |110| 
     344              $C$DW$60        .dwtag  DW_TAG_TI_branch
     345                      .dwattr $C$DW$60, DW_AT_low_pc(0x00)
     346                      .dwattr $C$DW$60, DW_AT_name("FS$$CMP")
     347                      .dwattr $C$DW$60, DW_AT_TI_call
     348 0000002e 7640!         LCR       #FS$$CMP              ; [CPU_] |110| 
         0000002f 0000 
     349                      ; call occurs [#FS$$CMP] ; [] |110| 
     350 00000030 5200          CMPB      AL,#0                 ; [CPU_] |110| 
     351 00000031 6203          B         $C$L1,GT              ; [CPU_] |110| 
     352                      ; branchcc occurs ; [] |110| 
     353 00000032 0644          MOVL      ACC,*-SP[4]           ; [CPU_] |110| 
     354 00000033 6F07          B         $C$L2,UNC             ; [CPU_] |110| 
     355                      ; branch occurs ; [] |110| 
     356 00000034       $C$L1:    
     357 00000034 FF2F          MOV       ACC,#32512 << 15      ; [CPU_] |110| 
         00000035 7F00 
     358 00000036 1E42          MOVL      *-SP[2],ACC           ; [CPU_] |110| 
     359 00000037 0644          MOVL      ACC,*-SP[4]           ; [CPU_] |110| 
     360              $C$DW$61        .dwtag  DW_TAG_TI_branch
     361                      .dwattr $C$DW$61, DW_AT_low_pc(0x00)
     362                      .dwattr $C$DW$61, DW_AT_name("FS$$ADD")
     363                      .dwattr $C$DW$61, DW_AT_TI_call
     364 00000038 7640!         LCR       #FS$$ADD              ; [CPU_] |110| 
         00000039 0000 
     365                      ; call occurs [#FS$$ADD] ; [] |110| 
     366 0000003a       $C$L2:    
     367                      .dwpsn  file "C:/ti/motorware/motorware_1_01_00_18/sw/modules/user/src/32b/user.c",line 842,column 17
     368              $C$DW$62        .dwtag  DW_TAG_TI_branch
     369                      .dwattr $C$DW$62, DW_AT_low_pc(0x00)
     370                      .dwattr $C$DW$62, DW_AT_name("FS$$TOI")
     371                      .dwattr $C$DW$62, DW_AT_TI_call
TMS320C2000 Assembler PC v6.2.5 Mon Jun 19 18:10:37 2017

Tools Copyright (c) 1996-2014 Texas Instruments Incorporated
C:\Users\wmj\AppData\Local\Temp\1992810                              PAGE    8

     372 0000003a 7640!         LCR       #FS$$TOI              ; [CPU_] |842| 
         0000003b 0000 
     373                      ; call occurs [#FS$$TOI] ; [] |842| 
     374 0000003c 964D          MOV       *-SP[13],AL           ; [CPU_] |842| 
     375              $C$DW$63        .dwtag  DW_TAG_TI_branch
     376                      .dwattr $C$DW$63, DW_AT_low_pc(0x00)
     377                      .dwattr $C$DW$63, DW_AT_name("I$$TOFS")
     378                      .dwattr $C$DW$63, DW_AT_TI_call
     379 0000003d 7640!         LCR       #I$$TOFS              ; [CPU_] |842| 
         0000003e 0000 
     380                      ; call occurs [#I$$TOFS] ; [] |842| 
     381 0000003f 1E42          MOVL      *-SP[2],ACC           ; [CPU_] |842| 
     382 00000040 9A00          MOV       AL,#0                 ; [CPU_] |842| 
     383 00000041 28A8          MOV       AH,#16384             ; [CPU_] |842| 
         00000042 4000 
     384              $C$DW$64        .dwtag  DW_TAG_TI_branch
     385                      .dwattr $C$DW$64, DW_AT_low_pc(0x00)
     386                      .dwattr $C$DW$64, DW_AT_name("_pow")
     387                      .dwattr $C$DW$64, DW_AT_TI_call
     388 00000043 7640!         LCR       #_pow                 ; [CPU_] |842| 
         00000044 0000 
     389                      ; call occurs [#_pow] ; [] |842| 
     390 00000045 1EA6          MOVL      XAR6,ACC              ; [CPU_] |842| 
     391 00000046 28A9          MOV       AL,#16696             ; [CPU_] |842| 
         00000047 4138 
     392 00000048 28A8          MOV       AH,#15619             ; [CPU_] |842| 
         00000049 3D03 
     393 0000004a 1E42          MOVL      *-SP[2],ACC           ; [CPU_] |842| 
     394 0000004b 06A6          MOVL      ACC,XAR6              ; [CPU_] |842| 
     395              $C$DW$65        .dwtag  DW_TAG_TI_branch
     396                      .dwattr $C$DW$65, DW_AT_low_pc(0x00)
     397                      .dwattr $C$DW$65, DW_AT_name("FS$$MPY")
     398                      .dwattr $C$DW$65, DW_AT_TI_call
     399 0000004c 7640!         LCR       #FS$$MPY              ; [CPU_] |842| 
         0000004d 0000 
     400                      ; call occurs [#FS$$MPY] ; [] |842| 
     401                      .dwpsn  file "C:/ti/motorware/motorware_1_01_00_18/sw/modules/user/src/32b/user.c",line 844,column 15
     402 0000004e D08A          MOVB      XAR0,#138             ; [CPU_] |844| 
     403                      .dwpsn  file "C:/ti/motorware/motorware_1_01_00_18/sw/modules/user/src/32b/user.c",line 842,column 17
     404 0000004f 8BA9          MOVL      XAR1,ACC              ; [CPU_] |842| 
     405                      .dwpsn  file "C:/ti/motorware/motorware_1_01_00_18/sw/modules/user/src/32b/user.c",line 844,column 15
     406 00000050 1E42          MOVL      *-SP[2],ACC           ; [CPU_] |844| 
     407 00000051 0693          MOVL      ACC,*+XAR3[AR0]       ; [CPU_] |844| 
     408              $C$DW$66        .dwtag  DW_TAG_TI_branch
     409                      .dwattr $C$DW$66, DW_AT_low_pc(0x00)
     410                      .dwattr $C$DW$66, DW_AT_name("FS$$DIV")
     411                      .dwattr $C$DW$66, DW_AT_TI_call
     412 00000052 7640!         LCR       #FS$$DIV              ; [CPU_] |844| 
         00000053 0000 
     413                      ; call occurs [#FS$$DIV] ; [] |844| 
     414 00000054 88AD          MOVZ      AR6,SP                ; [CPU_U] |844| 
     415 00000055 DE8C          SUBB      XAR6,#12              ; [CPU_U] |844| 
     416              $C$DW$67        .dwtag  DW_TAG_TI_branch
     417                      .dwattr $C$DW$67, DW_AT_low_pc(0x00)
     418                      .dwattr $C$DW$67, DW_AT_name("FS$$TOFD")
TMS320C2000 Assembler PC v6.2.5 Mon Jun 19 18:10:37 2017

Tools Copyright (c) 1996-2014 Texas Instruments Incorporated
C:\Users\wmj\AppData\Local\Temp\1992810                              PAGE    9

     419                      .dwattr $C$DW$67, DW_AT_TI_call
     420 00000056 7640!         LCR       #FS$$TOFD             ; [CPU_] |844| 
         00000057 0000 
     421                      ; call occurs [#FS$$TOFD] ; [] |844| 
     422 00000058 5CAD          MOVZ      AR4,SP                ; [CPU_U] |844| 
     423 00000059 88AD          MOVZ      AR6,SP                ; [CPU_U] |844| 
     424 0000005a 8F40+         MOVL      XAR5,#$C$FL1          ; [CPU_U] |844| 
         0000005b 0000 
     425 0000005c DC8C          SUBB      XAR4,#12              ; [CPU_U] |844| 
     426 0000005d DE88          SUBB      XAR6,#8               ; [CPU_U] |844| 
     427              $C$DW$68        .dwtag  DW_TAG_TI_branch
     428                      .dwattr $C$DW$68, DW_AT_low_pc(0x00)
     429                      .dwattr $C$DW$68, DW_AT_name("FD$$MPY")
     430                      .dwattr $C$DW$68, DW_AT_TI_call
     431 0000005e 7640!         LCR       #FD$$MPY              ; [CPU_] |844| 
         0000005f 0000 
     432                      ; call occurs [#FD$$MPY] ; [] |844| 
     433 00000060 5CAD          MOVZ      AR4,SP                ; [CPU_U] |844| 
     434 00000061 DC88          SUBB      XAR4,#8               ; [CPU_U] |844| 
     435              $C$DW$69        .dwtag  DW_TAG_TI_branch
     436                      .dwattr $C$DW$69, DW_AT_low_pc(0x00)
     437                      .dwattr $C$DW$69, DW_AT_name("FD$$TOL")
     438                      .dwattr $C$DW$69, DW_AT_TI_call
     439 00000062 7640!         LCR       #FD$$TOL              ; [CPU_] |844| 
         00000063 0000 
     440                      ; call occurs [#FD$$TOL] ; [] |844| 
     441                      .dwpsn  file "C:/ti/motorware/motorware_1_01_00_18/sw/modules/user/src/32b/user.c",line 848,column 3,
     442 00000064 D088          MOVB      XAR0,#136             ; [CPU_] |848| 
     443                      .dwpsn  file "C:/ti/motorware/motorware_1_01_00_18/sw/modules/user/src/32b/user.c",line 844,column 15
     444 00000065 86A9          MOVL      XAR2,ACC              ; [CPU_] |844| 
     445                      .dwpsn  file "C:/ti/motorware/motorware_1_01_00_18/sw/modules/user/src/32b/user.c",line 848,column 3,
     446 00000066 B242          MOVL      *-SP[2],XAR1          ; [CPU_] |848| 
     447 00000067 0693          MOVL      ACC,*+XAR3[AR0]       ; [CPU_] |848| 
     448              $C$DW$70        .dwtag  DW_TAG_TI_branch
     449                      .dwattr $C$DW$70, DW_AT_low_pc(0x00)
     450                      .dwattr $C$DW$70, DW_AT_name("FS$$DIV")
     451                      .dwattr $C$DW$70, DW_AT_TI_call
     452 00000068 7640!         LCR       #FS$$DIV              ; [CPU_] |848| 
         00000069 0000 
     453                      ; call occurs [#FS$$DIV] ; [] |848| 
     454 0000006a 88AD          MOVZ      AR6,SP                ; [CPU_U] |848| 
     455 0000006b DE8C          SUBB      XAR6,#12              ; [CPU_U] |848| 
     456              $C$DW$71        .dwtag  DW_TAG_TI_branch
     457                      .dwattr $C$DW$71, DW_AT_low_pc(0x00)
     458                      .dwattr $C$DW$71, DW_AT_name("FS$$TOFD")
     459                      .dwattr $C$DW$71, DW_AT_TI_call
     460 0000006c 7640!         LCR       #FS$$TOFD             ; [CPU_] |848| 
         0000006d 0000 
     461                      ; call occurs [#FS$$TOFD] ; [] |848| 
     462 0000006e 5CAD          MOVZ      AR4,SP                ; [CPU_U] |848| 
     463 0000006f 88AD          MOVZ      AR6,SP                ; [CPU_U] |848| 
     464 00000070 8F40+         MOVL      XAR5,#$C$FL1          ; [CPU_U] |848| 
         00000071 0000 
     465 00000072 DC8C          SUBB      XAR4,#12              ; [CPU_U] |848| 
     466 00000073 DE88          SUBB      XAR6,#8               ; [CPU_U] |848| 
TMS320C2000 Assembler PC v6.2.5 Mon Jun 19 18:10:37 2017

Tools Copyright (c) 1996-2014 Texas Instruments Incorporated
C:\Users\wmj\AppData\Local\Temp\1992810                              PAGE   10

     467              $C$DW$72        .dwtag  DW_TAG_TI_branch
     468                      .dwattr $C$DW$72, DW_AT_low_pc(0x00)
     469                      .dwattr $C$DW$72, DW_AT_name("FD$$MPY")
     470                      .dwattr $C$DW$72, DW_AT_TI_call
     471 00000074 7640!         LCR       #FD$$MPY              ; [CPU_] |848| 
         00000075 0000 
     472                      ; call occurs [#FD$$MPY] ; [] |848| 
     473 00000076 5CAD          MOVZ      AR4,SP                ; [CPU_U] |848| 
     474 00000077 DC88          SUBB      XAR4,#8               ; [CPU_U] |848| 
     475              $C$DW$73        .dwtag  DW_TAG_TI_branch
     476                      .dwattr $C$DW$73, DW_AT_low_pc(0x00)
     477                      .dwattr $C$DW$73, DW_AT_name("FD$$TOL")
     478                      .dwattr $C$DW$73, DW_AT_TI_call
     479 00000078 7640!         LCR       #FD$$TOL              ; [CPU_] |848| 
         00000079 0000 
     480                      ; call occurs [#FD$$TOL] ; [] |848| 
     481 0000007a D018          MOVB      XAR0,#24              ; [CPU_] |848| 
     482 0000007b 8A93          MOVL      XAR4,*+XAR3[AR0]      ; [CPU_] |848| 
     483              $C$DW$74        .dwtag  DW_TAG_TI_branch
     484                      .dwattr $C$DW$74, DW_AT_low_pc(0x00)
     485                      .dwattr $C$DW$74, DW_AT_name("_EST_setLs_d_pu")
     486                      .dwattr $C$DW$74, DW_AT_TI_call
     487 0000007c 7640!         LCR       #_EST_setLs_d_pu      ; [CPU_] |848| 
         0000007d 0000 
     488                      ; call occurs [#_EST_setLs_d_pu] ; [] |848| 
     489                      .dwpsn  file "C:/ti/motorware/motorware_1_01_00_18/sw/modules/user/src/32b/user.c",line 849,column 3,
     490 0000007e D018          MOVB      XAR0,#24              ; [CPU_] |849| 
     491 0000007f AAA9          MOVL      ACC,XAR2              ; [CPU_] |849| 
     492 00000080 8A93          MOVL      XAR4,*+XAR3[AR0]      ; [CPU_] |849| 
     493              $C$DW$75        .dwtag  DW_TAG_TI_branch
     494                      .dwattr $C$DW$75, DW_AT_low_pc(0x00)
     495                      .dwattr $C$DW$75, DW_AT_name("_EST_setLs_q_pu")
     496                      .dwattr $C$DW$75, DW_AT_TI_call
     497 00000081 7640!         LCR       #_EST_setLs_q_pu      ; [CPU_] |849| 
         00000082 0000 
     498                      ; call occurs [#_EST_setLs_q_pu] ; [] |849| 
     499                      .dwpsn  file "C:/ti/motorware/motorware_1_01_00_18/sw/modules/user/src/32b/user.c",line 850,column 3,
     500 00000083 9A1E          MOVB      AL,#30                ; [CPU_] |850| 
     501 00000084 9E4D          SUB       AL,*-SP[13]           ; [CPU_] |850| 
     502 00000085 D018          MOVB      XAR0,#24              ; [CPU_] |850| 
     503 00000086 8A93          MOVL      XAR4,*+XAR3[AR0]      ; [CPU_] |850| 
     504              $C$DW$76        .dwtag  DW_TAG_TI_branch
     505                      .dwattr $C$DW$76, DW_AT_low_pc(0x00)
     506                      .dwattr $C$DW$76, DW_AT_name("_EST_setLs_qFmt")
     507                      .dwattr $C$DW$76, DW_AT_TI_call
     508 00000087 7640!         LCR       #_EST_setLs_qFmt      ; [CPU_] |850| 
         00000088 0000 
     509                      ; call occurs [#_EST_setLs_qFmt] ; [] |850| 
     510 00000089 FE8E          SUBB      SP,#14                ; [CPU_U] 
     511                      .dwcfi  cfa_offset, -8
     512 0000008a 82BE          MOVL      XAR3,*--SP            ; [CPU_] 
     513                      .dwcfi  cfa_offset, -6
     514                      .dwcfi  restore_reg, 11
     515 0000008b 86BE          MOVL      XAR2,*--SP            ; [CPU_] 
     516                      .dwcfi  cfa_offset, -4
TMS320C2000 Assembler PC v6.2.5 Mon Jun 19 18:10:37 2017

Tools Copyright (c) 1996-2014 Texas Instruments Incorporated
C:\Users\wmj\AppData\Local\Temp\1992810                              PAGE   11

     517                      .dwcfi  restore_reg, 9
     518 0000008c 8BBE          MOVL      XAR1,*--SP            ; [CPU_] 
     519                      .dwcfi  cfa_offset, -2
     520                      .dwcfi  restore_reg, 7
     521              $C$DW$77        .dwtag  DW_TAG_TI_branch
     522                      .dwattr $C$DW$77, DW_AT_low_pc(0x00)
     523                      .dwattr $C$DW$77, DW_AT_TI_return
     524 0000008d 0006          LRETR     ; [CPU_] 
     525                      ; return occurs ; [] 
     526                      .dwattr $C$DW$44, DW_AT_TI_end_file("C:/ti/motorware/motorware_1_01_00_18/sw/modules/user/src/32b/use
     527                      .dwattr $C$DW$44, DW_AT_TI_end_line(0x355)
     528                      .dwattr $C$DW$44, DW_AT_TI_end_column(0x01)
     529                      .dwendentry
     530                      .dwendtag $C$DW$44
     531              
     532 0000008e               .sect   ".text"
     533                      .clink
     534                      .global _USER_setParams
     535              
     536              $C$DW$78        .dwtag  DW_TAG_subprogram, DW_AT_name("USER_setParams")
     537                      .dwattr $C$DW$78, DW_AT_low_pc(_USER_setParams)
     538                      .dwattr $C$DW$78, DW_AT_high_pc(0x00)
     539                      .dwattr $C$DW$78, DW_AT_TI_symbol_name("_USER_setParams")
     540                      .dwattr $C$DW$78, DW_AT_external
     541                      .dwattr $C$DW$78, DW_AT_TI_begin_file("C:/ti/motorware/motorware_1_01_00_18/sw/modules/user/src/32b/u
     542                      .dwattr $C$DW$78, DW_AT_TI_begin_line(0x39)
     543                      .dwattr $C$DW$78, DW_AT_TI_begin_column(0x06)
     544                      .dwattr $C$DW$78, DW_AT_TI_max_frame_size(-2)
     545                      .dwpsn  file "C:/ti/motorware/motorware_1_01_00_18/sw/modules/user/src/32b/user.c",line 58,column 1,i
     546              
     547                      .dwfde $C$DW$CIE, _USER_setParams
     548              $C$DW$79        .dwtag  DW_TAG_formal_parameter, DW_AT_name("pUserParams")
     549                      .dwattr $C$DW$79, DW_AT_TI_symbol_name("_pUserParams")
     550                      .dwattr $C$DW$79, DW_AT_type(*$C$DW$T$79)
     551                      .dwattr $C$DW$79, DW_AT_location[DW_OP_reg12]
     552              
     553              ;***************************************************************
     554              ;* FNAME: _USER_setParams               FR SIZE:   0           *
     555              ;*                                                             *
     556              ;* FUNCTION ENVIRONMENT                                        *
     557              ;*                                                             *
     558              ;* FUNCTION PROPERTIES                                         *
     559              ;*                            0 Parameter,  0 Auto,  0 SOE     *
     560              ;***************************************************************
     561              
     562              _USER_setParams:
     563              ;* AR5   assigned to $O$C1
     564              ;* AR5   assigned to $O$C2
     565              ;* AR5   assigned to $O$C3
     566              ;* AR5   assigned to $O$C4
     567              ;* AR5   assigned to $O$C5
     568              ;* AR4   assigned to _pUserParams
     569              $C$DW$80        .dwtag  DW_TAG_variable, DW_AT_name("pUserParams")
     570                      .dwattr $C$DW$80, DW_AT_TI_symbol_name("_pUserParams")
     571                      .dwattr $C$DW$80, DW_AT_type(*$C$DW$T$90)
TMS320C2000 Assembler PC v6.2.5 Mon Jun 19 18:10:37 2017

Tools Copyright (c) 1996-2014 Texas Instruments Incorporated
C:\Users\wmj\AppData\Local\Temp\1992810                              PAGE   12

     572                      .dwattr $C$DW$80, DW_AT_location[DW_OP_reg12]
     573                      .dwcfi  cfa_offset, -2
     574                      .dwcfi  save_reg_to_mem, 26, 0
     575                      .dwcfi  save_reg_to_reg, 78, 26
     576                      .dwpsn  file "C:/ti/motorware/motorware_1_01_00_18/sw/modules/user/src/32b/user.c",line 59,column 3,i
     577 0000008e 9A00          MOV       AL,#0                 ; [CPU_] |59| 
     578 0000008f 28A8          MOV       AH,#16576             ; [CPU_] |59| 
         00000090 40C0 
     579 00000091 1EC4          MOVL      *+XAR4[0],ACC         ; [CPU_] |59| 
     580                      .dwpsn  file "C:/ti/motorware/motorware_1_01_00_18/sw/modules/user/src/32b/user.c",line 60,column 3,i
     581 00000092 28A8          MOV       AH,#17377             ; [CPU_] |60| 
         00000093 43E1 
     582                      .dwpsn  file "C:/ti/motorware/motorware_1_01_00_18/sw/modules/user/src/32b/user.c",line 66,column 3,i
     583 00000094 D008          MOVB      XAR0,#8               ; [CPU_] |66| 
     584                      .dwpsn  file "C:/ti/motorware/motorware_1_01_00_18/sw/modules/user/src/32b/user.c",line 60,column 3,i
     585 00000095 1ED4          MOVL      *+XAR4[2],ACC         ; [CPU_] |60| 
     586                      .dwpsn  file "C:/ti/motorware/motorware_1_01_00_18/sw/modules/user/src/32b/user.c",line 139,column 3,
     587 00000096 83A4          MOVL      XAR5,XAR4             ; [CPU_] |139| 
     588                      .dwpsn  file "C:/ti/motorware/motorware_1_01_00_18/sw/modules/user/src/32b/user.c",line 62,column 3,i
     589 00000097 28A8          MOV       AH,#17096             ; [CPU_] |62| 
         00000098 42C8 
     590 00000099 1EE4          MOVL      *+XAR4[4],ACC         ; [CPU_] |62| 
     591                      .dwpsn  file "C:/ti/motorware/motorware_1_01_00_18/sw/modules/user/src/32b/user.c",line 64,column 3,i
     592 0000009a 56BF          MOVB      *+XAR4[6],#1,UNC      ; [CPU_] |64| 
         0000009b 01F4 
     593                      .dwpsn  file "C:/ti/motorware/motorware_1_01_00_18/sw/modules/user/src/32b/user.c",line 65,column 3,i
     594 0000009c 56BF          MOVB      *+XAR4[7],#1,UNC      ; [CPU_] |65| 
         0000009d 01FC 
     595                      .dwpsn  file "C:/ti/motorware/motorware_1_01_00_18/sw/modules/user/src/32b/user.c",line 73,column 3,i
     596 0000009e 28A8          MOV       AH,#16800             ; [CPU_] |73| 
         0000009f 41A0 
     597                      .dwpsn  file "C:/ti/motorware/motorware_1_01_00_18/sw/modules/user/src/32b/user.c",line 66,column 3,i
     598 000000a0 56BF          MOVB      *+XAR4[AR0],#1,UNC    ; [CPU_] |66| 
         000000a1 0194 
     599                      .dwpsn  file "C:/ti/motorware/motorware_1_01_00_18/sw/modules/user/src/32b/user.c",line 67,column 3,i
     600 000000a2 D009          MOVB      XAR0,#9               ; [CPU_] |67| 
     601 000000a3 56BF          MOVB      *+XAR4[AR0],#15,UNC   ; [CPU_] |67| 
         000000a4 0F94 
     602                      .dwpsn  file "C:/ti/motorware/motorware_1_01_00_18/sw/modules/user/src/32b/user.c",line 68,column 3,i
     603 000000a5 D00A          MOVB      XAR0,#10              ; [CPU_] |68| 
     604 000000a6 56BF          MOVB      *+XAR4[AR0],#15,UNC   ; [CPU_] |68| 
         000000a7 0F94 
     605                      .dwpsn  file "C:/ti/motorware/motorware_1_01_00_18/sw/modules/user/src/32b/user.c",line 70,column 3,i
     606 000000a8 D00B          MOVB      XAR0,#11              ; [CPU_] |70| 
     607 000000a9 56BF          MOVB      *+XAR4[AR0],#3,UNC    ; [CPU_] |70| 
         000000aa 0394 
     608                      .dwpsn  file "C:/ti/motorware/motorware_1_01_00_18/sw/modules/user/src/32b/user.c",line 71,column 3,i
     609 000000ab D00C          MOVB      XAR0,#12              ; [CPU_] |71| 
     610                      .dwpsn  file "C:/ti/motorware/motorware_1_01_00_18/sw/modules/user/src/32b/user.c",line 141,column 3,
     611 000000ac 7681          MOVL      XAR6,#75000           ; [CPU_U] |141| 
         000000ad 24F8 
     612                      .dwpsn  file "C:/ti/motorware/motorware_1_01_00_18/sw/modules/user/src/32b/user.c",line 71,column 3,i
     613 000000ae 56BF          MOVB      *+XAR4[AR0],#3,UNC    ; [CPU_] |71| 
         000000af 0394 
     614                      .dwpsn  file "C:/ti/motorware/motorware_1_01_00_18/sw/modules/user/src/32b/user.c",line 73,column 3,i
TMS320C2000 Assembler PC v6.2.5 Mon Jun 19 18:10:37 2017

Tools Copyright (c) 1996-2014 Texas Instruments Incorporated
C:\Users\wmj\AppData\Local\Temp\1992810                              PAGE   13

     615 000000b0 D00E          MOVB      XAR0,#14              ; [CPU_] |73| 
     616                      .dwpsn  file "C:/ti/motorware/motorware_1_01_00_18/sw/modules/user/src/32b/user.c",line 139,column 3,
     617 000000b1 DD54          ADDB      XAR5,#84              ; [CPU_] |139| 
     618                      .dwpsn  file "C:/ti/motorware/motorware_1_01_00_18/sw/modules/user/src/32b/user.c",line 73,column 3,i
     619 000000b2 1E94          MOVL      *+XAR4[AR0],ACC       ; [CPU_] |73| 
     620                      .dwpsn  file "C:/ti/motorware/motorware_1_01_00_18/sw/modules/user/src/32b/user.c",line 74,column 3,i
     621 000000b3 D010          MOVB      XAR0,#16              ; [CPU_] |74| 
     622 000000b4 28A8          MOV       AH,#17096             ; [CPU_] |74| 
         000000b5 42C8 
     623 000000b6 1E94          MOVL      *+XAR4[AR0],ACC       ; [CPU_] |74| 
     624                      .dwpsn  file "C:/ti/motorware/motorware_1_01_00_18/sw/modules/user/src/32b/user.c",line 76,column 3,i
     625 000000b7 D012          MOVB      XAR0,#18              ; [CPU_] |76| 
     626 000000b8 28A8          MOV       AH,#15267             ; [CPU_] |76| 
         000000b9 3BA3 
     627 000000ba 28A9          MOV       AL,#55050             ; [CPU_] |76| 
         000000bb D70A 
     628 000000bc 1E94          MOVL      *+XAR4[AR0],ACC       ; [CPU_] |76| 
     629                      .dwpsn  file "C:/ti/motorware/motorware_1_01_00_18/sw/modules/user/src/32b/user.c",line 78,column 3,i
     630 000000bd D014          MOVB      XAR0,#20              ; [CPU_] |78| 
     631 000000be FF2F          MOV       ACC,#32512 << 15      ; [CPU_] |78| 
         000000bf 7F00 
     632 000000c0 1E94          MOVL      *+XAR4[AR0],ACC       ; [CPU_] |78| 
     633                      .dwpsn  file "C:/ti/motorware/motorware_1_01_00_18/sw/modules/user/src/32b/user.c",line 80,column 3,i
     634 000000c1 D016          MOVB      XAR0,#22              ; [CPU_] |80| 
     635 000000c2 9A00          MOV       AL,#0                 ; [CPU_] |80| 
     636 000000c3 28A8          MOV       AH,#16800             ; [CPU_] |80| 
         000000c4 41A0 
     637 000000c5 1E94          MOVL      *+XAR4[AR0],ACC       ; [CPU_] |80| 
     638                      .dwpsn  file "C:/ti/motorware/motorware_1_01_00_18/sw/modules/user/src/32b/user.c",line 82,column 3,i
     639 000000c6 D018          MOVB      XAR0,#24              ; [CPU_] |82| 
     640 000000c7 28A8          MOV       AH,#16384             ; [CPU_] |82| 
         000000c8 4000 
     641 000000c9 1E94          MOVL      *+XAR4[AR0],ACC       ; [CPU_] |82| 
     642                      .dwpsn  file "C:/ti/motorware/motorware_1_01_00_18/sw/modules/user/src/32b/user.c",line 84,column 3,i
     643 000000ca D01A          MOVB      XAR0,#26              ; [CPU_] |84| 
     644 000000cb 28A8          MOV       AH,#16576             ; [CPU_] |84| 
         000000cc 40C0 
     645 000000cd 1E94          MOVL      *+XAR4[AR0],ACC       ; [CPU_] |84| 
     646                      .dwpsn  file "C:/ti/motorware/motorware_1_01_00_18/sw/modules/user/src/32b/user.c",line 86,column 3,i
     647 000000ce D01C          MOVB      XAR0,#28              ; [CPU_] |86| 
     648 000000cf 28A8          MOV       AH,#17096             ; [CPU_] |86| 
         000000d0 42C8 
     649 000000d1 1E94          MOVL      *+XAR4[AR0],ACC       ; [CPU_] |86| 
     650                      .dwpsn  file "C:/ti/motorware/motorware_1_01_00_18/sw/modules/user/src/32b/user.c",line 88,column 3,i
     651 000000d2 D01E          MOVB      XAR0,#30              ; [CPU_] |88| 
     652 000000d3 1E94          MOVL      *+XAR4[AR0],ACC       ; [CPU_] |88| 
     653                      .dwpsn  file "C:/ti/motorware/motorware_1_01_00_18/sw/modules/user/src/32b/user.c",line 90,column 3,i
     654 000000d4 D020          MOVB      XAR0,#32              ; [CPU_] |90| 
     655 000000d5 FF2F          MOV       ACC,#32512 << 15      ; [CPU_] |90| 
         000000d6 7F00 
     656 000000d7 1E94          MOVL      *+XAR4[AR0],ACC       ; [CPU_] |90| 
     657                      .dwpsn  file "C:/ti/motorware/motorware_1_01_00_18/sw/modules/user/src/32b/user.c",line 92,column 3,i
     658 000000d8 D022          MOVB      XAR0,#34              ; [CPU_] |92| 
     659 000000d9 1E94          MOVL      *+XAR4[AR0],ACC       ; [CPU_] |92| 
     660                      .dwpsn  file "C:/ti/motorware/motorware_1_01_00_18/sw/modules/user/src/32b/user.c",line 94,column 3,i
TMS320C2000 Assembler PC v6.2.5 Mon Jun 19 18:10:37 2017

Tools Copyright (c) 1996-2014 Texas Instruments Incorporated
C:\Users\wmj\AppData\Local\Temp\1992810                              PAGE   14

     661 000000da D026          MOVB      XAR0,#38              ; [CPU_] |94| 
     662                      .dwpsn  file "C:/ti/motorware/motorware_1_01_00_18/sw/modules/user/src/32b/user.c",line 96,column 3,i
     663 000000db 28A9          MOV       AL,#21845             ; [CPU_] |96| 
         000000dc 5555 
     664 000000dd 28A8          MOV       AH,#17029             ; [CPU_] |96| 
         000000de 4285 
     665                      .dwpsn  file "C:/ti/motorware/motorware_1_01_00_18/sw/modules/user/src/32b/user.c",line 94,column 3,i
     666 000000df 56BF          MOVB      *+XAR4[AR0],#60,UNC   ; [CPU_] |94| 
         000000e0 3C94 
     667                      .dwpsn  file "C:/ti/motorware/motorware_1_01_00_18/sw/modules/user/src/32b/user.c",line 96,column 3,i
     668 000000e1 D028          MOVB      XAR0,#40              ; [CPU_] |96| 
     669 000000e2 1E94          MOVL      *+XAR4[AR0],ACC       ; [CPU_] |96| 
     670                      .dwpsn  file "C:/ti/motorware/motorware_1_01_00_18/sw/modules/user/src/32b/user.c",line 98,column 3,i
     671 000000e3 D02A          MOVB      XAR0,#42              ; [CPU_] |98| 
     672 000000e4 28A9          MOV       AL,#1107              ; [CPU_] |98| 
         000000e5 0453 
     673 000000e6 28A8          MOV       AH,#16233             ; [CPU_] |98| 
         000000e7 3F69 
     674 000000e8 1E94          MOVL      *+XAR4[AR0],ACC       ; [CPU_] |98| 
     675                      .dwpsn  file "C:/ti/motorware/motorware_1_01_00_18/sw/modules/user/src/32b/user.c",line 100,column 3,
     676 000000e9 D02C          MOVB      XAR0,#44              ; [CPU_] |100| 
     677 000000ea 28A9          MOV       AL,#18351             ; [CPU_] |100| 
         000000eb 47AF 
     678 000000ec 28A8          MOV       AH,#16369             ; [CPU_] |100| 
         000000ed 3FF1 
     679 000000ee 1E94          MOVL      *+XAR4[AR0],ACC       ; [CPU_] |100| 
     680                      .dwpsn  file "C:/ti/motorware/motorware_1_01_00_18/sw/modules/user/src/32b/user.c",line 102,column 3,
     681 000000ef D02E          MOVB      XAR0,#46              ; [CPU_] |102| 
     682 000000f0 28A9          MOV       AL,#18377             ; [CPU_] |102| 
         000000f1 47C9 
     683 000000f2 28A8          MOV       AH,#17682             ; [CPU_] |102| 
         000000f3 4512 
     684 000000f4 1E94          MOVL      *+XAR4[AR0],ACC       ; [CPU_] |102| 
     685                      .dwpsn  file "C:/ti/motorware/motorware_1_01_00_18/sw/modules/user/src/32b/user.c",line 104,column 3,
     686 000000f5 D030          MOVB      XAR0,#48              ; [CPU_] |104| 
     687 000000f6 FF2F          MOV       ACC,#32256 << 15      ; [CPU_] |104| 
         000000f7 7E00 
     688 000000f8 1E94          MOVL      *+XAR4[AR0],ACC       ; [CPU_] |104| 
     689                      .dwpsn  file "C:/ti/motorware/motorware_1_01_00_18/sw/modules/user/src/32b/user.c",line 106,column 3,
     690 000000f9 D032          MOVB      XAR0,#50              ; [CPU_] |106| 
     691 000000fa FF2F          MOV       ACC,#32640 << 15      ; [CPU_] |106| 
         000000fb 7F80 
     692 000000fc 1E94          MOVL      *+XAR4[AR0],ACC       ; [CPU_] |106| 
     693                      .dwpsn  file "C:/ti/motorware/motorware_1_01_00_18/sw/modules/user/src/32b/user.c",line 108,column 3,
     694 000000fd D034          MOVB      XAR0,#52              ; [CPU_] |108| 
     695                      .dwpsn  file "C:/ti/motorware/motorware_1_01_00_18/sw/modules/user/src/32b/user.c",line 110,column 3,
     696 000000fe 28A9          MOV       AL,#23342             ; [CPU_] |110| 
         000000ff 5B2E 
     697 00000100 28A8          MOV       AH,#16054             ; [CPU_] |110| 
         00000101 3EB6 
     698                      .dwpsn  file "C:/ti/motorware/motorware_1_01_00_18/sw/modules/user/src/32b/user.c",line 108,column 3,
     699 00000102 56BF          MOVB      *+XAR4[AR0],#1,UNC    ; [CPU_] |108| 
         00000103 0194 
     700                      .dwpsn  file "C:/ti/motorware/motorware_1_01_00_18/sw/modules/user/src/32b/user.c",line 109,column 3,
     701 00000104 D035          MOVB      XAR0,#53              ; [CPU_] |109| 
TMS320C2000 Assembler PC v6.2.5 Mon Jun 19 18:10:37 2017

Tools Copyright (c) 1996-2014 Texas Instruments Incorporated
C:\Users\wmj\AppData\Local\Temp\1992810                              PAGE   15

     702 00000105 56BF          MOVB      *+XAR4[AR0],#2,UNC    ; [CPU_] |109| 
         00000106 0294 
     703                      .dwpsn  file "C:/ti/motorware/motorware_1_01_00_18/sw/modules/user/src/32b/user.c",line 110,column 3,
     704 00000107 D036          MOVB      XAR0,#54              ; [CPU_] |110| 
     705 00000108 1E94          MOVL      *+XAR4[AR0],ACC       ; [CPU_] |110| 
     706                      .dwpsn  file "C:/ti/motorware/motorware_1_01_00_18/sw/modules/user/src/32b/user.c",line 111,column 3,
     707 00000109 D038          MOVB      XAR0,#56              ; [CPU_] |111| 
     708 0000010a 9A00          MOV       AL,#0                 ; [CPU_] |111| 
     709 0000010b 9B00          MOV       AH,#0                 ; [CPU_] |111| 
     710 0000010c 1E94          MOVL      *+XAR4[AR0],ACC       ; [CPU_] |111| 
     711                      .dwpsn  file "C:/ti/motorware/motorware_1_01_00_18/sw/modules/user/src/32b/user.c",line 112,column 3,
     712 0000010d D03A          MOVB      XAR0,#58              ; [CPU_] |112| 
     713 0000010e 28A9          MOV       AL,#29492             ; [CPU_] |112| 
         0000010f 7334 
     714 00000110 28A8          MOV       AH,#16552             ; [CPU_] |112| 
         00000111 40A8 
     715 00000112 1E94          MOVL      *+XAR4[AR0],ACC       ; [CPU_] |112| 
     716                      .dwpsn  file "C:/ti/motorware/motorware_1_01_00_18/sw/modules/user/src/32b/user.c",line 113,column 3,
     717 00000113 D03C          MOVB      XAR0,#60              ; [CPU_] |113| 
     718 00000114 28A9          MOV       AL,#9432              ; [CPU_] |113| 
         00000115 24D8 
     719 00000116 28A8          MOV       AH,#15270             ; [CPU_] |113| 
         00000117 3BA6 
     720 00000118 1E94          MOVL      *+XAR4[AR0],ACC       ; [CPU_] |113| 
     721                      .dwpsn  file "C:/ti/motorware/motorware_1_01_00_18/sw/modules/user/src/32b/user.c",line 114,column 3,
     722 00000119 D03E          MOVB      XAR0,#62              ; [CPU_] |114| 
     723 0000011a 1E94          MOVL      *+XAR4[AR0],ACC       ; [CPU_] |114| 
     724                      .dwpsn  file "C:/ti/motorware/motorware_1_01_00_18/sw/modules/user/src/32b/user.c",line 122,column 7,
     725 0000011b D024          MOVB      XAR0,#36              ; [CPU_] |122| 
     726 0000011c FF2F          MOV       ACC,#32512 << 15      ; [CPU_] |122| 
         0000011d 7F00 
     727 0000011e 1E94          MOVL      *+XAR4[AR0],ACC       ; [CPU_] |122| 
     728                      .dwpsn  file "C:/ti/motorware/motorware_1_01_00_18/sw/modules/user/src/32b/user.c",line 125,column 3,
     729 0000011f D042          MOVB      XAR0,#66              ; [CPU_] |125| 
     730 00000120 FF2F          MOV       ACC,#32256 << 15      ; [CPU_] |125| 
         00000121 7E00 
     731 00000122 1E94          MOVL      *+XAR4[AR0],ACC       ; [CPU_] |125| 
     732                      .dwpsn  file "C:/ti/motorware/motorware_1_01_00_18/sw/modules/user/src/32b/user.c",line 126,column 3,
     733 00000123 D044          MOVB      XAR0,#68              ; [CPU_] |126| 
     734 00000124 9A00          MOV       AL,#0                 ; [CPU_] |126| 
     735 00000125 28A8          MOV       AH,#48896             ; [CPU_] |126| 
         00000126 BF00 
     736 00000127 1E94          MOVL      *+XAR4[AR0],ACC       ; [CPU_] |126| 
     737                      .dwpsn  file "C:/ti/motorware/motorware_1_01_00_18/sw/modules/user/src/32b/user.c",line 127,column 3,
     738 00000128 D040          MOVB      XAR0,#64              ; [CPU_] |127| 
     739 00000129 28A8          MOV       AH,#16384             ; [CPU_] |127| 
         0000012a 4000 
     740 0000012b 1E94          MOVL      *+XAR4[AR0],ACC       ; [CPU_] |127| 
     741                      .dwpsn  file "C:/ti/motorware/motorware_1_01_00_18/sw/modules/user/src/32b/user.c",line 129,column 3,
     742 0000012c D046          MOVB      XAR0,#70              ; [CPU_] |129| 
     743 0000012d 28A8          MOV       AH,#14510             ; [CPU_] |129| 
         0000012e 38AE 
     744 0000012f 28A9          MOV       AL,#49982             ; [CPU_] |129| 
         00000130 C33E 
     745 00000131 1E94          MOVL      *+XAR4[AR0],ACC       ; [CPU_] |129| 
TMS320C2000 Assembler PC v6.2.5 Mon Jun 19 18:10:37 2017

Tools Copyright (c) 1996-2014 Texas Instruments Incorporated
C:\Users\wmj\AppData\Local\Temp\1992810                              PAGE   16

     746                      .dwpsn  file "C:/ti/motorware/motorware_1_01_00_18/sw/modules/user/src/32b/user.c",line 130,column 3,
     747 00000132 D048          MOVB      XAR0,#72              ; [CPU_] |130| 
     748 00000133 28A9          MOV       AL,#46872             ; [CPU_] |130| 
         00000134 B718 
     749 00000135 28A8          MOV       AH,#14289             ; [CPU_] |130| 
         00000136 37D1 
     750 00000137 1E94          MOVL      *+XAR4[AR0],ACC       ; [CPU_] |130| 
     751                      .dwpsn  file "C:/ti/motorware/motorware_1_01_00_18/sw/modules/user/src/32b/user.c",line 132,column 3,
     752 00000138 D04A          MOVB      XAR0,#74              ; [CPU_] |132| 
     753 00000139 9A00          MOV       AL,#0                 ; [CPU_] |132| 
     754 0000013a 9B00          MOV       AH,#0                 ; [CPU_] |132| 
     755 0000013b 1E94          MOVL      *+XAR4[AR0],ACC       ; [CPU_] |132| 
     756                      .dwpsn  file "C:/ti/motorware/motorware_1_01_00_18/sw/modules/user/src/32b/user.c",line 133,column 3,
     757 0000013c D04E          MOVB      XAR0,#78              ; [CPU_] |133| 
     758 0000013d FF2F          MOV       ACC,#32512 << 15      ; [CPU_] |133| 
         0000013e 7F00 
     759 0000013f 1E94          MOVL      *+XAR4[AR0],ACC       ; [CPU_] |133| 
     760                      .dwpsn  file "C:/ti/motorware/motorware_1_01_00_18/sw/modules/user/src/32b/user.c",line 134,column 3,
     761 00000140 D04C          MOVB      XAR0,#76              ; [CPU_] |134| 
     762 00000141 1E94          MOVL      *+XAR4[AR0],ACC       ; [CPU_] |134| 
     763                      .dwpsn  file "C:/ti/motorware/motorware_1_01_00_18/sw/modules/user/src/32b/user.c",line 135,column 3,
     764 00000142 D050          MOVB      XAR0,#80              ; [CPU_] |135| 
     765 00000143 28A9          MOV       AL,#50604             ; [CPU_] |135| 
         00000144 C5AC 
     766 00000145 28A8          MOV       AH,#14247             ; [CPU_] |135| 
         00000146 37A7 
     767 00000147 1E94          MOVL      *+XAR4[AR0],ACC       ; [CPU_] |135| 
     768                      .dwpsn  file "C:/ti/motorware/motorware_1_01_00_18/sw/modules/user/src/32b/user.c",line 137,column 3,
     769 00000148 D052          MOVB      XAR0,#82              ; [CPU_] |137| 
     770 00000149 9A00          MOV       AL,#0                 ; [CPU_] |137| 
     771 0000014a 28A8          MOV       AH,#16800             ; [CPU_] |137| 
         0000014b 41A0 
     772 0000014c 1E94          MOVL      *+XAR4[AR0],ACC       ; [CPU_] |137| 
     773                      .dwpsn  file "C:/ti/motorware/motorware_1_01_00_18/sw/modules/user/src/32b/user.c",line 139,column 3,
     774 0000014d 0200          MOVB      ACC,#0                ; [CPU_] |139| 
     775 0000014e 1EC5          MOVL      *+XAR5[0],ACC         ; [CPU_] |139| 
     776                      .dwpsn  file "C:/ti/motorware/motorware_1_01_00_18/sw/modules/user/src/32b/user.c",line 140,column 3,
     777 0000014f 1ED5          MOVL      *+XAR5[2],ACC         ; [CPU_] |140| 
     778                      .dwpsn  file "C:/ti/motorware/motorware_1_01_00_18/sw/modules/user/src/32b/user.c",line 141,column 3,
     779 00000150 C2E5          MOVL      *+XAR5[4],XAR6        ; [CPU_] |141| 
     780                      .dwpsn  file "C:/ti/motorware/motorware_1_01_00_18/sw/modules/user/src/32b/user.c",line 142,column 3,
     781 00000151 1EF5          MOVL      *+XAR5[6],ACC         ; [CPU_] |142| 
     782                      .dwpsn  file "C:/ti/motorware/motorware_1_01_00_18/sw/modules/user/src/32b/user.c",line 144,column 3,
     783 00000152 83A4          MOVL      XAR5,XAR4             ; [CPU_] |144| 
     784                      .dwpsn  file "C:/ti/motorware/motorware_1_01_00_18/sw/modules/user/src/32b/user.c",line 146,column 3,
     785 00000153 7681          MOVL      XAR6,#120000          ; [CPU_U] |146| 
         00000154 D4C0 
     786                      .dwpsn  file "C:/ti/motorware/motorware_1_01_00_18/sw/modules/user/src/32b/user.c",line 148,column 3,
     787 00000155 D008          MOVB      XAR0,#8               ; [CPU_] |148| 
     788                      .dwpsn  file "C:/ti/motorware/motorware_1_01_00_18/sw/modules/user/src/32b/user.c",line 144,column 3,
     789 00000156 DD5C          ADDB      XAR5,#92              ; [CPU_] |144| 
     790 00000157 1EC5          MOVL      *+XAR5[0],ACC         ; [CPU_] |144| 
     791                      .dwpsn  file "C:/ti/motorware/motorware_1_01_00_18/sw/modules/user/src/32b/user.c",line 145,column 3,
     792 00000158 1ED5          MOVL      *+XAR5[2],ACC         ; [CPU_] |145| 
     793                      .dwpsn  file "C:/ti/motorware/motorware_1_01_00_18/sw/modules/user/src/32b/user.c",line 146,column 3,
TMS320C2000 Assembler PC v6.2.5 Mon Jun 19 18:10:37 2017

Tools Copyright (c) 1996-2014 Texas Instruments Incorporated
C:\Users\wmj\AppData\Local\Temp\1992810                              PAGE   17

     794 00000159 C2E5          MOVL      *+XAR5[4],XAR6        ; [CPU_] |146| 
     795                      .dwpsn  file "C:/ti/motorware/motorware_1_01_00_18/sw/modules/user/src/32b/user.c",line 148,column 3,
     796 0000015a 7683          MOVL      XAR6,#225000          ; [CPU_U] |148| 
         0000015b 6EE8 
     797                      .dwpsn  file "C:/ti/motorware/motorware_1_01_00_18/sw/modules/user/src/32b/user.c",line 147,column 3,
     798 0000015c 1EF5          MOVL      *+XAR5[6],ACC         ; [CPU_] |147| 
     799                      .dwpsn  file "C:/ti/motorware/motorware_1_01_00_18/sw/modules/user/src/32b/user.c",line 148,column 3,
     800 0000015d C295          MOVL      *+XAR5[AR0],XAR6      ; [CPU_] |148| 
     801                      .dwpsn  file "C:/ti/motorware/motorware_1_01_00_18/sw/modules/user/src/32b/user.c",line 149,column 3,
     802 0000015e D00A          MOVB      XAR0,#10              ; [CPU_] |149| 
     803 0000015f 7686          MOVL      XAR6,#450000          ; [CPU_U] |149| 
         00000160 DDD0 
     804 00000161 C295          MOVL      *+XAR5[AR0],XAR6      ; [CPU_] |149| 
     805                      .dwpsn  file "C:/ti/motorware/motorware_1_01_00_18/sw/modules/user/src/32b/user.c",line 150,column 3,
     806 00000162 D00C          MOVB      XAR0,#12              ; [CPU_] |150| 
     807 00000163 7680          MOVL      XAR6,#3000            ; [CPU_U] |150| 
         00000164 0BB8 
     808 00000165 C295          MOVL      *+XAR5[AR0],XAR6      ; [CPU_] |150| 
     809                      .dwpsn  file "C:/ti/motorware/motorware_1_01_00_18/sw/modules/user/src/32b/user.c",line 151,column 3,
     810 00000166 D00E          MOVB      XAR0,#14              ; [CPU_] |151| 
     811                      .dwpsn  file "C:/ti/motorware/motorware_1_01_00_18/sw/modules/user/src/32b/user.c",line 152,column 3,
     812 00000167 7680          MOVL      XAR6,#30000           ; [CPU_U] |152| 
         00000168 7530 
     813                      .dwpsn  file "C:/ti/motorware/motorware_1_01_00_18/sw/modules/user/src/32b/user.c",line 151,column 3,
     814 00000169 1E95          MOVL      *+XAR5[AR0],ACC       ; [CPU_] |151| 
     815                      .dwpsn  file "C:/ti/motorware/motorware_1_01_00_18/sw/modules/user/src/32b/user.c",line 152,column 3,
     816 0000016a D010          MOVB      XAR0,#16              ; [CPU_] |152| 
     817 0000016b C295          MOVL      *+XAR5[AR0],XAR6      ; [CPU_] |152| 
     818                      .dwpsn  file "C:/ti/motorware/motorware_1_01_00_18/sw/modules/user/src/32b/user.c",line 153,column 3,
     819 0000016c D012          MOVB      XAR0,#18              ; [CPU_] |153| 
     820                      .dwpsn  file "C:/ti/motorware/motorware_1_01_00_18/sw/modules/user/src/32b/user.c",line 155,column 3,
     821 0000016d 7684          MOVL      XAR6,#300000          ; [CPU_U] |155| 
         0000016e 93E0 
     822                      .dwpsn  file "C:/ti/motorware/motorware_1_01_00_18/sw/modules/user/src/32b/user.c",line 153,column 3,
     823 0000016f 1E95          MOVL      *+XAR5[AR0],ACC       ; [CPU_] |153| 
     824                      .dwpsn  file "C:/ti/motorware/motorware_1_01_00_18/sw/modules/user/src/32b/user.c",line 154,column 3,
     825 00000170 D014          MOVB      XAR0,#20              ; [CPU_] |154| 
     826 00000171 1E95          MOVL      *+XAR5[AR0],ACC       ; [CPU_] |154| 
     827                      .dwpsn  file "C:/ti/motorware/motorware_1_01_00_18/sw/modules/user/src/32b/user.c",line 155,column 3,
     828 00000172 D016          MOVB      XAR0,#22              ; [CPU_] |155| 
     829 00000173 C295          MOVL      *+XAR5[AR0],XAR6      ; [CPU_] |155| 
     830                      .dwpsn  file "C:/ti/motorware/motorware_1_01_00_18/sw/modules/user/src/32b/user.c",line 156,column 3,
     831 00000174 D018          MOVB      XAR0,#24              ; [CPU_] |156| 
     832 00000175 1E95          MOVL      *+XAR5[AR0],ACC       ; [CPU_] |156| 
     833                      .dwpsn  file "C:/ti/motorware/motorware_1_01_00_18/sw/modules/user/src/32b/user.c",line 157,column 3,
     834 00000176 D01A          MOVB      XAR0,#26              ; [CPU_] |157| 
     835 00000177 1E95          MOVL      *+XAR5[AR0],ACC       ; [CPU_] |157| 
     836                      .dwpsn  file "C:/ti/motorware/motorware_1_01_00_18/sw/modules/user/src/32b/user.c",line 159,column 3,
     837 00000178 83A4          MOVL      XAR5,XAR4             ; [CPU_] |159| 
     838                      .dwpsn  file "C:/ti/motorware/motorware_1_01_00_18/sw/modules/user/src/32b/user.c",line 161,column 3,
     839 00000179 7682          MOVL      XAR6,#150000          ; [CPU_U] |161| 
         0000017a 49F0 
     840                      .dwpsn  file "C:/ti/motorware/motorware_1_01_00_18/sw/modules/user/src/32b/user.c",line 163,column 3,
     841 0000017b D008          MOVB      XAR0,#8               ; [CPU_] |163| 
     842                      .dwpsn  file "C:/ti/motorware/motorware_1_01_00_18/sw/modules/user/src/32b/user.c",line 159,column 3,
TMS320C2000 Assembler PC v6.2.5 Mon Jun 19 18:10:37 2017

Tools Copyright (c) 1996-2014 Texas Instruments Incorporated
C:\Users\wmj\AppData\Local\Temp\1992810                              PAGE   18

     843 0000017c DD78          ADDB      XAR5,#120             ; [CPU_] |159| 
     844 0000017d 1EC5          MOVL      *+XAR5[0],ACC         ; [CPU_] |159| 
     845                      .dwpsn  file "C:/ti/motorware/motorware_1_01_00_18/sw/modules/user/src/32b/user.c",line 160,column 3,
     846 0000017e 1ED5          MOVL      *+XAR5[2],ACC         ; [CPU_] |160| 
     847                      .dwpsn  file "C:/ti/motorware/motorware_1_01_00_18/sw/modules/user/src/32b/user.c",line 161,column 3,
     848 0000017f C2E5          MOVL      *+XAR5[4],XAR6        ; [CPU_] |161| 
     849                      .dwpsn  file "C:/ti/motorware/motorware_1_01_00_18/sw/modules/user/src/32b/user.c",line 162,column 3,
     850 00000180 7680          MOVL      XAR6,#3000            ; [CPU_U] |162| 
         00000181 0BB8 
     851 00000182 C2F5          MOVL      *+XAR5[6],XAR6        ; [CPU_] |162| 
     852                      .dwpsn  file "C:/ti/motorware/motorware_1_01_00_18/sw/modules/user/src/32b/user.c",line 163,column 3,
     853 00000183 7680          MOVL      XAR6,#60000           ; [CPU_U] |163| 
         00000184 EA60 
     854 00000185 C295          MOVL      *+XAR5[AR0],XAR6      ; [CPU_] |163| 
     855                      .dwpsn  file "C:/ti/motorware/motorware_1_01_00_18/sw/modules/user/src/32b/user.c",line 164,column 3,
     856 00000186 D00A          MOVB      XAR0,#10              ; [CPU_] |164| 
     857                      .dwpsn  file "C:/ti/motorware/motorware_1_01_00_18/sw/modules/user/src/32b/user.c",line 168,column 3,
     858 00000187 7680          MOVL      XAR6,#45000           ; [CPU_U] |168| 
         00000188 AFC8 
     859                      .dwpsn  file "C:/ti/motorware/motorware_1_01_00_18/sw/modules/user/src/32b/user.c",line 164,column 3,
     860 00000189 1E95          MOVL      *+XAR5[AR0],ACC       ; [CPU_] |164| 
     861                      .dwpsn  file "C:/ti/motorware/motorware_1_01_00_18/sw/modules/user/src/32b/user.c",line 170,column 3,
     862 0000018a D008          MOVB      XAR0,#8               ; [CPU_] |170| 
     863                      .dwpsn  file "C:/ti/motorware/motorware_1_01_00_18/sw/modules/user/src/32b/user.c",line 166,column 3,
     864 0000018b 0284          MOVB      ACC,#132              ; [CPU_] |166| 
     865 0000018c 07A4          ADDL      ACC,XAR4              ; [CPU_] |166| 
     866 0000018d 83A9          MOVL      XAR5,ACC              ; [CPU_] |166| 
     867 0000018e 0200          MOVB      ACC,#0                ; [CPU_] |166| 
     868 0000018f 1EC5          MOVL      *+XAR5[0],ACC         ; [CPU_] |166| 
     869                      .dwpsn  file "C:/ti/motorware/motorware_1_01_00_18/sw/modules/user/src/32b/user.c",line 167,column 3,
     870 00000190 1ED5          MOVL      *+XAR5[2],ACC         ; [CPU_] |167| 
     871                      .dwpsn  file "C:/ti/motorware/motorware_1_01_00_18/sw/modules/user/src/32b/user.c",line 168,column 3,
     872 00000191 C2E5          MOVL      *+XAR5[4],XAR6        ; [CPU_] |168| 
     873                      .dwpsn  file "C:/ti/motorware/motorware_1_01_00_18/sw/modules/user/src/32b/user.c",line 169,column 3,
     874 00000192 C2F5          MOVL      *+XAR5[6],XAR6        ; [CPU_] |169| 
     875                      .dwpsn  file "C:/ti/motorware/motorware_1_01_00_18/sw/modules/user/src/32b/user.c",line 170,column 3,
     876 00000193 7680          MOVL      XAR6,#3000            ; [CPU_U] |170| 
         00000194 0BB8 
     877 00000195 C295          MOVL      *+XAR5[AR0],XAR6      ; [CPU_] |170| 
     878                      .dwpsn  file "C:/ti/motorware/motorware_1_01_00_18/sw/modules/user/src/32b/user.c",line 171,column 3,
     879 00000196 D00A          MOVB      XAR0,#10              ; [CPU_] |171| 
     880 00000197 7686          MOVL      XAR6,#450000          ; [CPU_U] |171| 
         00000198 DDD0 
     881 00000199 C295          MOVL      *+XAR5[AR0],XAR6      ; [CPU_] |171| 
     882                      .dwpsn  file "C:/ti/motorware/motorware_1_01_00_18/sw/modules/user/src/32b/user.c",line 172,column 3,
     883 0000019a D00C          MOVB      XAR0,#12              ; [CPU_] |172| 
     884                      .dwpsn  file "C:/ti/motorware/motorware_1_01_00_18/sw/modules/user/src/32b/user.c",line 176,column 3,
     885 0000019b 7680          MOVL      XAR6,#15000           ; [CPU_U] |176| 
         0000019c 3A98 
     886                      .dwpsn  file "C:/ti/motorware/motorware_1_01_00_18/sw/modules/user/src/32b/user.c",line 172,column 3,
     887 0000019d 1E95          MOVL      *+XAR5[AR0],ACC       ; [CPU_] |172| 
     888                      .dwpsn  file "C:/ti/motorware/motorware_1_01_00_18/sw/modules/user/src/32b/user.c",line 174,column 3,
     889 0000019e 0292          MOVB      ACC,#146              ; [CPU_] |174| 
     890                      .dwpsn  file "C:/ti/motorware/motorware_1_01_00_18/sw/modules/user/src/32b/user.c",line 178,column 3,
     891 0000019f D008          MOVB      XAR0,#8               ; [CPU_] |178| 
TMS320C2000 Assembler PC v6.2.5 Mon Jun 19 18:10:37 2017

Tools Copyright (c) 1996-2014 Texas Instruments Incorporated
C:\Users\wmj\AppData\Local\Temp\1992810                              PAGE   19

     892                      .dwpsn  file "C:/ti/motorware/motorware_1_01_00_18/sw/modules/user/src/32b/user.c",line 174,column 3,
     893 000001a0 07A4          ADDL      ACC,XAR4              ; [CPU_] |174| 
     894 000001a1 83A9          MOVL      XAR5,ACC              ; [CPU_] |174| 
     895 000001a2 0200          MOVB      ACC,#0                ; [CPU_] |174| 
     896 000001a3 1EC5          MOVL      *+XAR5[0],ACC         ; [CPU_] |174| 
     897                      .dwpsn  file "C:/ti/motorware/motorware_1_01_00_18/sw/modules/user/src/32b/user.c",line 175,column 3,
     898 000001a4 1ED5          MOVL      *+XAR5[2],ACC         ; [CPU_] |175| 
     899                      .dwpsn  file "C:/ti/motorware/motorware_1_01_00_18/sw/modules/user/src/32b/user.c",line 176,column 3,
     900 000001a5 C2E5          MOVL      *+XAR5[4],XAR6        ; [CPU_] |176| 
     901                      .dwpsn  file "C:/ti/motorware/motorware_1_01_00_18/sw/modules/user/src/32b/user.c",line 177,column 3,
     902 000001a6 7680          MOVL      XAR6,#30000           ; [CPU_U] |177| 
         000001a7 7530 
     903 000001a8 C2F5          MOVL      *+XAR5[6],XAR6        ; [CPU_] |177| 
     904                      .dwpsn  file "C:/ti/motorware/motorware_1_01_00_18/sw/modules/user/src/32b/user.c",line 178,column 3,
     905 000001a9 7681          MOVL      XAR6,#105000          ; [CPU_U] |178| 
         000001aa 9A28 
     906 000001ab C295          MOVL      *+XAR5[AR0],XAR6      ; [CPU_] |178| 
     907                      .dwpsn  file "C:/ti/motorware/motorware_1_01_00_18/sw/modules/user/src/32b/user.c",line 179,column 3,
     908 000001ac D00A          MOVB      XAR0,#10              ; [CPU_] |179| 
     909 000001ad 1E95          MOVL      *+XAR5[AR0],ACC       ; [CPU_] |179| 
     910                      .dwpsn  file "C:/ti/motorware/motorware_1_01_00_18/sw/modules/user/src/32b/user.c",line 181,column 3,
     911 000001ae D09E          MOVB      XAR0,#158             ; [CPU_] |181| 
     912                      .dwpsn  file "C:/ti/motorware/motorware_1_01_00_18/sw/modules/user/src/32b/user.c",line 185,column 3,
     913 000001af 0264          MOVB      ACC,#100              ; [CPU_] |185| 
     914                      .dwpsn  file "C:/ti/motorware/motorware_1_01_00_18/sw/modules/user/src/32b/user.c",line 181,column 3,
     915 000001b0 8F40          MOVL      XAR5,#15000           ; [CPU_U] |181| 
         000001b1 3A98 
     916 000001b2 A094          MOVL      *+XAR4[AR0],XAR5      ; [CPU_] |181| 
     917                      .dwpsn  file "C:/ti/motorware/motorware_1_01_00_18/sw/modules/user/src/32b/user.c",line 183,column 3,
     918 000001b3 D0A0          MOVB      XAR0,#160             ; [CPU_] |183| 
     919 000001b4 A094          MOVL      *+XAR4[AR0],XAR5      ; [CPU_] |183| 
     920                      .dwpsn  file "C:/ti/motorware/motorware_1_01_00_18/sw/modules/user/src/32b/user.c",line 185,column 3,
     921 000001b5 D0A2          MOVB      XAR0,#162             ; [CPU_] |185| 
     922                      .dwpsn  file "C:/ti/motorware/motorware_1_01_00_18/sw/modules/user/src/32b/user.c",line 187,column 3,
     923 000001b6 8F40          MOVL      XAR5,#1000            ; [CPU_U] |187| 
         000001b7 03E8 
     924                      .dwpsn  file "C:/ti/motorware/motorware_1_01_00_18/sw/modules/user/src/32b/user.c",line 185,column 3,
     925 000001b8 1E94          MOVL      *+XAR4[AR0],ACC       ; [CPU_] |185| 
     926                      .dwpsn  file "C:/ti/motorware/motorware_1_01_00_18/sw/modules/user/src/32b/user.c",line 187,column 3,
     927 000001b9 D0A4          MOVB      XAR0,#164             ; [CPU_] |187| 
     928                      .dwpsn  file "C:/ti/motorware/motorware_1_01_00_18/sw/modules/user/src/32b/user.c",line 189,column 3,
     929 000001ba 28A9          MOV       AL,#53093             ; [CPU_] |189| 
         000001bb CF65 
     930 000001bc 28A8          MOV       AH,#14475             ; [CPU_] |189| 
         000001bd 388B 
     931                      .dwpsn  file "C:/ti/motorware/motorware_1_01_00_18/sw/modules/user/src/32b/user.c",line 187,column 3,
     932 000001be A094          MOVL      *+XAR4[AR0],XAR5      ; [CPU_] |187| 
     933                      .dwpsn  file "C:/ti/motorware/motorware_1_01_00_18/sw/modules/user/src/32b/user.c",line 189,column 3,
     934 000001bf D0A6          MOVB      XAR0,#166             ; [CPU_] |189| 
     935 000001c0 1E94          MOVL      *+XAR4[AR0],ACC       ; [CPU_] |189| 
     936                      .dwpsn  file "C:/ti/motorware/motorware_1_01_00_18/sw/modules/user/src/32b/user.c",line 191,column 3,
     937 000001c1 9A00          MOV       AL,#0                 ; [CPU_] |191| 
     938 000001c2 28A8          MOV       AH,#49024             ; [CPU_] |191| 
         000001c3 BF80 
     939 000001c4 D0A8          MOVB      XAR0,#168             ; [CPU_] |191| 
TMS320C2000 Assembler PC v6.2.5 Mon Jun 19 18:10:37 2017

Tools Copyright (c) 1996-2014 Texas Instruments Incorporated
C:\Users\wmj\AppData\Local\Temp\1992810                              PAGE   20

     940 000001c5 1E94          MOVL      *+XAR4[AR0],ACC       ; [CPU_] |191| 
     941              $C$DW$81        .dwtag  DW_TAG_TI_branch
     942                      .dwattr $C$DW$81, DW_AT_low_pc(0x00)
     943                      .dwattr $C$DW$81, DW_AT_TI_return
     944 000001c6 0006          LRETR     ; [CPU_] 
     945                      ; return occurs ; [] 
     946                      .dwattr $C$DW$78, DW_AT_TI_end_file("C:/ti/motorware/motorware_1_01_00_18/sw/modules/user/src/32b/use
     947                      .dwattr $C$DW$78, DW_AT_TI_end_line(0xc2)
     948                      .dwattr $C$DW$78, DW_AT_TI_end_column(0x01)
     949                      .dwendentry
     950                      .dwendtag $C$DW$78
     951              
     952 000001c7               .sect   ".text"
     953                      .clink
     954                      .global _USER_setErrorCode
     955              
     956              $C$DW$82        .dwtag  DW_TAG_subprogram, DW_AT_name("USER_setErrorCode")
     957                      .dwattr $C$DW$82, DW_AT_low_pc(_USER_setErrorCode)
     958                      .dwattr $C$DW$82, DW_AT_high_pc(0x00)
     959                      .dwattr $C$DW$82, DW_AT_TI_symbol_name("_USER_setErrorCode")
     960                      .dwattr $C$DW$82, DW_AT_external
     961                      .dwattr $C$DW$82, DW_AT_TI_begin_file("C:/ti/motorware/motorware_1_01_00_18/sw/modules/user/src/32b/u
     962                      .dwattr $C$DW$82, DW_AT_TI_begin_line(0x33b)
     963                      .dwattr $C$DW$82, DW_AT_TI_begin_column(0x06)
     964                      .dwattr $C$DW$82, DW_AT_TI_max_frame_size(-2)
     965                      .dwpsn  file "C:/ti/motorware/motorware_1_01_00_18/sw/modules/user/src/32b/user.c",line 828,column 1,
     966              
     967                      .dwfde $C$DW$CIE, _USER_setErrorCode
     968              $C$DW$83        .dwtag  DW_TAG_formal_parameter, DW_AT_name("pUserParams")
     969                      .dwattr $C$DW$83, DW_AT_TI_symbol_name("_pUserParams")
     970                      .dwattr $C$DW$83, DW_AT_type(*$C$DW$T$79)
     971                      .dwattr $C$DW$83, DW_AT_location[DW_OP_reg12]
     972              $C$DW$84        .dwtag  DW_TAG_formal_parameter, DW_AT_name("errorCode")
     973                      .dwattr $C$DW$84, DW_AT_TI_symbol_name("_errorCode")
     974                      .dwattr $C$DW$84, DW_AT_type(*$C$DW$T$77)
     975                      .dwattr $C$DW$84, DW_AT_location[DW_OP_reg0]
     976              
     977              ;***************************************************************
     978              ;* FNAME: _USER_setErrorCode            FR SIZE:   0           *
     979              ;*                                                             *
     980              ;* FUNCTION ENVIRONMENT                                        *
     981              ;*                                                             *
     982              ;* FUNCTION PROPERTIES                                         *
     983              ;*                            0 Parameter,  0 Auto,  0 SOE     *
     984              ;***************************************************************
     985              
     986              _USER_setErrorCode:
     987              ;* AR4   assigned to _pUserParams
     988              $C$DW$85        .dwtag  DW_TAG_variable, DW_AT_name("pUserParams")
     989                      .dwattr $C$DW$85, DW_AT_TI_symbol_name("_pUserParams")
     990                      .dwattr $C$DW$85, DW_AT_type(*$C$DW$T$90)
     991                      .dwattr $C$DW$85, DW_AT_location[DW_OP_reg12]
     992              ;* AL    assigned to _errorCode
     993              $C$DW$86        .dwtag  DW_TAG_variable, DW_AT_name("errorCode")
     994                      .dwattr $C$DW$86, DW_AT_TI_symbol_name("_errorCode")
TMS320C2000 Assembler PC v6.2.5 Mon Jun 19 18:10:37 2017

Tools Copyright (c) 1996-2014 Texas Instruments Incorporated
C:\Users\wmj\AppData\Local\Temp\1992810                              PAGE   21

     995                      .dwattr $C$DW$86, DW_AT_type(*$C$DW$T$77)
     996                      .dwattr $C$DW$86, DW_AT_location[DW_OP_reg0]
     997                      .dwcfi  cfa_offset, -2
     998                      .dwcfi  save_reg_to_mem, 26, 0
     999                      .dwcfi  save_reg_to_reg, 78, 26
    1000                      .dwpsn  file "C:/ti/motorware/motorware_1_01_00_18/sw/modules/user/src/32b/user.c",line 829,column 3,
    1001 000001c7 D0AA          MOVB      XAR0,#170             ; [CPU_] |829| 
    1002 000001c8 9694          MOV       *+XAR4[AR0],AL        ; [CPU_] |829| 
    1003              $C$DW$87        .dwtag  DW_TAG_TI_branch
    1004                      .dwattr $C$DW$87, DW_AT_low_pc(0x00)
    1005                      .dwattr $C$DW$87, DW_AT_TI_return
    1006 000001c9 0006          LRETR     ; [CPU_] 
    1007                      ; return occurs ; [] 
    1008                      .dwattr $C$DW$82, DW_AT_TI_end_file("C:/ti/motorware/motorware_1_01_00_18/sw/modules/user/src/32b/use
    1009                      .dwattr $C$DW$82, DW_AT_TI_end_line(0x340)
    1010                      .dwattr $C$DW$82, DW_AT_TI_end_column(0x01)
    1011                      .dwendentry
    1012                      .dwendtag $C$DW$82
    1013              
    1014 000001ca               .sect   ".text"
    1015                      .clink
    1016                      .global _USER_getErrorCode
    1017              
    1018              $C$DW$88        .dwtag  DW_TAG_subprogram, DW_AT_name("USER_getErrorCode")
    1019                      .dwattr $C$DW$88, DW_AT_low_pc(_USER_getErrorCode)
    1020                      .dwattr $C$DW$88, DW_AT_high_pc(0x00)
    1021                      .dwattr $C$DW$88, DW_AT_TI_symbol_name("_USER_getErrorCode")
    1022                      .dwattr $C$DW$88, DW_AT_external
    1023                      .dwattr $C$DW$88, DW_AT_type(*$C$DW$T$75)
    1024                      .dwattr $C$DW$88, DW_AT_TI_begin_file("C:/ti/motorware/motorware_1_01_00_18/sw/modules/user/src/32b/u
    1025                      .dwattr $C$DW$88, DW_AT_TI_begin_line(0x335)
    1026                      .dwattr $C$DW$88, DW_AT_TI_begin_column(0x12)
    1027                      .dwattr $C$DW$88, DW_AT_TI_max_frame_size(-2)
    1028                      .dwpsn  file "C:/ti/motorware/motorware_1_01_00_18/sw/modules/user/src/32b/user.c",line 822,column 1,
    1029              
    1030                      .dwfde $C$DW$CIE, _USER_getErrorCode
    1031              $C$DW$89        .dwtag  DW_TAG_formal_parameter, DW_AT_name("pUserParams")
    1032                      .dwattr $C$DW$89, DW_AT_TI_symbol_name("_pUserParams")
    1033                      .dwattr $C$DW$89, DW_AT_type(*$C$DW$T$79)
    1034                      .dwattr $C$DW$89, DW_AT_location[DW_OP_reg12]
    1035              
    1036              ;***************************************************************
    1037              ;* FNAME: _USER_getErrorCode            FR SIZE:   0           *
    1038              ;*                                                             *
    1039              ;* FUNCTION ENVIRONMENT                                        *
    1040              ;*                                                             *
    1041              ;* FUNCTION PROPERTIES                                         *
    1042              ;*                            0 Parameter,  0 Auto,  0 SOE     *
    1043              ;***************************************************************
    1044              
    1045              _USER_getErrorCode:
    1046              ;* AR4   assigned to _pUserParams
    1047              $C$DW$90        .dwtag  DW_TAG_variable, DW_AT_name("pUserParams")
    1048                      .dwattr $C$DW$90, DW_AT_TI_symbol_name("_pUserParams")
    1049                      .dwattr $C$DW$90, DW_AT_type(*$C$DW$T$90)
TMS320C2000 Assembler PC v6.2.5 Mon Jun 19 18:10:37 2017

Tools Copyright (c) 1996-2014 Texas Instruments Incorporated
C:\Users\wmj\AppData\Local\Temp\1992810                              PAGE   22

    1050                      .dwattr $C$DW$90, DW_AT_location[DW_OP_reg12]
    1051                      .dwcfi  cfa_offset, -2
    1052                      .dwcfi  save_reg_to_mem, 26, 0
    1053                      .dwcfi  save_reg_to_reg, 78, 26
    1054                      .dwpsn  file "C:/ti/motorware/motorware_1_01_00_18/sw/modules/user/src/32b/user.c",line 823,column 3,
    1055 000001ca D0AA          MOVB      XAR0,#170             ; [CPU_] |823| 
    1056 000001cb 9294          MOV       AL,*+XAR4[AR0]        ; [CPU_] |823| 
    1057              $C$DW$91        .dwtag  DW_TAG_TI_branch
    1058                      .dwattr $C$DW$91, DW_AT_low_pc(0x00)
    1059                      .dwattr $C$DW$91, DW_AT_TI_return
    1060 000001cc 0006          LRETR     ; [CPU_] 
    1061                      ; return occurs ; [] 
    1062                      .dwattr $C$DW$88, DW_AT_TI_end_file("C:/ti/motorware/motorware_1_01_00_18/sw/modules/user/src/32b/use
    1063                      .dwattr $C$DW$88, DW_AT_TI_end_line(0x338)
    1064                      .dwattr $C$DW$88, DW_AT_TI_end_column(0x01)
    1065                      .dwendentry
    1066                      .dwendtag $C$DW$88
    1067              
    1068 000001cd               .sect   ".text"
    1069                      .clink
    1070                      .global _USER_computeTorque_lbin
    1071              
    1072              $C$DW$92        .dwtag  DW_TAG_subprogram, DW_AT_name("USER_computeTorque_lbin")
    1073                      .dwattr $C$DW$92, DW_AT_low_pc(_USER_computeTorque_lbin)
    1074                      .dwattr $C$DW$92, DW_AT_high_pc(0x00)
    1075                      .dwattr $C$DW$92, DW_AT_TI_symbol_name("_USER_computeTorque_lbin")
    1076                      .dwattr $C$DW$92, DW_AT_external
    1077                      .dwattr $C$DW$92, DW_AT_type(*$C$DW$T$20)
    1078                      .dwattr $C$DW$92, DW_AT_TI_begin_file("C:/ti/motorware/motorware_1_01_00_18/sw/modules/user/src/32b/u
    1079                      .dwattr $C$DW$92, DW_AT_TI_begin_line(0x3e5)
    1080                      .dwattr $C$DW$92, DW_AT_TI_begin_column(0x05)
    1081                      .dwattr $C$DW$92, DW_AT_TI_max_frame_size(-16)
    1082                      .dwpsn  file "C:/ti/motorware/motorware_1_01_00_18/sw/modules/user/src/32b/user.c",line 998,column 1,
    1083              
    1084                      .dwfde $C$DW$CIE, _USER_computeTorque_lbin
    1085              $C$DW$93        .dwtag  DW_TAG_formal_parameter, DW_AT_name("handle")
    1086                      .dwattr $C$DW$93, DW_AT_TI_symbol_name("_handle")
    1087                      .dwattr $C$DW$93, DW_AT_type(*$C$DW$T$87)
    1088                      .dwattr $C$DW$93, DW_AT_location[DW_OP_reg12]
    1089              $C$DW$94        .dwtag  DW_TAG_formal_parameter, DW_AT_name("torque_Flux_sf")
    1090                      .dwattr $C$DW$94, DW_AT_TI_symbol_name("_torque_Flux_sf")
    1091                      .dwattr $C$DW$94, DW_AT_type(*$C$DW$T$93)
    1092                      .dwattr $C$DW$94, DW_AT_location[DW_OP_reg0]
    1093              $C$DW$95        .dwtag  DW_TAG_formal_parameter, DW_AT_name("torque_Ls_sf")
    1094                      .dwattr $C$DW$95, DW_AT_TI_symbol_name("_torque_Ls_sf")
    1095                      .dwattr $C$DW$95, DW_AT_type(*$C$DW$T$93)
    1096                      .dwattr $C$DW$95, DW_AT_location[DW_OP_breg20 -18]
    1097              
    1098              ;***************************************************************
    1099              ;* FNAME: _USER_computeTorque_lbin      FR SIZE:  14           *
    1100              ;*                                                             *
    1101              ;* FUNCTION ENVIRONMENT                                        *
    1102              ;*                                                             *
    1103              ;* FUNCTION PROPERTIES                                         *
    1104              ;*                            0 Parameter,  8 Auto,  6 SOE     *
TMS320C2000 Assembler PC v6.2.5 Mon Jun 19 18:10:37 2017

Tools Copyright (c) 1996-2014 Texas Instruments Incorporated
C:\Users\wmj\AppData\Local\Temp\1992810                              PAGE   23

    1105              ;***************************************************************
    1106              
    1107              _USER_computeTorque_lbin:
    1108              ;* AR1   assigned to _handle
    1109              $C$DW$96        .dwtag  DW_TAG_variable, DW_AT_name("handle")
    1110                      .dwattr $C$DW$96, DW_AT_TI_symbol_name("_handle")
    1111                      .dwattr $C$DW$96, DW_AT_type(*$C$DW$T$88)
    1112                      .dwattr $C$DW$96, DW_AT_location[DW_OP_reg6]
    1113              $C$DW$97        .dwtag  DW_TAG_variable, DW_AT_name("torque_Flux_sf")
    1114                      .dwattr $C$DW$97, DW_AT_TI_symbol_name("_torque_Flux_sf")
    1115                      .dwattr $C$DW$97, DW_AT_type(*$C$DW$T$93)
    1116                      .dwattr $C$DW$97, DW_AT_location[DW_OP_breg20 -2]
    1117              $C$DW$98        .dwtag  DW_TAG_variable, DW_AT_name("torque_Ls_sf")
    1118                      .dwattr $C$DW$98, DW_AT_TI_symbol_name("_torque_Ls_sf")
    1119                      .dwattr $C$DW$98, DW_AT_type(*$C$DW$T$93)
    1120                      .dwattr $C$DW$98, DW_AT_location[DW_OP_breg20 -4]
    1121              $C$DW$99        .dwtag  DW_TAG_variable, DW_AT_name("Flux_pu")
    1122                      .dwattr $C$DW$99, DW_AT_TI_symbol_name("_Flux_pu")
    1123                      .dwattr $C$DW$99, DW_AT_type(*$C$DW$T$20)
    1124                      .dwattr $C$DW$99, DW_AT_location[DW_OP_breg20 -6]
    1125              ;* AR3   assigned to _Id_pu
    1126              $C$DW$100       .dwtag  DW_TAG_variable, DW_AT_name("Id_pu")
    1127                      .dwattr $C$DW$100, DW_AT_TI_symbol_name("_Id_pu")
    1128                      .dwattr $C$DW$100, DW_AT_type(*$C$DW$T$20)
    1129                      .dwattr $C$DW$100, DW_AT_location[DW_OP_reg10]
    1130              ;* AR2   assigned to _Iq_pu
    1131              $C$DW$101       .dwtag  DW_TAG_variable, DW_AT_name("Iq_pu")
    1132                      .dwattr $C$DW$101, DW_AT_TI_symbol_name("_Iq_pu")
    1133                      .dwattr $C$DW$101, DW_AT_type(*$C$DW$T$20)
    1134                      .dwattr $C$DW$101, DW_AT_location[DW_OP_reg8]
    1135              ;* AR7   assigned to _Ld_minus_Lq_pu
    1136              $C$DW$102       .dwtag  DW_TAG_variable, DW_AT_name("Ld_minus_Lq_pu")
    1137                      .dwattr $C$DW$102, DW_AT_TI_symbol_name("_Ld_minus_Lq_pu")
    1138                      .dwattr $C$DW$102, DW_AT_type(*$C$DW$T$20)
    1139                      .dwattr $C$DW$102, DW_AT_location[DW_OP_reg18]
    1140                      .dwcfi  cfa_offset, -2
    1141                      .dwcfi  save_reg_to_mem, 26, 0
    1142                      .dwcfi  save_reg_to_reg, 78, 26
    1143 000001cd B2BD          MOVL      *SP++,XAR1            ; [CPU_] 
    1144                      .dwcfi  save_reg_to_mem, 7, 2
    1145                      .dwcfi  cfa_offset, -4
    1146 000001ce AABD          MOVL      *SP++,XAR2            ; [CPU_] 
    1147                      .dwcfi  save_reg_to_mem, 9, 4
    1148                      .dwcfi  cfa_offset, -6
    1149 000001cf A2BD          MOVL      *SP++,XAR3            ; [CPU_] 
    1150                      .dwcfi  save_reg_to_mem, 11, 6
    1151                      .dwcfi  cfa_offset, -8
    1152 000001d0 FE08          ADDB      SP,#8                 ; [CPU_U] 
    1153                      .dwcfi  cfa_offset, -16
    1154                      .dwpsn  file "C:/ti/motorware/motorware_1_01_00_18/sw/modules/user/src/32b/user.c",line 1001,column 1
    1155 000001d1 D018          MOVB      XAR0,#24              ; [CPU_] |1001| 
    1156                      .dwpsn  file "C:/ti/motorware/motorware_1_01_00_18/sw/modules/user/src/32b/user.c",line 998,column 1,
    1157 000001d2 8BA4          MOVL      XAR1,XAR4             ; [CPU_] |998| 
    1158 000001d3 1E42          MOVL      *-SP[2],ACC           ; [CPU_] |998| 
    1159 000001d4 0652          MOVL      ACC,*-SP[18]          ; [CPU_] |998| 
TMS320C2000 Assembler PC v6.2.5 Mon Jun 19 18:10:37 2017

Tools Copyright (c) 1996-2014 Texas Instruments Incorporated
C:\Users\wmj\AppData\Local\Temp\1992810                              PAGE   24

    1160 000001d5 1E44          MOVL      *-SP[4],ACC           ; [CPU_] |998| 
    1161                      .dwpsn  file "C:/ti/motorware/motorware_1_01_00_18/sw/modules/user/src/32b/user.c",line 1001,column 1
    1162 000001d6 8A91          MOVL      XAR4,*+XAR1[AR0]      ; [CPU_] |1001| 
    1163              $C$DW$103       .dwtag  DW_TAG_TI_branch
    1164                      .dwattr $C$DW$103, DW_AT_low_pc(0x00)
    1165                      .dwattr $C$DW$103, DW_AT_name("_EST_getFlux_pu")
    1166                      .dwattr $C$DW$103, DW_AT_TI_call
    1167 000001d7 7640!         LCR       #_EST_getFlux_pu      ; [CPU_] |1001| 
         000001d8 0000 
    1168                      ; call occurs [#_EST_getFlux_pu] ; [] |1001| 
    1169                      .dwpsn  file "C:/ti/motorware/motorware_1_01_00_18/sw/modules/pid/src/32b/pid.h",line 106,column 3,is
    1170 000001d9 D020          MOVB      XAR0,#32              ; [CPU_] |106| 
    1171                      .dwpsn  file "C:/ti/motorware/motorware_1_01_00_18/sw/modules/user/src/32b/user.c",line 1001,column 1
    1172 000001da 1E46          MOVL      *-SP[6],ACC           ; [CPU_] |1001| 
    1173                      .dwpsn  file "C:/ti/motorware/motorware_1_01_00_18/sw/modules/pid/src/32b/pid.h",line 106,column 3,is
    1174 000001db 8A91          MOVL      XAR4,*+XAR1[AR0]      ; [CPU_] |106| 
    1175 000001dc D00A          MOVB      XAR0,#10              ; [CPU_] |106| 
    1176 000001dd 8294          MOVL      XAR3,*+XAR4[AR0]      ; [CPU_] |106| 
    1177 000001de D032          MOVB      XAR0,#50              ; [CPU_] |106| 
    1178 000001df 8A91          MOVL      XAR4,*+XAR1[AR0]      ; [CPU_] |106| 
    1179 000001e0 D00A          MOVB      XAR0,#10              ; [CPU_] |106| 
    1180 000001e1 8694          MOVL      XAR2,*+XAR4[AR0]      ; [CPU_] |106| 
    1181                      .dwpsn  file "C:/ti/motorware/motorware_1_01_00_18/sw/modules/user/src/32b/user.c",line 1004,column 2
    1182 000001e2 D018          MOVB      XAR0,#24              ; [CPU_] |1004| 
    1183 000001e3 8A91          MOVL      XAR4,*+XAR1[AR0]      ; [CPU_] |1004| 
    1184              $C$DW$104       .dwtag  DW_TAG_TI_branch
    1185                      .dwattr $C$DW$104, DW_AT_low_pc(0x00)
    1186                      .dwattr $C$DW$104, DW_AT_name("_EST_getLs_q_pu")
    1187                      .dwattr $C$DW$104, DW_AT_TI_call
    1188 000001e4 7640!         LCR       #_EST_getLs_q_pu      ; [CPU_] |1004| 
         000001e5 0000 
    1189                      ; call occurs [#_EST_getLs_q_pu] ; [] |1004| 
    1190 000001e6 D018          MOVB      XAR0,#24              ; [CPU_] |1004| 
    1191 000001e7 1E48          MOVL      *-SP[8],ACC           ; [CPU_] |1004| 
    1192 000001e8 8A91          MOVL      XAR4,*+XAR1[AR0]      ; [CPU_] |1004| 
    1193              $C$DW$105       .dwtag  DW_TAG_TI_branch
    1194                      .dwattr $C$DW$105, DW_AT_low_pc(0x00)
    1195                      .dwattr $C$DW$105, DW_AT_name("_EST_getLs_d_pu")
    1196                      .dwattr $C$DW$105, DW_AT_TI_call
    1197 000001e9 7640!         LCR       #_EST_getLs_d_pu      ; [CPU_] |1004| 
         000001ea 0000 
    1198                      ; call occurs [#_EST_getLs_d_pu] ; [] |1004| 
    1199 000001eb C448          MOVL      XAR6,*-SP[8]          ; [CPU_] |1004| 
    1200 000001ec 3B01          SETC      SXM                   ; [CPU_] 
    1201 000001ed 8746          MOVL      XT,*-SP[6]            ; [CPU_] |1004| 
    1202 000001ee 03A6          SUBL      ACC,XAR6              ; [CPU_] |1004| 
    1203                      .dwpsn  file "C:/ti/motorware/motorware_1_01_00_18/sw/modules/user/src/32b/user.c",line 1009,column 3
    1204 000001ef 5605          IMPYL     P,XT,XAR2             ; [CPU_] |1009| 
         000001f0 00A2 
    1205                      .dwpsn  file "C:/ti/motorware/motorware_1_01_00_18/sw/modules/user/src/32b/user.c",line 1004,column 2
    1206 000001f1 FF45          SFR       ACC,6                 ; [CPU_] |1004| 
    1207                      .dwpsn  file "C:/ti/motorware/motorware_1_01_00_18/sw/modules/user/src/32b/user.c",line 1009,column 3
    1208 000001f2 8746          MOVL      XT,*-SP[6]            ; [CPU_] |1009| 
    1209 000001f3 C442          MOVL      XAR6,*-SP[2]          ; [CPU_] |1009| 
    1210                      .dwpsn  file "C:/ti/motorware/motorware_1_01_00_18/sw/modules/user/src/32b/user.c",line 1004,column 2
TMS320C2000 Assembler PC v6.2.5 Mon Jun 19 18:10:37 2017

Tools Copyright (c) 1996-2014 Texas Instruments Incorporated
C:\Users\wmj\AppData\Local\Temp\1992810                              PAGE   25

    1211 000001f4 1EA7          MOVL      XAR7,ACC              ; [CPU_] |1004| 
    1212                      .dwpsn  file "C:/ti/motorware/motorware_1_01_00_18/sw/modules/user/src/32b/user.c",line 1009,column 3
    1213 000001f5 5663          QMPYL     ACC,XT,XAR2           ; [CPU_] |1009| 
         000001f6 00A2 
    1214 000001f7 56A7          LSL64     ACC:P,#8              ; [CPU_] |1009| 
    1215 000001f8 1EAC          MOVL      XT,ACC                ; [CPU_] |1009| 
    1216 000001f9 0642          MOVL      ACC,*-SP[2]           ; [CPU_] |1009| 
    1217 000001fa 5605          IMPYL     P,XT,XAR6             ; [CPU_] |1009| 
         000001fb 00A6 
    1218 000001fc 5663          QMPYL     ACC,XT,ACC            ; [CPU_] |1009| 
         000001fd 00A9 
    1219 000001fe 87A7          MOVL      XT,XAR7               ; [CPU_] |1009| 
    1220 000001ff 56A7          LSL64     ACC:P,#8              ; [CPU_] |1009| 
    1221 00000200 C544          MOVL      XAR7,*-SP[4]          ; [CPU_] |1009| 
    1222 00000201 1EA6          MOVL      XAR6,ACC              ; [CPU_] |1009| 
    1223 00000202 5605          IMPYL     P,XT,XAR3             ; [CPU_] |1009| 
         00000203 00A3 
    1224 00000204 5663          QMPYL     ACC,XT,XAR3           ; [CPU_] |1009| 
         00000205 00A3 
    1225 00000206 56A7          LSL64     ACC:P,#8              ; [CPU_] |1009| 
    1226 00000207 1EAC          MOVL      XT,ACC                ; [CPU_] |1009| 
    1227 00000208 5605          IMPYL     P,XT,XAR2             ; [CPU_] |1009| 
         00000209 00A2 
    1228 0000020a 5663          QMPYL     ACC,XT,XAR2           ; [CPU_] |1009| 
         0000020b 00A2 
    1229 0000020c 56A7          LSL64     ACC:P,#8              ; [CPU_] |1009| 
    1230 0000020d 1EAC          MOVL      XT,ACC                ; [CPU_] |1009| 
    1231 0000020e 0644          MOVL      ACC,*-SP[4]           ; [CPU_] |1009| 
    1232 0000020f 5605          IMPYL     P,XT,XAR7             ; [CPU_] |1009| 
         00000210 00A7 
    1233 00000211 5663          QMPYL     ACC,XT,ACC            ; [CPU_] |1009| 
         00000212 00A9 
    1234 00000213 56A7          LSL64     ACC:P,#8              ; [CPU_] |1009| 
    1235 00000214 07A6          ADDL      ACC,XAR6              ; [CPU_] |1009| 
    1236 00000215 1EAC          MOVL      XT,ACC                ; [CPU_] |1009| 
    1237 00000216 FE88          SUBB      SP,#8                 ; [CPU_U] 
    1238                      .dwcfi  cfa_offset, -8
    1239 00000217 28A9          MOV       AL,#51840             ; [CPU_] |1009| 
         00000218 CA80 
    1240 00000219 28A8          MOV       AH,#2265              ; [CPU_] |1009| 
         0000021a 08D9 
    1241 0000021b 5605          IMPYL     P,XT,ACC              ; [CPU_] |1009| 
         0000021c 00A9 
    1242 0000021d 5663          QMPYL     ACC,XT,ACC            ; [CPU_] |1009| 
         0000021e 00A9 
    1243 0000021f 82BE          MOVL      XAR3,*--SP            ; [CPU_] 
    1244                      .dwcfi  cfa_offset, -6
    1245                      .dwcfi  restore_reg, 11
    1246 00000220 56A7          LSL64     ACC:P,#8              ; [CPU_] |1009| 
    1247 00000221 86BE          MOVL      XAR2,*--SP            ; [CPU_] 
    1248                      .dwcfi  cfa_offset, -4
    1249                      .dwcfi  restore_reg, 9
    1250 00000222 8BBE          MOVL      XAR1,*--SP            ; [CPU_] 
    1251                      .dwcfi  cfa_offset, -2
    1252                      .dwcfi  restore_reg, 7
TMS320C2000 Assembler PC v6.2.5 Mon Jun 19 18:10:37 2017

Tools Copyright (c) 1996-2014 Texas Instruments Incorporated
C:\Users\wmj\AppData\Local\Temp\1992810                              PAGE   26

    1253              $C$DW$106       .dwtag  DW_TAG_TI_branch
    1254                      .dwattr $C$DW$106, DW_AT_low_pc(0x00)
    1255                      .dwattr $C$DW$106, DW_AT_TI_return
    1256 00000223 0006          LRETR     ; [CPU_] 
    1257                      ; return occurs ; [] 
    1258                      .dwattr $C$DW$92, DW_AT_TI_end_file("C:/ti/motorware/motorware_1_01_00_18/sw/modules/user/src/32b/use
    1259                      .dwattr $C$DW$92, DW_AT_TI_end_line(0x3f2)
    1260                      .dwattr $C$DW$92, DW_AT_TI_end_column(0x01)
    1261                      .dwendentry
    1262                      .dwendtag $C$DW$92
    1263              
    1264 00000224               .sect   ".text"
    1265                      .clink
    1266                      .global _USER_computeTorque_Nm
    1267              
    1268              $C$DW$107       .dwtag  DW_TAG_subprogram, DW_AT_name("USER_computeTorque_Nm")
    1269                      .dwattr $C$DW$107, DW_AT_low_pc(_USER_computeTorque_Nm)
    1270                      .dwattr $C$DW$107, DW_AT_high_pc(0x00)
    1271                      .dwattr $C$DW$107, DW_AT_TI_symbol_name("_USER_computeTorque_Nm")
    1272                      .dwattr $C$DW$107, DW_AT_external
    1273                      .dwattr $C$DW$107, DW_AT_type(*$C$DW$T$20)
    1274                      .dwattr $C$DW$107, DW_AT_TI_begin_file("C:/ti/motorware/motorware_1_01_00_18/sw/modules/user/src/32b/
    1275                      .dwattr $C$DW$107, DW_AT_TI_begin_line(0x3d3)
    1276                      .dwattr $C$DW$107, DW_AT_TI_begin_column(0x05)
    1277                      .dwattr $C$DW$107, DW_AT_TI_max_frame_size(-16)
    1278                      .dwpsn  file "C:/ti/motorware/motorware_1_01_00_18/sw/modules/user/src/32b/user.c",line 980,column 1,
    1279              
    1280                      .dwfde $C$DW$CIE, _USER_computeTorque_Nm
    1281              $C$DW$108       .dwtag  DW_TAG_formal_parameter, DW_AT_name("handle")
    1282                      .dwattr $C$DW$108, DW_AT_TI_symbol_name("_handle")
    1283                      .dwattr $C$DW$108, DW_AT_type(*$C$DW$T$87)
    1284                      .dwattr $C$DW$108, DW_AT_location[DW_OP_reg12]
    1285              $C$DW$109       .dwtag  DW_TAG_formal_parameter, DW_AT_name("torque_Flux_sf")
    1286                      .dwattr $C$DW$109, DW_AT_TI_symbol_name("_torque_Flux_sf")
    1287                      .dwattr $C$DW$109, DW_AT_type(*$C$DW$T$93)
    1288                      .dwattr $C$DW$109, DW_AT_location[DW_OP_reg0]
    1289              $C$DW$110       .dwtag  DW_TAG_formal_parameter, DW_AT_name("torque_Ls_sf")
    1290                      .dwattr $C$DW$110, DW_AT_TI_symbol_name("_torque_Ls_sf")
    1291                      .dwattr $C$DW$110, DW_AT_type(*$C$DW$T$93)
    1292                      .dwattr $C$DW$110, DW_AT_location[DW_OP_breg20 -18]
    1293              
    1294              ;***************************************************************
    1295              ;* FNAME: _USER_computeTorque_Nm        FR SIZE:  14           *
    1296              ;*                                                             *
    1297              ;* FUNCTION ENVIRONMENT                                        *
    1298              ;*                                                             *
    1299              ;* FUNCTION PROPERTIES                                         *
    1300              ;*                            0 Parameter,  8 Auto,  6 SOE     *
    1301              ;***************************************************************
    1302              
    1303              _USER_computeTorque_Nm:
    1304              ;* AR1   assigned to _handle
    1305              $C$DW$111       .dwtag  DW_TAG_variable, DW_AT_name("handle")
    1306                      .dwattr $C$DW$111, DW_AT_TI_symbol_name("_handle")
    1307                      .dwattr $C$DW$111, DW_AT_type(*$C$DW$T$88)
TMS320C2000 Assembler PC v6.2.5 Mon Jun 19 18:10:37 2017

Tools Copyright (c) 1996-2014 Texas Instruments Incorporated
C:\Users\wmj\AppData\Local\Temp\1992810                              PAGE   27

    1308                      .dwattr $C$DW$111, DW_AT_location[DW_OP_reg6]
    1309              $C$DW$112       .dwtag  DW_TAG_variable, DW_AT_name("torque_Flux_sf")
    1310                      .dwattr $C$DW$112, DW_AT_TI_symbol_name("_torque_Flux_sf")
    1311                      .dwattr $C$DW$112, DW_AT_type(*$C$DW$T$93)
    1312                      .dwattr $C$DW$112, DW_AT_location[DW_OP_breg20 -2]
    1313              $C$DW$113       .dwtag  DW_TAG_variable, DW_AT_name("torque_Ls_sf")
    1314                      .dwattr $C$DW$113, DW_AT_TI_symbol_name("_torque_Ls_sf")
    1315                      .dwattr $C$DW$113, DW_AT_type(*$C$DW$T$93)
    1316                      .dwattr $C$DW$113, DW_AT_location[DW_OP_breg20 -4]
    1317              $C$DW$114       .dwtag  DW_TAG_variable, DW_AT_name("Flux_pu")
    1318                      .dwattr $C$DW$114, DW_AT_TI_symbol_name("_Flux_pu")
    1319                      .dwattr $C$DW$114, DW_AT_type(*$C$DW$T$20)
    1320                      .dwattr $C$DW$114, DW_AT_location[DW_OP_breg20 -6]
    1321              ;* AR3   assigned to _Id_pu
    1322              $C$DW$115       .dwtag  DW_TAG_variable, DW_AT_name("Id_pu")
    1323                      .dwattr $C$DW$115, DW_AT_TI_symbol_name("_Id_pu")
    1324                      .dwattr $C$DW$115, DW_AT_type(*$C$DW$T$20)
    1325                      .dwattr $C$DW$115, DW_AT_location[DW_OP_reg10]
    1326              ;* AR2   assigned to _Iq_pu
    1327              $C$DW$116       .dwtag  DW_TAG_variable, DW_AT_name("Iq_pu")
    1328                      .dwattr $C$DW$116, DW_AT_TI_symbol_name("_Iq_pu")
    1329                      .dwattr $C$DW$116, DW_AT_type(*$C$DW$T$20)
    1330                      .dwattr $C$DW$116, DW_AT_location[DW_OP_reg8]
    1331              ;* AR7   assigned to _Ld_minus_Lq_pu
    1332              $C$DW$117       .dwtag  DW_TAG_variable, DW_AT_name("Ld_minus_Lq_pu")
    1333                      .dwattr $C$DW$117, DW_AT_TI_symbol_name("_Ld_minus_Lq_pu")
    1334                      .dwattr $C$DW$117, DW_AT_type(*$C$DW$T$20)
    1335                      .dwattr $C$DW$117, DW_AT_location[DW_OP_reg18]
    1336                      .dwcfi  cfa_offset, -2
    1337                      .dwcfi  save_reg_to_mem, 26, 0
    1338                      .dwcfi  save_reg_to_reg, 78, 26
    1339 00000224 B2BD          MOVL      *SP++,XAR1            ; [CPU_] 
    1340                      .dwcfi  save_reg_to_mem, 7, 2
    1341                      .dwcfi  cfa_offset, -4
    1342 00000225 AABD          MOVL      *SP++,XAR2            ; [CPU_] 
    1343                      .dwcfi  save_reg_to_mem, 9, 4
    1344                      .dwcfi  cfa_offset, -6
    1345 00000226 A2BD          MOVL      *SP++,XAR3            ; [CPU_] 
    1346                      .dwcfi  save_reg_to_mem, 11, 6
    1347                      .dwcfi  cfa_offset, -8
    1348 00000227 FE08          ADDB      SP,#8                 ; [CPU_U] 
    1349                      .dwcfi  cfa_offset, -16
    1350                      .dwpsn  file "C:/ti/motorware/motorware_1_01_00_18/sw/modules/user/src/32b/user.c",line 983,column 15
    1351 00000228 D018          MOVB      XAR0,#24              ; [CPU_] |983| 
    1352                      .dwpsn  file "C:/ti/motorware/motorware_1_01_00_18/sw/modules/user/src/32b/user.c",line 980,column 1,
    1353 00000229 8BA4          MOVL      XAR1,XAR4             ; [CPU_] |980| 
    1354 0000022a 1E42          MOVL      *-SP[2],ACC           ; [CPU_] |980| 
    1355 0000022b 0652          MOVL      ACC,*-SP[18]          ; [CPU_] |980| 
    1356 0000022c 1E44          MOVL      *-SP[4],ACC           ; [CPU_] |980| 
    1357                      .dwpsn  file "C:/ti/motorware/motorware_1_01_00_18/sw/modules/user/src/32b/user.c",line 983,column 15
    1358 0000022d 8A91          MOVL      XAR4,*+XAR1[AR0]      ; [CPU_] |983| 
    1359              $C$DW$118       .dwtag  DW_TAG_TI_branch
    1360                      .dwattr $C$DW$118, DW_AT_low_pc(0x00)
    1361                      .dwattr $C$DW$118, DW_AT_name("_EST_getFlux_pu")
    1362                      .dwattr $C$DW$118, DW_AT_TI_call
TMS320C2000 Assembler PC v6.2.5 Mon Jun 19 18:10:37 2017

Tools Copyright (c) 1996-2014 Texas Instruments Incorporated
C:\Users\wmj\AppData\Local\Temp\1992810                              PAGE   28

    1363 0000022e 7640!         LCR       #_EST_getFlux_pu      ; [CPU_] |983| 
         0000022f 0000 
    1364                      ; call occurs [#_EST_getFlux_pu] ; [] |983| 
    1365                      .dwpsn  file "C:/ti/motorware/motorware_1_01_00_18/sw/modules/pid/src/32b/pid.h",line 106,column 3,is
    1366 00000230 D020          MOVB      XAR0,#32              ; [CPU_] |106| 
    1367                      .dwpsn  file "C:/ti/motorware/motorware_1_01_00_18/sw/modules/user/src/32b/user.c",line 983,column 15
    1368 00000231 1E46          MOVL      *-SP[6],ACC           ; [CPU_] |983| 
    1369                      .dwpsn  file "C:/ti/motorware/motorware_1_01_00_18/sw/modules/pid/src/32b/pid.h",line 106,column 3,is
    1370 00000232 8A91          MOVL      XAR4,*+XAR1[AR0]      ; [CPU_] |106| 
    1371 00000233 D00A          MOVB      XAR0,#10              ; [CPU_] |106| 
    1372 00000234 8294          MOVL      XAR3,*+XAR4[AR0]      ; [CPU_] |106| 
    1373 00000235 D032          MOVB      XAR0,#50              ; [CPU_] |106| 
    1374 00000236 8A91          MOVL      XAR4,*+XAR1[AR0]      ; [CPU_] |106| 
    1375 00000237 D00A          MOVB      XAR0,#10              ; [CPU_] |106| 
    1376 00000238 8694          MOVL      XAR2,*+XAR4[AR0]      ; [CPU_] |106| 
    1377                      .dwpsn  file "C:/ti/motorware/motorware_1_01_00_18/sw/modules/user/src/32b/user.c",line 986,column 22
    1378 00000239 D018          MOVB      XAR0,#24              ; [CPU_] |986| 
    1379 0000023a 8A91          MOVL      XAR4,*+XAR1[AR0]      ; [CPU_] |986| 
    1380              $C$DW$119       .dwtag  DW_TAG_TI_branch
    1381                      .dwattr $C$DW$119, DW_AT_low_pc(0x00)
    1382                      .dwattr $C$DW$119, DW_AT_name("_EST_getLs_q_pu")
    1383                      .dwattr $C$DW$119, DW_AT_TI_call
    1384 0000023b 7640!         LCR       #_EST_getLs_q_pu      ; [CPU_] |986| 
         0000023c 0000 
    1385                      ; call occurs [#_EST_getLs_q_pu] ; [] |986| 
    1386 0000023d D018          MOVB      XAR0,#24              ; [CPU_] |986| 
    1387 0000023e 1E48          MOVL      *-SP[8],ACC           ; [CPU_] |986| 
    1388 0000023f 8A91          MOVL      XAR4,*+XAR1[AR0]      ; [CPU_] |986| 
    1389              $C$DW$120       .dwtag  DW_TAG_TI_branch
    1390                      .dwattr $C$DW$120, DW_AT_low_pc(0x00)
    1391                      .dwattr $C$DW$120, DW_AT_name("_EST_getLs_d_pu")
    1392                      .dwattr $C$DW$120, DW_AT_TI_call
    1393 00000240 7640!         LCR       #_EST_getLs_d_pu      ; [CPU_] |986| 
         00000241 0000 
    1394                      ; call occurs [#_EST_getLs_d_pu] ; [] |986| 
    1395 00000242 C448          MOVL      XAR6,*-SP[8]          ; [CPU_] |986| 
    1396 00000243 3B01          SETC      SXM                   ; [CPU_] 
    1397 00000244 8746          MOVL      XT,*-SP[6]            ; [CPU_] |986| 
    1398 00000245 03A6          SUBL      ACC,XAR6              ; [CPU_] |986| 
    1399                      .dwpsn  file "C:/ti/motorware/motorware_1_01_00_18/sw/modules/user/src/32b/user.c",line 991,column 3,
    1400 00000246 5605          IMPYL     P,XT,XAR2             ; [CPU_] |991| 
         00000247 00A2 
    1401                      .dwpsn  file "C:/ti/motorware/motorware_1_01_00_18/sw/modules/user/src/32b/user.c",line 986,column 22
    1402 00000248 FF45          SFR       ACC,6                 ; [CPU_] |986| 
    1403                      .dwpsn  file "C:/ti/motorware/motorware_1_01_00_18/sw/modules/user/src/32b/user.c",line 991,column 3,
    1404 00000249 8746          MOVL      XT,*-SP[6]            ; [CPU_] |991| 
    1405 0000024a C442          MOVL      XAR6,*-SP[2]          ; [CPU_] |991| 
    1406                      .dwpsn  file "C:/ti/motorware/motorware_1_01_00_18/sw/modules/user/src/32b/user.c",line 986,column 22
    1407 0000024b 1EA7          MOVL      XAR7,ACC              ; [CPU_] |986| 
    1408                      .dwpsn  file "C:/ti/motorware/motorware_1_01_00_18/sw/modules/user/src/32b/user.c",line 991,column 3,
    1409 0000024c 5663          QMPYL     ACC,XT,XAR2           ; [CPU_] |991| 
         0000024d 00A2 
    1410 0000024e 56A7          LSL64     ACC:P,#8              ; [CPU_] |991| 
    1411 0000024f 1EAC          MOVL      XT,ACC                ; [CPU_] |991| 
    1412 00000250 0642          MOVL      ACC,*-SP[2]           ; [CPU_] |991| 
TMS320C2000 Assembler PC v6.2.5 Mon Jun 19 18:10:37 2017

Tools Copyright (c) 1996-2014 Texas Instruments Incorporated
C:\Users\wmj\AppData\Local\Temp\1992810                              PAGE   29

    1413 00000251 5605          IMPYL     P,XT,XAR6             ; [CPU_] |991| 
         00000252 00A6 
    1414 00000253 5663          QMPYL     ACC,XT,ACC            ; [CPU_] |991| 
         00000254 00A9 
    1415 00000255 87A7          MOVL      XT,XAR7               ; [CPU_] |991| 
    1416 00000256 56A7          LSL64     ACC:P,#8              ; [CPU_] |991| 
    1417 00000257 C544          MOVL      XAR7,*-SP[4]          ; [CPU_] |991| 
    1418 00000258 1EA6          MOVL      XAR6,ACC              ; [CPU_] |991| 
    1419 00000259 5605          IMPYL     P,XT,XAR3             ; [CPU_] |991| 
         0000025a 00A3 
    1420 0000025b 5663          QMPYL     ACC,XT,XAR3           ; [CPU_] |991| 
         0000025c 00A3 
    1421 0000025d 56A7          LSL64     ACC:P,#8              ; [CPU_] |991| 
    1422 0000025e FE88          SUBB      SP,#8                 ; [CPU_U] 
    1423                      .dwcfi  cfa_offset, -8
    1424 0000025f 1EAC          MOVL      XT,ACC                ; [CPU_] |991| 
    1425 00000260 5605          IMPYL     P,XT,XAR2             ; [CPU_] |991| 
         00000261 00A2 
    1426 00000262 5663          QMPYL     ACC,XT,XAR2           ; [CPU_] |991| 
         00000263 00A2 
    1427 00000264 82BE          MOVL      XAR3,*--SP            ; [CPU_] 
    1428                      .dwcfi  cfa_offset, -6
    1429                      .dwcfi  restore_reg, 11
    1430 00000265 56A7          LSL64     ACC:P,#8              ; [CPU_] |991| 
    1431 00000266 1EAC          MOVL      XT,ACC                ; [CPU_] |991| 
    1432 00000267 86BE          MOVL      XAR2,*--SP            ; [CPU_] 
    1433                      .dwcfi  cfa_offset, -4
    1434                      .dwcfi  restore_reg, 9
    1435 00000268 5605          IMPYL     P,XT,XAR7             ; [CPU_] |991| 
         00000269 00A7 
    1436 0000026a 5663          QMPYL     ACC,XT,XAR7           ; [CPU_] |991| 
         0000026b 00A7 
    1437 0000026c 56A7          LSL64     ACC:P,#8              ; [CPU_] |991| 
    1438 0000026d 8BBE          MOVL      XAR1,*--SP            ; [CPU_] 
    1439                      .dwcfi  cfa_offset, -2
    1440                      .dwcfi  restore_reg, 7
    1441 0000026e 07A6          ADDL      ACC,XAR6              ; [CPU_] |991| 
    1442              $C$DW$121       .dwtag  DW_TAG_TI_branch
    1443                      .dwattr $C$DW$121, DW_AT_low_pc(0x00)
    1444                      .dwattr $C$DW$121, DW_AT_TI_return
    1445 0000026f 0006          LRETR     ; [CPU_] 
    1446                      ; return occurs ; [] 
    1447                      .dwattr $C$DW$107, DW_AT_TI_end_file("C:/ti/motorware/motorware_1_01_00_18/sw/modules/user/src/32b/us
    1448                      .dwattr $C$DW$107, DW_AT_TI_end_line(0x3e0)
    1449                      .dwattr $C$DW$107, DW_AT_TI_end_column(0x01)
    1450                      .dwendentry
    1451                      .dwendtag $C$DW$107
    1452              
    1453 00000270               .sect   ".text"
    1454                      .clink
    1455                      .global _USER_computeTorque_Ls_Id_Iq_pu_to_Nm_sf
    1456              
    1457              $C$DW$122       .dwtag  DW_TAG_subprogram, DW_AT_name("USER_computeTorque_Ls_Id_Iq_pu_to_Nm_sf")
    1458                      .dwattr $C$DW$122, DW_AT_low_pc(_USER_computeTorque_Ls_Id_Iq_pu_to_Nm_sf)
    1459                      .dwattr $C$DW$122, DW_AT_high_pc(0x00)
TMS320C2000 Assembler PC v6.2.5 Mon Jun 19 18:10:37 2017

Tools Copyright (c) 1996-2014 Texas Instruments Incorporated
C:\Users\wmj\AppData\Local\Temp\1992810                              PAGE   30

    1460                      .dwattr $C$DW$122, DW_AT_TI_symbol_name("_USER_computeTorque_Ls_Id_Iq_pu_to_Nm_sf")
    1461                      .dwattr $C$DW$122, DW_AT_external
    1462                      .dwattr $C$DW$122, DW_AT_type(*$C$DW$T$20)
    1463                      .dwattr $C$DW$122, DW_AT_TI_begin_file("C:/ti/motorware/motorware_1_01_00_18/sw/modules/user/src/32b/
    1464                      .dwattr $C$DW$122, DW_AT_TI_begin_line(0x398)
    1465                      .dwattr $C$DW$122, DW_AT_TI_begin_column(0x05)
    1466                      .dwattr $C$DW$122, DW_AT_TI_max_frame_size(-16)
    1467                      .dwpsn  file "C:/ti/motorware/motorware_1_01_00_18/sw/modules/user/src/32b/user.c",line 921,column 1,
    1468              
    1469                      .dwfde $C$DW$CIE, _USER_computeTorque_Ls_Id_Iq_pu_to_Nm_sf
    1470              
    1471              ;***************************************************************
    1472              ;* FNAME: _USER_computeTorque_Ls_Id_Iq_pu_to_Nm_sf FR SIZE:  14           *
    1473              ;*                                                             *
    1474              ;* FUNCTION ENVIRONMENT                                        *
    1475              ;*                                                             *
    1476              ;* FUNCTION PROPERTIES                                         *
    1477              ;*                            2 Parameter, 10 Auto,  2 SOE     *
    1478              ;***************************************************************
    1479              
    1480              _USER_computeTorque_Ls_Id_Iq_pu_to_Nm_sf:
    1481              ;* AL    assigned to _x
    1482              $C$DW$123       .dwtag  DW_TAG_variable, DW_AT_name("x")
    1483                      .dwattr $C$DW$123, DW_AT_TI_symbol_name("_x")
    1484                      .dwattr $C$DW$123, DW_AT_type(*$C$DW$T$17)
    1485                      .dwattr $C$DW$123, DW_AT_location[DW_OP_reg0]
    1486              $C$DW$124       .dwtag  DW_TAG_variable, DW_AT_name("y")
    1487                      .dwattr $C$DW$124, DW_AT_TI_symbol_name("_y")
    1488                      .dwattr $C$DW$124, DW_AT_type(*$C$DW$T$17)
    1489                      .dwattr $C$DW$124, DW_AT_location[DW_OP_breg20 -4]
    1490              ;* AL    assigned to _lShift
    1491              $C$DW$125       .dwtag  DW_TAG_variable, DW_AT_name("lShift")
    1492                      .dwattr $C$DW$125, DW_AT_TI_symbol_name("_lShift")
    1493                      .dwattr $C$DW$125, DW_AT_type(*$C$DW$T$54)
    1494                      .dwattr $C$DW$125, DW_AT_location[DW_OP_reg0]
    1495                      .dwcfi  cfa_offset, -2
    1496                      .dwcfi  save_reg_to_mem, 26, 0
    1497                      .dwcfi  save_reg_to_reg, 78, 26
    1498 00000270 B2BD          MOVL      *SP++,XAR1            ; [CPU_] 
    1499                      .dwcfi  save_reg_to_mem, 7, 2
    1500                      .dwcfi  cfa_offset, -4
    1501 00000271 FE0C          ADDB      SP,#12                ; [CPU_U] 
    1502                      .dwcfi  cfa_offset, -16
    1503                      .dwpsn  file "C:/ti/motorware/motorware_1_01_00_18/sw/modules/user/src/32b/user.c",line 924,column 18
    1504 00000272 28A9          MOV       AL,#30334             ; [CPU_] |924| 
         00000273 767E 
    1505 00000274 28A8          MOV       AH,#15975             ; [CPU_] |924| 
         00000275 3E67 
    1506              $C$DW$126       .dwtag  DW_TAG_TI_branch
    1507                      .dwattr $C$DW$126, DW_AT_low_pc(0x00)
    1508                      .dwattr $C$DW$126, DW_AT_name("_log")
    1509                      .dwattr $C$DW$126, DW_AT_TI_call
    1510 00000276 7640!         LCR       #_log                 ; [CPU_] |924| 
         00000277 0000 
    1511                      ; call occurs [#_log] ; [] |924| 
TMS320C2000 Assembler PC v6.2.5 Mon Jun 19 18:10:37 2017

Tools Copyright (c) 1996-2014 Texas Instruments Incorporated
C:\Users\wmj\AppData\Local\Temp\1992810                              PAGE   31

    1512 00000278 8BA9          MOVL      XAR1,ACC              ; [CPU_] |924| 
    1513 00000279 9A00          MOV       AL,#0                 ; [CPU_] |924| 
    1514 0000027a 28A8          MOV       AH,#16384             ; [CPU_] |924| 
         0000027b 4000 
    1515              $C$DW$127       .dwtag  DW_TAG_TI_branch
    1516                      .dwattr $C$DW$127, DW_AT_low_pc(0x00)
    1517                      .dwattr $C$DW$127, DW_AT_name("_log")
    1518                      .dwattr $C$DW$127, DW_AT_TI_call
    1519 0000027c 7640!         LCR       #_log                 ; [CPU_] |924| 
         0000027d 0000 
    1520                      ; call occurs [#_log] ; [] |924| 
    1521 0000027e 1E42          MOVL      *-SP[2],ACC           ; [CPU_] |924| 
    1522 0000027f B2A9          MOVL      ACC,XAR1              ; [CPU_] |924| 
    1523              $C$DW$128       .dwtag  DW_TAG_TI_branch
    1524                      .dwattr $C$DW$128, DW_AT_low_pc(0x00)
    1525                      .dwattr $C$DW$128, DW_AT_name("FS$$DIV")
    1526                      .dwattr $C$DW$128, DW_AT_TI_call
    1527 00000280 7640!         LCR       #FS$$DIV              ; [CPU_] |924| 
         00000281 0000 
    1528                      ; call occurs [#FS$$DIV] ; [] |924| 
    1529                      .dwpsn  file "c:/ti/ccsv6/tools/compiler/c2000_6.2.5/include/math.h",line 110,column 45,is_stmt
    1530 00000282 5CAD          MOVZ      AR4,SP                ; [CPU_U] |110| 
    1531 00000283 DC84          SUBB      XAR4,#4               ; [CPU_U] |110| 
    1532              $C$DW$129       .dwtag  DW_TAG_TI_branch
    1533                      .dwattr $C$DW$129, DW_AT_low_pc(0x00)
    1534                      .dwattr $C$DW$129, DW_AT_name("_modf")
    1535                      .dwattr $C$DW$129, DW_AT_TI_call
    1536 00000284 7640!         LCR       #_modf                ; [CPU_] |110| 
         00000285 0000 
    1537                      ; call occurs [#_modf] ; [] |110| 
    1538 00000286 1EA6          MOVL      XAR6,ACC              ; [CPU_] |110| 
    1539 00000287 9A00          MOV       AL,#0                 ; [CPU_] |110| 
    1540 00000288 9B00          MOV       AH,#0                 ; [CPU_] |110| 
    1541 00000289 1E42          MOVL      *-SP[2],ACC           ; [CPU_] |110| 
    1542 0000028a 06A6          MOVL      ACC,XAR6              ; [CPU_] |110| 
    1543              $C$DW$130       .dwtag  DW_TAG_TI_branch
    1544                      .dwattr $C$DW$130, DW_AT_low_pc(0x00)
    1545                      .dwattr $C$DW$130, DW_AT_name("FS$$CMP")
    1546                      .dwattr $C$DW$130, DW_AT_TI_call
    1547 0000028b 7640!         LCR       #FS$$CMP              ; [CPU_] |110| 
         0000028c 0000 
    1548                      ; call occurs [#FS$$CMP] ; [] |110| 
    1549 0000028d 5200          CMPB      AL,#0                 ; [CPU_] |110| 
    1550 0000028e 6203          B         $C$L3,GT              ; [CPU_] |110| 
    1551                      ; branchcc occurs ; [] |110| 
    1552 0000028f 0644          MOVL      ACC,*-SP[4]           ; [CPU_] |110| 
    1553 00000290 6F07          B         $C$L4,UNC             ; [CPU_] |110| 
    1554                      ; branch occurs ; [] |110| 
    1555 00000291       $C$L3:    
    1556 00000291 FF2F          MOV       ACC,#32512 << 15      ; [CPU_] |110| 
         00000292 7F00 
    1557 00000293 1E42          MOVL      *-SP[2],ACC           ; [CPU_] |110| 
    1558 00000294 0644          MOVL      ACC,*-SP[4]           ; [CPU_] |110| 
    1559              $C$DW$131       .dwtag  DW_TAG_TI_branch
    1560                      .dwattr $C$DW$131, DW_AT_low_pc(0x00)
TMS320C2000 Assembler PC v6.2.5 Mon Jun 19 18:10:37 2017

Tools Copyright (c) 1996-2014 Texas Instruments Incorporated
C:\Users\wmj\AppData\Local\Temp\1992810                              PAGE   32

    1561                      .dwattr $C$DW$131, DW_AT_name("FS$$ADD")
    1562                      .dwattr $C$DW$131, DW_AT_TI_call
    1563 00000295 7640!         LCR       #FS$$ADD              ; [CPU_] |110| 
         00000296 0000 
    1564                      ; call occurs [#FS$$ADD] ; [] |110| 
    1565 00000297       $C$L4:    
    1566                      .dwpsn  file "C:/ti/motorware/motorware_1_01_00_18/sw/modules/user/src/32b/user.c",line 926,column 3,
    1567 00000297 1E42          MOVL      *-SP[2],ACC           ; [CPU_] |926| 
    1568 00000298 9A00          MOV       AL,#0                 ; [CPU_] |926| 
    1569 00000299 28A8          MOV       AH,#16384             ; [CPU_] |926| 
         0000029a 4000 
    1570              $C$DW$132       .dwtag  DW_TAG_TI_branch
    1571                      .dwattr $C$DW$132, DW_AT_low_pc(0x00)
    1572                      .dwattr $C$DW$132, DW_AT_name("_pow")
    1573                      .dwattr $C$DW$132, DW_AT_TI_call
    1574 0000029b 7640!         LCR       #_pow                 ; [CPU_] |926| 
         0000029c 0000 
    1575                      ; call occurs [#_pow] ; [] |926| 
    1576 0000029d 1EA6          MOVL      XAR6,ACC              ; [CPU_] |926| 
    1577 0000029e 28A9          MOV       AL,#32270             ; [CPU_] |926| 
         0000029f 7E0E 
    1578 000002a0 28A8          MOV       AH,#16477             ; [CPU_] |926| 
         000002a1 405D 
    1579 000002a2 1E42          MOVL      *-SP[2],ACC           ; [CPU_] |926| 
    1580 000002a3 06A6          MOVL      ACC,XAR6              ; [CPU_] |926| 
    1581              $C$DW$133       .dwtag  DW_TAG_TI_branch
    1582                      .dwattr $C$DW$133, DW_AT_low_pc(0x00)
    1583                      .dwattr $C$DW$133, DW_AT_name("FS$$MPY")
    1584                      .dwattr $C$DW$133, DW_AT_TI_call
    1585 000002a4 7640!         LCR       #FS$$MPY              ; [CPU_] |926| 
         000002a5 0000 
    1586                      ; call occurs [#FS$$MPY] ; [] |926| 
    1587 000002a6 88AD          MOVZ      AR6,SP                ; [CPU_U] |926| 
    1588 000002a7 DE8C          SUBB      XAR6,#12              ; [CPU_U] |926| 
    1589              $C$DW$134       .dwtag  DW_TAG_TI_branch
    1590                      .dwattr $C$DW$134, DW_AT_low_pc(0x00)
    1591                      .dwattr $C$DW$134, DW_AT_name("FS$$TOFD")
    1592                      .dwattr $C$DW$134, DW_AT_TI_call
    1593 000002a8 7640!         LCR       #FS$$TOFD             ; [CPU_] |926| 
         000002a9 0000 
    1594                      ; call occurs [#FS$$TOFD] ; [] |926| 
    1595 000002aa 5CAD          MOVZ      AR4,SP                ; [CPU_U] |926| 
    1596 000002ab 88AD          MOVZ      AR6,SP                ; [CPU_U] |926| 
    1597 000002ac 8F40+         MOVL      XAR5,#$C$FL2          ; [CPU_U] |926| 
         000002ad 0004 
    1598 000002ae DC8C          SUBB      XAR4,#12              ; [CPU_U] |926| 
    1599 000002af DE88          SUBB      XAR6,#8               ; [CPU_U] |926| 
    1600              $C$DW$135       .dwtag  DW_TAG_TI_branch
    1601                      .dwattr $C$DW$135, DW_AT_low_pc(0x00)
    1602                      .dwattr $C$DW$135, DW_AT_name("FD$$MPY")
    1603                      .dwattr $C$DW$135, DW_AT_TI_call
    1604 000002b0 7640!         LCR       #FD$$MPY              ; [CPU_] |926| 
         000002b1 0000 
    1605                      ; call occurs [#FD$$MPY] ; [] |926| 
    1606 000002b2 5CAD          MOVZ      AR4,SP                ; [CPU_U] |926| 
TMS320C2000 Assembler PC v6.2.5 Mon Jun 19 18:10:37 2017

Tools Copyright (c) 1996-2014 Texas Instruments Incorporated
C:\Users\wmj\AppData\Local\Temp\1992810                              PAGE   33

    1607 000002b3 DC88          SUBB      XAR4,#8               ; [CPU_U] |926| 
    1608              $C$DW$136       .dwtag  DW_TAG_TI_branch
    1609                      .dwattr $C$DW$136, DW_AT_low_pc(0x00)
    1610                      .dwattr $C$DW$136, DW_AT_name("FD$$TOL")
    1611                      .dwattr $C$DW$136, DW_AT_TI_call
    1612 000002b4 7640!         LCR       #FD$$TOL              ; [CPU_] |926| 
         000002b5 0000 
    1613                      ; call occurs [#FD$$TOL] ; [] |926| 
    1614 000002b6 FE8C          SUBB      SP,#12                ; [CPU_U] 
    1615                      .dwcfi  cfa_offset, -4
    1616 000002b7 8BBE          MOVL      XAR1,*--SP            ; [CPU_] 
    1617                      .dwcfi  cfa_offset, -2
    1618                      .dwcfi  restore_reg, 7
    1619              $C$DW$137       .dwtag  DW_TAG_TI_branch
    1620                      .dwattr $C$DW$137, DW_AT_low_pc(0x00)
    1621                      .dwattr $C$DW$137, DW_AT_TI_return
    1622 000002b8 0006          LRETR     ; [CPU_] 
    1623                      ; return occurs ; [] 
    1624                      .dwattr $C$DW$122, DW_AT_TI_end_file("C:/ti/motorware/motorware_1_01_00_18/sw/modules/user/src/32b/us
    1625                      .dwattr $C$DW$122, DW_AT_TI_end_line(0x39f)
    1626                      .dwattr $C$DW$122, DW_AT_TI_end_column(0x01)
    1627                      .dwendentry
    1628                      .dwendtag $C$DW$122
    1629              
    1630 000002b9               .sect   ".text"
    1631                      .clink
    1632                      .global _USER_computeTorque_Flux_Iq_pu_to_Nm_sf
    1633              
    1634              $C$DW$138       .dwtag  DW_TAG_subprogram, DW_AT_name("USER_computeTorque_Flux_Iq_pu_to_Nm_sf")
    1635                      .dwattr $C$DW$138, DW_AT_low_pc(_USER_computeTorque_Flux_Iq_pu_to_Nm_sf)
    1636                      .dwattr $C$DW$138, DW_AT_high_pc(0x00)
    1637                      .dwattr $C$DW$138, DW_AT_TI_symbol_name("_USER_computeTorque_Flux_Iq_pu_to_Nm_sf")
    1638                      .dwattr $C$DW$138, DW_AT_external
    1639                      .dwattr $C$DW$138, DW_AT_type(*$C$DW$T$20)
    1640                      .dwattr $C$DW$138, DW_AT_TI_begin_file("C:/ti/motorware/motorware_1_01_00_18/sw/modules/user/src/32b/
    1641                      .dwattr $C$DW$138, DW_AT_TI_begin_line(0x3a4)
    1642                      .dwattr $C$DW$138, DW_AT_TI_begin_column(0x05)
    1643                      .dwattr $C$DW$138, DW_AT_TI_max_frame_size(-16)
    1644                      .dwpsn  file "C:/ti/motorware/motorware_1_01_00_18/sw/modules/user/src/32b/user.c",line 933,column 1,
    1645              
    1646                      .dwfde $C$DW$CIE, _USER_computeTorque_Flux_Iq_pu_to_Nm_sf
    1647              
    1648              ;***************************************************************
    1649              ;* FNAME: _USER_computeTorque_Flux_Iq_pu_to_Nm_sf FR SIZE:  14           *
    1650              ;*                                                             *
    1651              ;* FUNCTION ENVIRONMENT                                        *
    1652              ;*                                                             *
    1653              ;* FUNCTION PROPERTIES                                         *
    1654              ;*                            2 Parameter, 10 Auto,  2 SOE     *
    1655              ;***************************************************************
    1656              
    1657              _USER_computeTorque_Flux_Iq_pu_to_Nm_sf:
    1658              ;* AL    assigned to _x
    1659              $C$DW$139       .dwtag  DW_TAG_variable, DW_AT_name("x")
    1660                      .dwattr $C$DW$139, DW_AT_TI_symbol_name("_x")
TMS320C2000 Assembler PC v6.2.5 Mon Jun 19 18:10:37 2017

Tools Copyright (c) 1996-2014 Texas Instruments Incorporated
C:\Users\wmj\AppData\Local\Temp\1992810                              PAGE   34

    1661                      .dwattr $C$DW$139, DW_AT_type(*$C$DW$T$17)
    1662                      .dwattr $C$DW$139, DW_AT_location[DW_OP_reg0]
    1663              $C$DW$140       .dwtag  DW_TAG_variable, DW_AT_name("y")
    1664                      .dwattr $C$DW$140, DW_AT_TI_symbol_name("_y")
    1665                      .dwattr $C$DW$140, DW_AT_type(*$C$DW$T$17)
    1666                      .dwattr $C$DW$140, DW_AT_location[DW_OP_breg20 -4]
    1667              ;* AL    assigned to $O$R1
    1668                      .dwcfi  cfa_offset, -2
    1669                      .dwcfi  save_reg_to_mem, 26, 0
    1670                      .dwcfi  save_reg_to_reg, 78, 26
    1671 000002b9 B2BD          MOVL      *SP++,XAR1            ; [CPU_] 
    1672                      .dwcfi  save_reg_to_mem, 7, 2
    1673                      .dwcfi  cfa_offset, -4
    1674 000002ba FE0C          ADDB      SP,#12                ; [CPU_U] 
    1675                      .dwcfi  cfa_offset, -16
    1676                      .dwpsn  file "C:/ti/motorware/motorware_1_01_00_18/sw/modules/user/src/32b/user.c",line 937,column 18
    1677 000002bb 28A9          MOV       AL,#28519             ; [CPU_] |937| 
         000002bc 6F67 
    1678 000002bd 28A8          MOV       AH,#15862             ; [CPU_] |937| 
         000002be 3DF6 
    1679              $C$DW$141       .dwtag  DW_TAG_TI_branch
    1680                      .dwattr $C$DW$141, DW_AT_low_pc(0x00)
    1681                      .dwattr $C$DW$141, DW_AT_name("_log")
    1682                      .dwattr $C$DW$141, DW_AT_TI_call
    1683 000002bf 7640!         LCR       #_log                 ; [CPU_] |937| 
         000002c0 0000 
    1684                      ; call occurs [#_log] ; [] |937| 
    1685 000002c1 8BA9          MOVL      XAR1,ACC              ; [CPU_] |937| 
    1686 000002c2 9A00          MOV       AL,#0                 ; [CPU_] |937| 
    1687 000002c3 28A8          MOV       AH,#16384             ; [CPU_] |937| 
         000002c4 4000 
    1688              $C$DW$142       .dwtag  DW_TAG_TI_branch
    1689                      .dwattr $C$DW$142, DW_AT_low_pc(0x00)
    1690                      .dwattr $C$DW$142, DW_AT_name("_log")
    1691                      .dwattr $C$DW$142, DW_AT_TI_call
    1692 000002c5 7640!         LCR       #_log                 ; [CPU_] |937| 
         000002c6 0000 
    1693                      ; call occurs [#_log] ; [] |937| 
    1694 000002c7 1E42          MOVL      *-SP[2],ACC           ; [CPU_] |937| 
    1695 000002c8 B2A9          MOVL      ACC,XAR1              ; [CPU_] |937| 
    1696              $C$DW$143       .dwtag  DW_TAG_TI_branch
    1697                      .dwattr $C$DW$143, DW_AT_low_pc(0x00)
    1698                      .dwattr $C$DW$143, DW_AT_name("FS$$DIV")
    1699                      .dwattr $C$DW$143, DW_AT_TI_call
    1700 000002c9 7640!         LCR       #FS$$DIV              ; [CPU_] |937| 
         000002ca 0000 
    1701                      ; call occurs [#FS$$DIV] ; [] |937| 
    1702                      .dwpsn  file "c:/ti/ccsv6/tools/compiler/c2000_6.2.5/include/math.h",line 110,column 45,is_stmt
    1703 000002cb 5CAD          MOVZ      AR4,SP                ; [CPU_U] |110| 
    1704 000002cc DC84          SUBB      XAR4,#4               ; [CPU_U] |110| 
    1705              $C$DW$144       .dwtag  DW_TAG_TI_branch
    1706                      .dwattr $C$DW$144, DW_AT_low_pc(0x00)
    1707                      .dwattr $C$DW$144, DW_AT_name("_modf")
    1708                      .dwattr $C$DW$144, DW_AT_TI_call
    1709 000002cd 7640!         LCR       #_modf                ; [CPU_] |110| 
TMS320C2000 Assembler PC v6.2.5 Mon Jun 19 18:10:37 2017

Tools Copyright (c) 1996-2014 Texas Instruments Incorporated
C:\Users\wmj\AppData\Local\Temp\1992810                              PAGE   35

         000002ce 0000 
    1710                      ; call occurs [#_modf] ; [] |110| 
    1711 000002cf 1EA6          MOVL      XAR6,ACC              ; [CPU_] |110| 
    1712 000002d0 9A00          MOV       AL,#0                 ; [CPU_] |110| 
    1713 000002d1 9B00          MOV       AH,#0                 ; [CPU_] |110| 
    1714 000002d2 1E42          MOVL      *-SP[2],ACC           ; [CPU_] |110| 
    1715 000002d3 06A6          MOVL      ACC,XAR6              ; [CPU_] |110| 
    1716              $C$DW$145       .dwtag  DW_TAG_TI_branch
    1717                      .dwattr $C$DW$145, DW_AT_low_pc(0x00)
    1718                      .dwattr $C$DW$145, DW_AT_name("FS$$CMP")
    1719                      .dwattr $C$DW$145, DW_AT_TI_call
    1720 000002d4 7640!         LCR       #FS$$CMP              ; [CPU_] |110| 
         000002d5 0000 
    1721                      ; call occurs [#FS$$CMP] ; [] |110| 
    1722 000002d6 5200          CMPB      AL,#0                 ; [CPU_] |110| 
    1723 000002d7 6203          B         $C$L5,GT              ; [CPU_] |110| 
    1724                      ; branchcc occurs ; [] |110| 
    1725 000002d8 0644          MOVL      ACC,*-SP[4]           ; [CPU_] |110| 
    1726 000002d9 6F07          B         $C$L6,UNC             ; [CPU_] |110| 
    1727                      ; branch occurs ; [] |110| 
    1728 000002da       $C$L5:    
    1729 000002da FF2F          MOV       ACC,#32512 << 15      ; [CPU_] |110| 
         000002db 7F00 
    1730 000002dc 1E42          MOVL      *-SP[2],ACC           ; [CPU_] |110| 
    1731 000002dd 0644          MOVL      ACC,*-SP[4]           ; [CPU_] |110| 
    1732              $C$DW$146       .dwtag  DW_TAG_TI_branch
    1733                      .dwattr $C$DW$146, DW_AT_low_pc(0x00)
    1734                      .dwattr $C$DW$146, DW_AT_name("FS$$ADD")
    1735                      .dwattr $C$DW$146, DW_AT_TI_call
    1736 000002de 7640!         LCR       #FS$$ADD              ; [CPU_] |110| 
         000002df 0000 
    1737                      ; call occurs [#FS$$ADD] ; [] |110| 
    1738 000002e0       $C$L6:    
    1739                      .dwpsn  file "C:/ti/motorware/motorware_1_01_00_18/sw/modules/user/src/32b/user.c",line 939,column 3,
    1740              $C$DW$147       .dwtag  DW_TAG_TI_branch
    1741                      .dwattr $C$DW$147, DW_AT_low_pc(0x00)
    1742                      .dwattr $C$DW$147, DW_AT_name("FS$$NEG")
    1743                      .dwattr $C$DW$147, DW_AT_TI_call
    1744 000002e0 7640!         LCR       #FS$$NEG              ; [CPU_] |939| 
         000002e1 0000 
    1745                      ; call occurs [#FS$$NEG] ; [] |939| 
    1746 000002e2 1E42          MOVL      *-SP[2],ACC           ; [CPU_] |939| 
    1747 000002e3 9A00          MOV       AL,#0                 ; [CPU_] |939| 
    1748 000002e4 28A8          MOV       AH,#16384             ; [CPU_] |939| 
         000002e5 4000 
    1749              $C$DW$148       .dwtag  DW_TAG_TI_branch
    1750                      .dwattr $C$DW$148, DW_AT_low_pc(0x00)
    1751                      .dwattr $C$DW$148, DW_AT_name("_pow")
    1752                      .dwattr $C$DW$148, DW_AT_TI_call
    1753 000002e6 7640!         LCR       #_pow                 ; [CPU_] |939| 
         000002e7 0000 
    1754                      ; call occurs [#_pow] ; [] |939| 
    1755 000002e8 1EA6          MOVL      XAR6,ACC              ; [CPU_] |939| 
    1756 000002e9 28A9          MOV       AL,#828               ; [CPU_] |939| 
         000002ea 033C 
TMS320C2000 Assembler PC v6.2.5 Mon Jun 19 18:10:37 2017

Tools Copyright (c) 1996-2014 Texas Instruments Incorporated
C:\Users\wmj\AppData\Local\Temp\1992810                              PAGE   36

    1757 000002eb 28A8          MOV       AH,#15792             ; [CPU_] |939| 
         000002ec 3DB0 
    1758 000002ed 1E42          MOVL      *-SP[2],ACC           ; [CPU_] |939| 
    1759 000002ee 06A6          MOVL      ACC,XAR6              ; [CPU_] |939| 
    1760              $C$DW$149       .dwtag  DW_TAG_TI_branch
    1761                      .dwattr $C$DW$149, DW_AT_low_pc(0x00)
    1762                      .dwattr $C$DW$149, DW_AT_name("FS$$MPY")
    1763                      .dwattr $C$DW$149, DW_AT_TI_call
    1764 000002ef 7640!         LCR       #FS$$MPY              ; [CPU_] |939| 
         000002f0 0000 
    1765                      ; call occurs [#FS$$MPY] ; [] |939| 
    1766 000002f1 88AD          MOVZ      AR6,SP                ; [CPU_U] |939| 
    1767 000002f2 DE8C          SUBB      XAR6,#12              ; [CPU_U] |939| 
    1768              $C$DW$150       .dwtag  DW_TAG_TI_branch
    1769                      .dwattr $C$DW$150, DW_AT_low_pc(0x00)
    1770                      .dwattr $C$DW$150, DW_AT_name("FS$$TOFD")
    1771                      .dwattr $C$DW$150, DW_AT_TI_call
    1772 000002f3 7640!         LCR       #FS$$TOFD             ; [CPU_] |939| 
         000002f4 0000 
    1773                      ; call occurs [#FS$$TOFD] ; [] |939| 
    1774 000002f5 5CAD          MOVZ      AR4,SP                ; [CPU_U] |939| 
    1775 000002f6 88AD          MOVZ      AR6,SP                ; [CPU_U] |939| 
    1776 000002f7 8F40+         MOVL      XAR5,#$C$FL2          ; [CPU_U] |939| 
         000002f8 0004 
    1777 000002f9 DC8C          SUBB      XAR4,#12              ; [CPU_U] |939| 
    1778 000002fa DE88          SUBB      XAR6,#8               ; [CPU_U] |939| 
    1779              $C$DW$151       .dwtag  DW_TAG_TI_branch
    1780                      .dwattr $C$DW$151, DW_AT_low_pc(0x00)
    1781                      .dwattr $C$DW$151, DW_AT_name("FD$$MPY")
    1782                      .dwattr $C$DW$151, DW_AT_TI_call
    1783 000002fb 7640!         LCR       #FD$$MPY              ; [CPU_] |939| 
         000002fc 0000 
    1784                      ; call occurs [#FD$$MPY] ; [] |939| 
    1785 000002fd 5CAD          MOVZ      AR4,SP                ; [CPU_U] |939| 
    1786 000002fe DC88          SUBB      XAR4,#8               ; [CPU_U] |939| 
    1787              $C$DW$152       .dwtag  DW_TAG_TI_branch
    1788                      .dwattr $C$DW$152, DW_AT_low_pc(0x00)
    1789                      .dwattr $C$DW$152, DW_AT_name("FD$$TOL")
    1790                      .dwattr $C$DW$152, DW_AT_TI_call
    1791 000002ff 7640!         LCR       #FD$$TOL              ; [CPU_] |939| 
         00000300 0000 
    1792                      ; call occurs [#FD$$TOL] ; [] |939| 
    1793 00000301 FE8C          SUBB      SP,#12                ; [CPU_U] 
    1794                      .dwcfi  cfa_offset, -4
    1795 00000302 8BBE          MOVL      XAR1,*--SP            ; [CPU_] 
    1796                      .dwcfi  cfa_offset, -2
    1797                      .dwcfi  restore_reg, 7
    1798              $C$DW$153       .dwtag  DW_TAG_TI_branch
    1799                      .dwattr $C$DW$153, DW_AT_low_pc(0x00)
    1800                      .dwattr $C$DW$153, DW_AT_TI_return
    1801 00000303 0006          LRETR     ; [CPU_] 
    1802                      ; return occurs ; [] 
    1803                      .dwattr $C$DW$138, DW_AT_TI_end_file("C:/ti/motorware/motorware_1_01_00_18/sw/modules/user/src/32b/us
    1804                      .dwattr $C$DW$138, DW_AT_TI_end_line(0x3ac)
    1805                      .dwattr $C$DW$138, DW_AT_TI_end_column(0x01)
TMS320C2000 Assembler PC v6.2.5 Mon Jun 19 18:10:37 2017

Tools Copyright (c) 1996-2014 Texas Instruments Incorporated
C:\Users\wmj\AppData\Local\Temp\1992810                              PAGE   37

    1806                      .dwendentry
    1807                      .dwendtag $C$DW$138
    1808              
    1809 00000304               .sect   ".text"
    1810                      .clink
    1811                      .global _USER_computeFlux_pu_to_Wb_sf
    1812              
    1813              $C$DW$154       .dwtag  DW_TAG_subprogram, DW_AT_name("USER_computeFlux_pu_to_Wb_sf")
    1814                      .dwattr $C$DW$154, DW_AT_low_pc(_USER_computeFlux_pu_to_Wb_sf)
    1815                      .dwattr $C$DW$154, DW_AT_high_pc(0x00)
    1816                      .dwattr $C$DW$154, DW_AT_TI_symbol_name("_USER_computeFlux_pu_to_Wb_sf")
    1817                      .dwattr $C$DW$154, DW_AT_external
    1818                      .dwattr $C$DW$154, DW_AT_type(*$C$DW$T$20)
    1819                      .dwattr $C$DW$154, DW_AT_TI_begin_file("C:/ti/motorware/motorware_1_01_00_18/sw/modules/user/src/32b/
    1820                      .dwattr $C$DW$154, DW_AT_TI_begin_line(0x3b1)
    1821                      .dwattr $C$DW$154, DW_AT_TI_begin_column(0x05)
    1822                      .dwattr $C$DW$154, DW_AT_TI_max_frame_size(-16)
    1823                      .dwpsn  file "C:/ti/motorware/motorware_1_01_00_18/sw/modules/user/src/32b/user.c",line 946,column 1,
    1824              
    1825                      .dwfde $C$DW$CIE, _USER_computeFlux_pu_to_Wb_sf
    1826              
    1827              ;***************************************************************
    1828              ;* FNAME: _USER_computeFlux_pu_to_Wb_sf FR SIZE:  14           *
    1829              ;*                                                             *
    1830              ;* FUNCTION ENVIRONMENT                                        *
    1831              ;*                                                             *
    1832              ;* FUNCTION PROPERTIES                                         *
    1833              ;*                            2 Parameter, 10 Auto,  2 SOE     *
    1834              ;***************************************************************
    1835              
    1836              _USER_computeFlux_pu_to_Wb_sf:
    1837              ;* AL    assigned to _x
    1838              $C$DW$155       .dwtag  DW_TAG_variable, DW_AT_name("x")
    1839                      .dwattr $C$DW$155, DW_AT_TI_symbol_name("_x")
    1840                      .dwattr $C$DW$155, DW_AT_type(*$C$DW$T$17)
    1841                      .dwattr $C$DW$155, DW_AT_location[DW_OP_reg0]
    1842              $C$DW$156       .dwtag  DW_TAG_variable, DW_AT_name("y")
    1843                      .dwattr $C$DW$156, DW_AT_TI_symbol_name("_y")
    1844                      .dwattr $C$DW$156, DW_AT_type(*$C$DW$T$17)
    1845                      .dwattr $C$DW$156, DW_AT_location[DW_OP_breg20 -4]
    1846              ;* AL    assigned to $O$R1
    1847                      .dwcfi  cfa_offset, -2
    1848                      .dwcfi  save_reg_to_mem, 26, 0
    1849                      .dwcfi  save_reg_to_reg, 78, 26
    1850 00000304 B2BD          MOVL      *SP++,XAR1            ; [CPU_] 
    1851                      .dwcfi  save_reg_to_mem, 7, 2
    1852                      .dwcfi  cfa_offset, -4
    1853 00000305 FE0C          ADDB      SP,#12                ; [CPU_U] 
    1854                      .dwcfi  cfa_offset, -16
    1855                      .dwpsn  file "C:/ti/motorware/motorware_1_01_00_18/sw/modules/user/src/32b/user.c",line 949,column 18
    1856 00000306 28A9          MOV       AL,#28519             ; [CPU_] |949| 
         00000307 6F67 
    1857 00000308 28A8          MOV       AH,#15862             ; [CPU_] |949| 
         00000309 3DF6 
    1858              $C$DW$157       .dwtag  DW_TAG_TI_branch
TMS320C2000 Assembler PC v6.2.5 Mon Jun 19 18:10:37 2017

Tools Copyright (c) 1996-2014 Texas Instruments Incorporated
C:\Users\wmj\AppData\Local\Temp\1992810                              PAGE   38

    1859                      .dwattr $C$DW$157, DW_AT_low_pc(0x00)
    1860                      .dwattr $C$DW$157, DW_AT_name("_log")
    1861                      .dwattr $C$DW$157, DW_AT_TI_call
    1862 0000030a 7640!         LCR       #_log                 ; [CPU_] |949| 
         0000030b 0000 
    1863                      ; call occurs [#_log] ; [] |949| 
    1864 0000030c 8BA9          MOVL      XAR1,ACC              ; [CPU_] |949| 
    1865 0000030d 9A00          MOV       AL,#0                 ; [CPU_] |949| 
    1866 0000030e 28A8          MOV       AH,#16384             ; [CPU_] |949| 
         0000030f 4000 
    1867              $C$DW$158       .dwtag  DW_TAG_TI_branch
    1868                      .dwattr $C$DW$158, DW_AT_low_pc(0x00)
    1869                      .dwattr $C$DW$158, DW_AT_name("_log")
    1870                      .dwattr $C$DW$158, DW_AT_TI_call
    1871 00000310 7640!         LCR       #_log                 ; [CPU_] |949| 
         00000311 0000 
    1872                      ; call occurs [#_log] ; [] |949| 
    1873 00000312 1E42          MOVL      *-SP[2],ACC           ; [CPU_] |949| 
    1874 00000313 B2A9          MOVL      ACC,XAR1              ; [CPU_] |949| 
    1875              $C$DW$159       .dwtag  DW_TAG_TI_branch
    1876                      .dwattr $C$DW$159, DW_AT_low_pc(0x00)
    1877                      .dwattr $C$DW$159, DW_AT_name("FS$$DIV")
    1878                      .dwattr $C$DW$159, DW_AT_TI_call
    1879 00000314 7640!         LCR       #FS$$DIV              ; [CPU_] |949| 
         00000315 0000 
    1880                      ; call occurs [#FS$$DIV] ; [] |949| 
    1881                      .dwpsn  file "c:/ti/ccsv6/tools/compiler/c2000_6.2.5/include/math.h",line 110,column 45,is_stmt
    1882 00000316 5CAD          MOVZ      AR4,SP                ; [CPU_U] |110| 
    1883 00000317 DC84          SUBB      XAR4,#4               ; [CPU_U] |110| 
    1884              $C$DW$160       .dwtag  DW_TAG_TI_branch
    1885                      .dwattr $C$DW$160, DW_AT_low_pc(0x00)
    1886                      .dwattr $C$DW$160, DW_AT_name("_modf")
    1887                      .dwattr $C$DW$160, DW_AT_TI_call
    1888 00000318 7640!         LCR       #_modf                ; [CPU_] |110| 
         00000319 0000 
    1889                      ; call occurs [#_modf] ; [] |110| 
    1890 0000031a 1EA6          MOVL      XAR6,ACC              ; [CPU_] |110| 
    1891 0000031b 9A00          MOV       AL,#0                 ; [CPU_] |110| 
    1892 0000031c 9B00          MOV       AH,#0                 ; [CPU_] |110| 
    1893 0000031d 1E42          MOVL      *-SP[2],ACC           ; [CPU_] |110| 
    1894 0000031e 06A6          MOVL      ACC,XAR6              ; [CPU_] |110| 
    1895              $C$DW$161       .dwtag  DW_TAG_TI_branch
    1896                      .dwattr $C$DW$161, DW_AT_low_pc(0x00)
    1897                      .dwattr $C$DW$161, DW_AT_name("FS$$CMP")
    1898                      .dwattr $C$DW$161, DW_AT_TI_call
    1899 0000031f 7640!         LCR       #FS$$CMP              ; [CPU_] |110| 
         00000320 0000 
    1900                      ; call occurs [#FS$$CMP] ; [] |110| 
    1901 00000321 5200          CMPB      AL,#0                 ; [CPU_] |110| 
    1902 00000322 6203          B         $C$L7,GT              ; [CPU_] |110| 
    1903                      ; branchcc occurs ; [] |110| 
    1904 00000323 0644          MOVL      ACC,*-SP[4]           ; [CPU_] |110| 
    1905 00000324 6F07          B         $C$L8,UNC             ; [CPU_] |110| 
    1906                      ; branch occurs ; [] |110| 
    1907 00000325       $C$L7:    
TMS320C2000 Assembler PC v6.2.5 Mon Jun 19 18:10:37 2017

Tools Copyright (c) 1996-2014 Texas Instruments Incorporated
C:\Users\wmj\AppData\Local\Temp\1992810                              PAGE   39

    1908 00000325 FF2F          MOV       ACC,#32512 << 15      ; [CPU_] |110| 
         00000326 7F00 
    1909 00000327 1E42          MOVL      *-SP[2],ACC           ; [CPU_] |110| 
    1910 00000328 0644          MOVL      ACC,*-SP[4]           ; [CPU_] |110| 
    1911              $C$DW$162       .dwtag  DW_TAG_TI_branch
    1912                      .dwattr $C$DW$162, DW_AT_low_pc(0x00)
    1913                      .dwattr $C$DW$162, DW_AT_name("FS$$ADD")
    1914                      .dwattr $C$DW$162, DW_AT_TI_call
    1915 00000329 7640!         LCR       #FS$$ADD              ; [CPU_] |110| 
         0000032a 0000 
    1916                      ; call occurs [#FS$$ADD] ; [] |110| 
    1917 0000032b       $C$L8:    
    1918                      .dwpsn  file "C:/ti/motorware/motorware_1_01_00_18/sw/modules/user/src/32b/user.c",line 951,column 3,
    1919              $C$DW$163       .dwtag  DW_TAG_TI_branch
    1920                      .dwattr $C$DW$163, DW_AT_low_pc(0x00)
    1921                      .dwattr $C$DW$163, DW_AT_name("FS$$NEG")
    1922                      .dwattr $C$DW$163, DW_AT_TI_call
    1923 0000032b 7640!         LCR       #FS$$NEG              ; [CPU_] |951| 
         0000032c 0000 
    1924                      ; call occurs [#FS$$NEG] ; [] |951| 
    1925 0000032d 1E42          MOVL      *-SP[2],ACC           ; [CPU_] |951| 
    1926 0000032e 9A00          MOV       AL,#0                 ; [CPU_] |951| 
    1927 0000032f 28A8          MOV       AH,#16384             ; [CPU_] |951| 
         00000330 4000 
    1928              $C$DW$164       .dwtag  DW_TAG_TI_branch
    1929                      .dwattr $C$DW$164, DW_AT_low_pc(0x00)
    1930                      .dwattr $C$DW$164, DW_AT_name("_pow")
    1931                      .dwattr $C$DW$164, DW_AT_TI_call
    1932 00000331 7640!         LCR       #_pow                 ; [CPU_] |951| 
         00000332 0000 
    1933                      ; call occurs [#_pow] ; [] |951| 
    1934 00000333 1EA6          MOVL      XAR6,ACC              ; [CPU_] |951| 
    1935 00000334 28A9          MOV       AL,#29863             ; [CPU_] |951| 
         00000335 74A7 
    1936 00000336 28A8          MOV       AH,#15260             ; [CPU_] |951| 
         00000337 3B9C 
    1937 00000338 1E42          MOVL      *-SP[2],ACC           ; [CPU_] |951| 
    1938 00000339 06A6          MOVL      ACC,XAR6              ; [CPU_] |951| 
    1939              $C$DW$165       .dwtag  DW_TAG_TI_branch
    1940                      .dwattr $C$DW$165, DW_AT_low_pc(0x00)
    1941                      .dwattr $C$DW$165, DW_AT_name("FS$$MPY")
    1942                      .dwattr $C$DW$165, DW_AT_TI_call
    1943 0000033a 7640!         LCR       #FS$$MPY              ; [CPU_] |951| 
         0000033b 0000 
    1944                      ; call occurs [#FS$$MPY] ; [] |951| 
    1945 0000033c 88AD          MOVZ      AR6,SP                ; [CPU_U] |951| 
    1946 0000033d DE8C          SUBB      XAR6,#12              ; [CPU_U] |951| 
    1947              $C$DW$166       .dwtag  DW_TAG_TI_branch
    1948                      .dwattr $C$DW$166, DW_AT_low_pc(0x00)
    1949                      .dwattr $C$DW$166, DW_AT_name("FS$$TOFD")
    1950                      .dwattr $C$DW$166, DW_AT_TI_call
    1951 0000033e 7640!         LCR       #FS$$TOFD             ; [CPU_] |951| 
         0000033f 0000 
    1952                      ; call occurs [#FS$$TOFD] ; [] |951| 
    1953 00000340 5CAD          MOVZ      AR4,SP                ; [CPU_U] |951| 
TMS320C2000 Assembler PC v6.2.5 Mon Jun 19 18:10:37 2017

Tools Copyright (c) 1996-2014 Texas Instruments Incorporated
C:\Users\wmj\AppData\Local\Temp\1992810                              PAGE   40

    1954 00000341 88AD          MOVZ      AR6,SP                ; [CPU_U] |951| 
    1955 00000342 8F40+         MOVL      XAR5,#$C$FL2          ; [CPU_U] |951| 
         00000343 0004 
    1956 00000344 DC8C          SUBB      XAR4,#12              ; [CPU_U] |951| 
    1957 00000345 DE88          SUBB      XAR6,#8               ; [CPU_U] |951| 
    1958              $C$DW$167       .dwtag  DW_TAG_TI_branch
    1959                      .dwattr $C$DW$167, DW_AT_low_pc(0x00)
    1960                      .dwattr $C$DW$167, DW_AT_name("FD$$MPY")
    1961                      .dwattr $C$DW$167, DW_AT_TI_call
    1962 00000346 7640!         LCR       #FD$$MPY              ; [CPU_] |951| 
         00000347 0000 
    1963                      ; call occurs [#FD$$MPY] ; [] |951| 
    1964 00000348 5CAD          MOVZ      AR4,SP                ; [CPU_U] |951| 
    1965 00000349 DC88          SUBB      XAR4,#8               ; [CPU_U] |951| 
    1966              $C$DW$168       .dwtag  DW_TAG_TI_branch
    1967                      .dwattr $C$DW$168, DW_AT_low_pc(0x00)
    1968                      .dwattr $C$DW$168, DW_AT_name("FD$$TOL")
    1969                      .dwattr $C$DW$168, DW_AT_TI_call
    1970 0000034a 7640!         LCR       #FD$$TOL              ; [CPU_] |951| 
         0000034b 0000 
    1971                      ; call occurs [#FD$$TOL] ; [] |951| 
    1972 0000034c FE8C          SUBB      SP,#12                ; [CPU_U] 
    1973                      .dwcfi  cfa_offset, -4
    1974 0000034d 8BBE          MOVL      XAR1,*--SP            ; [CPU_] 
    1975                      .dwcfi  cfa_offset, -2
    1976                      .dwcfi  restore_reg, 7
    1977              $C$DW$169       .dwtag  DW_TAG_TI_branch
    1978                      .dwattr $C$DW$169, DW_AT_low_pc(0x00)
    1979                      .dwattr $C$DW$169, DW_AT_TI_return
    1980 0000034e 0006          LRETR     ; [CPU_] 
    1981                      ; return occurs ; [] 
    1982                      .dwattr $C$DW$154, DW_AT_TI_end_file("C:/ti/motorware/motorware_1_01_00_18/sw/modules/user/src/32b/us
    1983                      .dwattr $C$DW$154, DW_AT_TI_end_line(0x3b8)
    1984                      .dwattr $C$DW$154, DW_AT_TI_end_column(0x01)
    1985                      .dwendentry
    1986                      .dwendtag $C$DW$154
    1987              
    1988 0000034f               .sect   ".text"
    1989                      .clink
    1990                      .global _USER_computeFlux_pu_to_VpHz_sf
    1991              
    1992              $C$DW$170       .dwtag  DW_TAG_subprogram, DW_AT_name("USER_computeFlux_pu_to_VpHz_sf")
    1993                      .dwattr $C$DW$170, DW_AT_low_pc(_USER_computeFlux_pu_to_VpHz_sf)
    1994                      .dwattr $C$DW$170, DW_AT_high_pc(0x00)
    1995                      .dwattr $C$DW$170, DW_AT_TI_symbol_name("_USER_computeFlux_pu_to_VpHz_sf")
    1996                      .dwattr $C$DW$170, DW_AT_external
    1997                      .dwattr $C$DW$170, DW_AT_type(*$C$DW$T$20)
    1998                      .dwattr $C$DW$170, DW_AT_TI_begin_file("C:/ti/motorware/motorware_1_01_00_18/sw/modules/user/src/32b/
    1999                      .dwattr $C$DW$170, DW_AT_TI_begin_line(0x3bd)
    2000                      .dwattr $C$DW$170, DW_AT_TI_begin_column(0x05)
    2001                      .dwattr $C$DW$170, DW_AT_TI_max_frame_size(-16)
    2002                      .dwpsn  file "C:/ti/motorware/motorware_1_01_00_18/sw/modules/user/src/32b/user.c",line 958,column 1,
    2003              
    2004                      .dwfde $C$DW$CIE, _USER_computeFlux_pu_to_VpHz_sf
    2005              
TMS320C2000 Assembler PC v6.2.5 Mon Jun 19 18:10:37 2017

Tools Copyright (c) 1996-2014 Texas Instruments Incorporated
C:\Users\wmj\AppData\Local\Temp\1992810                              PAGE   41

    2006              ;***************************************************************
    2007              ;* FNAME: _USER_computeFlux_pu_to_VpHz_sf FR SIZE:  14           *
    2008              ;*                                                             *
    2009              ;* FUNCTION ENVIRONMENT                                        *
    2010              ;*                                                             *
    2011              ;* FUNCTION PROPERTIES                                         *
    2012              ;*                            2 Parameter, 10 Auto,  2 SOE     *
    2013              ;***************************************************************
    2014              
    2015              _USER_computeFlux_pu_to_VpHz_sf:
    2016              ;* AL    assigned to _x
    2017              $C$DW$171       .dwtag  DW_TAG_variable, DW_AT_name("x")
    2018                      .dwattr $C$DW$171, DW_AT_TI_symbol_name("_x")
    2019                      .dwattr $C$DW$171, DW_AT_type(*$C$DW$T$17)
    2020                      .dwattr $C$DW$171, DW_AT_location[DW_OP_reg0]
    2021              $C$DW$172       .dwtag  DW_TAG_variable, DW_AT_name("y")
    2022                      .dwattr $C$DW$172, DW_AT_TI_symbol_name("_y")
    2023                      .dwattr $C$DW$172, DW_AT_type(*$C$DW$T$17)
    2024                      .dwattr $C$DW$172, DW_AT_location[DW_OP_breg20 -4]
    2025              ;* AL    assigned to $O$R1
    2026                      .dwcfi  cfa_offset, -2
    2027                      .dwcfi  save_reg_to_mem, 26, 0
    2028                      .dwcfi  save_reg_to_reg, 78, 26
    2029 0000034f B2BD          MOVL      *SP++,XAR1            ; [CPU_] 
    2030                      .dwcfi  save_reg_to_mem, 7, 2
    2031                      .dwcfi  cfa_offset, -4
    2032 00000350 FE0C          ADDB      SP,#12                ; [CPU_U] 
    2033                      .dwcfi  cfa_offset, -16
    2034                      .dwpsn  file "C:/ti/motorware/motorware_1_01_00_18/sw/modules/user/src/32b/user.c",line 961,column 18
    2035 00000351 28A9          MOV       AL,#28519             ; [CPU_] |961| 
         00000352 6F67 
    2036 00000353 28A8          MOV       AH,#15862             ; [CPU_] |961| 
         00000354 3DF6 
    2037              $C$DW$173       .dwtag  DW_TAG_TI_branch
    2038                      .dwattr $C$DW$173, DW_AT_low_pc(0x00)
    2039                      .dwattr $C$DW$173, DW_AT_name("_log")
    2040                      .dwattr $C$DW$173, DW_AT_TI_call
    2041 00000355 7640!         LCR       #_log                 ; [CPU_] |961| 
         00000356 0000 
    2042                      ; call occurs [#_log] ; [] |961| 
    2043 00000357 8BA9          MOVL      XAR1,ACC              ; [CPU_] |961| 
    2044 00000358 9A00          MOV       AL,#0                 ; [CPU_] |961| 
    2045 00000359 28A8          MOV       AH,#16384             ; [CPU_] |961| 
         0000035a 4000 
    2046              $C$DW$174       .dwtag  DW_TAG_TI_branch
    2047                      .dwattr $C$DW$174, DW_AT_low_pc(0x00)
    2048                      .dwattr $C$DW$174, DW_AT_name("_log")
    2049                      .dwattr $C$DW$174, DW_AT_TI_call
    2050 0000035b 7640!         LCR       #_log                 ; [CPU_] |961| 
         0000035c 0000 
    2051                      ; call occurs [#_log] ; [] |961| 
    2052 0000035d 1E42          MOVL      *-SP[2],ACC           ; [CPU_] |961| 
    2053 0000035e B2A9          MOVL      ACC,XAR1              ; [CPU_] |961| 
    2054              $C$DW$175       .dwtag  DW_TAG_TI_branch
    2055                      .dwattr $C$DW$175, DW_AT_low_pc(0x00)
TMS320C2000 Assembler PC v6.2.5 Mon Jun 19 18:10:37 2017

Tools Copyright (c) 1996-2014 Texas Instruments Incorporated
C:\Users\wmj\AppData\Local\Temp\1992810                              PAGE   42

    2056                      .dwattr $C$DW$175, DW_AT_name("FS$$DIV")
    2057                      .dwattr $C$DW$175, DW_AT_TI_call
    2058 0000035f 7640!         LCR       #FS$$DIV              ; [CPU_] |961| 
         00000360 0000 
    2059                      ; call occurs [#FS$$DIV] ; [] |961| 
    2060                      .dwpsn  file "c:/ti/ccsv6/tools/compiler/c2000_6.2.5/include/math.h",line 110,column 45,is_stmt
    2061 00000361 5CAD          MOVZ      AR4,SP                ; [CPU_U] |110| 
    2062 00000362 DC84          SUBB      XAR4,#4               ; [CPU_U] |110| 
    2063              $C$DW$176       .dwtag  DW_TAG_TI_branch
    2064                      .dwattr $C$DW$176, DW_AT_low_pc(0x00)
    2065                      .dwattr $C$DW$176, DW_AT_name("_modf")
    2066                      .dwattr $C$DW$176, DW_AT_TI_call
    2067 00000363 7640!         LCR       #_modf                ; [CPU_] |110| 
         00000364 0000 
    2068                      ; call occurs [#_modf] ; [] |110| 
    2069 00000365 1EA6          MOVL      XAR6,ACC              ; [CPU_] |110| 
    2070 00000366 9A00          MOV       AL,#0                 ; [CPU_] |110| 
    2071 00000367 9B00          MOV       AH,#0                 ; [CPU_] |110| 
    2072 00000368 1E42          MOVL      *-SP[2],ACC           ; [CPU_] |110| 
    2073 00000369 06A6          MOVL      ACC,XAR6              ; [CPU_] |110| 
    2074              $C$DW$177       .dwtag  DW_TAG_TI_branch
    2075                      .dwattr $C$DW$177, DW_AT_low_pc(0x00)
    2076                      .dwattr $C$DW$177, DW_AT_name("FS$$CMP")
    2077                      .dwattr $C$DW$177, DW_AT_TI_call
    2078 0000036a 7640!         LCR       #FS$$CMP              ; [CPU_] |110| 
         0000036b 0000 
    2079                      ; call occurs [#FS$$CMP] ; [] |110| 
    2080 0000036c 5200          CMPB      AL,#0                 ; [CPU_] |110| 
    2081 0000036d 6203          B         $C$L9,GT              ; [CPU_] |110| 
    2082                      ; branchcc occurs ; [] |110| 
    2083 0000036e 0644          MOVL      ACC,*-SP[4]           ; [CPU_] |110| 
    2084 0000036f 6F07          B         $C$L10,UNC            ; [CPU_] |110| 
    2085                      ; branch occurs ; [] |110| 
    2086 00000370       $C$L9:    
    2087 00000370 FF2F          MOV       ACC,#32512 << 15      ; [CPU_] |110| 
         00000371 7F00 
    2088 00000372 1E42          MOVL      *-SP[2],ACC           ; [CPU_] |110| 
    2089 00000373 0644          MOVL      ACC,*-SP[4]           ; [CPU_] |110| 
    2090              $C$DW$178       .dwtag  DW_TAG_TI_branch
    2091                      .dwattr $C$DW$178, DW_AT_low_pc(0x00)
    2092                      .dwattr $C$DW$178, DW_AT_name("FS$$ADD")
    2093                      .dwattr $C$DW$178, DW_AT_TI_call
    2094 00000374 7640!         LCR       #FS$$ADD              ; [CPU_] |110| 
         00000375 0000 
    2095                      ; call occurs [#FS$$ADD] ; [] |110| 
    2096 00000376       $C$L10:    
    2097                      .dwpsn  file "C:/ti/motorware/motorware_1_01_00_18/sw/modules/user/src/32b/user.c",line 963,column 3,
    2098              $C$DW$179       .dwtag  DW_TAG_TI_branch
    2099                      .dwattr $C$DW$179, DW_AT_low_pc(0x00)
    2100                      .dwattr $C$DW$179, DW_AT_name("FS$$NEG")
    2101                      .dwattr $C$DW$179, DW_AT_TI_call
    2102 00000376 7640!         LCR       #FS$$NEG              ; [CPU_] |963| 
         00000377 0000 
    2103                      ; call occurs [#FS$$NEG] ; [] |963| 
    2104 00000378 1E42          MOVL      *-SP[2],ACC           ; [CPU_] |963| 
TMS320C2000 Assembler PC v6.2.5 Mon Jun 19 18:10:37 2017

Tools Copyright (c) 1996-2014 Texas Instruments Incorporated
C:\Users\wmj\AppData\Local\Temp\1992810                              PAGE   43

    2105 00000379 9A00          MOV       AL,#0                 ; [CPU_] |963| 
    2106 0000037a 28A8          MOV       AH,#16384             ; [CPU_] |963| 
         0000037b 4000 
    2107              $C$DW$180       .dwtag  DW_TAG_TI_branch
    2108                      .dwattr $C$DW$180, DW_AT_low_pc(0x00)
    2109                      .dwattr $C$DW$180, DW_AT_name("_pow")
    2110                      .dwattr $C$DW$180, DW_AT_TI_call
    2111 0000037c 7640!         LCR       #_pow                 ; [CPU_] |963| 
         0000037d 0000 
    2112                      ; call occurs [#_pow] ; [] |963| 
    2113 0000037e 1EA6          MOVL      XAR6,ACC              ; [CPU_] |963| 
    2114 0000037f 28A9          MOV       AL,#49807             ; [CPU_] |963| 
         00000380 C28F 
    2115 00000381 28A8          MOV       AH,#15605             ; [CPU_] |963| 
         00000382 3CF5 
    2116 00000383 1E42          MOVL      *-SP[2],ACC           ; [CPU_] |963| 
    2117 00000384 06A6          MOVL      ACC,XAR6              ; [CPU_] |963| 
    2118              $C$DW$181       .dwtag  DW_TAG_TI_branch
    2119                      .dwattr $C$DW$181, DW_AT_low_pc(0x00)
    2120                      .dwattr $C$DW$181, DW_AT_name("FS$$MPY")
    2121                      .dwattr $C$DW$181, DW_AT_TI_call
    2122 00000385 7640!         LCR       #FS$$MPY              ; [CPU_] |963| 
         00000386 0000 
    2123                      ; call occurs [#FS$$MPY] ; [] |963| 
    2124 00000387 88AD          MOVZ      AR6,SP                ; [CPU_U] |963| 
    2125 00000388 DE8C          SUBB      XAR6,#12              ; [CPU_U] |963| 
    2126              $C$DW$182       .dwtag  DW_TAG_TI_branch
    2127                      .dwattr $C$DW$182, DW_AT_low_pc(0x00)
    2128                      .dwattr $C$DW$182, DW_AT_name("FS$$TOFD")
    2129                      .dwattr $C$DW$182, DW_AT_TI_call
    2130 00000389 7640!         LCR       #FS$$TOFD             ; [CPU_] |963| 
         0000038a 0000 
    2131                      ; call occurs [#FS$$TOFD] ; [] |963| 
    2132 0000038b 5CAD          MOVZ      AR4,SP                ; [CPU_U] |963| 
    2133 0000038c 88AD          MOVZ      AR6,SP                ; [CPU_U] |963| 
    2134 0000038d 8F40+         MOVL      XAR5,#$C$FL2          ; [CPU_U] |963| 
         0000038e 0004 
    2135 0000038f DC8C          SUBB      XAR4,#12              ; [CPU_U] |963| 
    2136 00000390 DE88          SUBB      XAR6,#8               ; [CPU_U] |963| 
    2137              $C$DW$183       .dwtag  DW_TAG_TI_branch
    2138                      .dwattr $C$DW$183, DW_AT_low_pc(0x00)
    2139                      .dwattr $C$DW$183, DW_AT_name("FD$$MPY")
    2140                      .dwattr $C$DW$183, DW_AT_TI_call
    2141 00000391 7640!         LCR       #FD$$MPY              ; [CPU_] |963| 
         00000392 0000 
    2142                      ; call occurs [#FD$$MPY] ; [] |963| 
    2143 00000393 5CAD          MOVZ      AR4,SP                ; [CPU_U] |963| 
    2144 00000394 DC88          SUBB      XAR4,#8               ; [CPU_U] |963| 
    2145              $C$DW$184       .dwtag  DW_TAG_TI_branch
    2146                      .dwattr $C$DW$184, DW_AT_low_pc(0x00)
    2147                      .dwattr $C$DW$184, DW_AT_name("FD$$TOL")
    2148                      .dwattr $C$DW$184, DW_AT_TI_call
    2149 00000395 7640!         LCR       #FD$$TOL              ; [CPU_] |963| 
         00000396 0000 
    2150                      ; call occurs [#FD$$TOL] ; [] |963| 
TMS320C2000 Assembler PC v6.2.5 Mon Jun 19 18:10:37 2017

Tools Copyright (c) 1996-2014 Texas Instruments Incorporated
C:\Users\wmj\AppData\Local\Temp\1992810                              PAGE   44

    2151 00000397 FE8C          SUBB      SP,#12                ; [CPU_U] 
    2152                      .dwcfi  cfa_offset, -4
    2153 00000398 8BBE          MOVL      XAR1,*--SP            ; [CPU_] 
    2154                      .dwcfi  cfa_offset, -2
    2155                      .dwcfi  restore_reg, 7
    2156              $C$DW$185       .dwtag  DW_TAG_TI_branch
    2157                      .dwattr $C$DW$185, DW_AT_low_pc(0x00)
    2158                      .dwattr $C$DW$185, DW_AT_TI_return
    2159 00000399 0006          LRETR     ; [CPU_] 
    2160                      ; return occurs ; [] 
    2161                      .dwattr $C$DW$170, DW_AT_TI_end_file("C:/ti/motorware/motorware_1_01_00_18/sw/modules/user/src/32b/us
    2162                      .dwattr $C$DW$170, DW_AT_TI_end_line(0x3c4)
    2163                      .dwattr $C$DW$170, DW_AT_TI_end_column(0x01)
    2164                      .dwendentry
    2165                      .dwendtag $C$DW$170
    2166              
    2167 0000039a               .sect   ".text"
    2168                      .clink
    2169                      .global _USER_computeFlux
    2170              
    2171              $C$DW$186       .dwtag  DW_TAG_subprogram, DW_AT_name("USER_computeFlux")
    2172                      .dwattr $C$DW$186, DW_AT_low_pc(_USER_computeFlux)
    2173                      .dwattr $C$DW$186, DW_AT_high_pc(0x00)
    2174                      .dwattr $C$DW$186, DW_AT_TI_symbol_name("_USER_computeFlux")
    2175                      .dwattr $C$DW$186, DW_AT_external
    2176                      .dwattr $C$DW$186, DW_AT_type(*$C$DW$T$20)
    2177                      .dwattr $C$DW$186, DW_AT_TI_begin_file("C:/ti/motorware/motorware_1_01_00_18/sw/modules/user/src/32b/
    2178                      .dwattr $C$DW$186, DW_AT_TI_begin_line(0x3c9)
    2179                      .dwattr $C$DW$186, DW_AT_TI_begin_column(0x05)
    2180                      .dwattr $C$DW$186, DW_AT_TI_max_frame_size(-4)
    2181                      .dwpsn  file "C:/ti/motorware/motorware_1_01_00_18/sw/modules/user/src/32b/user.c",line 970,column 1,
    2182              
    2183                      .dwfde $C$DW$CIE, _USER_computeFlux
    2184              $C$DW$187       .dwtag  DW_TAG_formal_parameter, DW_AT_name("handle")
    2185                      .dwattr $C$DW$187, DW_AT_TI_symbol_name("_handle")
    2186                      .dwattr $C$DW$187, DW_AT_type(*$C$DW$T$87)
    2187                      .dwattr $C$DW$187, DW_AT_location[DW_OP_reg12]
    2188              $C$DW$188       .dwtag  DW_TAG_formal_parameter, DW_AT_name("sf")
    2189                      .dwattr $C$DW$188, DW_AT_TI_symbol_name("_sf")
    2190                      .dwattr $C$DW$188, DW_AT_type(*$C$DW$T$93)
    2191                      .dwattr $C$DW$188, DW_AT_location[DW_OP_reg0]
    2192              
    2193              ;***************************************************************
    2194              ;* FNAME: _USER_computeFlux             FR SIZE:   2           *
    2195              ;*                                                             *
    2196              ;* FUNCTION ENVIRONMENT                                        *
    2197              ;*                                                             *
    2198              ;* FUNCTION PROPERTIES                                         *
    2199              ;*                            0 Parameter,  0 Auto,  2 SOE     *
    2200              ;***************************************************************
    2201              
    2202              _USER_computeFlux:
    2203              ;* AR4   assigned to _handle
    2204              $C$DW$189       .dwtag  DW_TAG_variable, DW_AT_name("handle")
    2205                      .dwattr $C$DW$189, DW_AT_TI_symbol_name("_handle")
TMS320C2000 Assembler PC v6.2.5 Mon Jun 19 18:10:37 2017

Tools Copyright (c) 1996-2014 Texas Instruments Incorporated
C:\Users\wmj\AppData\Local\Temp\1992810                              PAGE   45

    2206                      .dwattr $C$DW$189, DW_AT_type(*$C$DW$T$88)
    2207                      .dwattr $C$DW$189, DW_AT_location[DW_OP_reg12]
    2208              ;* AR1   assigned to _sf
    2209              $C$DW$190       .dwtag  DW_TAG_variable, DW_AT_name("sf")
    2210                      .dwattr $C$DW$190, DW_AT_TI_symbol_name("_sf")
    2211                      .dwattr $C$DW$190, DW_AT_type(*$C$DW$T$93)
    2212                      .dwattr $C$DW$190, DW_AT_location[DW_OP_reg6]
    2213                      .dwcfi  cfa_offset, -2
    2214                      .dwcfi  save_reg_to_mem, 26, 0
    2215                      .dwcfi  save_reg_to_reg, 78, 26
    2216 0000039a B2BD          MOVL      *SP++,XAR1            ; [CPU_] 
    2217                      .dwcfi  save_reg_to_mem, 7, 2
    2218                      .dwcfi  cfa_offset, -4
    2219                      .dwpsn  file "C:/ti/motorware/motorware_1_01_00_18/sw/modules/user/src/32b/user.c",line 973,column 3,
    2220 0000039b D018          MOVB      XAR0,#24              ; [CPU_] |973| 
    2221                      .dwpsn  file "C:/ti/motorware/motorware_1_01_00_18/sw/modules/user/src/32b/user.c",line 970,column 1,
    2222 0000039c 8BA9          MOVL      XAR1,ACC              ; [CPU_] |970| 
    2223                      .dwpsn  file "C:/ti/motorware/motorware_1_01_00_18/sw/modules/user/src/32b/user.c",line 973,column 3,
    2224 0000039d 8A94          MOVL      XAR4,*+XAR4[AR0]      ; [CPU_] |973| 
    2225              $C$DW$191       .dwtag  DW_TAG_TI_branch
    2226                      .dwattr $C$DW$191, DW_AT_low_pc(0x00)
    2227                      .dwattr $C$DW$191, DW_AT_name("_EST_getFlux_pu")
    2228                      .dwattr $C$DW$191, DW_AT_TI_call
    2229 0000039e 7640!         LCR       #_EST_getFlux_pu      ; [CPU_] |973| 
         0000039f 0000 
    2230                      ; call occurs [#_EST_getFlux_pu] ; [] |973| 
    2231 000003a0 1EAC          MOVL      XT,ACC                ; [CPU_] |973| 
    2232 000003a1 5605          IMPYL     P,XT,XAR1             ; [CPU_] |973| 
         000003a2 00A1 
    2233 000003a3 5663          QMPYL     ACC,XT,XAR1           ; [CPU_] |973| 
         000003a4 00A1 
    2234 000003a5 8BBE          MOVL      XAR1,*--SP            ; [CPU_] 
    2235                      .dwcfi  cfa_offset, -2
    2236                      .dwcfi  restore_reg, 7
    2237 000003a6 56A7          LSL64     ACC:P,#8              ; [CPU_] |973| 
    2238              $C$DW$192       .dwtag  DW_TAG_TI_branch
    2239                      .dwattr $C$DW$192, DW_AT_low_pc(0x00)
    2240                      .dwattr $C$DW$192, DW_AT_TI_return
    2241 000003a7 0006          LRETR     ; [CPU_] 
    2242                      ; return occurs ; [] 
    2243                      .dwattr $C$DW$186, DW_AT_TI_end_file("C:/ti/motorware/motorware_1_01_00_18/sw/modules/user/src/32b/us
    2244                      .dwattr $C$DW$186, DW_AT_TI_end_line(0x3ce)
    2245                      .dwattr $C$DW$186, DW_AT_TI_end_column(0x01)
    2246                      .dwendentry
    2247                      .dwendtag $C$DW$186
    2248              
    2249 000003a8               .sect   ".text"
    2250                      .clink
    2251                      .global _USER_checkForErrors
    2252              
    2253              $C$DW$193       .dwtag  DW_TAG_subprogram, DW_AT_name("USER_checkForErrors")
    2254                      .dwattr $C$DW$193, DW_AT_low_pc(_USER_checkForErrors)
    2255                      .dwattr $C$DW$193, DW_AT_high_pc(0x00)
    2256                      .dwattr $C$DW$193, DW_AT_TI_symbol_name("_USER_checkForErrors")
    2257                      .dwattr $C$DW$193, DW_AT_external
TMS320C2000 Assembler PC v6.2.5 Mon Jun 19 18:10:37 2017

Tools Copyright (c) 1996-2014 Texas Instruments Incorporated
C:\Users\wmj\AppData\Local\Temp\1992810                              PAGE   46

    2258                      .dwattr $C$DW$193, DW_AT_TI_begin_file("C:/ti/motorware/motorware_1_01_00_18/sw/modules/user/src/32b/
    2259                      .dwattr $C$DW$193, DW_AT_TI_begin_line(0xc5)
    2260                      .dwattr $C$DW$193, DW_AT_TI_begin_column(0x06)
    2261                      .dwattr $C$DW$193, DW_AT_TI_max_frame_size(-2)
    2262                      .dwpsn  file "C:/ti/motorware/motorware_1_01_00_18/sw/modules/user/src/32b/user.c",line 198,column 1,
    2263              
    2264                      .dwfde $C$DW$CIE, _USER_checkForErrors
    2265              $C$DW$194       .dwtag  DW_TAG_formal_parameter, DW_AT_name("pUserParams")
    2266                      .dwattr $C$DW$194, DW_AT_TI_symbol_name("_pUserParams")
    2267                      .dwattr $C$DW$194, DW_AT_type(*$C$DW$T$79)
    2268                      .dwattr $C$DW$194, DW_AT_location[DW_OP_reg12]
    2269              
    2270              ;***************************************************************
    2271              ;* FNAME: _USER_checkForErrors          FR SIZE:   0           *
    2272              ;*                                                             *
    2273              ;* FUNCTION ENVIRONMENT                                        *
    2274              ;*                                                             *
    2275              ;* FUNCTION PROPERTIES                                         *
    2276              ;*                            0 Parameter,  0 Auto,  0 SOE     *
    2277              ;***************************************************************
    2278              
    2279              _USER_checkForErrors:
    2280              ;* AR4   assigned to _pUserParams
    2281              $C$DW$195       .dwtag  DW_TAG_variable, DW_AT_name("pUserParams")
    2282                      .dwattr $C$DW$195, DW_AT_TI_symbol_name("_pUserParams")
    2283                      .dwattr $C$DW$195, DW_AT_type(*$C$DW$T$90)
    2284                      .dwattr $C$DW$195, DW_AT_location[DW_OP_reg12]
    2285                      .dwcfi  cfa_offset, -2
    2286                      .dwcfi  save_reg_to_mem, 26, 0
    2287                      .dwcfi  save_reg_to_reg, 78, 26
    2288                      .dwpsn  file "C:/ti/motorware/motorware_1_01_00_18/sw/modules/user/src/32b/user.c",line 199,column 3,
    2289 000003a8 9A00          MOVB      AL,#0                 ; [CPU_] |199| 
    2290              $C$DW$196       .dwtag  DW_TAG_TI_branch
    2291                      .dwattr $C$DW$196, DW_AT_low_pc(0x00)
    2292                      .dwattr $C$DW$196, DW_AT_name("_USER_setErrorCode")
    2293                      .dwattr $C$DW$196, DW_AT_TI_call
    2294 000003a9 7640'         LCR       #_USER_setErrorCode   ; [CPU_] |199| 
         000003aa 01C7 
    2295                      ; call occurs [#_USER_setErrorCode] ; [] |199| 
    2296              $C$DW$197       .dwtag  DW_TAG_TI_branch
    2297                      .dwattr $C$DW$197, DW_AT_low_pc(0x00)
    2298                      .dwattr $C$DW$197, DW_AT_TI_return
    2299 000003ab 0006          LRETR     ; [CPU_] 
    2300                      ; return occurs ; [] 
    2301                      .dwattr $C$DW$193, DW_AT_TI_end_file("C:/ti/motorware/motorware_1_01_00_18/sw/modules/user/src/32b/us
    2302                      .dwattr $C$DW$193, DW_AT_TI_end_line(0x332)
    2303                      .dwattr $C$DW$193, DW_AT_TI_end_column(0x01)
    2304                      .dwendentry
    2305                      .dwendtag $C$DW$193
    2306              
    2307 000003ac               .sect   ".text"
    2308                      .clink
    2309                      .global _USER_calcPIgains
    2310              
    2311              $C$DW$198       .dwtag  DW_TAG_subprogram, DW_AT_name("USER_calcPIgains")
TMS320C2000 Assembler PC v6.2.5 Mon Jun 19 18:10:37 2017

Tools Copyright (c) 1996-2014 Texas Instruments Incorporated
C:\Users\wmj\AppData\Local\Temp\1992810                              PAGE   47

    2312                      .dwattr $C$DW$198, DW_AT_low_pc(_USER_calcPIgains)
    2313                      .dwattr $C$DW$198, DW_AT_high_pc(0x00)
    2314                      .dwattr $C$DW$198, DW_AT_TI_symbol_name("_USER_calcPIgains")
    2315                      .dwattr $C$DW$198, DW_AT_external
    2316                      .dwattr $C$DW$198, DW_AT_TI_begin_file("C:/ti/motorware/motorware_1_01_00_18/sw/modules/user/src/32b/
    2317                      .dwattr $C$DW$198, DW_AT_TI_begin_line(0x359)
    2318                      .dwattr $C$DW$198, DW_AT_TI_begin_column(0x06)
    2319                      .dwattr $C$DW$198, DW_AT_TI_max_frame_size(-30)
    2320                      .dwpsn  file "C:/ti/motorware/motorware_1_01_00_18/sw/modules/user/src/32b/user.c",line 858,column 1,
    2321              
    2322                      .dwfde $C$DW$CIE, _USER_calcPIgains
    2323              $C$DW$199       .dwtag  DW_TAG_formal_parameter, DW_AT_name("handle")
    2324                      .dwattr $C$DW$199, DW_AT_TI_symbol_name("_handle")
    2325                      .dwattr $C$DW$199, DW_AT_type(*$C$DW$T$87)
    2326                      .dwattr $C$DW$199, DW_AT_location[DW_OP_reg12]
    2327              
    2328              ;***************************************************************
    2329              ;* FNAME: _USER_calcPIgains             FR SIZE:  28           *
    2330              ;*                                                             *
    2331              ;* FUNCTION ENVIRONMENT                                        *
    2332              ;*                                                             *
    2333              ;* FUNCTION PROPERTIES                                         *
    2334              ;*                            4 Parameter, 18 Auto,  6 SOE     *
    2335              ;***************************************************************
    2336              
    2337              _USER_calcPIgains:
    2338              ;* AR1   assigned to $O$C1
    2339              ;* AR3   assigned to _handle
    2340              $C$DW$200       .dwtag  DW_TAG_variable, DW_AT_name("handle")
    2341                      .dwattr $C$DW$200, DW_AT_TI_symbol_name("_handle")
    2342                      .dwattr $C$DW$200, DW_AT_type(*$C$DW$T$88)
    2343                      .dwattr $C$DW$200, DW_AT_location[DW_OP_reg10]
    2344              $C$DW$201       .dwtag  DW_TAG_variable, DW_AT_name("ctrlPeriod_sec")
    2345                      .dwattr $C$DW$201, DW_AT_TI_symbol_name("_ctrlPeriod_sec")
    2346                      .dwattr $C$DW$201, DW_AT_type(*$C$DW$T$54)
    2347                      .dwattr $C$DW$201, DW_AT_location[DW_OP_breg20 -14]
    2348              ;* AR2   assigned to _Ls_d
    2349              $C$DW$202       .dwtag  DW_TAG_variable, DW_AT_name("Ls_d")
    2350                      .dwattr $C$DW$202, DW_AT_TI_symbol_name("_Ls_d")
    2351                      .dwattr $C$DW$202, DW_AT_type(*$C$DW$T$54)
    2352                      .dwattr $C$DW$202, DW_AT_location[DW_OP_reg8]
    2353              $C$DW$203       .dwtag  DW_TAG_variable, DW_AT_name("Ls_q")
    2354                      .dwattr $C$DW$203, DW_AT_TI_symbol_name("_Ls_q")
    2355                      .dwattr $C$DW$203, DW_AT_type(*$C$DW$T$54)
    2356                      .dwattr $C$DW$203, DW_AT_location[DW_OP_breg20 -16]
    2357              $C$DW$204       .dwtag  DW_TAG_variable, DW_AT_name("Rs")
    2358                      .dwattr $C$DW$204, DW_AT_TI_symbol_name("_Rs")
    2359                      .dwattr $C$DW$204, DW_AT_type(*$C$DW$T$54)
    2360                      .dwattr $C$DW$204, DW_AT_location[DW_OP_breg20 -18]
    2361              $C$DW$205       .dwtag  DW_TAG_variable, DW_AT_name("Kp_Id")
    2362                      .dwattr $C$DW$205, DW_AT_TI_symbol_name("_Kp_Id")
    2363                      .dwattr $C$DW$205, DW_AT_type(*$C$DW$T$20)
    2364                      .dwattr $C$DW$205, DW_AT_location[DW_OP_breg20 -20]
    2365              ;* AR2   assigned to _Ki_Id
    2366              $C$DW$206       .dwtag  DW_TAG_variable, DW_AT_name("Ki_Id")
TMS320C2000 Assembler PC v6.2.5 Mon Jun 19 18:10:37 2017

Tools Copyright (c) 1996-2014 Texas Instruments Incorporated
C:\Users\wmj\AppData\Local\Temp\1992810                              PAGE   48

    2367                      .dwattr $C$DW$206, DW_AT_TI_symbol_name("_Ki_Id")
    2368                      .dwattr $C$DW$206, DW_AT_type(*$C$DW$T$20)
    2369                      .dwattr $C$DW$206, DW_AT_location[DW_OP_reg8]
    2370              $C$DW$207       .dwtag  DW_TAG_variable, DW_AT_name("Kp_Iq")
    2371                      .dwattr $C$DW$207, DW_AT_TI_symbol_name("_Kp_Iq")
    2372                      .dwattr $C$DW$207, DW_AT_type(*$C$DW$T$20)
    2373                      .dwattr $C$DW$207, DW_AT_location[DW_OP_breg20 -22]
    2374              ;* AR1   assigned to _Ki_Iq
    2375              $C$DW$208       .dwtag  DW_TAG_variable, DW_AT_name("Ki_Iq")
    2376                      .dwattr $C$DW$208, DW_AT_TI_symbol_name("_Ki_Iq")
    2377                      .dwattr $C$DW$208, DW_AT_type(*$C$DW$T$20)
    2378                      .dwattr $C$DW$208, DW_AT_location[DW_OP_reg6]
    2379                      .dwcfi  cfa_offset, -2
    2380                      .dwcfi  save_reg_to_mem, 26, 0
    2381                      .dwcfi  save_reg_to_reg, 78, 26
    2382 000003ac B2BD          MOVL      *SP++,XAR1            ; [CPU_] 
    2383                      .dwcfi  save_reg_to_mem, 7, 2
    2384                      .dwcfi  cfa_offset, -4
    2385 000003ad AABD          MOVL      *SP++,XAR2            ; [CPU_] 
    2386                      .dwcfi  save_reg_to_mem, 9, 4
    2387                      .dwcfi  cfa_offset, -6
    2388 000003ae A2BD          MOVL      *SP++,XAR3            ; [CPU_] 
    2389                      .dwcfi  save_reg_to_mem, 11, 6
    2390                      .dwcfi  cfa_offset, -8
    2391 000003af FE16          ADDB      SP,#22                ; [CPU_U] 
    2392                      .dwcfi  cfa_offset, -30
    2393                      .dwpsn  file "C:/ti/motorware/motorware_1_01_00_18/sw/modules/ctrl/src/32b/ctrl.h",line 165,column 3,
    2394 000003b0 D0A6          MOVB      XAR0,#166             ; [CPU_] |165| 
    2395                      .dwpsn  file "C:/ti/motorware/motorware_1_01_00_18/sw/modules/user/src/32b/user.c",line 858,column 1,
    2396 000003b1 82A4          MOVL      XAR3,XAR4             ; [CPU_] |858| 
    2397                      .dwpsn  file "C:/ti/motorware/motorware_1_01_00_18/sw/modules/ctrl/src/32b/ctrl.h",line 165,column 3,
    2398 000003b2 0693          MOVL      ACC,*+XAR3[AR0]       ; [CPU_] |165| 
    2399                      .dwpsn  file "C:/ti/motorware/motorware_1_01_00_18/sw/modules/user/src/32b/user.c",line 888,column 3,
    2400 000003b3 D018          MOVB      XAR0,#24              ; [CPU_] |888| 
    2401                      .dwpsn  file "C:/ti/motorware/motorware_1_01_00_18/sw/modules/ctrl/src/32b/ctrl.h",line 165,column 3,
    2402 000003b4 1E4E          MOVL      *-SP[14],ACC          ; [CPU_] |165| 
    2403                      .dwpsn  file "C:/ti/motorware/motorware_1_01_00_18/sw/modules/user/src/32b/user.c",line 888,column 3,
    2404 000003b5 8A93          MOVL      XAR4,*+XAR3[AR0]      ; [CPU_] |888| 
    2405              $C$DW$209       .dwtag  DW_TAG_TI_branch
    2406                      .dwattr $C$DW$209, DW_AT_low_pc(0x00)
    2407                      .dwattr $C$DW$209, DW_AT_name("_EST_getLs_d_H")
    2408                      .dwattr $C$DW$209, DW_AT_TI_call
    2409 000003b6 7640!         LCR       #_EST_getLs_d_H       ; [CPU_] |888| 
         000003b7 0000 
    2410                      ; call occurs [#_EST_getLs_d_H] ; [] |888| 
    2411                      .dwpsn  file "C:/ti/motorware/motorware_1_01_00_18/sw/modules/user/src/32b/user.c",line 890,column 3,
    2412 000003b8 D018          MOVB      XAR0,#24              ; [CPU_] |890| 
    2413                      .dwpsn  file "C:/ti/motorware/motorware_1_01_00_18/sw/modules/user/src/32b/user.c",line 888,column 3,
    2414 000003b9 86A9          MOVL      XAR2,ACC              ; [CPU_] |888| 
    2415                      .dwpsn  file "C:/ti/motorware/motorware_1_01_00_18/sw/modules/user/src/32b/user.c",line 890,column 3,
    2416 000003ba 8A93          MOVL      XAR4,*+XAR3[AR0]      ; [CPU_] |890| 
    2417              $C$DW$210       .dwtag  DW_TAG_TI_branch
    2418                      .dwattr $C$DW$210, DW_AT_low_pc(0x00)
    2419                      .dwattr $C$DW$210, DW_AT_name("_EST_getLs_q_H")
    2420                      .dwattr $C$DW$210, DW_AT_TI_call
TMS320C2000 Assembler PC v6.2.5 Mon Jun 19 18:10:37 2017

Tools Copyright (c) 1996-2014 Texas Instruments Incorporated
C:\Users\wmj\AppData\Local\Temp\1992810                              PAGE   49

    2421 000003bb 7640!         LCR       #_EST_getLs_q_H       ; [CPU_] |890| 
         000003bc 0000 
    2422                      ; call occurs [#_EST_getLs_q_H] ; [] |890| 
    2423                      .dwpsn  file "C:/ti/motorware/motorware_1_01_00_18/sw/modules/user/src/32b/user.c",line 892,column 3,
    2424 000003bd D018          MOVB      XAR0,#24              ; [CPU_] |892| 
    2425                      .dwpsn  file "C:/ti/motorware/motorware_1_01_00_18/sw/modules/user/src/32b/user.c",line 890,column 3,
    2426 000003be 1E50          MOVL      *-SP[16],ACC          ; [CPU_] |890| 
    2427                      .dwpsn  file "C:/ti/motorware/motorware_1_01_00_18/sw/modules/user/src/32b/user.c",line 892,column 3,
    2428 000003bf 8A93          MOVL      XAR4,*+XAR3[AR0]      ; [CPU_] |892| 
    2429              $C$DW$211       .dwtag  DW_TAG_TI_branch
    2430                      .dwattr $C$DW$211, DW_AT_low_pc(0x00)
    2431                      .dwattr $C$DW$211, DW_AT_name("_EST_getRs_Ohm")
    2432                      .dwattr $C$DW$211, DW_AT_TI_call
    2433 000003c0 7640!         LCR       #_EST_getRs_Ohm       ; [CPU_] |892| 
         000003c1 0000 
    2434                      ; call occurs [#_EST_getRs_Ohm] ; [] |892| 
    2435 000003c2 1E52          MOVL      *-SP[18],ACC          ; [CPU_] |892| 
    2436                      .dwpsn  file "C:/ti/motorware/motorware_1_01_00_18/sw/modules/user/src/32b/user.c",line 896,column 3,
    2437 000003c3 9A00          MOV       AL,#0                 ; [CPU_] |896| 
    2438 000003c4 28A8          MOV       AH,#17377             ; [CPU_] |896| 
         000003c5 43E1 
    2439 000003c6 1E42          MOVL      *-SP[2],ACC           ; [CPU_] |896| 
    2440 000003c7 064E          MOVL      ACC,*-SP[14]          ; [CPU_] |896| 
    2441              $C$DW$212       .dwtag  DW_TAG_TI_branch
    2442                      .dwattr $C$DW$212, DW_AT_low_pc(0x00)
    2443                      .dwattr $C$DW$212, DW_AT_name("FS$$MPY")
    2444                      .dwattr $C$DW$212, DW_AT_TI_call
    2445 000003c8 7640!         LCR       #FS$$MPY              ; [CPU_] |896| 
         000003c9 0000 
    2446                      ; call occurs [#FS$$MPY] ; [] |896| 
    2447 000003ca 8BA9          MOVL      XAR1,ACC              ; [CPU_] |896| 
    2448 000003cb FF2F          MOV       ACC,#32000 << 15      ; [CPU_] |896| 
         000003cc 7D00 
    2449 000003cd 1E42          MOVL      *-SP[2],ACC           ; [CPU_] |896| 
    2450 000003ce AAA9          MOVL      ACC,XAR2              ; [CPU_] |896| 
    2451              $C$DW$213       .dwtag  DW_TAG_TI_branch
    2452                      .dwattr $C$DW$213, DW_AT_low_pc(0x00)
    2453                      .dwattr $C$DW$213, DW_AT_name("FS$$MPY")
    2454                      .dwattr $C$DW$213, DW_AT_TI_call
    2455 000003cf 7640!         LCR       #FS$$MPY              ; [CPU_] |896| 
         000003d0 0000 
    2456                      ; call occurs [#FS$$MPY] ; [] |896| 
    2457 000003d1 1EA6          MOVL      XAR6,ACC              ; [CPU_] |896| 
    2458 000003d2 9A00          MOV       AL,#0                 ; [CPU_] |896| 
    2459 000003d3 28A8          MOV       AH,#16576             ; [CPU_] |896| 
         000003d4 40C0 
    2460 000003d5 1E42          MOVL      *-SP[2],ACC           ; [CPU_] |896| 
    2461 000003d6 06A6          MOVL      ACC,XAR6              ; [CPU_] |896| 
    2462              $C$DW$214       .dwtag  DW_TAG_TI_branch
    2463                      .dwattr $C$DW$214, DW_AT_low_pc(0x00)
    2464                      .dwattr $C$DW$214, DW_AT_name("FS$$MPY")
    2465                      .dwattr $C$DW$214, DW_AT_TI_call
    2466 000003d7 7640!         LCR       #FS$$MPY              ; [CPU_] |896| 
         000003d8 0000 
    2467                      ; call occurs [#FS$$MPY] ; [] |896| 
TMS320C2000 Assembler PC v6.2.5 Mon Jun 19 18:10:37 2017

Tools Copyright (c) 1996-2014 Texas Instruments Incorporated
C:\Users\wmj\AppData\Local\Temp\1992810                              PAGE   50

    2468 000003d9 B242          MOVL      *-SP[2],XAR1          ; [CPU_] |896| 
    2469              $C$DW$215       .dwtag  DW_TAG_TI_branch
    2470                      .dwattr $C$DW$215, DW_AT_low_pc(0x00)
    2471                      .dwattr $C$DW$215, DW_AT_name("FS$$DIV")
    2472                      .dwattr $C$DW$215, DW_AT_TI_call
    2473 000003da 7640!         LCR       #FS$$DIV              ; [CPU_] |896| 
         000003db 0000 
    2474                      ; call occurs [#FS$$DIV] ; [] |896| 
    2475 000003dc 88AD          MOVZ      AR6,SP                ; [CPU_U] |896| 
    2476 000003dd DE8C          SUBB      XAR6,#12              ; [CPU_U] |896| 
    2477              $C$DW$216       .dwtag  DW_TAG_TI_branch
    2478                      .dwattr $C$DW$216, DW_AT_low_pc(0x00)
    2479                      .dwattr $C$DW$216, DW_AT_name("FS$$TOFD")
    2480                      .dwattr $C$DW$216, DW_AT_TI_call
    2481 000003de 7640!         LCR       #FS$$TOFD             ; [CPU_] |896| 
         000003df 0000 
    2482                      ; call occurs [#FS$$TOFD] ; [] |896| 
    2483 000003e0 5CAD          MOVZ      AR4,SP                ; [CPU_U] |896| 
    2484 000003e1 88AD          MOVZ      AR6,SP                ; [CPU_U] |896| 
    2485 000003e2 8F40+         MOVL      XAR5,#$C$FL2          ; [CPU_U] |896| 
         000003e3 0004 
    2486 000003e4 DC8C          SUBB      XAR4,#12              ; [CPU_U] |896| 
    2487 000003e5 DE88          SUBB      XAR6,#8               ; [CPU_U] |896| 
    2488              $C$DW$217       .dwtag  DW_TAG_TI_branch
    2489                      .dwattr $C$DW$217, DW_AT_low_pc(0x00)
    2490                      .dwattr $C$DW$217, DW_AT_name("FD$$MPY")
    2491                      .dwattr $C$DW$217, DW_AT_TI_call
    2492 000003e6 7640!         LCR       #FD$$MPY              ; [CPU_] |896| 
         000003e7 0000 
    2493                      ; call occurs [#FD$$MPY] ; [] |896| 
    2494 000003e8 5CAD          MOVZ      AR4,SP                ; [CPU_U] |896| 
    2495 000003e9 DC88          SUBB      XAR4,#8               ; [CPU_U] |896| 
    2496              $C$DW$218       .dwtag  DW_TAG_TI_branch
    2497                      .dwattr $C$DW$218, DW_AT_low_pc(0x00)
    2498                      .dwattr $C$DW$218, DW_AT_name("FD$$TOL")
    2499                      .dwattr $C$DW$218, DW_AT_TI_call
    2500 000003ea 7640!         LCR       #FD$$TOL              ; [CPU_] |896| 
         000003eb 0000 
    2501                      ; call occurs [#FD$$TOL] ; [] |896| 
    2502 000003ec 1E54          MOVL      *-SP[20],ACC          ; [CPU_] |896| 
    2503                      .dwpsn  file "C:/ti/motorware/motorware_1_01_00_18/sw/modules/user/src/32b/user.c",line 897,column 3,
    2504 000003ed AA42          MOVL      *-SP[2],XAR2          ; [CPU_] |897| 
    2505 000003ee 0652          MOVL      ACC,*-SP[18]          ; [CPU_] |897| 
    2506              $C$DW$219       .dwtag  DW_TAG_TI_branch
    2507                      .dwattr $C$DW$219, DW_AT_low_pc(0x00)
    2508                      .dwattr $C$DW$219, DW_AT_name("FS$$DIV")
    2509                      .dwattr $C$DW$219, DW_AT_TI_call
    2510 000003ef 7640!         LCR       #FS$$DIV              ; [CPU_] |897| 
         000003f0 0000 
    2511                      ; call occurs [#FS$$DIV] ; [] |897| 
    2512 000003f1 C44E          MOVL      XAR6,*-SP[14]         ; [CPU_] |897| 
    2513 000003f2 C242          MOVL      *-SP[2],XAR6          ; [CPU_] |897| 
    2514              $C$DW$220       .dwtag  DW_TAG_TI_branch
    2515                      .dwattr $C$DW$220, DW_AT_low_pc(0x00)
    2516                      .dwattr $C$DW$220, DW_AT_name("FS$$MPY")
TMS320C2000 Assembler PC v6.2.5 Mon Jun 19 18:10:37 2017

Tools Copyright (c) 1996-2014 Texas Instruments Incorporated
C:\Users\wmj\AppData\Local\Temp\1992810                              PAGE   51

    2517                      .dwattr $C$DW$220, DW_AT_TI_call
    2518 000003f3 7640!         LCR       #FS$$MPY              ; [CPU_] |897| 
         000003f4 0000 
    2519                      ; call occurs [#FS$$MPY] ; [] |897| 
    2520 000003f5 88AD          MOVZ      AR6,SP                ; [CPU_U] |897| 
    2521 000003f6 DE8C          SUBB      XAR6,#12              ; [CPU_U] |897| 
    2522              $C$DW$221       .dwtag  DW_TAG_TI_branch
    2523                      .dwattr $C$DW$221, DW_AT_low_pc(0x00)
    2524                      .dwattr $C$DW$221, DW_AT_name("FS$$TOFD")
    2525                      .dwattr $C$DW$221, DW_AT_TI_call
    2526 000003f7 7640!         LCR       #FS$$TOFD             ; [CPU_] |897| 
         000003f8 0000 
    2527                      ; call occurs [#FS$$TOFD] ; [] |897| 
    2528 000003f9 5CAD          MOVZ      AR4,SP                ; [CPU_U] |897| 
    2529 000003fa 88AD          MOVZ      AR6,SP                ; [CPU_U] |897| 
    2530 000003fb 8F40+         MOVL      XAR5,#$C$FL2          ; [CPU_U] |897| 
         000003fc 0004 
    2531 000003fd DC8C          SUBB      XAR4,#12              ; [CPU_U] |897| 
    2532 000003fe DE88          SUBB      XAR6,#8               ; [CPU_U] |897| 
    2533              $C$DW$222       .dwtag  DW_TAG_TI_branch
    2534                      .dwattr $C$DW$222, DW_AT_low_pc(0x00)
    2535                      .dwattr $C$DW$222, DW_AT_name("FD$$MPY")
    2536                      .dwattr $C$DW$222, DW_AT_TI_call
    2537 000003ff 7640!         LCR       #FD$$MPY              ; [CPU_] |897| 
         00000400 0000 
    2538                      ; call occurs [#FD$$MPY] ; [] |897| 
    2539 00000401 5CAD          MOVZ      AR4,SP                ; [CPU_U] |897| 
    2540 00000402 DC88          SUBB      XAR4,#8               ; [CPU_U] |897| 
    2541              $C$DW$223       .dwtag  DW_TAG_TI_branch
    2542                      .dwattr $C$DW$223, DW_AT_low_pc(0x00)
    2543                      .dwattr $C$DW$223, DW_AT_name("FD$$TOL")
    2544                      .dwattr $C$DW$223, DW_AT_TI_call
    2545 00000403 7640!         LCR       #FD$$TOL              ; [CPU_] |897| 
         00000404 0000 
    2546                      ; call occurs [#FD$$TOL] ; [] |897| 
    2547 00000405 86A9          MOVL      XAR2,ACC              ; [CPU_] |897| 
    2548                      .dwpsn  file "C:/ti/motorware/motorware_1_01_00_18/sw/modules/user/src/32b/user.c",line 900,column 3,
    2549 00000406 FF2F          MOV       ACC,#32000 << 15      ; [CPU_] |900| 
         00000407 7D00 
    2550 00000408 1E42          MOVL      *-SP[2],ACC           ; [CPU_] |900| 
    2551 00000409 0650          MOVL      ACC,*-SP[16]          ; [CPU_] |900| 
    2552              $C$DW$224       .dwtag  DW_TAG_TI_branch
    2553                      .dwattr $C$DW$224, DW_AT_low_pc(0x00)
    2554                      .dwattr $C$DW$224, DW_AT_name("FS$$MPY")
    2555                      .dwattr $C$DW$224, DW_AT_TI_call
    2556 0000040a 7640!         LCR       #FS$$MPY              ; [CPU_] |900| 
         0000040b 0000 
    2557                      ; call occurs [#FS$$MPY] ; [] |900| 
    2558 0000040c 1EA6          MOVL      XAR6,ACC              ; [CPU_] |900| 
    2559 0000040d 9A00          MOV       AL,#0                 ; [CPU_] |900| 
    2560 0000040e 28A8          MOV       AH,#16576             ; [CPU_] |900| 
         0000040f 40C0 
    2561 00000410 1E42          MOVL      *-SP[2],ACC           ; [CPU_] |900| 
    2562 00000411 06A6          MOVL      ACC,XAR6              ; [CPU_] |900| 
    2563              $C$DW$225       .dwtag  DW_TAG_TI_branch
TMS320C2000 Assembler PC v6.2.5 Mon Jun 19 18:10:37 2017

Tools Copyright (c) 1996-2014 Texas Instruments Incorporated
C:\Users\wmj\AppData\Local\Temp\1992810                              PAGE   52

    2564                      .dwattr $C$DW$225, DW_AT_low_pc(0x00)
    2565                      .dwattr $C$DW$225, DW_AT_name("FS$$MPY")
    2566                      .dwattr $C$DW$225, DW_AT_TI_call
    2567 00000412 7640!         LCR       #FS$$MPY              ; [CPU_] |900| 
         00000413 0000 
    2568                      ; call occurs [#FS$$MPY] ; [] |900| 
    2569 00000414 B242          MOVL      *-SP[2],XAR1          ; [CPU_] |900| 
    2570              $C$DW$226       .dwtag  DW_TAG_TI_branch
    2571                      .dwattr $C$DW$226, DW_AT_low_pc(0x00)
    2572                      .dwattr $C$DW$226, DW_AT_name("FS$$DIV")
    2573                      .dwattr $C$DW$226, DW_AT_TI_call
    2574 00000415 7640!         LCR       #FS$$DIV              ; [CPU_] |900| 
         00000416 0000 
    2575                      ; call occurs [#FS$$DIV] ; [] |900| 
    2576 00000417 88AD          MOVZ      AR6,SP                ; [CPU_U] |900| 
    2577 00000418 DE8C          SUBB      XAR6,#12              ; [CPU_U] |900| 
    2578              $C$DW$227       .dwtag  DW_TAG_TI_branch
    2579                      .dwattr $C$DW$227, DW_AT_low_pc(0x00)
    2580                      .dwattr $C$DW$227, DW_AT_name("FS$$TOFD")
    2581                      .dwattr $C$DW$227, DW_AT_TI_call
    2582 00000419 7640!         LCR       #FS$$TOFD             ; [CPU_] |900| 
         0000041a 0000 
    2583                      ; call occurs [#FS$$TOFD] ; [] |900| 
    2584 0000041b 5CAD          MOVZ      AR4,SP                ; [CPU_U] |900| 
    2585 0000041c 88AD          MOVZ      AR6,SP                ; [CPU_U] |900| 
    2586 0000041d 8F40+         MOVL      XAR5,#$C$FL2          ; [CPU_U] |900| 
         0000041e 0004 
    2587 0000041f DC8C          SUBB      XAR4,#12              ; [CPU_U] |900| 
    2588 00000420 DE88          SUBB      XAR6,#8               ; [CPU_U] |900| 
    2589              $C$DW$228       .dwtag  DW_TAG_TI_branch
    2590                      .dwattr $C$DW$228, DW_AT_low_pc(0x00)
    2591                      .dwattr $C$DW$228, DW_AT_name("FD$$MPY")
    2592                      .dwattr $C$DW$228, DW_AT_TI_call
    2593 00000421 7640!         LCR       #FD$$MPY              ; [CPU_] |900| 
         00000422 0000 
    2594                      ; call occurs [#FD$$MPY] ; [] |900| 
    2595 00000423 5CAD          MOVZ      AR4,SP                ; [CPU_U] |900| 
    2596 00000424 DC88          SUBB      XAR4,#8               ; [CPU_U] |900| 
    2597              $C$DW$229       .dwtag  DW_TAG_TI_branch
    2598                      .dwattr $C$DW$229, DW_AT_low_pc(0x00)
    2599                      .dwattr $C$DW$229, DW_AT_name("FD$$TOL")
    2600                      .dwattr $C$DW$229, DW_AT_TI_call
    2601 00000425 7640!         LCR       #FD$$TOL              ; [CPU_] |900| 
         00000426 0000 
    2602                      ; call occurs [#FD$$TOL] ; [] |900| 
    2603 00000427 1E56          MOVL      *-SP[22],ACC          ; [CPU_] |900| 
    2604 00000428 0650          MOVL      ACC,*-SP[16]          ; [CPU_] |900| 
    2605                      .dwpsn  file "C:/ti/motorware/motorware_1_01_00_18/sw/modules/user/src/32b/user.c",line 901,column 3,
    2606 00000429 1E42          MOVL      *-SP[2],ACC           ; [CPU_] |901| 
    2607 0000042a 0652          MOVL      ACC,*-SP[18]          ; [CPU_] |901| 
    2608              $C$DW$230       .dwtag  DW_TAG_TI_branch
    2609                      .dwattr $C$DW$230, DW_AT_low_pc(0x00)
    2610                      .dwattr $C$DW$230, DW_AT_name("FS$$DIV")
    2611                      .dwattr $C$DW$230, DW_AT_TI_call
    2612 0000042b 7640!         LCR       #FS$$DIV              ; [CPU_] |901| 
TMS320C2000 Assembler PC v6.2.5 Mon Jun 19 18:10:37 2017

Tools Copyright (c) 1996-2014 Texas Instruments Incorporated
C:\Users\wmj\AppData\Local\Temp\1992810                              PAGE   53

         0000042c 0000 
    2613                      ; call occurs [#FS$$DIV] ; [] |901| 
    2614 0000042d C44E          MOVL      XAR6,*-SP[14]         ; [CPU_] |901| 
    2615 0000042e C242          MOVL      *-SP[2],XAR6          ; [CPU_] |901| 
    2616              $C$DW$231       .dwtag  DW_TAG_TI_branch
    2617                      .dwattr $C$DW$231, DW_AT_low_pc(0x00)
    2618                      .dwattr $C$DW$231, DW_AT_name("FS$$MPY")
    2619                      .dwattr $C$DW$231, DW_AT_TI_call
    2620 0000042f 7640!         LCR       #FS$$MPY              ; [CPU_] |901| 
         00000430 0000 
    2621                      ; call occurs [#FS$$MPY] ; [] |901| 
    2622 00000431 88AD          MOVZ      AR6,SP                ; [CPU_U] |901| 
    2623 00000432 DE8C          SUBB      XAR6,#12              ; [CPU_U] |901| 
    2624              $C$DW$232       .dwtag  DW_TAG_TI_branch
    2625                      .dwattr $C$DW$232, DW_AT_low_pc(0x00)
    2626                      .dwattr $C$DW$232, DW_AT_name("FS$$TOFD")
    2627                      .dwattr $C$DW$232, DW_AT_TI_call
    2628 00000433 7640!         LCR       #FS$$TOFD             ; [CPU_] |901| 
         00000434 0000 
    2629                      ; call occurs [#FS$$TOFD] ; [] |901| 
    2630 00000435 5CAD          MOVZ      AR4,SP                ; [CPU_U] |901| 
    2631 00000436 88AD          MOVZ      AR6,SP                ; [CPU_U] |901| 
    2632 00000437 8F40+         MOVL      XAR5,#$C$FL2          ; [CPU_U] |901| 
         00000438 0004 
    2633 00000439 DC8C          SUBB      XAR4,#12              ; [CPU_U] |901| 
    2634 0000043a DE88          SUBB      XAR6,#8               ; [CPU_U] |901| 
    2635              $C$DW$233       .dwtag  DW_TAG_TI_branch
    2636                      .dwattr $C$DW$233, DW_AT_low_pc(0x00)
    2637                      .dwattr $C$DW$233, DW_AT_name("FD$$MPY")
    2638                      .dwattr $C$DW$233, DW_AT_TI_call
    2639 0000043b 7640!         LCR       #FD$$MPY              ; [CPU_] |901| 
         0000043c 0000 
    2640                      ; call occurs [#FD$$MPY] ; [] |901| 
    2641 0000043d 5CAD          MOVZ      AR4,SP                ; [CPU_U] |901| 
    2642 0000043e DC88          SUBB      XAR4,#8               ; [CPU_U] |901| 
    2643              $C$DW$234       .dwtag  DW_TAG_TI_branch
    2644                      .dwattr $C$DW$234, DW_AT_low_pc(0x00)
    2645                      .dwattr $C$DW$234, DW_AT_name("FD$$TOL")
    2646                      .dwattr $C$DW$234, DW_AT_TI_call
    2647 0000043f 7640!         LCR       #FD$$TOL              ; [CPU_] |901| 
         00000440 0000 
    2648                      ; call occurs [#FD$$TOL] ; [] |901| 
    2649                      .dwpsn  file "C:/ti/motorware/motorware_1_01_00_18/sw/modules/pid/src/32b/pid.h",line 333,column 3,is
    2650 00000441 D020          MOVB      XAR0,#32              ; [CPU_] |333| 
    2651 00000442 8A93          MOVL      XAR4,*+XAR3[AR0]      ; [CPU_] |333| 
    2652                      .dwpsn  file "C:/ti/motorware/motorware_1_01_00_18/sw/modules/user/src/32b/user.c",line 901,column 3,
    2653 00000443 8BA9          MOVL      XAR1,ACC              ; [CPU_] |901| 
    2654                      .dwpsn  file "C:/ti/motorware/motorware_1_01_00_18/sw/modules/user/src/32b/user.c",line 907,column 3,
    2655 00000444 0200          MOVB      ACC,#0                ; [CPU_] |907| 
    2656                      .dwpsn  file "C:/ti/motorware/motorware_1_01_00_18/sw/modules/pid/src/32b/pid.h",line 333,column 3,is
    2657 00000445 AAD4          MOVL      *+XAR4[2],XAR2        ; [CPU_] |333| 
    2658                      .dwpsn  file "C:/ti/motorware/motorware_1_01_00_18/sw/modules/user/src/32b/user.c",line 907,column 3,
    2659 00000446 AA42          MOVL      *-SP[2],XAR2          ; [CPU_] |907| 
    2660 00000447 1E44          MOVL      *-SP[4],ACC           ; [CPU_] |907| 
    2661 00000448 0654          MOVL      ACC,*-SP[20]          ; [CPU_] |907| 
TMS320C2000 Assembler PC v6.2.5 Mon Jun 19 18:10:37 2017

Tools Copyright (c) 1996-2014 Texas Instruments Incorporated
C:\Users\wmj\AppData\Local\Temp\1992810                              PAGE   54

    2662 00000449 D501          MOVB      XAR5,#1               ; [CPU_] |907| 
    2663 0000044a 8AA3          MOVL      XAR4,XAR3             ; [CPU_] |907| 
    2664              $C$DW$235       .dwtag  DW_TAG_TI_branch
    2665                      .dwattr $C$DW$235, DW_AT_low_pc(0x00)
    2666                      .dwattr $C$DW$235, DW_AT_name("_CTRL_setGains")
    2667                      .dwattr $C$DW$235, DW_AT_TI_call
    2668 0000044b 7640!         LCR       #_CTRL_setGains       ; [CPU_] |907| 
         0000044c 0000 
    2669                      ; call occurs [#_CTRL_setGains] ; [] |907| 
    2670                      .dwpsn  file "C:/ti/motorware/motorware_1_01_00_18/sw/modules/pid/src/32b/pid.h",line 333,column 3,is
    2671 0000044d D032          MOVB      XAR0,#50              ; [CPU_] |333| 
    2672 0000044e 8A93          MOVL      XAR4,*+XAR3[AR0]      ; [CPU_] |333| 
    2673                      .dwpsn  file "C:/ti/motorware/motorware_1_01_00_18/sw/modules/user/src/32b/user.c",line 911,column 3,
    2674 0000044f 0200          MOVB      ACC,#0                ; [CPU_] |911| 
    2675                      .dwpsn  file "C:/ti/motorware/motorware_1_01_00_18/sw/modules/pid/src/32b/pid.h",line 333,column 3,is
    2676 00000450 B2D4          MOVL      *+XAR4[2],XAR1        ; [CPU_] |333| 
    2677                      .dwpsn  file "C:/ti/motorware/motorware_1_01_00_18/sw/modules/user/src/32b/user.c",line 911,column 3,
    2678 00000451 B242          MOVL      *-SP[2],XAR1          ; [CPU_] |911| 
    2679 00000452 1E44          MOVL      *-SP[4],ACC           ; [CPU_] |911| 
    2680 00000453 0656          MOVL      ACC,*-SP[22]          ; [CPU_] |911| 
    2681 00000454 D502          MOVB      XAR5,#2               ; [CPU_] |911| 
    2682 00000455 8AA3          MOVL      XAR4,XAR3             ; [CPU_] |911| 
    2683              $C$DW$236       .dwtag  DW_TAG_TI_branch
    2684                      .dwattr $C$DW$236, DW_AT_low_pc(0x00)
    2685                      .dwattr $C$DW$236, DW_AT_name("_CTRL_setGains")
    2686                      .dwattr $C$DW$236, DW_AT_TI_call
    2687 00000456 7640!         LCR       #_CTRL_setGains       ; [CPU_] |911| 
         00000457 0000 
    2688                      ; call occurs [#_CTRL_setGains] ; [] |911| 
    2689 00000458 FE96          SUBB      SP,#22                ; [CPU_U] 
    2690                      .dwcfi  cfa_offset, -8
    2691 00000459 82BE          MOVL      XAR3,*--SP            ; [CPU_] 
    2692                      .dwcfi  cfa_offset, -6
    2693                      .dwcfi  restore_reg, 11
    2694 0000045a 86BE          MOVL      XAR2,*--SP            ; [CPU_] 
    2695                      .dwcfi  cfa_offset, -4
    2696                      .dwcfi  restore_reg, 9
    2697 0000045b 8BBE          MOVL      XAR1,*--SP            ; [CPU_] 
    2698                      .dwcfi  cfa_offset, -2
    2699                      .dwcfi  restore_reg, 7
    2700              $C$DW$237       .dwtag  DW_TAG_TI_branch
    2701                      .dwattr $C$DW$237, DW_AT_low_pc(0x00)
    2702                      .dwattr $C$DW$237, DW_AT_TI_return
    2703 0000045c 0006          LRETR     ; [CPU_] 
    2704                      ; return occurs ; [] 
    2705                      .dwattr $C$DW$198, DW_AT_TI_end_file("C:/ti/motorware/motorware_1_01_00_18/sw/modules/user/src/32b/us
    2706                      .dwattr $C$DW$198, DW_AT_TI_end_line(0x392)
    2707                      .dwattr $C$DW$198, DW_AT_TI_end_column(0x01)
    2708                      .dwendentry
    2709                      .dwendtag $C$DW$198
    2710              
    2711              ;***************************************************************
    2712              ;* FLOATING-POINT CONSTANTS                                    *
    2713              ;***************************************************************
    2714 00000000               .sect   ".econst"
TMS320C2000 Assembler PC v6.2.5 Mon Jun 19 18:10:37 2017

Tools Copyright (c) 1996-2014 Texas Instruments Incorporated
C:\Users\wmj\AppData\Local\Temp\1992810                              PAGE   55

    2715                      .align  2
    2716 00000000 0000  $C$FL1: .xldouble       $strtod("0x1p+30")
         00000001 0000 
         00000002 0000 
         00000003 41D0 
    2717                      .align  2
    2718 00000004 0000  $C$FL2: .xldouble       $strtod("0x1p+24")
         00000005 0000 
         00000006 0000 
         00000007 4170 
    2719              ;**************************************************************
    2720              ;* UNDEFINED EXTERNAL REFERENCES                              *
    2721              ;**************************************************************
    2722                      .global _EST_setLs_d_pu
    2723                      .global _CTRL_setGains
    2724                      .global _EST_setLs_q_pu
    2725                      .global _EST_setLs_qFmt
    2726                      .global _pow
    2727                      .global _log
    2728                      .global _EST_getFlux_pu
    2729                      .global _modf
    2730                      .global __IQ30toF
    2731                      .global _EST_getLs_coarse_max_pu
    2732                      .global _EST_getLs_q_pu
    2733                      .global _EST_getLs_d_pu
    2734                      .global _EST_getLs_d_H
    2735                      .global _EST_getRs_Ohm
    2736                      .global _EST_getLs_q_H
    2737                      .global FS$$MPY
    2738                      .global FS$$DIV
    2739                      .global I$$TOFS
    2740                      .global FD$$MPY
    2741                      .global FS$$TOFD
    2742                      .global FS$$CMP
    2743                      .global FS$$ADD
    2744                      .global FS$$TOI
    2745                      .global FD$$TOL
    2746                      .global FS$$NEG
    2747              
    2748              ;***************************************************************
    2749              ;* TYPE INFORMATION                                            *
    2750              ;***************************************************************
    2751              
    2752              $C$DW$T$25      .dwtag  DW_TAG_enumeration_type
    2753                      .dwattr $C$DW$T$25, DW_AT_byte_size(0x01)
    2754              $C$DW$238       .dwtag  DW_TAG_enumerator, DW_AT_name("CTRL_State_Error"), DW_AT_const_value(0x00)
    2755              $C$DW$239       .dwtag  DW_TAG_enumerator, DW_AT_name("CTRL_State_Idle"), DW_AT_const_value(0x01)
    2756              $C$DW$240       .dwtag  DW_TAG_enumerator, DW_AT_name("CTRL_State_OffLine"), DW_AT_const_value(0x02)
    2757              $C$DW$241       .dwtag  DW_TAG_enumerator, DW_AT_name("CTRL_State_OnLine"), DW_AT_const_value(0x03)
    2758              $C$DW$242       .dwtag  DW_TAG_enumerator, DW_AT_name("CTRL_numStates"), DW_AT_const_value(0x04)
    2759                      .dwendtag $C$DW$T$25
    2760              
    2761              $C$DW$T$26      .dwtag  DW_TAG_typedef, DW_AT_name("CTRL_State_e")
    2762                      .dwattr $C$DW$T$26, DW_AT_type(*$C$DW$T$25)
    2763                      .dwattr $C$DW$T$26, DW_AT_language(DW_LANG_C)
TMS320C2000 Assembler PC v6.2.5 Mon Jun 19 18:10:37 2017

Tools Copyright (c) 1996-2014 Texas Instruments Incorporated
C:\Users\wmj\AppData\Local\Temp\1992810                              PAGE   56

    2764              
    2765              $C$DW$T$27      .dwtag  DW_TAG_enumeration_type
    2766                      .dwattr $C$DW$T$27, DW_AT_byte_size(0x01)
    2767              $C$DW$243       .dwtag  DW_TAG_enumerator, DW_AT_name("CTRL_ErrorCode_NoError"), DW_AT_const_value(0x00)
    2768              $C$DW$244       .dwtag  DW_TAG_enumerator, DW_AT_name("CTRL_ErrorCode_IdClip"), DW_AT_const_value(0x01)
    2769              $C$DW$245       .dwtag  DW_TAG_enumerator, DW_AT_name("CTRL_ErrorCode_EstError"), DW_AT_const_value(0x02)
    2770              $C$DW$246       .dwtag  DW_TAG_enumerator, DW_AT_name("CTRL_numErrorCodes"), DW_AT_const_value(0x03)
    2771                      .dwendtag $C$DW$T$27
    2772              
    2773              $C$DW$T$28      .dwtag  DW_TAG_typedef, DW_AT_name("CTRL_ErrorCode_e")
    2774                      .dwattr $C$DW$T$28, DW_AT_type(*$C$DW$T$27)
    2775                      .dwattr $C$DW$T$28, DW_AT_language(DW_LANG_C)
    2776              
    2777              $C$DW$T$58      .dwtag  DW_TAG_enumeration_type
    2778                      .dwattr $C$DW$T$58, DW_AT_byte_size(0x01)
    2779              $C$DW$247       .dwtag  DW_TAG_enumerator, DW_AT_name("CTRL_TargetProc_2806x"), DW_AT_const_value(0x00)
    2780              $C$DW$248       .dwtag  DW_TAG_enumerator, DW_AT_name("CTRL_TargetProc_2805x"), DW_AT_const_value(0x01)
    2781              $C$DW$249       .dwtag  DW_TAG_enumerator, DW_AT_name("CTRL_TargetProc_2803x"), DW_AT_const_value(0x02)
    2782              $C$DW$250       .dwtag  DW_TAG_enumerator, DW_AT_name("CTRL_TargetProc_2802x"), DW_AT_const_value(0x03)
    2783              $C$DW$251       .dwtag  DW_TAG_enumerator, DW_AT_name("CTRL_TargetProc_Unknown"), DW_AT_const_value(0x04)
    2784                      .dwendtag $C$DW$T$58
    2785              
    2786              $C$DW$T$59      .dwtag  DW_TAG_typedef, DW_AT_name("CTRL_TargetProc_e")
    2787                      .dwattr $C$DW$T$59, DW_AT_type(*$C$DW$T$58)
    2788                      .dwattr $C$DW$T$59, DW_AT_language(DW_LANG_C)
    2789              
    2790              $C$DW$T$64      .dwtag  DW_TAG_enumeration_type
    2791                      .dwattr $C$DW$T$64, DW_AT_byte_size(0x01)
    2792              $C$DW$252       .dwtag  DW_TAG_enumerator, DW_AT_name("MOTOR_Type_Induction"), DW_AT_const_value(0x00)
    2793              $C$DW$253       .dwtag  DW_TAG_enumerator, DW_AT_name("MOTOR_Type_Pm"), DW_AT_const_value(0x01)
    2794                      .dwendtag $C$DW$T$64
    2795              
    2796              $C$DW$T$65      .dwtag  DW_TAG_typedef, DW_AT_name("MOTOR_Type_e")
    2797                      .dwattr $C$DW$T$65, DW_AT_type(*$C$DW$T$64)
    2798                      .dwattr $C$DW$T$65, DW_AT_language(DW_LANG_C)
    2799              
    2800              $C$DW$T$74      .dwtag  DW_TAG_enumeration_type
    2801                      .dwattr $C$DW$T$74, DW_AT_byte_size(0x01)
    2802              $C$DW$254       .dwtag  DW_TAG_enumerator, DW_AT_name("USER_ErrorCode_NoError"), DW_AT_const_value(0x00)
    2803              $C$DW$255       .dwtag  DW_TAG_enumerator, DW_AT_name("USER_ErrorCode_iqFullScaleCurrent_A_High"), DW_AT_cons
    2804              $C$DW$256       .dwtag  DW_TAG_enumerator, DW_AT_name("USER_ErrorCode_iqFullScaleCurrent_A_Low"), DW_AT_const
    2805              $C$DW$257       .dwtag  DW_TAG_enumerator, DW_AT_name("USER_ErrorCode_iqFullScaleVoltage_V_High"), DW_AT_cons
    2806              $C$DW$258       .dwtag  DW_TAG_enumerator, DW_AT_name("USER_ErrorCode_iqFullScaleVoltage_V_Low"), DW_AT_const
    2807              $C$DW$259       .dwtag  DW_TAG_enumerator, DW_AT_name("USER_ErrorCode_iqFullScaleFreq_Hz_High"), DW_AT_const_
    2808              $C$DW$260       .dwtag  DW_TAG_enumerator, DW_AT_name("USER_ErrorCode_iqFullScaleFreq_Hz_Low"), DW_AT_const_v
    2809              $C$DW$261       .dwtag  DW_TAG_enumerator, DW_AT_name("USER_ErrorCode_numPwmTicksPerIsrTick_High"), DW_AT_con
    2810              $C$DW$262       .dwtag  DW_TAG_enumerator, DW_AT_name("USER_ErrorCode_numPwmTicksPerIsrTick_Low"), DW_AT_cons
    2811              $C$DW$263       .dwtag  DW_TAG_enumerator, DW_AT_name("USER_ErrorCode_numIsrTicksPerCtrlTick_High"), DW_AT_co
    2812              $C$DW$264       .dwtag  DW_TAG_enumerator, DW_AT_name("USER_ErrorCode_numIsrTicksPerCtrlTick_Low"), DW_AT_con
    2813              $C$DW$265       .dwtag  DW_TAG_enumerator, DW_AT_name("USER_ErrorCode_numCtrlTicksPerCurrentTick_High"), DW_A
    2814              $C$DW$266       .dwtag  DW_TAG_enumerator, DW_AT_name("USER_ErrorCode_numCtrlTicksPerCurrentTick_Low"), DW_AT
    2815              $C$DW$267       .dwtag  DW_TAG_enumerator, DW_AT_name("USER_ErrorCode_numCtrlTicksPerEstTick_High"), DW_AT_co
    2816              $C$DW$268       .dwtag  DW_TAG_enumerator, DW_AT_name("USER_ErrorCode_numCtrlTicksPerEstTick_Low"), DW_AT_con
    2817              $C$DW$269       .dwtag  DW_TAG_enumerator, DW_AT_name("USER_ErrorCode_numCtrlTicksPerSpeedTick_High"), DW_AT_
    2818              $C$DW$270       .dwtag  DW_TAG_enumerator, DW_AT_name("USER_ErrorCode_numCtrlTicksPerSpeedTick_Low"), DW_AT_c
TMS320C2000 Assembler PC v6.2.5 Mon Jun 19 18:10:37 2017

Tools Copyright (c) 1996-2014 Texas Instruments Incorporated
C:\Users\wmj\AppData\Local\Temp\1992810                              PAGE   57

    2819              $C$DW$271       .dwtag  DW_TAG_enumerator, DW_AT_name("USER_ErrorCode_numCtrlTicksPerTrajTick_High"), DW_AT_c
    2820              $C$DW$272       .dwtag  DW_TAG_enumerator, DW_AT_name("USER_ErrorCode_numCtrlTicksPerTrajTick_Low"), DW_AT_co
    2821              $C$DW$273       .dwtag  DW_TAG_enumerator, DW_AT_name("USER_ErrorCode_numCurrentSensors_High"), DW_AT_const_v
    2822              $C$DW$274       .dwtag  DW_TAG_enumerator, DW_AT_name("USER_ErrorCode_numCurrentSensors_Low"), DW_AT_const_va
    2823              $C$DW$275       .dwtag  DW_TAG_enumerator, DW_AT_name("USER_ErrorCode_numVoltageSensors_High"), DW_AT_const_v
    2824              $C$DW$276       .dwtag  DW_TAG_enumerator, DW_AT_name("USER_ErrorCode_numVoltageSensors_Low"), DW_AT_const_va
    2825              $C$DW$277       .dwtag  DW_TAG_enumerator, DW_AT_name("USER_ErrorCode_offsetPole_rps_High"), DW_AT_const_valu
    2826              $C$DW$278       .dwtag  DW_TAG_enumerator, DW_AT_name("USER_ErrorCode_offsetPole_rps_Low"), DW_AT_const_value
    2827              $C$DW$279       .dwtag  DW_TAG_enumerator, DW_AT_name("USER_ErrorCode_fluxPole_rps_High"), DW_AT_const_value(
    2828              $C$DW$280       .dwtag  DW_TAG_enumerator, DW_AT_name("USER_ErrorCode_fluxPole_rps_Low"), DW_AT_const_value(0
    2829              $C$DW$281       .dwtag  DW_TAG_enumerator, DW_AT_name("USER_ErrorCode_zeroSpeedLimit_High"), DW_AT_const_valu
    2830              $C$DW$282       .dwtag  DW_TAG_enumerator, DW_AT_name("USER_ErrorCode_zeroSpeedLimit_Low"), DW_AT_const_value
    2831              $C$DW$283       .dwtag  DW_TAG_enumerator, DW_AT_name("USER_ErrorCode_forceAngleFreq_Hz_High"), DW_AT_const_v
    2832              $C$DW$284       .dwtag  DW_TAG_enumerator, DW_AT_name("USER_ErrorCode_forceAngleFreq_Hz_Low"), DW_AT_const_va
    2833              $C$DW$285       .dwtag  DW_TAG_enumerator, DW_AT_name("USER_ErrorCode_maxAccel_Hzps_High"), DW_AT_const_value
    2834              $C$DW$286       .dwtag  DW_TAG_enumerator, DW_AT_name("USER_ErrorCode_maxAccel_Hzps_Low"), DW_AT_const_value(
    2835              $C$DW$287       .dwtag  DW_TAG_enumerator, DW_AT_name("USER_ErrorCode_maxAccel_est_Hzps_High"), DW_AT_const_v
    2836              $C$DW$288       .dwtag  DW_TAG_enumerator, DW_AT_name("USER_ErrorCode_maxAccel_est_Hzps_Low"), DW_AT_const_va
    2837              $C$DW$289       .dwtag  DW_TAG_enumerator, DW_AT_name("USER_ErrorCode_directionPole_rps_High"), DW_AT_const_v
    2838              $C$DW$290       .dwtag  DW_TAG_enumerator, DW_AT_name("USER_ErrorCode_directionPole_rps_Low"), DW_AT_const_va
    2839              $C$DW$291       .dwtag  DW_TAG_enumerator, DW_AT_name("USER_ErrorCode_speedPole_rps_High"), DW_AT_const_value
    2840              $C$DW$292       .dwtag  DW_TAG_enumerator, DW_AT_name("USER_ErrorCode_speedPole_rps_Low"), DW_AT_const_value(
    2841              $C$DW$293       .dwtag  DW_TAG_enumerator, DW_AT_name("USER_ErrorCode_dcBusPole_rps_High"), DW_AT_const_value
    2842              $C$DW$294       .dwtag  DW_TAG_enumerator, DW_AT_name("USER_ErrorCode_dcBusPole_rps_Low"), DW_AT_const_value(
    2843              $C$DW$295       .dwtag  DW_TAG_enumerator, DW_AT_name("USER_ErrorCode_fluxFraction_High"), DW_AT_const_value(
    2844              $C$DW$296       .dwtag  DW_TAG_enumerator, DW_AT_name("USER_ErrorCode_fluxFraction_Low"), DW_AT_const_value(0
    2845              $C$DW$297       .dwtag  DW_TAG_enumerator, DW_AT_name("USER_ErrorCode_indEst_speedMaxFraction_High"), DW_AT_c
    2846              $C$DW$298       .dwtag  DW_TAG_enumerator, DW_AT_name("USER_ErrorCode_indEst_speedMaxFraction_Low"), DW_AT_co
    2847              $C$DW$299       .dwtag  DW_TAG_enumerator, DW_AT_name("USER_ErrorCode_powerWarpGain_High"), DW_AT_const_value
    2848              $C$DW$300       .dwtag  DW_TAG_enumerator, DW_AT_name("USER_ErrorCode_powerWarpGain_Low"), DW_AT_const_value(
    2849              $C$DW$301       .dwtag  DW_TAG_enumerator, DW_AT_name("USER_ErrorCode_systemFreq_MHz_High"), DW_AT_const_valu
    2850              $C$DW$302       .dwtag  DW_TAG_enumerator, DW_AT_name("USER_ErrorCode_systemFreq_MHz_Low"), DW_AT_const_value
    2851              $C$DW$303       .dwtag  DW_TAG_enumerator, DW_AT_name("USER_ErrorCode_pwmFreq_kHz_High"), DW_AT_const_value(0
    2852              $C$DW$304       .dwtag  DW_TAG_enumerator, DW_AT_name("USER_ErrorCode_pwmFreq_kHz_Low"), DW_AT_const_value(0x
    2853              $C$DW$305       .dwtag  DW_TAG_enumerator, DW_AT_name("USER_ErrorCode_voltage_sf_High"), DW_AT_const_value(0x
    2854              $C$DW$306       .dwtag  DW_TAG_enumerator, DW_AT_name("USER_ErrorCode_voltage_sf_Low"), DW_AT_const_value(0x3
    2855              $C$DW$307       .dwtag  DW_TAG_enumerator, DW_AT_name("USER_ErrorCode_current_sf_High"), DW_AT_const_value(0x
    2856              $C$DW$308       .dwtag  DW_TAG_enumerator, DW_AT_name("USER_ErrorCode_current_sf_Low"), DW_AT_const_value(0x3
    2857              $C$DW$309       .dwtag  DW_TAG_enumerator, DW_AT_name("USER_ErrorCode_voltageFilterPole_Hz_High"), DW_AT_cons
    2858              $C$DW$310       .dwtag  DW_TAG_enumerator, DW_AT_name("USER_ErrorCode_voltageFilterPole_Hz_Low"), DW_AT_const
    2859              $C$DW$311       .dwtag  DW_TAG_enumerator, DW_AT_name("USER_ErrorCode_maxVsMag_pu_High"), DW_AT_const_value(0
    2860              $C$DW$312       .dwtag  DW_TAG_enumerator, DW_AT_name("USER_ErrorCode_maxVsMag_pu_Low"), DW_AT_const_value(0x
    2861              $C$DW$313       .dwtag  DW_TAG_enumerator, DW_AT_name("USER_ErrorCode_estKappa_High"), DW_AT_const_value(0x3b
    2862              $C$DW$314       .dwtag  DW_TAG_enumerator, DW_AT_name("USER_ErrorCode_estKappa_Low"), DW_AT_const_value(0x3c)
    2863              $C$DW$315       .dwtag  DW_TAG_enumerator, DW_AT_name("USER_ErrorCode_motor_type_Unknown"), DW_AT_const_value
    2864              $C$DW$316       .dwtag  DW_TAG_enumerator, DW_AT_name("USER_ErrorCode_motor_numPolePairs_High"), DW_AT_const_
    2865              $C$DW$317       .dwtag  DW_TAG_enumerator, DW_AT_name("USER_ErrorCode_motor_numPolePairs_Low"), DW_AT_const_v
    2866              $C$DW$318       .dwtag  DW_TAG_enumerator, DW_AT_name("USER_ErrorCode_motor_ratedFlux_High"), DW_AT_const_val
    2867              $C$DW$319       .dwtag  DW_TAG_enumerator, DW_AT_name("USER_ErrorCode_motor_ratedFlux_Low"), DW_AT_const_valu
    2868              $C$DW$320       .dwtag  DW_TAG_enumerator, DW_AT_name("USER_ErrorCode_motor_Rr_High"), DW_AT_const_value(0x42
    2869              $C$DW$321       .dwtag  DW_TAG_enumerator, DW_AT_name("USER_ErrorCode_motor_Rr_Low"), DW_AT_const_value(0x43)
    2870              $C$DW$322       .dwtag  DW_TAG_enumerator, DW_AT_name("USER_ErrorCode_motor_Rs_High"), DW_AT_const_value(0x44
    2871              $C$DW$323       .dwtag  DW_TAG_enumerator, DW_AT_name("USER_ErrorCode_motor_Rs_Low"), DW_AT_const_value(0x45)
    2872              $C$DW$324       .dwtag  DW_TAG_enumerator, DW_AT_name("USER_ErrorCode_motor_Ls_d_High"), DW_AT_const_value(0x
    2873              $C$DW$325       .dwtag  DW_TAG_enumerator, DW_AT_name("USER_ErrorCode_motor_Ls_d_Low"), DW_AT_const_value(0x4
TMS320C2000 Assembler PC v6.2.5 Mon Jun 19 18:10:37 2017

Tools Copyright (c) 1996-2014 Texas Instruments Incorporated
C:\Users\wmj\AppData\Local\Temp\1992810                              PAGE   58

    2874              $C$DW$326       .dwtag  DW_TAG_enumerator, DW_AT_name("USER_ErrorCode_motor_Ls_q_High"), DW_AT_const_value(0x
    2875              $C$DW$327       .dwtag  DW_TAG_enumerator, DW_AT_name("USER_ErrorCode_motor_Ls_q_Low"), DW_AT_const_value(0x4
    2876              $C$DW$328       .dwtag  DW_TAG_enumerator, DW_AT_name("USER_ErrorCode_maxCurrent_High"), DW_AT_const_value(0x
    2877              $C$DW$329       .dwtag  DW_TAG_enumerator, DW_AT_name("USER_ErrorCode_maxCurrent_Low"), DW_AT_const_value(0x4
    2878              $C$DW$330       .dwtag  DW_TAG_enumerator, DW_AT_name("USER_ErrorCode_maxCurrent_resEst_High"), DW_AT_const_v
    2879              $C$DW$331       .dwtag  DW_TAG_enumerator, DW_AT_name("USER_ErrorCode_maxCurrent_resEst_Low"), DW_AT_const_va
    2880              $C$DW$332       .dwtag  DW_TAG_enumerator, DW_AT_name("USER_ErrorCode_maxCurrent_indEst_High"), DW_AT_const_v
    2881              $C$DW$333       .dwtag  DW_TAG_enumerator, DW_AT_name("USER_ErrorCode_maxCurrent_indEst_Low"), DW_AT_const_va
    2882              $C$DW$334       .dwtag  DW_TAG_enumerator, DW_AT_name("USER_ErrorCode_maxCurrentSlope_High"), DW_AT_const_val
    2883              $C$DW$335       .dwtag  DW_TAG_enumerator, DW_AT_name("USER_ErrorCode_maxCurrentSlope_Low"), DW_AT_const_valu
    2884              $C$DW$336       .dwtag  DW_TAG_enumerator, DW_AT_name("USER_ErrorCode_maxCurrentSlope_powerWarp_High"), DW_AT
    2885              $C$DW$337       .dwtag  DW_TAG_enumerator, DW_AT_name("USER_ErrorCode_maxCurrentSlope_powerWarp_Low"), DW_AT_
    2886              $C$DW$338       .dwtag  DW_TAG_enumerator, DW_AT_name("USER_ErrorCode_IdRated_High"), DW_AT_const_value(0x54)
    2887              $C$DW$339       .dwtag  DW_TAG_enumerator, DW_AT_name("USER_ErrorCode_IdRated_Low"), DW_AT_const_value(0x55)
    2888              $C$DW$340       .dwtag  DW_TAG_enumerator, DW_AT_name("USER_ErrorCode_IdRatedFraction_indEst_High"), DW_AT_co
    2889              $C$DW$341       .dwtag  DW_TAG_enumerator, DW_AT_name("USER_ErrorCode_IdRatedFraction_indEst_Low"), DW_AT_con
    2890              $C$DW$342       .dwtag  DW_TAG_enumerator, DW_AT_name("USER_ErrorCode_IdRatedFraction_ratedFlux_High"), DW_AT
    2891              $C$DW$343       .dwtag  DW_TAG_enumerator, DW_AT_name("USER_ErrorCode_IdRatedFraction_ratedFlux_Low"), DW_AT_
    2892              $C$DW$344       .dwtag  DW_TAG_enumerator, DW_AT_name("USER_ErrorCode_IdRated_delta_High"), DW_AT_const_value
    2893              $C$DW$345       .dwtag  DW_TAG_enumerator, DW_AT_name("USER_ErrorCode_IdRated_delta_Low"), DW_AT_const_value(
    2894              $C$DW$346       .dwtag  DW_TAG_enumerator, DW_AT_name("USER_ErrorCode_fluxEstFreq_Hz_High"), DW_AT_const_valu
    2895              $C$DW$347       .dwtag  DW_TAG_enumerator, DW_AT_name("USER_ErrorCode_fluxEstFreq_Hz_Low"), DW_AT_const_value
    2896              $C$DW$348       .dwtag  DW_TAG_enumerator, DW_AT_name("USER_ErrorCode_ctrlFreq_Hz_High"), DW_AT_const_value(0
    2897              $C$DW$349       .dwtag  DW_TAG_enumerator, DW_AT_name("USER_ErrorCode_ctrlFreq_Hz_Low"), DW_AT_const_value(0x
    2898              $C$DW$350       .dwtag  DW_TAG_enumerator, DW_AT_name("USER_ErrorCode_estFreq_Hz_High"), DW_AT_const_value(0x
    2899              $C$DW$351       .dwtag  DW_TAG_enumerator, DW_AT_name("USER_ErrorCode_estFreq_Hz_Low"), DW_AT_const_value(0x6
    2900              $C$DW$352       .dwtag  DW_TAG_enumerator, DW_AT_name("USER_ErrorCode_RoverL_estFreq_Hz_High"), DW_AT_const_v
    2901              $C$DW$353       .dwtag  DW_TAG_enumerator, DW_AT_name("USER_ErrorCode_RoverL_estFreq_Hz_Low"), DW_AT_const_va
    2902              $C$DW$354       .dwtag  DW_TAG_enumerator, DW_AT_name("USER_ErrorCode_trajFreq_Hz_High"), DW_AT_const_value(0
    2903              $C$DW$355       .dwtag  DW_TAG_enumerator, DW_AT_name("USER_ErrorCode_trajFreq_Hz_Low"), DW_AT_const_value(0x
    2904              $C$DW$356       .dwtag  DW_TAG_enumerator, DW_AT_name("USER_ErrorCode_ctrlPeriod_sec_High"), DW_AT_const_valu
    2905              $C$DW$357       .dwtag  DW_TAG_enumerator, DW_AT_name("USER_ErrorCode_ctrlPeriod_sec_Low"), DW_AT_const_value
    2906              $C$DW$358       .dwtag  DW_TAG_enumerator, DW_AT_name("USER_ErrorCode_maxNegativeIdCurrent_a_High"), DW_AT_co
    2907              $C$DW$359       .dwtag  DW_TAG_enumerator, DW_AT_name("USER_ErrorCode_maxNegativeIdCurrent_a_Low"), DW_AT_con
    2908              $C$DW$360       .dwtag  DW_TAG_enumerator, DW_AT_name("USER_numErrorCodes"), DW_AT_const_value(0x6a)
    2909                      .dwendtag $C$DW$T$74
    2910              
    2911              $C$DW$T$75      .dwtag  DW_TAG_typedef, DW_AT_name("USER_ErrorCode_e")
    2912                      .dwattr $C$DW$T$75, DW_AT_type(*$C$DW$T$74)
    2913                      .dwattr $C$DW$T$75, DW_AT_language(DW_LANG_C)
    2914              $C$DW$361       .dwtag  DW_TAG_TI_far_type
    2915                      .dwattr $C$DW$361, DW_AT_type(*$C$DW$T$75)
    2916              $C$DW$T$77      .dwtag  DW_TAG_const_type
    2917                      .dwattr $C$DW$T$77, DW_AT_type(*$C$DW$361)
    2918              
    2919              $C$DW$T$82      .dwtag  DW_TAG_enumeration_type
    2920                      .dwattr $C$DW$T$82, DW_AT_byte_size(0x01)
    2921              $C$DW$362       .dwtag  DW_TAG_enumerator, DW_AT_name("CTRL_Type_PID_spd"), DW_AT_const_value(0x00)
    2922              $C$DW$363       .dwtag  DW_TAG_enumerator, DW_AT_name("CTRL_Type_PID_Id"), DW_AT_const_value(0x01)
    2923              $C$DW$364       .dwtag  DW_TAG_enumerator, DW_AT_name("CTRL_Type_PID_Iq"), DW_AT_const_value(0x02)
    2924                      .dwendtag $C$DW$T$82
    2925              
    2926              $C$DW$T$83      .dwtag  DW_TAG_typedef, DW_AT_name("CTRL_Type_e")
    2927                      .dwattr $C$DW$T$83, DW_AT_type(*$C$DW$T$82)
    2928                      .dwattr $C$DW$T$83, DW_AT_language(DW_LANG_C)
TMS320C2000 Assembler PC v6.2.5 Mon Jun 19 18:10:37 2017

Tools Copyright (c) 1996-2014 Texas Instruments Incorporated
C:\Users\wmj\AppData\Local\Temp\1992810                              PAGE   59

    2929              $C$DW$365       .dwtag  DW_TAG_TI_far_type
    2930                      .dwattr $C$DW$365, DW_AT_type(*$C$DW$T$83)
    2931              $C$DW$T$84      .dwtag  DW_TAG_const_type
    2932                      .dwattr $C$DW$T$84, DW_AT_type(*$C$DW$365)
    2933              
    2934              $C$DW$T$23      .dwtag  DW_TAG_structure_type
    2935                      .dwattr $C$DW$T$23, DW_AT_name("_CLARKE_Obj_")
    2936                      .dwattr $C$DW$T$23, DW_AT_byte_size(0x06)
    2937              $C$DW$366       .dwtag  DW_TAG_member
    2938                      .dwattr $C$DW$366, DW_AT_type(*$C$DW$T$20)
    2939                      .dwattr $C$DW$366, DW_AT_name("alpha_sf")
    2940                      .dwattr $C$DW$366, DW_AT_TI_symbol_name("_alpha_sf")
    2941                      .dwattr $C$DW$366, DW_AT_data_member_location[DW_OP_plus_uconst 0x0]
    2942                      .dwattr $C$DW$366, DW_AT_accessibility(DW_ACCESS_public)
    2943              $C$DW$367       .dwtag  DW_TAG_member
    2944                      .dwattr $C$DW$367, DW_AT_type(*$C$DW$T$20)
    2945                      .dwattr $C$DW$367, DW_AT_name("beta_sf")
    2946                      .dwattr $C$DW$367, DW_AT_TI_symbol_name("_beta_sf")
    2947                      .dwattr $C$DW$367, DW_AT_data_member_location[DW_OP_plus_uconst 0x2]
    2948                      .dwattr $C$DW$367, DW_AT_accessibility(DW_ACCESS_public)
    2949              $C$DW$368       .dwtag  DW_TAG_member
    2950                      .dwattr $C$DW$368, DW_AT_type(*$C$DW$T$22)
    2951                      .dwattr $C$DW$368, DW_AT_name("numSensors")
    2952                      .dwattr $C$DW$368, DW_AT_TI_symbol_name("_numSensors")
    2953                      .dwattr $C$DW$368, DW_AT_data_member_location[DW_OP_plus_uconst 0x4]
    2954                      .dwattr $C$DW$368, DW_AT_accessibility(DW_ACCESS_public)
    2955                      .dwendtag $C$DW$T$23
    2956              
    2957              $C$DW$T$31      .dwtag  DW_TAG_typedef, DW_AT_name("CLARKE_Obj")
    2958                      .dwattr $C$DW$T$31, DW_AT_type(*$C$DW$T$23)
    2959                      .dwattr $C$DW$T$31, DW_AT_language(DW_LANG_C)
    2960              $C$DW$T$29      .dwtag  DW_TAG_pointer_type
    2961                      .dwattr $C$DW$T$29, DW_AT_type(*$C$DW$T$23)
    2962                      .dwattr $C$DW$T$29, DW_AT_address_class(0x16)
    2963              $C$DW$T$30      .dwtag  DW_TAG_typedef, DW_AT_name("CLARKE_Handle")
    2964                      .dwattr $C$DW$T$30, DW_AT_type(*$C$DW$T$29)
