TMS320C2000 Assembler PC v6.2.5 Thu Jun 22 15:17:10 2017

Tools Copyright (c) 1996-2014 Texas Instruments Incorporated
C:\Users\wmj\AppData\Local\Temp\1174810                              PAGE    1

       1              ;***************************************************************
       2              ;* TMS320C2000 C/C++ Codegen                         PC v6.2.5 *
       3              ;* Date/Time created: Thu Jun 22 15:17:10 2017                 *
       4              ;***************************************************************
       5                      .compiler_opts --float_support=softlib --hll_source=on --mem_model:code=flat --mem_model:data=large -
       6        0002  FP      .set    XAR2
       7              
       8              $C$DW$CU        .dwtag  DW_TAG_compile_unit
       9                      .dwattr $C$DW$CU, DW_AT_name("C:/ti/motorware/motorware_1_01_00_18/sw/modules/user/src/32b/user.c")
      10                      .dwattr $C$DW$CU, DW_AT_producer("TMS320C2000 C/C++ Codegen PC v6.2.5 Copyright (c) 1996-2014 Texas I
      11                      .dwattr $C$DW$CU, DW_AT_TI_version(0x01)
      12                      .dwattr $C$DW$CU, DW_AT_comp_dir("C:\ti\motorware\motorware_1_01_00_18\sw\solutions\instaspin_foc\boa
      13              
      14              $C$DW$1 .dwtag  DW_TAG_subprogram, DW_AT_name("EST_setLs_d_pu")
      15                      .dwattr $C$DW$1, DW_AT_TI_symbol_name("_EST_setLs_d_pu")
      16                      .dwattr $C$DW$1, DW_AT_declaration
      17                      .dwattr $C$DW$1, DW_AT_external
      18              $C$DW$2 .dwtag  DW_TAG_formal_parameter
      19                      .dwattr $C$DW$2, DW_AT_type(*$C$DW$T$33)
      20              $C$DW$3 .dwtag  DW_TAG_formal_parameter
      21                      .dwattr $C$DW$3, DW_AT_type(*$C$DW$T$90)
      22                      .dwendtag $C$DW$1
      23              
      24              
      25              $C$DW$4 .dwtag  DW_TAG_subprogram, DW_AT_name("EST_setLs_q_pu")
      26                      .dwattr $C$DW$4, DW_AT_TI_symbol_name("_EST_setLs_q_pu")
      27                      .dwattr $C$DW$4, DW_AT_declaration
      28                      .dwattr $C$DW$4, DW_AT_external
      29              $C$DW$5 .dwtag  DW_TAG_formal_parameter
      30                      .dwattr $C$DW$5, DW_AT_type(*$C$DW$T$33)
      31              $C$DW$6 .dwtag  DW_TAG_formal_parameter
      32                      .dwattr $C$DW$6, DW_AT_type(*$C$DW$T$90)
      33                      .dwendtag $C$DW$4
      34              
      35              
      36              $C$DW$7 .dwtag  DW_TAG_subprogram, DW_AT_name("EST_setLs_qFmt")
      37                      .dwattr $C$DW$7, DW_AT_TI_symbol_name("_EST_setLs_qFmt")
      38                      .dwattr $C$DW$7, DW_AT_declaration
      39                      .dwattr $C$DW$7, DW_AT_external
      40              $C$DW$8 .dwtag  DW_TAG_formal_parameter
      41                      .dwattr $C$DW$8, DW_AT_type(*$C$DW$T$33)
      42              $C$DW$9 .dwtag  DW_TAG_formal_parameter
      43                      .dwattr $C$DW$9, DW_AT_type(*$C$DW$T$93)
      44                      .dwendtag $C$DW$7
      45              
      46              
      47              $C$DW$10        .dwtag  DW_TAG_subprogram, DW_AT_name("pow")
      48                      .dwattr $C$DW$10, DW_AT_TI_symbol_name("_pow")
      49                      .dwattr $C$DW$10, DW_AT_type(*$C$DW$T$17)
      50                      .dwattr $C$DW$10, DW_AT_declaration
      51                      .dwattr $C$DW$10, DW_AT_external
      52              $C$DW$11        .dwtag  DW_TAG_formal_parameter
      53                      .dwattr $C$DW$11, DW_AT_type(*$C$DW$T$17)
      54              $C$DW$12        .dwtag  DW_TAG_formal_parameter
      55                      .dwattr $C$DW$12, DW_AT_type(*$C$DW$T$17)
TMS320C2000 Assembler PC v6.2.5 Thu Jun 22 15:17:10 2017

Tools Copyright (c) 1996-2014 Texas Instruments Incorporated
C:\Users\wmj\AppData\Local\Temp\1174810                              PAGE    2

      56                      .dwendtag $C$DW$10
      57              
      58              
      59              $C$DW$13        .dwtag  DW_TAG_subprogram, DW_AT_name("_IQ30toF")
      60                      .dwattr $C$DW$13, DW_AT_TI_symbol_name("__IQ30toF")
      61                      .dwattr $C$DW$13, DW_AT_type(*$C$DW$T$16)
      62                      .dwattr $C$DW$13, DW_AT_declaration
      63                      .dwattr $C$DW$13, DW_AT_external
      64              $C$DW$14        .dwtag  DW_TAG_formal_parameter
      65                      .dwattr $C$DW$14, DW_AT_type(*$C$DW$T$12)
      66                      .dwendtag $C$DW$13
      67              
      68              
      69              $C$DW$15        .dwtag  DW_TAG_subprogram, DW_AT_name("log")
      70                      .dwattr $C$DW$15, DW_AT_TI_symbol_name("_log")
      71                      .dwattr $C$DW$15, DW_AT_type(*$C$DW$T$17)
      72                      .dwattr $C$DW$15, DW_AT_declaration
      73                      .dwattr $C$DW$15, DW_AT_external
      74              $C$DW$16        .dwtag  DW_TAG_formal_parameter
      75                      .dwattr $C$DW$16, DW_AT_type(*$C$DW$T$17)
      76                      .dwendtag $C$DW$15
      77              
      78              
      79              $C$DW$17        .dwtag  DW_TAG_subprogram, DW_AT_name("modf")
      80                      .dwattr $C$DW$17, DW_AT_TI_symbol_name("_modf")
      81                      .dwattr $C$DW$17, DW_AT_type(*$C$DW$T$17)
      82                      .dwattr $C$DW$17, DW_AT_declaration
      83                      .dwattr $C$DW$17, DW_AT_external
      84              $C$DW$18        .dwtag  DW_TAG_formal_parameter
      85                      .dwattr $C$DW$18, DW_AT_type(*$C$DW$T$17)
      86              $C$DW$19        .dwtag  DW_TAG_formal_parameter
      87                      .dwattr $C$DW$19, DW_AT_type(*$C$DW$T$118)
      88                      .dwendtag $C$DW$17
      89              
      90              
      91              $C$DW$20        .dwtag  DW_TAG_subprogram, DW_AT_name("__IQmpy")
      92                      .dwattr $C$DW$20, DW_AT_TI_symbol_name("___IQmpy")
      93                      .dwattr $C$DW$20, DW_AT_type(*$C$DW$T$12)
      94                      .dwattr $C$DW$20, DW_AT_declaration
      95                      .dwattr $C$DW$20, DW_AT_external
      96              $C$DW$21        .dwtag  DW_TAG_formal_parameter
      97                      .dwattr $C$DW$21, DW_AT_type(*$C$DW$T$12)
      98              $C$DW$22        .dwtag  DW_TAG_formal_parameter
      99                      .dwattr $C$DW$22, DW_AT_type(*$C$DW$T$12)
     100              $C$DW$23        .dwtag  DW_TAG_formal_parameter
     101                      .dwattr $C$DW$23, DW_AT_type(*$C$DW$T$10)
     102                      .dwendtag $C$DW$20
     103              
     104              
     105              $C$DW$24        .dwtag  DW_TAG_subprogram, DW_AT_name("EST_getLs_coarse_max_pu")
     106                      .dwattr $C$DW$24, DW_AT_TI_symbol_name("_EST_getLs_coarse_max_pu")
     107                      .dwattr $C$DW$24, DW_AT_type(*$C$DW$T$20)
     108                      .dwattr $C$DW$24, DW_AT_declaration
     109                      .dwattr $C$DW$24, DW_AT_external
     110              $C$DW$25        .dwtag  DW_TAG_formal_parameter
TMS320C2000 Assembler PC v6.2.5 Thu Jun 22 15:17:10 2017

Tools Copyright (c) 1996-2014 Texas Instruments Incorporated
C:\Users\wmj\AppData\Local\Temp\1174810                              PAGE    3

     111                      .dwattr $C$DW$25, DW_AT_type(*$C$DW$T$33)
     112                      .dwendtag $C$DW$24
     113              
     114              
     115              $C$DW$26        .dwtag  DW_TAG_subprogram, DW_AT_name("EST_getLs_d_pu")
     116                      .dwattr $C$DW$26, DW_AT_TI_symbol_name("_EST_getLs_d_pu")
     117                      .dwattr $C$DW$26, DW_AT_type(*$C$DW$T$20)
     118                      .dwattr $C$DW$26, DW_AT_declaration
     119                      .dwattr $C$DW$26, DW_AT_external
     120              $C$DW$27        .dwtag  DW_TAG_formal_parameter
     121                      .dwattr $C$DW$27, DW_AT_type(*$C$DW$T$33)
     122                      .dwendtag $C$DW$26
     123              
     124              
     125              $C$DW$28        .dwtag  DW_TAG_subprogram, DW_AT_name("EST_getLs_q_pu")
     126                      .dwattr $C$DW$28, DW_AT_TI_symbol_name("_EST_getLs_q_pu")
     127                      .dwattr $C$DW$28, DW_AT_type(*$C$DW$T$20)
     128                      .dwattr $C$DW$28, DW_AT_declaration
     129                      .dwattr $C$DW$28, DW_AT_external
     130              $C$DW$29        .dwtag  DW_TAG_formal_parameter
     131                      .dwattr $C$DW$29, DW_AT_type(*$C$DW$T$33)
     132                      .dwendtag $C$DW$28
     133              
     134              
     135              $C$DW$30        .dwtag  DW_TAG_subprogram, DW_AT_name("EST_getFlux_pu")
     136                      .dwattr $C$DW$30, DW_AT_TI_symbol_name("_EST_getFlux_pu")
     137                      .dwattr $C$DW$30, DW_AT_type(*$C$DW$T$20)
     138                      .dwattr $C$DW$30, DW_AT_declaration
     139                      .dwattr $C$DW$30, DW_AT_external
     140              $C$DW$31        .dwtag  DW_TAG_formal_parameter
     141                      .dwattr $C$DW$31, DW_AT_type(*$C$DW$T$33)
     142                      .dwendtag $C$DW$30
     143              
     144              ;       c:\ti\ccsv6\tools\compiler\c2000_6.2.5\bin\opt2000.exe C:\\Users\\wmj\\AppData\\Local\\Temp\\117482 C
     145              ;       c:\ti\ccsv6\tools\compiler\c2000_6.2.5\bin\ac2000.exe -@C:\\Users\\wmj\\AppData\\Local\\Temp\\1174816
     146 00000000               .sect   ".text"
     147                      .clink
     148                      .global _USER_softwareUpdate1p6
     149              
     150              $C$DW$32        .dwtag  DW_TAG_subprogram, DW_AT_name("USER_softwareUpdate1p6")
     151                      .dwattr $C$DW$32, DW_AT_low_pc(_USER_softwareUpdate1p6)
     152                      .dwattr $C$DW$32, DW_AT_high_pc(0x00)
     153                      .dwattr $C$DW$32, DW_AT_TI_symbol_name("_USER_softwareUpdate1p6")
     154                      .dwattr $C$DW$32, DW_AT_external
     155                      .dwattr $C$DW$32, DW_AT_TI_begin_file("C:/ti/motorware/motorware_1_01_00_18/sw/modules/user/src/32b/u
     156                      .dwattr $C$DW$32, DW_AT_TI_begin_line(0x343)
     157                      .dwattr $C$DW$32, DW_AT_TI_begin_column(0x06)
     158                      .dwattr $C$DW$32, DW_AT_TI_max_frame_size(-22)
     159                      .dwpsn  file "C:/ti/motorware/motorware_1_01_00_18/sw/modules/user/src/32b/user.c",line 836,column 1,
     160              
     161                      .dwfde $C$DW$CIE, _USER_softwareUpdate1p6
     162              $C$DW$33        .dwtag  DW_TAG_formal_parameter, DW_AT_name("handle")
     163                      .dwattr $C$DW$33, DW_AT_TI_symbol_name("_handle")
     164                      .dwattr $C$DW$33, DW_AT_type(*$C$DW$T$84)
     165                      .dwattr $C$DW$33, DW_AT_location[DW_OP_reg12]
TMS320C2000 Assembler PC v6.2.5 Thu Jun 22 15:17:10 2017

Tools Copyright (c) 1996-2014 Texas Instruments Incorporated
C:\Users\wmj\AppData\Local\Temp\1174810                              PAGE    4

     166              
     167              ;***************************************************************
     168              ;* FNAME: _USER_softwareUpdate1p6       FR SIZE:  20           *
     169              ;*                                                             *
     170              ;* FUNCTION ENVIRONMENT                                        *
     171              ;*                                                             *
     172              ;* FUNCTION PROPERTIES                                         *
     173              ;*                            2 Parameter, 11 Auto,  6 SOE     *
     174              ;***************************************************************
     175              
     176              _USER_softwareUpdate1p6:
     177              ;* AL    assigned to _x
     178              $C$DW$34        .dwtag  DW_TAG_variable, DW_AT_name("x")
     179                      .dwattr $C$DW$34, DW_AT_TI_symbol_name("_x")
     180                      .dwattr $C$DW$34, DW_AT_type(*$C$DW$T$17)
     181                      .dwattr $C$DW$34, DW_AT_location[DW_OP_reg0]
     182              $C$DW$35        .dwtag  DW_TAG_variable, DW_AT_name("y")
     183                      .dwattr $C$DW$35, DW_AT_TI_symbol_name("_y")
     184                      .dwattr $C$DW$35, DW_AT_type(*$C$DW$T$17)
     185                      .dwattr $C$DW$35, DW_AT_location[DW_OP_breg20 -4]
     186              ;* AR2   assigned to _Ls_q_pu
     187              $C$DW$36        .dwtag  DW_TAG_variable, DW_AT_name("Ls_q_pu")
     188                      .dwattr $C$DW$36, DW_AT_TI_symbol_name("_Ls_q_pu")
     189                      .dwattr $C$DW$36, DW_AT_type(*$C$DW$T$20)
     190                      .dwattr $C$DW$36, DW_AT_location[DW_OP_reg8]
     191              ;* AR1   assigned to _L_max
     192              $C$DW$37        .dwtag  DW_TAG_variable, DW_AT_name("L_max")
     193                      .dwattr $C$DW$37, DW_AT_TI_symbol_name("_L_max")
     194                      .dwattr $C$DW$37, DW_AT_type(*$C$DW$T$54)
     195                      .dwattr $C$DW$37, DW_AT_location[DW_OP_reg6]
     196              ;* AR6   assigned to _Ls_coarse_max
     197              $C$DW$38        .dwtag  DW_TAG_variable, DW_AT_name("Ls_coarse_max")
     198                      .dwattr $C$DW$38, DW_AT_TI_symbol_name("_Ls_coarse_max")
     199                      .dwattr $C$DW$38, DW_AT_type(*$C$DW$T$54)
     200                      .dwattr $C$DW$38, DW_AT_location[DW_OP_reg16]
     201              ;* AR3   assigned to _handle
     202              $C$DW$39        .dwtag  DW_TAG_variable, DW_AT_name("handle")
     203                      .dwattr $C$DW$39, DW_AT_TI_symbol_name("_handle")
     204                      .dwattr $C$DW$39, DW_AT_type(*$C$DW$T$85)
     205                      .dwattr $C$DW$39, DW_AT_location[DW_OP_reg10]
     206              ;* AL    assigned to $O$R1
     207                      .dwcfi  cfa_offset, -2
     208                      .dwcfi  save_reg_to_mem, 26, 0
     209                      .dwcfi  save_reg_to_reg, 78, 26
     210 00000000 B2BD          MOVL      *SP++,XAR1            ; [CPU_] 
     211                      .dwcfi  save_reg_to_mem, 7, 2
     212                      .dwcfi  cfa_offset, -4
     213 00000001 AABD          MOVL      *SP++,XAR2            ; [CPU_] 
     214                      .dwcfi  save_reg_to_mem, 9, 4
     215                      .dwcfi  cfa_offset, -6
     216 00000002 A2BD          MOVL      *SP++,XAR3            ; [CPU_] 
     217                      .dwcfi  save_reg_to_mem, 11, 6
     218                      .dwcfi  cfa_offset, -8
     219 00000003 FE0E          ADDB      SP,#14                ; [CPU_U] 
     220                      .dwcfi  cfa_offset, -22
TMS320C2000 Assembler PC v6.2.5 Thu Jun 22 15:17:10 2017

Tools Copyright (c) 1996-2014 Texas Instruments Incorporated
C:\Users\wmj\AppData\Local\Temp\1174810                              PAGE    5

     221                      .dwpsn  file "C:/ti/motorware/motorware_1_01_00_18/sw/modules/user/src/32b/user.c",line 839,column 25
     222 00000004 D018          MOVB      XAR0,#24              ; [CPU_] |839| 
     223                      .dwpsn  file "C:/ti/motorware/motorware_1_01_00_18/sw/modules/user/src/32b/user.c",line 836,column 1,
     224 00000005 82A4          MOVL      XAR3,XAR4             ; [CPU_] |836| 
     225                      .dwpsn  file "C:/ti/motorware/motorware_1_01_00_18/sw/modules/user/src/32b/user.c",line 839,column 25
     226 00000006 8A93          MOVL      XAR4,*+XAR3[AR0]      ; [CPU_] |839| 
     227              $C$DW$40        .dwtag  DW_TAG_TI_branch
     228                      .dwattr $C$DW$40, DW_AT_low_pc(0x00)
     229                      .dwattr $C$DW$40, DW_AT_name("_EST_getLs_coarse_max_pu")
     230                      .dwattr $C$DW$40, DW_AT_TI_call
     231 00000007 7640!         LCR       #_EST_getLs_coarse_max_pu ; [CPU_] |839| 
         00000008 0000 
     232                      ; call occurs [#_EST_getLs_coarse_max_pu] ; [] |839| 
     233              $C$DW$41        .dwtag  DW_TAG_TI_branch
     234                      .dwattr $C$DW$41, DW_AT_low_pc(0x00)
     235                      .dwattr $C$DW$41, DW_AT_name("__IQ30toF")
     236                      .dwattr $C$DW$41, DW_AT_TI_call
     237 00000009 7640!         LCR       #__IQ30toF            ; [CPU_] |839| 
         0000000a 0000 
     238                      ; call occurs [#__IQ30toF] ; [] |839| 
     239 0000000b 1EA6          MOVL      XAR6,ACC              ; [CPU_] |839| 
     240                      .dwpsn  file "C:/ti/motorware/motorware_1_01_00_18/sw/modules/user/src/32b/user.c",line 840,column 23
     241 0000000c 28A9          MOV       AL,#33142             ; [CPU_] |840| 
         0000000d 8176 
     242 0000000e 28A8          MOV       AH,#15517             ; [CPU_] |840| 
         0000000f 3C9D 
     243 00000010 1E42          MOVL      *-SP[2],ACC           ; [CPU_] |840| 
     244 00000011 06A6          MOVL      ACC,XAR6              ; [CPU_] |840| 
     245              $C$DW$42        .dwtag  DW_TAG_TI_branch
     246                      .dwattr $C$DW$42, DW_AT_low_pc(0x00)
     247                      .dwattr $C$DW$42, DW_AT_name("FS$$MPY")
     248                      .dwattr $C$DW$42, DW_AT_TI_call
     249 00000012 7640!         LCR       #FS$$MPY              ; [CPU_] |840| 
         00000013 0000 
     250                      ; call occurs [#FS$$MPY] ; [] |840| 
     251 00000014 D088          MOVB      XAR0,#136             ; [CPU_] |840| 
     252 00000015 1E42          MOVL      *-SP[2],ACC           ; [CPU_] |840| 
     253 00000016 0693          MOVL      ACC,*+XAR3[AR0]       ; [CPU_] |840| 
     254              $C$DW$43        .dwtag  DW_TAG_TI_branch
     255                      .dwattr $C$DW$43, DW_AT_low_pc(0x00)
     256                      .dwattr $C$DW$43, DW_AT_name("FS$$DIV")
     257                      .dwattr $C$DW$43, DW_AT_TI_call
     258 00000017 7640!         LCR       #FS$$DIV              ; [CPU_] |840| 
         00000018 0000 
     259                      ; call occurs [#FS$$DIV] ; [] |840| 
     260              $C$DW$44        .dwtag  DW_TAG_TI_branch
     261                      .dwattr $C$DW$44, DW_AT_low_pc(0x00)
     262                      .dwattr $C$DW$44, DW_AT_name("_log")
     263                      .dwattr $C$DW$44, DW_AT_TI_call
     264 00000019 7640!         LCR       #_log                 ; [CPU_] |840| 
         0000001a 0000 
     265                      ; call occurs [#_log] ; [] |840| 
     266 0000001b 8BA9          MOVL      XAR1,ACC              ; [CPU_] |840| 
     267 0000001c 9A00          MOV       AL,#0                 ; [CPU_] |840| 
     268 0000001d 28A8          MOV       AH,#16384             ; [CPU_] |840| 
TMS320C2000 Assembler PC v6.2.5 Thu Jun 22 15:17:10 2017

Tools Copyright (c) 1996-2014 Texas Instruments Incorporated
C:\Users\wmj\AppData\Local\Temp\1174810                              PAGE    6

         0000001e 4000 
     269              $C$DW$45        .dwtag  DW_TAG_TI_branch
     270                      .dwattr $C$DW$45, DW_AT_low_pc(0x00)
     271                      .dwattr $C$DW$45, DW_AT_name("_log")
     272                      .dwattr $C$DW$45, DW_AT_TI_call
     273 0000001f 7640!         LCR       #_log                 ; [CPU_] |840| 
         00000020 0000 
     274                      ; call occurs [#_log] ; [] |840| 
     275 00000021 1E42          MOVL      *-SP[2],ACC           ; [CPU_] |840| 
     276 00000022 B2A9          MOVL      ACC,XAR1              ; [CPU_] |840| 
     277              $C$DW$46        .dwtag  DW_TAG_TI_branch
     278                      .dwattr $C$DW$46, DW_AT_low_pc(0x00)
     279                      .dwattr $C$DW$46, DW_AT_name("FS$$DIV")
     280                      .dwattr $C$DW$46, DW_AT_TI_call
     281 00000023 7640!         LCR       #FS$$DIV              ; [CPU_] |840| 
         00000024 0000 
     282                      ; call occurs [#FS$$DIV] ; [] |840| 
     283                      .dwpsn  file "c:/ti/ccsv6/tools/compiler/c2000_6.2.5/include/math.h",line 110,column 45,is_stmt
     284 00000025 5CAD          MOVZ      AR4,SP                ; [CPU_U] |110| 
     285 00000026 DC84          SUBB      XAR4,#4               ; [CPU_U] |110| 
     286              $C$DW$47        .dwtag  DW_TAG_TI_branch
     287                      .dwattr $C$DW$47, DW_AT_low_pc(0x00)
     288                      .dwattr $C$DW$47, DW_AT_name("_modf")
     289                      .dwattr $C$DW$47, DW_AT_TI_call
     290 00000027 7640!         LCR       #_modf                ; [CPU_] |110| 
         00000028 0000 
     291                      ; call occurs [#_modf] ; [] |110| 
     292 00000029 1EA6          MOVL      XAR6,ACC              ; [CPU_] |110| 
     293 0000002a 9A00          MOV       AL,#0                 ; [CPU_] |110| 
     294 0000002b 9B00          MOV       AH,#0                 ; [CPU_] |110| 
     295 0000002c 1E42          MOVL      *-SP[2],ACC           ; [CPU_] |110| 
     296 0000002d 06A6          MOVL      ACC,XAR6              ; [CPU_] |110| 
     297              $C$DW$48        .dwtag  DW_TAG_TI_branch
     298                      .dwattr $C$DW$48, DW_AT_low_pc(0x00)
     299                      .dwattr $C$DW$48, DW_AT_name("FS$$CMP")
     300                      .dwattr $C$DW$48, DW_AT_TI_call
     301 0000002e 7640!         LCR       #FS$$CMP              ; [CPU_] |110| 
         0000002f 0000 
     302                      ; call occurs [#FS$$CMP] ; [] |110| 
     303 00000030 5200          CMPB      AL,#0                 ; [CPU_] |110| 
     304 00000031 6203          B         $C$L1,GT              ; [CPU_] |110| 
     305                      ; branchcc occurs ; [] |110| 
     306 00000032 0644          MOVL      ACC,*-SP[4]           ; [CPU_] |110| 
     307 00000033 6F07          B         $C$L2,UNC             ; [CPU_] |110| 
     308                      ; branch occurs ; [] |110| 
     309 00000034       $C$L1:    
     310 00000034 FF2F          MOV       ACC,#32512 << 15      ; [CPU_] |110| 
         00000035 7F00 
     311 00000036 1E42          MOVL      *-SP[2],ACC           ; [CPU_] |110| 
     312 00000037 0644          MOVL      ACC,*-SP[4]           ; [CPU_] |110| 
     313              $C$DW$49        .dwtag  DW_TAG_TI_branch
     314                      .dwattr $C$DW$49, DW_AT_low_pc(0x00)
     315                      .dwattr $C$DW$49, DW_AT_name("FS$$ADD")
     316                      .dwattr $C$DW$49, DW_AT_TI_call
     317 00000038 7640!         LCR       #FS$$ADD              ; [CPU_] |110| 
TMS320C2000 Assembler PC v6.2.5 Thu Jun 22 15:17:10 2017

Tools Copyright (c) 1996-2014 Texas Instruments Incorporated
C:\Users\wmj\AppData\Local\Temp\1174810                              PAGE    7

         00000039 0000 
     318                      ; call occurs [#FS$$ADD] ; [] |110| 
     319 0000003a       $C$L2:    
     320                      .dwpsn  file "C:/ti/motorware/motorware_1_01_00_18/sw/modules/user/src/32b/user.c",line 842,column 17
     321              $C$DW$50        .dwtag  DW_TAG_TI_branch
     322                      .dwattr $C$DW$50, DW_AT_low_pc(0x00)
     323                      .dwattr $C$DW$50, DW_AT_name("FS$$TOI")
     324                      .dwattr $C$DW$50, DW_AT_TI_call
     325 0000003a 7640!         LCR       #FS$$TOI              ; [CPU_] |842| 
         0000003b 0000 
     326                      ; call occurs [#FS$$TOI] ; [] |842| 
     327 0000003c 964D          MOV       *-SP[13],AL           ; [CPU_] |842| 
     328              $C$DW$51        .dwtag  DW_TAG_TI_branch
     329                      .dwattr $C$DW$51, DW_AT_low_pc(0x00)
     330                      .dwattr $C$DW$51, DW_AT_name("I$$TOFS")
     331                      .dwattr $C$DW$51, DW_AT_TI_call
     332 0000003d 7640!         LCR       #I$$TOFS              ; [CPU_] |842| 
         0000003e 0000 
     333                      ; call occurs [#I$$TOFS] ; [] |842| 
     334 0000003f 1E42          MOVL      *-SP[2],ACC           ; [CPU_] |842| 
     335 00000040 9A00          MOV       AL,#0                 ; [CPU_] |842| 
     336 00000041 28A8          MOV       AH,#16384             ; [CPU_] |842| 
         00000042 4000 
     337              $C$DW$52        .dwtag  DW_TAG_TI_branch
     338                      .dwattr $C$DW$52, DW_AT_low_pc(0x00)
     339                      .dwattr $C$DW$52, DW_AT_name("_pow")
     340                      .dwattr $C$DW$52, DW_AT_TI_call
     341 00000043 7640!         LCR       #_pow                 ; [CPU_] |842| 
         00000044 0000 
     342                      ; call occurs [#_pow] ; [] |842| 
     343 00000045 1EA6          MOVL      XAR6,ACC              ; [CPU_] |842| 
     344 00000046 28A9          MOV       AL,#33142             ; [CPU_] |842| 
         00000047 8176 
     345 00000048 28A8          MOV       AH,#15517             ; [CPU_] |842| 
         00000049 3C9D 
     346 0000004a 1E42          MOVL      *-SP[2],ACC           ; [CPU_] |842| 
     347 0000004b 06A6          MOVL      ACC,XAR6              ; [CPU_] |842| 
     348              $C$DW$53        .dwtag  DW_TAG_TI_branch
     349                      .dwattr $C$DW$53, DW_AT_low_pc(0x00)
     350                      .dwattr $C$DW$53, DW_AT_name("FS$$MPY")
     351                      .dwattr $C$DW$53, DW_AT_TI_call
     352 0000004c 7640!         LCR       #FS$$MPY              ; [CPU_] |842| 
         0000004d 0000 
     353                      ; call occurs [#FS$$MPY] ; [] |842| 
     354                      .dwpsn  file "C:/ti/motorware/motorware_1_01_00_18/sw/modules/user/src/32b/user.c",line 844,column 15
     355 0000004e D08A          MOVB      XAR0,#138             ; [CPU_] |844| 
     356                      .dwpsn  file "C:/ti/motorware/motorware_1_01_00_18/sw/modules/user/src/32b/user.c",line 842,column 17
     357 0000004f 8BA9          MOVL      XAR1,ACC              ; [CPU_] |842| 
     358                      .dwpsn  file "C:/ti/motorware/motorware_1_01_00_18/sw/modules/user/src/32b/user.c",line 844,column 15
     359 00000050 1E42          MOVL      *-SP[2],ACC           ; [CPU_] |844| 
     360 00000051 0693          MOVL      ACC,*+XAR3[AR0]       ; [CPU_] |844| 
     361              $C$DW$54        .dwtag  DW_TAG_TI_branch
     362                      .dwattr $C$DW$54, DW_AT_low_pc(0x00)
     363                      .dwattr $C$DW$54, DW_AT_name("FS$$DIV")
     364                      .dwattr $C$DW$54, DW_AT_TI_call
TMS320C2000 Assembler PC v6.2.5 Thu Jun 22 15:17:10 2017

Tools Copyright (c) 1996-2014 Texas Instruments Incorporated
C:\Users\wmj\AppData\Local\Temp\1174810                              PAGE    8

     365 00000052 7640!         LCR       #FS$$DIV              ; [CPU_] |844| 
         00000053 0000 
     366                      ; call occurs [#FS$$DIV] ; [] |844| 
     367 00000054 88AD          MOVZ      AR6,SP                ; [CPU_U] |844| 
     368 00000055 DE8C          SUBB      XAR6,#12              ; [CPU_U] |844| 
     369              $C$DW$55        .dwtag  DW_TAG_TI_branch
     370                      .dwattr $C$DW$55, DW_AT_low_pc(0x00)
     371                      .dwattr $C$DW$55, DW_AT_name("FS$$TOFD")
     372                      .dwattr $C$DW$55, DW_AT_TI_call
     373 00000056 7640!         LCR       #FS$$TOFD             ; [CPU_] |844| 
         00000057 0000 
     374                      ; call occurs [#FS$$TOFD] ; [] |844| 
     375 00000058 5CAD          MOVZ      AR4,SP                ; [CPU_U] |844| 
     376 00000059 88AD          MOVZ      AR6,SP                ; [CPU_U] |844| 
     377 0000005a 8F40+         MOVL      XAR5,#$C$FL1          ; [CPU_U] |844| 
         0000005b 0000 
     378 0000005c DC8C          SUBB      XAR4,#12              ; [CPU_U] |844| 
     379 0000005d DE88          SUBB      XAR6,#8               ; [CPU_U] |844| 
     380              $C$DW$56        .dwtag  DW_TAG_TI_branch
     381                      .dwattr $C$DW$56, DW_AT_low_pc(0x00)
     382                      .dwattr $C$DW$56, DW_AT_name("FD$$MPY")
     383                      .dwattr $C$DW$56, DW_AT_TI_call
     384 0000005e 7640!         LCR       #FD$$MPY              ; [CPU_] |844| 
         0000005f 0000 
     385                      ; call occurs [#FD$$MPY] ; [] |844| 
     386 00000060 5CAD          MOVZ      AR4,SP                ; [CPU_U] |844| 
     387 00000061 DC88          SUBB      XAR4,#8               ; [CPU_U] |844| 
     388              $C$DW$57        .dwtag  DW_TAG_TI_branch
     389                      .dwattr $C$DW$57, DW_AT_low_pc(0x00)
     390                      .dwattr $C$DW$57, DW_AT_name("FD$$TOL")
     391                      .dwattr $C$DW$57, DW_AT_TI_call
     392 00000062 7640!         LCR       #FD$$TOL              ; [CPU_] |844| 
         00000063 0000 
     393                      ; call occurs [#FD$$TOL] ; [] |844| 
     394                      .dwpsn  file "C:/ti/motorware/motorware_1_01_00_18/sw/modules/user/src/32b/user.c",line 848,column 3,
     395 00000064 D088          MOVB      XAR0,#136             ; [CPU_] |848| 
     396                      .dwpsn  file "C:/ti/motorware/motorware_1_01_00_18/sw/modules/user/src/32b/user.c",line 844,column 15
     397 00000065 86A9          MOVL      XAR2,ACC              ; [CPU_] |844| 
     398                      .dwpsn  file "C:/ti/motorware/motorware_1_01_00_18/sw/modules/user/src/32b/user.c",line 848,column 3,
     399 00000066 B242          MOVL      *-SP[2],XAR1          ; [CPU_] |848| 
     400 00000067 0693          MOVL      ACC,*+XAR3[AR0]       ; [CPU_] |848| 
     401              $C$DW$58        .dwtag  DW_TAG_TI_branch
     402                      .dwattr $C$DW$58, DW_AT_low_pc(0x00)
     403                      .dwattr $C$DW$58, DW_AT_name("FS$$DIV")
     404                      .dwattr $C$DW$58, DW_AT_TI_call
     405 00000068 7640!         LCR       #FS$$DIV              ; [CPU_] |848| 
         00000069 0000 
     406                      ; call occurs [#FS$$DIV] ; [] |848| 
     407 0000006a 88AD          MOVZ      AR6,SP                ; [CPU_U] |848| 
     408 0000006b DE8C          SUBB      XAR6,#12              ; [CPU_U] |848| 
     409              $C$DW$59        .dwtag  DW_TAG_TI_branch
     410                      .dwattr $C$DW$59, DW_AT_low_pc(0x00)
     411                      .dwattr $C$DW$59, DW_AT_name("FS$$TOFD")
     412                      .dwattr $C$DW$59, DW_AT_TI_call
     413 0000006c 7640!         LCR       #FS$$TOFD             ; [CPU_] |848| 
TMS320C2000 Assembler PC v6.2.5 Thu Jun 22 15:17:10 2017

Tools Copyright (c) 1996-2014 Texas Instruments Incorporated
C:\Users\wmj\AppData\Local\Temp\1174810                              PAGE    9

         0000006d 0000 
     414                      ; call occurs [#FS$$TOFD] ; [] |848| 
     415 0000006e 5CAD          MOVZ      AR4,SP                ; [CPU_U] |848| 
     416 0000006f 88AD          MOVZ      AR6,SP                ; [CPU_U] |848| 
     417 00000070 8F40+         MOVL      XAR5,#$C$FL1          ; [CPU_U] |848| 
         00000071 0000 
     418 00000072 DC8C          SUBB      XAR4,#12              ; [CPU_U] |848| 
     419 00000073 DE88          SUBB      XAR6,#8               ; [CPU_U] |848| 
     420              $C$DW$60        .dwtag  DW_TAG_TI_branch
     421                      .dwattr $C$DW$60, DW_AT_low_pc(0x00)
     422                      .dwattr $C$DW$60, DW_AT_name("FD$$MPY")
     423                      .dwattr $C$DW$60, DW_AT_TI_call
     424 00000074 7640!         LCR       #FD$$MPY              ; [CPU_] |848| 
         00000075 0000 
     425                      ; call occurs [#FD$$MPY] ; [] |848| 
     426 00000076 5CAD          MOVZ      AR4,SP                ; [CPU_U] |848| 
     427 00000077 DC88          SUBB      XAR4,#8               ; [CPU_U] |848| 
     428              $C$DW$61        .dwtag  DW_TAG_TI_branch
     429                      .dwattr $C$DW$61, DW_AT_low_pc(0x00)
     430                      .dwattr $C$DW$61, DW_AT_name("FD$$TOL")
     431                      .dwattr $C$DW$61, DW_AT_TI_call
     432 00000078 7640!         LCR       #FD$$TOL              ; [CPU_] |848| 
         00000079 0000 
     433                      ; call occurs [#FD$$TOL] ; [] |848| 
     434 0000007a D018          MOVB      XAR0,#24              ; [CPU_] |848| 
     435 0000007b 8A93          MOVL      XAR4,*+XAR3[AR0]      ; [CPU_] |848| 
     436              $C$DW$62        .dwtag  DW_TAG_TI_branch
     437                      .dwattr $C$DW$62, DW_AT_low_pc(0x00)
     438                      .dwattr $C$DW$62, DW_AT_name("_EST_setLs_d_pu")
     439                      .dwattr $C$DW$62, DW_AT_TI_call
     440 0000007c 7640!         LCR       #_EST_setLs_d_pu      ; [CPU_] |848| 
         0000007d 0000 
     441                      ; call occurs [#_EST_setLs_d_pu] ; [] |848| 
     442                      .dwpsn  file "C:/ti/motorware/motorware_1_01_00_18/sw/modules/user/src/32b/user.c",line 849,column 3,
     443 0000007e D018          MOVB      XAR0,#24              ; [CPU_] |849| 
     444 0000007f AAA9          MOVL      ACC,XAR2              ; [CPU_] |849| 
     445 00000080 8A93          MOVL      XAR4,*+XAR3[AR0]      ; [CPU_] |849| 
     446              $C$DW$63        .dwtag  DW_TAG_TI_branch
     447                      .dwattr $C$DW$63, DW_AT_low_pc(0x00)
     448                      .dwattr $C$DW$63, DW_AT_name("_EST_setLs_q_pu")
     449                      .dwattr $C$DW$63, DW_AT_TI_call
     450 00000081 7640!         LCR       #_EST_setLs_q_pu      ; [CPU_] |849| 
         00000082 0000 
     451                      ; call occurs [#_EST_setLs_q_pu] ; [] |849| 
     452                      .dwpsn  file "C:/ti/motorware/motorware_1_01_00_18/sw/modules/user/src/32b/user.c",line 850,column 3,
     453 00000083 9A1E          MOVB      AL,#30                ; [CPU_] |850| 
     454 00000084 9E4D          SUB       AL,*-SP[13]           ; [CPU_] |850| 
     455 00000085 D018          MOVB      XAR0,#24              ; [CPU_] |850| 
     456 00000086 8A93          MOVL      XAR4,*+XAR3[AR0]      ; [CPU_] |850| 
     457              $C$DW$64        .dwtag  DW_TAG_TI_branch
     458                      .dwattr $C$DW$64, DW_AT_low_pc(0x00)
     459                      .dwattr $C$DW$64, DW_AT_name("_EST_setLs_qFmt")
     460                      .dwattr $C$DW$64, DW_AT_TI_call
     461 00000087 7640!         LCR       #_EST_setLs_qFmt      ; [CPU_] |850| 
         00000088 0000 
TMS320C2000 Assembler PC v6.2.5 Thu Jun 22 15:17:10 2017

Tools Copyright (c) 1996-2014 Texas Instruments Incorporated
C:\Users\wmj\AppData\Local\Temp\1174810                              PAGE   10

     462                      ; call occurs [#_EST_setLs_qFmt] ; [] |850| 
     463 00000089 FE8E          SUBB      SP,#14                ; [CPU_U] 
     464                      .dwcfi  cfa_offset, -8
     465 0000008a 82BE          MOVL      XAR3,*--SP            ; [CPU_] 
     466                      .dwcfi  cfa_offset, -6
     467                      .dwcfi  restore_reg, 11
     468 0000008b 86BE          MOVL      XAR2,*--SP            ; [CPU_] 
     469                      .dwcfi  cfa_offset, -4
     470                      .dwcfi  restore_reg, 9
     471 0000008c 8BBE          MOVL      XAR1,*--SP            ; [CPU_] 
     472                      .dwcfi  cfa_offset, -2
     473                      .dwcfi  restore_reg, 7
     474              $C$DW$65        .dwtag  DW_TAG_TI_branch
     475                      .dwattr $C$DW$65, DW_AT_low_pc(0x00)
     476                      .dwattr $C$DW$65, DW_AT_TI_return
     477 0000008d 0006          LRETR     ; [CPU_] 
     478                      ; return occurs ; [] 
     479                      .dwattr $C$DW$32, DW_AT_TI_end_file("C:/ti/motorware/motorware_1_01_00_18/sw/modules/user/src/32b/use
     480                      .dwattr $C$DW$32, DW_AT_TI_end_line(0x355)
     481                      .dwattr $C$DW$32, DW_AT_TI_end_column(0x01)
     482                      .dwendentry
     483                      .dwendtag $C$DW$32
     484              
     485 0000008e               .sect   ".text"
     486                      .clink
     487                      .global _USER_setParams
     488              
     489              $C$DW$66        .dwtag  DW_TAG_subprogram, DW_AT_name("USER_setParams")
     490                      .dwattr $C$DW$66, DW_AT_low_pc(_USER_setParams)
     491                      .dwattr $C$DW$66, DW_AT_high_pc(0x00)
     492                      .dwattr $C$DW$66, DW_AT_TI_symbol_name("_USER_setParams")
     493                      .dwattr $C$DW$66, DW_AT_external
     494                      .dwattr $C$DW$66, DW_AT_TI_begin_file("C:/ti/motorware/motorware_1_01_00_18/sw/modules/user/src/32b/u
     495                      .dwattr $C$DW$66, DW_AT_TI_begin_line(0x39)
     496                      .dwattr $C$DW$66, DW_AT_TI_begin_column(0x06)
     497                      .dwattr $C$DW$66, DW_AT_TI_max_frame_size(-2)
     498                      .dwpsn  file "C:/ti/motorware/motorware_1_01_00_18/sw/modules/user/src/32b/user.c",line 58,column 1,i
     499              
     500                      .dwfde $C$DW$CIE, _USER_setParams
     501              $C$DW$67        .dwtag  DW_TAG_formal_parameter, DW_AT_name("pUserParams")
     502                      .dwattr $C$DW$67, DW_AT_TI_symbol_name("_pUserParams")
     503                      .dwattr $C$DW$67, DW_AT_type(*$C$DW$T$79)
     504                      .dwattr $C$DW$67, DW_AT_location[DW_OP_reg12]
     505              
     506              ;***************************************************************
     507              ;* FNAME: _USER_setParams               FR SIZE:   0           *
     508              ;*                                                             *
     509              ;* FUNCTION ENVIRONMENT                                        *
     510              ;*                                                             *
     511              ;* FUNCTION PROPERTIES                                         *
     512              ;*                            0 Parameter,  0 Auto,  0 SOE     *
     513              ;***************************************************************
     514              
     515              _USER_setParams:
     516              ;* AR5   assigned to $O$C1
TMS320C2000 Assembler PC v6.2.5 Thu Jun 22 15:17:10 2017

Tools Copyright (c) 1996-2014 Texas Instruments Incorporated
C:\Users\wmj\AppData\Local\Temp\1174810                              PAGE   11

     517              ;* AR5   assigned to $O$C2
     518              ;* AR5   assigned to $O$C3
     519              ;* AR5   assigned to $O$C4
     520              ;* AR5   assigned to $O$C5
     521              ;* AR4   assigned to _pUserParams
     522              $C$DW$68        .dwtag  DW_TAG_variable, DW_AT_name("pUserParams")
     523                      .dwattr $C$DW$68, DW_AT_TI_symbol_name("_pUserParams")
     524                      .dwattr $C$DW$68, DW_AT_type(*$C$DW$T$87)
     525                      .dwattr $C$DW$68, DW_AT_location[DW_OP_reg12]
     526                      .dwcfi  cfa_offset, -2
     527                      .dwcfi  save_reg_to_mem, 26, 0
     528                      .dwcfi  save_reg_to_reg, 78, 26
     529                      .dwpsn  file "C:/ti/motorware/motorware_1_01_00_18/sw/modules/user/src/32b/user.c",line 59,column 3,i
     530 0000008e 9A00          MOV       AL,#0                 ; [CPU_] |59| 
     531 0000008f 28A8          MOV       AH,#16672             ; [CPU_] |59| 
         00000090 4120 
     532 00000091 1EC4          MOVL      *+XAR4[0],ACC         ; [CPU_] |59| 
     533                      .dwpsn  file "C:/ti/motorware/motorware_1_01_00_18/sw/modules/user/src/32b/user.c",line 60,column 3,i
     534 00000092 28A8          MOV       AH,#17377             ; [CPU_] |60| 
         00000093 43E1 
     535                      .dwpsn  file "C:/ti/motorware/motorware_1_01_00_18/sw/modules/user/src/32b/user.c",line 66,column 3,i
     536 00000094 D008          MOVB      XAR0,#8               ; [CPU_] |66| 
     537                      .dwpsn  file "C:/ti/motorware/motorware_1_01_00_18/sw/modules/user/src/32b/user.c",line 60,column 3,i
     538 00000095 1ED4          MOVL      *+XAR4[2],ACC         ; [CPU_] |60| 
     539                      .dwpsn  file "C:/ti/motorware/motorware_1_01_00_18/sw/modules/user/src/32b/user.c",line 139,column 3,
     540 00000096 83A4          MOVL      XAR5,XAR4             ; [CPU_] |139| 
     541                      .dwpsn  file "C:/ti/motorware/motorware_1_01_00_18/sw/modules/user/src/32b/user.c",line 62,column 3,i
     542 00000097 28A8          MOV       AH,#17096             ; [CPU_] |62| 
         00000098 42C8 
     543 00000099 1EE4          MOVL      *+XAR4[4],ACC         ; [CPU_] |62| 
     544                      .dwpsn  file "C:/ti/motorware/motorware_1_01_00_18/sw/modules/user/src/32b/user.c",line 64,column 3,i
     545 0000009a 56BF          MOVB      *+XAR4[6],#1,UNC      ; [CPU_] |64| 
         0000009b 01F4 
     546                      .dwpsn  file "C:/ti/motorware/motorware_1_01_00_18/sw/modules/user/src/32b/user.c",line 65,column 3,i
     547 0000009c 56BF          MOVB      *+XAR4[7],#1,UNC      ; [CPU_] |65| 
         0000009d 01FC 
     548                      .dwpsn  file "C:/ti/motorware/motorware_1_01_00_18/sw/modules/user/src/32b/user.c",line 73,column 3,i
     549 0000009e 28A8          MOV       AH,#16800             ; [CPU_] |73| 
         0000009f 41A0 
     550                      .dwpsn  file "C:/ti/motorware/motorware_1_01_00_18/sw/modules/user/src/32b/user.c",line 66,column 3,i
     551 000000a0 56BF          MOVB      *+XAR4[AR0],#1,UNC    ; [CPU_] |66| 
         000000a1 0194 
     552                      .dwpsn  file "C:/ti/motorware/motorware_1_01_00_18/sw/modules/user/src/32b/user.c",line 67,column 3,i
     553 000000a2 D009          MOVB      XAR0,#9               ; [CPU_] |67| 
     554 000000a3 56BF          MOVB      *+XAR4[AR0],#15,UNC   ; [CPU_] |67| 
         000000a4 0F94 
     555                      .dwpsn  file "C:/ti/motorware/motorware_1_01_00_18/sw/modules/user/src/32b/user.c",line 68,column 3,i
     556 000000a5 D00A          MOVB      XAR0,#10              ; [CPU_] |68| 
     557 000000a6 56BF          MOVB      *+XAR4[AR0],#15,UNC   ; [CPU_] |68| 
         000000a7 0F94 
     558                      .dwpsn  file "C:/ti/motorware/motorware_1_01_00_18/sw/modules/user/src/32b/user.c",line 70,column 3,i
     559 000000a8 D00B          MOVB      XAR0,#11              ; [CPU_] |70| 
     560 000000a9 56BF          MOVB      *+XAR4[AR0],#3,UNC    ; [CPU_] |70| 
         000000aa 0394 
     561                      .dwpsn  file "C:/ti/motorware/motorware_1_01_00_18/sw/modules/user/src/32b/user.c",line 71,column 3,i
TMS320C2000 Assembler PC v6.2.5 Thu Jun 22 15:17:10 2017

Tools Copyright (c) 1996-2014 Texas Instruments Incorporated
C:\Users\wmj\AppData\Local\Temp\1174810                              PAGE   12

     562 000000ab D00C          MOVB      XAR0,#12              ; [CPU_] |71| 
     563                      .dwpsn  file "C:/ti/motorware/motorware_1_01_00_18/sw/modules/user/src/32b/user.c",line 141,column 3,
     564 000000ac 7681          MOVL      XAR6,#75000           ; [CPU_U] |141| 
         000000ad 24F8 
     565                      .dwpsn  file "C:/ti/motorware/motorware_1_01_00_18/sw/modules/user/src/32b/user.c",line 71,column 3,i
     566 000000ae 56BF          MOVB      *+XAR4[AR0],#3,UNC    ; [CPU_] |71| 
         000000af 0394 
     567                      .dwpsn  file "C:/ti/motorware/motorware_1_01_00_18/sw/modules/user/src/32b/user.c",line 73,column 3,i
     568 000000b0 D00E          MOVB      XAR0,#14              ; [CPU_] |73| 
     569                      .dwpsn  file "C:/ti/motorware/motorware_1_01_00_18/sw/modules/user/src/32b/user.c",line 139,column 3,
     570 000000b1 DD54          ADDB      XAR5,#84              ; [CPU_] |139| 
     571                      .dwpsn  file "C:/ti/motorware/motorware_1_01_00_18/sw/modules/user/src/32b/user.c",line 73,column 3,i
     572 000000b2 1E94          MOVL      *+XAR4[AR0],ACC       ; [CPU_] |73| 
     573                      .dwpsn  file "C:/ti/motorware/motorware_1_01_00_18/sw/modules/user/src/32b/user.c",line 74,column 3,i
     574 000000b3 D010          MOVB      XAR0,#16              ; [CPU_] |74| 
     575 000000b4 28A8          MOV       AH,#17096             ; [CPU_] |74| 
         000000b5 42C8 
     576 000000b6 1E94          MOVL      *+XAR4[AR0],ACC       ; [CPU_] |74| 
     577                      .dwpsn  file "C:/ti/motorware/motorware_1_01_00_18/sw/modules/user/src/32b/user.c",line 76,column 3,i
     578 000000b7 D012          MOVB      XAR0,#18              ; [CPU_] |76| 
     579 000000b8 28A8          MOV       AH,#15267             ; [CPU_] |76| 
         000000b9 3BA3 
     580 000000ba 28A9          MOV       AL,#55050             ; [CPU_] |76| 
         000000bb D70A 
     581 000000bc 1E94          MOVL      *+XAR4[AR0],ACC       ; [CPU_] |76| 
     582                      .dwpsn  file "C:/ti/motorware/motorware_1_01_00_18/sw/modules/user/src/32b/user.c",line 78,column 3,i
     583 000000bd D014          MOVB      XAR0,#20              ; [CPU_] |78| 
     584 000000be FF2F          MOV       ACC,#32512 << 15      ; [CPU_] |78| 
         000000bf 7F00 
     585 000000c0 1E94          MOVL      *+XAR4[AR0],ACC       ; [CPU_] |78| 
     586                      .dwpsn  file "C:/ti/motorware/motorware_1_01_00_18/sw/modules/user/src/32b/user.c",line 80,column 3,i
     587 000000c1 D016          MOVB      XAR0,#22              ; [CPU_] |80| 
     588 000000c2 9A00          MOV       AL,#0                 ; [CPU_] |80| 
     589 000000c3 28A8          MOV       AH,#16800             ; [CPU_] |80| 
         000000c4 41A0 
     590 000000c5 1E94          MOVL      *+XAR4[AR0],ACC       ; [CPU_] |80| 
     591                      .dwpsn  file "C:/ti/motorware/motorware_1_01_00_18/sw/modules/user/src/32b/user.c",line 82,column 3,i
     592 000000c6 D018          MOVB      XAR0,#24              ; [CPU_] |82| 
     593 000000c7 28A8          MOV       AH,#16384             ; [CPU_] |82| 
         000000c8 4000 
     594 000000c9 1E94          MOVL      *+XAR4[AR0],ACC       ; [CPU_] |82| 
     595                      .dwpsn  file "C:/ti/motorware/motorware_1_01_00_18/sw/modules/user/src/32b/user.c",line 84,column 3,i
     596 000000ca D01A          MOVB      XAR0,#26              ; [CPU_] |84| 
     597 000000cb 28A8          MOV       AH,#16576             ; [CPU_] |84| 
         000000cc 40C0 
     598 000000cd 1E94          MOVL      *+XAR4[AR0],ACC       ; [CPU_] |84| 
     599                      .dwpsn  file "C:/ti/motorware/motorware_1_01_00_18/sw/modules/user/src/32b/user.c",line 86,column 3,i
     600 000000ce D01C          MOVB      XAR0,#28              ; [CPU_] |86| 
     601 000000cf 28A8          MOV       AH,#17096             ; [CPU_] |86| 
         000000d0 42C8 
     602 000000d1 1E94          MOVL      *+XAR4[AR0],ACC       ; [CPU_] |86| 
     603                      .dwpsn  file "C:/ti/motorware/motorware_1_01_00_18/sw/modules/user/src/32b/user.c",line 88,column 3,i
     604 000000d2 D01E          MOVB      XAR0,#30              ; [CPU_] |88| 
     605 000000d3 1E94          MOVL      *+XAR4[AR0],ACC       ; [CPU_] |88| 
     606                      .dwpsn  file "C:/ti/motorware/motorware_1_01_00_18/sw/modules/user/src/32b/user.c",line 90,column 3,i
TMS320C2000 Assembler PC v6.2.5 Thu Jun 22 15:17:10 2017

Tools Copyright (c) 1996-2014 Texas Instruments Incorporated
C:\Users\wmj\AppData\Local\Temp\1174810                              PAGE   13

     607 000000d4 D020          MOVB      XAR0,#32              ; [CPU_] |90| 
     608 000000d5 FF2F          MOV       ACC,#32512 << 15      ; [CPU_] |90| 
         000000d6 7F00 
     609 000000d7 1E94          MOVL      *+XAR4[AR0],ACC       ; [CPU_] |90| 
     610                      .dwpsn  file "C:/ti/motorware/motorware_1_01_00_18/sw/modules/user/src/32b/user.c",line 92,column 3,i
     611 000000d8 D022          MOVB      XAR0,#34              ; [CPU_] |92| 
     612 000000d9 1E94          MOVL      *+XAR4[AR0],ACC       ; [CPU_] |92| 
     613                      .dwpsn  file "C:/ti/motorware/motorware_1_01_00_18/sw/modules/user/src/32b/user.c",line 94,column 3,i
     614 000000da D026          MOVB      XAR0,#38              ; [CPU_] |94| 
     615                      .dwpsn  file "C:/ti/motorware/motorware_1_01_00_18/sw/modules/user/src/32b/user.c",line 96,column 3,i
     616 000000db 28A9          MOV       AL,#21845             ; [CPU_] |96| 
         000000dc 5555 
     617 000000dd 28A8          MOV       AH,#17029             ; [CPU_] |96| 
         000000de 4285 
     618                      .dwpsn  file "C:/ti/motorware/motorware_1_01_00_18/sw/modules/user/src/32b/user.c",line 94,column 3,i
     619 000000df 56BF          MOVB      *+XAR4[AR0],#60,UNC   ; [CPU_] |94| 
         000000e0 3C94 
     620                      .dwpsn  file "C:/ti/motorware/motorware_1_01_00_18/sw/modules/user/src/32b/user.c",line 96,column 3,i
     621 000000e1 D028          MOVB      XAR0,#40              ; [CPU_] |96| 
     622 000000e2 1E94          MOVL      *+XAR4[AR0],ACC       ; [CPU_] |96| 
     623                      .dwpsn  file "C:/ti/motorware/motorware_1_01_00_18/sw/modules/user/src/32b/user.c",line 98,column 3,i
     624 000000e3 D02A          MOVB      XAR0,#42              ; [CPU_] |98| 
     625 000000e4 28A9          MOV       AL,#1107              ; [CPU_] |98| 
         000000e5 0453 
     626 000000e6 28A8          MOV       AH,#16233             ; [CPU_] |98| 
         000000e7 3F69 
     627 000000e8 1E94          MOVL      *+XAR4[AR0],ACC       ; [CPU_] |98| 
     628                      .dwpsn  file "C:/ti/motorware/motorware_1_01_00_18/sw/modules/user/src/32b/user.c",line 100,column 3,
     629 000000e9 D02C          MOVB      XAR0,#44              ; [CPU_] |100| 
     630 000000ea 28A9          MOV       AL,#38797             ; [CPU_] |100| 
         000000eb 978D 
     631 000000ec 28A8          MOV       AH,#16382             ; [CPU_] |100| 
         000000ed 3FFE 
     632 000000ee 1E94          MOVL      *+XAR4[AR0],ACC       ; [CPU_] |100| 
     633                      .dwpsn  file "C:/ti/motorware/motorware_1_01_00_18/sw/modules/user/src/32b/user.c",line 102,column 3,
     634 000000ef D02E          MOVB      XAR0,#46              ; [CPU_] |102| 
     635 000000f0 28A9          MOV       AL,#18377             ; [CPU_] |102| 
         000000f1 47C9 
     636 000000f2 28A8          MOV       AH,#17682             ; [CPU_] |102| 
         000000f3 4512 
     637 000000f4 1E94          MOVL      *+XAR4[AR0],ACC       ; [CPU_] |102| 
     638                      .dwpsn  file "C:/ti/motorware/motorware_1_01_00_18/sw/modules/user/src/32b/user.c",line 104,column 3,
     639 000000f5 D030          MOVB      XAR0,#48              ; [CPU_] |104| 
     640 000000f6 FF2F          MOV       ACC,#32256 << 15      ; [CPU_] |104| 
         000000f7 7E00 
     641 000000f8 1E94          MOVL      *+XAR4[AR0],ACC       ; [CPU_] |104| 
     642                      .dwpsn  file "C:/ti/motorware/motorware_1_01_00_18/sw/modules/user/src/32b/user.c",line 106,column 3,
     643 000000f9 D032          MOVB      XAR0,#50              ; [CPU_] |106| 
     644 000000fa FF2F          MOV       ACC,#32640 << 15      ; [CPU_] |106| 
         000000fb 7F80 
     645 000000fc 1E94          MOVL      *+XAR4[AR0],ACC       ; [CPU_] |106| 
     646                      .dwpsn  file "C:/ti/motorware/motorware_1_01_00_18/sw/modules/user/src/32b/user.c",line 108,column 3,
     647 000000fd D034          MOVB      XAR0,#52              ; [CPU_] |108| 
     648                      .dwpsn  file "C:/ti/motorware/motorware_1_01_00_18/sw/modules/user/src/32b/user.c",line 110,column 3,
     649 000000fe 28A9          MOV       AL,#39671             ; [CPU_] |110| 
TMS320C2000 Assembler PC v6.2.5 Thu Jun 22 15:17:10 2017

Tools Copyright (c) 1996-2014 Texas Instruments Incorporated
C:\Users\wmj\AppData\Local\Temp\1174810                              PAGE   14

         000000ff 9AF7 
     650 00000100 28A8          MOV       AH,#16447             ; [CPU_] |110| 
         00000101 403F 
     651                      .dwpsn  file "C:/ti/motorware/motorware_1_01_00_18/sw/modules/user/src/32b/user.c",line 108,column 3,
     652 00000102 2B94          MOV       *+XAR4[AR0],#0        ; [CPU_] |108| 
     653                      .dwpsn  file "C:/ti/motorware/motorware_1_01_00_18/sw/modules/user/src/32b/user.c",line 109,column 3,
     654 00000103 D035          MOVB      XAR0,#53              ; [CPU_] |109| 
     655 00000104 56BF          MOVB      *+XAR4[AR0],#2,UNC    ; [CPU_] |109| 
         00000105 0294 
     656                      .dwpsn  file "C:/ti/motorware/motorware_1_01_00_18/sw/modules/user/src/32b/user.c",line 110,column 3,
     657 00000106 D036          MOVB      XAR0,#54              ; [CPU_] |110| 
     658 00000107 1E94          MOVL      *+XAR4[AR0],ACC       ; [CPU_] |110| 
     659                      .dwpsn  file "C:/ti/motorware/motorware_1_01_00_18/sw/modules/user/src/32b/user.c",line 111,column 3,
     660 00000108 D038          MOVB      XAR0,#56              ; [CPU_] |111| 
     661 00000109 28A9          MOV       AL,#19919             ; [CPU_] |111| 
         0000010a 4DCF 
     662 0000010b 28A8          MOV       AH,#16355             ; [CPU_] |111| 
         0000010c 3FE3 
     663 0000010d 1E94          MOVL      *+XAR4[AR0],ACC       ; [CPU_] |111| 
     664                      .dwpsn  file "C:/ti/motorware/motorware_1_01_00_18/sw/modules/user/src/32b/user.c",line 112,column 3,
     665 0000010e D03A          MOVB      XAR0,#58              ; [CPU_] |112| 
     666 0000010f 28A9          MOV       AL,#65146             ; [CPU_] |112| 
         00000110 FE7A 
     667 00000111 28A8          MOV       AH,#16459             ; [CPU_] |112| 
         00000112 404B 
     668 00000113 1E94          MOVL      *+XAR4[AR0],ACC       ; [CPU_] |112| 
     669                      .dwpsn  file "C:/ti/motorware/motorware_1_01_00_18/sw/modules/user/src/32b/user.c",line 113,column 3,
     670 00000114 D03C          MOVB      XAR0,#60              ; [CPU_] |113| 
     671 00000115 28A9          MOV       AL,#305               ; [CPU_] |113| 
         00000116 0131 
     672 00000117 28A8          MOV       AH,#15624             ; [CPU_] |113| 
         00000118 3D08 
     673 00000119 1E94          MOVL      *+XAR4[AR0],ACC       ; [CPU_] |113| 
     674                      .dwpsn  file "C:/ti/motorware/motorware_1_01_00_18/sw/modules/user/src/32b/user.c",line 114,column 3,
     675 0000011a D03E          MOVB      XAR0,#62              ; [CPU_] |114| 
     676 0000011b 1E94          MOVL      *+XAR4[AR0],ACC       ; [CPU_] |114| 
     677                      .dwpsn  file "C:/ti/motorware/motorware_1_01_00_18/sw/modules/user/src/32b/user.c",line 122,column 7,
     678 0000011c D024          MOVB      XAR0,#36              ; [CPU_] |122| 
     679 0000011d FF2F          MOV       ACC,#32512 << 15      ; [CPU_] |122| 
         0000011e 7F00 
     680 0000011f 1E94          MOVL      *+XAR4[AR0],ACC       ; [CPU_] |122| 
     681                      .dwpsn  file "C:/ti/motorware/motorware_1_01_00_18/sw/modules/user/src/32b/user.c",line 125,column 3,
     682 00000120 D042          MOVB      XAR0,#66              ; [CPU_] |125| 
     683 00000121 1E94          MOVL      *+XAR4[AR0],ACC       ; [CPU_] |125| 
     684                      .dwpsn  file "C:/ti/motorware/motorware_1_01_00_18/sw/modules/user/src/32b/user.c",line 126,column 3,
     685 00000122 D044          MOVB      XAR0,#68              ; [CPU_] |126| 
     686 00000123 9A00          MOV       AL,#0                 ; [CPU_] |126| 
     687 00000124 9B00          MOV       AH,#0                 ; [CPU_] |126| 
     688 00000125 1E94          MOVL      *+XAR4[AR0],ACC       ; [CPU_] |126| 
     689                      .dwpsn  file "C:/ti/motorware/motorware_1_01_00_18/sw/modules/user/src/32b/user.c",line 127,column 3,
     690 00000126 D040          MOVB      XAR0,#64              ; [CPU_] |127| 
     691 00000127 28A8          MOV       AH,#16480             ; [CPU_] |127| 
         00000128 4060 
     692 00000129 1E94          MOVL      *+XAR4[AR0],ACC       ; [CPU_] |127| 
     693                      .dwpsn  file "C:/ti/motorware/motorware_1_01_00_18/sw/modules/user/src/32b/user.c",line 129,column 3,
TMS320C2000 Assembler PC v6.2.5 Thu Jun 22 15:17:10 2017

Tools Copyright (c) 1996-2014 Texas Instruments Incorporated
C:\Users\wmj\AppData\Local\Temp\1174810                              PAGE   15

     694 0000012a D046          MOVB      XAR0,#70              ; [CPU_] |129| 
     695 0000012b 28A8          MOV       AH,#14545             ; [CPU_] |129| 
         0000012c 38D1 
     696 0000012d 28A9          MOV       AL,#46872             ; [CPU_] |129| 
         0000012e B718 
     697 0000012f 1E94          MOVL      *+XAR4[AR0],ACC       ; [CPU_] |129| 
     698                      .dwpsn  file "C:/ti/motorware/motorware_1_01_00_18/sw/modules/user/src/32b/user.c",line 130,column 3,
     699 00000130 D048          MOVB      XAR0,#72              ; [CPU_] |130| 
     700 00000131 28A9          MOV       AL,#43139             ; [CPU_] |130| 
         00000132 A883 
     701 00000133 28A8          MOV       AH,#14331             ; [CPU_] |130| 
         00000134 37FB 
     702 00000135 1E94          MOVL      *+XAR4[AR0],ACC       ; [CPU_] |130| 
     703                      .dwpsn  file "C:/ti/motorware/motorware_1_01_00_18/sw/modules/user/src/32b/user.c",line 132,column 3,
     704 00000136 D04A          MOVB      XAR0,#74              ; [CPU_] |132| 
     705 00000137 28A9          MOV       AL,#4941              ; [CPU_] |132| 
         00000138 134D 
     706 00000139 28A8          MOV       AH,#16395             ; [CPU_] |132| 
         0000013a 400B 
     707 0000013b 1E94          MOVL      *+XAR4[AR0],ACC       ; [CPU_] |132| 
     708                      .dwpsn  file "C:/ti/motorware/motorware_1_01_00_18/sw/modules/user/src/32b/user.c",line 133,column 3,
     709 0000013c D04E          MOVB      XAR0,#78              ; [CPU_] |133| 
     710 0000013d FF2F          MOV       ACC,#32512 << 15      ; [CPU_] |133| 
         0000013e 7F00 
     711 0000013f 1E94          MOVL      *+XAR4[AR0],ACC       ; [CPU_] |133| 
     712                      .dwpsn  file "C:/ti/motorware/motorware_1_01_00_18/sw/modules/user/src/32b/user.c",line 134,column 3,
     713 00000140 D04C          MOVB      XAR0,#76              ; [CPU_] |134| 
     714 00000141 1E94          MOVL      *+XAR4[AR0],ACC       ; [CPU_] |134| 
     715                      .dwpsn  file "C:/ti/motorware/motorware_1_01_00_18/sw/modules/user/src/32b/user.c",line 135,column 3,
     716 00000142 D050          MOVB      XAR0,#80              ; [CPU_] |135| 
     717 00000143 28A9          MOV       AL,#50604             ; [CPU_] |135| 
         00000144 C5AC 
     718 00000145 28A8          MOV       AH,#14247             ; [CPU_] |135| 
         00000146 37A7 
     719 00000147 1E94          MOVL      *+XAR4[AR0],ACC       ; [CPU_] |135| 
     720                      .dwpsn  file "C:/ti/motorware/motorware_1_01_00_18/sw/modules/user/src/32b/user.c",line 137,column 3,
     721 00000148 D052          MOVB      XAR0,#82              ; [CPU_] |137| 
     722 00000149 9A00          MOV       AL,#0                 ; [CPU_] |137| 
     723 0000014a 28A8          MOV       AH,#16544             ; [CPU_] |137| 
         0000014b 40A0 
     724 0000014c 1E94          MOVL      *+XAR4[AR0],ACC       ; [CPU_] |137| 
     725                      .dwpsn  file "C:/ti/motorware/motorware_1_01_00_18/sw/modules/user/src/32b/user.c",line 139,column 3,
     726 0000014d 0200          MOVB      ACC,#0                ; [CPU_] |139| 
     727 0000014e 1EC5          MOVL      *+XAR5[0],ACC         ; [CPU_] |139| 
     728                      .dwpsn  file "C:/ti/motorware/motorware_1_01_00_18/sw/modules/user/src/32b/user.c",line 140,column 3,
     729 0000014f 1ED5          MOVL      *+XAR5[2],ACC         ; [CPU_] |140| 
     730                      .dwpsn  file "C:/ti/motorware/motorware_1_01_00_18/sw/modules/user/src/32b/user.c",line 141,column 3,
     731 00000150 C2E5          MOVL      *+XAR5[4],XAR6        ; [CPU_] |141| 
     732                      .dwpsn  file "C:/ti/motorware/motorware_1_01_00_18/sw/modules/user/src/32b/user.c",line 142,column 3,
     733 00000151 1EF5          MOVL      *+XAR5[6],ACC         ; [CPU_] |142| 
     734                      .dwpsn  file "C:/ti/motorware/motorware_1_01_00_18/sw/modules/user/src/32b/user.c",line 144,column 3,
     735 00000152 83A4          MOVL      XAR5,XAR4             ; [CPU_] |144| 
     736                      .dwpsn  file "C:/ti/motorware/motorware_1_01_00_18/sw/modules/user/src/32b/user.c",line 146,column 3,
     737 00000153 7681          MOVL      XAR6,#120000          ; [CPU_U] |146| 
         00000154 D4C0 
TMS320C2000 Assembler PC v6.2.5 Thu Jun 22 15:17:10 2017

Tools Copyright (c) 1996-2014 Texas Instruments Incorporated
C:\Users\wmj\AppData\Local\Temp\1174810                              PAGE   16

     738                      .dwpsn  file "C:/ti/motorware/motorware_1_01_00_18/sw/modules/user/src/32b/user.c",line 148,column 3,
     739 00000155 D008          MOVB      XAR0,#8               ; [CPU_] |148| 
     740                      .dwpsn  file "C:/ti/motorware/motorware_1_01_00_18/sw/modules/user/src/32b/user.c",line 144,column 3,
     741 00000156 DD5C          ADDB      XAR5,#92              ; [CPU_] |144| 
     742 00000157 1EC5          MOVL      *+XAR5[0],ACC         ; [CPU_] |144| 
     743                      .dwpsn  file "C:/ti/motorware/motorware_1_01_00_18/sw/modules/user/src/32b/user.c",line 145,column 3,
     744 00000158 1ED5          MOVL      *+XAR5[2],ACC         ; [CPU_] |145| 
     745                      .dwpsn  file "C:/ti/motorware/motorware_1_01_00_18/sw/modules/user/src/32b/user.c",line 146,column 3,
     746 00000159 C2E5          MOVL      *+XAR5[4],XAR6        ; [CPU_] |146| 
     747                      .dwpsn  file "C:/ti/motorware/motorware_1_01_00_18/sw/modules/user/src/32b/user.c",line 148,column 3,
     748 0000015a 7681          MOVL      XAR6,#112500          ; [CPU_U] |148| 
         0000015b B774 
     749                      .dwpsn  file "C:/ti/motorware/motorware_1_01_00_18/sw/modules/user/src/32b/user.c",line 147,column 3,
     750 0000015c 1EF5          MOVL      *+XAR5[6],ACC         ; [CPU_] |147| 
     751                      .dwpsn  file "C:/ti/motorware/motorware_1_01_00_18/sw/modules/user/src/32b/user.c",line 148,column 3,
     752 0000015d C295          MOVL      *+XAR5[AR0],XAR6      ; [CPU_] |148| 
     753                      .dwpsn  file "C:/ti/motorware/motorware_1_01_00_18/sw/modules/user/src/32b/user.c",line 149,column 3,
     754 0000015e D00A          MOVB      XAR0,#10              ; [CPU_] |149| 
     755 0000015f 7686          MOVL      XAR6,#450000          ; [CPU_U] |149| 
         00000160 DDD0 
     756 00000161 C295          MOVL      *+XAR5[AR0],XAR6      ; [CPU_] |149| 
     757                      .dwpsn  file "C:/ti/motorware/motorware_1_01_00_18/sw/modules/user/src/32b/user.c",line 150,column 3,
     758 00000162 D00C          MOVB      XAR0,#12              ; [CPU_] |150| 
     759 00000163 7680          MOVL      XAR6,#3000            ; [CPU_U] |150| 
         00000164 0BB8 
     760 00000165 C295          MOVL      *+XAR5[AR0],XAR6      ; [CPU_] |150| 
     761                      .dwpsn  file "C:/ti/motorware/motorware_1_01_00_18/sw/modules/user/src/32b/user.c",line 151,column 3,
     762 00000166 D00E          MOVB      XAR0,#14              ; [CPU_] |151| 
     763                      .dwpsn  file "C:/ti/motorware/motorware_1_01_00_18/sw/modules/user/src/32b/user.c",line 152,column 3,
     764 00000167 7680          MOVL      XAR6,#30000           ; [CPU_U] |152| 
         00000168 7530 
     765                      .dwpsn  file "C:/ti/motorware/motorware_1_01_00_18/sw/modules/user/src/32b/user.c",line 151,column 3,
     766 00000169 1E95          MOVL      *+XAR5[AR0],ACC       ; [CPU_] |151| 
     767                      .dwpsn  file "C:/ti/motorware/motorware_1_01_00_18/sw/modules/user/src/32b/user.c",line 152,column 3,
     768 0000016a D010          MOVB      XAR0,#16              ; [CPU_] |152| 
     769 0000016b C295          MOVL      *+XAR5[AR0],XAR6      ; [CPU_] |152| 
     770                      .dwpsn  file "C:/ti/motorware/motorware_1_01_00_18/sw/modules/user/src/32b/user.c",line 153,column 3,
     771 0000016c D012          MOVB      XAR0,#18              ; [CPU_] |153| 
     772                      .dwpsn  file "C:/ti/motorware/motorware_1_01_00_18/sw/modules/user/src/32b/user.c",line 155,column 3,
     773 0000016d 7684          MOVL      XAR6,#300000          ; [CPU_U] |155| 
         0000016e 93E0 
     774                      .dwpsn  file "C:/ti/motorware/motorware_1_01_00_18/sw/modules/user/src/32b/user.c",line 153,column 3,
     775 0000016f 1E95          MOVL      *+XAR5[AR0],ACC       ; [CPU_] |153| 
     776                      .dwpsn  file "C:/ti/motorware/motorware_1_01_00_18/sw/modules/user/src/32b/user.c",line 154,column 3,
     777 00000170 D014          MOVB      XAR0,#20              ; [CPU_] |154| 
     778 00000171 1E95          MOVL      *+XAR5[AR0],ACC       ; [CPU_] |154| 
     779                      .dwpsn  file "C:/ti/motorware/motorware_1_01_00_18/sw/modules/user/src/32b/user.c",line 155,column 3,
     780 00000172 D016          MOVB      XAR0,#22              ; [CPU_] |155| 
     781 00000173 C295          MOVL      *+XAR5[AR0],XAR6      ; [CPU_] |155| 
     782                      .dwpsn  file "C:/ti/motorware/motorware_1_01_00_18/sw/modules/user/src/32b/user.c",line 156,column 3,
     783 00000174 D018          MOVB      XAR0,#24              ; [CPU_] |156| 
     784 00000175 1E95          MOVL      *+XAR5[AR0],ACC       ; [CPU_] |156| 
     785                      .dwpsn  file "C:/ti/motorware/motorware_1_01_00_18/sw/modules/user/src/32b/user.c",line 157,column 3,
     786 00000176 D01A          MOVB      XAR0,#26              ; [CPU_] |157| 
     787 00000177 1E95          MOVL      *+XAR5[AR0],ACC       ; [CPU_] |157| 
TMS320C2000 Assembler PC v6.2.5 Thu Jun 22 15:17:10 2017

Tools Copyright (c) 1996-2014 Texas Instruments Incorporated
C:\Users\wmj\AppData\Local\Temp\1174810                              PAGE   17

     788                      .dwpsn  file "C:/ti/motorware/motorware_1_01_00_18/sw/modules/user/src/32b/user.c",line 159,column 3,
     789 00000178 83A4          MOVL      XAR5,XAR4             ; [CPU_] |159| 
     790                      .dwpsn  file "C:/ti/motorware/motorware_1_01_00_18/sw/modules/user/src/32b/user.c",line 161,column 3,
     791 00000179 7682          MOVL      XAR6,#150000          ; [CPU_U] |161| 
         0000017a 49F0 
     792                      .dwpsn  file "C:/ti/motorware/motorware_1_01_00_18/sw/modules/user/src/32b/user.c",line 163,column 3,
     793 0000017b D008          MOVB      XAR0,#8               ; [CPU_] |163| 
     794                      .dwpsn  file "C:/ti/motorware/motorware_1_01_00_18/sw/modules/user/src/32b/user.c",line 159,column 3,
     795 0000017c DD78          ADDB      XAR5,#120             ; [CPU_] |159| 
     796 0000017d 1EC5          MOVL      *+XAR5[0],ACC         ; [CPU_] |159| 
     797                      .dwpsn  file "C:/ti/motorware/motorware_1_01_00_18/sw/modules/user/src/32b/user.c",line 160,column 3,
     798 0000017e 1ED5          MOVL      *+XAR5[2],ACC         ; [CPU_] |160| 
     799                      .dwpsn  file "C:/ti/motorware/motorware_1_01_00_18/sw/modules/user/src/32b/user.c",line 161,column 3,
     800 0000017f C2E5          MOVL      *+XAR5[4],XAR6        ; [CPU_] |161| 
     801                      .dwpsn  file "C:/ti/motorware/motorware_1_01_00_18/sw/modules/user/src/32b/user.c",line 162,column 3,
     802 00000180 7680          MOVL      XAR6,#3000            ; [CPU_U] |162| 
         00000181 0BB8 
     803 00000182 C2F5          MOVL      *+XAR5[6],XAR6        ; [CPU_] |162| 
     804                      .dwpsn  file "C:/ti/motorware/motorware_1_01_00_18/sw/modules/user/src/32b/user.c",line 163,column 3,
     805 00000183 7680          MOVL      XAR6,#60000           ; [CPU_U] |163| 
         00000184 EA60 
     806 00000185 C295          MOVL      *+XAR5[AR0],XAR6      ; [CPU_] |163| 
     807                      .dwpsn  file "C:/ti/motorware/motorware_1_01_00_18/sw/modules/user/src/32b/user.c",line 164,column 3,
     808 00000186 D00A          MOVB      XAR0,#10              ; [CPU_] |164| 
     809                      .dwpsn  file "C:/ti/motorware/motorware_1_01_00_18/sw/modules/user/src/32b/user.c",line 168,column 3,
     810 00000187 7680          MOVL      XAR6,#45000           ; [CPU_U] |168| 
         00000188 AFC8 
     811                      .dwpsn  file "C:/ti/motorware/motorware_1_01_00_18/sw/modules/user/src/32b/user.c",line 164,column 3,
     812 00000189 1E95          MOVL      *+XAR5[AR0],ACC       ; [CPU_] |164| 
     813                      .dwpsn  file "C:/ti/motorware/motorware_1_01_00_18/sw/modules/user/src/32b/user.c",line 170,column 3,
     814 0000018a D008          MOVB      XAR0,#8               ; [CPU_] |170| 
     815                      .dwpsn  file "C:/ti/motorware/motorware_1_01_00_18/sw/modules/user/src/32b/user.c",line 166,column 3,
     816 0000018b 0284          MOVB      ACC,#132              ; [CPU_] |166| 
     817 0000018c 07A4          ADDL      ACC,XAR4              ; [CPU_] |166| 
     818 0000018d 83A9          MOVL      XAR5,ACC              ; [CPU_] |166| 
     819 0000018e 0200          MOVB      ACC,#0                ; [CPU_] |166| 
     820 0000018f 1EC5          MOVL      *+XAR5[0],ACC         ; [CPU_] |166| 
     821                      .dwpsn  file "C:/ti/motorware/motorware_1_01_00_18/sw/modules/user/src/32b/user.c",line 167,column 3,
     822 00000190 1ED5          MOVL      *+XAR5[2],ACC         ; [CPU_] |167| 
     823                      .dwpsn  file "C:/ti/motorware/motorware_1_01_00_18/sw/modules/user/src/32b/user.c",line 168,column 3,
     824 00000191 C2E5          MOVL      *+XAR5[4],XAR6        ; [CPU_] |168| 
     825                      .dwpsn  file "C:/ti/motorware/motorware_1_01_00_18/sw/modules/user/src/32b/user.c",line 169,column 3,
     826 00000192 C2F5          MOVL      *+XAR5[6],XAR6        ; [CPU_] |169| 
     827                      .dwpsn  file "C:/ti/motorware/motorware_1_01_00_18/sw/modules/user/src/32b/user.c",line 170,column 3,
     828 00000193 7680          MOVL      XAR6,#3000            ; [CPU_U] |170| 
         00000194 0BB8 
     829 00000195 C295          MOVL      *+XAR5[AR0],XAR6      ; [CPU_] |170| 
     830                      .dwpsn  file "C:/ti/motorware/motorware_1_01_00_18/sw/modules/user/src/32b/user.c",line 171,column 3,
     831 00000196 D00A          MOVB      XAR0,#10              ; [CPU_] |171| 
     832 00000197 7686          MOVL      XAR6,#450000          ; [CPU_U] |171| 
         00000198 DDD0 
     833 00000199 C295          MOVL      *+XAR5[AR0],XAR6      ; [CPU_] |171| 
     834                      .dwpsn  file "C:/ti/motorware/motorware_1_01_00_18/sw/modules/user/src/32b/user.c",line 172,column 3,
     835 0000019a D00C          MOVB      XAR0,#12              ; [CPU_] |172| 
     836                      .dwpsn  file "C:/ti/motorware/motorware_1_01_00_18/sw/modules/user/src/32b/user.c",line 176,column 3,
TMS320C2000 Assembler PC v6.2.5 Thu Jun 22 15:17:10 2017

Tools Copyright (c) 1996-2014 Texas Instruments Incorporated
C:\Users\wmj\AppData\Local\Temp\1174810                              PAGE   18

     837 0000019b 7680          MOVL      XAR6,#15000           ; [CPU_U] |176| 
         0000019c 3A98 
     838                      .dwpsn  file "C:/ti/motorware/motorware_1_01_00_18/sw/modules/user/src/32b/user.c",line 172,column 3,
     839 0000019d 1E95          MOVL      *+XAR5[AR0],ACC       ; [CPU_] |172| 
     840                      .dwpsn  file "C:/ti/motorware/motorware_1_01_00_18/sw/modules/user/src/32b/user.c",line 174,column 3,
     841 0000019e 0292          MOVB      ACC,#146              ; [CPU_] |174| 
     842                      .dwpsn  file "C:/ti/motorware/motorware_1_01_00_18/sw/modules/user/src/32b/user.c",line 178,column 3,
     843 0000019f D008          MOVB      XAR0,#8               ; [CPU_] |178| 
     844                      .dwpsn  file "C:/ti/motorware/motorware_1_01_00_18/sw/modules/user/src/32b/user.c",line 174,column 3,
     845 000001a0 07A4          ADDL      ACC,XAR4              ; [CPU_] |174| 
     846 000001a1 83A9          MOVL      XAR5,ACC              ; [CPU_] |174| 
     847 000001a2 0200          MOVB      ACC,#0                ; [CPU_] |174| 
     848 000001a3 1EC5          MOVL      *+XAR5[0],ACC         ; [CPU_] |174| 
     849                      .dwpsn  file "C:/ti/motorware/motorware_1_01_00_18/sw/modules/user/src/32b/user.c",line 175,column 3,
     850 000001a4 1ED5          MOVL      *+XAR5[2],ACC         ; [CPU_] |175| 
     851                      .dwpsn  file "C:/ti/motorware/motorware_1_01_00_18/sw/modules/user/src/32b/user.c",line 176,column 3,
     852 000001a5 C2E5          MOVL      *+XAR5[4],XAR6        ; [CPU_] |176| 
     853                      .dwpsn  file "C:/ti/motorware/motorware_1_01_00_18/sw/modules/user/src/32b/user.c",line 177,column 3,
     854 000001a6 7680          MOVL      XAR6,#30000           ; [CPU_U] |177| 
         000001a7 7530 
     855 000001a8 C2F5          MOVL      *+XAR5[6],XAR6        ; [CPU_] |177| 
     856                      .dwpsn  file "C:/ti/motorware/motorware_1_01_00_18/sw/modules/user/src/32b/user.c",line 178,column 3,
     857 000001a9 7681          MOVL      XAR6,#105000          ; [CPU_U] |178| 
         000001aa 9A28 
     858 000001ab C295          MOVL      *+XAR5[AR0],XAR6      ; [CPU_] |178| 
     859                      .dwpsn  file "C:/ti/motorware/motorware_1_01_00_18/sw/modules/user/src/32b/user.c",line 179,column 3,
     860 000001ac D00A          MOVB      XAR0,#10              ; [CPU_] |179| 
     861 000001ad 1E95          MOVL      *+XAR5[AR0],ACC       ; [CPU_] |179| 
     862                      .dwpsn  file "C:/ti/motorware/motorware_1_01_00_18/sw/modules/user/src/32b/user.c",line 181,column 3,
     863 000001ae D09E          MOVB      XAR0,#158             ; [CPU_] |181| 
     864                      .dwpsn  file "C:/ti/motorware/motorware_1_01_00_18/sw/modules/user/src/32b/user.c",line 185,column 3,
     865 000001af 0264          MOVB      ACC,#100              ; [CPU_] |185| 
     866                      .dwpsn  file "C:/ti/motorware/motorware_1_01_00_18/sw/modules/user/src/32b/user.c",line 181,column 3,
     867 000001b0 8F40          MOVL      XAR5,#15000           ; [CPU_U] |181| 
         000001b1 3A98 
     868 000001b2 A094          MOVL      *+XAR4[AR0],XAR5      ; [CPU_] |181| 
     869                      .dwpsn  file "C:/ti/motorware/motorware_1_01_00_18/sw/modules/user/src/32b/user.c",line 183,column 3,
     870 000001b3 D0A0          MOVB      XAR0,#160             ; [CPU_] |183| 
     871 000001b4 A094          MOVL      *+XAR4[AR0],XAR5      ; [CPU_] |183| 
     872                      .dwpsn  file "C:/ti/motorware/motorware_1_01_00_18/sw/modules/user/src/32b/user.c",line 185,column 3,
     873 000001b5 D0A2          MOVB      XAR0,#162             ; [CPU_] |185| 
     874                      .dwpsn  file "C:/ti/motorware/motorware_1_01_00_18/sw/modules/user/src/32b/user.c",line 187,column 3,
     875 000001b6 8F40          MOVL      XAR5,#1000            ; [CPU_U] |187| 
         000001b7 03E8 
     876                      .dwpsn  file "C:/ti/motorware/motorware_1_01_00_18/sw/modules/user/src/32b/user.c",line 185,column 3,
     877 000001b8 1E94          MOVL      *+XAR4[AR0],ACC       ; [CPU_] |185| 
     878                      .dwpsn  file "C:/ti/motorware/motorware_1_01_00_18/sw/modules/user/src/32b/user.c",line 187,column 3,
     879 000001b9 D0A4          MOVB      XAR0,#164             ; [CPU_] |187| 
     880                      .dwpsn  file "C:/ti/motorware/motorware_1_01_00_18/sw/modules/user/src/32b/user.c",line 189,column 3,
     881 000001ba 28A9          MOV       AL,#53093             ; [CPU_] |189| 
         000001bb CF65 
     882 000001bc 28A8          MOV       AH,#14475             ; [CPU_] |189| 
         000001bd 388B 
     883                      .dwpsn  file "C:/ti/motorware/motorware_1_01_00_18/sw/modules/user/src/32b/user.c",line 187,column 3,
     884 000001be A094          MOVL      *+XAR4[AR0],XAR5      ; [CPU_] |187| 
TMS320C2000 Assembler PC v6.2.5 Thu Jun 22 15:17:10 2017

Tools Copyright (c) 1996-2014 Texas Instruments Incorporated
C:\Users\wmj\AppData\Local\Temp\1174810                              PAGE   19

     885                      .dwpsn  file "C:/ti/motorware/motorware_1_01_00_18/sw/modules/user/src/32b/user.c",line 189,column 3,
     886 000001bf D0A6          MOVB      XAR0,#166             ; [CPU_] |189| 
     887 000001c0 1E94          MOVL      *+XAR4[AR0],ACC       ; [CPU_] |189| 
     888                      .dwpsn  file "C:/ti/motorware/motorware_1_01_00_18/sw/modules/user/src/32b/user.c",line 191,column 3,
     889 000001c1 9A00          MOV       AL,#0                 ; [CPU_] |191| 
     890 000001c2 28A8          MOV       AH,#49120             ; [CPU_] |191| 
         000001c3 BFE0 
     891 000001c4 D0A8          MOVB      XAR0,#168             ; [CPU_] |191| 
     892 000001c5 1E94          MOVL      *+XAR4[AR0],ACC       ; [CPU_] |191| 
     893              $C$DW$69        .dwtag  DW_TAG_TI_branch
     894                      .dwattr $C$DW$69, DW_AT_low_pc(0x00)
     895                      .dwattr $C$DW$69, DW_AT_TI_return
     896 000001c6 0006          LRETR     ; [CPU_] 
     897                      ; return occurs ; [] 
     898                      .dwattr $C$DW$66, DW_AT_TI_end_file("C:/ti/motorware/motorware_1_01_00_18/sw/modules/user/src/32b/use
     899                      .dwattr $C$DW$66, DW_AT_TI_end_line(0xc2)
     900                      .dwattr $C$DW$66, DW_AT_TI_end_column(0x01)
     901                      .dwendentry
     902                      .dwendtag $C$DW$66
     903              
     904 000001c7               .sect   ".text"
     905                      .clink
     906                      .global _USER_setErrorCode
     907              
     908              $C$DW$70        .dwtag  DW_TAG_subprogram, DW_AT_name("USER_setErrorCode")
     909                      .dwattr $C$DW$70, DW_AT_low_pc(_USER_setErrorCode)
     910                      .dwattr $C$DW$70, DW_AT_high_pc(0x00)
     911                      .dwattr $C$DW$70, DW_AT_TI_symbol_name("_USER_setErrorCode")
     912                      .dwattr $C$DW$70, DW_AT_external
     913                      .dwattr $C$DW$70, DW_AT_TI_begin_file("C:/ti/motorware/motorware_1_01_00_18/sw/modules/user/src/32b/u
     914                      .dwattr $C$DW$70, DW_AT_TI_begin_line(0x33b)
     915                      .dwattr $C$DW$70, DW_AT_TI_begin_column(0x06)
     916                      .dwattr $C$DW$70, DW_AT_TI_max_frame_size(-2)
     917                      .dwpsn  file "C:/ti/motorware/motorware_1_01_00_18/sw/modules/user/src/32b/user.c",line 828,column 1,
     918              
     919                      .dwfde $C$DW$CIE, _USER_setErrorCode
     920              $C$DW$71        .dwtag  DW_TAG_formal_parameter, DW_AT_name("pUserParams")
     921                      .dwattr $C$DW$71, DW_AT_TI_symbol_name("_pUserParams")
     922                      .dwattr $C$DW$71, DW_AT_type(*$C$DW$T$79)
     923                      .dwattr $C$DW$71, DW_AT_location[DW_OP_reg12]
     924              $C$DW$72        .dwtag  DW_TAG_formal_parameter, DW_AT_name("errorCode")
     925                      .dwattr $C$DW$72, DW_AT_TI_symbol_name("_errorCode")
     926                      .dwattr $C$DW$72, DW_AT_type(*$C$DW$T$77)
     927                      .dwattr $C$DW$72, DW_AT_location[DW_OP_reg0]
     928              
     929              ;***************************************************************
     930              ;* FNAME: _USER_setErrorCode            FR SIZE:   0           *
     931              ;*                                                             *
     932              ;* FUNCTION ENVIRONMENT                                        *
     933              ;*                                                             *
     934              ;* FUNCTION PROPERTIES                                         *
     935              ;*                            0 Parameter,  0 Auto,  0 SOE     *
     936              ;***************************************************************
     937              
     938              _USER_setErrorCode:
TMS320C2000 Assembler PC v6.2.5 Thu Jun 22 15:17:10 2017

Tools Copyright (c) 1996-2014 Texas Instruments Incorporated
C:\Users\wmj\AppData\Local\Temp\1174810                              PAGE   20

     939              ;* AR4   assigned to _pUserParams
     940              $C$DW$73        .dwtag  DW_TAG_variable, DW_AT_name("pUserParams")
     941                      .dwattr $C$DW$73, DW_AT_TI_symbol_name("_pUserParams")
     942                      .dwattr $C$DW$73, DW_AT_type(*$C$DW$T$87)
     943                      .dwattr $C$DW$73, DW_AT_location[DW_OP_reg12]
     944              ;* AL    assigned to _errorCode
     945              $C$DW$74        .dwtag  DW_TAG_variable, DW_AT_name("errorCode")
     946                      .dwattr $C$DW$74, DW_AT_TI_symbol_name("_errorCode")
     947                      .dwattr $C$DW$74, DW_AT_type(*$C$DW$T$77)
     948                      .dwattr $C$DW$74, DW_AT_location[DW_OP_reg0]
     949                      .dwcfi  cfa_offset, -2
     950                      .dwcfi  save_reg_to_mem, 26, 0
     951                      .dwcfi  save_reg_to_reg, 78, 26
     952                      .dwpsn  file "C:/ti/motorware/motorware_1_01_00_18/sw/modules/user/src/32b/user.c",line 829,column 3,
     953 000001c7 D0AA          MOVB      XAR0,#170             ; [CPU_] |829| 
     954 000001c8 9694          MOV       *+XAR4[AR0],AL        ; [CPU_] |829| 
     955              $C$DW$75        .dwtag  DW_TAG_TI_branch
     956                      .dwattr $C$DW$75, DW_AT_low_pc(0x00)
     957                      .dwattr $C$DW$75, DW_AT_TI_return
     958 000001c9 0006          LRETR     ; [CPU_] 
     959                      ; return occurs ; [] 
     960                      .dwattr $C$DW$70, DW_AT_TI_end_file("C:/ti/motorware/motorware_1_01_00_18/sw/modules/user/src/32b/use
     961                      .dwattr $C$DW$70, DW_AT_TI_end_line(0x340)
     962                      .dwattr $C$DW$70, DW_AT_TI_end_column(0x01)
     963                      .dwendentry
     964                      .dwendtag $C$DW$70
     965              
     966 000001ca               .sect   ".text"
     967                      .clink
     968                      .global _USER_getErrorCode
     969              
     970              $C$DW$76        .dwtag  DW_TAG_subprogram, DW_AT_name("USER_getErrorCode")
     971                      .dwattr $C$DW$76, DW_AT_low_pc(_USER_getErrorCode)
     972                      .dwattr $C$DW$76, DW_AT_high_pc(0x00)
     973                      .dwattr $C$DW$76, DW_AT_TI_symbol_name("_USER_getErrorCode")
     974                      .dwattr $C$DW$76, DW_AT_external
     975                      .dwattr $C$DW$76, DW_AT_type(*$C$DW$T$75)
     976                      .dwattr $C$DW$76, DW_AT_TI_begin_file("C:/ti/motorware/motorware_1_01_00_18/sw/modules/user/src/32b/u
     977                      .dwattr $C$DW$76, DW_AT_TI_begin_line(0x335)
     978                      .dwattr $C$DW$76, DW_AT_TI_begin_column(0x12)
     979                      .dwattr $C$DW$76, DW_AT_TI_max_frame_size(-2)
     980                      .dwpsn  file "C:/ti/motorware/motorware_1_01_00_18/sw/modules/user/src/32b/user.c",line 822,column 1,
     981              
     982                      .dwfde $C$DW$CIE, _USER_getErrorCode
     983              $C$DW$77        .dwtag  DW_TAG_formal_parameter, DW_AT_name("pUserParams")
     984                      .dwattr $C$DW$77, DW_AT_TI_symbol_name("_pUserParams")
     985                      .dwattr $C$DW$77, DW_AT_type(*$C$DW$T$79)
     986                      .dwattr $C$DW$77, DW_AT_location[DW_OP_reg12]
     987              
     988              ;***************************************************************
     989              ;* FNAME: _USER_getErrorCode            FR SIZE:   0           *
     990              ;*                                                             *
     991              ;* FUNCTION ENVIRONMENT                                        *
     992              ;*                                                             *
     993              ;* FUNCTION PROPERTIES                                         *
TMS320C2000 Assembler PC v6.2.5 Thu Jun 22 15:17:10 2017

Tools Copyright (c) 1996-2014 Texas Instruments Incorporated
C:\Users\wmj\AppData\Local\Temp\1174810                              PAGE   21

     994              ;*                            0 Parameter,  0 Auto,  0 SOE     *
     995              ;***************************************************************
     996              
     997              _USER_getErrorCode:
     998              ;* AR4   assigned to _pUserParams
     999              $C$DW$78        .dwtag  DW_TAG_variable, DW_AT_name("pUserParams")
    1000                      .dwattr $C$DW$78, DW_AT_TI_symbol_name("_pUserParams")
    1001                      .dwattr $C$DW$78, DW_AT_type(*$C$DW$T$87)
    1002                      .dwattr $C$DW$78, DW_AT_location[DW_OP_reg12]
    1003                      .dwcfi  cfa_offset, -2
    1004                      .dwcfi  save_reg_to_mem, 26, 0
    1005                      .dwcfi  save_reg_to_reg, 78, 26
    1006                      .dwpsn  file "C:/ti/motorware/motorware_1_01_00_18/sw/modules/user/src/32b/user.c",line 823,column 3,
    1007 000001ca D0AA          MOVB      XAR0,#170             ; [CPU_] |823| 
    1008 000001cb 9294          MOV       AL,*+XAR4[AR0]        ; [CPU_] |823| 
    1009              $C$DW$79        .dwtag  DW_TAG_TI_branch
    1010                      .dwattr $C$DW$79, DW_AT_low_pc(0x00)
    1011                      .dwattr $C$DW$79, DW_AT_TI_return
    1012 000001cc 0006          LRETR     ; [CPU_] 
    1013                      ; return occurs ; [] 
    1014                      .dwattr $C$DW$76, DW_AT_TI_end_file("C:/ti/motorware/motorware_1_01_00_18/sw/modules/user/src/32b/use
    1015                      .dwattr $C$DW$76, DW_AT_TI_end_line(0x338)
    1016                      .dwattr $C$DW$76, DW_AT_TI_end_column(0x01)
    1017                      .dwendentry
    1018                      .dwendtag $C$DW$76
    1019              
    1020 000001cd               .sect   ".text"
    1021                      .clink
    1022                      .global _USER_computeTorque_lbin
    1023              
    1024              $C$DW$80        .dwtag  DW_TAG_subprogram, DW_AT_name("USER_computeTorque_lbin")
    1025                      .dwattr $C$DW$80, DW_AT_low_pc(_USER_computeTorque_lbin)
    1026                      .dwattr $C$DW$80, DW_AT_high_pc(0x00)
    1027                      .dwattr $C$DW$80, DW_AT_TI_symbol_name("_USER_computeTorque_lbin")
    1028                      .dwattr $C$DW$80, DW_AT_external
    1029                      .dwattr $C$DW$80, DW_AT_type(*$C$DW$T$20)
    1030                      .dwattr $C$DW$80, DW_AT_TI_begin_file("C:/ti/motorware/motorware_1_01_00_18/sw/modules/user/src/32b/u
    1031                      .dwattr $C$DW$80, DW_AT_TI_begin_line(0x3e5)
    1032                      .dwattr $C$DW$80, DW_AT_TI_begin_column(0x05)
    1033                      .dwattr $C$DW$80, DW_AT_TI_max_frame_size(-16)
    1034                      .dwpsn  file "C:/ti/motorware/motorware_1_01_00_18/sw/modules/user/src/32b/user.c",line 998,column 1,
    1035              
    1036                      .dwfde $C$DW$CIE, _USER_computeTorque_lbin
    1037              $C$DW$81        .dwtag  DW_TAG_formal_parameter, DW_AT_name("handle")
    1038                      .dwattr $C$DW$81, DW_AT_TI_symbol_name("_handle")
    1039                      .dwattr $C$DW$81, DW_AT_type(*$C$DW$T$84)
    1040                      .dwattr $C$DW$81, DW_AT_location[DW_OP_reg12]
    1041              $C$DW$82        .dwtag  DW_TAG_formal_parameter, DW_AT_name("torque_Flux_sf")
    1042                      .dwattr $C$DW$82, DW_AT_TI_symbol_name("_torque_Flux_sf")
    1043                      .dwattr $C$DW$82, DW_AT_type(*$C$DW$T$90)
    1044                      .dwattr $C$DW$82, DW_AT_location[DW_OP_reg0]
    1045              $C$DW$83        .dwtag  DW_TAG_formal_parameter, DW_AT_name("torque_Ls_sf")
    1046                      .dwattr $C$DW$83, DW_AT_TI_symbol_name("_torque_Ls_sf")
    1047                      .dwattr $C$DW$83, DW_AT_type(*$C$DW$T$90)
    1048                      .dwattr $C$DW$83, DW_AT_location[DW_OP_breg20 -18]
TMS320C2000 Assembler PC v6.2.5 Thu Jun 22 15:17:10 2017

Tools Copyright (c) 1996-2014 Texas Instruments Incorporated
C:\Users\wmj\AppData\Local\Temp\1174810                              PAGE   22

    1049              
    1050              ;***************************************************************
    1051              ;* FNAME: _USER_computeTorque_lbin      FR SIZE:  14           *
    1052              ;*                                                             *
    1053              ;* FUNCTION ENVIRONMENT                                        *
    1054              ;*                                                             *
    1055              ;* FUNCTION PROPERTIES                                         *
    1056              ;*                            0 Parameter,  8 Auto,  6 SOE     *
    1057              ;***************************************************************
    1058              
    1059              _USER_computeTorque_lbin:
    1060              ;* AR1   assigned to _handle
    1061              $C$DW$84        .dwtag  DW_TAG_variable, DW_AT_name("handle")
    1062                      .dwattr $C$DW$84, DW_AT_TI_symbol_name("_handle")
    1063                      .dwattr $C$DW$84, DW_AT_type(*$C$DW$T$85)
    1064                      .dwattr $C$DW$84, DW_AT_location[DW_OP_reg6]
    1065              $C$DW$85        .dwtag  DW_TAG_variable, DW_AT_name("torque_Flux_sf")
    1066                      .dwattr $C$DW$85, DW_AT_TI_symbol_name("_torque_Flux_sf")
    1067                      .dwattr $C$DW$85, DW_AT_type(*$C$DW$T$90)
    1068                      .dwattr $C$DW$85, DW_AT_location[DW_OP_breg20 -2]
    1069              $C$DW$86        .dwtag  DW_TAG_variable, DW_AT_name("torque_Ls_sf")
    1070                      .dwattr $C$DW$86, DW_AT_TI_symbol_name("_torque_Ls_sf")
    1071                      .dwattr $C$DW$86, DW_AT_type(*$C$DW$T$90)
    1072                      .dwattr $C$DW$86, DW_AT_location[DW_OP_breg20 -4]
    1073              $C$DW$87        .dwtag  DW_TAG_variable, DW_AT_name("Flux_pu")
    1074                      .dwattr $C$DW$87, DW_AT_TI_symbol_name("_Flux_pu")
    1075                      .dwattr $C$DW$87, DW_AT_type(*$C$DW$T$20)
    1076                      .dwattr $C$DW$87, DW_AT_location[DW_OP_breg20 -6]
    1077              ;* AR3   assigned to _Id_pu
    1078              $C$DW$88        .dwtag  DW_TAG_variable, DW_AT_name("Id_pu")
    1079                      .dwattr $C$DW$88, DW_AT_TI_symbol_name("_Id_pu")
    1080                      .dwattr $C$DW$88, DW_AT_type(*$C$DW$T$20)
    1081                      .dwattr $C$DW$88, DW_AT_location[DW_OP_reg10]
    1082              ;* AR2   assigned to _Iq_pu
    1083              $C$DW$89        .dwtag  DW_TAG_variable, DW_AT_name("Iq_pu")
    1084                      .dwattr $C$DW$89, DW_AT_TI_symbol_name("_Iq_pu")
    1085                      .dwattr $C$DW$89, DW_AT_type(*$C$DW$T$20)
    1086                      .dwattr $C$DW$89, DW_AT_location[DW_OP_reg8]
    1087              ;* AR7   assigned to _Ld_minus_Lq_pu
    1088              $C$DW$90        .dwtag  DW_TAG_variable, DW_AT_name("Ld_minus_Lq_pu")
    1089                      .dwattr $C$DW$90, DW_AT_TI_symbol_name("_Ld_minus_Lq_pu")
    1090                      .dwattr $C$DW$90, DW_AT_type(*$C$DW$T$20)
    1091                      .dwattr $C$DW$90, DW_AT_location[DW_OP_reg18]
    1092                      .dwcfi  cfa_offset, -2
    1093                      .dwcfi  save_reg_to_mem, 26, 0
    1094                      .dwcfi  save_reg_to_reg, 78, 26
    1095 000001cd B2BD          MOVL      *SP++,XAR1            ; [CPU_] 
    1096                      .dwcfi  save_reg_to_mem, 7, 2
    1097                      .dwcfi  cfa_offset, -4
    1098 000001ce AABD          MOVL      *SP++,XAR2            ; [CPU_] 
    1099                      .dwcfi  save_reg_to_mem, 9, 4
    1100                      .dwcfi  cfa_offset, -6
    1101 000001cf A2BD          MOVL      *SP++,XAR3            ; [CPU_] 
    1102                      .dwcfi  save_reg_to_mem, 11, 6
    1103                      .dwcfi  cfa_offset, -8
TMS320C2000 Assembler PC v6.2.5 Thu Jun 22 15:17:10 2017

Tools Copyright (c) 1996-2014 Texas Instruments Incorporated
C:\Users\wmj\AppData\Local\Temp\1174810                              PAGE   23

    1104 000001d0 FE08          ADDB      SP,#8                 ; [CPU_U] 
    1105                      .dwcfi  cfa_offset, -16
    1106                      .dwpsn  file "C:/ti/motorware/motorware_1_01_00_18/sw/modules/user/src/32b/user.c",line 1001,column 1
    1107 000001d1 D018          MOVB      XAR0,#24              ; [CPU_] |1001| 
    1108                      .dwpsn  file "C:/ti/motorware/motorware_1_01_00_18/sw/modules/user/src/32b/user.c",line 998,column 1,
    1109 000001d2 8BA4          MOVL      XAR1,XAR4             ; [CPU_] |998| 
    1110 000001d3 1E42          MOVL      *-SP[2],ACC           ; [CPU_] |998| 
    1111 000001d4 0652          MOVL      ACC,*-SP[18]          ; [CPU_] |998| 
    1112 000001d5 1E44          MOVL      *-SP[4],ACC           ; [CPU_] |998| 
    1113                      .dwpsn  file "C:/ti/motorware/motorware_1_01_00_18/sw/modules/user/src/32b/user.c",line 1001,column 1
    1114 000001d6 8A91          MOVL      XAR4,*+XAR1[AR0]      ; [CPU_] |1001| 
    1115              $C$DW$91        .dwtag  DW_TAG_TI_branch
    1116                      .dwattr $C$DW$91, DW_AT_low_pc(0x00)
    1117                      .dwattr $C$DW$91, DW_AT_name("_EST_getFlux_pu")
    1118                      .dwattr $C$DW$91, DW_AT_TI_call
    1119 000001d7 7640!         LCR       #_EST_getFlux_pu      ; [CPU_] |1001| 
         000001d8 0000 
    1120                      ; call occurs [#_EST_getFlux_pu] ; [] |1001| 
    1121                      .dwpsn  file "C:/ti/motorware/motorware_1_01_00_18/sw/modules/pid/src/32b/pid.h",line 106,column 3,is
    1122 000001d9 D020          MOVB      XAR0,#32              ; [CPU_] |106| 
    1123                      .dwpsn  file "C:/ti/motorware/motorware_1_01_00_18/sw/modules/user/src/32b/user.c",line 1001,column 1
    1124 000001da 1E46          MOVL      *-SP[6],ACC           ; [CPU_] |1001| 
    1125                      .dwpsn  file "C:/ti/motorware/motorware_1_01_00_18/sw/modules/pid/src/32b/pid.h",line 106,column 3,is
    1126 000001db 8A91          MOVL      XAR4,*+XAR1[AR0]      ; [CPU_] |106| 
    1127 000001dc D00A          MOVB      XAR0,#10              ; [CPU_] |106| 
    1128 000001dd 8294          MOVL      XAR3,*+XAR4[AR0]      ; [CPU_] |106| 
    1129 000001de D032          MOVB      XAR0,#50              ; [CPU_] |106| 
    1130 000001df 8A91          MOVL      XAR4,*+XAR1[AR0]      ; [CPU_] |106| 
    1131 000001e0 D00A          MOVB      XAR0,#10              ; [CPU_] |106| 
    1132 000001e1 8694          MOVL      XAR2,*+XAR4[AR0]      ; [CPU_] |106| 
    1133                      .dwpsn  file "C:/ti/motorware/motorware_1_01_00_18/sw/modules/user/src/32b/user.c",line 1004,column 2
    1134 000001e2 D018          MOVB      XAR0,#24              ; [CPU_] |1004| 
    1135 000001e3 8A91          MOVL      XAR4,*+XAR1[AR0]      ; [CPU_] |1004| 
    1136              $C$DW$92        .dwtag  DW_TAG_TI_branch
    1137                      .dwattr $C$DW$92, DW_AT_low_pc(0x00)
    1138                      .dwattr $C$DW$92, DW_AT_name("_EST_getLs_q_pu")
    1139                      .dwattr $C$DW$92, DW_AT_TI_call
    1140 000001e4 7640!         LCR       #_EST_getLs_q_pu      ; [CPU_] |1004| 
         000001e5 0000 
    1141                      ; call occurs [#_EST_getLs_q_pu] ; [] |1004| 
    1142 000001e6 D018          MOVB      XAR0,#24              ; [CPU_] |1004| 
    1143 000001e7 1E48          MOVL      *-SP[8],ACC           ; [CPU_] |1004| 
    1144 000001e8 8A91          MOVL      XAR4,*+XAR1[AR0]      ; [CPU_] |1004| 
    1145              $C$DW$93        .dwtag  DW_TAG_TI_branch
    1146                      .dwattr $C$DW$93, DW_AT_low_pc(0x00)
    1147                      .dwattr $C$DW$93, DW_AT_name("_EST_getLs_d_pu")
    1148                      .dwattr $C$DW$93, DW_AT_TI_call
    1149 000001e9 7640!         LCR       #_EST_getLs_d_pu      ; [CPU_] |1004| 
         000001ea 0000 
    1150                      ; call occurs [#_EST_getLs_d_pu] ; [] |1004| 
    1151 000001eb C448          MOVL      XAR6,*-SP[8]          ; [CPU_] |1004| 
    1152 000001ec 3B01          SETC      SXM                   ; [CPU_] 
    1153 000001ed 8746          MOVL      XT,*-SP[6]            ; [CPU_] |1004| 
    1154 000001ee 03A6          SUBL      ACC,XAR6              ; [CPU_] |1004| 
    1155                      .dwpsn  file "C:/ti/motorware/motorware_1_01_00_18/sw/modules/user/src/32b/user.c",line 1009,column 3
TMS320C2000 Assembler PC v6.2.5 Thu Jun 22 15:17:10 2017

Tools Copyright (c) 1996-2014 Texas Instruments Incorporated
C:\Users\wmj\AppData\Local\Temp\1174810                              PAGE   24

    1156 000001ef 5605          IMPYL     P,XT,XAR2             ; [CPU_] |1009| 
         000001f0 00A2 
    1157                      .dwpsn  file "C:/ti/motorware/motorware_1_01_00_18/sw/modules/user/src/32b/user.c",line 1004,column 2
    1158 000001f1 FF45          SFR       ACC,6                 ; [CPU_] |1004| 
    1159                      .dwpsn  file "C:/ti/motorware/motorware_1_01_00_18/sw/modules/user/src/32b/user.c",line 1009,column 3
    1160 000001f2 8746          MOVL      XT,*-SP[6]            ; [CPU_] |1009| 
    1161 000001f3 C442          MOVL      XAR6,*-SP[2]          ; [CPU_] |1009| 
    1162                      .dwpsn  file "C:/ti/motorware/motorware_1_01_00_18/sw/modules/user/src/32b/user.c",line 1004,column 2
    1163 000001f4 1EA7          MOVL      XAR7,ACC              ; [CPU_] |1004| 
    1164                      .dwpsn  file "C:/ti/motorware/motorware_1_01_00_18/sw/modules/user/src/32b/user.c",line 1009,column 3
    1165 000001f5 5663          QMPYL     ACC,XT,XAR2           ; [CPU_] |1009| 
         000001f6 00A2 
    1166 000001f7 56A7          LSL64     ACC:P,#8              ; [CPU_] |1009| 
    1167 000001f8 1EAC          MOVL      XT,ACC                ; [CPU_] |1009| 
    1168 000001f9 0642          MOVL      ACC,*-SP[2]           ; [CPU_] |1009| 
    1169 000001fa 5605          IMPYL     P,XT,XAR6             ; [CPU_] |1009| 
         000001fb 00A6 
    1170 000001fc 5663          QMPYL     ACC,XT,ACC            ; [CPU_] |1009| 
         000001fd 00A9 
    1171 000001fe 87A7          MOVL      XT,XAR7               ; [CPU_] |1009| 
    1172 000001ff 56A7          LSL64     ACC:P,#8              ; [CPU_] |1009| 
    1173 00000200 C544          MOVL      XAR7,*-SP[4]          ; [CPU_] |1009| 
    1174 00000201 1EA6          MOVL      XAR6,ACC              ; [CPU_] |1009| 
    1175 00000202 5605          IMPYL     P,XT,XAR3             ; [CPU_] |1009| 
         00000203 00A3 
    1176 00000204 5663          QMPYL     ACC,XT,XAR3           ; [CPU_] |1009| 
         00000205 00A3 
    1177 00000206 56A7          LSL64     ACC:P,#8              ; [CPU_] |1009| 
    1178 00000207 1EAC          MOVL      XT,ACC                ; [CPU_] |1009| 
    1179 00000208 5605          IMPYL     P,XT,XAR2             ; [CPU_] |1009| 
         00000209 00A2 
    1180 0000020a 5663          QMPYL     ACC,XT,XAR2           ; [CPU_] |1009| 
         0000020b 00A2 
    1181 0000020c 56A7          LSL64     ACC:P,#8              ; [CPU_] |1009| 
    1182 0000020d 1EAC          MOVL      XT,ACC                ; [CPU_] |1009| 
    1183 0000020e 0644          MOVL      ACC,*-SP[4]           ; [CPU_] |1009| 
    1184 0000020f 5605          IMPYL     P,XT,XAR7             ; [CPU_] |1009| 
         00000210 00A7 
    1185 00000211 5663          QMPYL     ACC,XT,ACC            ; [CPU_] |1009| 
         00000212 00A9 
    1186 00000213 56A7          LSL64     ACC:P,#8              ; [CPU_] |1009| 
    1187 00000214 07A6          ADDL      ACC,XAR6              ; [CPU_] |1009| 
    1188 00000215 1EAC          MOVL      XT,ACC                ; [CPU_] |1009| 
    1189 00000216 FE88          SUBB      SP,#8                 ; [CPU_U] 
    1190                      .dwcfi  cfa_offset, -8
    1191 00000217 28A9          MOV       AL,#51840             ; [CPU_] |1009| 
         00000218 CA80 
    1192 00000219 28A8          MOV       AH,#2265              ; [CPU_] |1009| 
         0000021a 08D9 
    1193 0000021b 5605          IMPYL     P,XT,ACC              ; [CPU_] |1009| 
         0000021c 00A9 
    1194 0000021d 5663          QMPYL     ACC,XT,ACC            ; [CPU_] |1009| 
         0000021e 00A9 
    1195 0000021f 82BE          MOVL      XAR3,*--SP            ; [CPU_] 
    1196                      .dwcfi  cfa_offset, -6
TMS320C2000 Assembler PC v6.2.5 Thu Jun 22 15:17:10 2017

Tools Copyright (c) 1996-2014 Texas Instruments Incorporated
C:\Users\wmj\AppData\Local\Temp\1174810                              PAGE   25

    1197                      .dwcfi  restore_reg, 11
    1198 00000220 56A7          LSL64     ACC:P,#8              ; [CPU_] |1009| 
    1199 00000221 86BE          MOVL      XAR2,*--SP            ; [CPU_] 
    1200                      .dwcfi  cfa_offset, -4
    1201                      .dwcfi  restore_reg, 9
    1202 00000222 8BBE          MOVL      XAR1,*--SP            ; [CPU_] 
    1203                      .dwcfi  cfa_offset, -2
    1204                      .dwcfi  restore_reg, 7
    1205              $C$DW$94        .dwtag  DW_TAG_TI_branch
    1206                      .dwattr $C$DW$94, DW_AT_low_pc(0x00)
    1207                      .dwattr $C$DW$94, DW_AT_TI_return
    1208 00000223 0006          LRETR     ; [CPU_] 
    1209                      ; return occurs ; [] 
    1210                      .dwattr $C$DW$80, DW_AT_TI_end_file("C:/ti/motorware/motorware_1_01_00_18/sw/modules/user/src/32b/use
    1211                      .dwattr $C$DW$80, DW_AT_TI_end_line(0x3f2)
    1212                      .dwattr $C$DW$80, DW_AT_TI_end_column(0x01)
    1213                      .dwendentry
    1214                      .dwendtag $C$DW$80
    1215              
    1216 00000224               .sect   ".text"
    1217                      .clink
    1218                      .global _USER_computeTorque_Nm
    1219              
    1220              $C$DW$95        .dwtag  DW_TAG_subprogram, DW_AT_name("USER_computeTorque_Nm")
    1221                      .dwattr $C$DW$95, DW_AT_low_pc(_USER_computeTorque_Nm)
    1222                      .dwattr $C$DW$95, DW_AT_high_pc(0x00)
    1223                      .dwattr $C$DW$95, DW_AT_TI_symbol_name("_USER_computeTorque_Nm")
    1224                      .dwattr $C$DW$95, DW_AT_external
    1225                      .dwattr $C$DW$95, DW_AT_type(*$C$DW$T$20)
    1226                      .dwattr $C$DW$95, DW_AT_TI_begin_file("C:/ti/motorware/motorware_1_01_00_18/sw/modules/user/src/32b/u
    1227                      .dwattr $C$DW$95, DW_AT_TI_begin_line(0x3d3)
    1228                      .dwattr $C$DW$95, DW_AT_TI_begin_column(0x05)
    1229                      .dwattr $C$DW$95, DW_AT_TI_max_frame_size(-16)
    1230                      .dwpsn  file "C:/ti/motorware/motorware_1_01_00_18/sw/modules/user/src/32b/user.c",line 980,column 1,
    1231              
    1232                      .dwfde $C$DW$CIE, _USER_computeTorque_Nm
    1233              $C$DW$96        .dwtag  DW_TAG_formal_parameter, DW_AT_name("handle")
    1234                      .dwattr $C$DW$96, DW_AT_TI_symbol_name("_handle")
    1235                      .dwattr $C$DW$96, DW_AT_type(*$C$DW$T$84)
    1236                      .dwattr $C$DW$96, DW_AT_location[DW_OP_reg12]
    1237              $C$DW$97        .dwtag  DW_TAG_formal_parameter, DW_AT_name("torque_Flux_sf")
    1238                      .dwattr $C$DW$97, DW_AT_TI_symbol_name("_torque_Flux_sf")
    1239                      .dwattr $C$DW$97, DW_AT_type(*$C$DW$T$90)
    1240                      .dwattr $C$DW$97, DW_AT_location[DW_OP_reg0]
    1241              $C$DW$98        .dwtag  DW_TAG_formal_parameter, DW_AT_name("torque_Ls_sf")
    1242                      .dwattr $C$DW$98, DW_AT_TI_symbol_name("_torque_Ls_sf")
    1243                      .dwattr $C$DW$98, DW_AT_type(*$C$DW$T$90)
    1244                      .dwattr $C$DW$98, DW_AT_location[DW_OP_breg20 -18]
    1245              
    1246              ;***************************************************************
    1247              ;* FNAME: _USER_computeTorque_Nm        FR SIZE:  14           *
    1248              ;*                                                             *
    1249              ;* FUNCTION ENVIRONMENT                                        *
    1250              ;*                                                             *
    1251              ;* FUNCTION PROPERTIES                                         *
TMS320C2000 Assembler PC v6.2.5 Thu Jun 22 15:17:10 2017

Tools Copyright (c) 1996-2014 Texas Instruments Incorporated
C:\Users\wmj\AppData\Local\Temp\1174810                              PAGE   26

    1252              ;*                            0 Parameter,  8 Auto,  6 SOE     *
    1253              ;***************************************************************
    1254              
    1255              _USER_computeTorque_Nm:
    1256              ;* AR1   assigned to _handle
    1257              $C$DW$99        .dwtag  DW_TAG_variable, DW_AT_name("handle")
    1258                      .dwattr $C$DW$99, DW_AT_TI_symbol_name("_handle")
    1259                      .dwattr $C$DW$99, DW_AT_type(*$C$DW$T$85)
    1260                      .dwattr $C$DW$99, DW_AT_location[DW_OP_reg6]
    1261              $C$DW$100       .dwtag  DW_TAG_variable, DW_AT_name("torque_Flux_sf")
    1262                      .dwattr $C$DW$100, DW_AT_TI_symbol_name("_torque_Flux_sf")
    1263                      .dwattr $C$DW$100, DW_AT_type(*$C$DW$T$90)
    1264                      .dwattr $C$DW$100, DW_AT_location[DW_OP_breg20 -2]
    1265              $C$DW$101       .dwtag  DW_TAG_variable, DW_AT_name("torque_Ls_sf")
    1266                      .dwattr $C$DW$101, DW_AT_TI_symbol_name("_torque_Ls_sf")
    1267                      .dwattr $C$DW$101, DW_AT_type(*$C$DW$T$90)
    1268                      .dwattr $C$DW$101, DW_AT_location[DW_OP_breg20 -4]
    1269              $C$DW$102       .dwtag  DW_TAG_variable, DW_AT_name("Flux_pu")
    1270                      .dwattr $C$DW$102, DW_AT_TI_symbol_name("_Flux_pu")
    1271                      .dwattr $C$DW$102, DW_AT_type(*$C$DW$T$20)
    1272                      .dwattr $C$DW$102, DW_AT_location[DW_OP_breg20 -6]
    1273              ;* AR3   assigned to _Id_pu
    1274              $C$DW$103       .dwtag  DW_TAG_variable, DW_AT_name("Id_pu")
    1275                      .dwattr $C$DW$103, DW_AT_TI_symbol_name("_Id_pu")
    1276                      .dwattr $C$DW$103, DW_AT_type(*$C$DW$T$20)
    1277                      .dwattr $C$DW$103, DW_AT_location[DW_OP_reg10]
    1278              ;* AR2   assigned to _Iq_pu
    1279              $C$DW$104       .dwtag  DW_TAG_variable, DW_AT_name("Iq_pu")
    1280                      .dwattr $C$DW$104, DW_AT_TI_symbol_name("_Iq_pu")
    1281                      .dwattr $C$DW$104, DW_AT_type(*$C$DW$T$20)
    1282                      .dwattr $C$DW$104, DW_AT_location[DW_OP_reg8]
    1283              ;* AR7   assigned to _Ld_minus_Lq_pu
    1284              $C$DW$105       .dwtag  DW_TAG_variable, DW_AT_name("Ld_minus_Lq_pu")
    1285                      .dwattr $C$DW$105, DW_AT_TI_symbol_name("_Ld_minus_Lq_pu")
    1286                      .dwattr $C$DW$105, DW_AT_type(*$C$DW$T$20)
    1287                      .dwattr $C$DW$105, DW_AT_location[DW_OP_reg18]
    1288                      .dwcfi  cfa_offset, -2
    1289                      .dwcfi  save_reg_to_mem, 26, 0
    1290                      .dwcfi  save_reg_to_reg, 78, 26
    1291 00000224 B2BD          MOVL      *SP++,XAR1            ; [CPU_] 
    1292                      .dwcfi  save_reg_to_mem, 7, 2
    1293                      .dwcfi  cfa_offset, -4
    1294 00000225 AABD          MOVL      *SP++,XAR2            ; [CPU_] 
    1295                      .dwcfi  save_reg_to_mem, 9, 4
    1296                      .dwcfi  cfa_offset, -6
    1297 00000226 A2BD          MOVL      *SP++,XAR3            ; [CPU_] 
    1298                      .dwcfi  save_reg_to_mem, 11, 6
    1299                      .dwcfi  cfa_offset, -8
    1300 00000227 FE08          ADDB      SP,#8                 ; [CPU_U] 
    1301                      .dwcfi  cfa_offset, -16
    1302                      .dwpsn  file "C:/ti/motorware/motorware_1_01_00_18/sw/modules/user/src/32b/user.c",line 983,column 15
    1303 00000228 D018          MOVB      XAR0,#24              ; [CPU_] |983| 
    1304                      .dwpsn  file "C:/ti/motorware/motorware_1_01_00_18/sw/modules/user/src/32b/user.c",line 980,column 1,
    1305 00000229 8BA4          MOVL      XAR1,XAR4             ; [CPU_] |980| 
    1306 0000022a 1E42          MOVL      *-SP[2],ACC           ; [CPU_] |980| 
TMS320C2000 Assembler PC v6.2.5 Thu Jun 22 15:17:10 2017

Tools Copyright (c) 1996-2014 Texas Instruments Incorporated
C:\Users\wmj\AppData\Local\Temp\1174810                              PAGE   27

    1307 0000022b 0652          MOVL      ACC,*-SP[18]          ; [CPU_] |980| 
    1308 0000022c 1E44          MOVL      *-SP[4],ACC           ; [CPU_] |980| 
    1309                      .dwpsn  file "C:/ti/motorware/motorware_1_01_00_18/sw/modules/user/src/32b/user.c",line 983,column 15
    1310 0000022d 8A91          MOVL      XAR4,*+XAR1[AR0]      ; [CPU_] |983| 
    1311              $C$DW$106       .dwtag  DW_TAG_TI_branch
    1312                      .dwattr $C$DW$106, DW_AT_low_pc(0x00)
    1313                      .dwattr $C$DW$106, DW_AT_name("_EST_getFlux_pu")
    1314                      .dwattr $C$DW$106, DW_AT_TI_call
    1315 0000022e 7640!         LCR       #_EST_getFlux_pu      ; [CPU_] |983| 
         0000022f 0000 
    1316                      ; call occurs [#_EST_getFlux_pu] ; [] |983| 
    1317                      .dwpsn  file "C:/ti/motorware/motorware_1_01_00_18/sw/modules/pid/src/32b/pid.h",line 106,column 3,is
    1318 00000230 D020          MOVB      XAR0,#32              ; [CPU_] |106| 
    1319                      .dwpsn  file "C:/ti/motorware/motorware_1_01_00_18/sw/modules/user/src/32b/user.c",line 983,column 15
    1320 00000231 1E46          MOVL      *-SP[6],ACC           ; [CPU_] |983| 
    1321                      .dwpsn  file "C:/ti/motorware/motorware_1_01_00_18/sw/modules/pid/src/32b/pid.h",line 106,column 3,is
    1322 00000232 8A91          MOVL      XAR4,*+XAR1[AR0]      ; [CPU_] |106| 
    1323 00000233 D00A          MOVB      XAR0,#10              ; [CPU_] |106| 
    1324 00000234 8294          MOVL      XAR3,*+XAR4[AR0]      ; [CPU_] |106| 
    1325 00000235 D032          MOVB      XAR0,#50              ; [CPU_] |106| 
    1326 00000236 8A91          MOVL      XAR4,*+XAR1[AR0]      ; [CPU_] |106| 
    1327 00000237 D00A          MOVB      XAR0,#10              ; [CPU_] |106| 
    1328 00000238 8694          MOVL      XAR2,*+XAR4[AR0]      ; [CPU_] |106| 
    1329                      .dwpsn  file "C:/ti/motorware/motorware_1_01_00_18/sw/modules/user/src/32b/user.c",line 986,column 22
    1330 00000239 D018          MOVB      XAR0,#24              ; [CPU_] |986| 
    1331 0000023a 8A91          MOVL      XAR4,*+XAR1[AR0]      ; [CPU_] |986| 
    1332              $C$DW$107       .dwtag  DW_TAG_TI_branch
    1333                      .dwattr $C$DW$107, DW_AT_low_pc(0x00)
    1334                      .dwattr $C$DW$107, DW_AT_name("_EST_getLs_q_pu")
    1335                      .dwattr $C$DW$107, DW_AT_TI_call
    1336 0000023b 7640!         LCR       #_EST_getLs_q_pu      ; [CPU_] |986| 
         0000023c 0000 
    1337                      ; call occurs [#_EST_getLs_q_pu] ; [] |986| 
    1338 0000023d D018          MOVB      XAR0,#24              ; [CPU_] |986| 
    1339 0000023e 1E48          MOVL      *-SP[8],ACC           ; [CPU_] |986| 
    1340 0000023f 8A91          MOVL      XAR4,*+XAR1[AR0]      ; [CPU_] |986| 
    1341              $C$DW$108       .dwtag  DW_TAG_TI_branch
    1342                      .dwattr $C$DW$108, DW_AT_low_pc(0x00)
    1343                      .dwattr $C$DW$108, DW_AT_name("_EST_getLs_d_pu")
    1344                      .dwattr $C$DW$108, DW_AT_TI_call
    1345 00000240 7640!         LCR       #_EST_getLs_d_pu      ; [CPU_] |986| 
         00000241 0000 
    1346                      ; call occurs [#_EST_getLs_d_pu] ; [] |986| 
    1347 00000242 C448          MOVL      XAR6,*-SP[8]          ; [CPU_] |986| 
    1348 00000243 3B01          SETC      SXM                   ; [CPU_] 
    1349 00000244 8746          MOVL      XT,*-SP[6]            ; [CPU_] |986| 
    1350 00000245 03A6          SUBL      ACC,XAR6              ; [CPU_] |986| 
    1351                      .dwpsn  file "C:/ti/motorware/motorware_1_01_00_18/sw/modules/user/src/32b/user.c",line 991,column 3,
    1352 00000246 5605          IMPYL     P,XT,XAR2             ; [CPU_] |991| 
         00000247 00A2 
    1353                      .dwpsn  file "C:/ti/motorware/motorware_1_01_00_18/sw/modules/user/src/32b/user.c",line 986,column 22
    1354 00000248 FF45          SFR       ACC,6                 ; [CPU_] |986| 
    1355                      .dwpsn  file "C:/ti/motorware/motorware_1_01_00_18/sw/modules/user/src/32b/user.c",line 991,column 3,
    1356 00000249 8746          MOVL      XT,*-SP[6]            ; [CPU_] |991| 
    1357 0000024a C442          MOVL      XAR6,*-SP[2]          ; [CPU_] |991| 
TMS320C2000 Assembler PC v6.2.5 Thu Jun 22 15:17:10 2017

Tools Copyright (c) 1996-2014 Texas Instruments Incorporated
C:\Users\wmj\AppData\Local\Temp\1174810                              PAGE   28

    1358                      .dwpsn  file "C:/ti/motorware/motorware_1_01_00_18/sw/modules/user/src/32b/user.c",line 986,column 22
    1359 0000024b 1EA7          MOVL      XAR7,ACC              ; [CPU_] |986| 
    1360                      .dwpsn  file "C:/ti/motorware/motorware_1_01_00_18/sw/modules/user/src/32b/user.c",line 991,column 3,
    1361 0000024c 5663          QMPYL     ACC,XT,XAR2           ; [CPU_] |991| 
         0000024d 00A2 
    1362 0000024e 56A7          LSL64     ACC:P,#8              ; [CPU_] |991| 
    1363 0000024f 1EAC          MOVL      XT,ACC                ; [CPU_] |991| 
    1364 00000250 0642          MOVL      ACC,*-SP[2]           ; [CPU_] |991| 
    1365 00000251 5605          IMPYL     P,XT,XAR6             ; [CPU_] |991| 
         00000252 00A6 
    1366 00000253 5663          QMPYL     ACC,XT,ACC            ; [CPU_] |991| 
         00000254 00A9 
    1367 00000255 87A7          MOVL      XT,XAR7               ; [CPU_] |991| 
    1368 00000256 56A7          LSL64     ACC:P,#8              ; [CPU_] |991| 
    1369 00000257 C544          MOVL      XAR7,*-SP[4]          ; [CPU_] |991| 
    1370 00000258 1EA6          MOVL      XAR6,ACC              ; [CPU_] |991| 
    1371 00000259 5605          IMPYL     P,XT,XAR3             ; [CPU_] |991| 
         0000025a 00A3 
    1372 0000025b 5663          QMPYL     ACC,XT,XAR3           ; [CPU_] |991| 
         0000025c 00A3 
    1373 0000025d 56A7          LSL64     ACC:P,#8              ; [CPU_] |991| 
    1374 0000025e FE88          SUBB      SP,#8                 ; [CPU_U] 
    1375                      .dwcfi  cfa_offset, -8
    1376 0000025f 1EAC          MOVL      XT,ACC                ; [CPU_] |991| 
    1377 00000260 5605          IMPYL     P,XT,XAR2             ; [CPU_] |991| 
         00000261 00A2 
    1378 00000262 5663          QMPYL     ACC,XT,XAR2           ; [CPU_] |991| 
         00000263 00A2 
    1379 00000264 82BE          MOVL      XAR3,*--SP            ; [CPU_] 
    1380                      .dwcfi  cfa_offset, -6
    1381                      .dwcfi  restore_reg, 11
    1382 00000265 56A7          LSL64     ACC:P,#8              ; [CPU_] |991| 
    1383 00000266 1EAC          MOVL      XT,ACC                ; [CPU_] |991| 
    1384 00000267 86BE          MOVL      XAR2,*--SP            ; [CPU_] 
    1385                      .dwcfi  cfa_offset, -4
    1386                      .dwcfi  restore_reg, 9
    1387 00000268 5605          IMPYL     P,XT,XAR7             ; [CPU_] |991| 
         00000269 00A7 
    1388 0000026a 5663          QMPYL     ACC,XT,XAR7           ; [CPU_] |991| 
         0000026b 00A7 
    1389 0000026c 56A7          LSL64     ACC:P,#8              ; [CPU_] |991| 
    1390 0000026d 8BBE          MOVL      XAR1,*--SP            ; [CPU_] 
    1391                      .dwcfi  cfa_offset, -2
    1392                      .dwcfi  restore_reg, 7
    1393 0000026e 07A6          ADDL      ACC,XAR6              ; [CPU_] |991| 
    1394              $C$DW$109       .dwtag  DW_TAG_TI_branch
    1395                      .dwattr $C$DW$109, DW_AT_low_pc(0x00)
    1396                      .dwattr $C$DW$109, DW_AT_TI_return
    1397 0000026f 0006          LRETR     ; [CPU_] 
    1398                      ; return occurs ; [] 
    1399                      .dwattr $C$DW$95, DW_AT_TI_end_file("C:/ti/motorware/motorware_1_01_00_18/sw/modules/user/src/32b/use
    1400                      .dwattr $C$DW$95, DW_AT_TI_end_line(0x3e0)
    1401                      .dwattr $C$DW$95, DW_AT_TI_end_column(0x01)
    1402                      .dwendentry
    1403                      .dwendtag $C$DW$95
TMS320C2000 Assembler PC v6.2.5 Thu Jun 22 15:17:10 2017

Tools Copyright (c) 1996-2014 Texas Instruments Incorporated
C:\Users\wmj\AppData\Local\Temp\1174810                              PAGE   29

    1404              
    1405 00000270               .sect   ".text"
    1406                      .clink
    1407                      .global _USER_computeTorque_Ls_Id_Iq_pu_to_Nm_sf
    1408              
    1409              $C$DW$110       .dwtag  DW_TAG_subprogram, DW_AT_name("USER_computeTorque_Ls_Id_Iq_pu_to_Nm_sf")
    1410                      .dwattr $C$DW$110, DW_AT_low_pc(_USER_computeTorque_Ls_Id_Iq_pu_to_Nm_sf)
    1411                      .dwattr $C$DW$110, DW_AT_high_pc(0x00)
    1412                      .dwattr $C$DW$110, DW_AT_TI_symbol_name("_USER_computeTorque_Ls_Id_Iq_pu_to_Nm_sf")
    1413                      .dwattr $C$DW$110, DW_AT_external
    1414                      .dwattr $C$DW$110, DW_AT_type(*$C$DW$T$20)
    1415                      .dwattr $C$DW$110, DW_AT_TI_begin_file("C:/ti/motorware/motorware_1_01_00_18/sw/modules/user/src/32b/
    1416                      .dwattr $C$DW$110, DW_AT_TI_begin_line(0x398)
    1417                      .dwattr $C$DW$110, DW_AT_TI_begin_column(0x05)
    1418                      .dwattr $C$DW$110, DW_AT_TI_max_frame_size(-16)
    1419                      .dwpsn  file "C:/ti/motorware/motorware_1_01_00_18/sw/modules/user/src/32b/user.c",line 921,column 1,
    1420              
    1421                      .dwfde $C$DW$CIE, _USER_computeTorque_Ls_Id_Iq_pu_to_Nm_sf
    1422              
    1423              ;***************************************************************
    1424              ;* FNAME: _USER_computeTorque_Ls_Id_Iq_pu_to_Nm_sf FR SIZE:  14           *
    1425              ;*                                                             *
    1426              ;* FUNCTION ENVIRONMENT                                        *
    1427              ;*                                                             *
    1428              ;* FUNCTION PROPERTIES                                         *
    1429              ;*                            2 Parameter, 10 Auto,  2 SOE     *
    1430              ;***************************************************************
    1431              
    1432              _USER_computeTorque_Ls_Id_Iq_pu_to_Nm_sf:
    1433              ;* AL    assigned to _x
    1434              $C$DW$111       .dwtag  DW_TAG_variable, DW_AT_name("x")
    1435                      .dwattr $C$DW$111, DW_AT_TI_symbol_name("_x")
    1436                      .dwattr $C$DW$111, DW_AT_type(*$C$DW$T$17)
    1437                      .dwattr $C$DW$111, DW_AT_location[DW_OP_reg0]
    1438              $C$DW$112       .dwtag  DW_TAG_variable, DW_AT_name("y")
    1439                      .dwattr $C$DW$112, DW_AT_TI_symbol_name("_y")
    1440                      .dwattr $C$DW$112, DW_AT_type(*$C$DW$T$17)
    1441                      .dwattr $C$DW$112, DW_AT_location[DW_OP_breg20 -4]
    1442              ;* AL    assigned to _lShift
    1443              $C$DW$113       .dwtag  DW_TAG_variable, DW_AT_name("lShift")
    1444                      .dwattr $C$DW$113, DW_AT_TI_symbol_name("_lShift")
    1445                      .dwattr $C$DW$113, DW_AT_type(*$C$DW$T$54)
    1446                      .dwattr $C$DW$113, DW_AT_location[DW_OP_reg0]
    1447                      .dwcfi  cfa_offset, -2
    1448                      .dwcfi  save_reg_to_mem, 26, 0
    1449                      .dwcfi  save_reg_to_reg, 78, 26
    1450 00000270 B2BD          MOVL      *SP++,XAR1            ; [CPU_] 
    1451                      .dwcfi  save_reg_to_mem, 7, 2
    1452                      .dwcfi  cfa_offset, -4
    1453 00000271 FE0C          ADDB      SP,#12                ; [CPU_U] 
    1454                      .dwcfi  cfa_offset, -16
    1455                      .dwpsn  file "C:/ti/motorware/motorware_1_01_00_18/sw/modules/user/src/32b/user.c",line 924,column 18
    1456 00000272 28A9          MOV       AL,#58680             ; [CPU_] |924| 
         00000273 E538 
    1457 00000274 28A8          MOV       AH,#16413             ; [CPU_] |924| 
TMS320C2000 Assembler PC v6.2.5 Thu Jun 22 15:17:10 2017

Tools Copyright (c) 1996-2014 Texas Instruments Incorporated
C:\Users\wmj\AppData\Local\Temp\1174810                              PAGE   30

         00000275 401D 
    1458              $C$DW$114       .dwtag  DW_TAG_TI_branch
    1459                      .dwattr $C$DW$114, DW_AT_low_pc(0x00)
    1460                      .dwattr $C$DW$114, DW_AT_name("_log")
    1461                      .dwattr $C$DW$114, DW_AT_TI_call
    1462 00000276 7640!         LCR       #_log                 ; [CPU_] |924| 
         00000277 0000 
    1463                      ; call occurs [#_log] ; [] |924| 
    1464 00000278 8BA9          MOVL      XAR1,ACC              ; [CPU_] |924| 
    1465 00000279 9A00          MOV       AL,#0                 ; [CPU_] |924| 
    1466 0000027a 28A8          MOV       AH,#16384             ; [CPU_] |924| 
         0000027b 4000 
    1467              $C$DW$115       .dwtag  DW_TAG_TI_branch
    1468                      .dwattr $C$DW$115, DW_AT_low_pc(0x00)
    1469                      .dwattr $C$DW$115, DW_AT_name("_log")
    1470                      .dwattr $C$DW$115, DW_AT_TI_call
    1471 0000027c 7640!         LCR       #_log                 ; [CPU_] |924| 
         0000027d 0000 
    1472                      ; call occurs [#_log] ; [] |924| 
    1473 0000027e 1E42          MOVL      *-SP[2],ACC           ; [CPU_] |924| 
    1474 0000027f B2A9          MOVL      ACC,XAR1              ; [CPU_] |924| 
    1475              $C$DW$116       .dwtag  DW_TAG_TI_branch
    1476                      .dwattr $C$DW$116, DW_AT_low_pc(0x00)
    1477                      .dwattr $C$DW$116, DW_AT_name("FS$$DIV")
    1478                      .dwattr $C$DW$116, DW_AT_TI_call
    1479 00000280 7640!         LCR       #FS$$DIV              ; [CPU_] |924| 
         00000281 0000 
    1480                      ; call occurs [#FS$$DIV] ; [] |924| 
    1481                      .dwpsn  file "c:/ti/ccsv6/tools/compiler/c2000_6.2.5/include/math.h",line 110,column 45,is_stmt
    1482 00000282 5CAD          MOVZ      AR4,SP                ; [CPU_U] |110| 
    1483 00000283 DC84          SUBB      XAR4,#4               ; [CPU_U] |110| 
    1484              $C$DW$117       .dwtag  DW_TAG_TI_branch
    1485                      .dwattr $C$DW$117, DW_AT_low_pc(0x00)
    1486                      .dwattr $C$DW$117, DW_AT_name("_modf")
    1487                      .dwattr $C$DW$117, DW_AT_TI_call
    1488 00000284 7640!         LCR       #_modf                ; [CPU_] |110| 
         00000285 0000 
    1489                      ; call occurs [#_modf] ; [] |110| 
    1490 00000286 1EA6          MOVL      XAR6,ACC              ; [CPU_] |110| 
    1491 00000287 9A00          MOV       AL,#0                 ; [CPU_] |110| 
    1492 00000288 9B00          MOV       AH,#0                 ; [CPU_] |110| 
    1493 00000289 1E42          MOVL      *-SP[2],ACC           ; [CPU_] |110| 
    1494 0000028a 06A6          MOVL      ACC,XAR6              ; [CPU_] |110| 
    1495              $C$DW$118       .dwtag  DW_TAG_TI_branch
    1496                      .dwattr $C$DW$118, DW_AT_low_pc(0x00)
    1497                      .dwattr $C$DW$118, DW_AT_name("FS$$CMP")
    1498                      .dwattr $C$DW$118, DW_AT_TI_call
    1499 0000028b 7640!         LCR       #FS$$CMP              ; [CPU_] |110| 
         0000028c 0000 
    1500                      ; call occurs [#FS$$CMP] ; [] |110| 
    1501 0000028d 5200          CMPB      AL,#0                 ; [CPU_] |110| 
    1502 0000028e 6203          B         $C$L3,GT              ; [CPU_] |110| 
    1503                      ; branchcc occurs ; [] |110| 
    1504 0000028f 0644          MOVL      ACC,*-SP[4]           ; [CPU_] |110| 
    1505 00000290 6F07          B         $C$L4,UNC             ; [CPU_] |110| 
TMS320C2000 Assembler PC v6.2.5 Thu Jun 22 15:17:10 2017

Tools Copyright (c) 1996-2014 Texas Instruments Incorporated
C:\Users\wmj\AppData\Local\Temp\1174810                              PAGE   31

    1506                      ; branch occurs ; [] |110| 
    1507 00000291       $C$L3:    
    1508 00000291 FF2F          MOV       ACC,#32512 << 15      ; [CPU_] |110| 
         00000292 7F00 
    1509 00000293 1E42          MOVL      *-SP[2],ACC           ; [CPU_] |110| 
    1510 00000294 0644          MOVL      ACC,*-SP[4]           ; [CPU_] |110| 
    1511              $C$DW$119       .dwtag  DW_TAG_TI_branch
    1512                      .dwattr $C$DW$119, DW_AT_low_pc(0x00)
    1513                      .dwattr $C$DW$119, DW_AT_name("FS$$ADD")
    1514                      .dwattr $C$DW$119, DW_AT_TI_call
    1515 00000295 7640!         LCR       #FS$$ADD              ; [CPU_] |110| 
         00000296 0000 
    1516                      ; call occurs [#FS$$ADD] ; [] |110| 
    1517 00000297       $C$L4:    
    1518                      .dwpsn  file "C:/ti/motorware/motorware_1_01_00_18/sw/modules/user/src/32b/user.c",line 926,column 3,
    1519 00000297 1E42          MOVL      *-SP[2],ACC           ; [CPU_] |926| 
    1520 00000298 9A00          MOV       AL,#0                 ; [CPU_] |926| 
    1521 00000299 28A8          MOV       AH,#16384             ; [CPU_] |926| 
         0000029a 4000 
    1522              $C$DW$120       .dwtag  DW_TAG_TI_branch
    1523                      .dwattr $C$DW$120, DW_AT_low_pc(0x00)
    1524                      .dwattr $C$DW$120, DW_AT_name("_pow")
    1525                      .dwattr $C$DW$120, DW_AT_TI_call
    1526 0000029b 7640!         LCR       #_pow                 ; [CPU_] |926| 
         0000029c 0000 
    1527                      ; call occurs [#_pow] ; [] |926| 
    1528 0000029d 1EA6          MOVL      XAR6,ACC              ; [CPU_] |926| 
    1529 0000029e 28A9          MOV       AL,#37815             ; [CPU_] |926| 
         0000029f 93B7 
    1530 000002a0 28A8          MOV       AH,#16568             ; [CPU_] |926| 
         000002a1 40B8 
    1531 000002a2 1E42          MOVL      *-SP[2],ACC           ; [CPU_] |926| 
    1532 000002a3 06A6          MOVL      ACC,XAR6              ; [CPU_] |926| 
    1533              $C$DW$121       .dwtag  DW_TAG_TI_branch
    1534                      .dwattr $C$DW$121, DW_AT_low_pc(0x00)
    1535                      .dwattr $C$DW$121, DW_AT_name("FS$$MPY")
    1536                      .dwattr $C$DW$121, DW_AT_TI_call
    1537 000002a4 7640!         LCR       #FS$$MPY              ; [CPU_] |926| 
         000002a5 0000 
    1538                      ; call occurs [#FS$$MPY] ; [] |926| 
    1539 000002a6 88AD          MOVZ      AR6,SP                ; [CPU_U] |926| 
    1540 000002a7 DE8C          SUBB      XAR6,#12              ; [CPU_U] |926| 
    1541              $C$DW$122       .dwtag  DW_TAG_TI_branch
    1542                      .dwattr $C$DW$122, DW_AT_low_pc(0x00)
    1543                      .dwattr $C$DW$122, DW_AT_name("FS$$TOFD")
    1544                      .dwattr $C$DW$122, DW_AT_TI_call
    1545 000002a8 7640!         LCR       #FS$$TOFD             ; [CPU_] |926| 
         000002a9 0000 
    1546                      ; call occurs [#FS$$TOFD] ; [] |926| 
    1547 000002aa 5CAD          MOVZ      AR4,SP                ; [CPU_U] |926| 
    1548 000002ab 88AD          MOVZ      AR6,SP                ; [CPU_U] |926| 
    1549 000002ac 8F40+         MOVL      XAR5,#$C$FL2          ; [CPU_U] |926| 
         000002ad 0004 
    1550 000002ae DC8C          SUBB      XAR4,#12              ; [CPU_U] |926| 
    1551 000002af DE88          SUBB      XAR6,#8               ; [CPU_U] |926| 
TMS320C2000 Assembler PC v6.2.5 Thu Jun 22 15:17:10 2017

Tools Copyright (c) 1996-2014 Texas Instruments Incorporated
C:\Users\wmj\AppData\Local\Temp\1174810                              PAGE   32

    1552              $C$DW$123       .dwtag  DW_TAG_TI_branch
    1553                      .dwattr $C$DW$123, DW_AT_low_pc(0x00)
    1554                      .dwattr $C$DW$123, DW_AT_name("FD$$MPY")
    1555                      .dwattr $C$DW$123, DW_AT_TI_call
    1556 000002b0 7640!         LCR       #FD$$MPY              ; [CPU_] |926| 
         000002b1 0000 
    1557                      ; call occurs [#FD$$MPY] ; [] |926| 
    1558 000002b2 5CAD          MOVZ      AR4,SP                ; [CPU_U] |926| 
    1559 000002b3 DC88          SUBB      XAR4,#8               ; [CPU_U] |926| 
    1560              $C$DW$124       .dwtag  DW_TAG_TI_branch
    1561                      .dwattr $C$DW$124, DW_AT_low_pc(0x00)
    1562                      .dwattr $C$DW$124, DW_AT_name("FD$$TOL")
    1563                      .dwattr $C$DW$124, DW_AT_TI_call
    1564 000002b4 7640!         LCR       #FD$$TOL              ; [CPU_] |926| 
         000002b5 0000 
    1565                      ; call occurs [#FD$$TOL] ; [] |926| 
    1566 000002b6 FE8C          SUBB      SP,#12                ; [CPU_U] 
    1567                      .dwcfi  cfa_offset, -4
    1568 000002b7 8BBE          MOVL      XAR1,*--SP            ; [CPU_] 
    1569                      .dwcfi  cfa_offset, -2
    1570                      .dwcfi  restore_reg, 7
    1571              $C$DW$125       .dwtag  DW_TAG_TI_branch
    1572                      .dwattr $C$DW$125, DW_AT_low_pc(0x00)
    1573                      .dwattr $C$DW$125, DW_AT_TI_return
    1574 000002b8 0006          LRETR     ; [CPU_] 
    1575                      ; return occurs ; [] 
    1576                      .dwattr $C$DW$110, DW_AT_TI_end_file("C:/ti/motorware/motorware_1_01_00_18/sw/modules/user/src/32b/us
    1577                      .dwattr $C$DW$110, DW_AT_TI_end_line(0x39f)
    1578                      .dwattr $C$DW$110, DW_AT_TI_end_column(0x01)
    1579                      .dwendentry
    1580                      .dwendtag $C$DW$110
    1581              
    1582 000002b9               .sect   ".text"
    1583                      .clink
    1584                      .global _USER_computeTorque_Flux_Iq_pu_to_Nm_sf
    1585              
    1586              $C$DW$126       .dwtag  DW_TAG_subprogram, DW_AT_name("USER_computeTorque_Flux_Iq_pu_to_Nm_sf")
    1587                      .dwattr $C$DW$126, DW_AT_low_pc(_USER_computeTorque_Flux_Iq_pu_to_Nm_sf)
    1588                      .dwattr $C$DW$126, DW_AT_high_pc(0x00)
    1589                      .dwattr $C$DW$126, DW_AT_TI_symbol_name("_USER_computeTorque_Flux_Iq_pu_to_Nm_sf")
    1590                      .dwattr $C$DW$126, DW_AT_external
    1591                      .dwattr $C$DW$126, DW_AT_type(*$C$DW$T$20)
    1592                      .dwattr $C$DW$126, DW_AT_TI_begin_file("C:/ti/motorware/motorware_1_01_00_18/sw/modules/user/src/32b/
    1593                      .dwattr $C$DW$126, DW_AT_TI_begin_line(0x3a4)
    1594                      .dwattr $C$DW$126, DW_AT_TI_begin_column(0x05)
    1595                      .dwattr $C$DW$126, DW_AT_TI_max_frame_size(-16)
    1596                      .dwpsn  file "C:/ti/motorware/motorware_1_01_00_18/sw/modules/user/src/32b/user.c",line 933,column 1,
    1597              
    1598                      .dwfde $C$DW$CIE, _USER_computeTorque_Flux_Iq_pu_to_Nm_sf
    1599              
    1600              ;***************************************************************
    1601              ;* FNAME: _USER_computeTorque_Flux_Iq_pu_to_Nm_sf FR SIZE:  14           *
    1602              ;*                                                             *
    1603              ;* FUNCTION ENVIRONMENT                                        *
    1604              ;*                                                             *
TMS320C2000 Assembler PC v6.2.5 Thu Jun 22 15:17:10 2017

Tools Copyright (c) 1996-2014 Texas Instruments Incorporated
C:\Users\wmj\AppData\Local\Temp\1174810                              PAGE   33

    1605              ;* FUNCTION PROPERTIES                                         *
    1606              ;*                            2 Parameter, 10 Auto,  2 SOE     *
    1607              ;***************************************************************
    1608              
    1609              _USER_computeTorque_Flux_Iq_pu_to_Nm_sf:
    1610              ;* AL    assigned to _x
    1611              $C$DW$127       .dwtag  DW_TAG_variable, DW_AT_name("x")
    1612                      .dwattr $C$DW$127, DW_AT_TI_symbol_name("_x")
    1613                      .dwattr $C$DW$127, DW_AT_type(*$C$DW$T$17)
    1614                      .dwattr $C$DW$127, DW_AT_location[DW_OP_reg0]
    1615              $C$DW$128       .dwtag  DW_TAG_variable, DW_AT_name("y")
    1616                      .dwattr $C$DW$128, DW_AT_TI_symbol_name("_y")
    1617                      .dwattr $C$DW$128, DW_AT_type(*$C$DW$T$17)
    1618                      .dwattr $C$DW$128, DW_AT_location[DW_OP_breg20 -4]
    1619              ;* AL    assigned to $O$R1
    1620                      .dwcfi  cfa_offset, -2
    1621                      .dwcfi  save_reg_to_mem, 26, 0
    1622                      .dwcfi  save_reg_to_reg, 78, 26
    1623 000002b9 B2BD          MOVL      *SP++,XAR1            ; [CPU_] 
    1624                      .dwcfi  save_reg_to_mem, 7, 2
    1625                      .dwcfi  cfa_offset, -4
    1626 000002ba FE0C          ADDB      SP,#12                ; [CPU_U] 
    1627                      .dwcfi  cfa_offset, -16
    1628                      .dwpsn  file "C:/ti/motorware/motorware_1_01_00_18/sw/modules/user/src/32b/user.c",line 937,column 18
    1629 000002bb 28A9          MOV       AL,#14538             ; [CPU_] |937| 
         000002bc 38CA 
    1630 000002bd 28A8          MOV       AH,#15949             ; [CPU_] |937| 
         000002be 3E4D 
    1631              $C$DW$129       .dwtag  DW_TAG_TI_branch
    1632                      .dwattr $C$DW$129, DW_AT_low_pc(0x00)
    1633                      .dwattr $C$DW$129, DW_AT_name("_log")
    1634                      .dwattr $C$DW$129, DW_AT_TI_call
    1635 000002bf 7640!         LCR       #_log                 ; [CPU_] |937| 
         000002c0 0000 
    1636                      ; call occurs [#_log] ; [] |937| 
    1637 000002c1 8BA9          MOVL      XAR1,ACC              ; [CPU_] |937| 
    1638 000002c2 9A00          MOV       AL,#0                 ; [CPU_] |937| 
    1639 000002c3 28A8          MOV       AH,#16384             ; [CPU_] |937| 
         000002c4 4000 
    1640              $C$DW$130       .dwtag  DW_TAG_TI_branch
    1641                      .dwattr $C$DW$130, DW_AT_low_pc(0x00)
    1642                      .dwattr $C$DW$130, DW_AT_name("_log")
    1643                      .dwattr $C$DW$130, DW_AT_TI_call
    1644 000002c5 7640!         LCR       #_log                 ; [CPU_] |937| 
         000002c6 0000 
    1645                      ; call occurs [#_log] ; [] |937| 
    1646 000002c7 1E42          MOVL      *-SP[2],ACC           ; [CPU_] |937| 
    1647 000002c8 B2A9          MOVL      ACC,XAR1              ; [CPU_] |937| 
    1648              $C$DW$131       .dwtag  DW_TAG_TI_branch
    1649                      .dwattr $C$DW$131, DW_AT_low_pc(0x00)
    1650                      .dwattr $C$DW$131, DW_AT_name("FS$$DIV")
    1651                      .dwattr $C$DW$131, DW_AT_TI_call
    1652 000002c9 7640!         LCR       #FS$$DIV              ; [CPU_] |937| 
         000002ca 0000 
    1653                      ; call occurs [#FS$$DIV] ; [] |937| 
TMS320C2000 Assembler PC v6.2.5 Thu Jun 22 15:17:10 2017

Tools Copyright (c) 1996-2014 Texas Instruments Incorporated
C:\Users\wmj\AppData\Local\Temp\1174810                              PAGE   34

    1654                      .dwpsn  file "c:/ti/ccsv6/tools/compiler/c2000_6.2.5/include/math.h",line 110,column 45,is_stmt
    1655 000002cb 5CAD          MOVZ      AR4,SP                ; [CPU_U] |110| 
    1656 000002cc DC84          SUBB      XAR4,#4               ; [CPU_U] |110| 
    1657              $C$DW$132       .dwtag  DW_TAG_TI_branch
    1658                      .dwattr $C$DW$132, DW_AT_low_pc(0x00)
    1659                      .dwattr $C$DW$132, DW_AT_name("_modf")
    1660                      .dwattr $C$DW$132, DW_AT_TI_call
    1661 000002cd 7640!         LCR       #_modf                ; [CPU_] |110| 
         000002ce 0000 
    1662                      ; call occurs [#_modf] ; [] |110| 
    1663 000002cf 1EA6          MOVL      XAR6,ACC              ; [CPU_] |110| 
    1664 000002d0 9A00          MOV       AL,#0                 ; [CPU_] |110| 
    1665 000002d1 9B00          MOV       AH,#0                 ; [CPU_] |110| 
    1666 000002d2 1E42          MOVL      *-SP[2],ACC           ; [CPU_] |110| 
    1667 000002d3 06A6          MOVL      ACC,XAR6              ; [CPU_] |110| 
    1668              $C$DW$133       .dwtag  DW_TAG_TI_branch
    1669                      .dwattr $C$DW$133, DW_AT_low_pc(0x00)
    1670                      .dwattr $C$DW$133, DW_AT_name("FS$$CMP")
    1671                      .dwattr $C$DW$133, DW_AT_TI_call
    1672 000002d4 7640!         LCR       #FS$$CMP              ; [CPU_] |110| 
         000002d5 0000 
    1673                      ; call occurs [#FS$$CMP] ; [] |110| 
    1674 000002d6 5200          CMPB      AL,#0                 ; [CPU_] |110| 
    1675 000002d7 6203          B         $C$L5,GT              ; [CPU_] |110| 
    1676                      ; branchcc occurs ; [] |110| 
    1677 000002d8 0644          MOVL      ACC,*-SP[4]           ; [CPU_] |110| 
    1678 000002d9 6F07          B         $C$L6,UNC             ; [CPU_] |110| 
    1679                      ; branch occurs ; [] |110| 
    1680 000002da       $C$L5:    
    1681 000002da FF2F          MOV       ACC,#32512 << 15      ; [CPU_] |110| 
         000002db 7F00 
    1682 000002dc 1E42          MOVL      *-SP[2],ACC           ; [CPU_] |110| 
    1683 000002dd 0644          MOVL      ACC,*-SP[4]           ; [CPU_] |110| 
    1684              $C$DW$134       .dwtag  DW_TAG_TI_branch
    1685                      .dwattr $C$DW$134, DW_AT_low_pc(0x00)
    1686                      .dwattr $C$DW$134, DW_AT_name("FS$$ADD")
    1687                      .dwattr $C$DW$134, DW_AT_TI_call
    1688 000002de 7640!         LCR       #FS$$ADD              ; [CPU_] |110| 
         000002df 0000 
    1689                      ; call occurs [#FS$$ADD] ; [] |110| 
    1690 000002e0       $C$L6:    
    1691                      .dwpsn  file "C:/ti/motorware/motorware_1_01_00_18/sw/modules/user/src/32b/user.c",line 939,column 3,
    1692              $C$DW$135       .dwtag  DW_TAG_TI_branch
    1693                      .dwattr $C$DW$135, DW_AT_low_pc(0x00)
    1694                      .dwattr $C$DW$135, DW_AT_name("FS$$NEG")
    1695                      .dwattr $C$DW$135, DW_AT_TI_call
    1696 000002e0 7640!         LCR       #FS$$NEG              ; [CPU_] |939| 
         000002e1 0000 
    1697                      ; call occurs [#FS$$NEG] ; [] |939| 
    1698 000002e2 1E42          MOVL      *-SP[2],ACC           ; [CPU_] |939| 
    1699 000002e3 9A00          MOV       AL,#0                 ; [CPU_] |939| 
    1700 000002e4 28A8          MOV       AH,#16384             ; [CPU_] |939| 
         000002e5 4000 
    1701              $C$DW$136       .dwtag  DW_TAG_TI_branch
    1702                      .dwattr $C$DW$136, DW_AT_low_pc(0x00)
TMS320C2000 Assembler PC v6.2.5 Thu Jun 22 15:17:10 2017

Tools Copyright (c) 1996-2014 Texas Instruments Incorporated
C:\Users\wmj\AppData\Local\Temp\1174810                              PAGE   35

    1703                      .dwattr $C$DW$136, DW_AT_name("_pow")
    1704                      .dwattr $C$DW$136, DW_AT_TI_call
    1705 000002e6 7640!         LCR       #_pow                 ; [CPU_] |939| 
         000002e7 0000 
    1706                      ; call occurs [#_pow] ; [] |939| 
    1707 000002e8 1EA6          MOVL      XAR6,ACC              ; [CPU_] |939| 
    1708 000002e9 28A9          MOV       AL,#44381             ; [CPU_] |939| 
         000002ea AD5D 
    1709 000002eb 28A8          MOV       AH,#15890             ; [CPU_] |939| 
         000002ec 3E12 
    1710 000002ed 1E42          MOVL      *-SP[2],ACC           ; [CPU_] |939| 
    1711 000002ee 06A6          MOVL      ACC,XAR6              ; [CPU_] |939| 
    1712              $C$DW$137       .dwtag  DW_TAG_TI_branch
    1713                      .dwattr $C$DW$137, DW_AT_low_pc(0x00)
    1714                      .dwattr $C$DW$137, DW_AT_name("FS$$MPY")
    1715                      .dwattr $C$DW$137, DW_AT_TI_call
    1716 000002ef 7640!         LCR       #FS$$MPY              ; [CPU_] |939| 
         000002f0 0000 
    1717                      ; call occurs [#FS$$MPY] ; [] |939| 
    1718 000002f1 88AD          MOVZ      AR6,SP                ; [CPU_U] |939| 
    1719 000002f2 DE8C          SUBB      XAR6,#12              ; [CPU_U] |939| 
    1720              $C$DW$138       .dwtag  DW_TAG_TI_branch
    1721                      .dwattr $C$DW$138, DW_AT_low_pc(0x00)
    1722                      .dwattr $C$DW$138, DW_AT_name("FS$$TOFD")
    1723                      .dwattr $C$DW$138, DW_AT_TI_call
    1724 000002f3 7640!         LCR       #FS$$TOFD             ; [CPU_] |939| 
         000002f4 0000 
    1725                      ; call occurs [#FS$$TOFD] ; [] |939| 
    1726 000002f5 5CAD          MOVZ      AR4,SP                ; [CPU_U] |939| 
    1727 000002f6 88AD          MOVZ      AR6,SP                ; [CPU_U] |939| 
    1728 000002f7 8F40+         MOVL      XAR5,#$C$FL2          ; [CPU_U] |939| 
         000002f8 0004 
    1729 000002f9 DC8C          SUBB      XAR4,#12              ; [CPU_U] |939| 
    1730 000002fa DE88          SUBB      XAR6,#8               ; [CPU_U] |939| 
    1731              $C$DW$139       .dwtag  DW_TAG_TI_branch
    1732                      .dwattr $C$DW$139, DW_AT_low_pc(0x00)
    1733                      .dwattr $C$DW$139, DW_AT_name("FD$$MPY")
    1734                      .dwattr $C$DW$139, DW_AT_TI_call
    1735 000002fb 7640!         LCR       #FD$$MPY              ; [CPU_] |939| 
         000002fc 0000 
    1736                      ; call occurs [#FD$$MPY] ; [] |939| 
    1737 000002fd 5CAD          MOVZ      AR4,SP                ; [CPU_U] |939| 
    1738 000002fe DC88          SUBB      XAR4,#8               ; [CPU_U] |939| 
    1739              $C$DW$140       .dwtag  DW_TAG_TI_branch
    1740                      .dwattr $C$DW$140, DW_AT_low_pc(0x00)
    1741                      .dwattr $C$DW$140, DW_AT_name("FD$$TOL")
    1742                      .dwattr $C$DW$140, DW_AT_TI_call
    1743 000002ff 7640!         LCR       #FD$$TOL              ; [CPU_] |939| 
         00000300 0000 
    1744                      ; call occurs [#FD$$TOL] ; [] |939| 
    1745 00000301 FE8C          SUBB      SP,#12                ; [CPU_U] 
    1746                      .dwcfi  cfa_offset, -4
    1747 00000302 8BBE          MOVL      XAR1,*--SP            ; [CPU_] 
    1748                      .dwcfi  cfa_offset, -2
    1749                      .dwcfi  restore_reg, 7
TMS320C2000 Assembler PC v6.2.5 Thu Jun 22 15:17:10 2017

Tools Copyright (c) 1996-2014 Texas Instruments Incorporated
C:\Users\wmj\AppData\Local\Temp\1174810                              PAGE   36

    1750              $C$DW$141       .dwtag  DW_TAG_TI_branch
    1751                      .dwattr $C$DW$141, DW_AT_low_pc(0x00)
    1752                      .dwattr $C$DW$141, DW_AT_TI_return
    1753 00000303 0006          LRETR     ; [CPU_] 
    1754                      ; return occurs ; [] 
    1755                      .dwattr $C$DW$126, DW_AT_TI_end_file("C:/ti/motorware/motorware_1_01_00_18/sw/modules/user/src/32b/us
    1756                      .dwattr $C$DW$126, DW_AT_TI_end_line(0x3ac)
    1757                      .dwattr $C$DW$126, DW_AT_TI_end_column(0x01)
    1758                      .dwendentry
    1759                      .dwendtag $C$DW$126
    1760              
    1761 00000304               .sect   ".text"
    1762                      .clink
    1763                      .global _USER_computeFlux_pu_to_Wb_sf
    1764              
    1765              $C$DW$142       .dwtag  DW_TAG_subprogram, DW_AT_name("USER_computeFlux_pu_to_Wb_sf")
    1766                      .dwattr $C$DW$142, DW_AT_low_pc(_USER_computeFlux_pu_to_Wb_sf)
    1767                      .dwattr $C$DW$142, DW_AT_high_pc(0x00)
    1768                      .dwattr $C$DW$142, DW_AT_TI_symbol_name("_USER_computeFlux_pu_to_Wb_sf")
    1769                      .dwattr $C$DW$142, DW_AT_external
    1770                      .dwattr $C$DW$142, DW_AT_type(*$C$DW$T$20)
    1771                      .dwattr $C$DW$142, DW_AT_TI_begin_file("C:/ti/motorware/motorware_1_01_00_18/sw/modules/user/src/32b/
    1772                      .dwattr $C$DW$142, DW_AT_TI_begin_line(0x3b1)
    1773                      .dwattr $C$DW$142, DW_AT_TI_begin_column(0x05)
    1774                      .dwattr $C$DW$142, DW_AT_TI_max_frame_size(-16)
    1775                      .dwpsn  file "C:/ti/motorware/motorware_1_01_00_18/sw/modules/user/src/32b/user.c",line 946,column 1,
    1776              
    1777                      .dwfde $C$DW$CIE, _USER_computeFlux_pu_to_Wb_sf
    1778              
    1779              ;***************************************************************
    1780              ;* FNAME: _USER_computeFlux_pu_to_Wb_sf FR SIZE:  14           *
    1781              ;*                                                             *
    1782              ;* FUNCTION ENVIRONMENT                                        *
    1783              ;*                                                             *
    1784              ;* FUNCTION PROPERTIES                                         *
    1785              ;*                            2 Parameter, 10 Auto,  2 SOE     *
    1786              ;***************************************************************
    1787              
    1788              _USER_computeFlux_pu_to_Wb_sf:
    1789              ;* AL    assigned to _x
    1790              $C$DW$143       .dwtag  DW_TAG_variable, DW_AT_name("x")
    1791                      .dwattr $C$DW$143, DW_AT_TI_symbol_name("_x")
    1792                      .dwattr $C$DW$143, DW_AT_type(*$C$DW$T$17)
    1793                      .dwattr $C$DW$143, DW_AT_location[DW_OP_reg0]
    1794              $C$DW$144       .dwtag  DW_TAG_variable, DW_AT_name("y")
    1795                      .dwattr $C$DW$144, DW_AT_TI_symbol_name("_y")
    1796                      .dwattr $C$DW$144, DW_AT_type(*$C$DW$T$17)
    1797                      .dwattr $C$DW$144, DW_AT_location[DW_OP_breg20 -4]
    1798              ;* AL    assigned to $O$R1
    1799                      .dwcfi  cfa_offset, -2
    1800                      .dwcfi  save_reg_to_mem, 26, 0
    1801                      .dwcfi  save_reg_to_reg, 78, 26
    1802 00000304 B2BD          MOVL      *SP++,XAR1            ; [CPU_] 
    1803                      .dwcfi  save_reg_to_mem, 7, 2
    1804                      .dwcfi  cfa_offset, -4
TMS320C2000 Assembler PC v6.2.5 Thu Jun 22 15:17:10 2017

Tools Copyright (c) 1996-2014 Texas Instruments Incorporated
C:\Users\wmj\AppData\Local\Temp\1174810                              PAGE   37

    1805 00000305 FE0C          ADDB      SP,#12                ; [CPU_U] 
    1806                      .dwcfi  cfa_offset, -16
    1807                      .dwpsn  file "C:/ti/motorware/motorware_1_01_00_18/sw/modules/user/src/32b/user.c",line 949,column 18
    1808 00000306 28A9          MOV       AL,#14538             ; [CPU_] |949| 
         00000307 38CA 
    1809 00000308 28A8          MOV       AH,#15949             ; [CPU_] |949| 
         00000309 3E4D 
    1810              $C$DW$145       .dwtag  DW_TAG_TI_branch
    1811                      .dwattr $C$DW$145, DW_AT_low_pc(0x00)
    1812                      .dwattr $C$DW$145, DW_AT_name("_log")
    1813                      .dwattr $C$DW$145, DW_AT_TI_call
    1814 0000030a 7640!         LCR       #_log                 ; [CPU_] |949| 
         0000030b 0000 
    1815                      ; call occurs [#_log] ; [] |949| 
    1816 0000030c 8BA9          MOVL      XAR1,ACC              ; [CPU_] |949| 
    1817 0000030d 9A00          MOV       AL,#0                 ; [CPU_] |949| 
    1818 0000030e 28A8          MOV       AH,#16384             ; [CPU_] |949| 
         0000030f 4000 
    1819              $C$DW$146       .dwtag  DW_TAG_TI_branch
    1820                      .dwattr $C$DW$146, DW_AT_low_pc(0x00)
    1821                      .dwattr $C$DW$146, DW_AT_name("_log")
    1822                      .dwattr $C$DW$146, DW_AT_TI_call
    1823 00000310 7640!         LCR       #_log                 ; [CPU_] |949| 
         00000311 0000 
    1824                      ; call occurs [#_log] ; [] |949| 
    1825 00000312 1E42          MOVL      *-SP[2],ACC           ; [CPU_] |949| 
    1826 00000313 B2A9          MOVL      ACC,XAR1              ; [CPU_] |949| 
    1827              $C$DW$147       .dwtag  DW_TAG_TI_branch
    1828                      .dwattr $C$DW$147, DW_AT_low_pc(0x00)
    1829                      .dwattr $C$DW$147, DW_AT_name("FS$$DIV")
    1830                      .dwattr $C$DW$147, DW_AT_TI_call
    1831 00000314 7640!         LCR       #FS$$DIV              ; [CPU_] |949| 
         00000315 0000 
    1832                      ; call occurs [#FS$$DIV] ; [] |949| 
    1833                      .dwpsn  file "c:/ti/ccsv6/tools/compiler/c2000_6.2.5/include/math.h",line 110,column 45,is_stmt
    1834 00000316 5CAD          MOVZ      AR4,SP                ; [CPU_U] |110| 
    1835 00000317 DC84          SUBB      XAR4,#4               ; [CPU_U] |110| 
    1836              $C$DW$148       .dwtag  DW_TAG_TI_branch
    1837                      .dwattr $C$DW$148, DW_AT_low_pc(0x00)
    1838                      .dwattr $C$DW$148, DW_AT_name("_modf")
    1839                      .dwattr $C$DW$148, DW_AT_TI_call
    1840 00000318 7640!         LCR       #_modf                ; [CPU_] |110| 
         00000319 0000 
    1841                      ; call occurs [#_modf] ; [] |110| 
    1842 0000031a 1EA6          MOVL      XAR6,ACC              ; [CPU_] |110| 
    1843 0000031b 9A00          MOV       AL,#0                 ; [CPU_] |110| 
    1844 0000031c 9B00          MOV       AH,#0                 ; [CPU_] |110| 
    1845 0000031d 1E42          MOVL      *-SP[2],ACC           ; [CPU_] |110| 
    1846 0000031e 06A6          MOVL      ACC,XAR6              ; [CPU_] |110| 
    1847              $C$DW$149       .dwtag  DW_TAG_TI_branch
    1848                      .dwattr $C$DW$149, DW_AT_low_pc(0x00)
    1849                      .dwattr $C$DW$149, DW_AT_name("FS$$CMP")
    1850                      .dwattr $C$DW$149, DW_AT_TI_call
    1851 0000031f 7640!         LCR       #FS$$CMP              ; [CPU_] |110| 
         00000320 0000 
TMS320C2000 Assembler PC v6.2.5 Thu Jun 22 15:17:10 2017

Tools Copyright (c) 1996-2014 Texas Instruments Incorporated
C:\Users\wmj\AppData\Local\Temp\1174810                              PAGE   38

    1852                      ; call occurs [#FS$$CMP] ; [] |110| 
    1853 00000321 5200          CMPB      AL,#0                 ; [CPU_] |110| 
    1854 00000322 6203          B         $C$L7,GT              ; [CPU_] |110| 
    1855                      ; branchcc occurs ; [] |110| 
    1856 00000323 0644          MOVL      ACC,*-SP[4]           ; [CPU_] |110| 
    1857 00000324 6F07          B         $C$L8,UNC             ; [CPU_] |110| 
    1858                      ; branch occurs ; [] |110| 
    1859 00000325       $C$L7:    
    1860 00000325 FF2F          MOV       ACC,#32512 << 15      ; [CPU_] |110| 
         00000326 7F00 
    1861 00000327 1E42          MOVL      *-SP[2],ACC           ; [CPU_] |110| 
    1862 00000328 0644          MOVL      ACC,*-SP[4]           ; [CPU_] |110| 
    1863              $C$DW$150       .dwtag  DW_TAG_TI_branch
    1864                      .dwattr $C$DW$150, DW_AT_low_pc(0x00)
    1865                      .dwattr $C$DW$150, DW_AT_name("FS$$ADD")
    1866                      .dwattr $C$DW$150, DW_AT_TI_call
    1867 00000329 7640!         LCR       #FS$$ADD              ; [CPU_] |110| 
         0000032a 0000 
    1868                      ; call occurs [#FS$$ADD] ; [] |110| 
    1869 0000032b       $C$L8:    
    1870                      .dwpsn  file "C:/ti/motorware/motorware_1_01_00_18/sw/modules/user/src/32b/user.c",line 951,column 3,
    1871              $C$DW$151       .dwtag  DW_TAG_TI_branch
    1872                      .dwattr $C$DW$151, DW_AT_low_pc(0x00)
    1873                      .dwattr $C$DW$151, DW_AT_name("FS$$NEG")
    1874                      .dwattr $C$DW$151, DW_AT_TI_call
    1875 0000032b 7640!         LCR       #FS$$NEG              ; [CPU_] |951| 
         0000032c 0000 
    1876                      ; call occurs [#FS$$NEG] ; [] |951| 
    1877 0000032d 1E42          MOVL      *-SP[2],ACC           ; [CPU_] |951| 
    1878 0000032e 9A00          MOV       AL,#0                 ; [CPU_] |951| 
    1879 0000032f 28A8          MOV       AH,#16384             ; [CPU_] |951| 
         00000330 4000 
    1880              $C$DW$152       .dwtag  DW_TAG_TI_branch
    1881                      .dwattr $C$DW$152, DW_AT_low_pc(0x00)
    1882                      .dwattr $C$DW$152, DW_AT_name("_pow")
    1883                      .dwattr $C$DW$152, DW_AT_TI_call
    1884 00000331 7640!         LCR       #_pow                 ; [CPU_] |951| 
         00000332 0000 
    1885                      ; call occurs [#_pow] ; [] |951| 
    1886 00000333 1EA6          MOVL      XAR6,ACC              ; [CPU_] |951| 
    1887 00000334 28A9          MOV       AL,#29863             ; [CPU_] |951| 
         00000335 74A7 
    1888 00000336 28A8          MOV       AH,#15260             ; [CPU_] |951| 
         00000337 3B9C 
    1889 00000338 1E42          MOVL      *-SP[2],ACC           ; [CPU_] |951| 
    1890 00000339 06A6          MOVL      ACC,XAR6              ; [CPU_] |951| 
    1891              $C$DW$153       .dwtag  DW_TAG_TI_branch
    1892                      .dwattr $C$DW$153, DW_AT_low_pc(0x00)
    1893                      .dwattr $C$DW$153, DW_AT_name("FS$$MPY")
    1894                      .dwattr $C$DW$153, DW_AT_TI_call
    1895 0000033a 7640!         LCR       #FS$$MPY              ; [CPU_] |951| 
         0000033b 0000 
    1896                      ; call occurs [#FS$$MPY] ; [] |951| 
    1897 0000033c 88AD          MOVZ      AR6,SP                ; [CPU_U] |951| 
    1898 0000033d DE8C          SUBB      XAR6,#12              ; [CPU_U] |951| 
TMS320C2000 Assembler PC v6.2.5 Thu Jun 22 15:17:10 2017

Tools Copyright (c) 1996-2014 Texas Instruments Incorporated
C:\Users\wmj\AppData\Local\Temp\1174810                              PAGE   39

    1899              $C$DW$154       .dwtag  DW_TAG_TI_branch
    1900                      .dwattr $C$DW$154, DW_AT_low_pc(0x00)
    1901                      .dwattr $C$DW$154, DW_AT_name("FS$$TOFD")
    1902                      .dwattr $C$DW$154, DW_AT_TI_call
    1903 0000033e 7640!         LCR       #FS$$TOFD             ; [CPU_] |951| 
         0000033f 0000 
    1904                      ; call occurs [#FS$$TOFD] ; [] |951| 
    1905 00000340 5CAD          MOVZ      AR4,SP                ; [CPU_U] |951| 
    1906 00000341 88AD          MOVZ      AR6,SP                ; [CPU_U] |951| 
    1907 00000342 8F40+         MOVL      XAR5,#$C$FL2          ; [CPU_U] |951| 
         00000343 0004 
    1908 00000344 DC8C          SUBB      XAR4,#12              ; [CPU_U] |951| 
    1909 00000345 DE88          SUBB      XAR6,#8               ; [CPU_U] |951| 
    1910              $C$DW$155       .dwtag  DW_TAG_TI_branch
    1911                      .dwattr $C$DW$155, DW_AT_low_pc(0x00)
    1912                      .dwattr $C$DW$155, DW_AT_name("FD$$MPY")
    1913                      .dwattr $C$DW$155, DW_AT_TI_call
    1914 00000346 7640!         LCR       #FD$$MPY              ; [CPU_] |951| 
         00000347 0000 
    1915                      ; call occurs [#FD$$MPY] ; [] |951| 
    1916 00000348 5CAD          MOVZ      AR4,SP                ; [CPU_U] |951| 
    1917 00000349 DC88          SUBB      XAR4,#8               ; [CPU_U] |951| 
    1918              $C$DW$156       .dwtag  DW_TAG_TI_branch
    1919                      .dwattr $C$DW$156, DW_AT_low_pc(0x00)
    1920                      .dwattr $C$DW$156, DW_AT_name("FD$$TOL")
    1921                      .dwattr $C$DW$156, DW_AT_TI_call
    1922 0000034a 7640!         LCR       #FD$$TOL              ; [CPU_] |951| 
         0000034b 0000 
    1923                      ; call occurs [#FD$$TOL] ; [] |951| 
    1924 0000034c FE8C          SUBB      SP,#12                ; [CPU_U] 
    1925                      .dwcfi  cfa_offset, -4
    1926 0000034d 8BBE          MOVL      XAR1,*--SP            ; [CPU_] 
    1927                      .dwcfi  cfa_offset, -2
    1928                      .dwcfi  restore_reg, 7
    1929              $C$DW$157       .dwtag  DW_TAG_TI_branch
    1930                      .dwattr $C$DW$157, DW_AT_low_pc(0x00)
    1931                      .dwattr $C$DW$157, DW_AT_TI_return
    1932 0000034e 0006          LRETR     ; [CPU_] 
    1933                      ; return occurs ; [] 
    1934                      .dwattr $C$DW$142, DW_AT_TI_end_file("C:/ti/motorware/motorware_1_01_00_18/sw/modules/user/src/32b/us
    1935                      .dwattr $C$DW$142, DW_AT_TI_end_line(0x3b8)
    1936                      .dwattr $C$DW$142, DW_AT_TI_end_column(0x01)
    1937                      .dwendentry
    1938                      .dwendtag $C$DW$142
    1939              
    1940 0000034f               .sect   ".text"
    1941                      .clink
    1942                      .global _USER_computeFlux_pu_to_VpHz_sf
    1943              
    1944              $C$DW$158       .dwtag  DW_TAG_subprogram, DW_AT_name("USER_computeFlux_pu_to_VpHz_sf")
    1945                      .dwattr $C$DW$158, DW_AT_low_pc(_USER_computeFlux_pu_to_VpHz_sf)
    1946                      .dwattr $C$DW$158, DW_AT_high_pc(0x00)
    1947                      .dwattr $C$DW$158, DW_AT_TI_symbol_name("_USER_computeFlux_pu_to_VpHz_sf")
    1948                      .dwattr $C$DW$158, DW_AT_external
    1949                      .dwattr $C$DW$158, DW_AT_type(*$C$DW$T$20)
TMS320C2000 Assembler PC v6.2.5 Thu Jun 22 15:17:10 2017

Tools Copyright (c) 1996-2014 Texas Instruments Incorporated
C:\Users\wmj\AppData\Local\Temp\1174810                              PAGE   40

    1950                      .dwattr $C$DW$158, DW_AT_TI_begin_file("C:/ti/motorware/motorware_1_01_00_18/sw/modules/user/src/32b/
    1951                      .dwattr $C$DW$158, DW_AT_TI_begin_line(0x3bd)
    1952                      .dwattr $C$DW$158, DW_AT_TI_begin_column(0x05)
    1953                      .dwattr $C$DW$158, DW_AT_TI_max_frame_size(-16)
    1954                      .dwpsn  file "C:/ti/motorware/motorware_1_01_00_18/sw/modules/user/src/32b/user.c",line 958,column 1,
    1955              
    1956                      .dwfde $C$DW$CIE, _USER_computeFlux_pu_to_VpHz_sf
    1957              
    1958              ;***************************************************************
    1959              ;* FNAME: _USER_computeFlux_pu_to_VpHz_sf FR SIZE:  14           *
    1960              ;*                                                             *
    1961              ;* FUNCTION ENVIRONMENT                                        *
    1962              ;*                                                             *
    1963              ;* FUNCTION PROPERTIES                                         *
    1964              ;*                            2 Parameter, 10 Auto,  2 SOE     *
    1965              ;***************************************************************
    1966              
    1967              _USER_computeFlux_pu_to_VpHz_sf:
    1968              ;* AL    assigned to _x
    1969              $C$DW$159       .dwtag  DW_TAG_variable, DW_AT_name("x")
    1970                      .dwattr $C$DW$159, DW_AT_TI_symbol_name("_x")
    1971                      .dwattr $C$DW$159, DW_AT_type(*$C$DW$T$17)
    1972                      .dwattr $C$DW$159, DW_AT_location[DW_OP_reg0]
    1973              $C$DW$160       .dwtag  DW_TAG_variable, DW_AT_name("y")
    1974                      .dwattr $C$DW$160, DW_AT_TI_symbol_name("_y")
    1975                      .dwattr $C$DW$160, DW_AT_type(*$C$DW$T$17)
    1976                      .dwattr $C$DW$160, DW_AT_location[DW_OP_breg20 -4]
    1977              ;* AL    assigned to $O$R1
    1978                      .dwcfi  cfa_offset, -2
    1979                      .dwcfi  save_reg_to_mem, 26, 0
    1980                      .dwcfi  save_reg_to_reg, 78, 26
    1981 0000034f B2BD          MOVL      *SP++,XAR1            ; [CPU_] 
    1982                      .dwcfi  save_reg_to_mem, 7, 2
    1983                      .dwcfi  cfa_offset, -4
    1984 00000350 FE0C          ADDB      SP,#12                ; [CPU_U] 
    1985                      .dwcfi  cfa_offset, -16
    1986                      .dwpsn  file "C:/ti/motorware/motorware_1_01_00_18/sw/modules/user/src/32b/user.c",line 961,column 18
    1987 00000351 28A9          MOV       AL,#14538             ; [CPU_] |961| 
         00000352 38CA 
    1988 00000353 28A8          MOV       AH,#15949             ; [CPU_] |961| 
         00000354 3E4D 
    1989              $C$DW$161       .dwtag  DW_TAG_TI_branch
    1990                      .dwattr $C$DW$161, DW_AT_low_pc(0x00)
    1991                      .dwattr $C$DW$161, DW_AT_name("_log")
    1992                      .dwattr $C$DW$161, DW_AT_TI_call
    1993 00000355 7640!         LCR       #_log                 ; [CPU_] |961| 
         00000356 0000 
    1994                      ; call occurs [#_log] ; [] |961| 
    1995 00000357 8BA9          MOVL      XAR1,ACC              ; [CPU_] |961| 
    1996 00000358 9A00          MOV       AL,#0                 ; [CPU_] |961| 
    1997 00000359 28A8          MOV       AH,#16384             ; [CPU_] |961| 
         0000035a 4000 
    1998              $C$DW$162       .dwtag  DW_TAG_TI_branch
    1999                      .dwattr $C$DW$162, DW_AT_low_pc(0x00)
    2000                      .dwattr $C$DW$162, DW_AT_name("_log")
TMS320C2000 Assembler PC v6.2.5 Thu Jun 22 15:17:10 2017

Tools Copyright (c) 1996-2014 Texas Instruments Incorporated
C:\Users\wmj\AppData\Local\Temp\1174810                              PAGE   41

    2001                      .dwattr $C$DW$162, DW_AT_TI_call
    2002 0000035b 7640!         LCR       #_log                 ; [CPU_] |961| 
         0000035c 0000 
    2003                      ; call occurs [#_log] ; [] |961| 
    2004 0000035d 1E42          MOVL      *-SP[2],ACC           ; [CPU_] |961| 
    2005 0000035e B2A9          MOVL      ACC,XAR1              ; [CPU_] |961| 
    2006              $C$DW$163       .dwtag  DW_TAG_TI_branch
    2007                      .dwattr $C$DW$163, DW_AT_low_pc(0x00)
    2008                      .dwattr $C$DW$163, DW_AT_name("FS$$DIV")
    2009                      .dwattr $C$DW$163, DW_AT_TI_call
    2010 0000035f 7640!         LCR       #FS$$DIV              ; [CPU_] |961| 
         00000360 0000 
    2011                      ; call occurs [#FS$$DIV] ; [] |961| 
    2012                      .dwpsn  file "c:/ti/ccsv6/tools/compiler/c2000_6.2.5/include/math.h",line 110,column 45,is_stmt
    2013 00000361 5CAD          MOVZ      AR4,SP                ; [CPU_U] |110| 
    2014 00000362 DC84          SUBB      XAR4,#4               ; [CPU_U] |110| 
    2015              $C$DW$164       .dwtag  DW_TAG_TI_branch
    2016                      .dwattr $C$DW$164, DW_AT_low_pc(0x00)
    2017                      .dwattr $C$DW$164, DW_AT_name("_modf")
    2018                      .dwattr $C$DW$164, DW_AT_TI_call
    2019 00000363 7640!         LCR       #_modf                ; [CPU_] |110| 
         00000364 0000 
    2020                      ; call occurs [#_modf] ; [] |110| 
    2021 00000365 1EA6          MOVL      XAR6,ACC              ; [CPU_] |110| 
    2022 00000366 9A00          MOV       AL,#0                 ; [CPU_] |110| 
    2023 00000367 9B00          MOV       AH,#0                 ; [CPU_] |110| 
    2024 00000368 1E42          MOVL      *-SP[2],ACC           ; [CPU_] |110| 
    2025 00000369 06A6          MOVL      ACC,XAR6              ; [CPU_] |110| 
    2026              $C$DW$165       .dwtag  DW_TAG_TI_branch
    2027                      .dwattr $C$DW$165, DW_AT_low_pc(0x00)
    2028                      .dwattr $C$DW$165, DW_AT_name("FS$$CMP")
    2029                      .dwattr $C$DW$165, DW_AT_TI_call
    2030 0000036a 7640!         LCR       #FS$$CMP              ; [CPU_] |110| 
         0000036b 0000 
    2031                      ; call occurs [#FS$$CMP] ; [] |110| 
    2032 0000036c 5200          CMPB      AL,#0                 ; [CPU_] |110| 
    2033 0000036d 6203          B         $C$L9,GT              ; [CPU_] |110| 
    2034                      ; branchcc occurs ; [] |110| 
    2035 0000036e 0644          MOVL      ACC,*-SP[4]           ; [CPU_] |110| 
    2036 0000036f 6F07          B         $C$L10,UNC            ; [CPU_] |110| 
    2037                      ; branch occurs ; [] |110| 
    2038 00000370       $C$L9:    
    2039 00000370 FF2F          MOV       ACC,#32512 << 15      ; [CPU_] |110| 
         00000371 7F00 
    2040 00000372 1E42          MOVL      *-SP[2],ACC           ; [CPU_] |110| 
    2041 00000373 0644          MOVL      ACC,*-SP[4]           ; [CPU_] |110| 
    2042              $C$DW$166       .dwtag  DW_TAG_TI_branch
    2043                      .dwattr $C$DW$166, DW_AT_low_pc(0x00)
    2044                      .dwattr $C$DW$166, DW_AT_name("FS$$ADD")
    2045                      .dwattr $C$DW$166, DW_AT_TI_call
    2046 00000374 7640!         LCR       #FS$$ADD              ; [CPU_] |110| 
         00000375 0000 
    2047                      ; call occurs [#FS$$ADD] ; [] |110| 
    2048 00000376       $C$L10:    
    2049                      .dwpsn  file "C:/ti/motorware/motorware_1_01_00_18/sw/modules/user/src/32b/user.c",line 963,column 3,
TMS320C2000 Assembler PC v6.2.5 Thu Jun 22 15:17:10 2017

Tools Copyright (c) 1996-2014 Texas Instruments Incorporated
C:\Users\wmj\AppData\Local\Temp\1174810                              PAGE   42

    2050              $C$DW$167       .dwtag  DW_TAG_TI_branch
    2051                      .dwattr $C$DW$167, DW_AT_low_pc(0x00)
    2052                      .dwattr $C$DW$167, DW_AT_name("FS$$NEG")
    2053                      .dwattr $C$DW$167, DW_AT_TI_call
    2054 00000376 7640!         LCR       #FS$$NEG              ; [CPU_] |963| 
         00000377 0000 
    2055                      ; call occurs [#FS$$NEG] ; [] |963| 
    2056 00000378 1E42          MOVL      *-SP[2],ACC           ; [CPU_] |963| 
    2057 00000379 9A00          MOV       AL,#0                 ; [CPU_] |963| 
    2058 0000037a 28A8          MOV       AH,#16384             ; [CPU_] |963| 
         0000037b 4000 
    2059              $C$DW$168       .dwtag  DW_TAG_TI_branch
    2060                      .dwattr $C$DW$168, DW_AT_low_pc(0x00)
    2061                      .dwattr $C$DW$168, DW_AT_name("_pow")
    2062                      .dwattr $C$DW$168, DW_AT_TI_call
    2063 0000037c 7640!         LCR       #_pow                 ; [CPU_] |963| 
         0000037d 0000 
    2064                      ; call occurs [#_pow] ; [] |963| 
    2065 0000037e 1EA6          MOVL      XAR6,ACC              ; [CPU_] |963| 
    2066 0000037f 28A9          MOV       AL,#49807             ; [CPU_] |963| 
         00000380 C28F 
    2067 00000381 28A8          MOV       AH,#15605             ; [CPU_] |963| 
         00000382 3CF5 
    2068 00000383 1E42          MOVL      *-SP[2],ACC           ; [CPU_] |963| 
    2069 00000384 06A6          MOVL      ACC,XAR6              ; [CPU_] |963| 
    2070              $C$DW$169       .dwtag  DW_TAG_TI_branch
    2071                      .dwattr $C$DW$169, DW_AT_low_pc(0x00)
    2072                      .dwattr $C$DW$169, DW_AT_name("FS$$MPY")
    2073                      .dwattr $C$DW$169, DW_AT_TI_call
    2074 00000385 7640!         LCR       #FS$$MPY              ; [CPU_] |963| 
         00000386 0000 
    2075                      ; call occurs [#FS$$MPY] ; [] |963| 
    2076 00000387 88AD          MOVZ      AR6,SP                ; [CPU_U] |963| 
    2077 00000388 DE8C          SUBB      XAR6,#12              ; [CPU_U] |963| 
    2078              $C$DW$170       .dwtag  DW_TAG_TI_branch
    2079                      .dwattr $C$DW$170, DW_AT_low_pc(0x00)
    2080                      .dwattr $C$DW$170, DW_AT_name("FS$$TOFD")
    2081                      .dwattr $C$DW$170, DW_AT_TI_call
    2082 00000389 7640!         LCR       #FS$$TOFD             ; [CPU_] |963| 
         0000038a 0000 
    2083                      ; call occurs [#FS$$TOFD] ; [] |963| 
    2084 0000038b 5CAD          MOVZ      AR4,SP                ; [CPU_U] |963| 
    2085 0000038c 88AD          MOVZ      AR6,SP                ; [CPU_U] |963| 
    2086 0000038d 8F40+         MOVL      XAR5,#$C$FL2          ; [CPU_U] |963| 
         0000038e 0004 
    2087 0000038f DC8C          SUBB      XAR4,#12              ; [CPU_U] |963| 
    2088 00000390 DE88          SUBB      XAR6,#8               ; [CPU_U] |963| 
    2089              $C$DW$171       .dwtag  DW_TAG_TI_branch
    2090                      .dwattr $C$DW$171, DW_AT_low_pc(0x00)
    2091                      .dwattr $C$DW$171, DW_AT_name("FD$$MPY")
    2092                      .dwattr $C$DW$171, DW_AT_TI_call
    2093 00000391 7640!         LCR       #FD$$MPY              ; [CPU_] |963| 
         00000392 0000 
    2094                      ; call occurs [#FD$$MPY] ; [] |963| 
    2095 00000393 5CAD          MOVZ      AR4,SP                ; [CPU_U] |963| 
TMS320C2000 Assembler PC v6.2.5 Thu Jun 22 15:17:10 2017

Tools Copyright (c) 1996-2014 Texas Instruments Incorporated
C:\Users\wmj\AppData\Local\Temp\1174810                              PAGE   43

    2096 00000394 DC88          SUBB      XAR4,#8               ; [CPU_U] |963| 
    2097              $C$DW$172       .dwtag  DW_TAG_TI_branch
    2098                      .dwattr $C$DW$172, DW_AT_low_pc(0x00)
    2099                      .dwattr $C$DW$172, DW_AT_name("FD$$TOL")
    2100                      .dwattr $C$DW$172, DW_AT_TI_call
    2101 00000395 7640!         LCR       #FD$$TOL              ; [CPU_] |963| 
         00000396 0000 
    2102                      ; call occurs [#FD$$TOL] ; [] |963| 
    2103 00000397 FE8C          SUBB      SP,#12                ; [CPU_U] 
    2104                      .dwcfi  cfa_offset, -4
    2105 00000398 8BBE          MOVL      XAR1,*--SP            ; [CPU_] 
    2106                      .dwcfi  cfa_offset, -2
    2107                      .dwcfi  restore_reg, 7
    2108              $C$DW$173       .dwtag  DW_TAG_TI_branch
    2109                      .dwattr $C$DW$173, DW_AT_low_pc(0x00)
    2110                      .dwattr $C$DW$173, DW_AT_TI_return
    2111 00000399 0006          LRETR     ; [CPU_] 
    2112                      ; return occurs ; [] 
    2113                      .dwattr $C$DW$158, DW_AT_TI_end_file("C:/ti/motorware/motorware_1_01_00_18/sw/modules/user/src/32b/us
    2114                      .dwattr $C$DW$158, DW_AT_TI_end_line(0x3c4)
    2115                      .dwattr $C$DW$158, DW_AT_TI_end_column(0x01)
    2116                      .dwendentry
    2117                      .dwendtag $C$DW$158
    2118              
    2119 0000039a               .sect   ".text"
    2120                      .clink
    2121                      .global _USER_computeFlux
    2122              
    2123              $C$DW$174       .dwtag  DW_TAG_subprogram, DW_AT_name("USER_computeFlux")
    2124                      .dwattr $C$DW$174, DW_AT_low_pc(_USER_computeFlux)
    2125                      .dwattr $C$DW$174, DW_AT_high_pc(0x00)
    2126                      .dwattr $C$DW$174, DW_AT_TI_symbol_name("_USER_computeFlux")
    2127                      .dwattr $C$DW$174, DW_AT_external
    2128                      .dwattr $C$DW$174, DW_AT_type(*$C$DW$T$20)
    2129                      .dwattr $C$DW$174, DW_AT_TI_begin_file("C:/ti/motorware/motorware_1_01_00_18/sw/modules/user/src/32b/
    2130                      .dwattr $C$DW$174, DW_AT_TI_begin_line(0x3c9)
    2131                      .dwattr $C$DW$174, DW_AT_TI_begin_column(0x05)
    2132                      .dwattr $C$DW$174, DW_AT_TI_max_frame_size(-4)
    2133                      .dwpsn  file "C:/ti/motorware/motorware_1_01_00_18/sw/modules/user/src/32b/user.c",line 970,column 1,
    2134              
    2135                      .dwfde $C$DW$CIE, _USER_computeFlux
    2136              $C$DW$175       .dwtag  DW_TAG_formal_parameter, DW_AT_name("handle")
    2137                      .dwattr $C$DW$175, DW_AT_TI_symbol_name("_handle")
    2138                      .dwattr $C$DW$175, DW_AT_type(*$C$DW$T$84)
    2139                      .dwattr $C$DW$175, DW_AT_location[DW_OP_reg12]
    2140              $C$DW$176       .dwtag  DW_TAG_formal_parameter, DW_AT_name("sf")
    2141                      .dwattr $C$DW$176, DW_AT_TI_symbol_name("_sf")
    2142                      .dwattr $C$DW$176, DW_AT_type(*$C$DW$T$90)
    2143                      .dwattr $C$DW$176, DW_AT_location[DW_OP_reg0]
    2144              
    2145              ;***************************************************************
    2146              ;* FNAME: _USER_computeFlux             FR SIZE:   2           *
    2147              ;*                                                             *
    2148              ;* FUNCTION ENVIRONMENT                                        *
    2149              ;*                                                             *
TMS320C2000 Assembler PC v6.2.5 Thu Jun 22 15:17:10 2017

Tools Copyright (c) 1996-2014 Texas Instruments Incorporated
C:\Users\wmj\AppData\Local\Temp\1174810                              PAGE   44

    2150              ;* FUNCTION PROPERTIES                                         *
    2151              ;*                            0 Parameter,  0 Auto,  2 SOE     *
    2152              ;***************************************************************
    2153              
    2154              _USER_computeFlux:
    2155              ;* AR4   assigned to _handle
    2156              $C$DW$177       .dwtag  DW_TAG_variable, DW_AT_name("handle")
    2157                      .dwattr $C$DW$177, DW_AT_TI_symbol_name("_handle")
    2158                      .dwattr $C$DW$177, DW_AT_type(*$C$DW$T$85)
    2159                      .dwattr $C$DW$177, DW_AT_location[DW_OP_reg12]
    2160              ;* AR1   assigned to _sf
    2161              $C$DW$178       .dwtag  DW_TAG_variable, DW_AT_name("sf")
    2162                      .dwattr $C$DW$178, DW_AT_TI_symbol_name("_sf")
    2163                      .dwattr $C$DW$178, DW_AT_type(*$C$DW$T$90)
    2164                      .dwattr $C$DW$178, DW_AT_location[DW_OP_reg6]
    2165                      .dwcfi  cfa_offset, -2
    2166                      .dwcfi  save_reg_to_mem, 26, 0
    2167                      .dwcfi  save_reg_to_reg, 78, 26
    2168 0000039a B2BD          MOVL      *SP++,XAR1            ; [CPU_] 
    2169                      .dwcfi  save_reg_to_mem, 7, 2
    2170                      .dwcfi  cfa_offset, -4
    2171                      .dwpsn  file "C:/ti/motorware/motorware_1_01_00_18/sw/modules/user/src/32b/user.c",line 973,column 3,
    2172 0000039b D018          MOVB      XAR0,#24              ; [CPU_] |973| 
    2173                      .dwpsn  file "C:/ti/motorware/motorware_1_01_00_18/sw/modules/user/src/32b/user.c",line 970,column 1,
    2174 0000039c 8BA9          MOVL      XAR1,ACC              ; [CPU_] |970| 
    2175                      .dwpsn  file "C:/ti/motorware/motorware_1_01_00_18/sw/modules/user/src/32b/user.c",line 973,column 3,
    2176 0000039d 8A94          MOVL      XAR4,*+XAR4[AR0]      ; [CPU_] |973| 
    2177              $C$DW$179       .dwtag  DW_TAG_TI_branch
    2178                      .dwattr $C$DW$179, DW_AT_low_pc(0x00)
    2179                      .dwattr $C$DW$179, DW_AT_name("_EST_getFlux_pu")
    2180                      .dwattr $C$DW$179, DW_AT_TI_call
    2181 0000039e 7640!         LCR       #_EST_getFlux_pu      ; [CPU_] |973| 
         0000039f 0000 
    2182                      ; call occurs [#_EST_getFlux_pu] ; [] |973| 
    2183 000003a0 1EAC          MOVL      XT,ACC                ; [CPU_] |973| 
    2184 000003a1 5605          IMPYL     P,XT,XAR1             ; [CPU_] |973| 
         000003a2 00A1 
    2185 000003a3 5663          QMPYL     ACC,XT,XAR1           ; [CPU_] |973| 
         000003a4 00A1 
    2186 000003a5 8BBE          MOVL      XAR1,*--SP            ; [CPU_] 
    2187                      .dwcfi  cfa_offset, -2
    2188                      .dwcfi  restore_reg, 7
    2189 000003a6 56A7          LSL64     ACC:P,#8              ; [CPU_] |973| 
    2190              $C$DW$180       .dwtag  DW_TAG_TI_branch
    2191                      .dwattr $C$DW$180, DW_AT_low_pc(0x00)
    2192                      .dwattr $C$DW$180, DW_AT_TI_return
    2193 000003a7 0006          LRETR     ; [CPU_] 
    2194                      ; return occurs ; [] 
    2195                      .dwattr $C$DW$174, DW_AT_TI_end_file("C:/ti/motorware/motorware_1_01_00_18/sw/modules/user/src/32b/us
    2196                      .dwattr $C$DW$174, DW_AT_TI_end_line(0x3ce)
    2197                      .dwattr $C$DW$174, DW_AT_TI_end_column(0x01)
    2198                      .dwendentry
    2199                      .dwendtag $C$DW$174
    2200              
    2201 000003a8               .sect   ".text"
TMS320C2000 Assembler PC v6.2.5 Thu Jun 22 15:17:10 2017

Tools Copyright (c) 1996-2014 Texas Instruments Incorporated
C:\Users\wmj\AppData\Local\Temp\1174810                              PAGE   45

    2202                      .clink
    2203                      .global _USER_checkForErrors
    2204              
    2205              $C$DW$181       .dwtag  DW_TAG_subprogram, DW_AT_name("USER_checkForErrors")
    2206                      .dwattr $C$DW$181, DW_AT_low_pc(_USER_checkForErrors)
    2207                      .dwattr $C$DW$181, DW_AT_high_pc(0x00)
    2208                      .dwattr $C$DW$181, DW_AT_TI_symbol_name("_USER_checkForErrors")
    2209                      .dwattr $C$DW$181, DW_AT_external
    2210                      .dwattr $C$DW$181, DW_AT_TI_begin_file("C:/ti/motorware/motorware_1_01_00_18/sw/modules/user/src/32b/
    2211                      .dwattr $C$DW$181, DW_AT_TI_begin_line(0xc5)
    2212                      .dwattr $C$DW$181, DW_AT_TI_begin_column(0x06)
    2213                      .dwattr $C$DW$181, DW_AT_TI_max_frame_size(-2)
    2214                      .dwpsn  file "C:/ti/motorware/motorware_1_01_00_18/sw/modules/user/src/32b/user.c",line 198,column 1,
    2215              
    2216                      .dwfde $C$DW$CIE, _USER_checkForErrors
    2217              $C$DW$182       .dwtag  DW_TAG_formal_parameter, DW_AT_name("pUserParams")
    2218                      .dwattr $C$DW$182, DW_AT_TI_symbol_name("_pUserParams")
    2219                      .dwattr $C$DW$182, DW_AT_type(*$C$DW$T$79)
    2220                      .dwattr $C$DW$182, DW_AT_location[DW_OP_reg12]
    2221              
    2222              ;***************************************************************
    2223              ;* FNAME: _USER_checkForErrors          FR SIZE:   0           *
    2224              ;*                                                             *
    2225              ;* FUNCTION ENVIRONMENT                                        *
    2226              ;*                                                             *
    2227              ;* FUNCTION PROPERTIES                                         *
    2228              ;*                            0 Parameter,  0 Auto,  0 SOE     *
    2229              ;***************************************************************
    2230              
    2231              _USER_checkForErrors:
    2232              ;* AR4   assigned to _pUserParams
    2233              $C$DW$183       .dwtag  DW_TAG_variable, DW_AT_name("pUserParams")
    2234                      .dwattr $C$DW$183, DW_AT_TI_symbol_name("_pUserParams")
    2235                      .dwattr $C$DW$183, DW_AT_type(*$C$DW$T$87)
    2236                      .dwattr $C$DW$183, DW_AT_location[DW_OP_reg12]
    2237                      .dwcfi  cfa_offset, -2
    2238                      .dwcfi  save_reg_to_mem, 26, 0
    2239                      .dwcfi  save_reg_to_reg, 78, 26
    2240                      .dwpsn  file "C:/ti/motorware/motorware_1_01_00_18/sw/modules/user/src/32b/user.c",line 199,column 3,
    2241 000003a8 9A00          MOVB      AL,#0                 ; [CPU_] |199| 
    2242              $C$DW$184       .dwtag  DW_TAG_TI_branch
    2243                      .dwattr $C$DW$184, DW_AT_low_pc(0x00)
    2244                      .dwattr $C$DW$184, DW_AT_name("_USER_setErrorCode")
    2245                      .dwattr $C$DW$184, DW_AT_TI_call
    2246 000003a9 7640'         LCR       #_USER_setErrorCode   ; [CPU_] |199| 
         000003aa 01C7 
    2247                      ; call occurs [#_USER_setErrorCode] ; [] |199| 
    2248              $C$DW$185       .dwtag  DW_TAG_TI_branch
    2249                      .dwattr $C$DW$185, DW_AT_low_pc(0x00)
    2250                      .dwattr $C$DW$185, DW_AT_TI_return
    2251 000003ab 0006          LRETR     ; [CPU_] 
    2252                      ; return occurs ; [] 
    2253                      .dwattr $C$DW$181, DW_AT_TI_end_file("C:/ti/motorware/motorware_1_01_00_18/sw/modules/user/src/32b/us
    2254                      .dwattr $C$DW$181, DW_AT_TI_end_line(0x332)
    2255                      .dwattr $C$DW$181, DW_AT_TI_end_column(0x01)
TMS320C2000 Assembler PC v6.2.5 Thu Jun 22 15:17:10 2017

Tools Copyright (c) 1996-2014 Texas Instruments Incorporated
C:\Users\wmj\AppData\Local\Temp\1174810                              PAGE   46

    2256                      .dwendentry
    2257                      .dwendtag $C$DW$181
    2258              
    2259              ;***************************************************************
    2260              ;* FLOATING-POINT CONSTANTS                                    *
    2261              ;***************************************************************
    2262 00000000               .sect   ".econst"
    2263                      .align  2
    2264 00000000 0000  $C$FL1: .xldouble       $strtod("0x1p+30")
         00000001 0000 
         00000002 0000 
         00000003 41D0 
    2265                      .align  2
    2266 00000004 0000  $C$FL2: .xldouble       $strtod("0x1p+24")
         00000005 0000 
         00000006 0000 
         00000007 4170 
    2267              ;**************************************************************
    2268              ;* UNDEFINED EXTERNAL REFERENCES                              *
    2269              ;**************************************************************
    2270                      .global _EST_setLs_d_pu
    2271                      .global _EST_setLs_q_pu
    2272                      .global _EST_setLs_qFmt
    2273                      .global _pow
    2274                      .global __IQ30toF
    2275                      .global _log
    2276                      .global _modf
    2277                      .global _EST_getLs_coarse_max_pu
    2278                      .global _EST_getLs_d_pu
    2279                      .global _EST_getLs_q_pu
    2280                      .global _EST_getFlux_pu
    2281                      .global FS$$MPY
    2282                      .global FS$$DIV
    2283                      .global I$$TOFS
    2284                      .global FD$$MPY
    2285                      .global FS$$TOFD
    2286                      .global FS$$CMP
    2287                      .global FS$$ADD
    2288                      .global FS$$TOI
    2289                      .global FD$$TOL
    2290                      .global FS$$NEG
    2291              
    2292              ;***************************************************************
    2293              ;* TYPE INFORMATION                                            *
    2294              ;***************************************************************
    2295              
    2296              $C$DW$T$25      .dwtag  DW_TAG_enumeration_type
    2297                      .dwattr $C$DW$T$25, DW_AT_byte_size(0x01)
    2298              $C$DW$186       .dwtag  DW_TAG_enumerator, DW_AT_name("CTRL_State_Error"), DW_AT_const_value(0x00)
    2299              $C$DW$187       .dwtag  DW_TAG_enumerator, DW_AT_name("CTRL_State_Idle"), DW_AT_const_value(0x01)
    2300              $C$DW$188       .dwtag  DW_TAG_enumerator, DW_AT_name("CTRL_State_OffLine"), DW_AT_const_value(0x02)
    2301              $C$DW$189       .dwtag  DW_TAG_enumerator, DW_AT_name("CTRL_State_OnLine"), DW_AT_const_value(0x03)
    2302              $C$DW$190       .dwtag  DW_TAG_enumerator, DW_AT_name("CTRL_numStates"), DW_AT_const_value(0x04)
    2303                      .dwendtag $C$DW$T$25
    2304              
TMS320C2000 Assembler PC v6.2.5 Thu Jun 22 15:17:10 2017

Tools Copyright (c) 1996-2014 Texas Instruments Incorporated
C:\Users\wmj\AppData\Local\Temp\1174810                              PAGE   47

    2305              $C$DW$T$26      .dwtag  DW_TAG_typedef, DW_AT_name("CTRL_State_e")
    2306                      .dwattr $C$DW$T$26, DW_AT_type(*$C$DW$T$25)
    2307                      .dwattr $C$DW$T$26, DW_AT_language(DW_LANG_C)
    2308              
    2309              $C$DW$T$27      .dwtag  DW_TAG_enumeration_type
    2310                      .dwattr $C$DW$T$27, DW_AT_byte_size(0x01)
    2311              $C$DW$191       .dwtag  DW_TAG_enumerator, DW_AT_name("CTRL_ErrorCode_NoError"), DW_AT_const_value(0x00)
    2312              $C$DW$192       .dwtag  DW_TAG_enumerator, DW_AT_name("CTRL_ErrorCode_IdClip"), DW_AT_const_value(0x01)
    2313              $C$DW$193       .dwtag  DW_TAG_enumerator, DW_AT_name("CTRL_ErrorCode_EstError"), DW_AT_const_value(0x02)
    2314              $C$DW$194       .dwtag  DW_TAG_enumerator, DW_AT_name("CTRL_numErrorCodes"), DW_AT_const_value(0x03)
    2315                      .dwendtag $C$DW$T$27
    2316              
    2317              $C$DW$T$28      .dwtag  DW_TAG_typedef, DW_AT_name("CTRL_ErrorCode_e")
    2318                      .dwattr $C$DW$T$28, DW_AT_type(*$C$DW$T$27)
    2319                      .dwattr $C$DW$T$28, DW_AT_language(DW_LANG_C)
    2320              
    2321              $C$DW$T$58      .dwtag  DW_TAG_enumeration_type
    2322                      .dwattr $C$DW$T$58, DW_AT_byte_size(0x01)
    2323              $C$DW$195       .dwtag  DW_TAG_enumerator, DW_AT_name("CTRL_TargetProc_2806x"), DW_AT_const_value(0x00)
    2324              $C$DW$196       .dwtag  DW_TAG_enumerator, DW_AT_name("CTRL_TargetProc_2805x"), DW_AT_const_value(0x01)
    2325              $C$DW$197       .dwtag  DW_TAG_enumerator, DW_AT_name("CTRL_TargetProc_2803x"), DW_AT_const_value(0x02)
    2326              $C$DW$198       .dwtag  DW_TAG_enumerator, DW_AT_name("CTRL_TargetProc_2802x"), DW_AT_const_value(0x03)
    2327              $C$DW$199       .dwtag  DW_TAG_enumerator, DW_AT_name("CTRL_TargetProc_Unknown"), DW_AT_const_value(0x04)
    2328                      .dwendtag $C$DW$T$58
    2329              
    2330              $C$DW$T$59      .dwtag  DW_TAG_typedef, DW_AT_name("CTRL_TargetProc_e")
    2331                      .dwattr $C$DW$T$59, DW_AT_type(*$C$DW$T$58)
    2332                      .dwattr $C$DW$T$59, DW_AT_language(DW_LANG_C)
    2333              
    2334              $C$DW$T$64      .dwtag  DW_TAG_enumeration_type
    2335                      .dwattr $C$DW$T$64, DW_AT_byte_size(0x01)
    2336              $C$DW$200       .dwtag  DW_TAG_enumerator, DW_AT_name("MOTOR_Type_Induction"), DW_AT_const_value(0x00)
    2337              $C$DW$201       .dwtag  DW_TAG_enumerator, DW_AT_name("MOTOR_Type_Pm"), DW_AT_const_value(0x01)
    2338                      .dwendtag $C$DW$T$64
    2339              
    2340              $C$DW$T$65      .dwtag  DW_TAG_typedef, DW_AT_name("MOTOR_Type_e")
    2341                      .dwattr $C$DW$T$65, DW_AT_type(*$C$DW$T$64)
    2342                      .dwattr $C$DW$T$65, DW_AT_language(DW_LANG_C)
    2343              
    2344              $C$DW$T$74      .dwtag  DW_TAG_enumeration_type
    2345                      .dwattr $C$DW$T$74, DW_AT_byte_size(0x01)
    2346              $C$DW$202       .dwtag  DW_TAG_enumerator, DW_AT_name("USER_ErrorCode_NoError"), DW_AT_const_value(0x00)
    2347              $C$DW$203       .dwtag  DW_TAG_enumerator, DW_AT_name("USER_ErrorCode_iqFullScaleCurrent_A_High"), DW_AT_cons
    2348              $C$DW$204       .dwtag  DW_TAG_enumerator, DW_AT_name("USER_ErrorCode_iqFullScaleCurrent_A_Low"), DW_AT_const
    2349              $C$DW$205       .dwtag  DW_TAG_enumerator, DW_AT_name("USER_ErrorCode_iqFullScaleVoltage_V_High"), DW_AT_cons
    2350              $C$DW$206       .dwtag  DW_TAG_enumerator, DW_AT_name("USER_ErrorCode_iqFullScaleVoltage_V_Low"), DW_AT_const
    2351              $C$DW$207       .dwtag  DW_TAG_enumerator, DW_AT_name("USER_ErrorCode_iqFullScaleFreq_Hz_High"), DW_AT_const_
    2352              $C$DW$208       .dwtag  DW_TAG_enumerator, DW_AT_name("USER_ErrorCode_iqFullScaleFreq_Hz_Low"), DW_AT_const_v
    2353              $C$DW$209       .dwtag  DW_TAG_enumerator, DW_AT_name("USER_ErrorCode_numPwmTicksPerIsrTick_High"), DW_AT_con
    2354              $C$DW$210       .dwtag  DW_TAG_enumerator, DW_AT_name("USER_ErrorCode_numPwmTicksPerIsrTick_Low"), DW_AT_cons
    2355              $C$DW$211       .dwtag  DW_TAG_enumerator, DW_AT_name("USER_ErrorCode_numIsrTicksPerCtrlTick_High"), DW_AT_co
    2356              $C$DW$212       .dwtag  DW_TAG_enumerator, DW_AT_name("USER_ErrorCode_numIsrTicksPerCtrlTick_Low"), DW_AT_con
    2357              $C$DW$213       .dwtag  DW_TAG_enumerator, DW_AT_name("USER_ErrorCode_numCtrlTicksPerCurrentTick_High"), DW_A
    2358              $C$DW$214       .dwtag  DW_TAG_enumerator, DW_AT_name("USER_ErrorCode_numCtrlTicksPerCurrentTick_Low"), DW_AT
    2359              $C$DW$215       .dwtag  DW_TAG_enumerator, DW_AT_name("USER_ErrorCode_numCtrlTicksPerEstTick_High"), DW_AT_co
TMS320C2000 Assembler PC v6.2.5 Thu Jun 22 15:17:10 2017

Tools Copyright (c) 1996-2014 Texas Instruments Incorporated
C:\Users\wmj\AppData\Local\Temp\1174810                              PAGE   48

    2360              $C$DW$216       .dwtag  DW_TAG_enumerator, DW_AT_name("USER_ErrorCode_numCtrlTicksPerEstTick_Low"), DW_AT_con
    2361              $C$DW$217       .dwtag  DW_TAG_enumerator, DW_AT_name("USER_ErrorCode_numCtrlTicksPerSpeedTick_High"), DW_AT_
    2362              $C$DW$218       .dwtag  DW_TAG_enumerator, DW_AT_name("USER_ErrorCode_numCtrlTicksPerSpeedTick_Low"), DW_AT_c
    2363              $C$DW$219       .dwtag  DW_TAG_enumerator, DW_AT_name("USER_ErrorCode_numCtrlTicksPerTrajTick_High"), DW_AT_c
    2364              $C$DW$220       .dwtag  DW_TAG_enumerator, DW_AT_name("USER_ErrorCode_numCtrlTicksPerTrajTick_Low"), DW_AT_co
    2365              $C$DW$221       .dwtag  DW_TAG_enumerator, DW_AT_name("USER_ErrorCode_numCurrentSensors_High"), DW_AT_const_v
    2366              $C$DW$222       .dwtag  DW_TAG_enumerator, DW_AT_name("USER_ErrorCode_numCurrentSensors_Low"), DW_AT_const_va
    2367              $C$DW$223       .dwtag  DW_TAG_enumerator, DW_AT_name("USER_ErrorCode_numVoltageSensors_High"), DW_AT_const_v
    2368              $C$DW$224       .dwtag  DW_TAG_enumerator, DW_AT_name("USER_ErrorCode_numVoltageSensors_Low"), DW_AT_const_va
    2369              $C$DW$225       .dwtag  DW_TAG_enumerator, DW_AT_name("USER_ErrorCode_offsetPole_rps_High"), DW_AT_const_valu
    2370              $C$DW$226       .dwtag  DW_TAG_enumerator, DW_AT_name("USER_ErrorCode_offsetPole_rps_Low"), DW_AT_const_value
    2371              $C$DW$227       .dwtag  DW_TAG_enumerator, DW_AT_name("USER_ErrorCode_fluxPole_rps_High"), DW_AT_const_value(
    2372              $C$DW$228       .dwtag  DW_TAG_enumerator, DW_AT_name("USER_ErrorCode_fluxPole_rps_Low"), DW_AT_const_value(0
    2373              $C$DW$229       .dwtag  DW_TAG_enumerator, DW_AT_name("USER_ErrorCode_zeroSpeedLimit_High"), DW_AT_const_valu
    2374              $C$DW$230       .dwtag  DW_TAG_enumerator, DW_AT_name("USER_ErrorCode_zeroSpeedLimit_Low"), DW_AT_const_value
    2375              $C$DW$231       .dwtag  DW_TAG_enumerator, DW_AT_name("USER_ErrorCode_forceAngleFreq_Hz_High"), DW_AT_const_v
    2376              $C$DW$232       .dwtag  DW_TAG_enumerator, DW_AT_name("USER_ErrorCode_forceAngleFreq_Hz_Low"), DW_AT_const_va
    2377              $C$DW$233       .dwtag  DW_TAG_enumerator, DW_AT_name("USER_ErrorCode_maxAccel_Hzps_High"), DW_AT_const_value
    2378              $C$DW$234       .dwtag  DW_TAG_enumerator, DW_AT_name("USER_ErrorCode_maxAccel_Hzps_Low"), DW_AT_const_value(
    2379              $C$DW$235       .dwtag  DW_TAG_enumerator, DW_AT_name("USER_ErrorCode_maxAccel_est_Hzps_High"), DW_AT_const_v
    2380              $C$DW$236       .dwtag  DW_TAG_enumerator, DW_AT_name("USER_ErrorCode_maxAccel_est_Hzps_Low"), DW_AT_const_va
    2381              $C$DW$237       .dwtag  DW_TAG_enumerator, DW_AT_name("USER_ErrorCode_directionPole_rps_High"), DW_AT_const_v
    2382              $C$DW$238       .dwtag  DW_TAG_enumerator, DW_AT_name("USER_ErrorCode_directionPole_rps_Low"), DW_AT_const_va
    2383              $C$DW$239       .dwtag  DW_TAG_enumerator, DW_AT_name("USER_ErrorCode_speedPole_rps_High"), DW_AT_const_value
    2384              $C$DW$240       .dwtag  DW_TAG_enumerator, DW_AT_name("USER_ErrorCode_speedPole_rps_Low"), DW_AT_const_value(
    2385              $C$DW$241       .dwtag  DW_TAG_enumerator, DW_AT_name("USER_ErrorCode_dcBusPole_rps_High"), DW_AT_const_value
    2386              $C$DW$242       .dwtag  DW_TAG_enumerator, DW_AT_name("USER_ErrorCode_dcBusPole_rps_Low"), DW_AT_const_value(
    2387              $C$DW$243       .dwtag  DW_TAG_enumerator, DW_AT_name("USER_ErrorCode_fluxFraction_High"), DW_AT_const_value(
    2388              $C$DW$244       .dwtag  DW_TAG_enumerator, DW_AT_name("USER_ErrorCode_fluxFraction_Low"), DW_AT_const_value(0
    2389              $C$DW$245       .dwtag  DW_TAG_enumerator, DW_AT_name("USER_ErrorCode_indEst_speedMaxFraction_High"), DW_AT_c
    2390              $C$DW$246       .dwtag  DW_TAG_enumerator, DW_AT_name("USER_ErrorCode_indEst_speedMaxFraction_Low"), DW_AT_co
    2391              $C$DW$247       .dwtag  DW_TAG_enumerator, DW_AT_name("USER_ErrorCode_powerWarpGain_High"), DW_AT_const_value
    2392              $C$DW$248       .dwtag  DW_TAG_enumerator, DW_AT_name("USER_ErrorCode_powerWarpGain_Low"), DW_AT_const_value(
    2393              $C$DW$249       .dwtag  DW_TAG_enumerator, DW_AT_name("USER_ErrorCode_systemFreq_MHz_High"), DW_AT_const_valu
    2394              $C$DW$250       .dwtag  DW_TAG_enumerator, DW_AT_name("USER_ErrorCode_systemFreq_MHz_Low"), DW_AT_const_value
    2395              $C$DW$251       .dwtag  DW_TAG_enumerator, DW_AT_name("USER_ErrorCode_pwmFreq_kHz_High"), DW_AT_const_value(0
    2396              $C$DW$252       .dwtag  DW_TAG_enumerator, DW_AT_name("USER_ErrorCode_pwmFreq_kHz_Low"), DW_AT_const_value(0x
    2397              $C$DW$253       .dwtag  DW_TAG_enumerator, DW_AT_name("USER_ErrorCode_voltage_sf_High"), DW_AT_const_value(0x
    2398              $C$DW$254       .dwtag  DW_TAG_enumerator, DW_AT_name("USER_ErrorCode_voltage_sf_Low"), DW_AT_const_value(0x3
    2399              $C$DW$255       .dwtag  DW_TAG_enumerator, DW_AT_name("USER_ErrorCode_current_sf_High"), DW_AT_const_value(0x
    2400              $C$DW$256       .dwtag  DW_TAG_enumerator, DW_AT_name("USER_ErrorCode_current_sf_Low"), DW_AT_const_value(0x3
    2401              $C$DW$257       .dwtag  DW_TAG_enumerator, DW_AT_name("USER_ErrorCode_voltageFilterPole_Hz_High"), DW_AT_cons
    2402              $C$DW$258       .dwtag  DW_TAG_enumerator, DW_AT_name("USER_ErrorCode_voltageFilterPole_Hz_Low"), DW_AT_const
    2403              $C$DW$259       .dwtag  DW_TAG_enumerator, DW_AT_name("USER_ErrorCode_maxVsMag_pu_High"), DW_AT_const_value(0
    2404              $C$DW$260       .dwtag  DW_TAG_enumerator, DW_AT_name("USER_ErrorCode_maxVsMag_pu_Low"), DW_AT_const_value(0x
    2405              $C$DW$261       .dwtag  DW_TAG_enumerator, DW_AT_name("USER_ErrorCode_estKappa_High"), DW_AT_const_value(0x3b
    2406              $C$DW$262       .dwtag  DW_TAG_enumerator, DW_AT_name("USER_ErrorCode_estKappa_Low"), DW_AT_const_value(0x3c)
    2407              $C$DW$263       .dwtag  DW_TAG_enumerator, DW_AT_name("USER_ErrorCode_motor_type_Unknown"), DW_AT_const_value
    2408              $C$DW$264       .dwtag  DW_TAG_enumerator, DW_AT_name("USER_ErrorCode_motor_numPolePairs_High"), DW_AT_const_
    2409              $C$DW$265       .dwtag  DW_TAG_enumerator, DW_AT_name("USER_ErrorCode_motor_numPolePairs_Low"), DW_AT_const_v
    2410              $C$DW$266       .dwtag  DW_TAG_enumerator, DW_AT_name("USER_ErrorCode_motor_ratedFlux_High"), DW_AT_const_val
    2411              $C$DW$267       .dwtag  DW_TAG_enumerator, DW_AT_name("USER_ErrorCode_motor_ratedFlux_Low"), DW_AT_const_valu
    2412              $C$DW$268       .dwtag  DW_TAG_enumerator, DW_AT_name("USER_ErrorCode_motor_Rr_High"), DW_AT_const_value(0x42
    2413              $C$DW$269       .dwtag  DW_TAG_enumerator, DW_AT_name("USER_ErrorCode_motor_Rr_Low"), DW_AT_const_value(0x43)
    2414              $C$DW$270       .dwtag  DW_TAG_enumerator, DW_AT_name("USER_ErrorCode_motor_Rs_High"), DW_AT_const_value(0x44
TMS320C2000 Assembler PC v6.2.5 Thu Jun 22 15:17:10 2017

Tools Copyright (c) 1996-2014 Texas Instruments Incorporated
C:\Users\wmj\AppData\Local\Temp\1174810                              PAGE   49

    2415              $C$DW$271       .dwtag  DW_TAG_enumerator, DW_AT_name("USER_ErrorCode_motor_Rs_Low"), DW_AT_const_value(0x45)
    2416              $C$DW$272       .dwtag  DW_TAG_enumerator, DW_AT_name("USER_ErrorCode_motor_Ls_d_High"), DW_AT_const_value(0x
    2417              $C$DW$273       .dwtag  DW_TAG_enumerator, DW_AT_name("USER_ErrorCode_motor_Ls_d_Low"), DW_AT_const_value(0x4
    2418              $C$DW$274       .dwtag  DW_TAG_enumerator, DW_AT_name("USER_ErrorCode_motor_Ls_q_High"), DW_AT_const_value(0x
    2419              $C$DW$275       .dwtag  DW_TAG_enumerator, DW_AT_name("USER_ErrorCode_motor_Ls_q_Low"), DW_AT_const_value(0x4
    2420              $C$DW$276       .dwtag  DW_TAG_enumerator, DW_AT_name("USER_ErrorCode_maxCurrent_High"), DW_AT_const_value(0x
    2421              $C$DW$277       .dwtag  DW_TAG_enumerator, DW_AT_name("USER_ErrorCode_maxCurrent_Low"), DW_AT_const_value(0x4
    2422              $C$DW$278       .dwtag  DW_TAG_enumerator, DW_AT_name("USER_ErrorCode_maxCurrent_resEst_High"), DW_AT_const_v
    2423              $C$DW$279       .dwtag  DW_TAG_enumerator, DW_AT_name("USER_ErrorCode_maxCurrent_resEst_Low"), DW_AT_const_va
    2424              $C$DW$280       .dwtag  DW_TAG_enumerator, DW_AT_name("USER_ErrorCode_maxCurrent_indEst_High"), DW_AT_const_v
    2425              $C$DW$281       .dwtag  DW_TAG_enumerator, DW_AT_name("USER_ErrorCode_maxCurrent_indEst_Low"), DW_AT_const_va
    2426              $C$DW$282       .dwtag  DW_TAG_enumerator, DW_AT_name("USER_ErrorCode_maxCurrentSlope_High"), DW_AT_const_val
    2427              $C$DW$283       .dwtag  DW_TAG_enumerator, DW_AT_name("USER_ErrorCode_maxCurrentSlope_Low"), DW_AT_const_valu
    2428              $C$DW$284       .dwtag  DW_TAG_enumerator, DW_AT_name("USER_ErrorCode_maxCurrentSlope_powerWarp_High"), DW_AT
    2429              $C$DW$285       .dwtag  DW_TAG_enumerator, DW_AT_name("USER_ErrorCode_maxCurrentSlope_powerWarp_Low"), DW_AT_
    2430              $C$DW$286       .dwtag  DW_TAG_enumerator, DW_AT_name("USER_ErrorCode_IdRated_High"), DW_AT_const_value(0x54)
    2431              $C$DW$287       .dwtag  DW_TAG_enumerator, DW_AT_name("USER_ErrorCode_IdRated_Low"), DW_AT_const_value(0x55)
    2432              $C$DW$288       .dwtag  DW_TAG_enumerator, DW_AT_name("USER_ErrorCode_IdRatedFraction_indEst_High"), DW_AT_co
    2433              $C$DW$289       .dwtag  DW_TAG_enumerator, DW_AT_name("USER_ErrorCode_IdRatedFraction_indEst_Low"), DW_AT_con
    2434              $C$DW$290       .dwtag  DW_TAG_enumerator, DW_AT_name("USER_ErrorCode_IdRatedFraction_ratedFlux_High"), DW_AT
    2435              $C$DW$291       .dwtag  DW_TAG_enumerator, DW_AT_name("USER_ErrorCode_IdRatedFraction_ratedFlux_Low"), DW_AT_
    2436              $C$DW$292       .dwtag  DW_TAG_enumerator, DW_AT_name("USER_ErrorCode_IdRated_delta_High"), DW_AT_const_value
    2437              $C$DW$293       .dwtag  DW_TAG_enumerator, DW_AT_name("USER_ErrorCode_IdRated_delta_Low"), DW_AT_const_value(
    2438              $C$DW$294       .dwtag  DW_TAG_enumerator, DW_AT_name("USER_ErrorCode_fluxEstFreq_Hz_High"), DW_AT_const_valu
    2439              $C$DW$295       .dwtag  DW_TAG_enumerator, DW_AT_name("USER_ErrorCode_fluxEstFreq_Hz_Low"), DW_AT_const_value
    2440              $C$DW$296       .dwtag  DW_TAG_enumerator, DW_AT_name("USER_ErrorCode_ctrlFreq_Hz_High"), DW_AT_const_value(0
    2441              $C$DW$297       .dwtag  DW_TAG_enumerator, DW_AT_name("USER_ErrorCode_ctrlFreq_Hz_Low"), DW_AT_const_value(0x
    2442              $C$DW$298       .dwtag  DW_TAG_enumerator, DW_AT_name("USER_ErrorCode_estFreq_Hz_High"), DW_AT_const_value(0x
    2443              $C$DW$299       .dwtag  DW_TAG_enumerator, DW_AT_name("USER_ErrorCode_estFreq_Hz_Low"), DW_AT_const_value(0x6
    2444              $C$DW$300       .dwtag  DW_TAG_enumerator, DW_AT_name("USER_ErrorCode_RoverL_estFreq_Hz_High"), DW_AT_const_v
    2445              $C$DW$301       .dwtag  DW_TAG_enumerator, DW_AT_name("USER_ErrorCode_RoverL_estFreq_Hz_Low"), DW_AT_const_va
    2446              $C$DW$302       .dwtag  DW_TAG_enumerator, DW_AT_name("USER_ErrorCode_trajFreq_Hz_High"), DW_AT_const_value(0
    2447              $C$DW$303       .dwtag  DW_TAG_enumerator, DW_AT_name("USER_ErrorCode_trajFreq_Hz_Low"), DW_AT_const_value(0x
    2448              $C$DW$304       .dwtag  DW_TAG_enumerator, DW_AT_name("USER_ErrorCode_ctrlPeriod_sec_High"), DW_AT_const_valu
    2449              $C$DW$305       .dwtag  DW_TAG_enumerator, DW_AT_name("USER_ErrorCode_ctrlPeriod_sec_Low"), DW_AT_const_value
    2450              $C$DW$306       .dwtag  DW_TAG_enumerator, DW_AT_name("USER_ErrorCode_maxNegativeIdCurrent_a_High"), DW_AT_co
    2451              $C$DW$307       .dwtag  DW_TAG_enumerator, DW_AT_name("USER_ErrorCode_maxNegativeIdCurrent_a_Low"), DW_AT_con
    2452              $C$DW$308       .dwtag  DW_TAG_enumerator, DW_AT_name("USER_numErrorCodes"), DW_AT_const_value(0x6a)
    2453                      .dwendtag $C$DW$T$74
    2454              
    2455              $C$DW$T$75      .dwtag  DW_TAG_typedef, DW_AT_name("USER_ErrorCode_e")
    2456                      .dwattr $C$DW$T$75, DW_AT_type(*$C$DW$T$74)
    2457                      .dwattr $C$DW$T$75, DW_AT_language(DW_LANG_C)
    2458              $C$DW$309       .dwtag  DW_TAG_TI_far_type
    2459                      .dwattr $C$DW$309, DW_AT_type(*$C$DW$T$75)
    2460              $C$DW$T$77      .dwtag  DW_TAG_const_type
    2461                      .dwattr $C$DW$T$77, DW_AT_type(*$C$DW$309)
    2462              
    2463              $C$DW$T$23      .dwtag  DW_TAG_structure_type
    2464                      .dwattr $C$DW$T$23, DW_AT_name("_CLARKE_Obj_")
    2465                      .dwattr $C$DW$T$23, DW_AT_byte_size(0x06)
    2466              $C$DW$310       .dwtag  DW_TAG_member
    2467                      .dwattr $C$DW$310, DW_AT_type(*$C$DW$T$20)
    2468                      .dwattr $C$DW$310, DW_AT_name("alpha_sf")
    2469                      .dwattr $C$DW$310, DW_AT_TI_symbol_name("_alpha_sf")
TMS320C2000 Assembler PC v6.2.5 Thu Jun 22 15:17:10 2017

Tools Copyright (c) 1996-2014 Texas Instruments Incorporated
C:\Users\wmj\AppData\Local\Temp\1174810                              PAGE   50

    2470                      .dwattr $C$DW$310, DW_AT_data_member_location[DW_OP_plus_uconst 0x0]
    2471                      .dwattr $C$DW$310, DW_AT_accessibility(DW_ACCESS_public)
    2472              $C$DW$311       .dwtag  DW_TAG_member
    2473                      .dwattr $C$DW$311, DW_AT_type(*$C$DW$T$20)
    2474                      .dwattr $C$DW$311, DW_AT_name("beta_sf")
    2475                      .dwattr $C$DW$311, DW_AT_TI_symbol_name("_beta_sf")
    2476                      .dwattr $C$DW$311, DW_AT_data_member_location[DW_OP_plus_uconst 0x2]
    2477                      .dwattr $C$DW$311, DW_AT_accessibility(DW_ACCESS_public)
    2478              $C$DW$312       .dwtag  DW_TAG_member
    2479                      .dwattr $C$DW$312, DW_AT_type(*$C$DW$T$22)
    2480                      .dwattr $C$DW$312, DW_AT_name("numSensors")
    2481                      .dwattr $C$DW$312, DW_AT_TI_symbol_name("_numSensors")
    2482                      .dwattr $C$DW$312, DW_AT_data_member_location[DW_OP_plus_uconst 0x4]
    2483                      .dwattr $C$DW$312, DW_AT_accessibility(DW_ACCESS_public)
    2484                      .dwendtag $C$DW$T$23
    2485              
    2486              $C$DW$T$31      .dwtag  DW_TAG_typedef, DW_AT_name("CLARKE_Obj")
    2487                      .dwattr $C$DW$T$31, DW_AT_type(*$C$DW$T$23)
    2488                      .dwattr $C$DW$T$31, DW_AT_language(DW_LANG_C)
    2489              $C$DW$T$29      .dwtag  DW_TAG_pointer_type
    2490                      .dwattr $C$DW$T$29, DW_AT_type(*$C$DW$T$23)
    2491                      .dwattr $C$DW$T$29, DW_AT_address_class(0x16)
    2492              $C$DW$T$30      .dwtag  DW_TAG_typedef, DW_AT_name("CLARKE_Handle")
    2493                      .dwattr $C$DW$T$30, DW_AT_type(*$C$DW$T$29)
    2494                      .dwattr $C$DW$T$30, DW_AT_language(DW_LANG_C)
    2495              
    2496              $C$DW$T$57      .dwtag  DW_TAG_structure_type
    2497                      .dwattr $C$DW$T$57, DW_AT_name("_CTRL_Obj_")
    2498                      .dwattr $C$DW$T$57, DW_AT_byte_size(0x108)
    2499              $C$DW$313       .dwtag  DW_TAG_member
    2500                      .dwattr $C$DW$313, DW_AT_type(*$C$DW$T$24)
    2501                      .dwattr $C$DW$313, DW_AT_name("version")
    2502                      .dwattr $C$DW$313, DW_AT_TI_symbol_name("_version")
    2503                      .dwattr $C$DW$313, DW_AT_data_member_location[DW_OP_plus_uconst 0x0]
    2504                      .dwattr $C$DW$313, DW_AT_accessibility(DW_ACCESS_public)
    2505              $C$DW$314       .dwtag  DW_TAG_member
    2506                      .dwattr $C$DW$314, DW_AT_type(*$C$DW$T$26)
    2507                      .dwattr $C$DW$314, DW_AT_name("state")
    2508                      .dwattr $C$DW$314, DW_AT_TI_symbol_name("_state")
    2509                      .dwattr $C$DW$314, DW_AT_data_member_location[DW_OP_plus_uconst 0x4]
    2510                      .dwattr $C$DW$314, DW_AT_accessibility(DW_ACCESS_public)
    2511              $C$DW$315       .dwtag  DW_TAG_member
    2512                      .dwattr $C$DW$315, DW_AT_type(*$C$DW$T$26)
    2513                      .dwattr $C$DW$315, DW_AT_name("prevState")
    2514                      .dwattr $C$DW$315, DW_AT_TI_symbol_name("_prevState")
    2515                      .dwattr $C$DW$315, DW_AT_data_member_location[DW_OP_plus_uconst 0x5]
    2516                      .dwattr $C$DW$315, DW_AT_accessibility(DW_ACCESS_public)
    2517              $C$DW$316       .dwtag  DW_TAG_member
    2518                      .dwattr $C$DW$316, DW_AT_type(*$C$DW$T$28)
    2519                      .dwattr $C$DW$316, DW_AT_name("errorCode")
    2520                      .dwattr $C$DW$316, DW_AT_TI_symbol_name("_errorCode")
    2521                      .dwattr $C$DW$316, DW_AT_data_member_location[DW_OP_plus_uconst 0x6]
    2522                      .dwattr $C$DW$316, DW_AT_accessibility(DW_ACCESS_public)
    2523              $C$DW$317       .dwtag  DW_TAG_member
    2524                      .dwattr $C$DW$317, DW_AT_type(*$C$DW$T$30)
TMS320C2000 Assembler PC v6.2.5 Thu Jun 22 15:17:10 2017

Tools Copyright (c) 1996-2014 Texas Instruments Incorporated
C:\Users\wmj\AppData\Local\Temp\1174810                              PAGE   51

    2525                      .dwattr $C$DW$317, DW_AT_name("clarkeHandle_I")
    2526                      .dwattr $C$DW$317, DW_AT_TI_symbol_name("_clarkeHandle_I")
    2527                      .dwattr $C$DW$317, DW_AT_data_member_location[DW_OP_plus_uconst 0x8]
    2528                      .dwattr $C$DW$317, DW_AT_accessibility(DW_ACCESS_public)
    2529              $C$DW$318       .dwtag  DW_TAG_member
    2530                      .dwattr $C$DW$318, DW_AT_type(*$C$DW$T$31)
    2531                      .dwattr $C$DW$318, DW_AT_name("clarke_I")
    2532                      .dwattr $C$DW$318, DW_AT_TI_symbol_name("_clarke_I")
    2533                      .dwattr $C$DW$318, DW_AT_data_member_location[DW_OP_plus_uconst 0xa]
    2534                      .dwattr $C$DW$318, DW_AT_accessibility(DW_ACCESS_public)
    2535              $C$DW$319       .dwtag  DW_TAG_member
    2536                      .dwattr $C$DW$319, DW_AT_type(*$C$DW$T$30)
    2537                      .dwattr $C$DW$319, DW_AT_name("clarkeHandle_V")
    2538                      .dwattr $C$DW$319, DW_AT_TI_symbol_name("_clarkeHandle_V")
    2539                      .dwattr $C$DW$319, DW_AT_data_member_location[DW_OP_plus_uconst 0x10]
    2540                      .dwattr $C$DW$319, DW_AT_accessibility(DW_ACCESS_public)
    2541              $C$DW$320       .dwtag  DW_TAG_member
    2542                      .dwattr $C$DW$320, DW_AT_type(*$C$DW$T$31)
    2543                      .dwattr $C$DW$320, DW_AT_name("clarke_V")
    2544                      .dwattr $C$DW$320, DW_AT_TI_symbol_name("_clarke_V")
    2545                      .dwattr $C$DW$320, DW_AT_data_member_location[DW_OP_plus_uconst 0x12]
    2546                      .dwattr $C$DW$320, DW_AT_accessibility(DW_ACCESS_public)
    2547              $C$DW$321       .dwtag  DW_TAG_member
    2548                      .dwattr $C$DW$321, DW_AT_type(*$C$DW$T$33)
    2549                      .dwattr $C$DW$321, DW_AT_name("estHandle")
    2550                      .dwattr $C$DW$321, DW_AT_TI_symbol_name("_estHandle")
    2551                      .dwattr $C$DW$321, DW_AT_data_member_location[DW_OP_plus_uconst 0x18]
    2552                      .dwattr $C$DW$321, DW_AT_accessibility(DW_ACCESS_public)
    2553              $C$DW$322       .dwtag  DW_TAG_member
    2554                      .dwattr $C$DW$322, DW_AT_type(*$C$DW$T$35)
    2555                      .dwattr $C$DW$322, DW_AT_name("parkHandle")
    2556                      .dwattr $C$DW$322, DW_AT_TI_symbol_name("_parkHandle")
    2557                      .dwattr $C$DW$322, DW_AT_data_member_location[DW_OP_plus_uconst 0x1a]
    2558                      .dwattr $C$DW$322, DW_AT_accessibility(DW_ACCESS_public)
    2559              $C$DW$323       .dwtag  DW_TAG_member
    2560                      .dwattr $C$DW$323, DW_AT_type(*$C$DW$T$36)
    2561                      .dwattr $C$DW$323, DW_AT_name("park")
    2562                      .dwattr $C$DW$323, DW_AT_TI_symbol_name("_park")
    2563                      .dwattr $C$DW$323, DW_AT_data_member_location[DW_OP_plus_uconst 0x1c]
    2564                      .dwattr $C$DW$323, DW_AT_accessibility(DW_ACCESS_public)
    2565              $C$DW$324       .dwtag  DW_TAG_member
    2566                      .dwattr $C$DW$324, DW_AT_type(*$C$DW$T$38)
    2567                      .dwattr $C$DW$324, DW_AT_name("pidHandle_Id")
    2568                      .dwattr $C$DW$324, DW_AT_TI_symbol_name("_pidHandle_Id")
    2569                      .dwattr $C$DW$324, DW_AT_data_member_location[DW_OP_plus_uconst 0x20]
    2570                      .dwattr $C$DW$324, DW_AT_accessibility(DW_ACCESS_public)
    2571              $C$DW$325       .dwtag  DW_TAG_member
    2572                      .dwattr $C$DW$325, DW_AT_type(*$C$DW$T$39)
    2573                      .dwattr $C$DW$325, DW_AT_name("pid_Id")
    2574                      .dwattr $C$DW$325, DW_AT_TI_symbol_name("_pid_Id")
    2575                      .dwattr $C$DW$325, DW_AT_data_member_location[DW_OP_plus_uconst 0x22]
    2576                      .dwattr $C$DW$325, DW_AT_accessibility(DW_ACCESS_public)
    2577              $C$DW$326       .dwtag  DW_TAG_member
    2578                      .dwattr $C$DW$326, DW_AT_type(*$C$DW$T$38)
    2579                      .dwattr $C$DW$326, DW_AT_name("pidHandle_Iq")
TMS320C2000 Assembler PC v6.2.5 Thu Jun 22 15:17:10 2017

Tools Copyright (c) 1996-2014 Texas Instruments Incorporated
C:\Users\wmj\AppData\Local\Temp\1174810                              PAGE   52

    2580                      .dwattr $C$DW$326, DW_AT_TI_symbol_name("_pidHandle_Iq")
    2581                      .dwattr $C$DW$326, DW_AT_data_member_location[DW_OP_plus_uconst 0x32]
    2582                      .dwattr $C$DW$326, DW_AT_accessibility(DW_ACCESS_public)
    2583              $C$DW$327       .dwtag  DW_TAG_member
    2584                      .dwattr $C$DW$327, DW_AT_type(*$C$DW$T$39)
    2585                      .dwattr $C$DW$327, DW_AT_name("pid_Iq")
    2586                      .dwattr $C$DW$327, DW_AT_TI_symbol_name("_pid_Iq")
    2587                      .dwattr $C$DW$327, DW_AT_data_member_location[DW_OP_plus_uconst 0x34]
    2588                      .dwattr $C$DW$327, DW_AT_accessibility(DW_ACCESS_public)
    2589              $C$DW$328       .dwtag  DW_TAG_member
    2590                      .dwattr $C$DW$328, DW_AT_type(*$C$DW$T$38)
    2591                      .dwattr $C$DW$328, DW_AT_name("pidHandle_spd")
    2592                      .dwattr $C$DW$328, DW_AT_TI_symbol_name("_pidHandle_spd")
    2593                      .dwattr $C$DW$328, DW_AT_data_member_location[DW_OP_plus_uconst 0x44]
    2594                      .dwattr $C$DW$328, DW_AT_accessibility(DW_ACCESS_public)
    2595              $C$DW$329       .dwtag  DW_TAG_member
    2596                      .dwattr $C$DW$329, DW_AT_type(*$C$DW$T$39)
    2597                      .dwattr $C$DW$329, DW_AT_name("pid_spd")
    2598                      .dwattr $C$DW$329, DW_AT_TI_symbol_name("_pid_spd")
    2599                      .dwattr $C$DW$329, DW_AT_data_member_location[DW_OP_plus_uconst 0x46]
    2600                      .dwattr $C$DW$329, DW_AT_accessibility(DW_ACCESS_public)
    2601              $C$DW$330       .dwtag  DW_TAG_member
    2602                      .dwattr $C$DW$330, DW_AT_type(*$C$DW$T$41)
    2603                      .dwattr $C$DW$330, DW_AT_name("iparkHandle")
    2604                      .dwattr $C$DW$330, DW_AT_TI_symbol_name("_iparkHandle")
    2605                      .dwattr $C$DW$330, DW_AT_data_member_location[DW_OP_plus_uconst 0x56]
    2606                      .dwattr $C$DW$330, DW_AT_accessibility(DW_ACCESS_public)
    2607              $C$DW$331       .dwtag  DW_TAG_member
    2608                      .dwattr $C$DW$331, DW_AT_type(*$C$DW$T$42)
    2609                      .dwattr $C$DW$331, DW_AT_name("ipark")
    2610                      .dwattr $C$DW$331, DW_AT_TI_symbol_name("_ipark")
    2611                      .dwattr $C$DW$331, DW_AT_data_member_location[DW_OP_plus_uconst 0x58]
    2612                      .dwattr $C$DW$331, DW_AT_accessibility(DW_ACCESS_public)
    2613              $C$DW$332       .dwtag  DW_TAG_member
    2614                      .dwattr $C$DW$332, DW_AT_type(*$C$DW$T$44)
    2615                      .dwattr $C$DW$332, DW_AT_name("svgenHandle")
    2616                      .dwattr $C$DW$332, DW_AT_TI_symbol_name("_svgenHandle")
    2617                      .dwattr $C$DW$332, DW_AT_data_member_location[DW_OP_plus_uconst 0x5c]
    2618                      .dwattr $C$DW$332, DW_AT_accessibility(DW_ACCESS_public)
    2619              $C$DW$333       .dwtag  DW_TAG_member
    2620                      .dwattr $C$DW$333, DW_AT_type(*$C$DW$T$45)
    2621                      .dwattr $C$DW$333, DW_AT_name("svgen")
    2622                      .dwattr $C$DW$333, DW_AT_TI_symbol_name("_svgen")
    2623                      .dwattr $C$DW$333, DW_AT_data_member_location[DW_OP_plus_uconst 0x5e]
    2624                      .dwattr $C$DW$333, DW_AT_accessibility(DW_ACCESS_public)
    2625              $C$DW$334       .dwtag  DW_TAG_member
    2626                      .dwattr $C$DW$334, DW_AT_type(*$C$DW$T$47)
    2627                      .dwattr $C$DW$334, DW_AT_name("trajHandle_Id")
    2628                      .dwattr $C$DW$334, DW_AT_TI_symbol_name("_trajHandle_Id")
    2629                      .dwattr $C$DW$334, DW_AT_data_member_location[DW_OP_plus_uconst 0x60]
    2630                      .dwattr $C$DW$334, DW_AT_accessibility(DW_ACCESS_public)
    2631              $C$DW$335       .dwtag  DW_TAG_member
    2632                      .dwattr $C$DW$335, DW_AT_type(*$C$DW$T$48)
    2633                      .dwattr $C$DW$335, DW_AT_name("traj_Id")
    2634                      .dwattr $C$DW$335, DW_AT_TI_symbol_name("_traj_Id")
TMS320C2000 Assembler PC v6.2.5 Thu Jun 22 15:17:10 2017

Tools Copyright (c) 1996-2014 Texas Instruments Incorporated
C:\Users\wmj\AppData\Local\Temp\1174810                              PAGE   53

    2635                      .dwattr $C$DW$335, DW_AT_data_member_location[DW_OP_plus_uconst 0x62]
    2636                      .dwattr $C$DW$335, DW_AT_accessibility(DW_ACCESS_public)
    2637              $C$DW$336       .dwtag  DW_TAG_member
    2638                      .dwattr $C$DW$336, DW_AT_type(*$C$DW$T$47)
    2639                      .dwattr $C$DW$336, DW_AT_name("trajHandle_spd")
    2640                      .dwattr $C$DW$336, DW_AT_TI_symbol_name("_trajHandle_spd")
    2641                      .dwattr $C$DW$336, DW_AT_data_member_location[DW_OP_plus_uconst 0x6c]
    2642                      .dwattr $C$DW$336, DW_AT_accessibility(DW_ACCESS_public)
    2643              $C$DW$337       .dwtag  DW_TAG_member
    2644                      .dwattr $C$DW$337, DW_AT_type(*$C$DW$T$48)
    2645                      .dwattr $C$DW$337, DW_AT_name("traj_spd")
    2646                      .dwattr $C$DW$337, DW_AT_TI_symbol_name("_traj_spd")
    2647                      .dwattr $C$DW$337, DW_AT_data_member_location[DW_OP_plus_uconst 0x6e]
    2648                      .dwattr $C$DW$337, DW_AT_accessibility(DW_ACCESS_public)
    2649              $C$DW$338       .dwtag  DW_TAG_member
    2650                      .dwattr $C$DW$338, DW_AT_type(*$C$DW$T$47)
    2651                      .dwattr $C$DW$338, DW_AT_name("trajHandle_spdMax")
    2652                      .dwattr $C$DW$338, DW_AT_TI_symbol_name("_trajHandle_spdMax")
    2653                      .dwattr $C$DW$338, DW_AT_data_member_location[DW_OP_plus_uconst 0x78]
    2654                      .dwattr $C$DW$338, DW_AT_accessibility(DW_ACCESS_public)
    2655              $C$DW$339       .dwtag  DW_TAG_member
    2656                      .dwattr $C$DW$339, DW_AT_type(*$C$DW$T$48)
    2657                      .dwattr $C$DW$339, DW_AT_name("traj_spdMax")
    2658                      .dwattr $C$DW$339, DW_AT_TI_symbol_name("_traj_spdMax")
    2659                      .dwattr $C$DW$339, DW_AT_data_member_location[DW_OP_plus_uconst 0x7a]
    2660                      .dwattr $C$DW$339, DW_AT_accessibility(DW_ACCESS_public)
    2661              $C$DW$340       .dwtag  DW_TAG_member
    2662                      .dwattr $C$DW$340, DW_AT_type(*$C$DW$T$49)
    2663                      .dwattr $C$DW$340, DW_AT_name("motorParams")
    2664                      .dwattr $C$DW$340, DW_AT_TI_symbol_name("_motorParams")
    2665                      .dwattr $C$DW$340, DW_AT_data_member_location[DW_OP_plus_uconst 0x84]
    2666                      .dwattr $C$DW$340, DW_AT_accessibility(DW_ACCESS_public)
    2667              $C$DW$341       .dwtag  DW_TAG_member
    2668                      .dwattr $C$DW$341, DW_AT_type(*$C$DW$T$52)
    2669                      .dwattr $C$DW$341, DW_AT_name("waitTimes")
    2670                      .dwattr $C$DW$341, DW_AT_TI_symbol_name("_waitTimes")
    2671                      .dwattr $C$DW$341, DW_AT_data_member_location[DW_OP_plus_uconst 0x92]
    2672                      .dwattr $C$DW$341, DW_AT_accessibility(DW_ACCESS_public)
    2673              $C$DW$342       .dwtag  DW_TAG_member
    2674                      .dwattr $C$DW$342, DW_AT_type(*$C$DW$T$51)
    2675                      .dwattr $C$DW$342, DW_AT_name("counter_state")
    2676                      .dwattr $C$DW$342, DW_AT_TI_symbol_name("_counter_state")
    2677                      .dwattr $C$DW$342, DW_AT_data_member_location[DW_OP_plus_uconst 0x9a]
    2678                      .dwattr $C$DW$342, DW_AT_accessibility(DW_ACCESS_public)
    2679              $C$DW$343       .dwtag  DW_TAG_member
    2680                      .dwattr $C$DW$343, DW_AT_type(*$C$DW$T$53)
    2681                      .dwattr $C$DW$343, DW_AT_name("numIsrTicksPerCtrlTick")
    2682                      .dwattr $C$DW$343, DW_AT_TI_symbol_name("_numIsrTicksPerCtrlTick")
    2683                      .dwattr $C$DW$343, DW_AT_data_member_location[DW_OP_plus_uconst 0x9c]
    2684                      .dwattr $C$DW$343, DW_AT_accessibility(DW_ACCESS_public)
    2685              $C$DW$344       .dwtag  DW_TAG_member
    2686                      .dwattr $C$DW$344, DW_AT_type(*$C$DW$T$53)
    2687                      .dwattr $C$DW$344, DW_AT_name("numCtrlTicksPerCurrentTick")
    2688                      .dwattr $C$DW$344, DW_AT_TI_symbol_name("_numCtrlTicksPerCurrentTick")
    2689                      .dwattr $C$DW$344, DW_AT_data_member_location[DW_OP_plus_uconst 0x9d]
TMS320C2000 Assembler PC v6.2.5 Thu Jun 22 15:17:10 2017

Tools Copyright (c) 1996-2014 Texas Instruments Incorporated
C:\Users\wmj\AppData\Local\Temp\1174810                              PAGE   54

    2690                      .dwattr $C$DW$344, DW_AT_accessibility(DW_ACCESS_public)
    2691              $C$DW$345       .dwtag  DW_TAG_member
    2692                      .dwattr $C$DW$345, DW_AT_type(*$C$DW$T$53)
    2693                      .dwattr $C$DW$345, DW_AT_name("numCtrlTicksPerSpeedTick")
    2694                      .dwattr $C$DW$345, DW_AT_TI_symbol_name("_numCtrlTicksPerSpeedTick")
    2695                      .dwattr $C$DW$345, DW_AT_data_member_location[DW_OP_plus_uconst 0x9e]
    2696                      .dwattr $C$DW$345, DW_AT_accessibility(DW_ACCESS_public)
    2697              $C$DW$346       .dwtag  DW_TAG_member
    2698                      .dwattr $C$DW$346, DW_AT_type(*$C$DW$T$53)
    2699                      .dwattr $C$DW$346, DW_AT_name("numCtrlTicksPerTrajTick")
    2700                      .dwattr $C$DW$346, DW_AT_TI_symbol_name("_numCtrlTicksPerTrajTick")
    2701                      .dwattr $C$DW$346, DW_AT_data_member_location[DW_OP_plus_uconst 0x9f]
    2702                      .dwattr $C$DW$346, DW_AT_accessibility(DW_ACCESS_public)
    2703              $C$DW$347       .dwtag  DW_TAG_member
    2704                      .dwattr $C$DW$347, DW_AT_type(*$C$DW$T$51)
    2705                      .dwattr $C$DW$347, DW_AT_name("ctrlFreq_Hz")
    2706                      .dwattr $C$DW$347, DW_AT_TI_symbol_name("_ctrlFreq_Hz")
    2707                      .dwattr $C$DW$347, DW_AT_data_member_location[DW_OP_plus_uconst 0xa0]
    2708                      .dwattr $C$DW$347, DW_AT_accessibility(DW_ACCESS_public)
    2709              $C$DW$348       .dwtag  DW_TAG_member
    2710                      .dwattr $C$DW$348, DW_AT_type(*$C$DW$T$51)
    2711                      .dwattr $C$DW$348, DW_AT_name("trajFreq_Hz")
    2712                      .dwattr $C$DW$348, DW_AT_TI_symbol_name("_trajFreq_Hz")
    2713                      .dwattr $C$DW$348, DW_AT_data_member_location[DW_OP_plus_uconst 0xa2]
    2714                      .dwattr $C$DW$348, DW_AT_accessibility(DW_ACCESS_public)
    2715              $C$DW$349       .dwtag  DW_TAG_member
    2716                      .dwattr $C$DW$349, DW_AT_type(*$C$DW$T$20)
    2717                      .dwattr $C$DW$349, DW_AT_name("trajPeriod_sec")
    2718                      .dwattr $C$DW$349, DW_AT_TI_symbol_name("_trajPeriod_sec")
    2719                      .dwattr $C$DW$349, DW_AT_data_member_location[DW_OP_plus_uconst 0xa4]
    2720                      .dwattr $C$DW$349, DW_AT_accessibility(DW_ACCESS_public)
    2721              $C$DW$350       .dwtag  DW_TAG_member
    2722                      .dwattr $C$DW$350, DW_AT_type(*$C$DW$T$54)
    2723                      .dwattr $C$DW$350, DW_AT_name("ctrlPeriod_sec")
    2724                      .dwattr $C$DW$350, DW_AT_TI_symbol_name("_ctrlPeriod_sec")
    2725                      .dwattr $C$DW$350, DW_AT_data_member_location[DW_OP_plus_uconst 0xa6]
    2726                      .dwattr $C$DW$350, DW_AT_accessibility(DW_ACCESS_public)
    2727              $C$DW$351       .dwtag  DW_TAG_member
    2728                      .dwattr $C$DW$351, DW_AT_type(*$C$DW$T$20)
    2729                      .dwattr $C$DW$351, DW_AT_name("maxVsMag_pu")
    2730                      .dwattr $C$DW$351, DW_AT_TI_symbol_name("_maxVsMag_pu")
    2731                      .dwattr $C$DW$351, DW_AT_data_member_location[DW_OP_plus_uconst 0xa8]
    2732                      .dwattr $C$DW$351, DW_AT_accessibility(DW_ACCESS_public)
    2733              $C$DW$352       .dwtag  DW_TAG_member
    2734                      .dwattr $C$DW$352, DW_AT_type(*$C$DW$T$55)
    2735                      .dwattr $C$DW$352, DW_AT_name("Iab_in")
    2736                      .dwattr $C$DW$352, DW_AT_TI_symbol_name("_Iab_in")
    2737                      .dwattr $C$DW$352, DW_AT_data_member_location[DW_OP_plus_uconst 0xaa]
    2738                      .dwattr $C$DW$352, DW_AT_accessibility(DW_ACCESS_public)
    2739              $C$DW$353       .dwtag  DW_TAG_member
    2740                      .dwattr $C$DW$353, DW_AT_type(*$C$DW$T$55)
    2741                      .dwattr $C$DW$353, DW_AT_name("Iab_filt")
    2742                      .dwattr $C$DW$353, DW_AT_TI_symbol_name("_Iab_filt")
    2743                      .dwattr $C$DW$353, DW_AT_data_member_location[DW_OP_plus_uconst 0xae]
    2744                      .dwattr $C$DW$353, DW_AT_accessibility(DW_ACCESS_public)
TMS320C2000 Assembler PC v6.2.5 Thu Jun 22 15:17:10 2017

Tools Copyright (c) 1996-2014 Texas Instruments Incorporated
C:\Users\wmj\AppData\Local\Temp\1174810                              PAGE   55

    2745              $C$DW$354       .dwtag  DW_TAG_member
    2746                      .dwattr $C$DW$354, DW_AT_type(*$C$DW$T$55)
    2747                      .dwattr $C$DW$354, DW_AT_name("Idq_in")
    2748                      .dwattr $C$DW$354, DW_AT_TI_symbol_name("_Idq_in")
    2749                      .dwattr $C$DW$354, DW_AT_data_member_location[DW_OP_plus_uconst 0xb2]
    2750                      .dwattr $C$DW$354, DW_AT_accessibility(DW_ACCESS_public)
    2751              $C$DW$355       .dwtag  DW_TAG_member
    2752                      .dwattr $C$DW$355, DW_AT_type(*$C$DW$T$55)
    2753                      .dwattr $C$DW$355, DW_AT_name("Vab_in")
    2754                      .dwattr $C$DW$355, DW_AT_TI_symbol_name("_Vab_in")
    2755                      .dwattr $C$DW$355, DW_AT_data_member_location[DW_OP_plus_uconst 0xb6]
    2756                      .dwattr $C$DW$355, DW_AT_accessibility(DW_ACCESS_public)
    2757              $C$DW$356       .dwtag  DW_TAG_member
    2758                      .dwattr $C$DW$356, DW_AT_type(*$C$DW$T$20)
    2759                      .dwattr $C$DW$356, DW_AT_name("spd_out")
    2760                      .dwattr $C$DW$356, DW_AT_TI_symbol_name("_spd_out")
    2761                      .dwattr $C$DW$356, DW_AT_data_member_location[DW_OP_plus_uconst 0xba]
    2762                      .dwattr $C$DW$356, DW_AT_accessibility(DW_ACCESS_public)
    2763              $C$DW$357       .dwtag  DW_TAG_member
    2764                      .dwattr $C$DW$357, DW_AT_type(*$C$DW$T$55)
    2765                      .dwattr $C$DW$357, DW_AT_name("Vab_out")
    2766                      .dwattr $C$DW$357, DW_AT_TI_symbol_name("_Vab_out")
    2767                      .dwattr $C$DW$357, DW_AT_data_member_location[DW_OP_plus_uconst 0xbc]
    2768                      .dwattr $C$DW$357, DW_AT_accessibility(DW_ACCESS_public)
    2769              $C$DW$358       .dwtag  DW_TAG_member
    2770                      .dwattr $C$DW$358, DW_AT_type(*$C$DW$T$55)
    2771                      .dwattr $C$DW$358, DW_AT_name("Vdq_out")
    2772                      .dwattr $C$DW$358, DW_AT_TI_symbol_name("_Vdq_out")
    2773                      .dwattr $C$DW$358, DW_AT_data_member_location[DW_OP_plus_uconst 0xc0]
    2774                      .dwattr $C$DW$358, DW_AT_accessibility(DW_ACCESS_public)
    2775              $C$DW$359       .dwtag  DW_TAG_member
    2776                      .dwattr $C$DW$359, DW_AT_type(*$C$DW$T$54)
    2777                      .dwattr $C$DW$359, DW_AT_name("Rhf")
    2778                      .dwattr $C$DW$359, DW_AT_TI_symbol_name("_Rhf")
    2779                      .dwattr $C$DW$359, DW_AT_data_member_location[DW_OP_plus_uconst 0xc4]
    2780                      .dwattr $C$DW$359, DW_AT_accessibility(DW_ACCESS_public)
    2781              $C$DW$360       .dwtag  DW_TAG_member
    2782                      .dwattr $C$DW$360, DW_AT_type(*$C$DW$T$54)
    2783                      .dwattr $C$DW$360, DW_AT_name("Lhf")
    2784                      .dwattr $C$DW$360, DW_AT_TI_symbol_name("_Lhf")
    2785                      .dwattr $C$DW$360, DW_AT_data_member_location[DW_OP_plus_uconst 0xc6]
    2786                      .dwattr $C$DW$360, DW_AT_accessibility(DW_ACCESS_public)
    2787              $C$DW$361       .dwtag  DW_TAG_member
    2788                      .dwattr $C$DW$361, DW_AT_type(*$C$DW$T$54)
    2789                      .dwattr $C$DW$361, DW_AT_name("RoverL")
    2790                      .dwattr $C$DW$361, DW_AT_TI_symbol_name("_RoverL")
    2791                      .dwattr $C$DW$361, DW_AT_data_member_location[DW_OP_plus_uconst 0xc8]
    2792                      .dwattr $C$DW$361, DW_AT_accessibility(DW_ACCESS_public)
    2793              $C$DW$362       .dwtag  DW_TAG_member
    2794                      .dwattr $C$DW$362, DW_AT_type(*$C$DW$T$20)
    2795                      .dwattr $C$DW$362, DW_AT_name("Kp_Id")
    2796                      .dwattr $C$DW$362, DW_AT_TI_symbol_name("_Kp_Id")
    2797                      .dwattr $C$DW$362, DW_AT_data_member_location[DW_OP_plus_uconst 0xca]
    2798                      .dwattr $C$DW$362, DW_AT_accessibility(DW_ACCESS_public)
    2799              $C$DW$363       .dwtag  DW_TAG_member
TMS320C2000 Assembler PC v6.2.5 Thu Jun 22 15:17:10 2017

Tools Copyright (c) 1996-2014 Texas Instruments Incorporated
C:\Users\wmj\AppData\Local\Temp\1174810                              PAGE   56

    2800                      .dwattr $C$DW$363, DW_AT_type(*$C$DW$T$20)
    2801                      .dwattr $C$DW$363, DW_AT_name("Kp_Iq")
    2802                      .dwattr $C$DW$363, DW_AT_TI_symbol_name("_Kp_Iq")
    2803                      .dwattr $C$DW$363, DW_AT_data_member_location[DW_OP_plus_uconst 0xcc]
    2804                      .dwattr $C$DW$363, DW_AT_accessibility(DW_ACCESS_public)
    2805              $C$DW$364       .dwtag  DW_TAG_member
    2806                      .dwattr $C$DW$364, DW_AT_type(*$C$DW$T$20)
    2807                      .dwattr $C$DW$364, DW_AT_name("Kp_spd")
    2808                      .dwattr $C$DW$364, DW_AT_TI_symbol_name("_Kp_spd")
    2809                      .dwattr $C$DW$364, DW_AT_data_member_location[DW_OP_plus_uconst 0xce]
    2810                      .dwattr $C$DW$364, DW_AT_accessibility(DW_ACCESS_public)
    2811              $C$DW$365       .dwtag  DW_TAG_member
    2812                      .dwattr $C$DW$365, DW_AT_type(*$C$DW$T$20)
    2813                      .dwattr $C$DW$365, DW_AT_name("Ki_Id")
    2814                      .dwattr $C$DW$365, DW_AT_TI_symbol_name("_Ki_Id")
    2815                      .dwattr $C$DW$365, DW_AT_data_member_location[DW_OP_plus_uconst 0xd0]
    2816                      .dwattr $C$DW$365, DW_AT_accessibility(DW_ACCESS_public)
    2817              $C$DW$366       .dwtag  DW_TAG_member
    2818                      .dwattr $C$DW$366, DW_AT_type(*$C$DW$T$20)
    2819                      .dwattr $C$DW$366, DW_AT_name("Ki_Iq")
    2820                      .dwattr $C$DW$366, DW_AT_TI_symbol_name("_Ki_Iq")
    2821                      .dwattr $C$DW$366, DW_AT_data_member_location[DW_OP_plus_uconst 0xd2]
    2822                      .dwattr $C$DW$366, DW_AT_accessibility(DW_ACCESS_public)
    2823              $C$DW$367       .dwtag  DW_TAG_member
    2824                      .dwattr $C$DW$367, DW_AT_type(*$C$DW$T$20)
    2825                      .dwattr $C$DW$367, DW_AT_name("Ki_spd")
    2826                      .dwattr $C$DW$367, DW_AT_TI_symbol_name("_Ki_spd")
    2827                      .dwattr $C$DW$367, DW_AT_data_member_location[DW_OP_plus_uconst 0xd4]
    2828                      .dwattr $C$DW$367, DW_AT_accessibility(DW_ACCESS_public)
    2829              $C$DW$368       .dwtag  DW_TAG_member
    2830                      .dwattr $C$DW$368, DW_AT_type(*$C$DW$T$20)
    2831                      .dwattr $C$DW$368, DW_AT_name("Kd_Id")
    2832                      .dwattr $C$DW$368, DW_AT_TI_symbol_name("_Kd_Id")
    2833                      .dwattr $C$DW$368, DW_AT_data_member_location[DW_OP_plus_uconst 0xd6]
    2834                      .dwattr $C$DW$368, DW_AT_accessibility(DW_ACCESS_public)
    2835              $C$DW$369       .dwtag  DW_TAG_member
    2836                      .dwattr $C$DW$369, DW_AT_type(*$C$DW$T$20)
    2837                      .dwattr $C$DW$369, DW_AT_name("Kd_Iq")
    2838                      .dwattr $C$DW$369, DW_AT_TI_symbol_name("_Kd_Iq")
    2839                      .dwattr $C$DW$369, DW_AT_data_member_location[DW_OP_plus_uconst 0xd8]
    2840                      .dwattr $C$DW$369, DW_AT_accessibility(DW_ACCESS_public)
    2841              $C$DW$370       .dwtag  DW_TAG_member
    2842                      .dwattr $C$DW$370, DW_AT_type(*$C$DW$T$20)
    2843                      .dwattr $C$DW$370, DW_AT_name("Kd_spd")
    2844                      .dwattr $C$DW$370, DW_AT_TI_symbol_name("_Kd_spd")
    2845                      .dwattr $C$DW$370, DW_AT_data_member_location[DW_OP_plus_uconst 0xda]
    2846                      .dwattr $C$DW$370, DW_AT_accessibility(DW_ACCESS_public)
    2847              $C$DW$371       .dwtag  DW_TAG_member
    2848                      .dwattr $C$DW$371, DW_AT_type(*$C$DW$T$20)
    2849                      .dwattr $C$DW$371, DW_AT_name("Ui_Id")
    2850                      .dwattr $C$DW$371, DW_AT_TI_symbol_name("_Ui_Id")
    2851                      .dwattr $C$DW$371, DW_AT_data_member_location[DW_OP_plus_uconst 0xdc]
    2852                      .dwattr $C$DW$371, DW_AT_accessibility(DW_ACCESS_public)
    2853              $C$DW$372       .dwtag  DW_TAG_member
    2854                      .dwattr $C$DW$372, DW_AT_type(*$C$DW$T$20)
TMS320C2000 Assembler PC v6.2.5 Thu Jun 22 15:17:10 2017

Tools Copyright (c) 1996-2014 Texas Instruments Incorporated
C:\Users\wmj\AppData\Local\Temp\1174810                              PAGE   57

    2855                      .dwattr $C$DW$372, DW_AT_name("Ui_Iq")
    2856                      .dwattr $C$DW$372, DW_AT_TI_symbol_name("_Ui_Iq")
    2857                      .dwattr $C$DW$372, DW_AT_data_member_location[DW_OP_plus_uconst 0xde]
    2858                      .dwattr $C$DW$372, DW_AT_accessibility(DW_ACCESS_public)
    2859              $C$DW$373       .dwtag  DW_TAG_member
    2860                      .dwattr $C$DW$373, DW_AT_type(*$C$DW$T$20)
    2861                      .dwattr $C$DW$373, DW_AT_name("Ui_spd")
    2862                      .dwattr $C$DW$373, DW_AT_TI_symbol_name("_Ui_spd")
    2863                      .dwattr $C$DW$373, DW_AT_data_member_location[DW_OP_plus_uconst 0xe0]
    2864                      .dwattr $C$DW$373, DW_AT_accessibility(DW_ACCESS_public)
    2865              $C$DW$374       .dwtag  DW_TAG_member
    2866                      .dwattr $C$DW$374, DW_AT_type(*$C$DW$T$55)
    2867                      .dwattr $C$DW$374, DW_AT_name("Idq_ref")
    2868                      .dwattr $C$DW$374, DW_AT_TI_symbol_name("_Idq_ref")
    2869                      .dwattr $C$DW$374, DW_AT_data_member_location[DW_OP_plus_uconst 0xe2]
    2870                      .dwattr $C$DW$374, DW_AT_accessibility(DW_ACCESS_public)
    2871              $C$DW$375       .dwtag  DW_TAG_member
    2872                      .dwattr $C$DW$375, DW_AT_type(*$C$DW$T$20)
    2873                      .dwattr $C$DW$375, DW_AT_name("IdRated")
    2874                      .dwattr $C$DW$375, DW_AT_TI_symbol_name("_IdRated")
    2875                      .dwattr $C$DW$375, DW_AT_data_member_location[DW_OP_plus_uconst 0xe6]
    2876                      .dwattr $C$DW$375, DW_AT_accessibility(DW_ACCESS_public)
    2877              $C$DW$376       .dwtag  DW_TAG_member
    2878                      .dwattr $C$DW$376, DW_AT_type(*$C$DW$T$20)
    2879                      .dwattr $C$DW$376, DW_AT_name("spd_ref")
    2880                      .dwattr $C$DW$376, DW_AT_TI_symbol_name("_spd_ref")
    2881                      .dwattr $C$DW$376, DW_AT_data_member_location[DW_OP_plus_uconst 0xe8]
    2882                      .dwattr $C$DW$376, DW_AT_accessibility(DW_ACCESS_public)
    2883              $C$DW$377       .dwtag  DW_TAG_member
    2884                      .dwattr $C$DW$377, DW_AT_type(*$C$DW$T$20)
    2885                      .dwattr $C$DW$377, DW_AT_name("spd_max")
    2886                      .dwattr $C$DW$377, DW_AT_TI_symbol_name("_spd_max")
    2887                      .dwattr $C$DW$377, DW_AT_data_member_location[DW_OP_plus_uconst 0xea]
    2888                      .dwattr $C$DW$377, DW_AT_accessibility(DW_ACCESS_public)
    2889              $C$DW$378       .dwtag  DW_TAG_member
    2890                      .dwattr $C$DW$378, DW_AT_type(*$C$DW$T$53)
    2891                      .dwattr $C$DW$378, DW_AT_name("counter_current")
    2892                      .dwattr $C$DW$378, DW_AT_TI_symbol_name("_counter_current")
    2893                      .dwattr $C$DW$378, DW_AT_data_member_location[DW_OP_plus_uconst 0xec]
    2894                      .dwattr $C$DW$378, DW_AT_accessibility(DW_ACCESS_public)
    2895              $C$DW$379       .dwtag  DW_TAG_member
    2896                      .dwattr $C$DW$379, DW_AT_type(*$C$DW$T$53)
    2897                      .dwattr $C$DW$379, DW_AT_name("counter_isr")
    2898                      .dwattr $C$DW$379, DW_AT_TI_symbol_name("_counter_isr")
    2899                      .dwattr $C$DW$379, DW_AT_data_member_location[DW_OP_plus_uconst 0xed]
    2900                      .dwattr $C$DW$379, DW_AT_accessibility(DW_ACCESS_public)
    2901              $C$DW$380       .dwtag  DW_TAG_member
    2902                      .dwattr $C$DW$380, DW_AT_type(*$C$DW$T$53)
    2903                      .dwattr $C$DW$380, DW_AT_name("counter_speed")
    2904                      .dwattr $C$DW$380, DW_AT_TI_symbol_name("_counter_speed")
    2905                      .dwattr $C$DW$380, DW_AT_data_member_location[DW_OP_plus_uconst 0xee]
    2906                      .dwattr $C$DW$380, DW_AT_accessibility(DW_ACCESS_public)
    2907              $C$DW$381       .dwtag  DW_TAG_member
    2908                      .dwattr $C$DW$381, DW_AT_type(*$C$DW$T$53)
    2909                      .dwattr $C$DW$381, DW_AT_name("counter_traj")
TMS320C2000 Assembler PC v6.2.5 Thu Jun 22 15:17:10 2017

Tools Copyright (c) 1996-2014 Texas Instruments Incorporated
C:\Users\wmj\AppData\Local\Temp\1174810                              PAGE   58

    2910                      .dwattr $C$DW$381, DW_AT_TI_symbol_name("_counter_traj")
    2911                      .dwattr $C$DW$381, DW_AT_data_member_location[DW_OP_plus_uconst 0xef]
    2912                      .dwattr $C$DW$381, DW_AT_accessibility(DW_ACCESS_public)
    2913              $C$DW$382       .dwtag  DW_TAG_member
    2914                      .dwattr $C$DW$382, DW_AT_type(*$C$DW$T$56)
    2915                      .dwattr $C$DW$382, DW_AT_name("flag_enableCtrl")
    2916                      .dwattr $C$DW$382, DW_AT_TI_symbol_name("_flag_enableCtrl")
    2917                      .dwattr $C$DW$382, DW_AT_data_member_location[DW_OP_plus_uconst 0xf0]
    2918                      .dwattr $C$DW$382, DW_AT_accessibility(DW_ACCESS_public)
    2919              $C$DW$383       .dwtag  DW_TAG_member
    2920                      .dwattr $C$DW$383, DW_AT_type(*$C$DW$T$56)
    2921                      .dwattr $C$DW$383, DW_AT_name("flag_enableDcBusComp")
    2922                      .dwattr $C$DW$383, DW_AT_TI_symbol_name("_flag_enableDcBusComp")
    2923                      .dwattr $C$DW$383, DW_AT_data_member_location[DW_OP_plus_uconst 0xf1]
    2924                      .dwattr $C$DW$383, DW_AT_accessibility(DW_ACCESS_public)
    2925              $C$DW$384       .dwtag  DW_TAG_member
    2926                      .dwattr $C$DW$384, DW_AT_type(*$C$DW$T$56)
    2927                      .dwattr $C$DW$384, DW_AT_name("flag_enablePowerWarp")
    2928                      .dwattr $C$DW$384, DW_AT_TI_symbol_name("_flag_enablePowerWarp")
    2929                      .dwattr $C$DW$384, DW_AT_data_member_location[DW_OP_plus_uconst 0xf2]
    2930                      .dwattr $C$DW$384, DW_AT_accessibility(DW_ACCESS_public)
    2931              $C$DW$385       .dwtag  DW_TAG_member
    2932                      .dwattr $C$DW$385, DW_AT_type(*$C$DW$T$56)
    2933                      .dwattr $C$DW$385, DW_AT_name("flag_enableOffset")
    2934                      .dwattr $C$DW$385, DW_AT_TI_symbol_name("_flag_enableOffset")
    2935                      .dwattr $C$DW$385, DW_AT_data_member_location[DW_OP_plus_uconst 0xf3]
    2936                      .dwattr $C$DW$385, DW_AT_accessibility(DW_ACCESS_public)
    2937              $C$DW$386       .dwtag  DW_TAG_member
    2938                      .dwattr $C$DW$386, DW_AT_type(*$C$DW$T$56)
    2939                      .dwattr $C$DW$386, DW_AT_name("flag_enableSpeedCtrl")
    2940                      .dwattr $C$DW$386, DW_AT_TI_symbol_name("_flag_enableSpeedCtrl")
    2941                      .dwattr $C$DW$386, DW_AT_data_member_location[DW_OP_plus_uconst 0xf4]
    2942                      .dwattr $C$DW$386, DW_AT_accessibility(DW_ACCESS_public)
    2943              $C$DW$387       .dwtag  DW_TAG_member
    2944                      .dwattr $C$DW$387, DW_AT_type(*$C$DW$T$56)
    2945                      .dwattr $C$DW$387, DW_AT_name("flag_enableUserMotorParams")
    2946                      .dwattr $C$DW$387, DW_AT_TI_symbol_name("_flag_enableUserMotorParams")
    2947                      .dwattr $C$DW$387, DW_AT_data_member_location[DW_OP_plus_uconst 0xf5]
    2948                      .dwattr $C$DW$387, DW_AT_accessibility(DW_ACCESS_public)
