TMS320C2000 Assembler PC v6.2.5 Wed Jun 21 14:56:38 2017

Tools Copyright (c) 1996-2014 Texas Instruments Incorporated
C:\Users\wmj\AppData\Local\Temp\0706010                              PAGE    1

       1              ;***************************************************************
       2              ;* TMS320C2000 C/C++ Codegen                         PC v6.2.5 *
       3              ;* Date/Time created: Wed Jun 21 14:56:38 2017                 *
       4              ;***************************************************************
       5                      .compiler_opts --float_support=softlib --hll_source=on --mem_model:code=flat --mem_model:data=large -
       6        0002  FP      .set    XAR2
       7              
       8              $C$DW$CU        .dwtag  DW_TAG_compile_unit
       9                      .dwattr $C$DW$CU, DW_AT_name("C:/ti/motorware/motorware_1_01_00_18/sw/modules/diagnostic/graph/src/32
      10                      .dwattr $C$DW$CU, DW_AT_producer("TMS320C2000 C/C++ Codegen PC v6.2.5 Copyright (c) 1996-2014 Texas I
      11                      .dwattr $C$DW$CU, DW_AT_TI_version(0x01)
      12                      .dwattr $C$DW$CU, DW_AT_comp_dir("C:\ti\motorware\motorware_1_01_00_18\sw\solutions\instaspin_foc\boa
      13              
      14              $C$DW$1 .dwtag  DW_TAG_subprogram, DW_AT_name("EST_getSpeed_krpm")
      15                      .dwattr $C$DW$1, DW_AT_TI_symbol_name("_EST_getSpeed_krpm")
      16                      .dwattr $C$DW$1, DW_AT_type(*$C$DW$T$20)
      17                      .dwattr $C$DW$1, DW_AT_declaration
      18                      .dwattr $C$DW$1, DW_AT_external
      19              $C$DW$2 .dwtag  DW_TAG_formal_parameter
      20                      .dwattr $C$DW$2, DW_AT_type(*$C$DW$T$36)
      21                      .dwendtag $C$DW$1
      22              
      23              
      24              $C$DW$3 .dwtag  DW_TAG_subprogram, DW_AT_name("__IQmpy")
      25                      .dwattr $C$DW$3, DW_AT_TI_symbol_name("___IQmpy")
      26                      .dwattr $C$DW$3, DW_AT_type(*$C$DW$T$12)
      27                      .dwattr $C$DW$3, DW_AT_declaration
      28                      .dwattr $C$DW$3, DW_AT_external
      29              $C$DW$4 .dwtag  DW_TAG_formal_parameter
      30                      .dwattr $C$DW$4, DW_AT_type(*$C$DW$T$12)
      31              $C$DW$5 .dwtag  DW_TAG_formal_parameter
      32                      .dwattr $C$DW$5, DW_AT_type(*$C$DW$T$12)
      33              $C$DW$6 .dwtag  DW_TAG_formal_parameter
      34                      .dwattr $C$DW$6, DW_AT_type(*$C$DW$T$10)
      35                      .dwendtag $C$DW$3
      36              
      37              ;       c:\ti\ccsv6\tools\compiler\c2000_6.2.5\bin\opt2000.exe C:\\Users\\wmj\\AppData\\Local\\Temp\\070602 C
      38              ;       c:\ti\ccsv6\tools\compiler\c2000_6.2.5\bin\ac2000.exe -@C:\\Users\\wmj\\AppData\\Local\\Temp\\0706016
      39 00000000               .sect   ".text"
      40                      .clink
      41                      .global _BufferIn
      42              
      43              $C$DW$7 .dwtag  DW_TAG_subprogram, DW_AT_name("BufferIn")
      44                      .dwattr $C$DW$7, DW_AT_low_pc(_BufferIn)
      45                      .dwattr $C$DW$7, DW_AT_high_pc(0x00)
      46                      .dwattr $C$DW$7, DW_AT_TI_symbol_name("_BufferIn")
      47                      .dwattr $C$DW$7, DW_AT_external
      48                      .dwattr $C$DW$7, DW_AT_type(*$C$DW$T$22)
      49                      .dwattr $C$DW$7, DW_AT_TI_begin_file("C:/ti/motorware/motorware_1_01_00_18/sw/modules/diagnostic/grap
      50                      .dwattr $C$DW$7, DW_AT_TI_begin_line(0x4b)
      51                      .dwattr $C$DW$7, DW_AT_TI_begin_column(0x09)
      52                      .dwattr $C$DW$7, DW_AT_TI_max_frame_size(-2)
      53                      .dwpsn  file "C:/ti/motorware/motorware_1_01_00_18/sw/modules/diagnostic/graph/src/32b/graph.c",line 
      54              
      55                      .dwfde $C$DW$CIE, _BufferIn
TMS320C2000 Assembler PC v6.2.5 Wed Jun 21 14:56:38 2017

Tools Copyright (c) 1996-2014 Texas Instruments Incorporated
C:\Users\wmj\AppData\Local\Temp\0706010                              PAGE    2

      56              $C$DW$8 .dwtag  DW_TAG_formal_parameter, DW_AT_name("pBuffer")
      57                      .dwattr $C$DW$8, DW_AT_TI_symbol_name("_pBuffer")
      58                      .dwattr $C$DW$8, DW_AT_type(*$C$DW$T$88)
      59                      .dwattr $C$DW$8, DW_AT_location[DW_OP_reg12]
      60              $C$DW$9 .dwtag  DW_TAG_formal_parameter, DW_AT_name("word")
      61                      .dwattr $C$DW$9, DW_AT_TI_symbol_name("_word")
      62                      .dwattr $C$DW$9, DW_AT_type(*$C$DW$T$22)
      63                      .dwattr $C$DW$9, DW_AT_location[DW_OP_reg0]
      64              
      65              ;***************************************************************
      66              ;* FNAME: _BufferIn                     FR SIZE:   0           *
      67              ;*                                                             *
      68              ;* FUNCTION ENVIRONMENT                                        *
      69              ;*                                                             *
      70              ;* FUNCTION PROPERTIES                                         *
      71              ;*                            0 Parameter,  0 Auto,  0 SOE     *
      72              ;***************************************************************
      73              
      74              _BufferIn:
      75              ;* AR4   assigned to _pBuffer
      76              $C$DW$10        .dwtag  DW_TAG_variable, DW_AT_name("pBuffer")
      77                      .dwattr $C$DW$10, DW_AT_TI_symbol_name("_pBuffer")
      78                      .dwattr $C$DW$10, DW_AT_type(*$C$DW$T$89)
      79                      .dwattr $C$DW$10, DW_AT_location[DW_OP_reg12]
      80              ;* AR6   assigned to _word
      81              $C$DW$11        .dwtag  DW_TAG_variable, DW_AT_name("word")
      82                      .dwattr $C$DW$11, DW_AT_TI_symbol_name("_word")
      83                      .dwattr $C$DW$11, DW_AT_type(*$C$DW$T$136)
      84                      .dwattr $C$DW$11, DW_AT_location[DW_OP_reg16]
      85              ;* AR7   assigned to _next
      86              $C$DW$12        .dwtag  DW_TAG_variable, DW_AT_name("next")
      87                      .dwattr $C$DW$12, DW_AT_TI_symbol_name("_next")
      88                      .dwattr $C$DW$12, DW_AT_type(*$C$DW$T$22)
      89                      .dwattr $C$DW$12, DW_AT_location[DW_OP_reg18]
      90                      .dwcfi  cfa_offset, -2
      91                      .dwcfi  save_reg_to_mem, 26, 0
      92                      .dwcfi  save_reg_to_reg, 78, 26
      93 00000000 1EA6          MOVL      XAR6,ACC              ; [CPU_] |76| 
      94                      .dwpsn  file "C:/ti/motorware/motorware_1_01_00_18/sw/modules/diagnostic/graph/src/32b/graph.c",line 
      95 00000001 8D00          MOVL      XAR0,#514             ; [CPU_] |77| 
         00000002 0202 
      96 00000003 0201          MOVB      ACC,#1                ; [CPU_] |77| 
      97 00000004 3B01          SETC      SXM                   ; [CPU_] 
      98                      .dwpsn  file "C:/ti/motorware/motorware_1_01_00_18/sw/modules/diagnostic/graph/src/32b/graph.c",line 
      99 00000005 83A4          MOVL      XAR5,XAR4             ; [CPU_] |80| 
     100                      .dwpsn  file "C:/ti/motorware/motorware_1_01_00_18/sw/modules/diagnostic/graph/src/32b/graph.c",line 
     101 00000006 0794          ADDL      ACC,*+XAR4[AR0]       ; [CPU_] |77| 
     102 00000007 9B00          MOVB      AH,#0                 ; [CPU_] |77| 
     103 00000008 90FF          ANDB      AL,#0xff              ; [CPU_] |77| 
     104 00000009 1EA7          MOVL      XAR7,ACC              ; [CPU_] |77| 
     105                      .dwpsn  file "C:/ti/motorware/motorware_1_01_00_18/sw/modules/diagnostic/graph/src/32b/graph.c",line 
     106 0000000a 0694          MOVL      ACC,*+XAR4[AR0]       ; [CPU_] |80| 
     107 0000000b 5603          MOV       ACC,AL << #1          ; [CPU_] |80| 
         0000000c 01A9 
     108 0000000d 85A9          MOV       ACC,AL                ; [CPU_] |80| 
TMS320C2000 Assembler PC v6.2.5 Wed Jun 21 14:56:38 2017

Tools Copyright (c) 1996-2014 Texas Instruments Incorporated
C:\Users\wmj\AppData\Local\Temp\0706010                              PAGE    3

     109 0000000e 9B00          MOVB      AH,#0                 ; [CPU_] |80| 
     110 0000000f 18A9          AND       AL,#0x01ff            ; [CPU_] |80| 
         00000010 01FF 
     111 00000011 5601          ADDL      XAR5,ACC              ; [CPU_] |80| 
         00000012 00A5 
     112                      .dwpsn  file "C:/ti/motorware/motorware_1_01_00_18/sw/modules/diagnostic/graph/src/32b/graph.c",line 
     113 00000013 0201          MOVB      ACC,#1                ; [CPU_] |82| 
     114                      .dwpsn  file "C:/ti/motorware/motorware_1_01_00_18/sw/modules/diagnostic/graph/src/32b/graph.c",line 
     115 00000014 C2C5          MOVL      *+XAR5[0],XAR6        ; [CPU_] |80| 
     116                      .dwpsn  file "C:/ti/motorware/motorware_1_01_00_18/sw/modules/diagnostic/graph/src/32b/graph.c",line 
     117 00000015 C394          MOVL      *+XAR4[AR0],XAR7      ; [CPU_] |81| 
     118              $C$DW$13        .dwtag  DW_TAG_TI_branch
     119                      .dwattr $C$DW$13, DW_AT_low_pc(0x00)
     120                      .dwattr $C$DW$13, DW_AT_TI_return
     121 00000016 0006          LRETR     ; [CPU_] 
     122                      ; return occurs ; [] 
     123                      .dwattr $C$DW$7, DW_AT_TI_end_file("C:/ti/motorware/motorware_1_01_00_18/sw/modules/diagnostic/graph/
     124                      .dwattr $C$DW$7, DW_AT_TI_end_line(0x53)
     125                      .dwattr $C$DW$7, DW_AT_TI_end_column(0x01)
     126                      .dwendentry
     127                      .dwendtag $C$DW$7
     128              
     129 00000017               .sect   ".text"
     130                      .clink
     131                      .global _BufferInit
     132              
     133              $C$DW$14        .dwtag  DW_TAG_subprogram, DW_AT_name("BufferInit")
     134                      .dwattr $C$DW$14, DW_AT_low_pc(_BufferInit)
     135                      .dwattr $C$DW$14, DW_AT_high_pc(0x00)
     136                      .dwattr $C$DW$14, DW_AT_TI_symbol_name("_BufferInit")
     137                      .dwattr $C$DW$14, DW_AT_external
     138                      .dwattr $C$DW$14, DW_AT_TI_begin_file("C:/ti/motorware/motorware_1_01_00_18/sw/modules/diagnostic/gra
     139                      .dwattr $C$DW$14, DW_AT_TI_begin_line(0x58)
     140                      .dwattr $C$DW$14, DW_AT_TI_begin_column(0x06)
     141                      .dwattr $C$DW$14, DW_AT_TI_max_frame_size(-2)
     142                      .dwpsn  file "C:/ti/motorware/motorware_1_01_00_18/sw/modules/diagnostic/graph/src/32b/graph.c",line 
     143              
     144                      .dwfde $C$DW$CIE, _BufferInit
     145              $C$DW$15        .dwtag  DW_TAG_formal_parameter, DW_AT_name("pGraphVars")
     146                      .dwattr $C$DW$15, DW_AT_TI_symbol_name("_pGraphVars")
     147                      .dwattr $C$DW$15, DW_AT_type(*$C$DW$T$100)
     148                      .dwattr $C$DW$15, DW_AT_location[DW_OP_reg12]
     149              
     150              ;***************************************************************
     151              ;* FNAME: _BufferInit                   FR SIZE:   0           *
     152              ;*                                                             *
     153              ;* FUNCTION ENVIRONMENT                                        *
     154              ;*                                                             *
     155              ;* FUNCTION PROPERTIES                                         *
     156              ;*                            0 Parameter,  0 Auto,  0 SOE     *
     157              ;***************************************************************
     158              
     159              _BufferInit:
     160              ;* AR5   assigned to $O$C1
     161              ;* AR4   assigned to _pGraphVars
TMS320C2000 Assembler PC v6.2.5 Wed Jun 21 14:56:38 2017

Tools Copyright (c) 1996-2014 Texas Instruments Incorporated
C:\Users\wmj\AppData\Local\Temp\0706010                              PAGE    4

     162              $C$DW$16        .dwtag  DW_TAG_variable, DW_AT_name("pGraphVars")
     163                      .dwattr $C$DW$16, DW_AT_TI_symbol_name("_pGraphVars")
     164                      .dwattr $C$DW$16, DW_AT_type(*$C$DW$T$101)
     165                      .dwattr $C$DW$16, DW_AT_location[DW_OP_reg12]
     166              ;* AR6   assigned to $O$L1
     167              ;* AL    assigned to $O$U5
     168                      .dwcfi  cfa_offset, -2
     169                      .dwcfi  save_reg_to_mem, 26, 0
     170                      .dwcfi  save_reg_to_reg, 78, 26
     171 00000017 0200          MOVB      ACC,#0                ; [CPU_] 
     172 00000018 BE01          MOVB      XAR6,#1               ; [CPU_] 
     173                      .dwpsn  file "C:/ti/motorware/motorware_1_01_00_18/sw/modules/diagnostic/graph/src/32b/graph.c",line 
     174 00000019 B600          MOVB      XAR7,#0               ; [CPU_] |93| 
     175 0000001a       $C$L1:    
     176 0000001a 83A4          MOVL      XAR5,XAR4             ; [CPU_] |93| 
     177 0000001b 5601          ADDL      XAR5,ACC              ; [CPU_] |93| 
         0000001c 00A5 
     178 0000001d 8D00          MOVL      XAR0,#512             ; [CPU_] |93| 
         0000001e 0200 
     179                      .dwpsn  file "C:/ti/motorware/motorware_1_01_00_18/sw/modules/diagnostic/graph/src/32b/graph.c",line 
     180 0000001f FF12          ADD       ACC,#129 << 2         ; [CPU_] |91| 
         00000020 0081 
     181                      .dwpsn  file "C:/ti/motorware/motorware_1_01_00_18/sw/modules/diagnostic/graph/src/32b/graph.c",line 
     182 00000021 DD0E          ADDB      XAR5,#14              ; [CPU_] |93| 
     183 00000022 C395          MOVL      *+XAR5[AR0],XAR7      ; [CPU_] |93| 
     184 00000023 8D00          MOVL      XAR0,#514             ; [CPU_] |93| 
         00000024 0202 
     185 00000025 C395          MOVL      *+XAR5[AR0],XAR7      ; [CPU_] |93| 
     186                      .dwpsn  file "C:/ti/motorware/motorware_1_01_00_18/sw/modules/diagnostic/graph/src/32b/graph.c",line 
     187 00000026 000E          BANZ      $C$L1,AR6--           ; [CPU_] |91| 
         00000027 FFF4 
     188                      ; branchcc occurs ; [] |91| 
     189                      .dwpsn  file "C:/ti/motorware/motorware_1_01_00_18/sw/modules/diagnostic/graph/src/32b/graph.c",line 
     190 00000028 0200          MOVB      ACC,#0                ; [CPU_] |95| 
     191 00000029 1EE4          MOVL      *+XAR4[4],ACC         ; [CPU_] |95| 
     192 0000002a 1EC4          MOVL      *+XAR4[0],ACC         ; [CPU_] |95| 
     193 0000002b 1ED4          MOVL      *+XAR4[2],ACC         ; [CPU_] |95| 
     194              $C$DW$17        .dwtag  DW_TAG_TI_branch
     195                      .dwattr $C$DW$17, DW_AT_low_pc(0x00)
     196                      .dwattr $C$DW$17, DW_AT_TI_return
     197 0000002c 0006          LRETR     ; [CPU_] 
     198                      ; return occurs ; [] 
     199                      .dwattr $C$DW$14, DW_AT_TI_end_file("C:/ti/motorware/motorware_1_01_00_18/sw/modules/diagnostic/graph
     200                      .dwattr $C$DW$14, DW_AT_TI_end_line(0x60)
     201                      .dwattr $C$DW$14, DW_AT_TI_end_column(0x01)
     202                      .dwendentry
     203                      .dwendtag $C$DW$14
     204              
     205 0000002d               .sect   ".text"
     206                      .clink
     207                      .global _GRAPH_DATA
     208              
     209              $C$DW$18        .dwtag  DW_TAG_subprogram, DW_AT_name("GRAPH_DATA")
     210                      .dwattr $C$DW$18, DW_AT_low_pc(_GRAPH_DATA)
     211                      .dwattr $C$DW$18, DW_AT_high_pc(0x00)
TMS320C2000 Assembler PC v6.2.5 Wed Jun 21 14:56:38 2017

Tools Copyright (c) 1996-2014 Texas Instruments Incorporated
C:\Users\wmj\AppData\Local\Temp\0706010                              PAGE    5

     212                      .dwattr $C$DW$18, DW_AT_TI_symbol_name("_GRAPH_DATA")
     213                      .dwattr $C$DW$18, DW_AT_external
     214                      .dwattr $C$DW$18, DW_AT_TI_begin_file("C:/ti/motorware/motorware_1_01_00_18/sw/modules/diagnostic/gra
     215                      .dwattr $C$DW$18, DW_AT_TI_begin_line(0x82)
     216                      .dwattr $C$DW$18, DW_AT_TI_begin_column(0x06)
     217                      .dwattr $C$DW$18, DW_AT_TI_max_frame_size(-10)
     218                      .dwpsn  file "C:/ti/motorware/motorware_1_01_00_18/sw/modules/diagnostic/graph/src/32b/graph.c",line 
     219              
     220                      .dwfde $C$DW$CIE, _GRAPH_DATA
     221              $C$DW$19        .dwtag  DW_TAG_formal_parameter, DW_AT_name("pGraphVars")
     222                      .dwattr $C$DW$19, DW_AT_TI_symbol_name("_pGraphVars")
     223                      .dwattr $C$DW$19, DW_AT_type(*$C$DW$T$100)
     224                      .dwattr $C$DW$19, DW_AT_location[DW_OP_reg12]
     225              $C$DW$20        .dwtag  DW_TAG_formal_parameter, DW_AT_name("handle")
     226                      .dwattr $C$DW$20, DW_AT_TI_symbol_name("_handle")
     227                      .dwattr $C$DW$20, DW_AT_type(*$C$DW$T$95)
     228                      .dwattr $C$DW$20, DW_AT_location[DW_OP_reg14]
     229              $C$DW$21        .dwtag  DW_TAG_formal_parameter, DW_AT_name("pMotorVars")
     230                      .dwattr $C$DW$21, DW_AT_TI_symbol_name("_pMotorVars")
     231                      .dwattr $C$DW$21, DW_AT_type(*$C$DW$T$107)
     232                      .dwattr $C$DW$21, DW_AT_location[DW_OP_breg20 -12]
     233              $C$DW$22        .dwtag  DW_TAG_formal_parameter, DW_AT_name("trigger")
     234                      .dwattr $C$DW$22, DW_AT_TI_symbol_name("_trigger")
     235                      .dwattr $C$DW$22, DW_AT_type(*$C$DW$T$24)
     236                      .dwattr $C$DW$22, DW_AT_location[DW_OP_reg0]
     237              
     238              ;***************************************************************
     239              ;* FNAME: _GRAPH_DATA                   FR SIZE:   8           *
     240              ;*                                                             *
     241              ;* FUNCTION ENVIRONMENT                                        *
     242              ;*                                                             *
     243              ;* FUNCTION PROPERTIES                                         *
     244              ;*                            0 Parameter,  1 Auto,  6 SOE     *
     245              ;***************************************************************
     246              
     247              _GRAPH_DATA:
     248              ;* XT    assigned to $O$R1
     249              ;* XT    assigned to $O$R2
     250              ;* XT    assigned to $O$R3
     251              ;* AR1   assigned to _pGraphVars
     252              $C$DW$23        .dwtag  DW_TAG_variable, DW_AT_name("pGraphVars")
     253                      .dwattr $C$DW$23, DW_AT_TI_symbol_name("_pGraphVars")
     254                      .dwattr $C$DW$23, DW_AT_type(*$C$DW$T$101)
     255                      .dwattr $C$DW$23, DW_AT_location[DW_OP_reg6]
     256              ;* AR3   assigned to _handle
     257              $C$DW$24        .dwtag  DW_TAG_variable, DW_AT_name("handle")
     258                      .dwattr $C$DW$24, DW_AT_TI_symbol_name("_handle")
     259                      .dwattr $C$DW$24, DW_AT_type(*$C$DW$T$96)
     260                      .dwattr $C$DW$24, DW_AT_location[DW_OP_reg10]
     261              ;* AR2   assigned to _pMotorVars
     262              $C$DW$25        .dwtag  DW_TAG_variable, DW_AT_name("pMotorVars")
     263                      .dwattr $C$DW$25, DW_AT_TI_symbol_name("_pMotorVars")
     264                      .dwattr $C$DW$25, DW_AT_type(*$C$DW$T$108)
     265                      .dwattr $C$DW$25, DW_AT_location[DW_OP_reg8]
     266              $C$DW$26        .dwtag  DW_TAG_variable, DW_AT_name("trigger")
TMS320C2000 Assembler PC v6.2.5 Wed Jun 21 14:56:38 2017

Tools Copyright (c) 1996-2014 Texas Instruments Incorporated
C:\Users\wmj\AppData\Local\Temp\0706010                              PAGE    6

     267                      .dwattr $C$DW$26, DW_AT_TI_symbol_name("_trigger")
     268                      .dwattr $C$DW$26, DW_AT_type(*$C$DW$T$116)
     269                      .dwattr $C$DW$26, DW_AT_location[DW_OP_breg20 -1]
     270              ;* AR7   assigned to _TriggerValue
     271              $C$DW$27        .dwtag  DW_TAG_variable, DW_AT_name("TriggerValue")
     272                      .dwattr $C$DW$27, DW_AT_TI_symbol_name("_TriggerValue")
     273                      .dwattr $C$DW$27, DW_AT_type(*$C$DW$T$20)
     274                      .dwattr $C$DW$27, DW_AT_location[DW_OP_reg18]
     275              ;* AR6   assigned to _gData
     276              $C$DW$28        .dwtag  DW_TAG_variable, DW_AT_name("gData")
     277                      .dwattr $C$DW$28, DW_AT_TI_symbol_name("_gData")
     278                      .dwattr $C$DW$28, DW_AT_type(*$C$DW$T$20)
     279                      .dwattr $C$DW$28, DW_AT_location[DW_OP_reg16]
     280              ;* AR6   assigned to _gData
     281              $C$DW$29        .dwtag  DW_TAG_variable, DW_AT_name("gData")
     282                      .dwattr $C$DW$29, DW_AT_TI_symbol_name("_gData")
     283                      .dwattr $C$DW$29, DW_AT_type(*$C$DW$T$20)
     284                      .dwattr $C$DW$29, DW_AT_location[DW_OP_reg16]
     285              ;* AR6   assigned to _gData
     286              $C$DW$30        .dwtag  DW_TAG_variable, DW_AT_name("gData")
     287                      .dwattr $C$DW$30, DW_AT_TI_symbol_name("_gData")
     288                      .dwattr $C$DW$30, DW_AT_type(*$C$DW$T$20)
     289                      .dwattr $C$DW$30, DW_AT_location[DW_OP_reg16]
     290              ;* AR6   assigned to _gData
     291              $C$DW$31        .dwtag  DW_TAG_variable, DW_AT_name("gData")
     292                      .dwattr $C$DW$31, DW_AT_TI_symbol_name("_gData")
     293                      .dwattr $C$DW$31, DW_AT_type(*$C$DW$T$20)
     294                      .dwattr $C$DW$31, DW_AT_location[DW_OP_reg16]
     295              ;* AR6   assigned to _gData
     296              $C$DW$32        .dwtag  DW_TAG_variable, DW_AT_name("gData")
     297                      .dwattr $C$DW$32, DW_AT_TI_symbol_name("_gData")
     298                      .dwattr $C$DW$32, DW_AT_type(*$C$DW$T$20)
     299                      .dwattr $C$DW$32, DW_AT_location[DW_OP_reg16]
     300                      .dwcfi  cfa_offset, -2
     301                      .dwcfi  save_reg_to_mem, 26, 0
     302                      .dwcfi  save_reg_to_reg, 78, 26
     303 0000002d B2BD          MOVL      *SP++,XAR1            ; [CPU_] 
     304                      .dwcfi  save_reg_to_mem, 7, 2
     305                      .dwcfi  cfa_offset, -4
     306 0000002e AABD          MOVL      *SP++,XAR2            ; [CPU_] 
     307                      .dwcfi  save_reg_to_mem, 9, 4
     308                      .dwcfi  cfa_offset, -6
     309 0000002f A2BD          MOVL      *SP++,XAR3            ; [CPU_] 
     310                      .dwcfi  save_reg_to_mem, 11, 6
     311                      .dwcfi  cfa_offset, -8
     312 00000030 FE02          ADDB      SP,#2                 ; [CPU_U] 
     313                      .dwcfi  cfa_offset, -10
     314                      .dwpsn  file "C:/ti/motorware/motorware_1_01_00_18/sw/modules/diagnostic/graph/src/32b/graph.c",line 
     315 00000031 D008          MOVB      XAR0,#8               ; [CPU_] |133| 
     316                      .dwpsn  file "C:/ti/motorware/motorware_1_01_00_18/sw/modules/diagnostic/graph/src/32b/graph.c",line 
     317 00000032 8BA4          MOVL      XAR1,XAR4             ; [CPU_] |131| 
     318 00000033 9641          MOV       *-SP[1],AL            ; [CPU_] |131| 
     319                      .dwpsn  file "C:/ti/motorware/motorware_1_01_00_18/sw/modules/diagnostic/graph/src/32b/graph.c",line 
     320 00000034 C491          MOVL      XAR6,*+XAR1[AR0]      ; [CPU_] |133| 
     321 00000035 0201          MOVB      ACC,#1                ; [CPU_] |133| 
TMS320C2000 Assembler PC v6.2.5 Wed Jun 21 14:56:38 2017

Tools Copyright (c) 1996-2014 Texas Instruments Incorporated
C:\Users\wmj\AppData\Local\Temp\0706010                              PAGE    7

     322                      .dwpsn  file "C:/ti/motorware/motorware_1_01_00_18/sw/modules/diagnostic/graph/src/32b/graph.c",line 
     323 00000036 864C          MOVL      XAR2,*-SP[12]         ; [CPU_] |131| 
     324 00000037 82A5          MOVL      XAR3,XAR5             ; [CPU_] |131| 
     325                      .dwpsn  file "C:/ti/motorware/motorware_1_01_00_18/sw/modules/diagnostic/graph/src/32b/graph.c",line 
     326 00000038 0FA6          CMPL      ACC,XAR6              ; [CPU_] |133| 
     327 00000039 EC78          BF        $C$L9,EQ              ; [CPU_] |133| 
     328                      ; branchcc occurs ; [] |133| 
     329 0000003a 0202          MOVB      ACC,#2                ; [CPU_] |133| 
     330 0000003b 0FA6          CMPL      ACC,XAR6              ; [CPU_] |133| 
     331 0000003c EC44          BF        $C$L6,EQ              ; [CPU_] |133| 
     332                      ; branchcc occurs ; [] |133| 
     333 0000003d 0203          MOVB      ACC,#3                ; [CPU_] |133| 
     334 0000003e 0FA6          CMPL      ACC,XAR6              ; [CPU_] |133| 
     335 0000003f 56C0          BF        $C$L16,NEQ            ; [CPU_] |133| 
         00000040 00A7 
     336                      ; branchcc occurs ; [] |133| 
     337                      .dwpsn  file "C:/ti/motorware/motorware_1_01_00_18/sw/modules/ctrl/src/32b/ctrl.h",line 396,column 3,
     338 00000041 D0B4          MOVB      XAR0,#180             ; [CPU_] |396| 
     339                      .dwpsn  file "C:/ti/motorware/motorware_1_01_00_18/sw/modules/diagnostic/graph/src/32b/graph.c",line 
     340 00000042 FF2F          MOV       ACC,#3072 << 15       ; [CPU_] |145| 
         00000043 0C00 
     341                      .dwpsn  file "C:/ti/motorware/motorware_1_01_00_18/sw/modules/ctrl/src/32b/ctrl.h",line 396,column 3,
     342 00000044 8793          MOVL      XT,*+XAR3[AR0]        ; [CPU_] |396| 
     343                      .dwpsn  file "C:/ti/motorware/motorware_1_01_00_18/sw/modules/diagnostic/graph/src/32b/graph.c",line 
     344 00000045 D016          MOVB      XAR0,#22              ; [CPU_] |145| 
     345 00000046 5605          IMPYL     P,XT,ACC              ; [CPU_] |145| 
         00000047 00A9 
     346 00000048 5663          QMPYL     ACC,XT,ACC            ; [CPU_] |145| 
         00000049 00A9 
     347 0000004a 56A7          LSL64     ACC:P,#8              ; [CPU_] |145| 
     348 0000004b 1EA6          MOVL      XAR6,ACC              ; [CPU_] |145| 
     349 0000004c 0692          MOVL      ACC,*+XAR2[AR0]       ; [CPU_] |145| 
     350                      .dwpsn  file "C:/ti/motorware/motorware_1_01_00_18/sw/modules/diagnostic/graph/src/32b/graph.c",line 
     351 0000004d 06D1          MOVL      ACC,*+XAR1[2]         ; [CPU_] |106| 
     352                      .dwpsn  file "C:/ti/motorware/motorware_1_01_00_18/sw/modules/diagnostic/graph/src/32b/graph.c",line 
     353 0000004e 0201          MOVB      ACC,#1                ; [CPU_] |117| 
     354 0000004f 0FC1          CMPL      ACC,*+XAR1[0]         ; [CPU_] |117| 
     355 00000050 EC03          BF        $C$L2,EQ              ; [CPU_] |117| 
     356                      ; branchcc occurs ; [] |117| 
     357 00000051 D00C          MOVB      XAR0,#12              ; [CPU_] |117| 
     358 00000052 0691          MOVL      ACC,*+XAR1[AR0]       ; [CPU_] |117| 
     359 00000053       $C$L2:    
     360                      .dwpsn  file "C:/ti/motorware/motorware_1_01_00_18/sw/modules/diagnostic/graph/src/32b/graph.c",line 
     361 00000053 FF20          MOV       ACC,#256              ; [CPU_] |121| 
         00000054 0100 
     362 00000055 0FD1          CMPL      ACC,*+XAR1[2]         ; [CPU_] |121| 
     363 00000056 690E          B         $C$L3,LOS             ; [CPU_] |121| 
     364                      ; branchcc occurs ; [] |121| 
     365 00000057 D00A          MOVB      XAR0,#10              ; [CPU_] |121| 
     366 00000058 9291          MOV       AL,*+XAR1[AR0]        ; [CPU_] |121| 
     367 00000059 ED0B          BF        $C$L3,NEQ             ; [CPU_] |121| 
     368                      ; branchcc occurs ; [] |121| 
     369                      .dwpsn  file "C:/ti/motorware/motorware_1_01_00_18/sw/modules/diagnostic/graph/src/32b/graph.c",line 
     370 0000005a 06E1          MOVL      ACC,*+XAR1[4]         ; [CPU_] |122| 
     371 0000005b ED09          BF        $C$L3,NEQ             ; [CPU_] |122| 
TMS320C2000 Assembler PC v6.2.5 Wed Jun 21 14:56:38 2017

Tools Copyright (c) 1996-2014 Texas Instruments Incorporated
C:\Users\wmj\AppData\Local\Temp\0706010                              PAGE    8

     372                      ; branchcc occurs ; [] |122| 
     373                      .dwpsn  file "C:/ti/motorware/motorware_1_01_00_18/sw/modules/diagnostic/graph/src/32b/graph.c",line 
     374 0000005c 8F00          MOVL      XAR4,#530             ; [CPU_U] |125| 
         0000005d 0212 
     375 0000005e B2A9          MOVL      ACC,XAR1              ; [CPU_] |125| 
     376 0000005f 5601          ADDL      XAR4,ACC              ; [CPU_] |125| 
         00000060 00A4 
     377 00000061 06A6          MOVL      ACC,XAR6              ; [CPU_] |125| 
     378              $C$DW$33        .dwtag  DW_TAG_TI_branch
     379                      .dwattr $C$DW$33, DW_AT_low_pc(0x00)
     380                      .dwattr $C$DW$33, DW_AT_name("_BufferIn")
     381                      .dwattr $C$DW$33, DW_AT_TI_call
     382 00000062 7640'         LCR       #_BufferIn            ; [CPU_] |125| 
         00000063 0000 
     383                      ; call occurs [#_BufferIn] ; [] |125| 
     384 00000064       $C$L3:    
     385                      .dwpsn  file "C:/ti/motorware/motorware_1_01_00_18/sw/modules/diagnostic/graph/src/32b/graph.c",line 
     386 00000064 D018          MOVB      XAR0,#24              ; [CPU_] |146| 
     387 00000065 8A93          MOVL      XAR4,*+XAR3[AR0]      ; [CPU_] |146| 
     388              $C$DW$34        .dwtag  DW_TAG_TI_branch
     389                      .dwattr $C$DW$34, DW_AT_low_pc(0x00)
     390                      .dwattr $C$DW$34, DW_AT_name("_EST_getSpeed_krpm")
     391                      .dwattr $C$DW$34, DW_AT_TI_call
     392 00000066 7640!         LCR       #_EST_getSpeed_krpm   ; [CPU_] |146| 
         00000067 0000 
     393                      ; call occurs [#_EST_getSpeed_krpm] ; [] |146| 
     394 00000068 D016          MOVB      XAR0,#22              ; [CPU_] |146| 
     395 00000069 1EA6          MOVL      XAR6,ACC              ; [CPU_] |146| 
     396 0000006a C592          MOVL      XAR7,*+XAR2[AR0]      ; [CPU_] |146| 
     397                      .dwpsn  file "C:/ti/motorware/motorware_1_01_00_18/sw/modules/diagnostic/graph/src/32b/graph.c",line 
     398 0000006b FF20          MOV       ACC,#256              ; [CPU_] |106| 
         0000006c 0100 
     399 0000006d 0FD1          CMPL      ACC,*+XAR1[2]         ; [CPU_] |106| 
     400 0000006e 660B          B         $C$L5,HI              ; [CPU_] |106| 
     401                      ; branchcc occurs ; [] |106| 
     402                      .dwpsn  file "C:/ti/motorware/motorware_1_01_00_18/sw/modules/diagnostic/graph/src/32b/graph.c",line 
     403 0000006f 0201          MOVB      ACC,#1                ; [CPU_] |117| 
     404 00000070 0FC1          CMPL      ACC,*+XAR1[0]         ; [CPU_] |117| 
     405 00000071 EC05          BF        $C$L4,EQ              ; [CPU_] |117| 
     406                      ; branchcc occurs ; [] |117| 
     407 00000072 D00C          MOVB      XAR0,#12              ; [CPU_] |117| 
     408 00000073 06A7          MOVL      ACC,XAR7              ; [CPU_] |117| 
     409 00000074 0F91          CMPL      ACC,*+XAR1[AR0]       ; [CPU_] |117| 
     410 00000075 EC52          BF        $C$L11,EQ             ; [CPU_] |117| 
     411                      ; branchcc occurs ; [] |117| 
     412 00000076       $C$L4:    
     413                      .dwpsn  file "C:/ti/motorware/motorware_1_01_00_18/sw/modules/diagnostic/graph/src/32b/graph.c",line 
     414 00000076 D00C          MOVB      XAR0,#12              ; [CPU_] |118| 
     415 00000077 C391          MOVL      *+XAR1[AR0],XAR7      ; [CPU_] |118| 
     416                      .dwpsn  file "C:/ti/motorware/motorware_1_01_00_18/sw/modules/diagnostic/graph/src/32b/graph.c",line 
     417 00000078 6F55          B         $C$L13,UNC            ; [CPU_] |121| 
     418                      ; branch occurs ; [] |121| 
     419 00000079       $C$L5:    
     420                      .dwpsn  file "C:/ti/motorware/motorware_1_01_00_18/sw/modules/diagnostic/graph/src/32b/graph.c",line 
     421 00000079 0201          MOVB      ACC,#1                ; [CPU_] |107| 
TMS320C2000 Assembler PC v6.2.5 Wed Jun 21 14:56:38 2017

Tools Copyright (c) 1996-2014 Texas Instruments Incorporated
C:\Users\wmj\AppData\Local\Temp\0706010                              PAGE    9

     422 0000007a 5601          ADDL      *+XAR1[4],ACC         ; [CPU_] |107| 
         0000007b 00E1 
     423                      .dwpsn  file "C:/ti/motorware/motorware_1_01_00_18/sw/modules/diagnostic/graph/src/32b/graph.c",line 
     424 0000007c 06F1          MOVL      ACC,*+XAR1[6]         ; [CPU_] |108| 
     425 0000007d 0FE1          CMPL      ACC,*+XAR1[4]         ; [CPU_] |108| 
     426 0000007e 6668          B         $C$L16,HI             ; [CPU_] |108| 
     427                      ; branchcc occurs ; [] |108| 
     428                      .dwpsn  file "C:/ti/motorware/motorware_1_01_00_18/sw/modules/diagnostic/graph/src/32b/graph.c",line 
     429 0000007f 6F5B          B         $C$L15,UNC            ; [CPU_] |114| 
     430                      ; branch occurs ; [] |114| 
     431 00000080       $C$L6:    
     432                      .dwpsn  file "C:/ti/motorware/motorware_1_01_00_18/sw/modules/ctrl/src/32b/ctrl.h",line 396,column 3,
     433 00000080 D0B4          MOVB      XAR0,#180             ; [CPU_] |396| 
     434                      .dwpsn  file "C:/ti/motorware/motorware_1_01_00_18/sw/modules/diagnostic/graph/src/32b/graph.c",line 
     435 00000081 FF2F          MOV       ACC,#3072 << 15       ; [CPU_] |140| 
         00000082 0C00 
     436                      .dwpsn  file "C:/ti/motorware/motorware_1_01_00_18/sw/modules/ctrl/src/32b/ctrl.h",line 396,column 3,
     437 00000083 8793          MOVL      XT,*+XAR3[AR0]        ; [CPU_] |396| 
     438                      .dwpsn  file "C:/ti/motorware/motorware_1_01_00_18/sw/modules/diagnostic/graph/src/32b/graph.c",line 
     439 00000084 5605          IMPYL     P,XT,ACC              ; [CPU_] |140| 
         00000085 00A9 
     440 00000086 5663          QMPYL     ACC,XT,ACC            ; [CPU_] |140| 
         00000087 00A9 
     441 00000088 56A7          LSL64     ACC:P,#8              ; [CPU_] |140| 
     442 00000089 1EA6          MOVL      XAR6,ACC              ; [CPU_] |140| 
     443                      .dwpsn  file "C:/ti/motorware/motorware_1_01_00_18/sw/modules/diagnostic/graph/src/32b/graph.c",line 
     444 0000008a 06D1          MOVL      ACC,*+XAR1[2]         ; [CPU_] |106| 
     445                      .dwpsn  file "C:/ti/motorware/motorware_1_01_00_18/sw/modules/diagnostic/graph/src/32b/graph.c",line 
     446 0000008b 0201          MOVB      ACC,#1                ; [CPU_] |117| 
     447 0000008c 0FC1          CMPL      ACC,*+XAR1[0]         ; [CPU_] |117| 
     448 0000008d EC03          BF        $C$L7,EQ              ; [CPU_] |117| 
     449                      ; branchcc occurs ; [] |117| 
     450 0000008e D00C          MOVB      XAR0,#12              ; [CPU_] |117| 
     451 0000008f 0691          MOVL      ACC,*+XAR1[AR0]       ; [CPU_] |117| 
     452 00000090       $C$L7:    
     453                      .dwpsn  file "C:/ti/motorware/motorware_1_01_00_18/sw/modules/diagnostic/graph/src/32b/graph.c",line 
     454 00000090 FF20          MOV       ACC,#256              ; [CPU_] |121| 
         00000091 0100 
     455 00000092 0FD1          CMPL      ACC,*+XAR1[2]         ; [CPU_] |121| 
     456 00000093 690E          B         $C$L8,LOS             ; [CPU_] |121| 
     457                      ; branchcc occurs ; [] |121| 
     458 00000094 D00A          MOVB      XAR0,#10              ; [CPU_] |121| 
     459 00000095 9291          MOV       AL,*+XAR1[AR0]        ; [CPU_] |121| 
     460 00000096 ED0B          BF        $C$L8,NEQ             ; [CPU_] |121| 
     461                      ; branchcc occurs ; [] |121| 
     462                      .dwpsn  file "C:/ti/motorware/motorware_1_01_00_18/sw/modules/diagnostic/graph/src/32b/graph.c",line 
     463 00000097 06E1          MOVL      ACC,*+XAR1[4]         ; [CPU_] |122| 
     464 00000098 ED09          BF        $C$L8,NEQ             ; [CPU_] |122| 
     465                      ; branchcc occurs ; [] |122| 
     466                      .dwpsn  file "C:/ti/motorware/motorware_1_01_00_18/sw/modules/diagnostic/graph/src/32b/graph.c",line 
     467 00000099 8F00          MOVL      XAR4,#530             ; [CPU_U] |125| 
         0000009a 0212 
     468 0000009b B2A9          MOVL      ACC,XAR1              ; [CPU_] |125| 
     469 0000009c 5601          ADDL      XAR4,ACC              ; [CPU_] |125| 
         0000009d 00A4 
TMS320C2000 Assembler PC v6.2.5 Wed Jun 21 14:56:38 2017

Tools Copyright (c) 1996-2014 Texas Instruments Incorporated
C:\Users\wmj\AppData\Local\Temp\0706010                              PAGE   10

     470 0000009e 06A6          MOVL      ACC,XAR6              ; [CPU_] |125| 
     471              $C$DW$35        .dwtag  DW_TAG_TI_branch
     472                      .dwattr $C$DW$35, DW_AT_low_pc(0x00)
     473                      .dwattr $C$DW$35, DW_AT_name("_BufferIn")
     474                      .dwattr $C$DW$35, DW_AT_TI_call
     475 0000009f 7640'         LCR       #_BufferIn            ; [CPU_] |125| 
         000000a0 0000 
     476                      ; call occurs [#_BufferIn] ; [] |125| 
     477 000000a1       $C$L8:    
     478                      .dwpsn  file "C:/ti/motorware/motorware_1_01_00_18/sw/modules/diagnostic/graph/src/32b/graph.c",line 
     479 000000a1 D018          MOVB      XAR0,#24              ; [CPU_] |141| 
     480 000000a2 8A93          MOVL      XAR4,*+XAR3[AR0]      ; [CPU_] |141| 
     481              $C$DW$36        .dwtag  DW_TAG_TI_branch
     482                      .dwattr $C$DW$36, DW_AT_low_pc(0x00)
     483                      .dwattr $C$DW$36, DW_AT_name("_EST_getSpeed_krpm")
     484                      .dwattr $C$DW$36, DW_AT_TI_call
     485 000000a3 7640!         LCR       #_EST_getSpeed_krpm   ; [CPU_] |141| 
         000000a4 0000 
     486                      ; call occurs [#_EST_getSpeed_krpm] ; [] |141| 
     487 000000a5 1EA6          MOVL      XAR6,ACC              ; [CPU_] |141| 
     488                      .dwpsn  file "C:/ti/motorware/motorware_1_01_00_18/sw/modules/diagnostic/graph/src/32b/graph.c",line 
     489 000000a6 FF20          MOV       ACC,#256              ; [CPU_] |106| 
         000000a7 0100 
     490 000000a8 0FD1          CMPL      ACC,*+XAR1[2]         ; [CPU_] |106| 
     491 000000a9 6916          B         $C$L10,LOS            ; [CPU_] |106| 
     492                      ; branchcc occurs ; [] |106| 
     493                      .dwpsn  file "C:/ti/motorware/motorware_1_01_00_18/sw/modules/diagnostic/graph/src/32b/graph.c",line 
     494 000000aa 0201          MOVB      ACC,#1                ; [CPU_] |107| 
     495 000000ab 5601          ADDL      *+XAR1[4],ACC         ; [CPU_] |107| 
         000000ac 00E1 
     496                      .dwpsn  file "C:/ti/motorware/motorware_1_01_00_18/sw/modules/diagnostic/graph/src/32b/graph.c",line 
     497 000000ad 06F1          MOVL      ACC,*+XAR1[6]         ; [CPU_] |108| 
     498 000000ae 0FE1          CMPL      ACC,*+XAR1[4]         ; [CPU_] |108| 
     499 000000af 6637          B         $C$L16,HI             ; [CPU_] |108| 
     500                      ; branchcc occurs ; [] |108| 
     501                      .dwpsn  file "C:/ti/motorware/motorware_1_01_00_18/sw/modules/diagnostic/graph/src/32b/graph.c",line 
     502 000000b0 6F2A          B         $C$L15,UNC            ; [CPU_] |114| 
     503                      ; branch occurs ; [] |114| 
     504 000000b1       $C$L9:    
     505                      .dwpsn  file "C:/ti/motorware/motorware_1_01_00_18/sw/modules/ctrl/src/32b/ctrl.h",line 329,column 3,
     506 000000b1 D0B2          MOVB      XAR0,#178             ; [CPU_] |329| 
     507                      .dwpsn  file "C:/ti/motorware/motorware_1_01_00_18/sw/modules/diagnostic/graph/src/32b/graph.c",line 
     508 000000b2 FF2F          MOV       ACC,#3072 << 15       ; [CPU_] |136| 
         000000b3 0C00 
     509                      .dwpsn  file "C:/ti/motorware/motorware_1_01_00_18/sw/modules/ctrl/src/32b/ctrl.h",line 329,column 3,
     510 000000b4 8793          MOVL      XT,*+XAR3[AR0]        ; [CPU_] |329| 
     511                      .dwpsn  file "C:/ti/motorware/motorware_1_01_00_18/sw/modules/diagnostic/graph/src/32b/graph.c",line 
     512 000000b5 5605          IMPYL     P,XT,ACC              ; [CPU_] |136| 
         000000b6 00A9 
     513 000000b7 5663          QMPYL     ACC,XT,ACC            ; [CPU_] |136| 
         000000b8 00A9 
     514 000000b9 56A7          LSL64     ACC:P,#8              ; [CPU_] |136| 
     515 000000ba 1EA6          MOVL      XAR6,ACC              ; [CPU_] |136| 
     516                      .dwpsn  file "C:/ti/motorware/motorware_1_01_00_18/sw/modules/diagnostic/graph/src/32b/graph.c",line 
     517 000000bb FF20          MOV       ACC,#256              ; [CPU_] |106| 
TMS320C2000 Assembler PC v6.2.5 Wed Jun 21 14:56:38 2017

Tools Copyright (c) 1996-2014 Texas Instruments Incorporated
C:\Users\wmj\AppData\Local\Temp\0706010                              PAGE   11

         000000bc 0100 
     518 000000bd 0FD1          CMPL      ACC,*+XAR1[2]         ; [CPU_] |106| 
     519 000000be 6616          B         $C$L14,HI             ; [CPU_] |106| 
     520                      ; branchcc occurs ; [] |106| 
     521 000000bf       $C$L10:    
     522                      .dwpsn  file "C:/ti/motorware/motorware_1_01_00_18/sw/modules/diagnostic/graph/src/32b/graph.c",line 
     523 000000bf 0201          MOVB      ACC,#1                ; [CPU_] |117| 
     524 000000c0 0FC1          CMPL      ACC,*+XAR1[0]         ; [CPU_] |117| 
     525 000000c1 EC08          BF        $C$L12,EQ             ; [CPU_] |117| 
     526                      ; branchcc occurs ; [] |117| 
     527 000000c2 9241          MOV       AL,*-SP[1]            ; [CPU_] |117| 
     528 000000c3 D00C          MOVB      XAR0,#12              ; [CPU_] |117| 
     529 000000c4 0EA9          MOVU      ACC,AL                ; [CPU_] |117| 
     530 000000c5 0F91          CMPL      ACC,*+XAR1[AR0]       ; [CPU_] |117| 
     531 000000c6 ED03          BF        $C$L12,NEQ            ; [CPU_] |117| 
     532                      ; branchcc occurs ; [] |117| 
     533 000000c7       $C$L11:    
     534                      .dwpsn  file "C:/ti/motorware/motorware_1_01_00_18/sw/modules/diagnostic/graph/src/32b/graph.c",line 
     535 000000c7 06D1          MOVL      ACC,*+XAR1[2]         ; [CPU_] |121| 
     536 000000c8 6F1E          B         $C$L16,UNC            ; [CPU_] |121| 
     537                      ; branch occurs ; [] |121| 
     538 000000c9       $C$L12:    
     539                      .dwpsn  file "C:/ti/motorware/motorware_1_01_00_18/sw/modules/diagnostic/graph/src/32b/graph.c",line 
     540 000000c9 9241          MOV       AL,*-SP[1]            ; [CPU_] |118| 
     541 000000ca D00C          MOVB      XAR0,#12              ; [CPU_] |118| 
     542 000000cb 0EA9          MOVU      ACC,AL                ; [CPU_] |118| 
     543 000000cc 1E91          MOVL      *+XAR1[AR0],ACC       ; [CPU_] |118| 
     544 000000cd       $C$L13:    
     545                      .dwpsn  file "C:/ti/motorware/motorware_1_01_00_18/sw/modules/diagnostic/graph/src/32b/graph.c",line 
     546 000000cd 8AA1          MOVL      XAR4,XAR1             ; [CPU_] |119| 
     547              $C$DW$37        .dwtag  DW_TAG_TI_branch
     548                      .dwattr $C$DW$37, DW_AT_low_pc(0x00)
     549                      .dwattr $C$DW$37, DW_AT_name("_BufferInit")
     550                      .dwattr $C$DW$37, DW_AT_TI_call
     551 000000ce 7640'         LCR       #_BufferInit          ; [CPU_] |119| 
         000000cf 0017 
     552                      ; call occurs [#_BufferInit] ; [] |119| 
     553                      .dwpsn  file "C:/ti/motorware/motorware_1_01_00_18/sw/modules/diagnostic/graph/src/32b/graph.c",line 
     554 000000d0 D00A          MOVB      XAR0,#10              ; [CPU_] |120| 
     555 000000d1 56BF          MOVB      *+XAR1[AR0],#1,UNC    ; [CPU_] |120| 
         000000d2 0191 
     556                      .dwpsn  file "C:/ti/motorware/motorware_1_01_00_18/sw/modules/diagnostic/graph/src/32b/graph.c",line 
     557 000000d3 6F13          B         $C$L16,UNC            ; [CPU_] |121| 
     558                      ; branch occurs ; [] |121| 
     559 000000d4       $C$L14:    
     560                      .dwpsn  file "C:/ti/motorware/motorware_1_01_00_18/sw/modules/diagnostic/graph/src/32b/graph.c",line 
     561 000000d4 0201          MOVB      ACC,#1                ; [CPU_] |107| 
     562 000000d5 5601          ADDL      *+XAR1[4],ACC         ; [CPU_] |107| 
         000000d6 00E1 
     563                      .dwpsn  file "C:/ti/motorware/motorware_1_01_00_18/sw/modules/diagnostic/graph/src/32b/graph.c",line 
     564 000000d7 06F1          MOVL      ACC,*+XAR1[6]         ; [CPU_] |108| 
     565 000000d8 0FE1          CMPL      ACC,*+XAR1[4]         ; [CPU_] |108| 
     566 000000d9 660D          B         $C$L16,HI             ; [CPU_] |108| 
     567                      ; branchcc occurs ; [] |108| 
     568 000000da       $C$L15:    
TMS320C2000 Assembler PC v6.2.5 Wed Jun 21 14:56:38 2017

Tools Copyright (c) 1996-2014 Texas Instruments Incorporated
C:\Users\wmj\AppData\Local\Temp\0706010                              PAGE   12

     569                      .dwpsn  file "C:/ti/motorware/motorware_1_01_00_18/sw/modules/diagnostic/graph/src/32b/graph.c",line 
     570 000000da 8AA1          MOVL      XAR4,XAR1             ; [CPU_] |111| 
     571 000000db 06A6          MOVL      ACC,XAR6              ; [CPU_] |111| 
     572 000000dc DC0E          ADDB      XAR4,#14              ; [CPU_] |111| 
     573              $C$DW$38        .dwtag  DW_TAG_TI_branch
     574                      .dwattr $C$DW$38, DW_AT_low_pc(0x00)
     575                      .dwattr $C$DW$38, DW_AT_name("_BufferIn")
     576                      .dwattr $C$DW$38, DW_AT_TI_call
     577 000000dd 7640'         LCR       #_BufferIn            ; [CPU_] |111| 
         000000de 0000 
     578                      ; call occurs [#_BufferIn] ; [] |111| 
     579                      .dwpsn  file "C:/ti/motorware/motorware_1_01_00_18/sw/modules/diagnostic/graph/src/32b/graph.c",line 
     580 000000df 0201          MOVB      ACC,#1                ; [CPU_] |112| 
     581                      .dwpsn  file "C:/ti/motorware/motorware_1_01_00_18/sw/modules/diagnostic/graph/src/32b/graph.c",line 
     582 000000e0 D00A          MOVB      XAR0,#10              ; [CPU_] |114| 
     583                      .dwpsn  file "C:/ti/motorware/motorware_1_01_00_18/sw/modules/diagnostic/graph/src/32b/graph.c",line 
     584 000000e1 5601          ADDL      *+XAR1[2],ACC         ; [CPU_] |112| 
         000000e2 00D1 
     585                      .dwpsn  file "C:/ti/motorware/motorware_1_01_00_18/sw/modules/diagnostic/graph/src/32b/graph.c",line 
     586 000000e3 0200          MOVB      ACC,#0                ; [CPU_] |113| 
     587 000000e4 1EE1          MOVL      *+XAR1[4],ACC         ; [CPU_] |113| 
     588                      .dwpsn  file "C:/ti/motorware/motorware_1_01_00_18/sw/modules/diagnostic/graph/src/32b/graph.c",line 
     589 000000e5 2B91          MOV       *+XAR1[AR0],#0        ; [CPU_] |114| 
     590 000000e6       $C$L16:    
     591 000000e6 FE82          SUBB      SP,#2                 ; [CPU_U] 
     592                      .dwcfi  cfa_offset, -8
     593 000000e7 82BE          MOVL      XAR3,*--SP            ; [CPU_] 
     594                      .dwcfi  cfa_offset, -6
     595                      .dwcfi  restore_reg, 11
     596 000000e8 86BE          MOVL      XAR2,*--SP            ; [CPU_] 
     597                      .dwcfi  cfa_offset, -4
     598                      .dwcfi  restore_reg, 9
     599 000000e9 8BBE          MOVL      XAR1,*--SP            ; [CPU_] 
     600                      .dwcfi  cfa_offset, -2
     601                      .dwcfi  restore_reg, 7
     602              $C$DW$39        .dwtag  DW_TAG_TI_branch
     603                      .dwattr $C$DW$39, DW_AT_low_pc(0x00)
     604                      .dwattr $C$DW$39, DW_AT_TI_return
     605 000000ea 0006          LRETR     ; [CPU_] 
     606                      ; return occurs ; [] 
     607                      .dwattr $C$DW$18, DW_AT_TI_end_file("C:/ti/motorware/motorware_1_01_00_18/sw/modules/diagnostic/graph
     608                      .dwattr $C$DW$18, DW_AT_TI_end_line(0x9a)
     609                      .dwattr $C$DW$18, DW_AT_TI_end_column(0x01)
     610                      .dwendentry
     611                      .dwendtag $C$DW$18
     612              
     613 000000eb               .sect   ".text"
     614                      .clink
     615                      .global _BufferOut
     616              
     617              $C$DW$40        .dwtag  DW_TAG_subprogram, DW_AT_name("BufferOut")
     618                      .dwattr $C$DW$40, DW_AT_low_pc(_BufferOut)
     619                      .dwattr $C$DW$40, DW_AT_high_pc(0x00)
     620                      .dwattr $C$DW$40, DW_AT_TI_symbol_name("_BufferOut")
     621                      .dwattr $C$DW$40, DW_AT_external
TMS320C2000 Assembler PC v6.2.5 Wed Jun 21 14:56:38 2017

Tools Copyright (c) 1996-2014 Texas Instruments Incorporated
C:\Users\wmj\AppData\Local\Temp\0706010                              PAGE   13

     622                      .dwattr $C$DW$40, DW_AT_type(*$C$DW$T$22)
     623                      .dwattr $C$DW$40, DW_AT_TI_begin_file("C:/ti/motorware/motorware_1_01_00_18/sw/modules/diagnostic/gra
     624                      .dwattr $C$DW$40, DW_AT_TI_begin_line(0x3e)
     625                      .dwattr $C$DW$40, DW_AT_TI_begin_column(0x09)
     626                      .dwattr $C$DW$40, DW_AT_TI_max_frame_size(-2)
     627                      .dwpsn  file "C:/ti/motorware/motorware_1_01_00_18/sw/modules/diagnostic/graph/src/32b/graph.c",line 
     628              
     629                      .dwfde $C$DW$CIE, _BufferOut
     630              $C$DW$41        .dwtag  DW_TAG_formal_parameter, DW_AT_name("pBuffer")
     631                      .dwattr $C$DW$41, DW_AT_TI_symbol_name("_pBuffer")
     632                      .dwattr $C$DW$41, DW_AT_type(*$C$DW$T$88)
     633                      .dwattr $C$DW$41, DW_AT_location[DW_OP_reg12]
     634              $C$DW$42        .dwtag  DW_TAG_formal_parameter, DW_AT_name("pWord")
     635                      .dwattr $C$DW$42, DW_AT_TI_symbol_name("_pWord")
     636                      .dwattr $C$DW$42, DW_AT_type(*$C$DW$T$124)
     637                      .dwattr $C$DW$42, DW_AT_location[DW_OP_reg14]
     638              
     639              ;***************************************************************
     640              ;* FNAME: _BufferOut                    FR SIZE:   0           *
     641              ;*                                                             *
     642              ;* FUNCTION ENVIRONMENT                                        *
     643              ;*                                                             *
     644              ;* FUNCTION PROPERTIES                                         *
     645              ;*                            0 Parameter,  0 Auto,  0 SOE     *
     646              ;***************************************************************
     647              
     648              _BufferOut:
     649              ;* AR4   assigned to _pBuffer
     650              $C$DW$43        .dwtag  DW_TAG_variable, DW_AT_name("pBuffer")
     651                      .dwattr $C$DW$43, DW_AT_TI_symbol_name("_pBuffer")
     652                      .dwattr $C$DW$43, DW_AT_type(*$C$DW$T$89)
     653                      .dwattr $C$DW$43, DW_AT_location[DW_OP_reg12]
     654              ;* AR5   assigned to _pWord
     655              $C$DW$44        .dwtag  DW_TAG_variable, DW_AT_name("pWord")
     656                      .dwattr $C$DW$44, DW_AT_TI_symbol_name("_pWord")
     657                      .dwattr $C$DW$44, DW_AT_type(*$C$DW$T$133)
     658                      .dwattr $C$DW$44, DW_AT_location[DW_OP_reg14]
     659                      .dwcfi  cfa_offset, -2
     660                      .dwcfi  save_reg_to_mem, 26, 0
     661                      .dwcfi  save_reg_to_reg, 78, 26
     662                      .dwpsn  file "C:/ti/motorware/motorware_1_01_00_18/sw/modules/diagnostic/graph/src/32b/graph.c",line 
     663 000000eb 8D00          MOVL      XAR0,#512             ; [CPU_] |66| 
         000000ec 0200 
     664 000000ed C4A4          MOVL      XAR6,XAR4             ; [CPU_] |66| 
     665 000000ee 0694          MOVL      ACC,*+XAR4[AR0]       ; [CPU_] |66| 
     666 000000ef FF30          LSL       ACC,1                 ; [CPU_] |66| 
     667 000000f0 5601          ADDL      XAR6,ACC              ; [CPU_] |66| 
         000000f1 00A6 
     668 000000f2 06C6          MOVL      ACC,*+XAR6[0]         ; [CPU_] |66| 
     669 000000f3 1EC5          MOVL      *+XAR5[0],ACC         ; [CPU_] |66| 
     670                      .dwpsn  file "C:/ti/motorware/motorware_1_01_00_18/sw/modules/diagnostic/graph/src/32b/graph.c",line 
     671 000000f4 0201          MOVB      ACC,#1                ; [CPU_] |67| 
     672 000000f5 0794          ADDL      ACC,*+XAR4[AR0]       ; [CPU_] |67| 
     673 000000f6 9B00          MOVB      AH,#0                 ; [CPU_] |67| 
     674 000000f7 90FF          ANDB      AL,#0xff              ; [CPU_] |67| 
TMS320C2000 Assembler PC v6.2.5 Wed Jun 21 14:56:38 2017

Tools Copyright (c) 1996-2014 Texas Instruments Incorporated
C:\Users\wmj\AppData\Local\Temp\0706010                              PAGE   14

     675 000000f8 1E94          MOVL      *+XAR4[AR0],ACC       ; [CPU_] |67| 
     676                      .dwpsn  file "C:/ti/motorware/motorware_1_01_00_18/sw/modules/diagnostic/graph/src/32b/graph.c",line 
     677 000000f9 0201          MOVB      ACC,#1                ; [CPU_] |68| 
     678              $C$DW$45        .dwtag  DW_TAG_TI_branch
     679                      .dwattr $C$DW$45, DW_AT_low_pc(0x00)
     680                      .dwattr $C$DW$45, DW_AT_TI_return
     681 000000fa 0006          LRETR     ; [CPU_] 
     682                      ; return occurs ; [] 
     683                      .dwattr $C$DW$40, DW_AT_TI_end_file("C:/ti/motorware/motorware_1_01_00_18/sw/modules/diagnostic/graph
     684                      .dwattr $C$DW$40, DW_AT_TI_end_line(0x45)
     685                      .dwattr $C$DW$40, DW_AT_TI_end_column(0x01)
     686                      .dwendentry
     687                      .dwendtag $C$DW$40
     688              
     689              ;**************************************************************
     690              ;* UNDEFINED EXTERNAL REFERENCES                              *
     691              ;**************************************************************
     692                      .global _EST_getSpeed_krpm
     693              
     694              ;***************************************************************
     695              ;* TYPE INFORMATION                                            *
     696              ;***************************************************************
     697              
     698              $C$DW$T$28      .dwtag  DW_TAG_enumeration_type
     699                      .dwattr $C$DW$T$28, DW_AT_byte_size(0x01)
     700              $C$DW$46        .dwtag  DW_TAG_enumerator, DW_AT_name("CTRL_State_Error"), DW_AT_const_value(0x00)
     701              $C$DW$47        .dwtag  DW_TAG_enumerator, DW_AT_name("CTRL_State_Idle"), DW_AT_const_value(0x01)
     702              $C$DW$48        .dwtag  DW_TAG_enumerator, DW_AT_name("CTRL_State_OffLine"), DW_AT_const_value(0x02)
     703              $C$DW$49        .dwtag  DW_TAG_enumerator, DW_AT_name("CTRL_State_OnLine"), DW_AT_const_value(0x03)
     704              $C$DW$50        .dwtag  DW_TAG_enumerator, DW_AT_name("CTRL_numStates"), DW_AT_const_value(0x04)
     705                      .dwendtag $C$DW$T$28
     706              
     707              $C$DW$T$29      .dwtag  DW_TAG_typedef, DW_AT_name("CTRL_State_e")
     708                      .dwattr $C$DW$T$29, DW_AT_type(*$C$DW$T$28)
     709                      .dwattr $C$DW$T$29, DW_AT_language(DW_LANG_C)
     710              
     711              $C$DW$T$30      .dwtag  DW_TAG_enumeration_type
     712                      .dwattr $C$DW$T$30, DW_AT_byte_size(0x01)
     713              $C$DW$51        .dwtag  DW_TAG_enumerator, DW_AT_name("CTRL_ErrorCode_NoError"), DW_AT_const_value(0x00)
     714              $C$DW$52        .dwtag  DW_TAG_enumerator, DW_AT_name("CTRL_ErrorCode_IdClip"), DW_AT_const_value(0x01)
     715              $C$DW$53        .dwtag  DW_TAG_enumerator, DW_AT_name("CTRL_ErrorCode_EstError"), DW_AT_const_value(0x02)
     716              $C$DW$54        .dwtag  DW_TAG_enumerator, DW_AT_name("CTRL_numErrorCodes"), DW_AT_const_value(0x03)
     717                      .dwendtag $C$DW$T$30
     718              
     719              $C$DW$T$31      .dwtag  DW_TAG_typedef, DW_AT_name("CTRL_ErrorCode_e")
     720                      .dwattr $C$DW$T$31, DW_AT_type(*$C$DW$T$30)
     721                      .dwattr $C$DW$T$31, DW_AT_language(DW_LANG_C)
     722              
     723              $C$DW$T$61      .dwtag  DW_TAG_enumeration_type
     724                      .dwattr $C$DW$T$61, DW_AT_byte_size(0x01)
     725              $C$DW$55        .dwtag  DW_TAG_enumerator, DW_AT_name("CTRL_TargetProc_2806x"), DW_AT_const_value(0x00)
     726              $C$DW$56        .dwtag  DW_TAG_enumerator, DW_AT_name("CTRL_TargetProc_2805x"), DW_AT_const_value(0x01)
     727              $C$DW$57        .dwtag  DW_TAG_enumerator, DW_AT_name("CTRL_TargetProc_2803x"), DW_AT_const_value(0x02)
     728              $C$DW$58        .dwtag  DW_TAG_enumerator, DW_AT_name("CTRL_TargetProc_2802x"), DW_AT_const_value(0x03)
     729              $C$DW$59        .dwtag  DW_TAG_enumerator, DW_AT_name("CTRL_TargetProc_Unknown"), DW_AT_const_value(0x04)
TMS320C2000 Assembler PC v6.2.5 Wed Jun 21 14:56:38 2017

Tools Copyright (c) 1996-2014 Texas Instruments Incorporated
C:\Users\wmj\AppData\Local\Temp\0706010                              PAGE   15

     730                      .dwendtag $C$DW$T$61
     731              
     732              $C$DW$T$62      .dwtag  DW_TAG_typedef, DW_AT_name("CTRL_TargetProc_e")
     733                      .dwattr $C$DW$T$62, DW_AT_type(*$C$DW$T$61)
     734                      .dwattr $C$DW$T$62, DW_AT_language(DW_LANG_C)
     735              
     736              $C$DW$T$72      .dwtag  DW_TAG_enumeration_type
     737                      .dwattr $C$DW$T$72, DW_AT_byte_size(0x01)
     738              $C$DW$60        .dwtag  DW_TAG_enumerator, DW_AT_name("MOTOR_Type_Induction"), DW_AT_const_value(0x00)
     739              $C$DW$61        .dwtag  DW_TAG_enumerator, DW_AT_name("MOTOR_Type_Pm"), DW_AT_const_value(0x01)
     740                      .dwendtag $C$DW$T$72
     741              
     742              $C$DW$T$73      .dwtag  DW_TAG_typedef, DW_AT_name("MOTOR_Type_e")
     743                      .dwattr $C$DW$T$73, DW_AT_type(*$C$DW$T$72)
     744                      .dwattr $C$DW$T$73, DW_AT_language(DW_LANG_C)
     745              
     746              $C$DW$T$75      .dwtag  DW_TAG_enumeration_type
     747                      .dwattr $C$DW$T$75, DW_AT_byte_size(0x01)
     748              $C$DW$62        .dwtag  DW_TAG_enumerator, DW_AT_name("EST_State_Error"), DW_AT_const_value(0x00)
     749              $C$DW$63        .dwtag  DW_TAG_enumerator, DW_AT_name("EST_State_Idle"), DW_AT_const_value(0x01)
     750              $C$DW$64        .dwtag  DW_TAG_enumerator, DW_AT_name("EST_State_RoverL"), DW_AT_const_value(0x02)
     751              $C$DW$65        .dwtag  DW_TAG_enumerator, DW_AT_name("EST_State_Rs"), DW_AT_const_value(0x03)
     752              $C$DW$66        .dwtag  DW_TAG_enumerator, DW_AT_name("EST_State_RampUp"), DW_AT_const_value(0x04)
     753              $C$DW$67        .dwtag  DW_TAG_enumerator, DW_AT_name("EST_State_IdRated"), DW_AT_const_value(0x05)
     754              $C$DW$68        .dwtag  DW_TAG_enumerator, DW_AT_name("EST_State_RatedFlux_OL"), DW_AT_const_value(0x06)
     755              $C$DW$69        .dwtag  DW_TAG_enumerator, DW_AT_name("EST_State_RatedFlux"), DW_AT_const_value(0x07)
     756              $C$DW$70        .dwtag  DW_TAG_enumerator, DW_AT_name("EST_State_RampDown"), DW_AT_const_value(0x08)
     757              $C$DW$71        .dwtag  DW_TAG_enumerator, DW_AT_name("EST_State_LockRotor"), DW_AT_const_value(0x09)
     758              $C$DW$72        .dwtag  DW_TAG_enumerator, DW_AT_name("EST_State_Ls"), DW_AT_const_value(0x0a)
     759              $C$DW$73        .dwtag  DW_TAG_enumerator, DW_AT_name("EST_State_Rr"), DW_AT_const_value(0x0b)
     760              $C$DW$74        .dwtag  DW_TAG_enumerator, DW_AT_name("EST_State_MotorIdentified"), DW_AT_const_value(0x0c)
     761              $C$DW$75        .dwtag  DW_TAG_enumerator, DW_AT_name("EST_State_OnLine"), DW_AT_const_value(0x0d)
     762              $C$DW$76        .dwtag  DW_TAG_enumerator, DW_AT_name("EST_numStates"), DW_AT_const_value(0x0e)
     763                      .dwendtag $C$DW$T$75
     764              
     765              $C$DW$T$76      .dwtag  DW_TAG_typedef, DW_AT_name("EST_State_e")
     766                      .dwattr $C$DW$T$76, DW_AT_type(*$C$DW$T$75)
     767                      .dwattr $C$DW$T$76, DW_AT_language(DW_LANG_C)
     768              
     769              $C$DW$T$77      .dwtag  DW_TAG_enumeration_type
     770                      .dwattr $C$DW$T$77, DW_AT_byte_size(0x01)
     771              $C$DW$77        .dwtag  DW_TAG_enumerator, DW_AT_name("USER_ErrorCode_NoError"), DW_AT_const_value(0x00)
     772              $C$DW$78        .dwtag  DW_TAG_enumerator, DW_AT_name("USER_ErrorCode_iqFullScaleCurrent_A_High"), DW_AT_cons
     773              $C$DW$79        .dwtag  DW_TAG_enumerator, DW_AT_name("USER_ErrorCode_iqFullScaleCurrent_A_Low"), DW_AT_const
     774              $C$DW$80        .dwtag  DW_TAG_enumerator, DW_AT_name("USER_ErrorCode_iqFullScaleVoltage_V_High"), DW_AT_cons
     775              $C$DW$81        .dwtag  DW_TAG_enumerator, DW_AT_name("USER_ErrorCode_iqFullScaleVoltage_V_Low"), DW_AT_const
     776              $C$DW$82        .dwtag  DW_TAG_enumerator, DW_AT_name("USER_ErrorCode_iqFullScaleFreq_Hz_High"), DW_AT_const_
     777              $C$DW$83        .dwtag  DW_TAG_enumerator, DW_AT_name("USER_ErrorCode_iqFullScaleFreq_Hz_Low"), DW_AT_const_v
     778              $C$DW$84        .dwtag  DW_TAG_enumerator, DW_AT_name("USER_ErrorCode_numPwmTicksPerIsrTick_High"), DW_AT_con
     779              $C$DW$85        .dwtag  DW_TAG_enumerator, DW_AT_name("USER_ErrorCode_numPwmTicksPerIsrTick_Low"), DW_AT_cons
     780              $C$DW$86        .dwtag  DW_TAG_enumerator, DW_AT_name("USER_ErrorCode_numIsrTicksPerCtrlTick_High"), DW_AT_co
     781              $C$DW$87        .dwtag  DW_TAG_enumerator, DW_AT_name("USER_ErrorCode_numIsrTicksPerCtrlTick_Low"), DW_AT_con
     782              $C$DW$88        .dwtag  DW_TAG_enumerator, DW_AT_name("USER_ErrorCode_numCtrlTicksPerCurrentTick_High"), DW_A
     783              $C$DW$89        .dwtag  DW_TAG_enumerator, DW_AT_name("USER_ErrorCode_numCtrlTicksPerCurrentTick_Low"), DW_AT
     784              $C$DW$90        .dwtag  DW_TAG_enumerator, DW_AT_name("USER_ErrorCode_numCtrlTicksPerEstTick_High"), DW_AT_co
TMS320C2000 Assembler PC v6.2.5 Wed Jun 21 14:56:38 2017

Tools Copyright (c) 1996-2014 Texas Instruments Incorporated
C:\Users\wmj\AppData\Local\Temp\0706010                              PAGE   16

     785              $C$DW$91        .dwtag  DW_TAG_enumerator, DW_AT_name("USER_ErrorCode_numCtrlTicksPerEstTick_Low"), DW_AT_con
     786              $C$DW$92        .dwtag  DW_TAG_enumerator, DW_AT_name("USER_ErrorCode_numCtrlTicksPerSpeedTick_High"), DW_AT_
     787              $C$DW$93        .dwtag  DW_TAG_enumerator, DW_AT_name("USER_ErrorCode_numCtrlTicksPerSpeedTick_Low"), DW_AT_c
     788              $C$DW$94        .dwtag  DW_TAG_enumerator, DW_AT_name("USER_ErrorCode_numCtrlTicksPerTrajTick_High"), DW_AT_c
     789              $C$DW$95        .dwtag  DW_TAG_enumerator, DW_AT_name("USER_ErrorCode_numCtrlTicksPerTrajTick_Low"), DW_AT_co
     790              $C$DW$96        .dwtag  DW_TAG_enumerator, DW_AT_name("USER_ErrorCode_numCurrentSensors_High"), DW_AT_const_v
     791              $C$DW$97        .dwtag  DW_TAG_enumerator, DW_AT_name("USER_ErrorCode_numCurrentSensors_Low"), DW_AT_const_va
     792              $C$DW$98        .dwtag  DW_TAG_enumerator, DW_AT_name("USER_ErrorCode_numVoltageSensors_High"), DW_AT_const_v
     793              $C$DW$99        .dwtag  DW_TAG_enumerator, DW_AT_name("USER_ErrorCode_numVoltageSensors_Low"), DW_AT_const_va
     794              $C$DW$100       .dwtag  DW_TAG_enumerator, DW_AT_name("USER_ErrorCode_offsetPole_rps_High"), DW_AT_const_valu
     795              $C$DW$101       .dwtag  DW_TAG_enumerator, DW_AT_name("USER_ErrorCode_offsetPole_rps_Low"), DW_AT_const_value
     796              $C$DW$102       .dwtag  DW_TAG_enumerator, DW_AT_name("USER_ErrorCode_fluxPole_rps_High"), DW_AT_const_value(
     797              $C$DW$103       .dwtag  DW_TAG_enumerator, DW_AT_name("USER_ErrorCode_fluxPole_rps_Low"), DW_AT_const_value(0
     798              $C$DW$104       .dwtag  DW_TAG_enumerator, DW_AT_name("USER_ErrorCode_zeroSpeedLimit_High"), DW_AT_const_valu
     799              $C$DW$105       .dwtag  DW_TAG_enumerator, DW_AT_name("USER_ErrorCode_zeroSpeedLimit_Low"), DW_AT_const_value
     800              $C$DW$106       .dwtag  DW_TAG_enumerator, DW_AT_name("USER_ErrorCode_forceAngleFreq_Hz_High"), DW_AT_const_v
     801              $C$DW$107       .dwtag  DW_TAG_enumerator, DW_AT_name("USER_ErrorCode_forceAngleFreq_Hz_Low"), DW_AT_const_va
     802              $C$DW$108       .dwtag  DW_TAG_enumerator, DW_AT_name("USER_ErrorCode_maxAccel_Hzps_High"), DW_AT_const_value
     803              $C$DW$109       .dwtag  DW_TAG_enumerator, DW_AT_name("USER_ErrorCode_maxAccel_Hzps_Low"), DW_AT_const_value(
     804              $C$DW$110       .dwtag  DW_TAG_enumerator, DW_AT_name("USER_ErrorCode_maxAccel_est_Hzps_High"), DW_AT_const_v
     805              $C$DW$111       .dwtag  DW_TAG_enumerator, DW_AT_name("USER_ErrorCode_maxAccel_est_Hzps_Low"), DW_AT_const_va
     806              $C$DW$112       .dwtag  DW_TAG_enumerator, DW_AT_name("USER_ErrorCode_directionPole_rps_High"), DW_AT_const_v
     807              $C$DW$113       .dwtag  DW_TAG_enumerator, DW_AT_name("USER_ErrorCode_directionPole_rps_Low"), DW_AT_const_va
     808              $C$DW$114       .dwtag  DW_TAG_enumerator, DW_AT_name("USER_ErrorCode_speedPole_rps_High"), DW_AT_const_value
     809              $C$DW$115       .dwtag  DW_TAG_enumerator, DW_AT_name("USER_ErrorCode_speedPole_rps_Low"), DW_AT_const_value(
     810              $C$DW$116       .dwtag  DW_TAG_enumerator, DW_AT_name("USER_ErrorCode_dcBusPole_rps_High"), DW_AT_const_value
     811              $C$DW$117       .dwtag  DW_TAG_enumerator, DW_AT_name("USER_ErrorCode_dcBusPole_rps_Low"), DW_AT_const_value(
     812              $C$DW$118       .dwtag  DW_TAG_enumerator, DW_AT_name("USER_ErrorCode_fluxFraction_High"), DW_AT_const_value(
     813              $C$DW$119       .dwtag  DW_TAG_enumerator, DW_AT_name("USER_ErrorCode_fluxFraction_Low"), DW_AT_const_value(0
     814              $C$DW$120       .dwtag  DW_TAG_enumerator, DW_AT_name("USER_ErrorCode_indEst_speedMaxFraction_High"), DW_AT_c
     815              $C$DW$121       .dwtag  DW_TAG_enumerator, DW_AT_name("USER_ErrorCode_indEst_speedMaxFraction_Low"), DW_AT_co
     816              $C$DW$122       .dwtag  DW_TAG_enumerator, DW_AT_name("USER_ErrorCode_powerWarpGain_High"), DW_AT_const_value
     817              $C$DW$123       .dwtag  DW_TAG_enumerator, DW_AT_name("USER_ErrorCode_powerWarpGain_Low"), DW_AT_const_value(
     818              $C$DW$124       .dwtag  DW_TAG_enumerator, DW_AT_name("USER_ErrorCode_systemFreq_MHz_High"), DW_AT_const_valu
     819              $C$DW$125       .dwtag  DW_TAG_enumerator, DW_AT_name("USER_ErrorCode_systemFreq_MHz_Low"), DW_AT_const_value
     820              $C$DW$126       .dwtag  DW_TAG_enumerator, DW_AT_name("USER_ErrorCode_pwmFreq_kHz_High"), DW_AT_const_value(0
     821              $C$DW$127       .dwtag  DW_TAG_enumerator, DW_AT_name("USER_ErrorCode_pwmFreq_kHz_Low"), DW_AT_const_value(0x
     822              $C$DW$128       .dwtag  DW_TAG_enumerator, DW_AT_name("USER_ErrorCode_voltage_sf_High"), DW_AT_const_value(0x
     823              $C$DW$129       .dwtag  DW_TAG_enumerator, DW_AT_name("USER_ErrorCode_voltage_sf_Low"), DW_AT_const_value(0x3
     824              $C$DW$130       .dwtag  DW_TAG_enumerator, DW_AT_name("USER_ErrorCode_current_sf_High"), DW_AT_const_value(0x
     825              $C$DW$131       .dwtag  DW_TAG_enumerator, DW_AT_name("USER_ErrorCode_current_sf_Low"), DW_AT_const_value(0x3
     826              $C$DW$132       .dwtag  DW_TAG_enumerator, DW_AT_name("USER_ErrorCode_voltageFilterPole_Hz_High"), DW_AT_cons
     827              $C$DW$133       .dwtag  DW_TAG_enumerator, DW_AT_name("USER_ErrorCode_voltageFilterPole_Hz_Low"), DW_AT_const
     828              $C$DW$134       .dwtag  DW_TAG_enumerator, DW_AT_name("USER_ErrorCode_maxVsMag_pu_High"), DW_AT_const_value(0
     829              $C$DW$135       .dwtag  DW_TAG_enumerator, DW_AT_name("USER_ErrorCode_maxVsMag_pu_Low"), DW_AT_const_value(0x
     830              $C$DW$136       .dwtag  DW_TAG_enumerator, DW_AT_name("USER_ErrorCode_estKappa_High"), DW_AT_const_value(0x3b
     831              $C$DW$137       .dwtag  DW_TAG_enumerator, DW_AT_name("USER_ErrorCode_estKappa_Low"), DW_AT_const_value(0x3c)
     832              $C$DW$138       .dwtag  DW_TAG_enumerator, DW_AT_name("USER_ErrorCode_motor_type_Unknown"), DW_AT_const_value
     833              $C$DW$139       .dwtag  DW_TAG_enumerator, DW_AT_name("USER_ErrorCode_motor_numPolePairs_High"), DW_AT_const_
     834              $C$DW$140       .dwtag  DW_TAG_enumerator, DW_AT_name("USER_ErrorCode_motor_numPolePairs_Low"), DW_AT_const_v
     835              $C$DW$141       .dwtag  DW_TAG_enumerator, DW_AT_name("USER_ErrorCode_motor_ratedFlux_High"), DW_AT_const_val
     836              $C$DW$142       .dwtag  DW_TAG_enumerator, DW_AT_name("USER_ErrorCode_motor_ratedFlux_Low"), DW_AT_const_valu
     837              $C$DW$143       .dwtag  DW_TAG_enumerator, DW_AT_name("USER_ErrorCode_motor_Rr_High"), DW_AT_const_value(0x42
     838              $C$DW$144       .dwtag  DW_TAG_enumerator, DW_AT_name("USER_ErrorCode_motor_Rr_Low"), DW_AT_const_value(0x43)
     839              $C$DW$145       .dwtag  DW_TAG_enumerator, DW_AT_name("USER_ErrorCode_motor_Rs_High"), DW_AT_const_value(0x44
TMS320C2000 Assembler PC v6.2.5 Wed Jun 21 14:56:38 2017

Tools Copyright (c) 1996-2014 Texas Instruments Incorporated
C:\Users\wmj\AppData\Local\Temp\0706010                              PAGE   17

     840              $C$DW$146       .dwtag  DW_TAG_enumerator, DW_AT_name("USER_ErrorCode_motor_Rs_Low"), DW_AT_const_value(0x45)
     841              $C$DW$147       .dwtag  DW_TAG_enumerator, DW_AT_name("USER_ErrorCode_motor_Ls_d_High"), DW_AT_const_value(0x
     842              $C$DW$148       .dwtag  DW_TAG_enumerator, DW_AT_name("USER_ErrorCode_motor_Ls_d_Low"), DW_AT_const_value(0x4
     843              $C$DW$149       .dwtag  DW_TAG_enumerator, DW_AT_name("USER_ErrorCode_motor_Ls_q_High"), DW_AT_const_value(0x
     844              $C$DW$150       .dwtag  DW_TAG_enumerator, DW_AT_name("USER_ErrorCode_motor_Ls_q_Low"), DW_AT_const_value(0x4
     845              $C$DW$151       .dwtag  DW_TAG_enumerator, DW_AT_name("USER_ErrorCode_maxCurrent_High"), DW_AT_const_value(0x
     846              $C$DW$152       .dwtag  DW_TAG_enumerator, DW_AT_name("USER_ErrorCode_maxCurrent_Low"), DW_AT_const_value(0x4
     847              $C$DW$153       .dwtag  DW_TAG_enumerator, DW_AT_name("USER_ErrorCode_maxCurrent_resEst_High"), DW_AT_const_v
     848              $C$DW$154       .dwtag  DW_TAG_enumerator, DW_AT_name("USER_ErrorCode_maxCurrent_resEst_Low"), DW_AT_const_va
     849              $C$DW$155       .dwtag  DW_TAG_enumerator, DW_AT_name("USER_ErrorCode_maxCurrent_indEst_High"), DW_AT_const_v
     850              $C$DW$156       .dwtag  DW_TAG_enumerator, DW_AT_name("USER_ErrorCode_maxCurrent_indEst_Low"), DW_AT_const_va
     851              $C$DW$157       .dwtag  DW_TAG_enumerator, DW_AT_name("USER_ErrorCode_maxCurrentSlope_High"), DW_AT_const_val
     852              $C$DW$158       .dwtag  DW_TAG_enumerator, DW_AT_name("USER_ErrorCode_maxCurrentSlope_Low"), DW_AT_const_valu
     853              $C$DW$159       .dwtag  DW_TAG_enumerator, DW_AT_name("USER_ErrorCode_maxCurrentSlope_powerWarp_High"), DW_AT
     854              $C$DW$160       .dwtag  DW_TAG_enumerator, DW_AT_name("USER_ErrorCode_maxCurrentSlope_powerWarp_Low"), DW_AT_
     855              $C$DW$161       .dwtag  DW_TAG_enumerator, DW_AT_name("USER_ErrorCode_IdRated_High"), DW_AT_const_value(0x54)
     856              $C$DW$162       .dwtag  DW_TAG_enumerator, DW_AT_name("USER_ErrorCode_IdRated_Low"), DW_AT_const_value(0x55)
     857              $C$DW$163       .dwtag  DW_TAG_enumerator, DW_AT_name("USER_ErrorCode_IdRatedFraction_indEst_High"), DW_AT_co
     858              $C$DW$164       .dwtag  DW_TAG_enumerator, DW_AT_name("USER_ErrorCode_IdRatedFraction_indEst_Low"), DW_AT_con
     859              $C$DW$165       .dwtag  DW_TAG_enumerator, DW_AT_name("USER_ErrorCode_IdRatedFraction_ratedFlux_High"), DW_AT
     860              $C$DW$166       .dwtag  DW_TAG_enumerator, DW_AT_name("USER_ErrorCode_IdRatedFraction_ratedFlux_Low"), DW_AT_
     861              $C$DW$167       .dwtag  DW_TAG_enumerator, DW_AT_name("USER_ErrorCode_IdRated_delta_High"), DW_AT_const_value
     862              $C$DW$168       .dwtag  DW_TAG_enumerator, DW_AT_name("USER_ErrorCode_IdRated_delta_Low"), DW_AT_const_value(
     863              $C$DW$169       .dwtag  DW_TAG_enumerator, DW_AT_name("USER_ErrorCode_fluxEstFreq_Hz_High"), DW_AT_const_valu
     864              $C$DW$170       .dwtag  DW_TAG_enumerator, DW_AT_name("USER_ErrorCode_fluxEstFreq_Hz_Low"), DW_AT_const_value
     865              $C$DW$171       .dwtag  DW_TAG_enumerator, DW_AT_name("USER_ErrorCode_ctrlFreq_Hz_High"), DW_AT_const_value(0
     866              $C$DW$172       .dwtag  DW_TAG_enumerator, DW_AT_name("USER_ErrorCode_ctrlFreq_Hz_Low"), DW_AT_const_value(0x
     867              $C$DW$173       .dwtag  DW_TAG_enumerator, DW_AT_name("USER_ErrorCode_estFreq_Hz_High"), DW_AT_const_value(0x
     868              $C$DW$174       .dwtag  DW_TAG_enumerator, DW_AT_name("USER_ErrorCode_estFreq_Hz_Low"), DW_AT_const_value(0x6
     869              $C$DW$175       .dwtag  DW_TAG_enumerator, DW_AT_name("USER_ErrorCode_RoverL_estFreq_Hz_High"), DW_AT_const_v
     870              $C$DW$176       .dwtag  DW_TAG_enumerator, DW_AT_name("USER_ErrorCode_RoverL_estFreq_Hz_Low"), DW_AT_const_va
     871              $C$DW$177       .dwtag  DW_TAG_enumerator, DW_AT_name("USER_ErrorCode_trajFreq_Hz_High"), DW_AT_const_value(0
     872              $C$DW$178       .dwtag  DW_TAG_enumerator, DW_AT_name("USER_ErrorCode_trajFreq_Hz_Low"), DW_AT_const_value(0x
     873              $C$DW$179       .dwtag  DW_TAG_enumerator, DW_AT_name("USER_ErrorCode_ctrlPeriod_sec_High"), DW_AT_const_valu
     874              $C$DW$180       .dwtag  DW_TAG_enumerator, DW_AT_name("USER_ErrorCode_ctrlPeriod_sec_Low"), DW_AT_const_value
     875              $C$DW$181       .dwtag  DW_TAG_enumerator, DW_AT_name("USER_ErrorCode_maxNegativeIdCurrent_a_High"), DW_AT_co
     876              $C$DW$182       .dwtag  DW_TAG_enumerator, DW_AT_name("USER_ErrorCode_maxNegativeIdCurrent_a_Low"), DW_AT_con
     877              $C$DW$183       .dwtag  DW_TAG_enumerator, DW_AT_name("USER_numErrorCodes"), DW_AT_const_value(0x6a)
     878                      .dwendtag $C$DW$T$77
     879              
     880              $C$DW$T$78      .dwtag  DW_TAG_typedef, DW_AT_name("USER_ErrorCode_e")
     881                      .dwattr $C$DW$T$78, DW_AT_type(*$C$DW$T$77)
     882                      .dwattr $C$DW$T$78, DW_AT_language(DW_LANG_C)
     883              
     884              $C$DW$T$85      .dwtag  DW_TAG_enumeration_type
     885                      .dwattr $C$DW$T$85, DW_AT_byte_size(0x01)
     886              $C$DW$184       .dwtag  DW_TAG_enumerator, DW_AT_name("GRAPH_Buffer_NR0"), DW_AT_const_value(0x00)
     887              $C$DW$185       .dwtag  DW_TAG_enumerator, DW_AT_name("GRAPH_Buffer_NR1"), DW_AT_const_value(0x01)
     888              $C$DW$186       .dwtag  DW_TAG_enumerator, DW_AT_name("GRAPH_Buffer_NR2"), DW_AT_const_value(0x02)
     889              $C$DW$187       .dwtag  DW_TAG_enumerator, DW_AT_name("GRAPH_Buffer_NR3"), DW_AT_const_value(0x03)
     890                      .dwendtag $C$DW$T$85
     891              
     892              $C$DW$T$86      .dwtag  DW_TAG_typedef, DW_AT_name("GRAPH_Buffer_NR_e")
     893                      .dwattr $C$DW$T$86, DW_AT_type(*$C$DW$T$85)
     894                      .dwattr $C$DW$T$86, DW_AT_language(DW_LANG_C)
TMS320C2000 Assembler PC v6.2.5 Wed Jun 21 14:56:38 2017

Tools Copyright (c) 1996-2014 Texas Instruments Incorporated
C:\Users\wmj\AppData\Local\Temp\0706010                              PAGE   18

     895              
     896              $C$DW$T$23      .dwtag  DW_TAG_structure_type
     897                      .dwattr $C$DW$T$23, DW_AT_name("_Buffer_")
     898                      .dwattr $C$DW$T$23, DW_AT_byte_size(0x204)
     899              $C$DW$188       .dwtag  DW_TAG_member
     900                      .dwattr $C$DW$188, DW_AT_type(*$C$DW$T$21)
     901                      .dwattr $C$DW$188, DW_AT_name("data")
     902                      .dwattr $C$DW$188, DW_AT_TI_symbol_name("_data")
     903                      .dwattr $C$DW$188, DW_AT_data_member_location[DW_OP_plus_uconst 0x0]
     904                      .dwattr $C$DW$188, DW_AT_accessibility(DW_ACCESS_public)
     905              $C$DW$189       .dwtag  DW_TAG_member
     906                      .dwattr $C$DW$189, DW_AT_type(*$C$DW$T$22)
     907                      .dwattr $C$DW$189, DW_AT_name("read")
     908                      .dwattr $C$DW$189, DW_AT_TI_symbol_name("_read")
     909                      .dwattr $C$DW$189, DW_AT_data_member_location[DW_OP_plus_uconst 0x200]
     910                      .dwattr $C$DW$189, DW_AT_accessibility(DW_ACCESS_public)
     911              $C$DW$190       .dwtag  DW_TAG_member
     912                      .dwattr $C$DW$190, DW_AT_type(*$C$DW$T$22)
     913                      .dwattr $C$DW$190, DW_AT_name("write")
     914                      .dwattr $C$DW$190, DW_AT_TI_symbol_name("_write")
     915                      .dwattr $C$DW$190, DW_AT_data_member_location[DW_OP_plus_uconst 0x202]
     916                      .dwattr $C$DW$190, DW_AT_accessibility(DW_ACCESS_public)
     917                      .dwendtag $C$DW$T$23
     918              
     919              $C$DW$T$64      .dwtag  DW_TAG_typedef, DW_AT_name("Buffer_t")
     920                      .dwattr $C$DW$T$64, DW_AT_type(*$C$DW$T$23)
     921                      .dwattr $C$DW$T$64, DW_AT_language(DW_LANG_C)
     922              $C$DW$191       .dwtag  DW_TAG_TI_far_type
     923                      .dwattr $C$DW$191, DW_AT_type(*$C$DW$T$64)
     924              $C$DW$T$87      .dwtag  DW_TAG_volatile_type
     925                      .dwattr $C$DW$T$87, DW_AT_type(*$C$DW$191)
     926              $C$DW$T$88      .dwtag  DW_TAG_pointer_type
     927                      .dwattr $C$DW$T$88, DW_AT_type(*$C$DW$T$87)
     928                      .dwattr $C$DW$T$88, DW_AT_address_class(0x16)
     929              $C$DW$192       .dwtag  DW_TAG_TI_far_type
     930                      .dwattr $C$DW$192, DW_AT_type(*$C$DW$T$88)
     931              $C$DW$T$89      .dwtag  DW_TAG_const_type
     932                      .dwattr $C$DW$T$89, DW_AT_type(*$C$DW$192)
     933              
     934              $C$DW$T$65      .dwtag  DW_TAG_array_type
     935                      .dwattr $C$DW$T$65, DW_AT_type(*$C$DW$T$64)
     936                      .dwattr $C$DW$T$65, DW_AT_language(DW_LANG_C)
     937                      .dwattr $C$DW$T$65, DW_AT_byte_size(0x408)
     938              $C$DW$193       .dwtag  DW_TAG_subrange_type
     939                      .dwattr $C$DW$193, DW_AT_upper_bound(0x01)
     940                      .dwendtag $C$DW$T$65
     941              
     942              
     943              $C$DW$T$26      .dwtag  DW_TAG_structure_type
     944                      .dwattr $C$DW$T$26, DW_AT_name("_CLARKE_Obj_")
     945                      .dwattr $C$DW$T$26, DW_AT_byte_size(0x06)
     946              $C$DW$194       .dwtag  DW_TAG_member
     947                      .dwattr $C$DW$194, DW_AT_type(*$C$DW$T$20)
     948                      .dwattr $C$DW$194, DW_AT_name("alpha_sf")
     949                      .dwattr $C$DW$194, DW_AT_TI_symbol_name("_alpha_sf")
TMS320C2000 Assembler PC v6.2.5 Wed Jun 21 14:56:38 2017

Tools Copyright (c) 1996-2014 Texas Instruments Incorporated
C:\Users\wmj\AppData\Local\Temp\0706010                              PAGE   19

     950                      .dwattr $C$DW$194, DW_AT_data_member_location[DW_OP_plus_uconst 0x0]
     951                      .dwattr $C$DW$194, DW_AT_accessibility(DW_ACCESS_public)
     952              $C$DW$195       .dwtag  DW_TAG_member
     953                      .dwattr $C$DW$195, DW_AT_type(*$C$DW$T$20)
     954                      .dwattr $C$DW$195, DW_AT_name("beta_sf")
     955                      .dwattr $C$DW$195, DW_AT_TI_symbol_name("_beta_sf")
     956                      .dwattr $C$DW$195, DW_AT_data_member_location[DW_OP_plus_uconst 0x2]
     957                      .dwattr $C$DW$195, DW_AT_accessibility(DW_ACCESS_public)
     958              $C$DW$196       .dwtag  DW_TAG_member
     959                      .dwattr $C$DW$196, DW_AT_type(*$C$DW$T$25)
     960                      .dwattr $C$DW$196, DW_AT_name("numSensors")
     961                      .dwattr $C$DW$196, DW_AT_TI_symbol_name("_numSensors")
     962                      .dwattr $C$DW$196, DW_AT_data_member_location[DW_OP_plus_uconst 0x4]
     963                      .dwattr $C$DW$196, DW_AT_accessibility(DW_ACCESS_public)
     964                      .dwendtag $C$DW$T$26
     965              
     966              $C$DW$T$34      .dwtag  DW_TAG_typedef, DW_AT_name("CLARKE_Obj")
     967                      .dwattr $C$DW$T$34, DW_AT_type(*$C$DW$T$26)
     968                      .dwattr $C$DW$T$34, DW_AT_language(DW_LANG_C)
     969              $C$DW$T$32      .dwtag  DW_TAG_pointer_type
     970                      .dwattr $C$DW$T$32, DW_AT_type(*$C$DW$T$26)
     971                      .dwattr $C$DW$T$32, DW_AT_address_class(0x16)
     972              $C$DW$T$33      .dwtag  DW_TAG_typedef, DW_AT_name("CLARKE_Handle")
     973                      .dwattr $C$DW$T$33, DW_AT_type(*$C$DW$T$32)
     974                      .dwattr $C$DW$T$33, DW_AT_language(DW_LANG_C)
     975              
     976              $C$DW$T$60      .dwtag  DW_TAG_structure_type
     977                      .dwattr $C$DW$T$60, DW_AT_name("_CTRL_Obj_")
     978                      .dwattr $C$DW$T$60, DW_AT_byte_size(0x108)
     979              $C$DW$197       .dwtag  DW_TAG_member
     980                      .dwattr $C$DW$197, DW_AT_type(*$C$DW$T$27)
     981                      .dwattr $C$DW$197, DW_AT_name("version")
     982                      .dwattr $C$DW$197, DW_AT_TI_symbol_name("_version")
     983                      .dwattr $C$DW$197, DW_AT_data_member_location[DW_OP_plus_uconst 0x0]
     984                      .dwattr $C$DW$197, DW_AT_accessibility(DW_ACCESS_public)
     985              $C$DW$198       .dwtag  DW_TAG_member
     986                      .dwattr $C$DW$198, DW_AT_type(*$C$DW$T$29)
     987                      .dwattr $C$DW$198, DW_AT_name("state")
     988                      .dwattr $C$DW$198, DW_AT_TI_symbol_name("_state")
     989                      .dwattr $C$DW$198, DW_AT_data_member_location[DW_OP_plus_uconst 0x4]
     990                      .dwattr $C$DW$198, DW_AT_accessibility(DW_ACCESS_public)
     991              $C$DW$199       .dwtag  DW_TAG_member
     992                      .dwattr $C$DW$199, DW_AT_type(*$C$DW$T$29)
     993                      .dwattr $C$DW$199, DW_AT_name("prevState")
     994                      .dwattr $C$DW$199, DW_AT_TI_symbol_name("_prevState")
     995                      .dwattr $C$DW$199, DW_AT_data_member_location[DW_OP_plus_uconst 0x5]
     996                      .dwattr $C$DW$199, DW_AT_accessibility(DW_ACCESS_public)
     997              $C$DW$200       .dwtag  DW_TAG_member
     998                      .dwattr $C$DW$200, DW_AT_type(*$C$DW$T$31)
     999                      .dwattr $C$DW$200, DW_AT_name("errorCode")
    1000                      .dwattr $C$DW$200, DW_AT_TI_symbol_name("_errorCode")
    1001                      .dwattr $C$DW$200, DW_AT_data_member_location[DW_OP_plus_uconst 0x6]
    1002                      .dwattr $C$DW$200, DW_AT_accessibility(DW_ACCESS_public)
    1003              $C$DW$201       .dwtag  DW_TAG_member
    1004                      .dwattr $C$DW$201, DW_AT_type(*$C$DW$T$33)
TMS320C2000 Assembler PC v6.2.5 Wed Jun 21 14:56:38 2017

Tools Copyright (c) 1996-2014 Texas Instruments Incorporated
C:\Users\wmj\AppData\Local\Temp\0706010                              PAGE   20

    1005                      .dwattr $C$DW$201, DW_AT_name("clarkeHandle_I")
    1006                      .dwattr $C$DW$201, DW_AT_TI_symbol_name("_clarkeHandle_I")
    1007                      .dwattr $C$DW$201, DW_AT_data_member_location[DW_OP_plus_uconst 0x8]
    1008                      .dwattr $C$DW$201, DW_AT_accessibility(DW_ACCESS_public)
    1009              $C$DW$202       .dwtag  DW_TAG_member
    1010                      .dwattr $C$DW$202, DW_AT_type(*$C$DW$T$34)
    1011                      .dwattr $C$DW$202, DW_AT_name("clarke_I")
    1012                      .dwattr $C$DW$202, DW_AT_TI_symbol_name("_clarke_I")
    1013                      .dwattr $C$DW$202, DW_AT_data_member_location[DW_OP_plus_uconst 0xa]
    1014                      .dwattr $C$DW$202, DW_AT_accessibility(DW_ACCESS_public)
    1015              $C$DW$203       .dwtag  DW_TAG_member
    1016                      .dwattr $C$DW$203, DW_AT_type(*$C$DW$T$33)
    1017                      .dwattr $C$DW$203, DW_AT_name("clarkeHandle_V")
    1018                      .dwattr $C$DW$203, DW_AT_TI_symbol_name("_clarkeHandle_V")
    1019                      .dwattr $C$DW$203, DW_AT_data_member_location[DW_OP_plus_uconst 0x10]
    1020                      .dwattr $C$DW$203, DW_AT_accessibility(DW_ACCESS_public)
    1021              $C$DW$204       .dwtag  DW_TAG_member
    1022                      .dwattr $C$DW$204, DW_AT_type(*$C$DW$T$34)
    1023                      .dwattr $C$DW$204, DW_AT_name("clarke_V")
    1024                      .dwattr $C$DW$204, DW_AT_TI_symbol_name("_clarke_V")
    1025                      .dwattr $C$DW$204, DW_AT_data_member_location[DW_OP_plus_uconst 0x12]
    1026                      .dwattr $C$DW$204, DW_AT_accessibility(DW_ACCESS_public)
    1027              $C$DW$205       .dwtag  DW_TAG_member
    1028                      .dwattr $C$DW$205, DW_AT_type(*$C$DW$T$36)
    1029                      .dwattr $C$DW$205, DW_AT_name("estHandle")
    1030                      .dwattr $C$DW$205, DW_AT_TI_symbol_name("_estHandle")
    1031                      .dwattr $C$DW$205, DW_AT_data_member_location[DW_OP_plus_uconst 0x18]
    1032                      .dwattr $C$DW$205, DW_AT_accessibility(DW_ACCESS_public)
    1033              $C$DW$206       .dwtag  DW_TAG_member
    1034                      .dwattr $C$DW$206, DW_AT_type(*$C$DW$T$38)
    1035                      .dwattr $C$DW$206, DW_AT_name("parkHandle")
    1036                      .dwattr $C$DW$206, DW_AT_TI_symbol_name("_parkHandle")
    1037                      .dwattr $C$DW$206, DW_AT_data_member_location[DW_OP_plus_uconst 0x1a]
    1038                      .dwattr $C$DW$206, DW_AT_accessibility(DW_ACCESS_public)
    1039              $C$DW$207       .dwtag  DW_TAG_member
    1040                      .dwattr $C$DW$207, DW_AT_type(*$C$DW$T$39)
    1041                      .dwattr $C$DW$207, DW_AT_name("park")
    1042                      .dwattr $C$DW$207, DW_AT_TI_symbol_name("_park")
    1043                      .dwattr $C$DW$207, DW_AT_data_member_location[DW_OP_plus_uconst 0x1c]
    1044                      .dwattr $C$DW$207, DW_AT_accessibility(DW_ACCESS_public)
    1045              $C$DW$208       .dwtag  DW_TAG_member
    1046                      .dwattr $C$DW$208, DW_AT_type(*$C$DW$T$41)
    1047                      .dwattr $C$DW$208, DW_AT_name("pidHandle_Id")
    1048                      .dwattr $C$DW$208, DW_AT_TI_symbol_name("_pidHandle_Id")
    1049                      .dwattr $C$DW$208, DW_AT_data_member_location[DW_OP_plus_uconst 0x20]
    1050                      .dwattr $C$DW$208, DW_AT_accessibility(DW_ACCESS_public)
    1051              $C$DW$209       .dwtag  DW_TAG_member
    1052                      .dwattr $C$DW$209, DW_AT_type(*$C$DW$T$42)
    1053                      .dwattr $C$DW$209, DW_AT_name("pid_Id")
    1054                      .dwattr $C$DW$209, DW_AT_TI_symbol_name("_pid_Id")
    1055                      .dwattr $C$DW$209, DW_AT_data_member_location[DW_OP_plus_uconst 0x22]
    1056                      .dwattr $C$DW$209, DW_AT_accessibility(DW_ACCESS_public)
    1057              $C$DW$210       .dwtag  DW_TAG_member
    1058                      .dwattr $C$DW$210, DW_AT_type(*$C$DW$T$41)
    1059                      .dwattr $C$DW$210, DW_AT_name("pidHandle_Iq")
TMS320C2000 Assembler PC v6.2.5 Wed Jun 21 14:56:38 2017

Tools Copyright (c) 1996-2014 Texas Instruments Incorporated
C:\Users\wmj\AppData\Local\Temp\0706010                              PAGE   21

    1060                      .dwattr $C$DW$210, DW_AT_TI_symbol_name("_pidHandle_Iq")
    1061                      .dwattr $C$DW$210, DW_AT_data_member_location[DW_OP_plus_uconst 0x32]
    1062                      .dwattr $C$DW$210, DW_AT_accessibility(DW_ACCESS_public)
    1063              $C$DW$211       .dwtag  DW_TAG_member
    1064                      .dwattr $C$DW$211, DW_AT_type(*$C$DW$T$42)
    1065                      .dwattr $C$DW$211, DW_AT_name("pid_Iq")
    1066                      .dwattr $C$DW$211, DW_AT_TI_symbol_name("_pid_Iq")
    1067                      .dwattr $C$DW$211, DW_AT_data_member_location[DW_OP_plus_uconst 0x34]
    1068                      .dwattr $C$DW$211, DW_AT_accessibility(DW_ACCESS_public)
    1069              $C$DW$212       .dwtag  DW_TAG_member
    1070                      .dwattr $C$DW$212, DW_AT_type(*$C$DW$T$41)
    1071                      .dwattr $C$DW$212, DW_AT_name("pidHandle_spd")
    1072                      .dwattr $C$DW$212, DW_AT_TI_symbol_name("_pidHandle_spd")
    1073                      .dwattr $C$DW$212, DW_AT_data_member_location[DW_OP_plus_uconst 0x44]
    1074                      .dwattr $C$DW$212, DW_AT_accessibility(DW_ACCESS_public)
    1075              $C$DW$213       .dwtag  DW_TAG_member
    1076                      .dwattr $C$DW$213, DW_AT_type(*$C$DW$T$42)
    1077                      .dwattr $C$DW$213, DW_AT_name("pid_spd")
    1078                      .dwattr $C$DW$213, DW_AT_TI_symbol_name("_pid_spd")
    1079                      .dwattr $C$DW$213, DW_AT_data_member_location[DW_OP_plus_uconst 0x46]
    1080                      .dwattr $C$DW$213, DW_AT_accessibility(DW_ACCESS_public)
    1081              $C$DW$214       .dwtag  DW_TAG_member
    1082                      .dwattr $C$DW$214, DW_AT_type(*$C$DW$T$44)
    1083                      .dwattr $C$DW$214, DW_AT_name("iparkHandle")
    1084                      .dwattr $C$DW$214, DW_AT_TI_symbol_name("_iparkHandle")
    1085                      .dwattr $C$DW$214, DW_AT_data_member_location[DW_OP_plus_uconst 0x56]
    1086                      .dwattr $C$DW$214, DW_AT_accessibility(DW_ACCESS_public)
    1087              $C$DW$215       .dwtag  DW_TAG_member
    1088                      .dwattr $C$DW$215, DW_AT_type(*$C$DW$T$45)
    1089                      .dwattr $C$DW$215, DW_AT_name("ipark")
    1090                      .dwattr $C$DW$215, DW_AT_TI_symbol_name("_ipark")
    1091                      .dwattr $C$DW$215, DW_AT_data_member_location[DW_OP_plus_uconst 0x58]
    1092                      .dwattr $C$DW$215, DW_AT_accessibility(DW_ACCESS_public)
    1093              $C$DW$216       .dwtag  DW_TAG_member
    1094                      .dwattr $C$DW$216, DW_AT_type(*$C$DW$T$47)
    1095                      .dwattr $C$DW$216, DW_AT_name("svgenHandle")
    1096                      .dwattr $C$DW$216, DW_AT_TI_symbol_name("_svgenHandle")
    1097                      .dwattr $C$DW$216, DW_AT_data_member_location[DW_OP_plus_uconst 0x5c]
    1098                      .dwattr $C$DW$216, DW_AT_accessibility(DW_ACCESS_public)
    1099              $C$DW$217       .dwtag  DW_TAG_member
    1100                      .dwattr $C$DW$217, DW_AT_type(*$C$DW$T$48)
    1101                      .dwattr $C$DW$217, DW_AT_name("svgen")
    1102                      .dwattr $C$DW$217, DW_AT_TI_symbol_name("_svgen")
    1103                      .dwattr $C$DW$217, DW_AT_data_member_location[DW_OP_plus_uconst 0x5e]
    1104                      .dwattr $C$DW$217, DW_AT_accessibility(DW_ACCESS_public)
    1105              $C$DW$218       .dwtag  DW_TAG_member
    1106                      .dwattr $C$DW$218, DW_AT_type(*$C$DW$T$50)
    1107                      .dwattr $C$DW$218, DW_AT_name("trajHandle_Id")
    1108                      .dwattr $C$DW$218, DW_AT_TI_symbol_name("_trajHandle_Id")
    1109                      .dwattr $C$DW$218, DW_AT_data_member_location[DW_OP_plus_uconst 0x60]
    1110                      .dwattr $C$DW$218, DW_AT_accessibility(DW_ACCESS_public)
    1111              $C$DW$219       .dwtag  DW_TAG_member
    1112                      .dwattr $C$DW$219, DW_AT_type(*$C$DW$T$51)
    1113                      .dwattr $C$DW$219, DW_AT_name("traj_Id")
    1114                      .dwattr $C$DW$219, DW_AT_TI_symbol_name("_traj_Id")
TMS320C2000 Assembler PC v6.2.5 Wed Jun 21 14:56:38 2017

Tools Copyright (c) 1996-2014 Texas Instruments Incorporated
C:\Users\wmj\AppData\Local\Temp\0706010                              PAGE   22

    1115                      .dwattr $C$DW$219, DW_AT_data_member_location[DW_OP_plus_uconst 0x62]
    1116                      .dwattr $C$DW$219, DW_AT_accessibility(DW_ACCESS_public)
    1117              $C$DW$220       .dwtag  DW_TAG_member
    1118                      .dwattr $C$DW$220, DW_AT_type(*$C$DW$T$50)
    1119                      .dwattr $C$DW$220, DW_AT_name("trajHandle_spd")
    1120                      .dwattr $C$DW$220, DW_AT_TI_symbol_name("_trajHandle_spd")
    1121                      .dwattr $C$DW$220, DW_AT_data_member_location[DW_OP_plus_uconst 0x6c]
    1122                      .dwattr $C$DW$220, DW_AT_accessibility(DW_ACCESS_public)
    1123              $C$DW$221       .dwtag  DW_TAG_member
    1124                      .dwattr $C$DW$221, DW_AT_type(*$C$DW$T$51)
    1125                      .dwattr $C$DW$221, DW_AT_name("traj_spd")
    1126                      .dwattr $C$DW$221, DW_AT_TI_symbol_name("_traj_spd")
    1127                      .dwattr $C$DW$221, DW_AT_data_member_location[DW_OP_plus_uconst 0x6e]
    1128                      .dwattr $C$DW$221, DW_AT_accessibility(DW_ACCESS_public)
    1129              $C$DW$222       .dwtag  DW_TAG_member
    1130                      .dwattr $C$DW$222, DW_AT_type(*$C$DW$T$50)
    1131                      .dwattr $C$DW$222, DW_AT_name("trajHandle_spdMax")
    1132                      .dwattr $C$DW$222, DW_AT_TI_symbol_name("_trajHandle_spdMax")
    1133                      .dwattr $C$DW$222, DW_AT_data_member_location[DW_OP_plus_uconst 0x78]
    1134                      .dwattr $C$DW$222, DW_AT_accessibility(DW_ACCESS_public)
    1135              $C$DW$223       .dwtag  DW_TAG_member
    1136                      .dwattr $C$DW$223, DW_AT_type(*$C$DW$T$51)
    1137                      .dwattr $C$DW$223, DW_AT_name("traj_spdMax")
    1138                      .dwattr $C$DW$223, DW_AT_TI_symbol_name("_traj_spdMax")
    1139                      .dwattr $C$DW$223, DW_AT_data_member_location[DW_OP_plus_uconst 0x7a]
    1140                      .dwattr $C$DW$223, DW_AT_accessibility(DW_ACCESS_public)
    1141              $C$DW$224       .dwtag  DW_TAG_member
    1142                      .dwattr $C$DW$224, DW_AT_type(*$C$DW$T$52)
    1143                      .dwattr $C$DW$224, DW_AT_name("motorParams")
    1144                      .dwattr $C$DW$224, DW_AT_TI_symbol_name("_motorParams")
    1145                      .dwattr $C$DW$224, DW_AT_data_member_location[DW_OP_plus_uconst 0x84]
    1146                      .dwattr $C$DW$224, DW_AT_accessibility(DW_ACCESS_public)
    1147              $C$DW$225       .dwtag  DW_TAG_member
    1148                      .dwattr $C$DW$225, DW_AT_type(*$C$DW$T$55)
    1149                      .dwattr $C$DW$225, DW_AT_name("waitTimes")
    1150                      .dwattr $C$DW$225, DW_AT_TI_symbol_name("_waitTimes")
    1151                      .dwattr $C$DW$225, DW_AT_data_member_location[DW_OP_plus_uconst 0x92]
    1152                      .dwattr $C$DW$225, DW_AT_accessibility(DW_ACCESS_public)
    1153              $C$DW$226       .dwtag  DW_TAG_member
    1154                      .dwattr $C$DW$226, DW_AT_type(*$C$DW$T$54)
    1155                      .dwattr $C$DW$226, DW_AT_name("counter_state")
    1156                      .dwattr $C$DW$226, DW_AT_TI_symbol_name("_counter_state")
    1157                      .dwattr $C$DW$226, DW_AT_data_member_location[DW_OP_plus_uconst 0x9a]
    1158                      .dwattr $C$DW$226, DW_AT_accessibility(DW_ACCESS_public)
    1159              $C$DW$227       .dwtag  DW_TAG_member
    1160                      .dwattr $C$DW$227, DW_AT_type(*$C$DW$T$56)
    1161                      .dwattr $C$DW$227, DW_AT_name("numIsrTicksPerCtrlTick")
    1162                      .dwattr $C$DW$227, DW_AT_TI_symbol_name("_numIsrTicksPerCtrlTick")
    1163                      .dwattr $C$DW$227, DW_AT_data_member_location[DW_OP_plus_uconst 0x9c]
    1164                      .dwattr $C$DW$227, DW_AT_accessibility(DW_ACCESS_public)
    1165              $C$DW$228       .dwtag  DW_TAG_member
    1166                      .dwattr $C$DW$228, DW_AT_type(*$C$DW$T$56)
    1167                      .dwattr $C$DW$228, DW_AT_name("numCtrlTicksPerCurrentTick")
    1168                      .dwattr $C$DW$228, DW_AT_TI_symbol_name("_numCtrlTicksPerCurrentTick")
    1169                      .dwattr $C$DW$228, DW_AT_data_member_location[DW_OP_plus_uconst 0x9d]
TMS320C2000 Assembler PC v6.2.5 Wed Jun 21 14:56:38 2017

Tools Copyright (c) 1996-2014 Texas Instruments Incorporated
C:\Users\wmj\AppData\Local\Temp\0706010                              PAGE   23

    1170                      .dwattr $C$DW$228, DW_AT_accessibility(DW_ACCESS_public)
    1171              $C$DW$229       .dwtag  DW_TAG_member
    1172                      .dwattr $C$DW$229, DW_AT_type(*$C$DW$T$56)
    1173                      .dwattr $C$DW$229, DW_AT_name("numCtrlTicksPerSpeedTick")
    1174                      .dwattr $C$DW$229, DW_AT_TI_symbol_name("_numCtrlTicksPerSpeedTick")
    1175                      .dwattr $C$DW$229, DW_AT_data_member_location[DW_OP_plus_uconst 0x9e]
    1176                      .dwattr $C$DW$229, DW_AT_accessibility(DW_ACCESS_public)
    1177              $C$DW$230       .dwtag  DW_TAG_member
    1178                      .dwattr $C$DW$230, DW_AT_type(*$C$DW$T$56)
    1179                      .dwattr $C$DW$230, DW_AT_name("numCtrlTicksPerTrajTick")
    1180                      .dwattr $C$DW$230, DW_AT_TI_symbol_name("_numCtrlTicksPerTrajTick")
    1181                      .dwattr $C$DW$230, DW_AT_data_member_location[DW_OP_plus_uconst 0x9f]
    1182                      .dwattr $C$DW$230, DW_AT_accessibility(DW_ACCESS_public)
    1183              $C$DW$231       .dwtag  DW_TAG_member
    1184                      .dwattr $C$DW$231, DW_AT_type(*$C$DW$T$54)
    1185                      .dwattr $C$DW$231, DW_AT_name("ctrlFreq_Hz")
    1186                      .dwattr $C$DW$231, DW_AT_TI_symbol_name("_ctrlFreq_Hz")
    1187                      .dwattr $C$DW$231, DW_AT_data_member_location[DW_OP_plus_uconst 0xa0]
    1188                      .dwattr $C$DW$231, DW_AT_accessibility(DW_ACCESS_public)
    1189              $C$DW$232       .dwtag  DW_TAG_member
    1190                      .dwattr $C$DW$232, DW_AT_type(*$C$DW$T$54)
    1191                      .dwattr $C$DW$232, DW_AT_name("trajFreq_Hz")
    1192                      .dwattr $C$DW$232, DW_AT_TI_symbol_name("_trajFreq_Hz")
    1193                      .dwattr $C$DW$232, DW_AT_data_member_location[DW_OP_plus_uconst 0xa2]
    1194                      .dwattr $C$DW$232, DW_AT_accessibility(DW_ACCESS_public)
    1195              $C$DW$233       .dwtag  DW_TAG_member
    1196                      .dwattr $C$DW$233, DW_AT_type(*$C$DW$T$20)
    1197                      .dwattr $C$DW$233, DW_AT_name("trajPeriod_sec")
    1198                      .dwattr $C$DW$233, DW_AT_TI_symbol_name("_trajPeriod_sec")
    1199                      .dwattr $C$DW$233, DW_AT_data_member_location[DW_OP_plus_uconst 0xa4]
    1200                      .dwattr $C$DW$233, DW_AT_accessibility(DW_ACCESS_public)
    1201              $C$DW$234       .dwtag  DW_TAG_member
    1202                      .dwattr $C$DW$234, DW_AT_type(*$C$DW$T$57)
    1203                      .dwattr $C$DW$234, DW_AT_name("ctrlPeriod_sec")
    1204                      .dwattr $C$DW$234, DW_AT_TI_symbol_name("_ctrlPeriod_sec")
    1205                      .dwattr $C$DW$234, DW_AT_data_member_location[DW_OP_plus_uconst 0xa6]
    1206                      .dwattr $C$DW$234, DW_AT_accessibility(DW_ACCESS_public)
    1207              $C$DW$235       .dwtag  DW_TAG_member
    1208                      .dwattr $C$DW$235, DW_AT_type(*$C$DW$T$20)
    1209                      .dwattr $C$DW$235, DW_AT_name("maxVsMag_pu")
    1210                      .dwattr $C$DW$235, DW_AT_TI_symbol_name("_maxVsMag_pu")
    1211                      .dwattr $C$DW$235, DW_AT_data_member_location[DW_OP_plus_uconst 0xa8]
    1212                      .dwattr $C$DW$235, DW_AT_accessibility(DW_ACCESS_public)
    1213              $C$DW$236       .dwtag  DW_TAG_member
    1214                      .dwattr $C$DW$236, DW_AT_type(*$C$DW$T$58)
    1215                      .dwattr $C$DW$236, DW_AT_name("Iab_in")
    1216                      .dwattr $C$DW$236, DW_AT_TI_symbol_name("_Iab_in")
    1217                      .dwattr $C$DW$236, DW_AT_data_member_location[DW_OP_plus_uconst 0xaa]
    1218                      .dwattr $C$DW$236, DW_AT_accessibility(DW_ACCESS_public)
    1219              $C$DW$237       .dwtag  DW_TAG_member
    1220                      .dwattr $C$DW$237, DW_AT_type(*$C$DW$T$58)
    1221                      .dwattr $C$DW$237, DW_AT_name("Iab_filt")
    1222                      .dwattr $C$DW$237, DW_AT_TI_symbol_name("_Iab_filt")
    1223                      .dwattr $C$DW$237, DW_AT_data_member_location[DW_OP_plus_uconst 0xae]
    1224                      .dwattr $C$DW$237, DW_AT_accessibility(DW_ACCESS_public)
TMS320C2000 Assembler PC v6.2.5 Wed Jun 21 14:56:38 2017

Tools Copyright (c) 1996-2014 Texas Instruments Incorporated
C:\Users\wmj\AppData\Local\Temp\0706010                              PAGE   24

    1225              $C$DW$238       .dwtag  DW_TAG_member
    1226                      .dwattr $C$DW$238, DW_AT_type(*$C$DW$T$58)
    1227                      .dwattr $C$DW$238, DW_AT_name("Idq_in")
    1228                      .dwattr $C$DW$238, DW_AT_TI_symbol_name("_Idq_in")
    1229                      .dwattr $C$DW$238, DW_AT_data_member_location[DW_OP_plus_uconst 0xb2]
    1230                      .dwattr $C$DW$238, DW_AT_accessibility(DW_ACCESS_public)
    1231              $C$DW$239       .dwtag  DW_TAG_member
    1232                      .dwattr $C$DW$239, DW_AT_type(*$C$DW$T$58)
    1233                      .dwattr $C$DW$239, DW_AT_name("Vab_in")
    1234                      .dwattr $C$DW$239, DW_AT_TI_symbol_name("_Vab_in")
    1235                      .dwattr $C$DW$239, DW_AT_data_member_location[DW_OP_plus_uconst 0xb6]
    1236                      .dwattr $C$DW$239, DW_AT_accessibility(DW_ACCESS_public)
    1237              $C$DW$240       .dwtag  DW_TAG_member
    1238                      .dwattr $C$DW$240, DW_AT_type(*$C$DW$T$20)
    1239                      .dwattr $C$DW$240, DW_AT_name("spd_out")
    1240                      .dwattr $C$DW$240, DW_AT_TI_symbol_name("_spd_out")
    1241                      .dwattr $C$DW$240, DW_AT_data_member_location[DW_OP_plus_uconst 0xba]
    1242                      .dwattr $C$DW$240, DW_AT_accessibility(DW_ACCESS_public)
    1243              $C$DW$241       .dwtag  DW_TAG_member
    1244                      .dwattr $C$DW$241, DW_AT_type(*$C$DW$T$58)
    1245                      .dwattr $C$DW$241, DW_AT_name("Vab_out")
    1246                      .dwattr $C$DW$241, DW_AT_TI_symbol_name("_Vab_out")
    1247                      .dwattr $C$DW$241, DW_AT_data_member_location[DW_OP_plus_uconst 0xbc]
    1248                      .dwattr $C$DW$241, DW_AT_accessibility(DW_ACCESS_public)
    1249              $C$DW$242       .dwtag  DW_TAG_member
    1250                      .dwattr $C$DW$242, DW_AT_type(*$C$DW$T$58)
    1251                      .dwattr $C$DW$242, DW_AT_name("Vdq_out")
    1252                      .dwattr $C$DW$242, DW_AT_TI_symbol_name("_Vdq_out")
    1253                      .dwattr $C$DW$242, DW_AT_data_member_location[DW_OP_plus_uconst 0xc0]
    1254                      .dwattr $C$DW$242, DW_AT_accessibility(DW_ACCESS_public)
    1255              $C$DW$243       .dwtag  DW_TAG_member
    1256                      .dwattr $C$DW$243, DW_AT_type(*$C$DW$T$57)
    1257                      .dwattr $C$DW$243, DW_AT_name("Rhf")
    1258                      .dwattr $C$DW$243, DW_AT_TI_symbol_name("_Rhf")
    1259                      .dwattr $C$DW$243, DW_AT_data_member_location[DW_OP_plus_uconst 0xc4]
    1260                      .dwattr $C$DW$243, DW_AT_accessibility(DW_ACCESS_public)
    1261              $C$DW$244       .dwtag  DW_TAG_member
    1262                      .dwattr $C$DW$244, DW_AT_type(*$C$DW$T$57)
    1263                      .dwattr $C$DW$244, DW_AT_name("Lhf")
    1264                      .dwattr $C$DW$244, DW_AT_TI_symbol_name("_Lhf")
    1265                      .dwattr $C$DW$244, DW_AT_data_member_location[DW_OP_plus_uconst 0xc6]
    1266                      .dwattr $C$DW$244, DW_AT_accessibility(DW_ACCESS_public)
    1267              $C$DW$245       .dwtag  DW_TAG_member
    1268                      .dwattr $C$DW$245, DW_AT_type(*$C$DW$T$57)
    1269                      .dwattr $C$DW$245, DW_AT_name("RoverL")
    1270                      .dwattr $C$DW$245, DW_AT_TI_symbol_name("_RoverL")
    1271                      .dwattr $C$DW$245, DW_AT_data_member_location[DW_OP_plus_uconst 0xc8]
    1272                      .dwattr $C$DW$245, DW_AT_accessibility(DW_ACCESS_public)
    1273              $C$DW$246       .dwtag  DW_TAG_member
    1274                      .dwattr $C$DW$246, DW_AT_type(*$C$DW$T$20)
    1275                      .dwattr $C$DW$246, DW_AT_name("Kp_Id")
    1276                      .dwattr $C$DW$246, DW_AT_TI_symbol_name("_Kp_Id")
    1277                      .dwattr $C$DW$246, DW_AT_data_member_location[DW_OP_plus_uconst 0xca]
    1278                      .dwattr $C$DW$246, DW_AT_accessibility(DW_ACCESS_public)
    1279              $C$DW$247       .dwtag  DW_TAG_member
TMS320C2000 Assembler PC v6.2.5 Wed Jun 21 14:56:38 2017

Tools Copyright (c) 1996-2014 Texas Instruments Incorporated
C:\Users\wmj\AppData\Local\Temp\0706010                              PAGE   25

    1280                      .dwattr $C$DW$247, DW_AT_type(*$C$DW$T$20)
    1281                      .dwattr $C$DW$247, DW_AT_name("Kp_Iq")
    1282                      .dwattr $C$DW$247, DW_AT_TI_symbol_name("_Kp_Iq")
    1283                      .dwattr $C$DW$247, DW_AT_data_member_location[DW_OP_plus_uconst 0xcc]
    1284                      .dwattr $C$DW$247, DW_AT_accessibility(DW_ACCESS_public)
    1285              $C$DW$248       .dwtag  DW_TAG_member
    1286                      .dwattr $C$DW$248, DW_AT_type(*$C$DW$T$20)
    1287                      .dwattr $C$DW$248, DW_AT_name("Kp_spd")
    1288                      .dwattr $C$DW$248, DW_AT_TI_symbol_name("_Kp_spd")
    1289                      .dwattr $C$DW$248, DW_AT_data_member_location[DW_OP_plus_uconst 0xce]
    1290                      .dwattr $C$DW$248, DW_AT_accessibility(DW_ACCESS_public)
    1291              $C$DW$249       .dwtag  DW_TAG_member
    1292                      .dwattr $C$DW$249, DW_AT_type(*$C$DW$T$20)
    1293                      .dwattr $C$DW$249, DW_AT_name("Ki_Id")
    1294                      .dwattr $C$DW$249, DW_AT_TI_symbol_name("_Ki_Id")
    1295                      .dwattr $C$DW$249, DW_AT_data_member_location[DW_OP_plus_uconst 0xd0]
    1296                      .dwattr $C$DW$249, DW_AT_accessibility(DW_ACCESS_public)
    1297              $C$DW$250       .dwtag  DW_TAG_member
    1298                      .dwattr $C$DW$250, DW_AT_type(*$C$DW$T$20)
    1299                      .dwattr $C$DW$250, DW_AT_name("Ki_Iq")
    1300                      .dwattr $C$DW$250, DW_AT_TI_symbol_name("_Ki_Iq")
    1301                      .dwattr $C$DW$250, DW_AT_data_member_location[DW_OP_plus_uconst 0xd2]
    1302                      .dwattr $C$DW$250, DW_AT_accessibility(DW_ACCESS_public)
    1303              $C$DW$251       .dwtag  DW_TAG_member
    1304                      .dwattr $C$DW$251, DW_AT_type(*$C$DW$T$20)
    1305                      .dwattr $C$DW$251, DW_AT_name("Ki_spd")
    1306                      .dwattr $C$DW$251, DW_AT_TI_symbol_name("_Ki_spd")
    1307                      .dwattr $C$DW$251, DW_AT_data_member_location[DW_OP_plus_uconst 0xd4]
    1308                      .dwattr $C$DW$251, DW_AT_accessibility(DW_ACCESS_public)
    1309              $C$DW$252       .dwtag  DW_TAG_member
    1310                      .dwattr $C$DW$252, DW_AT_type(*$C$DW$T$20)
    1311                      .dwattr $C$DW$252, DW_AT_name("Kd_Id")
    1312                      .dwattr $C$DW$252, DW_AT_TI_symbol_name("_Kd_Id")
    1313                      .dwattr $C$DW$252, DW_AT_data_member_location[DW_OP_plus_uconst 0xd6]
    1314                      .dwattr $C$DW$252, DW_AT_accessibility(DW_ACCESS_public)
    1315              $C$DW$253       .dwtag  DW_TAG_member
    1316                      .dwattr $C$DW$253, DW_AT_type(*$C$DW$T$20)
    1317                      .dwattr $C$DW$253, DW_AT_name("Kd_Iq")
    1318                      .dwattr $C$DW$253, DW_AT_TI_symbol_name("_Kd_Iq")
    1319                      .dwattr $C$DW$253, DW_AT_data_member_location[DW_OP_plus_uconst 0xd8]
    1320                      .dwattr $C$DW$253, DW_AT_accessibility(DW_ACCESS_public)
    1321              $C$DW$254       .dwtag  DW_TAG_member
    1322                      .dwattr $C$DW$254, DW_AT_type(*$C$DW$T$20)
    1323                      .dwattr $C$DW$254, DW_AT_name("Kd_spd")
    1324                      .dwattr $C$DW$254, DW_AT_TI_symbol_name("_Kd_spd")
    1325                      .dwattr $C$DW$254, DW_AT_data_member_location[DW_OP_plus_uconst 0xda]
    1326                      .dwattr $C$DW$254, DW_AT_accessibility(DW_ACCESS_public)
    1327              $C$DW$255       .dwtag  DW_TAG_member
    1328                      .dwattr $C$DW$255, DW_AT_type(*$C$DW$T$20)
    1329                      .dwattr $C$DW$255, DW_AT_name("Ui_Id")
    1330                      .dwattr $C$DW$255, DW_AT_TI_symbol_name("_Ui_Id")
    1331                      .dwattr $C$DW$255, DW_AT_data_member_location[DW_OP_plus_uconst 0xdc]
    1332                      .dwattr $C$DW$255, DW_AT_accessibility(DW_ACCESS_public)
    1333              $C$DW$256       .dwtag  DW_TAG_member
    1334                      .dwattr $C$DW$256, DW_AT_type(*$C$DW$T$20)
TMS320C2000 Assembler PC v6.2.5 Wed Jun 21 14:56:38 2017

Tools Copyright (c) 1996-2014 Texas Instruments Incorporated
C:\Users\wmj\AppData\Local\Temp\0706010                              PAGE   26

    1335                      .dwattr $C$DW$256, DW_AT_name("Ui_Iq")
    1336                      .dwattr $C$DW$256, DW_AT_TI_symbol_name("_Ui_Iq")
    1337                      .dwattr $C$DW$256, DW_AT_data_member_location[DW_OP_plus_uconst 0xde]
    1338                      .dwattr $C$DW$256, DW_AT_accessibility(DW_ACCESS_public)
    1339              $C$DW$257       .dwtag  DW_TAG_member
    1340                      .dwattr $C$DW$257, DW_AT_type(*$C$DW$T$20)
    1341                      .dwattr $C$DW$257, DW_AT_name("Ui_spd")
    1342                      .dwattr $C$DW$257, DW_AT_TI_symbol_name("_Ui_spd")
    1343                      .dwattr $C$DW$257, DW_AT_data_member_location[DW_OP_plus_uconst 0xe0]
    1344                      .dwattr $C$DW$257, DW_AT_accessibility(DW_ACCESS_public)
    1345              $C$DW$258       .dwtag  DW_TAG_member
    1346                      .dwattr $C$DW$258, DW_AT_type(*$C$DW$T$58)
    1347                      .dwattr $C$DW$258, DW_AT_name("Idq_ref")
    1348                      .dwattr $C$DW$258, DW_AT_TI_symbol_name("_Idq_ref")
    1349                      .dwattr $C$DW$258, DW_AT_data_member_location[DW_OP_plus_uconst 0xe2]
    1350                      .dwattr $C$DW$258, DW_AT_accessibility(DW_ACCESS_public)
    1351              $C$DW$259       .dwtag  DW_TAG_member
    1352                      .dwattr $C$DW$259, DW_AT_type(*$C$DW$T$20)
    1353                      .dwattr $C$DW$259, DW_AT_name("IdRated")
    1354                      .dwattr $C$DW$259, DW_AT_TI_symbol_name("_IdRated")
    1355                      .dwattr $C$DW$259, DW_AT_data_member_location[DW_OP_plus_uconst 0xe6]
    1356                      .dwattr $C$DW$259, DW_AT_accessibility(DW_ACCESS_public)
    1357              $C$DW$260       .dwtag  DW_TAG_member
    1358                      .dwattr $C$DW$260, DW_AT_type(*$C$DW$T$20)
    1359                      .dwattr $C$DW$260, DW_AT_name("spd_ref")
    1360                      .dwattr $C$DW$260, DW_AT_TI_symbol_name("_spd_ref")
    1361                      .dwattr $C$DW$260, DW_AT_data_member_location[DW_OP_plus_uconst 0xe8]
    1362                      .dwattr $C$DW$260, DW_AT_accessibility(DW_ACCESS_public)
    1363              $C$DW$261       .dwtag  DW_TAG_member
    1364                      .dwattr $C$DW$261, DW_AT_type(*$C$DW$T$20)
    1365                      .dwattr $C$DW$261, DW_AT_name("spd_max")
    1366                      .dwattr $C$DW$261, DW_AT_TI_symbol_name("_spd_max")
    1367                      .dwattr $C$DW$261, DW_AT_data_member_location[DW_OP_plus_uconst 0xea]
    1368                      .dwattr $C$DW$261, DW_AT_accessibility(DW_ACCESS_public)
    1369              $C$DW$262       .dwtag  DW_TAG_member
    1370                      .dwattr $C$DW$262, DW_AT_type(*$C$DW$T$56)
    1371                      .dwattr $C$DW$262, DW_AT_name("counter_current")
    1372                      .dwattr $C$DW$262, DW_AT_TI_symbol_name("_counter_current")
    1373                      .dwattr $C$DW$262, DW_AT_data_member_location[DW_OP_plus_uconst 0xec]
    1374                      .dwattr $C$DW$262, DW_AT_accessibility(DW_ACCESS_public)
    1375              $C$DW$263       .dwtag  DW_TAG_member
    1376                      .dwattr $C$DW$263, DW_AT_type(*$C$DW$T$56)
    1377                      .dwattr $C$DW$263, DW_AT_name("counter_isr")
    1378                      .dwattr $C$DW$263, DW_AT_TI_symbol_name("_counter_isr")
    1379                      .dwattr $C$DW$263, DW_AT_data_member_location[DW_OP_plus_uconst 0xed]
    1380                      .dwattr $C$DW$263, DW_AT_accessibility(DW_ACCESS_public)
    1381              $C$DW$264       .dwtag  DW_TAG_member
    1382                      .dwattr $C$DW$264, DW_AT_type(*$C$DW$T$56)
    1383                      .dwattr $C$DW$264, DW_AT_name("counter_speed")
    1384                      .dwattr $C$DW$264, DW_AT_TI_symbol_name("_counter_speed")
    1385                      .dwattr $C$DW$264, DW_AT_data_member_location[DW_OP_plus_uconst 0xee]
    1386                      .dwattr $C$DW$264, DW_AT_accessibility(DW_ACCESS_public)
    1387              $C$DW$265       .dwtag  DW_TAG_member
    1388                      .dwattr $C$DW$265, DW_AT_type(*$C$DW$T$56)
    1389                      .dwattr $C$DW$265, DW_AT_name("counter_traj")
TMS320C2000 Assembler PC v6.2.5 Wed Jun 21 14:56:38 2017

Tools Copyright (c) 1996-2014 Texas Instruments Incorporated
C:\Users\wmj\AppData\Local\Temp\0706010                              PAGE   27

    1390                      .dwattr $C$DW$265, DW_AT_TI_symbol_name("_counter_traj")
    1391                      .dwattr $C$DW$265, DW_AT_data_member_location[DW_OP_plus_uconst 0xef]
    1392                      .dwattr $C$DW$265, DW_AT_accessibility(DW_ACCESS_public)
    1393              $C$DW$266       .dwtag  DW_TAG_member
    1394                      .dwattr $C$DW$266, DW_AT_type(*$C$DW$T$59)
    1395                      .dwattr $C$DW$266, DW_AT_name("flag_enableCtrl")
    1396                      .dwattr $C$DW$266, DW_AT_TI_symbol_name("_flag_enableCtrl")
    1397                      .dwattr $C$DW$266, DW_AT_data_member_location[DW_OP_plus_uconst 0xf0]
    1398                      .dwattr $C$DW$266, DW_AT_accessibility(DW_ACCESS_public)
    1399              $C$DW$267       .dwtag  DW_TAG_member
    1400                      .dwattr $C$DW$267, DW_AT_type(*$C$DW$T$59)
    1401                      .dwattr $C$DW$267, DW_AT_name("flag_enableDcBusComp")
    1402                      .dwattr $C$DW$267, DW_AT_TI_symbol_name("_flag_enableDcBusComp")
    1403                      .dwattr $C$DW$267, DW_AT_data_member_location[DW_OP_plus_uconst 0xf1]
    1404                      .dwattr $C$DW$267, DW_AT_accessibility(DW_ACCESS_public)
    1405              $C$DW$268       .dwtag  DW_TAG_member
    1406                      .dwattr $C$DW$268, DW_AT_type(*$C$DW$T$59)
    1407                      .dwattr $C$DW$268, DW_AT_name("flag_enablePowerWarp")
    1408                      .dwattr $C$DW$268, DW_AT_TI_symbol_name("_flag_enablePowerWarp")
    1409                      .dwattr $C$DW$268, DW_AT_data_member_location[DW_OP_plus_uconst 0xf2]
    1410                      .dwattr $C$DW$268, DW_AT_accessibility(DW_ACCESS_public)
    1411              $C$DW$269       .dwtag  DW_TAG_member
    1412                      .dwattr $C$DW$269, DW_AT_type(*$C$DW$T$59)
    1413                      .dwattr $C$DW$269, DW_AT_name("flag_enableOffset")
    1414                      .dwattr $C$DW$269, DW_AT_TI_symbol_name("_flag_enableOffset")
    1415                      .dwattr $C$DW$269, DW_AT_data_member_location[DW_OP_plus_uconst 0xf3]
    1416                      .dwattr $C$DW$269, DW_AT_accessibility(DW_ACCESS_public)
    1417              $C$DW$270       .dwtag  DW_TAG_member
    1418                      .dwattr $C$DW$270, DW_AT_type(*$C$DW$T$59)
    1419                      .dwattr $C$DW$270, DW_AT_name("flag_enableSpeedCtrl")
    1420                      .dwattr $C$DW$270, DW_AT_TI_symbol_name("_flag_enableSpeedCtrl")
    1421                      .dwattr $C$DW$270, DW_AT_data_member_location[DW_OP_plus_uconst 0xf4]
    1422                      .dwattr $C$DW$270, DW_AT_accessibility(DW_ACCESS_public)
    1423              $C$DW$271       .dwtag  DW_TAG_member
    1424                      .dwattr $C$DW$271, DW_AT_type(*$C$DW$T$59)
    1425                      .dwattr $C$DW$271, DW_AT_name("flag_enableUserMotorParams")
    1426                      .dwattr $C$DW$271, DW_AT_TI_symbol_name("_flag_enableUserMotorParams")
    1427                      .dwattr $C$DW$271, DW_AT_data_member_location[DW_OP_plus_uconst 0xf5]
    1428                      .dwattr $C$DW$271, DW_AT_accessibility(DW_ACCESS_public)
    1429              $C$DW$272       .dwtag  DW_TAG_member
    1430                      .dwattr $C$DW$272, DW_AT_type(*$C$DW$T$58)
    1431                      .dwattr $C$DW$272, DW_AT_name("Idq_offset_pu")
    1432                      .dwattr $C$DW$272, DW_AT_TI_symbol_name("_Idq_offset_pu")
    1433                      .dwattr $C$DW$272, DW_AT_data_member_location[DW_OP_plus_uconst 0xf6]
    1434                      .dwattr $C$DW$272, DW_AT_accessibility(DW_ACCESS_public)
    1435              $C$DW$273       .dwtag  DW_TAG_member
    1436                      .dwattr $C$DW$273, DW_AT_type(*$C$DW$T$58)
    1437                      .dwattr $C$DW$273, DW_AT_name("Vdq_offset_pu")
    1438                      .dwattr $C$DW$273, DW_AT_TI_symbol_name("_Vdq_offset_pu")
    1439                      .dwattr $C$DW$273, DW_AT_data_member_location[DW_OP_plus_uconst 0xfa]
    1440                      .dwattr $C$DW$273, DW_AT_accessibility(DW_ACCESS_public)
    1441              $C$DW$274       .dwtag  DW_TAG_member
    1442                      .dwattr $C$DW$274, DW_AT_type(*$C$DW$T$20)
    1443                      .dwattr $C$DW$274, DW_AT_name("angle_pu")
    1444                      .dwattr $C$DW$274, DW_AT_TI_symbol_name("_angle_pu")
TMS320C2000 Assembler PC v6.2.5 Wed Jun 21 14:56:38 2017

Tools Copyright (c) 1996-2014 Texas Instruments Incorporated
C:\Users\wmj\AppData\Local\Temp\0706010                              PAGE   28

    1445                      .dwattr $C$DW$274, DW_AT_data_member_location[DW_OP_plus_uconst 0xfe]
    1446                      .dwattr $C$DW$274, DW_AT_accessibility(DW_ACCESS_public)
    1447              $C$DW$275       .dwtag  DW_TAG_member
    1448                      .dwattr $C$DW$275, DW_AT_type(*$C$DW$T$20)
    1449                      .dwattr $C$DW$275, DW_AT_name("speed_ref_pu")
    1450                      .dwattr $C$DW$275, DW_AT_TI_symbol_name("_speed_ref_pu")
    1451                      .dwattr $C$DW$275, DW_AT_data_member_location[DW_OP_plus_uconst 0x100]
    1452                      .dwattr $C$DW$275, DW_AT_accessibility(DW_ACCESS_public)
    1453              $C$DW$276       .dwtag  DW_TAG_member
    1454                      .dwattr $C$DW$276, DW_AT_type(*$C$DW$T$20)
    1455                      .dwattr $C$DW$276, DW_AT_name("speed_fb_pu")
    1456                      .dwattr $C$DW$276, DW_AT_TI_symbol_name("_speed_fb_pu")
    1457                      .dwattr $C$DW$276, DW_AT_data_member_location[DW_OP_plus_uconst 0x102]
    1458                      .dwattr $C$DW$276, DW_AT_accessibility(DW_ACCESS_public)
    1459              $C$DW$277       .dwtag  DW_TAG_member
    1460                      .dwattr $C$DW$277, DW_AT_type(*$C$DW$T$20)
    1461                      .dwattr $C$DW$277, DW_AT_name("speed_outMax_pu")
    1462                      .dwattr $C$DW$277, DW_AT_TI_symbol_name("_speed_outMax_pu")
    1463                      .dwattr $C$DW$277, DW_AT_data_member_location[DW_OP_plus_uconst 0x104]
    1464                      .dwattr $C$DW$277, DW_AT_accessibility(DW_ACCESS_public)
    1465              $C$DW$278       .dwtag  DW_TAG_member
    1466                      .dwattr $C$DW$278, DW_AT_type(*$C$DW$T$59)
    1467                      .dwattr $C$DW$278, DW_AT_name("flag_enableCurrentCtrl")
    1468                      .dwattr $C$DW$278, DW_AT_TI_symbol_name("_flag_enableCurrentCtrl")
    1469                      .dwattr $C$DW$278, DW_AT_data_member_location[DW_OP_plus_uconst 0x106]
    1470                      .dwattr $C$DW$278, DW_AT_accessibility(DW_ACCESS_public)
    1471                      .dwendtag $C$DW$T$60
    1472              
    1473              $C$DW$T$93      .dwtag  DW_TAG_typedef, DW_AT_name("CTRL_Obj")
    1474                      .dwattr $C$DW$T$93, DW_AT_type(*$C$DW$T$60)
    1475                      .dwattr $C$DW$T$93, DW_AT_language(DW_LANG_C)
    1476              $C$DW$T$94      .dwtag  DW_TAG_pointer_type
    1477                      .dwattr $C$DW$T$94, DW_AT_type(*$C$DW$T$60)
    1478                      .dwattr $C$DW$T$94, DW_AT_address_class(0x16)
    1479              $C$DW$T$95      .dwtag  DW_TAG_typedef, DW_AT_name("CTRL_Handle")
    1480                      .dwattr $C$DW$T$95, DW_AT_type(*$C$DW$T$94)
    1481                      .dwattr $C$DW$T$95, DW_AT_language(DW_LANG_C)
    1482              $C$DW$279       .dwtag  DW_TAG_TI_far_type
    1483                      .dwattr $C$DW$279, DW_AT_type(*$C$DW$T$95)
    1484              $C$DW$T$96      .dwtag  DW_TAG_const_type
    1485                      .dwattr $C$DW$T$96, DW_AT_type(*$C$DW$279)
    1486              
    1487              $C$DW$T$63      .dwtag  DW_TAG_structure_type
    1488                      .dwattr $C$DW$T$63, DW_AT_name("_CTRL_Version_")
    1489                      .dwattr $C$DW$T$63, DW_AT_byte_size(0x04)
    1490              $C$DW$280       .dwtag  DW_TAG_member
    1491                      .dwattr $C$DW$280, DW_AT_type(*$C$DW$T$24)
    1492                      .dwattr $C$DW$280, DW_AT_name("rsvd")
    1493                      .dwattr $C$DW$280, DW_AT_TI_symbol_name("_rsvd")
    1494                      .dwattr $C$DW$280, DW_AT_data_member_location[DW_OP_plus_uconst 0x0]
    1495                      .dwattr $C$DW$280, DW_AT_accessibility(DW_ACCESS_public)
    1496              $C$DW$281       .dwtag  DW_TAG_member
    1497                      .dwattr $C$DW$281, DW_AT_type(*$C$DW$T$62)
    1498                      .dwattr $C$DW$281, DW_AT_name("targetProc")
    1499                      .dwattr $C$DW$281, DW_AT_TI_symbol_name("_targetProc")
TMS320C2000 Assembler PC v6.2.5 Wed Jun 21 14:56:38 2017

Tools Copyright (c) 1996-2014 Texas Instruments Incorporated
C:\Users\wmj\AppData\Local\Temp\0706010                              PAGE   29

    1500                      .dwattr $C$DW$281, DW_AT_data_member_location[DW_OP_plus_uconst 0x1]
    1501                      .dwattr $C$DW$281, DW_AT_accessibility(DW_ACCESS_public)
    1502              $C$DW$282       .dwtag  DW_TAG_member
    1503                      .dwattr $C$DW$282, DW_AT_type(*$C$DW$T$24)
    1504                      .dwattr $C$DW$282, DW_AT_name("major")
    1505                      .dwattr $C$DW$282, DW_AT_TI_symbol_name("_major")
    1506                      .dwattr $C$DW$282, DW_AT_data_member_location[DW_OP_plus_uconst 0x2]
    1507                      .dwattr $C$DW$282, DW_AT_accessibility(DW_ACCESS_public)
    1508              $C$DW$283       .dwtag  DW_TAG_member
    1509                      .dwattr $C$DW$283, DW_AT_type(*$C$DW$T$24)
    1510                      .dwattr $C$DW$283, DW_AT_name("minor")
    1511                      .dwattr $C$DW$283, DW_AT_TI_symbol_name("_minor")
    1512                      .dwattr $C$DW$283, DW_AT_data_member_location[DW_OP_plus_uconst 0x3]
    1513                      .dwattr $C$DW$283, DW_AT_accessibility(DW_ACCESS_public)
    1514                      .dwendtag $C$DW$T$63
    1515              
    1516              $C$DW$T$27      .dwtag  DW_TAG_typedef, DW_AT_name("CTRL_Version")
    1517                      .dwattr $C$DW$T$27, DW_AT_type(*$C$DW$T$63)
    1518                      .dwattr $C$DW$T$27, DW_AT_language(DW_LANG_C)
    1519              
    1520              $C$DW$T$19      .dwtag  DW_TAG_structure_type
    1521                      .dwattr $C$DW$T$19, DW_AT_name("_EST_Obj_")
    1522                      .dwattr $C$DW$T$19, DW_AT_declaration
    1523                      .dwendtag $C$DW$T$19
    1524              
    1525              $C$DW$T$35      .dwtag  DW_TAG_pointer_type
    1526                      .dwattr $C$DW$T$35, DW_AT_type(*$C$DW$T$19)
    1527                      .dwattr $C$DW$T$35, DW_AT_address_class(0x16)
    1528              $C$DW$T$36      .dwtag  DW_TAG_typedef, DW_AT_name("EST_Handle")
    1529                      .dwattr $C$DW$T$36, DW_AT_type(*$C$DW$T$35)
    1530                      .dwattr $C$DW$T$36, DW_AT_language(DW_LANG_C)
    1531              
    1532              $C$DW$T$66      .dwtag  DW_TAG_structure_type
    1533                      .dwattr $C$DW$T$66, DW_AT_name("_GRAPH_Vars_t_")
    1534                      .dwattr $C$DW$T$66, DW_AT_byte_size(0x416)
    1535              $C$DW$284       .dwtag  DW_TAG_member
    1536                      .dwattr $C$DW$284, DW_AT_type(*$C$DW$T$53)
    1537                      .dwattr $C$DW$284, DW_AT_name("Buffer_reset")
    1538                      .dwattr $C$DW$284, DW_AT_TI_symbol_name("_Buffer_reset")
    1539                      .dwattr $C$DW$284, DW_AT_data_member_location[DW_OP_plus_uconst 0x0]
    1540                      .dwattr $C$DW$284, DW_AT_accessibility(DW_ACCESS_public)
    1541              $C$DW$285       .dwtag  DW_TAG_member
    1542                      .dwattr $C$DW$285, DW_AT_type(*$C$DW$T$53)
    1543                      .dwattr $C$DW$285, DW_AT_name("Buffer_counter")
    1544                      .dwattr $C$DW$285, DW_AT_TI_symbol_name("_Buffer_counter")
    1545                      .dwattr $C$DW$285, DW_AT_data_member_location[DW_OP_plus_uconst 0x2]
    1546                      .dwattr $C$DW$285, DW_AT_accessibility(DW_ACCESS_public)
    1547              $C$DW$286       .dwtag  DW_TAG_member
    1548                      .dwattr $C$DW$286, DW_AT_type(*$C$DW$T$53)
    1549                      .dwattr $C$DW$286, DW_AT_name("Buffer_tick_counter")
    1550                      .dwattr $C$DW$286, DW_AT_TI_symbol_name("_Buffer_tick_counter")
    1551                      .dwattr $C$DW$286, DW_AT_data_member_location[DW_OP_plus_uconst 0x4]
    1552                      .dwattr $C$DW$286, DW_AT_accessibility(DW_ACCESS_public)
    1553              $C$DW$287       .dwtag  DW_TAG_member
    1554                      .dwattr $C$DW$287, DW_AT_type(*$C$DW$T$53)
TMS320C2000 Assembler PC v6.2.5 Wed Jun 21 14:56:38 2017

Tools Copyright (c) 1996-2014 Texas Instruments Incorporated
C:\Users\wmj\AppData\Local\Temp\0706010                              PAGE   30

    1555                      .dwattr $C$DW$287, DW_AT_name("Buffer_tick")
    1556                      .dwattr $C$DW$287, DW_AT_TI_symbol_name("_Buffer_tick")
    1557                      .dwattr $C$DW$287, DW_AT_data_member_location[DW_OP_plus_uconst 0x6]
    1558                      .dwattr $C$DW$287, DW_AT_accessibility(DW_ACCESS_public)
    1559              $C$DW$288       .dwtag  DW_TAG_member
    1560                      .dwattr $C$DW$288, DW_AT_type(*$C$DW$T$53)
    1561                      .dwattr $C$DW$288, DW_AT_name("Buffer_mode")
    1562                      .dwattr $C$DW$288, DW_AT_TI_symbol_name("_Buffer_mode")
    1563                      .dwattr $C$DW$288, DW_AT_data_member_location[DW_OP_plus_uconst 0x8]
    1564                      .dwattr $C$DW$288, DW_AT_accessibility(DW_ACCESS_public)
    1565              $C$DW$289       .dwtag  DW_TAG_member
    1566                      .dwattr $C$DW$289, DW_AT_type(*$C$DW$T$59)
    1567                      .dwattr $C$DW$289, DW_AT_name("Buffer_reset_wait")
    1568                      .dwattr $C$DW$289, DW_AT_TI_symbol_name("_Buffer_reset_wait")
    1569                      .dwattr $C$DW$289, DW_AT_data_member_location[DW_OP_plus_uconst 0xa]
    1570                      .dwattr $C$DW$289, DW_AT_accessibility(DW_ACCESS_public)
    1571              $C$DW$290       .dwtag  DW_TAG_member
    1572                      .dwattr $C$DW$290, DW_AT_type(*$C$DW$T$20)
    1573                      .dwattr $C$DW$290, DW_AT_name("Buffer_previous")
    1574                      .dwattr $C$DW$290, DW_AT_TI_symbol_name("_Buffer_previous")
    1575                      .dwattr $C$DW$290, DW_AT_data_member_location[DW_OP_plus_uconst 0xc]
    1576                      .dwattr $C$DW$290, DW_AT_accessibility(DW_ACCESS_public)
    1577              $C$DW$291       .dwtag  DW_TAG_member
    1578                      .dwattr $C$DW$291, DW_AT_type(*$C$DW$T$65)
    1579                      .dwattr $C$DW$291, DW_AT_name("Buffer_data")
    1580                      .dwattr $C$DW$291, DW_AT_TI_symbol_name("_Buffer_data")
    1581                      .dwattr $C$DW$291, DW_AT_data_member_location[DW_OP_plus_uconst 0xe]
    1582                      .dwattr $C$DW$291, DW_AT_accessibility(DW_ACCESS_public)
    1583                      .dwendtag $C$DW$T$66
    1584              
    1585              $C$DW$T$98      .dwtag  DW_TAG_typedef, DW_AT_name("GRAPH_Vars_t")
    1586                      .dwattr $C$DW$T$98, DW_AT_type(*$C$DW$T$66)
    1587                      .dwattr $C$DW$T$98, DW_AT_language(DW_LANG_C)
    1588              $C$DW$292       .dwtag  DW_TAG_TI_far_type
    1589                      .dwattr $C$DW$292, DW_AT_type(*$C$DW$T$98)
    1590              $C$DW$T$99      .dwtag  DW_TAG_volatile_type
    1591                      .dwattr $C$DW$T$99, DW_AT_type(*$C$DW$292)
    1592              $C$DW$T$100     .dwtag  DW_TAG_pointer_type
    1593                      .dwattr $C$DW$T$100, DW_AT_type(*$C$DW$T$99)
    1594                      .dwattr $C$DW$T$100, DW_AT_address_class(0x16)
    1595              $C$DW$293       .dwtag  DW_TAG_TI_far_type
    1596                      .dwattr $C$DW$293, DW_AT_type(*$C$DW$T$100)
    1597              $C$DW$T$101     .dwtag  DW_TAG_const_type
    1598                      .dwattr $C$DW$T$101, DW_AT_type(*$C$DW$293)
    1599              
    1600              $C$DW$T$67      .dwtag  DW_TAG_structure_type
    1601                      .dwattr $C$DW$T$67, DW_AT_name("_IPARK_Obj_")
    1602                      .dwattr $C$DW$T$67, DW_AT_byte_size(0x04)
    1603              $C$DW$294       .dwtag  DW_TAG_member
    1604                      .dwattr $C$DW$294, DW_AT_type(*$C$DW$T$20)
    1605                      .dwattr $C$DW$294, DW_AT_name("sinTh")
    1606                      .dwattr $C$DW$294, DW_AT_TI_symbol_name("_sinTh")
    1607                      .dwattr $C$DW$294, DW_AT_data_member_location[DW_OP_plus_uconst 0x0]
    1608                      .dwattr $C$DW$294, DW_AT_accessibility(DW_ACCESS_public)
    1609              $C$DW$295       .dwtag  DW_TAG_member
TMS320C2000 Assembler PC v6.2.5 Wed Jun 21 14:56:38 2017

Tools Copyright (c) 1996-2014 Texas Instruments Incorporated
C:\Users\wmj\AppData\Local\Temp\0706010                              PAGE   31

    1610                      .dwattr $C$DW$295, DW_AT_type(*$C$DW$T$20)
    1611                      .dwattr $C$DW$295, DW_AT_name("cosTh")
    1612                      .dwattr $C$DW$295, DW_AT_TI_symbol_name("_cosTh")
    1613                      .dwattr $C$DW$295, DW_AT_data_member_location[DW_OP_plus_uconst 0x2]
    1614                      .dwattr $C$DW$295, DW_AT_accessibility(DW_ACCESS_public)
    1615                      .dwendtag $C$DW$T$67
    1616              
    1617              $C$DW$T$45      .dwtag  DW_TAG_typedef, DW_AT_name("IPARK_Obj")
    1618                      .dwattr $C$DW$T$45, DW_AT_type(*$C$DW$T$67)
    1619                      .dwattr $C$DW$T$45, DW_AT_language(DW_LANG_C)
    1620              $C$DW$T$43      .dwtag  DW_TAG_pointer_type
    1621                      .dwattr $C$DW$T$43, DW_AT_type(*$C$DW$T$67)
    1622                      .dwattr $C$DW$T$43, DW_AT_address_class(0x16)
    1623              $C$DW$T$44      .dwtag  DW_TAG_typedef, DW_AT_name("IPARK_Handle")
    1624                      .dwattr $C$DW$T$44, DW_AT_type(*$C$DW$T$43)
    1625                      .dwattr $C$DW$T$44, DW_AT_language(DW_LANG_C)
    1626              
    1627              $C$DW$T$69      .dwtag  DW_TAG_structure_type
    1628                      .dwattr $C$DW$T$69, DW_AT_name("_MATH_vec2_")
    1629                      .dwattr $C$DW$T$69, DW_AT_byte_size(0x04)
    1630              $C$DW$296       .dwtag  DW_TAG_member
    1631                      .dwattr $C$DW$296, DW_AT_type(*$C$DW$T$68)
    1632                      .dwattr $C$DW$296, DW_AT_name("value")
    1633                      .dwattr $C$DW$296, DW_AT_TI_symbol_name("_value")
    1634                      .dwattr $C$DW$296, DW_AT_data_member_location[DW_OP_plus_uconst 0x0]
    1635                      .dwattr $C$DW$296, DW_AT_accessibility(DW_ACCESS_public)
    1636                      .dwendtag $C$DW$T$69
    1637              
    1638              $C$DW$T$58      .dwtag  DW_TAG_typedef, DW_AT_name("MATH_vec2")
    1639                      .dwattr $C$DW$T$58, DW_AT_type(*$C$DW$T$69)
    1640                      .dwattr $C$DW$T$58, DW_AT_language(DW_LANG_C)
    1641              
    1642              $C$DW$T$71      .dwtag  DW_TAG_structure_type
    1643                      .dwattr $C$DW$T$71, DW_AT_name("_MATH_vec3_")
    1644                      .dwattr $C$DW$T$71, DW_AT_byte_size(0x06)
    1645              $C$DW$297       .dwtag  DW_TAG_member
    1646                      .dwattr $C$DW$297, DW_AT_type(*$C$DW$T$70)
    1647                      .dwattr $C$DW$297, DW_AT_name("value")
    1648                      .dwattr $C$DW$297, DW_AT_TI_symbol_name("_value")
    1649                      .dwattr $C$DW$297, DW_AT_data_member_location[DW_OP_plus_uconst 0x0]
    1650                      .dwattr $C$DW$297, DW_AT_accessibility(DW_ACCESS_public)
    1651                      .dwendtag $C$DW$T$71
    1652              
    1653              $C$DW$T$79      .dwtag  DW_TAG_typedef, DW_AT_name("MATH_vec3")
    1654                      .dwattr $C$DW$T$79, DW_AT_type(*$C$DW$T$71)
    1655                      .dwattr $C$DW$T$79, DW_AT_language(DW_LANG_C)
    1656              
    1657              $C$DW$T$74      .dwtag  DW_TAG_structure_type
    1658                      .dwattr $C$DW$T$74, DW_AT_name("_MOTOR_Params_")
    1659                      .dwattr $C$DW$T$74, DW_AT_byte_size(0x0e)
    1660              $C$DW$298       .dwtag  DW_TAG_member
    1661                      .dwattr $C$DW$298, DW_AT_type(*$C$DW$T$73)
    1662                      .dwattr $C$DW$298, DW_AT_name("type")
    1663                      .dwattr $C$DW$298, DW_AT_TI_symbol_name("_type")
    1664                      .dwattr $C$DW$298, DW_AT_data_member_location[DW_OP_plus_uconst 0x0]
TMS320C2000 Assembler PC v6.2.5 Wed Jun 21 14:56:38 2017

Tools Copyright (c) 1996-2014 Texas Instruments Incorporated
C:\Users\wmj\AppData\Local\Temp\0706010                              PAGE   32

    1665                      .dwattr $C$DW$298, DW_AT_accessibility(DW_ACCESS_public)
    1666              $C$DW$299       .dwtag  DW_TAG_member
    1667                      .dwattr $C$DW$299, DW_AT_type(*$C$DW$T$56)
    1668                      .dwattr $C$DW$299, DW_AT_name("numPolePairs")
    1669                      .dwattr $C$DW$299, DW_AT_TI_symbol_name("_numPolePairs")
    1670                      .dwattr $C$DW$299, DW_AT_data_member_location[DW_OP_plus_uconst 0x1]
    1671                      .dwattr $C$DW$299, DW_AT_accessibility(DW_ACCESS_public)
    1672              $C$DW$300       .dwtag  DW_TAG_member
    1673                      .dwattr $C$DW$300, DW_AT_type(*$C$DW$T$57)
    1674                      .dwattr $C$DW$300, DW_AT_name("Lr_H")
    1675                      .dwattr $C$DW$300, DW_AT_TI_symbol_name("_Lr_H")
    1676                      .dwattr $C$DW$300, DW_AT_data_member_location[DW_OP_plus_uconst 0x2]
    1677                      .dwattr $C$DW$300, DW_AT_accessibility(DW_ACCESS_public)
    1678              $C$DW$301       .dwtag  DW_TAG_member
    1679                      .dwattr $C$DW$301, DW_AT_type(*$C$DW$T$57)
    1680                      .dwattr $C$DW$301, DW_AT_name("Ls_d_H")
    1681                      .dwattr $C$DW$301, DW_AT_TI_symbol_name("_Ls_d_H")
    1682                      .dwattr $C$DW$301, DW_AT_data_member_location[DW_OP_plus_uconst 0x4]
    1683                      .dwattr $C$DW$301, DW_AT_accessibility(DW_ACCESS_public)
    1684              $C$DW$302       .dwtag  DW_TAG_member
    1685                      .dwattr $C$DW$302, DW_AT_type(*$C$DW$T$57)
    1686                      .dwattr $C$DW$302, DW_AT_name("Ls_q_H")
    1687                      .dwattr $C$DW$302, DW_AT_TI_symbol_name("_Ls_q_H")
    1688                      .dwattr $C$DW$302, DW_AT_data_member_location[DW_OP_plus_uconst 0x6]
    1689                      .dwattr $C$DW$302, DW_AT_accessibility(DW_ACCESS_public)
    1690              $C$DW$303       .dwtag  DW_TAG_member
    1691                      .dwattr $C$DW$303, DW_AT_type(*$C$DW$T$57)
    1692                      .dwattr $C$DW$303, DW_AT_name("Rr_Ohm")
    1693                      .dwattr $C$DW$303, DW_AT_TI_symbol_name("_Rr_Ohm")
    1694                      .dwattr $C$DW$303, DW_AT_data_member_location[DW_OP_plus_uconst 0x8]
    1695                      .dwattr $C$DW$303, DW_AT_accessibility(DW_ACCESS_public)
    1696              $C$DW$304       .dwtag  DW_TAG_member
    1697                      .dwattr $C$DW$304, DW_AT_type(*$C$DW$T$57)
    1698                      .dwattr $C$DW$304, DW_AT_name("Rs_Ohm")
    1699                      .dwattr $C$DW$304, DW_AT_TI_symbol_name("_Rs_Ohm")
    1700                      .dwattr $C$DW$304, DW_AT_data_member_location[DW_OP_plus_uconst 0xa]
    1701                      .dwattr $C$DW$304, DW_AT_accessibility(DW_ACCESS_public)
    1702              $C$DW$305       .dwtag  DW_TAG_member
    1703                      .dwattr $C$DW$305, DW_AT_type(*$C$DW$T$57)
    1704                      .dwattr $C$DW$305, DW_AT_name("ratedFlux_VpHz")
    1705                      .dwattr $C$DW$305, DW_AT_TI_symbol_name("_ratedFlux_VpHz")
    1706                      .dwattr $C$DW$305, DW_AT_data_member_location[DW_OP_plus_uconst 0xc]
    1707                      .dwattr $C$DW$305, DW_AT_accessibility(DW_ACCESS_public)
    1708                      .dwendtag $C$DW$T$74
    1709              
    1710              $C$DW$T$52      .dwtag  DW_TAG_typedef, DW_AT_name("MOTOR_Params")
    1711                      .dwattr $C$DW$T$52, DW_AT_type(*$C$DW$T$74)
    1712                      .dwattr $C$DW$T$52, DW_AT_language(DW_LANG_C)
    1713              
    1714              $C$DW$T$80      .dwtag  DW_TAG_structure_type
    1715                      .dwattr $C$DW$T$80, DW_AT_name("_MOTOR_Vars_t_")
    1716                      .dwattr $C$DW$T$80, DW_AT_byte_size(0x80)
    1717              $C$DW$306       .dwtag  DW_TAG_member
    1718                      .dwattr $C$DW$306, DW_AT_type(*$C$DW$T$59)
    1719                      .dwattr $C$DW$306, DW_AT_name("Flag_enableSys")
TMS320C2000 Assembler PC v6.2.5 Wed Jun 21 14:56:38 2017

Tools Copyright (c) 1996-2014 Texas Instruments Incorporated
C:\Users\wmj\AppData\Local\Temp\0706010                              PAGE   33

    1720                      .dwattr $C$DW$306, DW_AT_TI_symbol_name("_Flag_enableSys")
    1721                      .dwattr $C$DW$306, DW_AT_data_member_location[DW_OP_plus_uconst 0x0]
    1722                      .dwattr $C$DW$306, DW_AT_accessibility(DW_ACCESS_public)
    1723              $C$DW$307       .dwtag  DW_TAG_member
    1724                      .dwattr $C$DW$307, DW_AT_type(*$C$DW$T$59)
    1725                      .dwattr $C$DW$307, DW_AT_name("Flag_Run_Identify")
    1726                      .dwattr $C$DW$307, DW_AT_TI_symbol_name("_Flag_Run_Identify")
    1727                      .dwattr $C$DW$307, DW_AT_data_member_location[DW_OP_plus_uconst 0x1]
    1728                      .dwattr $C$DW$307, DW_AT_accessibility(DW_ACCESS_public)
    1729              $C$DW$308       .dwtag  DW_TAG_member
    1730                      .dwattr $C$DW$308, DW_AT_type(*$C$DW$T$59)
    1731                      .dwattr $C$DW$308, DW_AT_name("Flag_MotorIdentified")
    1732                      .dwattr $C$DW$308, DW_AT_TI_symbol_name("_Flag_MotorIdentified")
    1733                      .dwattr $C$DW$308, DW_AT_data_member_location[DW_OP_plus_uconst 0x2]
    1734                      .dwattr $C$DW$308, DW_AT_accessibility(DW_ACCESS_public)
    1735              $C$DW$309       .dwtag  DW_TAG_member
    1736                      .dwattr $C$DW$309, DW_AT_type(*$C$DW$T$59)
    1737                      .dwattr $C$DW$309, DW_AT_name("Flag_enableForceAngle")
    1738                      .dwattr $C$DW$309, DW_AT_TI_symbol_name("_Flag_enableForceAngle")
    1739                      .dwattr $C$DW$309, DW_AT_data_member_location[DW_OP_plus_uconst 0x3]
    1740                      .dwattr $C$DW$309, DW_AT_accessibility(DW_ACCESS_public)
    1741              $C$DW$310       .dwtag  DW_TAG_member
    1742                      .dwattr $C$DW$310, DW_AT_type(*$C$DW$T$59)
    1743                      .dwattr $C$DW$310, DW_AT_name("Flag_enableFieldWeakening")
    1744                      .dwattr $C$DW$310, DW_AT_TI_symbol_name("_Flag_enableFieldWeakening")
    1745                      .dwattr $C$DW$310, DW_AT_data_member_location[DW_OP_plus_uconst 0x4]
    1746                      .dwattr $C$DW$310, DW_AT_accessibility(DW_ACCESS_public)
    1747              $C$DW$311       .dwtag  DW_TAG_member
    1748                      .dwattr $C$DW$311, DW_AT_type(*$C$DW$T$59)
    1749                      .dwattr $C$DW$311, DW_AT_name("Flag_enableRsRecalc")
    1750                      .dwattr $C$DW$311, DW_AT_TI_symbol_name("_Flag_enableRsRecalc")
    1751                      .dwattr $C$DW$311, DW_AT_data_member_location[DW_OP_plus_uconst 0x5]
    1752                      .dwattr $C$DW$311, DW_AT_accessibility(DW_ACCESS_public)
    1753              $C$DW$312       .dwtag  DW_TAG_member
    1754                      .dwattr $C$DW$312, DW_AT_type(*$C$DW$T$59)
    1755                      .dwattr $C$DW$312, DW_AT_name("Flag_enableUserParams")
    1756                      .dwattr $C$DW$312, DW_AT_TI_symbol_name("_Flag_enableUserParams")
    1757                      .dwattr $C$DW$312, DW_AT_data_member_location[DW_OP_plus_uconst 0x6]
    1758                      .dwattr $C$DW$312, DW_AT_accessibility(DW_ACCESS_public)
    1759              $C$DW$313       .dwtag  DW_TAG_member
    1760                      .dwattr $C$DW$313, DW_AT_type(*$C$DW$T$59)
    1761                      .dwattr $C$DW$313, DW_AT_name("Flag_enableOffsetcalc")
    1762                      .dwattr $C$DW$313, DW_AT_TI_symbol_name("_Flag_enableOffsetcalc")
    1763                      .dwattr $C$DW$313, DW_AT_data_member_location[DW_OP_plus_uconst 0x7]
    1764                      .dwattr $C$DW$313, DW_AT_accessibility(DW_ACCESS_public)
    1765              $C$DW$314       .dwtag  DW_TAG_member
    1766                      .dwattr $C$DW$314, DW_AT_type(*$C$DW$T$59)
    1767                      .dwattr $C$DW$314, DW_AT_name("Flag_enablePowerWarp")
    1768                      .dwattr $C$DW$314, DW_AT_TI_symbol_name("_Flag_enablePowerWarp")
    1769                      .dwattr $C$DW$314, DW_AT_data_member_location[DW_OP_plus_uconst 0x8]
    1770                      .dwattr $C$DW$314, DW_AT_accessibility(DW_ACCESS_public)
    1771              $C$DW$315       .dwtag  DW_TAG_member
    1772                      .dwattr $C$DW$315, DW_AT_type(*$C$DW$T$59)
    1773                      .dwattr $C$DW$315, DW_AT_name("Flag_enableSpeedCtrl")
    1774                      .dwattr $C$DW$315, DW_AT_TI_symbol_name("_Flag_enableSpeedCtrl")
TMS320C2000 Assembler PC v6.2.5 Wed Jun 21 14:56:38 2017

Tools Copyright (c) 1996-2014 Texas Instruments Incorporated
C:\Users\wmj\AppData\Local\Temp\0706010                              PAGE   34

    1775                      .dwattr $C$DW$315, DW_AT_data_member_location[DW_OP_plus_uconst 0x9]
    1776                      .dwattr $C$DW$315, DW_AT_accessibility(DW_ACCESS_public)
    1777              $C$DW$316       .dwtag  DW_TAG_member
    1778                      .dwattr $C$DW$316, DW_AT_type(*$C$DW$T$59)
    1779                      .dwattr $C$DW$316, DW_AT_name("Flag_enableRun")
    1780                      .dwattr $C$DW$316, DW_AT_TI_symbol_name("_Flag_enableRun")
    1781                      .dwattr $C$DW$316, DW_AT_data_member_location[DW_OP_plus_uconst 0xa]
    1782                      .dwattr $C$DW$316, DW_AT_accessibility(DW_ACCESS_public)
    1783              $C$DW$317       .dwtag  DW_TAG_member
    1784                      .dwattr $C$DW$317, DW_AT_type(*$C$DW$T$59)
    1785                      .dwattr $C$DW$317, DW_AT_name("Flag_RunState")
    1786                      .dwattr $C$DW$317, DW_AT_TI_symbol_name("_Flag_RunState")
    1787                      .dwattr $C$DW$317, DW_AT_data_member_location[DW_OP_plus_uconst 0xb]
    1788                      .dwattr $C$DW$317, DW_AT_accessibility(DW_ACCESS_public)
    1789              $C$DW$318       .dwtag  DW_TAG_member
    1790                      .dwattr $C$DW$318, DW_AT_type(*$C$DW$T$59)
    1791                      .dwattr $C$DW$318, DW_AT_name("Flag_enableFlyingStart")
    1792                      .dwattr $C$DW$318, DW_AT_TI_symbol_name("_Flag_enableFlyingStart")
    1793                      .dwattr $C$DW$318, DW_AT_data_member_location[DW_OP_plus_uconst 0xc]
    1794                      .dwattr $C$DW$318, DW_AT_accessibility(DW_ACCESS_public)
    1795              $C$DW$319       .dwtag  DW_TAG_member
    1796                      .dwattr $C$DW$319, DW_AT_type(*$C$DW$T$29)
    1797                      .dwattr $C$DW$319, DW_AT_name("CtrlState")
    1798                      .dwattr $C$DW$319, DW_AT_TI_symbol_name("_CtrlState")
    1799                      .dwattr $C$DW$319, DW_AT_data_member_location[DW_OP_plus_uconst 0xd]
    1800                      .dwattr $C$DW$319, DW_AT_accessibility(DW_ACCESS_public)
    1801              $C$DW$320       .dwtag  DW_TAG_member
    1802                      .dwattr $C$DW$320, DW_AT_type(*$C$DW$T$76)
    1803                      .dwattr $C$DW$320, DW_AT_name("EstState")
    1804                      .dwattr $C$DW$320, DW_AT_TI_symbol_name("_EstState")
    1805                      .dwattr $C$DW$320, DW_AT_data_member_location[DW_OP_plus_uconst 0xe]
    1806                      .dwattr $C$DW$320, DW_AT_accessibility(DW_ACCESS_public)
    1807              $C$DW$321       .dwtag  DW_TAG_member
    1808                      .dwattr $C$DW$321, DW_AT_type(*$C$DW$T$78)
    1809                      .dwattr $C$DW$321, DW_AT_name("UserErrorCode")
    1810                      .dwattr $C$DW$321, DW_AT_TI_symbol_name("_UserErrorCode")
    1811                      .dwattr $C$DW$321, DW_AT_data_member_location[DW_OP_plus_uconst 0xf]
    1812                      .dwattr $C$DW$321, DW_AT_accessibility(DW_ACCESS_public)
    1813              $C$DW$322       .dwtag  DW_TAG_member
    1814                      .dwattr $C$DW$322, DW_AT_type(*$C$DW$T$27)
    1815                      .dwattr $C$DW$322, DW_AT_name("CtrlVersion")
    1816                      .dwattr $C$DW$322, DW_AT_TI_symbol_name("_CtrlVersion")
    1817                      .dwattr $C$DW$322, DW_AT_data_member_location[DW_OP_plus_uconst 0x10]
    1818                      .dwattr $C$DW$322, DW_AT_accessibility(DW_ACCESS_public)
    1819              $C$DW$323       .dwtag  DW_TAG_member
    1820                      .dwattr $C$DW$323, DW_AT_type(*$C$DW$T$20)
    1821                      .dwattr $C$DW$323, DW_AT_name("IdRef_A")
    1822                      .dwattr $C$DW$323, DW_AT_TI_symbol_name("_IdRef_A")
    1823                      .dwattr $C$DW$323, DW_AT_data_member_location[DW_OP_plus_uconst 0x14]
    1824                      .dwattr $C$DW$323, DW_AT_accessibility(DW_ACCESS_public)
    1825              $C$DW$324       .dwtag  DW_TAG_member
    1826                      .dwattr $C$DW$324, DW_AT_type(*$C$DW$T$20)
    1827                      .dwattr $C$DW$324, DW_AT_name("IqRef_A")
    1828                      .dwattr $C$DW$324, DW_AT_TI_symbol_name("_IqRef_A")
    1829                      .dwattr $C$DW$324, DW_AT_data_member_location[DW_OP_plus_uconst 0x16]
TMS320C2000 Assembler PC v6.2.5 Wed Jun 21 14:56:38 2017

Tools Copyright (c) 1996-2014 Texas Instruments Incorporated
C:\Users\wmj\AppData\Local\Temp\0706010                              PAGE   35

    1830                      .dwattr $C$DW$324, DW_AT_accessibility(DW_ACCESS_public)
    1831              $C$DW$325       .dwtag  DW_TAG_member
    1832                      .dwattr $C$DW$325, DW_AT_type(*$C$DW$T$20)
    1833                      .dwattr $C$DW$325, DW_AT_name("SpeedRef_pu")
    1834                      .dwattr $C$DW$325, DW_AT_TI_symbol_name("_SpeedRef_pu")
    1835                      .dwattr $C$DW$325, DW_AT_data_member_location[DW_OP_plus_uconst 0x18]
    1836                      .dwattr $C$DW$325, DW_AT_accessibility(DW_ACCESS_public)
    1837              $C$DW$326       .dwtag  DW_TAG_member
    1838                      .dwattr $C$DW$326, DW_AT_type(*$C$DW$T$20)
    1839                      .dwattr $C$DW$326, DW_AT_name("SpeedRef_krpm")
    1840                      .dwattr $C$DW$326, DW_AT_TI_symbol_name("_SpeedRef_krpm")
    1841                      .dwattr $C$DW$326, DW_AT_data_member_location[DW_OP_plus_uconst 0x1a]
    1842                      .dwattr $C$DW$326, DW_AT_accessibility(DW_ACCESS_public)
    1843              $C$DW$327       .dwtag  DW_TAG_member
    1844                      .dwattr $C$DW$327, DW_AT_type(*$C$DW$T$20)
    1845                      .dwattr $C$DW$327, DW_AT_name("SpeedTraj_krpm")
    1846                      .dwattr $C$DW$327, DW_AT_TI_symbol_name("_SpeedTraj_krpm")
    1847                      .dwattr $C$DW$327, DW_AT_data_member_location[DW_OP_plus_uconst 0x1c]
    1848                      .dwattr $C$DW$327, DW_AT_accessibility(DW_ACCESS_public)
    1849              $C$DW$328       .dwtag  DW_TAG_member
    1850                      .dwattr $C$DW$328, DW_AT_type(*$C$DW$T$20)
    1851                      .dwattr $C$DW$328, DW_AT_name("MaxAccel_krpmps")
    1852                      .dwattr $C$DW$328, DW_AT_TI_symbol_name("_MaxAccel_krpmps")
    1853                      .dwattr $C$DW$328, DW_AT_data_member_location[DW_OP_plus_uconst 0x1e]
    1854                      .dwattr $C$DW$328, DW_AT_accessibility(DW_ACCESS_public)
    1855              $C$DW$329       .dwtag  DW_TAG_member
    1856                      .dwattr $C$DW$329, DW_AT_type(*$C$DW$T$20)
    1857                      .dwattr $C$DW$329, DW_AT_name("Speed_krpm")
    1858                      .dwattr $C$DW$329, DW_AT_TI_symbol_name("_Speed_krpm")
    1859                      .dwattr $C$DW$329, DW_AT_data_member_location[DW_OP_plus_uconst 0x20]
    1860                      .dwattr $C$DW$329, DW_AT_accessibility(DW_ACCESS_public)
    1861              $C$DW$330       .dwtag  DW_TAG_member
    1862                      .dwattr $C$DW$330, DW_AT_type(*$C$DW$T$20)
    1863                      .dwattr $C$DW$330, DW_AT_name("OverModulation")
    1864                      .dwattr $C$DW$330, DW_AT_TI_symbol_name("_OverModulation")
    1865                      .dwattr $C$DW$330, DW_AT_data_member_location[DW_OP_plus_uconst 0x22]
    1866                      .dwattr $C$DW$330, DW_AT_accessibility(DW_ACCESS_public)
    1867              $C$DW$331       .dwtag  DW_TAG_member
    1868                      .dwattr $C$DW$331, DW_AT_type(*$C$DW$T$20)
    1869                      .dwattr $C$DW$331, DW_AT_name("RsOnLineCurrent_A")
    1870                      .dwattr $C$DW$331, DW_AT_TI_symbol_name("_RsOnLineCurrent_A")
    1871                      .dwattr $C$DW$331, DW_AT_data_member_location[DW_OP_plus_uconst 0x24]
    1872                      .dwattr $C$DW$331, DW_AT_accessibility(DW_ACCESS_public)
    1873              $C$DW$332       .dwtag  DW_TAG_member
    1874                      .dwattr $C$DW$332, DW_AT_type(*$C$DW$T$20)
    1875                      .dwattr $C$DW$332, DW_AT_name("SvgenMaxModulation_ticks")
    1876                      .dwattr $C$DW$332, DW_AT_TI_symbol_name("_SvgenMaxModulation_ticks")
    1877                      .dwattr $C$DW$332, DW_AT_data_member_location[DW_OP_plus_uconst 0x26]
    1878                      .dwattr $C$DW$332, DW_AT_accessibility(DW_ACCESS_public)
    1879              $C$DW$333       .dwtag  DW_TAG_member
    1880                      .dwattr $C$DW$333, DW_AT_type(*$C$DW$T$20)
    1881                      .dwattr $C$DW$333, DW_AT_name("Flux_Wb")
    1882                      .dwattr $C$DW$333, DW_AT_TI_symbol_name("_Flux_Wb")
    1883                      .dwattr $C$DW$333, DW_AT_data_member_location[DW_OP_plus_uconst 0x28]
    1884                      .dwattr $C$DW$333, DW_AT_accessibility(DW_ACCESS_public)
TMS320C2000 Assembler PC v6.2.5 Wed Jun 21 14:56:38 2017

Tools Copyright (c) 1996-2014 Texas Instruments Incorporated
C:\Users\wmj\AppData\Local\Temp\0706010                              PAGE   36

    1885              $C$DW$334       .dwtag  DW_TAG_member
    1886                      .dwattr $C$DW$334, DW_AT_type(*$C$DW$T$20)
    1887                      .dwattr $C$DW$334, DW_AT_name("Torque_Nm")
    1888                      .dwattr $C$DW$334, DW_AT_TI_symbol_name("_Torque_Nm")
    1889                      .dwattr $C$DW$334, DW_AT_data_member_location[DW_OP_plus_uconst 0x2a]
    1890                      .dwattr $C$DW$334, DW_AT_accessibility(DW_ACCESS_public)
    1891              $C$DW$335       .dwtag  DW_TAG_member
    1892                      .dwattr $C$DW$335, DW_AT_type(*$C$DW$T$57)
    1893                      .dwattr $C$DW$335, DW_AT_name("MagnCurr_A")
    1894                      .dwattr $C$DW$335, DW_AT_TI_symbol_name("_MagnCurr_A")
    1895                      .dwattr $C$DW$335, DW_AT_data_member_location[DW_OP_plus_uconst 0x2c]
    1896                      .dwattr $C$DW$335, DW_AT_accessibility(DW_ACCESS_public)
    1897              $C$DW$336       .dwtag  DW_TAG_member
    1898                      .dwattr $C$DW$336, DW_AT_type(*$C$DW$T$57)
    1899                      .dwattr $C$DW$336, DW_AT_name("Rr_Ohm")
    1900                      .dwattr $C$DW$336, DW_AT_TI_symbol_name("_Rr_Ohm")
    1901                      .dwattr $C$DW$336, DW_AT_data_member_location[DW_OP_plus_uconst 0x2e]
    1902                      .dwattr $C$DW$336, DW_AT_accessibility(DW_ACCESS_public)
    1903              $C$DW$337       .dwtag  DW_TAG_member
    1904                      .dwattr $C$DW$337, DW_AT_type(*$C$DW$T$57)
    1905                      .dwattr $C$DW$337, DW_AT_name("Rs_Ohm")
    1906                      .dwattr $C$DW$337, DW_AT_TI_symbol_name("_Rs_Ohm")
    1907                      .dwattr $C$DW$337, DW_AT_data_member_location[DW_OP_plus_uconst 0x30]
    1908                      .dwattr $C$DW$337, DW_AT_accessibility(DW_ACCESS_public)
    1909              $C$DW$338       .dwtag  DW_TAG_member
    1910                      .dwattr $C$DW$338, DW_AT_type(*$C$DW$T$57)
    1911                      .dwattr $C$DW$338, DW_AT_name("RsOnLine_Ohm")
    1912                      .dwattr $C$DW$338, DW_AT_TI_symbol_name("_RsOnLine_Ohm")
    1913                      .dwattr $C$DW$338, DW_AT_data_member_location[DW_OP_plus_uconst 0x32]
    1914                      .dwattr $C$DW$338, DW_AT_accessibility(DW_ACCESS_public)
    1915              $C$DW$339       .dwtag  DW_TAG_member
    1916                      .dwattr $C$DW$339, DW_AT_type(*$C$DW$T$57)
    1917                      .dwattr $C$DW$339, DW_AT_name("Lsd_H")
    1918                      .dwattr $C$DW$339, DW_AT_TI_symbol_name("_Lsd_H")
    1919                      .dwattr $C$DW$339, DW_AT_data_member_location[DW_OP_plus_uconst 0x34]
    1920                      .dwattr $C$DW$339, DW_AT_accessibility(DW_ACCESS_public)
    1921              $C$DW$340       .dwtag  DW_TAG_member
    1922                      .dwattr $C$DW$340, DW_AT_type(*$C$DW$T$57)
    1923                      .dwattr $C$DW$340, DW_AT_name("Lsq_H")
    1924                      .dwattr $C$DW$340, DW_AT_TI_symbol_name("_Lsq_H")
    1925                      .dwattr $C$DW$340, DW_AT_data_member_location[DW_OP_plus_uconst 0x36]
    1926                      .dwattr $C$DW$340, DW_AT_accessibility(DW_ACCESS_public)
    1927              $C$DW$341       .dwtag  DW_TAG_member
    1928                      .dwattr $C$DW$341, DW_AT_type(*$C$DW$T$57)
    1929                      .dwattr $C$DW$341, DW_AT_name("Flux_VpHz")
    1930                      .dwattr $C$DW$341, DW_AT_TI_symbol_name("_Flux_VpHz")
    1931                      .dwattr $C$DW$341, DW_AT_data_member_location[DW_OP_plus_uconst 0x38]
    1932                      .dwattr $C$DW$341, DW_AT_accessibility(DW_ACCESS_public)
    1933              $C$DW$342       .dwtag  DW_TAG_member
    1934                      .dwattr $C$DW$342, DW_AT_type(*$C$DW$T$57)
    1935                      .dwattr $C$DW$342, DW_AT_name("ipd_excFreq_Hz")
    1936                      .dwattr $C$DW$342, DW_AT_TI_symbol_name("_ipd_excFreq_Hz")
    1937                      .dwattr $C$DW$342, DW_AT_data_member_location[DW_OP_plus_uconst 0x3a]
    1938                      .dwattr $C$DW$342, DW_AT_accessibility(DW_ACCESS_public)
    1939              $C$DW$343       .dwtag  DW_TAG_member
TMS320C2000 Assembler PC v6.2.5 Wed Jun 21 14:56:38 2017

Tools Copyright (c) 1996-2014 Texas Instruments Incorporated
C:\Users\wmj\AppData\Local\Temp\0706010                              PAGE   37

    1940                      .dwattr $C$DW$343, DW_AT_type(*$C$DW$T$20)
    1941                      .dwattr $C$DW$343, DW_AT_name("ipd_Kspd")
    1942                      .dwattr $C$DW$343, DW_AT_TI_symbol_name("_ipd_Kspd")
    1943                      .dwattr $C$DW$343, DW_AT_data_member_location[DW_OP_plus_uconst 0x3c]
    1944                      .dwattr $C$DW$343, DW_AT_accessibility(DW_ACCESS_public)
    1945              $C$DW$344       .dwtag  DW_TAG_member
    1946                      .dwattr $C$DW$344, DW_AT_type(*$C$DW$T$20)
    1947                      .dwattr $C$DW$344, DW_AT_name("ipd_excMag_coarse_pu")
    1948                      .dwattr $C$DW$344, DW_AT_TI_symbol_name("_ipd_excMag_coarse_pu")
    1949                      .dwattr $C$DW$344, DW_AT_data_member_location[DW_OP_plus_uconst 0x3e]
    1950                      .dwattr $C$DW$344, DW_AT_accessibility(DW_ACCESS_public)
    1951              $C$DW$345       .dwtag  DW_TAG_member
    1952                      .dwattr $C$DW$345, DW_AT_type(*$C$DW$T$20)
    1953                      .dwattr $C$DW$345, DW_AT_name("ipd_excMag_fine_pu")
    1954                      .dwattr $C$DW$345, DW_AT_TI_symbol_name("_ipd_excMag_fine_pu")
    1955                      .dwattr $C$DW$345, DW_AT_data_member_location[DW_OP_plus_uconst 0x40]
    1956                      .dwattr $C$DW$345, DW_AT_accessibility(DW_ACCESS_public)
    1957              $C$DW$346       .dwtag  DW_TAG_member
    1958                      .dwattr $C$DW$346, DW_AT_type(*$C$DW$T$16)
    1959                      .dwattr $C$DW$346, DW_AT_name("ipd_waitTime_coarse_sec")
    1960                      .dwattr $C$DW$346, DW_AT_TI_symbol_name("_ipd_waitTime_coarse_sec")
    1961                      .dwattr $C$DW$346, DW_AT_data_member_location[DW_OP_plus_uconst 0x42]
    1962                      .dwattr $C$DW$346, DW_AT_accessibility(DW_ACCESS_public)
    1963              $C$DW$347       .dwtag  DW_TAG_member
    1964                      .dwattr $C$DW$347, DW_AT_type(*$C$DW$T$16)
    1965                      .dwattr $C$DW$347, DW_AT_name("ipd_waitTime_fine_sec")
    1966                      .dwattr $C$DW$347, DW_AT_TI_symbol_name("_ipd_waitTime_fine_sec")
    1967                      .dwattr $C$DW$347, DW_AT_data_member_location[DW_OP_plus_uconst 0x44]
    1968                      .dwattr $C$DW$347, DW_AT_accessibility(DW_ACCESS_public)
    1969              $C$DW$348       .dwtag  DW_TAG_member
    1970                      .dwattr $C$DW$348, DW_AT_type(*$C$DW$T$20)
    1971                      .dwattr $C$DW$348, DW_AT_name("Kp_spd")
    1972                      .dwattr $C$DW$348, DW_AT_TI_symbol_name("_Kp_spd")
    1973                      .dwattr $C$DW$348, DW_AT_data_member_location[DW_OP_plus_uconst 0x46]
    1974                      .dwattr $C$DW$348, DW_AT_accessibility(DW_ACCESS_public)
    1975              $C$DW$349       .dwtag  DW_TAG_member
    1976                      .dwattr $C$DW$349, DW_AT_type(*$C$DW$T$20)
    1977                      .dwattr $C$DW$349, DW_AT_name("Ki_spd")
    1978                      .dwattr $C$DW$349, DW_AT_TI_symbol_name("_Ki_spd")
    1979                      .dwattr $C$DW$349, DW_AT_data_member_location[DW_OP_plus_uconst 0x48]
    1980                      .dwattr $C$DW$349, DW_AT_accessibility(DW_ACCESS_public)
    1981              $C$DW$350       .dwtag  DW_TAG_member
    1982                      .dwattr $C$DW$350, DW_AT_type(*$C$DW$T$20)
    1983                      .dwattr $C$DW$350, DW_AT_name("Kp_Idq")
    1984                      .dwattr $C$DW$350, DW_AT_TI_symbol_name("_Kp_Idq")
    1985                      .dwattr $C$DW$350, DW_AT_data_member_location[DW_OP_plus_uconst 0x4a]
    1986                      .dwattr $C$DW$350, DW_AT_accessibility(DW_ACCESS_public)
    1987              $C$DW$351       .dwtag  DW_TAG_member
    1988                      .dwattr $C$DW$351, DW_AT_type(*$C$DW$T$20)
    1989                      .dwattr $C$DW$351, DW_AT_name("Ki_Idq")
    1990                      .dwattr $C$DW$351, DW_AT_TI_symbol_name("_Ki_Idq")
    1991                      .dwattr $C$DW$351, DW_AT_data_member_location[DW_OP_plus_uconst 0x4c]
    1992                      .dwattr $C$DW$351, DW_AT_accessibility(DW_ACCESS_public)
    1993              $C$DW$352       .dwtag  DW_TAG_member
    1994                      .dwattr $C$DW$352, DW_AT_type(*$C$DW$T$20)
TMS320C2000 Assembler PC v6.2.5 Wed Jun 21 14:56:38 2017

Tools Copyright (c) 1996-2014 Texas Instruments Incorporated
C:\Users\wmj\AppData\Local\Temp\0706010                              PAGE   38

    1995                      .dwattr $C$DW$352, DW_AT_name("Vd")
    1996                      .dwattr $C$DW$352, DW_AT_TI_symbol_name("_Vd")
    1997                      .dwattr $C$DW$352, DW_AT_data_member_location[DW_OP_plus_uconst 0x4e]
    1998                      .dwattr $C$DW$352, DW_AT_accessibility(DW_ACCESS_public)
    1999              $C$DW$353       .dwtag  DW_TAG_member
    2000                      .dwattr $C$DW$353, DW_AT_type(*$C$DW$T$20)
    2001                      .dwattr $C$DW$353, DW_AT_name("Vq")
    2002                      .dwattr $C$DW$353, DW_AT_TI_symbol_name("_Vq")
    2003                      .dwattr $C$DW$353, DW_AT_data_member_location[DW_OP_plus_uconst 0x50]
    2004                      .dwattr $C$DW$353, DW_AT_accessibility(DW_ACCESS_public)
    2005              $C$DW$354       .dwtag  DW_TAG_member
    2006                      .dwattr $C$DW$354, DW_AT_type(*$C$DW$T$20)
    2007                      .dwattr $C$DW$354, DW_AT_name("Vs")
    2008                      .dwattr $C$DW$354, DW_AT_TI_symbol_name("_Vs")
    2009                      .dwattr $C$DW$354, DW_AT_data_member_location[DW_OP_plus_uconst 0x52]
    2010                      .dwattr $C$DW$354, DW_AT_accessibility(DW_ACCESS_public)
    2011              $C$DW$355       .dwtag  DW_TAG_member
    2012                      .dwattr $C$DW$355, DW_AT_type(*$C$DW$T$20)
    2013                      .dwattr $C$DW$355, DW_AT_name("VsRef")
    2014                      .dwattr $C$DW$355, DW_AT_TI_symbol_name("_VsRef")
    2015                      .dwattr $C$DW$355, DW_AT_data_member_location[DW_OP_plus_uconst 0x54]
    2016                      .dwattr $C$DW$355, DW_AT_accessibility(DW_ACCESS_public)
    2017              $C$DW$356       .dwtag  DW_TAG_member
    2018                      .dwattr $C$DW$356, DW_AT_type(*$C$DW$T$20)
    2019                      .dwattr $C$DW$356, DW_AT_name("VdcBus_kV")
    2020                      .dwattr $C$DW$356, DW_AT_TI_symbol_name("_VdcBus_kV")
    2021                      .dwattr $C$DW$356, DW_AT_data_member_location[DW_OP_plus_uconst 0x56]
    2022                      .dwattr $C$DW$356, DW_AT_accessibility(DW_ACCESS_public)
    2023              $C$DW$357       .dwtag  DW_TAG_member
    2024                      .dwattr $C$DW$357, DW_AT_type(*$C$DW$T$20)
    2025                      .dwattr $C$DW$357, DW_AT_name("Id_A")
    2026                      .dwattr $C$DW$357, DW_AT_TI_symbol_name("_Id_A")
    2027                      .dwattr $C$DW$357, DW_AT_data_member_location[DW_OP_plus_uconst 0x58]
    2028                      .dwattr $C$DW$357, DW_AT_accessibility(DW_ACCESS_public)
    2029              $C$DW$358       .dwtag  DW_TAG_member
    2030                      .dwattr $C$DW$358, DW_AT_type(*$C$DW$T$20)
    2031                      .dwattr $C$DW$358, DW_AT_name("Iq_A")
    2032                      .dwattr $C$DW$358, DW_AT_TI_symbol_name("_Iq_A")
    2033                      .dwattr $C$DW$358, DW_AT_data_member_location[DW_OP_plus_uconst 0x5a]
    2034                      .dwattr $C$DW$358, DW_AT_accessibility(DW_ACCESS_public)
    2035              $C$DW$359       .dwtag  DW_TAG_member
    2036                      .dwattr $C$DW$359, DW_AT_type(*$C$DW$T$20)
    2037                      .dwattr $C$DW$359, DW_AT_name("Is_A")
    2038                      .dwattr $C$DW$359, DW_AT_TI_symbol_name("_Is_A")
    2039                      .dwattr $C$DW$359, DW_AT_data_member_location[DW_OP_plus_uconst 0x5c]
    2040                      .dwattr $C$DW$359, DW_AT_accessibility(DW_ACCESS_public)
    2041              $C$DW$360       .dwtag  DW_TAG_member
    2042                      .dwattr $C$DW$360, DW_AT_type(*$C$DW$T$79)
    2043                      .dwattr $C$DW$360, DW_AT_name("I_bias")
    2044                      .dwattr $C$DW$360, DW_AT_TI_symbol_name("_I_bias")
    2045                      .dwattr $C$DW$360, DW_AT_data_member_location[DW_OP_plus_uconst 0x5e]
    2046                      .dwattr $C$DW$360, DW_AT_accessibility(DW_ACCESS_public)
    2047              $C$DW$361       .dwtag  DW_TAG_member
    2048                      .dwattr $C$DW$361, DW_AT_type(*$C$DW$T$79)
    2049                      .dwattr $C$DW$361, DW_AT_name("V_bias")
TMS320C2000 Assembler PC v6.2.5 Wed Jun 21 14:56:38 2017

Tools Copyright (c) 1996-2014 Texas Instruments Incorporated
C:\Users\wmj\AppData\Local\Temp\0706010                              PAGE   39

    2050                      .dwattr $C$DW$361, DW_AT_TI_symbol_name("_V_bias")
    2051                      .dwattr $C$DW$361, DW_AT_data_member_location[DW_OP_plus_uconst 0x64]
    2052                      .dwattr $C$DW$361, DW_AT_accessibility(DW_ACCESS_public)
    2053              $C$DW$362       .dwtag  DW_TAG_member
    2054                      .dwattr $C$DW$362, DW_AT_type(*$C$DW$T$20)
    2055                      .dwattr $C$DW$362, DW_AT_name("SpeedSet_krpm")
    2056                      .dwattr $C$DW$362, DW_AT_TI_symbol_name("_SpeedSet_krpm")
    2057                      .dwattr $C$DW$362, DW_AT_data_member_location[DW_OP_plus_uconst 0x6a]
    2058                      .dwattr $C$DW$362, DW_AT_accessibility(DW_ACCESS_public)
    2059              $C$DW$363       .dwtag  DW_TAG_member
    2060                      .dwattr $C$DW$363, DW_AT_type(*$C$DW$T$20)
    2061                      .dwattr $C$DW$363, DW_AT_name("angle_sen_pu")
    2062                      .dwattr $C$DW$363, DW_AT_TI_symbol_name("_angle_sen_pu")
    2063                      .dwattr $C$DW$363, DW_AT_data_member_location[DW_OP_plus_uconst 0x6c]
    2064                      .dwattr $C$DW$363, DW_AT_accessibility(DW_ACCESS_public)
    2065              $C$DW$364       .dwtag  DW_TAG_member
    2066                      .dwattr $C$DW$364, DW_AT_type(*$C$DW$T$20)
    2067                      .dwattr $C$DW$364, DW_AT_name("angle_est_pu")
    2068                      .dwattr $C$DW$364, DW_AT_TI_symbol_name("_angle_est_pu")
    2069                      .dwattr $C$DW$364, DW_AT_data_member_location[DW_OP_plus_uconst 0x6e]
    2070                      .dwattr $C$DW$364, DW_AT_accessibility(DW_ACCESS_public)
    2071              $C$DW$365       .dwtag  DW_TAG_member
    2072                      .dwattr $C$DW$365, DW_AT_type(*$C$DW$T$20)
    2073                      .dwattr $C$DW$365, DW_AT_name("speed_sen_pu")
    2074                      .dwattr $C$DW$365, DW_AT_TI_symbol_name("_speed_sen_pu")
    2075                      .dwattr $C$DW$365, DW_AT_data_member_location[DW_OP_plus_uconst 0x70]
    2076                      .dwattr $C$DW$365, DW_AT_accessibility(DW_ACCESS_public)
    2077              $C$DW$366       .dwtag  DW_TAG_member
    2078                      .dwattr $C$DW$366, DW_AT_type(*$C$DW$T$20)
    2079                      .dwattr $C$DW$366, DW_AT_name("speed_est_pu")
    2080                      .dwattr $C$DW$366, DW_AT_TI_symbol_name("_speed_est_pu")
    2081                      .dwattr $C$DW$366, DW_AT_data_member_location[DW_OP_plus_uconst 0x72]
    2082                      .dwattr $C$DW$366, DW_AT_accessibility(DW_ACCESS_public)
    2083              $C$DW$367       .dwtag  DW_TAG_member
    2084                      .dwattr $C$DW$367, DW_AT_type(*$C$DW$T$20)
    2085                      .dwattr $C$DW$367, DW_AT_name("speedHigh_hall2fast_pu")
    2086                      .dwattr $C$DW$367, DW_AT_TI_symbol_name("_speedHigh_hall2fast_pu")
    2087                      .dwattr $C$DW$367, DW_AT_data_member_location[DW_OP_plus_uconst 0x74]
    2088                      .dwattr $C$DW$367, DW_AT_accessibility(DW_ACCESS_public)
    2089              $C$DW$368       .dwtag  DW_TAG_member
    2090                      .dwattr $C$DW$368, DW_AT_type(*$C$DW$T$20)
    2091                      .dwattr $C$DW$368, DW_AT_name("speedLow_hall2fast_pu")
    2092                      .dwattr $C$DW$368, DW_AT_TI_symbol_name("_speedLow_hall2fast_pu")
    2093                      .dwattr $C$DW$368, DW_AT_data_member_location[DW_OP_plus_uconst 0x76]
    2094                      .dwattr $C$DW$368, DW_AT_accessibility(DW_ACCESS_public)
    2095              $C$DW$369       .dwtag  DW_TAG_member
    2096                      .dwattr $C$DW$369, DW_AT_type(*$C$DW$T$20)
    2097                      .dwattr $C$DW$369, DW_AT_name("IdSet_A")
    2098                      .dwattr $C$DW$369, DW_AT_TI_symbol_name("_IdSet_A")
    2099                      .dwattr $C$DW$369, DW_AT_data_member_location[DW_OP_plus_uconst 0x78]
    2100                      .dwattr $C$DW$369, DW_AT_accessibility(DW_ACCESS_public)
    2101              $C$DW$370       .dwtag  DW_TAG_member
    2102                      .dwattr $C$DW$370, DW_AT_type(*$C$DW$T$20)
    2103                      .dwattr $C$DW$370, DW_AT_name("IqSet_A")
    2104                      .dwattr $C$DW$370, DW_AT_TI_symbol_name("_IqSet_A")
TMS320C2000 Assembler PC v6.2.5 Wed Jun 21 14:56:38 2017

Tools Copyright (c) 1996-2014 Texas Instruments Incorporated
C:\Users\wmj\AppData\Local\Temp\0706010                              PAGE   40

    2105                      .dwattr $C$DW$370, DW_AT_data_member_location[DW_OP_plus_uconst 0x7a]
    2106                      .dwattr $C$DW$370, DW_AT_accessibility(DW_ACCESS_public)
    2107              $C$DW$371       .dwtag  DW_TAG_member
    2108                      .dwattr $C$DW$371, DW_AT_type(*$C$DW$T$20)
    2109                      .dwattr $C$DW$371, DW_AT_name("IdRef_pu")
    2110                      .dwattr $C$DW$371, DW_AT_TI_symbol_name("_IdRef_pu")
    2111                      .dwattr $C$DW$371, DW_AT_data_member_location[DW_OP_plus_uconst 0x7c]
    2112                      .dwattr $C$DW$371, DW_AT_accessibility(DW_ACCESS_public)
    2113              $C$DW$372       .dwtag  DW_TAG_member
    2114                      .dwattr $C$DW$372, DW_AT_type(*$C$DW$T$20)
    2115                      .dwattr $C$DW$372, DW_AT_name("IqRef_pu")
    2116                      .dwattr $C$DW$372, DW_AT_TI_symbol_name("_IqRef_pu")
    2117                      .dwattr $C$DW$372, DW_AT_data_member_location[DW_OP_plus_uconst 0x7e]
    2118                      .dwattr $C$DW$372, DW_AT_accessibility(DW_ACCESS_public)
    2119                      .dwendtag $C$DW$T$80
    2120              
    2121              $C$DW$T$105     .dwtag  DW_TAG_typedef, DW_AT_name("MOTOR_Vars_t")
    2122                      .dwattr $C$DW$T$105, DW_AT_type(*$C$DW$T$80)
    2123                      .dwattr $C$DW$T$105, DW_AT_language(DW_LANG_C)
    2124              $C$DW$373       .dwtag  DW_TAG_TI_far_type
    2125                      .dwattr $C$DW$373, DW_AT_type(*$C$DW$T$105)
    2126              $C$DW$T$106     .dwtag  DW_TAG_volatile_type
    2127                      .dwattr $C$DW$T$106, DW_AT_type(*$C$DW$373)
    2128              $C$DW$T$107     .dwtag  DW_TAG_pointer_type
    2129                      .dwattr $C$DW$T$107, DW_AT_type(*$C$DW$T$106)
    2130                      .dwattr $C$DW$T$107, DW_AT_address_class(0x16)
    2131              $C$DW$374       .dwtag  DW_TAG_TI_far_type
    2132                      .dwattr $C$DW$374, DW_AT_type(*$C$DW$T$107)
    2133              $C$DW$T$108     .dwtag  DW_TAG_const_type
    2134                      .dwattr $C$DW$T$108, DW_AT_type(*$C$DW$374)
    2135              
    2136              $C$DW$T$81      .dwtag  DW_TAG_structure_type
    2137                      .dwattr $C$DW$T$81, DW_AT_name("_PARK_Obj_")
    2138                      .dwattr $C$DW$T$81, DW_AT_byte_size(0x04)
    2139              $C$DW$375       .dwtag  DW_TAG_member
    2140                      .dwattr $C$DW$375, DW_AT_type(*$C$DW$T$20)
    2141                      .dwattr $C$DW$375, DW_AT_name("sinTh")
    2142                      .dwattr $C$DW$375, DW_AT_TI_symbol_name("_sinTh")
    2143                      .dwattr $C$DW$375, DW_AT_data_member_location[DW_OP_plus_uconst 0x0]
    2144                      .dwattr $C$DW$375, DW_AT_accessibility(DW_ACCESS_public)
    2145              $C$DW$376       .dwtag  DW_TAG_member
    2146                      .dwattr $C$DW$376, DW_AT_type(*$C$DW$T$20)
    2147                      .dwattr $C$DW$376, DW_AT_name("cosTh")
    2148                      .dwattr $C$DW$376, DW_AT_TI_symbol_name("_cosTh")
    2149                      .dwattr $C$DW$376, DW_AT_data_member_location[DW_OP_plus_uconst 0x2]
    2150                      .dwattr $C$DW$376, DW_AT_accessibility(DW_ACCESS_public)
    2151                      .dwendtag $C$DW$T$81
    2152              
    2153              $C$DW$T$39      .dwtag  DW_TAG_typedef, DW_AT_name("PARK_Obj")
    2154                      .dwattr $C$DW$T$39, DW_AT_type(*$C$DW$T$81)
    2155                      .dwattr $C$DW$T$39, DW_AT_language(DW_LANG_C)
    2156              $C$DW$T$37      .dwtag  DW_TAG_pointer_type
    2157                      .dwattr $C$DW$T$37, DW_AT_type(*$C$DW$T$81)
    2158                      .dwattr $C$DW$T$37, DW_AT_address_class(0x16)
    2159              $C$DW$T$38      .dwtag  DW_TAG_typedef, DW_AT_name("PARK_Handle")
TMS320C2000 Assembler PC v6.2.5 Wed Jun 21 14:56:38 2017

Tools Copyright (c) 1996-2014 Texas Instruments Incorporated
C:\Users\wmj\AppData\Local\Temp\0706010                              PAGE   41

    2160                      .dwattr $C$DW$T$38, DW_AT_type(*$C$DW$T$37)
    2161                      .dwattr $C$DW$T$38, DW_AT_language(DW_LANG_C)
    2162              
    2163              $C$DW$T$82      .dwtag  DW_TAG_structure_type
    2164                      .dwattr $C$DW$T$82, DW_AT_name("_PID_Obj_")
    2165                      .dwattr $C$DW$T$82, DW_AT_byte_size(0x10)
    2166              $C$DW$377       .dwtag  DW_TAG_member
    2167                      .dwattr $C$DW$377, DW_AT_type(*$C$DW$T$20)
    2168                      .dwattr $C$DW$377, DW_AT_name("Kp")
    2169                      .dwattr $C$DW$377, DW_AT_TI_symbol_name("_Kp")
    2170                      .dwattr $C$DW$377, DW_AT_data_member_location[DW_OP_plus_uconst 0x0]
    2171                      .dwattr $C$DW$377, DW_AT_accessibility(DW_ACCESS_public)
    2172              $C$DW$378       .dwtag  DW_TAG_member
    2173                      .dwattr $C$DW$378, DW_AT_type(*$C$DW$T$20)
    2174                      .dwattr $C$DW$378, DW_AT_name("Ki")
    2175                      .dwattr $C$DW$378, DW_AT_TI_symbol_name("_Ki")
    2176                      .dwattr $C$DW$378, DW_AT_data_member_location[DW_OP_plus_uconst 0x2]
    2177                      .dwattr $C$DW$378, DW_AT_accessibility(DW_ACCESS_public)
    2178              $C$DW$379       .dwtag  DW_TAG_member
    2179                      .dwattr $C$DW$379, DW_AT_type(*$C$DW$T$20)
    2180                      .dwattr $C$DW$379, DW_AT_name("Kd")
    2181                      .dwattr $C$DW$379, DW_AT_TI_symbol_name("_Kd")
    2182                      .dwattr $C$DW$379, DW_AT_data_member_location[DW_OP_plus_uconst 0x4]
    2183                      .dwattr $C$DW$379, DW_AT_accessibility(DW_ACCESS_public)
    2184              $C$DW$380       .dwtag  DW_TAG_member
    2185                      .dwattr $C$DW$380, DW_AT_type(*$C$DW$T$20)
    2186                      .dwattr $C$DW$380, DW_AT_name("Ui")
    2187                      .dwattr $C$DW$380, DW_AT_TI_symbol_name("_Ui")
    2188                      .dwattr $C$DW$380, DW_AT_data_member_location[DW_OP_plus_uconst 0x6]
    2189                      .dwattr $C$DW$380, DW_AT_accessibility(DW_ACCESS_public)
    2190              $C$DW$381       .dwtag  DW_TAG_member
    2191                      .dwattr $C$DW$381, DW_AT_type(*$C$DW$T$20)
    2192                      .dwattr $C$DW$381, DW_AT_name("refValue")
    2193                      .dwattr $C$DW$381, DW_AT_TI_symbol_name("_refValue")
    2194                      .dwattr $C$DW$381, DW_AT_data_member_location[DW_OP_plus_uconst 0x8]
    2195                      .dwattr $C$DW$381, DW_AT_accessibility(DW_ACCESS_public)
    2196              $C$DW$382       .dwtag  DW_TAG_member
    2197                      .dwattr $C$DW$382, DW_AT_type(*$C$DW$T$20)
    2198                      .dwattr $C$DW$382, DW_AT_name("fbackValue")
    2199                      .dwattr $C$DW$382, DW_AT_TI_symbol_name("_fbackValue")
    2200                      .dwattr $C$DW$382, DW_AT_data_member_location[DW_OP_plus_uconst 0xa]
    2201                      .dwattr $C$DW$382, DW_AT_accessibility(DW_ACCESS_public)
    2202              $C$DW$383       .dwtag  DW_TAG_member
    2203                      .dwattr $C$DW$383, DW_AT_type(*$C$DW$T$20)
    2204                      .dwattr $C$DW$383, DW_AT_name("outMin")
    2205                      .dwattr $C$DW$383, DW_AT_TI_symbol_name("_outMin")
    2206                      .dwattr $C$DW$383, DW_AT_data_member_location[DW_OP_plus_uconst 0xc]
    2207                      .dwattr $C$DW$383, DW_AT_accessibility(DW_ACCESS_public)
    2208              $C$DW$384       .dwtag  DW_TAG_member
    2209                      .dwattr $C$DW$384, DW_AT_type(*$C$DW$T$20)
    2210                      .dwattr $C$DW$384, DW_AT_name("outMax")
    2211                      .dwattr $C$DW$384, DW_AT_TI_symbol_name("_outMax")
    2212                      .dwattr $C$DW$384, DW_AT_data_member_location[DW_OP_plus_uconst 0xe]
    2213                      .dwattr $C$DW$384, DW_AT_accessibility(DW_ACCESS_public)
    2214                      .dwendtag $C$DW$T$82
TMS320C2000 Assembler PC v6.2.5 Wed Jun 21 14:56:38 2017

Tools Copyright (c) 1996-2014 Texas Instruments Incorporated
C:\Users\wmj\AppData\Local\Temp\0706010                              PAGE   42

    2215              
    2216              $C$DW$T$42      .dwtag  DW_TAG_typedef, DW_AT_name("PID_Obj")
    2217                      .dwattr $C$DW$T$42, DW_AT_type(*$C$DW$T$82)
    2218                      .dwattr $C$DW$T$42, DW_AT_language(DW_LANG_C)
    2219              $C$DW$T$40      .dwtag  DW_TAG_pointer_type
    2220                      .dwattr $C$DW$T$40, DW_AT_type(*$C$DW$T$82)
    2221                      .dwattr $C$DW$T$40, DW_AT_address_class(0x16)
    2222              $C$DW$T$41      .dwtag  DW_TAG_typedef, DW_AT_name("PID_Handle")
    2223                      .dwattr $C$DW$T$41, DW_AT_type(*$C$DW$T$40)
    2224                      .dwattr $C$DW$T$41, DW_AT_language(DW_LANG_C)
    2225              
    2226              $C$DW$T$83      .dwtag  DW_TAG_structure_type
    2227                      .dwattr $C$DW$T$83, DW_AT_name("_SVGEN_Obj_")
    2228                      .dwattr $C$DW$T$83, DW_AT_byte_size(0x02)
    2229              $C$DW$385       .dwtag  DW_TAG_member
    2230                      .dwattr $C$DW$385, DW_AT_type(*$C$DW$T$20)
    2231                      .dwattr $C$DW$385, DW_AT_name("maxModulation")
    2232                      .dwattr $C$DW$385, DW_AT_TI_symbol_name("_maxModulation")
    2233                      .dwattr $C$DW$385, DW_AT_data_member_location[DW_OP_plus_uconst 0x0]
    2234                      .dwattr $C$DW$385, DW_AT_accessibility(DW_ACCESS_public)
    2235                      .dwendtag $C$DW$T$83
    2236              
    2237              $C$DW$T$48      .dwtag  DW_TAG_typedef, DW_AT_name("SVGEN_Obj")
    2238                      .dwattr $C$DW$T$48, DW_AT_type(*$C$DW$T$83)
    2239                      .dwattr $C$DW$T$48, DW_AT_language(DW_LANG_C)
    2240              $C$DW$T$46      .dwtag  DW_TAG_pointer_type
    2241                      .dwattr $C$DW$T$46, DW_AT_type(*$C$DW$T$83)
    2242                      .dwattr $C$DW$T$46, DW_AT_address_class(0x16)
    2243              $C$DW$T$47      .dwtag  DW_TAG_typedef, DW_AT_name("SVGEN_Handle")
    2244                      .dwattr $C$DW$T$47, DW_AT_type(*$C$DW$T$46)
    2245                      .dwattr $C$DW$T$47, DW_AT_language(DW_LANG_C)
    2246              
    2247              $C$DW$T$84      .dwtag  DW_TAG_structure_type
    2248                      .dwattr $C$DW$T$84, DW_AT_name("_TRAJ_Obj_")
    2249                      .dwattr $C$DW$T$84, DW_AT_byte_size(0x0a)
    2250              $C$DW$386       .dwtag  DW_TAG_member
    2251                      .dwattr $C$DW$386, DW_AT_type(*$C$DW$T$20)
    2252                      .dwattr $C$DW$386, DW_AT_name("targetValue")
    2253                      .dwattr $C$DW$386, DW_AT_TI_symbol_name("_targetValue")
    2254                      .dwattr $C$DW$386, DW_AT_data_member_location[DW_OP_plus_uconst 0x0]
    2255                      .dwattr $C$DW$386, DW_AT_accessibility(DW_ACCESS_public)
    2256              $C$DW$387       .dwtag  DW_TAG_member
    2257                      .dwattr $C$DW$387, DW_AT_type(*$C$DW$T$20)
    2258                      .dwattr $C$DW$387, DW_AT_name("intValue")
    2259                      .dwattr $C$DW$387, DW_AT_TI_symbol_name("_intValue")
    2260                      .dwattr $C$DW$387, DW_AT_data_member_location[DW_OP_plus_uconst 0x2]
    2261                      .dwattr $C$DW$387, DW_AT_accessibility(DW_ACCESS_public)
    2262              $C$DW$388       .dwtag  DW_TAG_member
    2263                      .dwattr $C$DW$388, DW_AT_type(*$C$DW$T$20)
    2264                      .dwattr $C$DW$388, DW_AT_name("minValue")
    2265                      .dwattr $C$DW$388, DW_AT_TI_symbol_name("_minValue")
    2266                      .dwattr $C$DW$388, DW_AT_data_member_location[DW_OP_plus_uconst 0x4]
    2267                      .dwattr $C$DW$388, DW_AT_accessibility(DW_ACCESS_public)
    2268              $C$DW$389       .dwtag  DW_TAG_member
    2269                      .dwattr $C$DW$389, DW_AT_type(*$C$DW$T$20)
TMS320C2000 Assembler PC v6.2.5 Wed Jun 21 14:56:38 2017

Tools Copyright (c) 1996-2014 Texas Instruments Incorporated
C:\Users\wmj\AppData\Local\Temp\0706010                              PAGE   43

    2270                      .dwattr $C$DW$389, DW_AT_name("maxValue")
    2271                      .dwattr $C$DW$389, DW_AT_TI_symbol_name("_maxValue")
    2272                      .dwattr $C$DW$389, DW_AT_data_member_location[DW_OP_plus_uconst 0x6]
    2273                      .dwattr $C$DW$389, DW_AT_accessibility(DW_ACCESS_public)
    2274              $C$DW$390       .dwtag  DW_TAG_member
    2275                      .dwattr $C$DW$390, DW_AT_type(*$C$DW$T$20)
    2276                      .dwattr $C$DW$390, DW_AT_name("maxDelta")
    2277                      .dwattr $C$DW$390, DW_AT_TI_symbol_name("_maxDelta")
    2278                      .dwattr $C$DW$390, DW_AT_data_member_location[DW_OP_plus_uconst 0x8]
    2279                      .dwattr $C$DW$390, DW_AT_accessibility(DW_ACCESS_public)
    2280                      .dwendtag $C$DW$T$84
    2281              
    2282              $C$DW$T$51      .dwtag  DW_TAG_typedef, DW_AT_name("TRAJ_Obj")
    2283                      .dwattr $C$DW$T$51, DW_AT_type(*$C$DW$T$84)
    2284                      .dwattr $C$DW$T$51, DW_AT_language(DW_LANG_C)
    2285              $C$DW$T$49      .dwtag  DW_TAG_pointer_type
    2286                      .dwattr $C$DW$T$49, DW_AT_type(*$C$DW$T$84)
    2287                      .dwattr $C$DW$T$49, DW_AT_address_class(0x16)
    2288              $C$DW$T$50      .dwtag  DW_TAG_typedef, DW_AT_name("TRAJ_Handle")
    2289                      .dwattr $C$DW$T$50, DW_AT_type(*$C$DW$T$49)
    2290                      .dwattr $C$DW$T$50, DW_AT_language(DW_LANG_C)
    2291              $C$DW$T$4       .dwtag  DW_TAG_base_type
    2292                      .dwattr $C$DW$T$4, DW_AT_encoding(DW_ATE_boolean)
    2293                      .dwattr $C$DW$T$4, DW_AT_name("bool")
    2294                      .dwattr $C$DW$T$4, DW_AT_byte_size(0x01)
    2295              $C$DW$T$5       .dwtag  DW_TAG_base_type
    2296                      .dwattr $C$DW$T$5, DW_AT_encoding(DW_ATE_signed_char)
    2297                      .dwattr $C$DW$T$5, DW_AT_name("signed char")
    2298                      .dwattr $C$DW$T$5, DW_AT_byte_size(0x01)
    2299              $C$DW$T$6       .dwtag  DW_TAG_base_type
    2300                      .dwattr $C$DW$T$6, DW_AT_encoding(DW_ATE_unsigned_char)
    2301                      .dwattr $C$DW$T$6, DW_AT_name("unsigned char")
    2302                      .dwattr $C$DW$T$6, DW_AT_byte_size(0x01)
    2303              $C$DW$T$59      .dwtag  DW_TAG_typedef, DW_AT_name("_Bool")
    2304                      .dwattr $C$DW$T$59, DW_AT_type(*$C$DW$T$6)
    2305                      .dwattr $C$DW$T$59, DW_AT_language(DW_LANG_C)
    2306              $C$DW$T$7       .dwtag  DW_TAG_base_type
    2307                      .dwattr $C$DW$T$7, DW_AT_encoding(DW_ATE_signed_char)
    2308                      .dwattr $C$DW$T$7, DW_AT_name("wchar_t")
    2309                      .dwattr $C$DW$T$7, DW_AT_byte_size(0x01)
    2310              $C$DW$T$8       .dwtag  DW_TAG_base_type
    2311                      .dwattr $C$DW$T$8, DW_AT_encoding(DW_ATE_signed)
    2312                      .dwattr $C$DW$T$8, DW_AT_name("short")
    2313                      .dwattr $C$DW$T$8, DW_AT_byte_size(0x01)
    2314              $C$DW$T$9       .dwtag  DW_TAG_base_type
    2315                      .dwattr $C$DW$T$9, DW_AT_encoding(DW_ATE_unsigned)
    2316                      .dwattr $C$DW$T$9, DW_AT_name("unsigned short")
    2317                      .dwattr $C$DW$T$9, DW_AT_byte_size(0x01)
    2318              $C$DW$T$24      .dwtag  DW_TAG_typedef, DW_AT_name("uint16_t")
    2319                      .dwattr $C$DW$T$24, DW_AT_type(*$C$DW$T$9)
    2320                      .dwattr $C$DW$T$24, DW_AT_language(DW_LANG_C)
    2321              $C$DW$391       .dwtag  DW_TAG_TI_far_type
    2322                      .dwattr $C$DW$391, DW_AT_type(*$C$DW$T$24)
    2323              $C$DW$T$116     .dwtag  DW_TAG_const_type
    2324                      .dwattr $C$DW$T$116, DW_AT_type(*$C$DW$391)
TMS320C2000 Assembler PC v6.2.5 Wed Jun 21 14:56:38 2017

Tools Copyright (c) 1996-2014 Texas Instruments Incorporated
C:\Users\wmj\AppData\Local\Temp\0706010                              PAGE   44

    2325              $C$DW$T$56      .dwtag  DW_TAG_typedef, DW_AT_name("uint_least16_t")
    2326                      .dwattr $C$DW$T$56, DW_AT_type(*$C$DW$T$24)
    2327                      .dwattr $C$DW$T$56, DW_AT_language(DW_LANG_C)
    2328              $C$DW$T$25      .dwtag  DW_TAG_typedef, DW_AT_name("uint_least8_t")
    2329                      .dwattr $C$DW$T$25, DW_AT_type(*$C$DW$T$24)
    2330                      .dwattr $C$DW$T$25, DW_AT_language(DW_LANG_C)
    2331              $C$DW$T$10      .dwtag  DW_TAG_base_type
    2332                      .dwattr $C$DW$T$10, DW_AT_encoding(DW_ATE_signed)
    2333                      .dwattr $C$DW$T$10, DW_AT_name("int")
    2334                      .dwattr $C$DW$T$10, DW_AT_byte_size(0x01)
    2335              $C$DW$T$11      .dwtag  DW_TAG_base_type
    2336                      .dwattr $C$DW$T$11, DW_AT_encoding(DW_ATE_unsigned)
    2337                      .dwattr $C$DW$T$11, DW_AT_name("unsigned int")
    2338                      .dwattr $C$DW$T$11, DW_AT_byte_size(0x01)
    2339              $C$DW$T$12      .dwtag  DW_TAG_base_type
    2340                      .dwattr $C$DW$T$12, DW_AT_encoding(DW_ATE_signed)
    2341                      .dwattr $C$DW$T$12, DW_AT_name("long")
    2342                      .dwattr $C$DW$T$12, DW_AT_byte_size(0x02)
    2343              $C$DW$T$20      .dwtag  DW_TAG_typedef, DW_AT_name("_iq")
    2344                      .dwattr $C$DW$T$20, DW_AT_type(*$C$DW$T$12)
    2345                      .dwattr $C$DW$T$20, DW_AT_language(DW_LANG_C)
    2346              
    2347              $C$DW$T$21      .dwtag  DW_TAG_array_type
    2348                      .dwattr $C$DW$T$21, DW_AT_type(*$C$DW$T$20)
    2349                      .dwattr $C$DW$T$21, DW_AT_language(DW_LANG_C)
    2350                      .dwattr $C$DW$T$21, DW_AT_byte_size(0x200)
    2351              $C$DW$392       .dwtag  DW_TAG_subrange_type
    2352                      .dwattr $C$DW$392, DW_AT_upper_bound(0xff)
    2353                      .dwendtag $C$DW$T$21
    2354              
    2355              
    2356              $C$DW$T$68      .dwtag  DW_TAG_array_type
    2357                      .dwattr $C$DW$T$68, DW_AT_type(*$C$DW$T$20)
    2358                      .dwattr $C$DW$T$68, DW_AT_language(DW_LANG_C)
    2359                      .dwattr $C$DW$T$68, DW_AT_byte_size(0x04)
    2360              $C$DW$393       .dwtag  DW_TAG_subrange_type
    2361                      .dwattr $C$DW$393, DW_AT_upper_bound(0x01)
    2362                      .dwendtag $C$DW$T$68
    2363              
    2364              
    2365              $C$DW$T$70      .dwtag  DW_TAG_array_type
    2366                      .dwattr $C$DW$T$70, DW_AT_type(*$C$DW$T$20)
    2367                      .dwattr $C$DW$T$70, DW_AT_language(DW_LANG_C)
    2368                      .dwattr $C$DW$T$70, DW_AT_byte_size(0x06)
    2369              $C$DW$394       .dwtag  DW_TAG_subrange_type
    2370                      .dwattr $C$DW$394, DW_AT_upper_bound(0x02)
    2371                      .dwendtag $C$DW$T$70
    2372              
    2373              $C$DW$T$22      .dwtag  DW_TAG_typedef, DW_AT_name("int32_t")
    2374                      .dwattr $C$DW$T$22, DW_AT_type(*$C$DW$T$12)
    2375                      .dwattr $C$DW$T$22, DW_AT_language(DW_LANG_C)
    2376              $C$DW$T$124     .dwtag  DW_TAG_pointer_type
    2377                      .dwattr $C$DW$T$124, DW_AT_type(*$C$DW$T$22)
    2378                      .dwattr $C$DW$T$124, DW_AT_address_class(0x16)
    2379              $C$DW$395       .dwtag  DW_TAG_TI_far_type
TMS320C2000 Assembler PC v6.2.5 Wed Jun 21 14:56:38 2017

Tools Copyright (c) 1996-2014 Texas Instruments Incorporated
C:\Users\wmj\AppData\Local\Temp\0706010                              PAGE   45

    2380                      .dwattr $C$DW$395, DW_AT_type(*$C$DW$T$124)
    2381              $C$DW$T$133     .dwtag  DW_TAG_const_type
    2382                      .dwattr $C$DW$T$133, DW_AT_type(*$C$DW$395)
    2383              $C$DW$396       .dwtag  DW_TAG_TI_far_type
    2384                      .dwattr $C$DW$396, DW_AT_type(*$C$DW$T$22)
    2385              $C$DW$T$136     .dwtag  DW_TAG_const_type
    2386                      .dwattr $C$DW$T$136, DW_AT_type(*$C$DW$396)
    2387              $C$DW$T$13      .dwtag  DW_TAG_base_type
    2388                      .dwattr $C$DW$T$13, DW_AT_encoding(DW_ATE_unsigned)
    2389                      .dwattr $C$DW$T$13, DW_AT_name("unsigned long")
    2390                      .dwattr $C$DW$T$13, DW_AT_byte_size(0x02)
    2391              $C$DW$T$53      .dwtag  DW_TAG_typedef, DW_AT_name("uint32_t")
    2392                      .dwattr $C$DW$T$53, DW_AT_type(*$C$DW$T$13)
    2393                      .dwattr $C$DW$T$53, DW_AT_language(DW_LANG_C)
    2394              $C$DW$T$54      .dwtag  DW_TAG_typedef, DW_AT_name("uint_least32_t")
    2395                      .dwattr $C$DW$T$54, DW_AT_type(*$C$DW$T$53)
    2396                      .dwattr $C$DW$T$54, DW_AT_language(DW_LANG_C)
    2397              
    2398              $C$DW$T$55      .dwtag  DW_TAG_array_type
    2399                      .dwattr $C$DW$T$55, DW_AT_type(*$C$DW$T$54)
    2400                      .dwattr $C$DW$T$55, DW_AT_language(DW_LANG_C)
    2401                      .dwattr $C$DW$T$55, DW_AT_byte_size(0x08)
    2402              $C$DW$397       .dwtag  DW_TAG_subrange_type
    2403                      .dwattr $C$DW$397, DW_AT_upper_bound(0x03)
    2404                      .dwendtag $C$DW$T$55
    2405              
    2406              $C$DW$T$14      .dwtag  DW_TAG_base_type
    2407                      .dwattr $C$DW$T$14, DW_AT_encoding(DW_ATE_signed)
    2408                      .dwattr $C$DW$T$14, DW_AT_name("long long")
    2409                      .dwattr $C$DW$T$14, DW_AT_byte_size(0x04)
    2410              $C$DW$T$15      .dwtag  DW_TAG_base_type
    2411                      .dwattr $C$DW$T$15, DW_AT_encoding(DW_ATE_unsigned)
    2412                      .dwattr $C$DW$T$15, DW_AT_name("unsigned long long")
    2413                      .dwattr $C$DW$T$15, DW_AT_byte_size(0x04)
    2414              $C$DW$T$16      .dwtag  DW_TAG_base_type
    2415                      .dwattr $C$DW$T$16, DW_AT_encoding(DW_ATE_float)
    2416                      .dwattr $C$DW$T$16, DW_AT_name("float")
    2417                      .dwattr $C$DW$T$16, DW_AT_byte_size(0x02)
    2418              $C$DW$T$57      .dwtag  DW_TAG_typedef, DW_AT_name("float_t")
    2419                      .dwattr $C$DW$T$57, DW_AT_type(*$C$DW$T$16)
    2420                      .dwattr $C$DW$T$57, DW_AT_language(DW_LANG_C)
    2421              $C$DW$T$17      .dwtag  DW_TAG_base_type
    2422                      .dwattr $C$DW$T$17, DW_AT_encoding(DW_ATE_float)
    2423                      .dwattr $C$DW$T$17, DW_AT_name("double")
    2424                      .dwattr $C$DW$T$17, DW_AT_byte_size(0x02)
    2425              $C$DW$T$18      .dwtag  DW_TAG_base_type
    2426                      .dwattr $C$DW$T$18, DW_AT_encoding(DW_ATE_float)
    2427                      .dwattr $C$DW$T$18, DW_AT_name("long double")
    2428                      .dwattr $C$DW$T$18, DW_AT_byte_size(0x04)
    2429                      .dwattr $C$DW$CU, DW_AT_language(DW_LANG_C)
    2430              
    2431              ;***************************************************************
    2432              ;* DWARF CIE ENTRIES                                           *
    2433              ;***************************************************************
    2434              
TMS320C2000 Assembler PC v6.2.5 Wed Jun 21 14:56:38 2017

Tools Copyright (c) 1996-2014 Texas Instruments Incorporated
C:\Users\wmj\AppData\Local\Temp\0706010                              PAGE   46

    2435              $C$DW$CIE       .dwcie 78
    2436                      .dwcfi  cfa_register, 20
    2437                      .dwcfi  cfa_offset, 0
    2438                      .dwcfi  undefined, 0
    2439                      .dwcfi  undefined, 1
    2440                      .dwcfi  undefined, 2
    2441                      .dwcfi  undefined, 3
    2442                      .dwcfi  undefined, 20
    2443                      .dwcfi  undefined, 21
    2444                      .dwcfi  undefined, 22
    2445                      .dwcfi  undefined, 23
    2446                      .dwcfi  undefined, 24
    2447                      .dwcfi  undefined, 25
    2448                      .dwcfi  undefined, 26
    2449                      .dwcfi  same_value, 28
    2450                      .dwcfi  undefined, 29
    2451                      .dwcfi  undefined, 30
    2452                      .dwcfi  undefined, 31
    2453                      .dwcfi  undefined, 32
    2454                      .dwcfi  undefined, 33
    2455                      .dwcfi  undefined, 34
    2456                      .dwcfi  undefined, 35
    2457                      .dwcfi  undefined, 36
    2458                      .dwcfi  undefined, 37
    2459                      .dwcfi  undefined, 38
    2460                      .dwcfi  undefined, 75
    2461                      .dwcfi  undefined, 76
    2462                      .dwcfi  undefined, 77
    2463                      .dwcfi  undefined, 4
    2464                      .dwcfi  same_value, 6
    2465                      .dwcfi  same_value, 8
    2466                      .dwcfi  same_value, 10
    2467                      .dwcfi  undefined, 12
    2468                      .dwcfi  undefined, 14
    2469                      .dwcfi  undefined, 16
    2470                      .dwcfi  undefined, 17
    2471                      .dwcfi  undefined, 18
    2472                      .dwcfi  undefined, 19
    2473                      .dwcfi  undefined, 5
    2474                      .dwcfi  same_value, 7
    2475                      .dwcfi  same_value, 9
    2476                      .dwcfi  same_value, 11
    2477                      .dwcfi  undefined, 13
    2478                      .dwcfi  undefined, 15
    2479                      .dwcfi  undefined, 78
    2480                      .dwendentry
    2481              
    2482              ;***************************************************************
    2483              ;* DWARF REGISTER MAP                                          *
    2484              ;***************************************************************
    2485              
    2486              $C$DW$398       .dwtag  DW_TAG_TI_assign_register, DW_AT_name("AL")
    2487                      .dwattr $C$DW$398, DW_AT_location[DW_OP_reg0]
    2488              $C$DW$399       .dwtag  DW_TAG_TI_assign_register, DW_AT_name("AH")
    2489                      .dwattr $C$DW$399, DW_AT_location[DW_OP_reg1]
TMS320C2000 Assembler PC v6.2.5 Wed Jun 21 14:56:38 2017

Tools Copyright (c) 1996-2014 Texas Instruments Incorporated
C:\Users\wmj\AppData\Local\Temp\0706010                              PAGE   47

    2490              $C$DW$400       .dwtag  DW_TAG_TI_assign_register, DW_AT_name("PL")
    2491                      .dwattr $C$DW$400, DW_AT_location[DW_OP_reg2]
    2492              $C$DW$401       .dwtag  DW_TAG_TI_assign_register, DW_AT_name("PH")
    2493                      .dwattr $C$DW$401, DW_AT_location[DW_OP_reg3]
    2494              $C$DW$402       .dwtag  DW_TAG_TI_assign_register, DW_AT_name("SP")
    2495                      .dwattr $C$DW$402, DW_AT_location[DW_OP_reg20]
    2496              $C$DW$403       .dwtag  DW_TAG_TI_assign_register, DW_AT_name("XT")
    2497                      .dwattr $C$DW$403, DW_AT_location[DW_OP_reg21]
    2498              $C$DW$404       .dwtag  DW_TAG_TI_assign_register, DW_AT_name("T")
    2499                      .dwattr $C$DW$404, DW_AT_location[DW_OP_reg22]
    2500              $C$DW$405       .dwtag  DW_TAG_TI_assign_register, DW_AT_name("ST0")
    2501                      .dwattr $C$DW$405, DW_AT_location[DW_OP_reg23]
    2502              $C$DW$406       .dwtag  DW_TAG_TI_assign_register, DW_AT_name("ST1")
    2503                      .dwattr $C$DW$406, DW_AT_location[DW_OP_reg24]
    2504              $C$DW$407       .dwtag  DW_TAG_TI_assign_register, DW_AT_name("PC")
    2505                      .dwattr $C$DW$407, DW_AT_location[DW_OP_reg25]
    2506              $C$DW$408       .dwtag  DW_TAG_TI_assign_register, DW_AT_name("RPC")
    2507                      .dwattr $C$DW$408, DW_AT_location[DW_OP_reg26]
    2508              $C$DW$409       .dwtag  DW_TAG_TI_assign_register, DW_AT_name("FP")
    2509                      .dwattr $C$DW$409, DW_AT_location[DW_OP_reg28]
    2510              $C$DW$410       .dwtag  DW_TAG_TI_assign_register, DW_AT_name("DP")
    2511                      .dwattr $C$DW$410, DW_AT_location[DW_OP_reg29]
    2512              $C$DW$411       .dwtag  DW_TAG_TI_assign_register, DW_AT_name("SXM")
    2513                      .dwattr $C$DW$411, DW_AT_location[DW_OP_reg30]
    2514              $C$DW$412       .dwtag  DW_TAG_TI_assign_register, DW_AT_name("PM")
    2515                      .dwattr $C$DW$412, DW_AT_location[DW_OP_reg31]
    2516              $C$DW$413       .dwtag  DW_TAG_TI_assign_register, DW_AT_name("OVM")
    2517                      .dwattr $C$DW$413, DW_AT_location[DW_OP_regx 0x20]
    2518              $C$DW$414       .dwtag  DW_TAG_TI_assign_register, DW_AT_name("PAGE0")
    2519                      .dwattr $C$DW$414, DW_AT_location[DW_OP_regx 0x21]
    2520              $C$DW$415       .dwtag  DW_TAG_TI_assign_register, DW_AT_name("AMODE")
    2521                      .dwattr $C$DW$415, DW_AT_location[DW_OP_regx 0x22]
    2522              $C$DW$416       .dwtag  DW_TAG_TI_assign_register, DW_AT_name("INTM")
    2523                      .dwattr $C$DW$416, DW_AT_location[DW_OP_regx 0x23]
    2524              $C$DW$417       .dwtag  DW_TAG_TI_assign_register, DW_AT_name("IFR")
    2525                      .dwattr $C$DW$417, DW_AT_location[DW_OP_regx 0x24]
    2526              $C$DW$418       .dwtag  DW_TAG_TI_assign_register, DW_AT_name("IER")
    2527                      .dwattr $C$DW$418, DW_AT_location[DW_OP_regx 0x25]
    2528              $C$DW$419       .dwtag  DW_TAG_TI_assign_register, DW_AT_name("V")
    2529                      .dwattr $C$DW$419, DW_AT_location[DW_OP_regx 0x26]
    2530              $C$DW$420       .dwtag  DW_TAG_TI_assign_register, DW_AT_name("PSEUDOH")
    2531                      .dwattr $C$DW$420, DW_AT_location[DW_OP_regx 0x4c]
    2532              $C$DW$421       .dwtag  DW_TAG_TI_assign_register, DW_AT_name("VOL")
    2533                      .dwattr $C$DW$421, DW_AT_location[DW_OP_regx 0x4d]
    2534              $C$DW$422       .dwtag  DW_TAG_TI_assign_register, DW_AT_name("AR0")
    2535                      .dwattr $C$DW$422, DW_AT_location[DW_OP_reg4]
    2536              $C$DW$423       .dwtag  DW_TAG_TI_assign_register, DW_AT_name("AR1")
    2537                      .dwattr $C$DW$423, DW_AT_location[DW_OP_reg6]
    2538              $C$DW$424       .dwtag  DW_TAG_TI_assign_register, DW_AT_name("AR2")
    2539                      .dwattr $C$DW$424, DW_AT_location[DW_OP_reg8]
    2540              $C$DW$425       .dwtag  DW_TAG_TI_assign_register, DW_AT_name("AR3")
    2541                      .dwattr $C$DW$425, DW_AT_location[DW_OP_reg10]
    2542              $C$DW$426       .dwtag  DW_TAG_TI_assign_register, DW_AT_name("AR4")
    2543                      .dwattr $C$DW$426, DW_AT_location[DW_OP_reg12]
    2544              $C$DW$427       .dwtag  DW_TAG_TI_assign_register, DW_AT_name("AR5")
TMS320C2000 Assembler PC v6.2.5 Wed Jun 21 14:56:38 2017

Tools Copyright (c) 1996-2014 Texas Instruments Incorporated
C:\Users\wmj\AppData\Local\Temp\0706010                              PAGE   48

    2545                      .dwattr $C$DW$427, DW_AT_location[DW_OP_reg14]
    2546              $C$DW$428       .dwtag  DW_TAG_TI_assign_register, DW_AT_name("AR6")
    2547                      .dwattr $C$DW$428, DW_AT_location[DW_OP_reg16]
    2548              $C$DW$429       .dwtag  DW_TAG_TI_assign_register, DW_AT_name("XAR6")
    2549                      .dwattr $C$DW$429, DW_AT_location[DW_OP_reg17]
    2550              $C$DW$430       .dwtag  DW_TAG_TI_assign_register, DW_AT_name("AR7")
    2551                      .dwattr $C$DW$430, DW_AT_location[DW_OP_reg18]
    2552              $C$DW$431       .dwtag  DW_TAG_TI_assign_register, DW_AT_name("XAR7")
    2553                      .dwattr $C$DW$431, DW_AT_location[DW_OP_reg19]
    2554              $C$DW$432       .dwtag  DW_TAG_TI_assign_register, DW_AT_name("XAR0")
    2555                      .dwattr $C$DW$432, DW_AT_location[DW_OP_reg5]
    2556              $C$DW$433       .dwtag  DW_TAG_TI_assign_register, DW_AT_name("XAR1")
    2557                      .dwattr $C$DW$433, DW_AT_location[DW_OP_reg7]
    2558              $C$DW$434       .dwtag  DW_TAG_TI_assign_register, DW_AT_name("XAR2")
    2559                      .dwattr $C$DW$434, DW_AT_location[DW_OP_reg9]
    2560              $C$DW$435       .dwtag  DW_TAG_TI_assign_register, DW_AT_name("XAR3")
    2561                      .dwattr $C$DW$435, DW_AT_location[DW_OP_reg11]
    2562              $C$DW$436       .dwtag  DW_TAG_TI_assign_register, DW_AT_name("XAR4")
    2563                      .dwattr $C$DW$436, DW_AT_location[DW_OP_reg13]
    2564              $C$DW$437       .dwtag  DW_TAG_TI_assign_register, DW_AT_name("XAR5")
    2565                      .dwattr $C$DW$437, DW_AT_location[DW_OP_reg15]
    2566              $C$DW$438       .dwtag  DW_TAG_TI_assign_register, DW_AT_name("CIE_RETA")
    2567                      .dwattr $C$DW$438, DW_AT_location[DW_OP_regx 0x4e]
    2568                      .dwendtag $C$DW$CU
    2569              

No Assembly Errors, No Assembly Warnings
