TMS320C2000 Assembler PC v6.2.5 Wed Jun 21 14:56:42 2017

Tools Copyright (c) 1996-2014 Texas Instruments Incorporated
C:\Users\wmj\AppData\Local\Temp\0692810                              PAGE    1

       1              ;***************************************************************
       2              ;* TMS320C2000 C/C++ Codegen                         PC v6.2.5 *
       3              ;* Date/Time created: Wed Jun 21 14:56:41 2017                 *
       4              ;***************************************************************
       5                      .compiler_opts --float_support=softlib --hll_source=on --mem_model:code=flat --mem_model:data=large -
       6        0002  FP      .set    XAR2
       7              
       8              $C$DW$CU        .dwtag  DW_TAG_compile_unit
       9                      .dwattr $C$DW$CU, DW_AT_name("C:/ti/motorware/motorware_1_01_00_18/sw/solutions/instaspin_foc/src/pro
      10                      .dwattr $C$DW$CU, DW_AT_producer("TMS320C2000 C/C++ Codegen PC v6.2.5 Copyright (c) 1996-2014 Texas I
      11                      .dwattr $C$DW$CU, DW_AT_TI_version(0x01)
      12                      .dwattr $C$DW$CU, DW_AT_comp_dir("C:\ti\motorware\motorware_1_01_00_18\sw\solutions\instaspin_foc\boa
      13              ;**************************************************************
      14              ;* CINIT RECORDS                                              *
      15              ;**************************************************************
      16 00000000               .sect   ".cinit"
      17                      .align  1
      18 00000000 FFFF          .field          -1,16
      19 00000001 0000-         .field          _Flag_Latch_softwareUpdate+0,32
         00000002 0000 
      20 00000003 0001          .bits   1,16                    ; _Flag_Latch_softwareUpdate @ 0
      21              
      22 00000004               .sect   ".cinit"
      23                      .align  1
      24 00000004 FFFF          .field          -1,16
      25 00000005 0001-         .field          _gCounter_updateGlobals+0,32
         00000006 0000 
      26 00000007 0000          .bits   0,16                    ; _gCounter_updateGlobals @ 0
      27              
      28 00000008               .sect   ".cinit"
      29                      .align  1
      30 00000008 FFFF          .field          -1,16
      31 00000009 0002-         .field          _gLEDcnt+0,32
         0000000a 0000 
      32 0000000b 0000          .bits   0,16                    ; _gLEDcnt @ 0
      33              
      34 0000000c               .sect   ".cinit"
      35                      .align  1
      36 0000000c FFFE          .field          -2,16
      37 0000000d 000E-         .field          _gMaxCurrentSlope+0,32
         0000000e 0000 
      38 0000000f 0000          .bits   0,32                    ; _gMaxCurrentSlope @ 0
         00000010 0000 
      39              
      40 00000011               .sect   ".cinit"
      41                      .align  1
      42 00000011 FFFA          .field          -$C$IR_1,16
      43 00000012 0012-         .field          _gPwmData+0,32
         00000013 0000 
      44 00000014 0000          .bits   0,32                    ; _gPwmData._Tabc._value[0] @ 0
         00000015 0000 
      45 00000016 0000          .bits   0,32                    ; _gPwmData._Tabc._value[1] @ 32
         00000017 0000 
      46 00000018 0000          .bits   0,32                    ; _gPwmData._Tabc._value[2] @ 64
         00000019 0000 
TMS320C2000 Assembler PC v6.2.5 Wed Jun 21 14:56:42 2017

Tools Copyright (c) 1996-2014 Texas Instruments Incorporated
C:\Users\wmj\AppData\Local\Temp\0692810                              PAGE    2

      47        0006  $C$IR_1:        .set    6
      48              
      49 0000001a               .sect   ".cinit"
      50                      .align  1
      51 0000001a FFF4          .field          -$C$IR_2,16
      52 0000001b 0018-         .field          _gStepVars+0,32
         0000001c 0000 
      53 0000001d 0000          .bits   0,16                    ; _gStepVars._StepResponse @ 0
      54 0000001e               .space  16
      55 0000001f 0000          .bits   8388608,32                      ; _gStepVars._step_trigger @ 32
         00000020 0080 
      56 00000021 0000          .bits   8388608,32                      ; _gStepVars._spdRef_Default @ 64
         00000022 0080 
      57 00000023 0000          .bits   8388608,32                      ; _gStepVars._spdRef_StepSize @ 96
         00000024 0080 
      58 00000025 0000          .bits   0,32                    ; _gStepVars._IdRef_Default @ 128
         00000026 0000 
      59 00000027 0000          .bits   -8388608,32                     ; _gStepVars._IdRef_StepSize @ 160
         00000028 FF80 
      60        000C  $C$IR_2:        .set    12
      61              
      62 00000029               .sect   ".cinit"
      63                      .align  1
      64 00000029 FF80          .field          -$C$IR_3,16
      65 0000002a 0040-         .field          _gMotorVars+0,32
         0000002b 0000 
      66 0000002c 0000          .bits   0,16                    ; _gMotorVars._Flag_enableSys @ 0
      67 0000002d 0000          .bits   0,16                    ; _gMotorVars._Flag_Run_Identify @ 16
      68 0000002e 0000          .bits   0,16                    ; _gMotorVars._Flag_MotorIdentified @ 32
      69 0000002f 0001          .bits   1,16                    ; _gMotorVars._Flag_enableForceAngle @ 48
      70 00000030 0000          .bits   0,16                    ; _gMotorVars._Flag_enableFieldWeakening @ 64
      71 00000031 0000          .bits   0,16                    ; _gMotorVars._Flag_enableRsRecalc @ 80
      72 00000032 0001          .bits   1,16                    ; _gMotorVars._Flag_enableUserParams @ 96
      73 00000033 0001          .bits   1,16                    ; _gMotorVars._Flag_enableOffsetcalc @ 112
      74 00000034 0000          .bits   0,16                    ; _gMotorVars._Flag_enablePowerWarp @ 128
      75 00000035 0000          .bits   0,16                    ; _gMotorVars._Flag_enableSpeedCtrl @ 144
      76 00000036 0000          .bits   0,16                    ; _gMotorVars._Flag_enableRun @ 160
      77 00000037 0000          .bits   0,16                    ; _gMotorVars._Flag_RunState @ 176
      78 00000038 0000          .bits   0,16                    ; _gMotorVars._Flag_enableFlyingStart @ 192
      79 00000039 0001          .bits   1,16                    ; _gMotorVars._CtrlState @ 208
      80 0000003a 0001          .bits   1,16                    ; _gMotorVars._EstState @ 224
      81 0000003b 0000          .bits   0,16                    ; _gMotorVars._UserErrorCode @ 240
      82 0000003c 0000          .bits   0,16                    ; _gMotorVars._CtrlVersion._rsvd @ 256
      83 0000003d 0004          .bits   4,16                    ; _gMotorVars._CtrlVersion._targetProc @ 272
      84 0000003e 0000          .bits   0,16                    ; _gMotorVars._CtrlVersion._major @ 288
      85 0000003f 0000          .bits   0,16                    ; _gMotorVars._CtrlVersion._minor @ 304
      86 00000040 0000          .bits   0,32                    ; _gMotorVars._IdRef_A @ 320
         00000041 0000 
      87 00000042 0000          .bits   0,32                    ; _gMotorVars._IqRef_A @ 352
         00000043 0000 
      88 00000044 0000          .bits   0,32                    ; _gMotorVars._SpeedRef_pu @ 384
         00000045 0000 
      89 00000046 9999          .bits   1677721,32                      ; _gMotorVars._SpeedRef_krpm @ 416
         00000047 0019 
      90 00000048 0000          .bits   0,32                    ; _gMotorVars._SpeedTraj_krpm @ 448
TMS320C2000 Assembler PC v6.2.5 Wed Jun 21 14:56:42 2017

Tools Copyright (c) 1996-2014 Texas Instruments Incorporated
C:\Users\wmj\AppData\Local\Temp\0692810                              PAGE    3

         00000049 0000 
      91 0000004a 3333          .bits   3355443,32                      ; _gMotorVars._MaxAccel_krpmps @ 480
         0000004b 0033 
      92 0000004c 0000          .bits   0,32                    ; _gMotorVars._Speed_krpm @ 512
         0000004d 0000 
      93 0000004e 0000          .bits   8388608,32                      ; _gMotorVars._OverModulation @ 544
         0000004f 0080 
      94 00000050 3333          .bits   5452595,32                      ; _gMotorVars._RsOnLineCurrent_A @ 576
         00000051 0053 
      95 00000052 0190          .bits   400,32                  ; _gMotorVars._SvgenMaxModulation_ticks @ 608
         00000053 0000 
      96 00000054 0000          .bits   0,32                    ; _gMotorVars._Flux_Wb @ 640
         00000055 0000 
      97 00000056 0000          .bits   0,32                    ; _gMotorVars._Torque_Nm @ 672
         00000057 0000 
      98 00000058 0000          .xfloat $strtod("0x0p+0")               ; _gMotorVars._MagnCurr_A @ 704
         00000059 0000 
      99 0000005a 0000          .xfloat $strtod("0x0p+0")               ; _gMotorVars._Rr_Ohm @ 736
         0000005b 0000 
     100 0000005c 0000          .xfloat $strtod("0x0p+0")               ; _gMotorVars._Rs_Ohm @ 768
         0000005d 0000 
     101 0000005e 0000          .xfloat $strtod("0x0p+0")               ; _gMotorVars._RsOnLine_Ohm @ 800
         0000005f 0000 
     102 00000060 0000          .xfloat $strtod("0x0p+0")               ; _gMotorVars._Lsd_H @ 832
         00000061 0000 
     103 00000062 0000          .xfloat $strtod("0x0p+0")               ; _gMotorVars._Lsq_H @ 864
         00000063 0000 
     104 00000064 0000          .xfloat $strtod("0x0p+0")               ; _gMotorVars._Flux_VpHz @ 896
         00000065 0000 
     105 00000066 0000          .xfloat $strtod("0x0p+0")               ; _gMotorVars._ipd_excFreq_Hz @ 928
         00000067 0000 
     106 00000068 0000          .bits   0,32                    ; _gMotorVars._ipd_Kspd @ 960
         00000069 0000 
     107 0000006a 0000          .bits   0,32                    ; _gMotorVars._ipd_excMag_coarse_pu @ 992
         0000006b 0000 
     108 0000006c 0000          .bits   0,32                    ; _gMotorVars._ipd_excMag_fine_pu @ 1024
         0000006d 0000 
     109 0000006e 0000          .xfloat $strtod("0x0p+0")               ; _gMotorVars._ipd_waitTime_coarse_sec @ 1056
         0000006f 0000 
     110 00000070 0000          .xfloat $strtod("0x0p+0")               ; _gMotorVars._ipd_waitTime_fine_sec @ 1088
         00000071 0000 
     111 00000072 0000          .bits   0,32                    ; _gMotorVars._Kp_spd @ 1120
         00000073 0000 
     112 00000074 0000          .bits   0,32                    ; _gMotorVars._Ki_spd @ 1152
         00000075 0000 
     113 00000076 0000          .bits   0,32                    ; _gMotorVars._Kp_Idq @ 1184
         00000077 0000 
     114 00000078 0000          .bits   0,32                    ; _gMotorVars._Ki_Idq @ 1216
         00000079 0000 
     115 0000007a 0000          .bits   0,32                    ; _gMotorVars._Vd @ 1248
         0000007b 0000 
     116 0000007c 0000          .bits   0,32                    ; _gMotorVars._Vq @ 1280
         0000007d 0000 
     117 0000007e 0000          .bits   0,32                    ; _gMotorVars._Vs @ 1312
         0000007f 0000 
TMS320C2000 Assembler PC v6.2.5 Wed Jun 21 14:56:42 2017

Tools Copyright (c) 1996-2014 Texas Instruments Incorporated
C:\Users\wmj\AppData\Local\Temp\0692810                              PAGE    4

     118 00000080 6666          .bits   6710886,32                      ; _gMotorVars._VsRef @ 1344
         00000081 0066 
     119 00000082 0000          .bits   0,32                    ; _gMotorVars._VdcBus_kV @ 1376
         00000083 0000 
     120 00000084 0000          .bits   0,32                    ; _gMotorVars._Id_A @ 1408
         00000085 0000 
     121 00000086 0000          .bits   0,32                    ; _gMotorVars._Iq_A @ 1440
         00000087 0000 
     122 00000088 0000          .bits   0,32                    ; _gMotorVars._Is_A @ 1472
         00000089 0000 
     123 0000008a 0000          .bits   0,32                    ; _gMotorVars._I_bias._value[0] @ 1504
         0000008b 0000 
     124 0000008c 0000          .bits   0,32                    ; _gMotorVars._I_bias._value[1] @ 1536
         0000008d 0000 
     125 0000008e 0000          .bits   0,32                    ; _gMotorVars._I_bias._value[2] @ 1568
         0000008f 0000 
     126 00000090 0000          .bits   0,32                    ; _gMotorVars._V_bias._value[0] @ 1600
         00000091 0000 
     127 00000092 0000          .bits   0,32                    ; _gMotorVars._V_bias._value[1] @ 1632
         00000093 0000 
     128 00000094 0000          .bits   0,32                    ; _gMotorVars._V_bias._value[2] @ 1664
         00000095 0000 
     129 00000096 999A          .bits   10066330,32                     ; _gMotorVars._SpeedSet_krpm @ 1696
         00000097 0099 
     130 00000098 0000          .bits   0,32                    ; _gMotorVars._angle_sen_pu @ 1728
         00000099 0000 
     131 0000009a 0000          .bits   0,32                    ; _gMotorVars._angle_est_pu @ 1760
         0000009b 0000 
     132 0000009c 0000          .bits   0,32                    ; _gMotorVars._speed_sen_pu @ 1792
         0000009d 0000 
     133 0000009e 0000          .bits   0,32                    ; _gMotorVars._speed_est_pu @ 1824
         0000009f 0000 
     134 000000a0 0000          .bits   0,32                    ; _gMotorVars._speedHigh_hall2fast_pu @ 1856
         000000a1 0000 
     135 000000a2 0000          .bits   0,32                    ; _gMotorVars._speedLow_hall2fast_pu @ 1888
         000000a3 0000 
     136 000000a4 0000          .bits   0,32                    ; _gMotorVars._IdSet_A @ 1920
         000000a5 0000 
     137 000000a6 0000          .bits   0,32                    ; _gMotorVars._IqSet_A @ 1952
         000000a7 0000 
     138 000000a8 0000          .bits   0,32                    ; _gMotorVars._IdRef_pu @ 1984
         000000a9 0000 
     139 000000aa 0000          .bits   0,32                    ; _gMotorVars._IqRef_pu @ 2016
         000000ab 0000 
     140        0080  $C$IR_3:        .set    128
     141              
     142 000000ac               .sect   ".cinit"
     143                      .align  1
     144 000000ac FFF2          .field          -$C$IR_4,16
     145 000000ad 0000-         .field          _gGraphVars+0,32
         000000ae 0000 
     146 000000af 0000          .bits   0,32                    ; _gGraphVars._Buffer_reset @ 0
         000000b0 0000 
     147 000000b1 0000          .bits   0,32                    ; _gGraphVars._Buffer_counter @ 32
         000000b2 0000 
TMS320C2000 Assembler PC v6.2.5 Wed Jun 21 14:56:42 2017

Tools Copyright (c) 1996-2014 Texas Instruments Incorporated
C:\Users\wmj\AppData\Local\Temp\0692810                              PAGE    5

     148 000000b3 0000          .bits   0,32                    ; _gGraphVars._Buffer_tick_counter @ 64
         000000b4 0000 
     149 000000b5 0001          .bits   1,32                    ; _gGraphVars._Buffer_tick @ 96
         000000b6 0000 
     150 000000b7 0001          .bits   1,32                    ; _gGraphVars._Buffer_mode @ 128
         000000b8 0000 
     151 000000b9 0000          .bits   0,16                    ; _gGraphVars._Buffer_reset_wait @ 160
     152 000000ba               .space  16
     153 000000bb 0000          .bits   0,32                    ; _gGraphVars._Buffer_previous @ 192
         000000bc 0000 
     154        000E  $C$IR_4:        .set    14
     155              
     156              
     157              $C$DW$1 .dwtag  DW_TAG_subprogram, DW_AT_name("CTRL_setParams")
     158                      .dwattr $C$DW$1, DW_AT_TI_symbol_name("_CTRL_setParams")
     159                      .dwattr $C$DW$1, DW_AT_declaration
     160                      .dwattr $C$DW$1, DW_AT_external
     161              $C$DW$2 .dwtag  DW_TAG_formal_parameter
     162                      .dwattr $C$DW$2, DW_AT_type(*$C$DW$T$167)
     163              $C$DW$3 .dwtag  DW_TAG_formal_parameter
     164                      .dwattr $C$DW$3, DW_AT_type(*$C$DW$T$173)
     165                      .dwendtag $C$DW$1
     166              
     167              
     168              $C$DW$4 .dwtag  DW_TAG_subprogram, DW_AT_name("CTRL_setSpd_ref_krpm")
     169                      .dwattr $C$DW$4, DW_AT_TI_symbol_name("_CTRL_setSpd_ref_krpm")
     170                      .dwattr $C$DW$4, DW_AT_declaration
     171                      .dwattr $C$DW$4, DW_AT_external
     172              $C$DW$5 .dwtag  DW_TAG_formal_parameter
     173                      .dwattr $C$DW$5, DW_AT_type(*$C$DW$T$167)
     174              $C$DW$6 .dwtag  DW_TAG_formal_parameter
     175                      .dwattr $C$DW$6, DW_AT_type(*$C$DW$T$259)
     176                      .dwendtag $C$DW$4
     177              
     178              
     179              $C$DW$7 .dwtag  DW_TAG_subprogram, DW_AT_name("CTRL_setup")
     180                      .dwattr $C$DW$7, DW_AT_TI_symbol_name("_CTRL_setup")
     181                      .dwattr $C$DW$7, DW_AT_declaration
     182                      .dwattr $C$DW$7, DW_AT_external
     183              $C$DW$8 .dwtag  DW_TAG_formal_parameter
     184                      .dwattr $C$DW$8, DW_AT_type(*$C$DW$T$167)
     185                      .dwendtag $C$DW$7
     186              
     187              
     188              $C$DW$9 .dwtag  DW_TAG_subprogram, DW_AT_name("CTRL_run")
     189                      .dwattr $C$DW$9, DW_AT_TI_symbol_name("_CTRL_run")
     190                      .dwattr $C$DW$9, DW_AT_declaration
     191                      .dwattr $C$DW$9, DW_AT_external
     192              $C$DW$10        .dwtag  DW_TAG_formal_parameter
     193                      .dwattr $C$DW$10, DW_AT_type(*$C$DW$T$167)
     194              $C$DW$11        .dwtag  DW_TAG_formal_parameter
     195                      .dwattr $C$DW$11, DW_AT_type(*$C$DW$T$223)
     196              $C$DW$12        .dwtag  DW_TAG_formal_parameter
     197                      .dwattr $C$DW$12, DW_AT_type(*$C$DW$T$217)
     198              $C$DW$13        .dwtag  DW_TAG_formal_parameter
TMS320C2000 Assembler PC v6.2.5 Wed Jun 21 14:56:42 2017

Tools Copyright (c) 1996-2014 Texas Instruments Incorporated
C:\Users\wmj\AppData\Local\Temp\0692810                              PAGE    6

     199                      .dwattr $C$DW$13, DW_AT_type(*$C$DW$T$228)
     200                      .dwendtag $C$DW$9
     201              
     202              
     203              $C$DW$14        .dwtag  DW_TAG_subprogram, DW_AT_name("CTRL_getVersion")
     204                      .dwattr $C$DW$14, DW_AT_TI_symbol_name("_CTRL_getVersion")
     205                      .dwattr $C$DW$14, DW_AT_declaration
     206                      .dwattr $C$DW$14, DW_AT_external
     207              $C$DW$15        .dwtag  DW_TAG_formal_parameter
     208                      .dwattr $C$DW$15, DW_AT_type(*$C$DW$T$167)
     209              $C$DW$16        .dwtag  DW_TAG_formal_parameter
     210                      .dwattr $C$DW$16, DW_AT_type(*$C$DW$T$206)
     211                      .dwendtag $C$DW$14
     212              
     213              
     214              $C$DW$17        .dwtag  DW_TAG_subprogram, DW_AT_name("GRAPH_DATA")
     215                      .dwattr $C$DW$17, DW_AT_TI_symbol_name("_GRAPH_DATA")
     216                      .dwattr $C$DW$17, DW_AT_declaration
     217                      .dwattr $C$DW$17, DW_AT_external
     218              $C$DW$18        .dwtag  DW_TAG_formal_parameter
     219                      .dwattr $C$DW$18, DW_AT_type(*$C$DW$T$211)
     220              $C$DW$19        .dwtag  DW_TAG_formal_parameter
     221                      .dwattr $C$DW$19, DW_AT_type(*$C$DW$T$167)
     222              $C$DW$20        .dwtag  DW_TAG_formal_parameter
     223                      .dwattr $C$DW$20, DW_AT_type(*$C$DW$T$232)
     224              $C$DW$21        .dwtag  DW_TAG_formal_parameter
     225                      .dwattr $C$DW$21, DW_AT_type(*$C$DW$T$22)
     226                      .dwendtag $C$DW$17
     227              
     228              
     229              $C$DW$22        .dwtag  DW_TAG_subprogram, DW_AT_name("HAL_setParams")
     230                      .dwattr $C$DW$22, DW_AT_TI_symbol_name("_HAL_setParams")
     231                      .dwattr $C$DW$22, DW_AT_declaration
     232                      .dwattr $C$DW$22, DW_AT_external
     233              $C$DW$23        .dwtag  DW_TAG_formal_parameter
     234                      .dwattr $C$DW$23, DW_AT_type(*$C$DW$T$223)
     235              $C$DW$24        .dwtag  DW_TAG_formal_parameter
     236                      .dwattr $C$DW$24, DW_AT_type(*$C$DW$T$250)
     237                      .dwendtag $C$DW$22
     238              
     239              
     240              $C$DW$25        .dwtag  DW_TAG_subprogram, DW_AT_name("HAL_setupFaults")
     241                      .dwattr $C$DW$25, DW_AT_TI_symbol_name("_HAL_setupFaults")
     242                      .dwattr $C$DW$25, DW_AT_declaration
     243                      .dwattr $C$DW$25, DW_AT_external
     244              $C$DW$26        .dwtag  DW_TAG_formal_parameter
     245                      .dwattr $C$DW$26, DW_AT_type(*$C$DW$T$223)
     246                      .dwendtag $C$DW$25
     247              
     248              
     249              $C$DW$27        .dwtag  DW_TAG_subprogram, DW_AT_name("HAL_enableDebugInt")
     250                      .dwattr $C$DW$27, DW_AT_TI_symbol_name("_HAL_enableDebugInt")
     251                      .dwattr $C$DW$27, DW_AT_declaration
     252                      .dwattr $C$DW$27, DW_AT_external
     253              $C$DW$28        .dwtag  DW_TAG_formal_parameter
TMS320C2000 Assembler PC v6.2.5 Wed Jun 21 14:56:42 2017

Tools Copyright (c) 1996-2014 Texas Instruments Incorporated
C:\Users\wmj\AppData\Local\Temp\0692810                              PAGE    7

     254                      .dwattr $C$DW$28, DW_AT_type(*$C$DW$T$223)
     255                      .dwendtag $C$DW$27
     256              
     257              
     258              $C$DW$29        .dwtag  DW_TAG_subprogram, DW_AT_name("HAL_enableGlobalInts")
     259                      .dwattr $C$DW$29, DW_AT_TI_symbol_name("_HAL_enableGlobalInts")
     260                      .dwattr $C$DW$29, DW_AT_declaration
     261                      .dwattr $C$DW$29, DW_AT_external
     262              $C$DW$30        .dwtag  DW_TAG_formal_parameter
     263                      .dwattr $C$DW$30, DW_AT_type(*$C$DW$T$223)
     264                      .dwendtag $C$DW$29
     265              
     266              
     267              $C$DW$31        .dwtag  DW_TAG_subprogram, DW_AT_name("HAL_enableAdcInts")
     268                      .dwattr $C$DW$31, DW_AT_TI_symbol_name("_HAL_enableAdcInts")
     269                      .dwattr $C$DW$31, DW_AT_declaration
     270                      .dwattr $C$DW$31, DW_AT_external
     271              $C$DW$32        .dwtag  DW_TAG_formal_parameter
     272                      .dwattr $C$DW$32, DW_AT_type(*$C$DW$T$223)
     273                      .dwendtag $C$DW$31
     274              
     275              
     276              $C$DW$33        .dwtag  DW_TAG_subprogram, DW_AT_name("EST_setFlag_enableForceAngle")
     277                      .dwattr $C$DW$33, DW_AT_TI_symbol_name("_EST_setFlag_enableForceAngle")
     278                      .dwattr $C$DW$33, DW_AT_declaration
     279                      .dwattr $C$DW$33, DW_AT_external
     280              $C$DW$34        .dwtag  DW_TAG_formal_parameter
     281                      .dwattr $C$DW$34, DW_AT_type(*$C$DW$T$49)
     282              $C$DW$35        .dwtag  DW_TAG_formal_parameter
     283                      .dwattr $C$DW$35, DW_AT_type(*$C$DW$T$256)
     284                      .dwendtag $C$DW$33
     285              
     286              
     287              $C$DW$36        .dwtag  DW_TAG_subprogram, DW_AT_name("EST_setFlag_enableRsRecalc")
     288                      .dwattr $C$DW$36, DW_AT_TI_symbol_name("_EST_setFlag_enableRsRecalc")
     289                      .dwattr $C$DW$36, DW_AT_declaration
     290                      .dwattr $C$DW$36, DW_AT_external
     291              $C$DW$37        .dwtag  DW_TAG_formal_parameter
     292                      .dwattr $C$DW$37, DW_AT_type(*$C$DW$T$49)
     293              $C$DW$38        .dwtag  DW_TAG_formal_parameter
     294                      .dwattr $C$DW$38, DW_AT_type(*$C$DW$T$256)
     295                      .dwendtag $C$DW$36
     296              
     297              
     298              $C$DW$39        .dwtag  DW_TAG_subprogram, DW_AT_name("EST_setMaxCurrentSlope_pu")
     299                      .dwattr $C$DW$39, DW_AT_TI_symbol_name("_EST_setMaxCurrentSlope_pu")
     300                      .dwattr $C$DW$39, DW_AT_declaration
     301                      .dwattr $C$DW$39, DW_AT_external
     302              $C$DW$40        .dwtag  DW_TAG_formal_parameter
     303                      .dwattr $C$DW$40, DW_AT_type(*$C$DW$T$49)
     304              $C$DW$41        .dwtag  DW_TAG_formal_parameter
     305                      .dwattr $C$DW$41, DW_AT_type(*$C$DW$T$259)
     306                      .dwendtag $C$DW$39
     307              
     308              
TMS320C2000 Assembler PC v6.2.5 Wed Jun 21 14:56:42 2017

Tools Copyright (c) 1996-2014 Texas Instruments Incorporated
C:\Users\wmj\AppData\Local\Temp\0692810                              PAGE    8

     309              $C$DW$42        .dwtag  DW_TAG_subprogram, DW_AT_name("USER_checkForErrors")
     310                      .dwattr $C$DW$42, DW_AT_TI_symbol_name("_USER_checkForErrors")
     311                      .dwattr $C$DW$42, DW_AT_declaration
     312                      .dwattr $C$DW$42, DW_AT_external
     313              $C$DW$43        .dwtag  DW_TAG_formal_parameter
     314                      .dwattr $C$DW$43, DW_AT_type(*$C$DW$T$173)
     315                      .dwendtag $C$DW$42
     316              
     317              
     318              $C$DW$44        .dwtag  DW_TAG_subprogram, DW_AT_name("memCopy")
     319                      .dwattr $C$DW$44, DW_AT_TI_symbol_name("_memCopy")
     320                      .dwattr $C$DW$44, DW_AT_declaration
     321                      .dwattr $C$DW$44, DW_AT_external
     322              $C$DW$45        .dwtag  DW_TAG_formal_parameter
     323                      .dwattr $C$DW$45, DW_AT_type(*$C$DW$T$253)
     324              $C$DW$46        .dwtag  DW_TAG_formal_parameter
     325                      .dwattr $C$DW$46, DW_AT_type(*$C$DW$T$253)
     326              $C$DW$47        .dwtag  DW_TAG_formal_parameter
     327                      .dwattr $C$DW$47, DW_AT_type(*$C$DW$T$253)
     328                      .dwendtag $C$DW$44
     329              
     330              
     331              $C$DW$48        .dwtag  DW_TAG_subprogram, DW_AT_name("USER_softwareUpdate1p6")
     332                      .dwattr $C$DW$48, DW_AT_TI_symbol_name("_USER_softwareUpdate1p6")
     333                      .dwattr $C$DW$48, DW_AT_declaration
     334                      .dwattr $C$DW$48, DW_AT_external
     335              $C$DW$49        .dwtag  DW_TAG_formal_parameter
     336                      .dwattr $C$DW$49, DW_AT_type(*$C$DW$T$167)
     337                      .dwendtag $C$DW$48
     338              
     339              
     340              $C$DW$50        .dwtag  DW_TAG_subprogram, DW_AT_name("USER_calcPIgains")
     341                      .dwattr $C$DW$50, DW_AT_TI_symbol_name("_USER_calcPIgains")
     342                      .dwattr $C$DW$50, DW_AT_declaration
     343                      .dwattr $C$DW$50, DW_AT_external
     344              $C$DW$51        .dwtag  DW_TAG_formal_parameter
     345                      .dwattr $C$DW$51, DW_AT_type(*$C$DW$T$167)
     346                      .dwendtag $C$DW$50
     347              
     348              
     349              $C$DW$52        .dwtag  DW_TAG_subprogram, DW_AT_name("USER_setParams")
     350                      .dwattr $C$DW$52, DW_AT_TI_symbol_name("_USER_setParams")
     351                      .dwattr $C$DW$52, DW_AT_declaration
     352                      .dwattr $C$DW$52, DW_AT_external
     353              $C$DW$53        .dwtag  DW_TAG_formal_parameter
     354                      .dwattr $C$DW$53, DW_AT_type(*$C$DW$T$173)
     355                      .dwendtag $C$DW$52
     356              
     357              
     358              $C$DW$54        .dwtag  DW_TAG_subprogram, DW_AT_name("GPIO_toggle")
     359                      .dwattr $C$DW$54, DW_AT_TI_symbol_name("_GPIO_toggle")
     360                      .dwattr $C$DW$54, DW_AT_declaration
     361                      .dwattr $C$DW$54, DW_AT_external
     362              $C$DW$55        .dwtag  DW_TAG_formal_parameter
     363                      .dwattr $C$DW$55, DW_AT_type(*$C$DW$T$97)
TMS320C2000 Assembler PC v6.2.5 Wed Jun 21 14:56:42 2017

Tools Copyright (c) 1996-2014 Texas Instruments Incorporated
C:\Users\wmj\AppData\Local\Temp\0692810                              PAGE    9

     364              $C$DW$56        .dwtag  DW_TAG_formal_parameter
     365                      .dwattr $C$DW$56, DW_AT_type(*$C$DW$T$185)
     366                      .dwendtag $C$DW$54
     367              
     368              
     369              $C$DW$57        .dwtag  DW_TAG_subprogram, DW_AT_name("HAL_I2c_Pca9555_WrData")
     370                      .dwattr $C$DW$57, DW_AT_TI_symbol_name("_HAL_I2c_Pca9555_WrData")
     371                      .dwattr $C$DW$57, DW_AT_type(*$C$DW$T$10)
     372                      .dwattr $C$DW$57, DW_AT_declaration
     373                      .dwattr $C$DW$57, DW_AT_external
     374              
     375              $C$DW$58        .dwtag  DW_TAG_subprogram, DW_AT_name("EST_getState")
     376                      .dwattr $C$DW$58, DW_AT_TI_symbol_name("_EST_getState")
     377                      .dwattr $C$DW$58, DW_AT_type(*$C$DW$T$131)
     378                      .dwattr $C$DW$58, DW_AT_declaration
     379                      .dwattr $C$DW$58, DW_AT_external
     380              $C$DW$59        .dwtag  DW_TAG_formal_parameter
     381                      .dwattr $C$DW$59, DW_AT_type(*$C$DW$T$49)
     382                      .dwendtag $C$DW$58
     383              
     384                      .global _Flag_Latch_softwareUpdate
     385 00000000       _Flag_Latch_softwareUpdate:     .usect  ".ebss",1,1,0
     386              $C$DW$60        .dwtag  DW_TAG_variable, DW_AT_name("Flag_Latch_softwareUpdate")
     387                      .dwattr $C$DW$60, DW_AT_TI_symbol_name("_Flag_Latch_softwareUpdate")
     388                      .dwattr $C$DW$60, DW_AT_location[DW_OP_addr _Flag_Latch_softwareUpdate]
     389                      .dwattr $C$DW$60, DW_AT_type(*$C$DW$T$72)
     390                      .dwattr $C$DW$60, DW_AT_external
     391                      .global _gCounter_updateGlobals
     392 00000001       _gCounter_updateGlobals:        .usect  ".ebss",1,1,0
     393              $C$DW$61        .dwtag  DW_TAG_variable, DW_AT_name("gCounter_updateGlobals")
     394                      .dwattr $C$DW$61, DW_AT_TI_symbol_name("_gCounter_updateGlobals")
     395                      .dwattr $C$DW$61, DW_AT_location[DW_OP_addr _gCounter_updateGlobals]
     396                      .dwattr $C$DW$61, DW_AT_type(*$C$DW$T$69)
     397                      .dwattr $C$DW$61, DW_AT_external
     398              
     399              $C$DW$62        .dwtag  DW_TAG_subprogram, DW_AT_name("EST_isMotorIdentified")
     400                      .dwattr $C$DW$62, DW_AT_TI_symbol_name("_EST_isMotorIdentified")
     401                      .dwattr $C$DW$62, DW_AT_type(*$C$DW$T$72)
     402                      .dwattr $C$DW$62, DW_AT_declaration
     403                      .dwattr $C$DW$62, DW_AT_external
     404              $C$DW$63        .dwtag  DW_TAG_formal_parameter
     405                      .dwattr $C$DW$63, DW_AT_type(*$C$DW$T$49)
     406                      .dwendtag $C$DW$62
     407              
     408              
     409              $C$DW$64        .dwtag  DW_TAG_subprogram, DW_AT_name("CTRL_updateState")
     410                      .dwattr $C$DW$64, DW_AT_TI_symbol_name("_CTRL_updateState")
     411                      .dwattr $C$DW$64, DW_AT_type(*$C$DW$T$72)
     412                      .dwattr $C$DW$64, DW_AT_declaration
     413                      .dwattr $C$DW$64, DW_AT_external
     414              $C$DW$65        .dwtag  DW_TAG_formal_parameter
     415                      .dwattr $C$DW$65, DW_AT_type(*$C$DW$T$167)
     416                      .dwendtag $C$DW$64
     417              
     418                      .global _gLEDcnt
TMS320C2000 Assembler PC v6.2.5 Wed Jun 21 14:56:42 2017

Tools Copyright (c) 1996-2014 Texas Instruments Incorporated
C:\Users\wmj\AppData\Local\Temp\0692810                              PAGE   10

     419 00000002       _gLEDcnt:       .usect  ".ebss",1,1,0
     420              $C$DW$66        .dwtag  DW_TAG_variable, DW_AT_name("gLEDcnt")
     421                      .dwattr $C$DW$66, DW_AT_TI_symbol_name("_gLEDcnt")
     422                      .dwattr $C$DW$66, DW_AT_location[DW_OP_addr _gLEDcnt]
     423                      .dwattr $C$DW$66, DW_AT_type(*$C$DW$T$22)
     424                      .dwattr $C$DW$66, DW_AT_external
     425              
     426              $C$DW$67        .dwtag  DW_TAG_subprogram, DW_AT_name("USER_getErrorCode")
     427                      .dwattr $C$DW$67, DW_AT_TI_symbol_name("_USER_getErrorCode")
     428                      .dwattr $C$DW$67, DW_AT_type(*$C$DW$T$133)
     429                      .dwattr $C$DW$67, DW_AT_declaration
     430                      .dwattr $C$DW$67, DW_AT_external
     431              $C$DW$68        .dwtag  DW_TAG_formal_parameter
     432                      .dwattr $C$DW$68, DW_AT_type(*$C$DW$T$173)
     433                      .dwendtag $C$DW$67
     434              
     435              
     436              $C$DW$69        .dwtag  DW_TAG_subprogram, DW_AT_name("__IQsat")
     437                      .dwattr $C$DW$69, DW_AT_TI_symbol_name("___IQsat")
     438                      .dwattr $C$DW$69, DW_AT_type(*$C$DW$T$12)
     439                      .dwattr $C$DW$69, DW_AT_declaration
     440                      .dwattr $C$DW$69, DW_AT_external
     441              $C$DW$70        .dwtag  DW_TAG_formal_parameter
     442                      .dwattr $C$DW$70, DW_AT_type(*$C$DW$T$12)
     443              $C$DW$71        .dwtag  DW_TAG_formal_parameter
     444                      .dwattr $C$DW$71, DW_AT_type(*$C$DW$T$12)
     445              $C$DW$72        .dwtag  DW_TAG_formal_parameter
     446                      .dwattr $C$DW$72, DW_AT_type(*$C$DW$T$12)
     447                      .dwendtag $C$DW$69
     448              
     449              
     450              $C$DW$73        .dwtag  DW_TAG_subprogram, DW_AT_name("_IQ24sqrt")
     451                      .dwattr $C$DW$73, DW_AT_TI_symbol_name("__IQ24sqrt")
     452                      .dwattr $C$DW$73, DW_AT_type(*$C$DW$T$12)
     453                      .dwattr $C$DW$73, DW_AT_declaration
     454                      .dwattr $C$DW$73, DW_AT_external
     455              $C$DW$74        .dwtag  DW_TAG_formal_parameter
     456                      .dwattr $C$DW$74, DW_AT_type(*$C$DW$T$12)
     457                      .dwendtag $C$DW$73
     458              
     459              
     460              $C$DW$75        .dwtag  DW_TAG_subprogram, DW_AT_name("USER_computeTorque_Nm")
     461                      .dwattr $C$DW$75, DW_AT_TI_symbol_name("_USER_computeTorque_Nm")
     462                      .dwattr $C$DW$75, DW_AT_type(*$C$DW$T$31)
     463                      .dwattr $C$DW$75, DW_AT_declaration
     464                      .dwattr $C$DW$75, DW_AT_external
     465              $C$DW$76        .dwtag  DW_TAG_formal_parameter
     466                      .dwattr $C$DW$76, DW_AT_type(*$C$DW$T$167)
     467              $C$DW$77        .dwtag  DW_TAG_formal_parameter
     468                      .dwattr $C$DW$77, DW_AT_type(*$C$DW$T$259)
     469              $C$DW$78        .dwtag  DW_TAG_formal_parameter
     470                      .dwattr $C$DW$78, DW_AT_type(*$C$DW$T$259)
     471                      .dwendtag $C$DW$75
     472              
     473              
TMS320C2000 Assembler PC v6.2.5 Wed Jun 21 14:56:42 2017

Tools Copyright (c) 1996-2014 Texas Instruments Incorporated
C:\Users\wmj\AppData\Local\Temp\0692810                              PAGE   11

     474              $C$DW$79        .dwtag  DW_TAG_subprogram, DW_AT_name("__IQmpy")
     475                      .dwattr $C$DW$79, DW_AT_TI_symbol_name("___IQmpy")
     476                      .dwattr $C$DW$79, DW_AT_type(*$C$DW$T$12)
     477                      .dwattr $C$DW$79, DW_AT_declaration
     478                      .dwattr $C$DW$79, DW_AT_external
     479              $C$DW$80        .dwtag  DW_TAG_formal_parameter
     480                      .dwattr $C$DW$80, DW_AT_type(*$C$DW$T$12)
     481              $C$DW$81        .dwtag  DW_TAG_formal_parameter
     482                      .dwattr $C$DW$81, DW_AT_type(*$C$DW$T$12)
     483              $C$DW$82        .dwtag  DW_TAG_formal_parameter
     484                      .dwattr $C$DW$82, DW_AT_type(*$C$DW$T$10)
     485                      .dwendtag $C$DW$79
     486              
     487              
     488              $C$DW$83        .dwtag  DW_TAG_subprogram, DW_AT_name("EST_getIdRated")
     489                      .dwattr $C$DW$83, DW_AT_TI_symbol_name("_EST_getIdRated")
     490                      .dwattr $C$DW$83, DW_AT_type(*$C$DW$T$70)
     491                      .dwattr $C$DW$83, DW_AT_declaration
     492                      .dwattr $C$DW$83, DW_AT_external
     493              $C$DW$84        .dwtag  DW_TAG_formal_parameter
     494                      .dwattr $C$DW$84, DW_AT_type(*$C$DW$T$49)
     495                      .dwendtag $C$DW$83
     496              
     497              
     498              $C$DW$85        .dwtag  DW_TAG_subprogram, DW_AT_name("EST_getLs_d_H")
     499                      .dwattr $C$DW$85, DW_AT_TI_symbol_name("_EST_getLs_d_H")
     500                      .dwattr $C$DW$85, DW_AT_type(*$C$DW$T$70)
     501                      .dwattr $C$DW$85, DW_AT_declaration
     502                      .dwattr $C$DW$85, DW_AT_external
     503              $C$DW$86        .dwtag  DW_TAG_formal_parameter
     504                      .dwattr $C$DW$86, DW_AT_type(*$C$DW$T$49)
     505                      .dwendtag $C$DW$85
     506              
     507              
     508              $C$DW$87        .dwtag  DW_TAG_subprogram, DW_AT_name("EST_getFlux_VpHz")
     509                      .dwattr $C$DW$87, DW_AT_TI_symbol_name("_EST_getFlux_VpHz")
     510                      .dwattr $C$DW$87, DW_AT_type(*$C$DW$T$70)
     511                      .dwattr $C$DW$87, DW_AT_declaration
     512                      .dwattr $C$DW$87, DW_AT_external
     513              $C$DW$88        .dwtag  DW_TAG_formal_parameter
     514                      .dwattr $C$DW$88, DW_AT_type(*$C$DW$T$49)
     515                      .dwendtag $C$DW$87
     516              
     517              
     518              $C$DW$89        .dwtag  DW_TAG_subprogram, DW_AT_name("EST_get_pu_to_krpm_sf")
     519                      .dwattr $C$DW$89, DW_AT_TI_symbol_name("_EST_get_pu_to_krpm_sf")
     520                      .dwattr $C$DW$89, DW_AT_type(*$C$DW$T$31)
     521                      .dwattr $C$DW$89, DW_AT_declaration
     522                      .dwattr $C$DW$89, DW_AT_external
     523              $C$DW$90        .dwtag  DW_TAG_formal_parameter
     524                      .dwattr $C$DW$90, DW_AT_type(*$C$DW$T$49)
     525                      .dwendtag $C$DW$89
     526              
     527              $C$DW$91        .dwtag  DW_TAG_variable, DW_AT_name("RamfuncsRunStart")
     528                      .dwattr $C$DW$91, DW_AT_TI_symbol_name("_RamfuncsRunStart")
TMS320C2000 Assembler PC v6.2.5 Wed Jun 21 14:56:42 2017

Tools Copyright (c) 1996-2014 Texas Instruments Incorporated
C:\Users\wmj\AppData\Local\Temp\0692810                              PAGE   12

     529                      .dwattr $C$DW$91, DW_AT_type(*$C$DW$T$253)
     530                      .dwattr $C$DW$91, DW_AT_declaration
     531                      .dwattr $C$DW$91, DW_AT_external
     532              $C$DW$92        .dwtag  DW_TAG_variable, DW_AT_name("RamfuncsLoadEnd")
     533                      .dwattr $C$DW$92, DW_AT_TI_symbol_name("_RamfuncsLoadEnd")
     534                      .dwattr $C$DW$92, DW_AT_type(*$C$DW$T$253)
     535                      .dwattr $C$DW$92, DW_AT_declaration
     536                      .dwattr $C$DW$92, DW_AT_external
     537                      .global _gFlux_pu_to_Wb_sf
     538 00000004       _gFlux_pu_to_Wb_sf:     .usect  ".ebss",2,1,1
     539              $C$DW$93        .dwtag  DW_TAG_variable, DW_AT_name("gFlux_pu_to_Wb_sf")
     540                      .dwattr $C$DW$93, DW_AT_TI_symbol_name("_gFlux_pu_to_Wb_sf")
     541                      .dwattr $C$DW$93, DW_AT_location[DW_OP_addr _gFlux_pu_to_Wb_sf]
     542                      .dwattr $C$DW$93, DW_AT_type(*$C$DW$T$31)
     543                      .dwattr $C$DW$93, DW_AT_external
     544                      .global _gTorque_Ls_Id_Iq_pu_to_Nm_sf
     545 00000006       _gTorque_Ls_Id_Iq_pu_to_Nm_sf:  .usect  ".ebss",2,1,1
     546              $C$DW$94        .dwtag  DW_TAG_variable, DW_AT_name("gTorque_Ls_Id_Iq_pu_to_Nm_sf")
     547                      .dwattr $C$DW$94, DW_AT_TI_symbol_name("_gTorque_Ls_Id_Iq_pu_to_Nm_sf")
     548                      .dwattr $C$DW$94, DW_AT_location[DW_OP_addr _gTorque_Ls_Id_Iq_pu_to_Nm_sf]
     549                      .dwattr $C$DW$94, DW_AT_type(*$C$DW$T$31)
     550                      .dwattr $C$DW$94, DW_AT_external
     551                      .global _gFlux_pu_to_VpHz_sf
     552 00000008       _gFlux_pu_to_VpHz_sf:   .usect  ".ebss",2,1,1
     553              $C$DW$95        .dwtag  DW_TAG_variable, DW_AT_name("gFlux_pu_to_VpHz_sf")
     554                      .dwattr $C$DW$95, DW_AT_TI_symbol_name("_gFlux_pu_to_VpHz_sf")
     555                      .dwattr $C$DW$95, DW_AT_location[DW_OP_addr _gFlux_pu_to_VpHz_sf]
     556                      .dwattr $C$DW$95, DW_AT_type(*$C$DW$T$31)
     557                      .dwattr $C$DW$95, DW_AT_external
     558                      .global _halHandle
     559 0000000a       _halHandle:     .usect  ".ebss",2,1,1
     560              $C$DW$96        .dwtag  DW_TAG_variable, DW_AT_name("halHandle")
     561                      .dwattr $C$DW$96, DW_AT_TI_symbol_name("_halHandle")
     562                      .dwattr $C$DW$96, DW_AT_location[DW_OP_addr _halHandle]
     563                      .dwattr $C$DW$96, DW_AT_type(*$C$DW$T$223)
     564                      .dwattr $C$DW$96, DW_AT_external
     565                      .global _ctrlHandle
     566 0000000c       _ctrlHandle:    .usect  ".ebss",2,1,1
     567              $C$DW$97        .dwtag  DW_TAG_variable, DW_AT_name("ctrlHandle")
     568                      .dwattr $C$DW$97, DW_AT_TI_symbol_name("_ctrlHandle")
     569                      .dwattr $C$DW$97, DW_AT_location[DW_OP_addr _ctrlHandle]
     570                      .dwattr $C$DW$97, DW_AT_type(*$C$DW$T$167)
     571                      .dwattr $C$DW$97, DW_AT_external
     572                      .global _gMaxCurrentSlope
     573 0000000e       _gMaxCurrentSlope:      .usect  ".ebss",2,1,1
     574              $C$DW$98        .dwtag  DW_TAG_variable, DW_AT_name("gMaxCurrentSlope")
     575                      .dwattr $C$DW$98, DW_AT_TI_symbol_name("_gMaxCurrentSlope")
     576                      .dwattr $C$DW$98, DW_AT_location[DW_OP_addr _gMaxCurrentSlope]
     577                      .dwattr $C$DW$98, DW_AT_type(*$C$DW$T$31)
     578                      .dwattr $C$DW$98, DW_AT_external
     579              $C$DW$99        .dwtag  DW_TAG_variable, DW_AT_name("RamfuncsLoadStart")
     580                      .dwattr $C$DW$99, DW_AT_TI_symbol_name("_RamfuncsLoadStart")
     581                      .dwattr $C$DW$99, DW_AT_type(*$C$DW$T$253)
     582                      .dwattr $C$DW$99, DW_AT_declaration
     583                      .dwattr $C$DW$99, DW_AT_external
TMS320C2000 Assembler PC v6.2.5 Wed Jun 21 14:56:42 2017

Tools Copyright (c) 1996-2014 Texas Instruments Incorporated
C:\Users\wmj\AppData\Local\Temp\0692810                              PAGE   13

     584              
     585              $C$DW$100       .dwtag  DW_TAG_subprogram, DW_AT_name("USER_computeFlux")
     586                      .dwattr $C$DW$100, DW_AT_TI_symbol_name("_USER_computeFlux")
     587                      .dwattr $C$DW$100, DW_AT_type(*$C$DW$T$31)
     588                      .dwattr $C$DW$100, DW_AT_declaration
     589                      .dwattr $C$DW$100, DW_AT_external
     590              $C$DW$101       .dwtag  DW_TAG_formal_parameter
     591                      .dwattr $C$DW$101, DW_AT_type(*$C$DW$T$167)
     592              $C$DW$102       .dwtag  DW_TAG_formal_parameter
     593                      .dwattr $C$DW$102, DW_AT_type(*$C$DW$T$259)
     594                      .dwendtag $C$DW$100
     595              
     596                      .global _gTorque_Flux_Iq_pu_to_Nm_sf
     597 00000010       _gTorque_Flux_Iq_pu_to_Nm_sf:   .usect  ".ebss",2,1,1
     598              $C$DW$103       .dwtag  DW_TAG_variable, DW_AT_name("gTorque_Flux_Iq_pu_to_Nm_sf")
     599                      .dwattr $C$DW$103, DW_AT_TI_symbol_name("_gTorque_Flux_Iq_pu_to_Nm_sf")
     600                      .dwattr $C$DW$103, DW_AT_location[DW_OP_addr _gTorque_Flux_Iq_pu_to_Nm_sf]
     601                      .dwattr $C$DW$103, DW_AT_type(*$C$DW$T$31)
     602                      .dwattr $C$DW$103, DW_AT_external
     603              
     604              $C$DW$104       .dwtag  DW_TAG_subprogram, DW_AT_name("USER_computeFlux_pu_to_Wb_sf")
     605                      .dwattr $C$DW$104, DW_AT_TI_symbol_name("_USER_computeFlux_pu_to_Wb_sf")
     606                      .dwattr $C$DW$104, DW_AT_type(*$C$DW$T$31)
     607                      .dwattr $C$DW$104, DW_AT_declaration
     608                      .dwattr $C$DW$104, DW_AT_external
     609              
     610              $C$DW$105       .dwtag  DW_TAG_subprogram, DW_AT_name("CTRL_initCtrl")
     611                      .dwattr $C$DW$105, DW_AT_TI_symbol_name("_CTRL_initCtrl")
     612                      .dwattr $C$DW$105, DW_AT_type(*$C$DW$T$167)
     613                      .dwattr $C$DW$105, DW_AT_declaration
     614                      .dwattr $C$DW$105, DW_AT_external
     615              $C$DW$106       .dwtag  DW_TAG_formal_parameter
     616                      .dwattr $C$DW$106, DW_AT_type(*$C$DW$T$199)
     617              $C$DW$107       .dwtag  DW_TAG_formal_parameter
     618                      .dwattr $C$DW$107, DW_AT_type(*$C$DW$T$3)
     619              $C$DW$108       .dwtag  DW_TAG_formal_parameter
     620                      .dwattr $C$DW$108, DW_AT_type(*$C$DW$T$201)
     621                      .dwendtag $C$DW$105
     622              
     623              
     624              $C$DW$109       .dwtag  DW_TAG_subprogram, DW_AT_name("USER_computeTorque_Flux_Iq_pu_to_Nm_sf")
     625                      .dwattr $C$DW$109, DW_AT_TI_symbol_name("_USER_computeTorque_Flux_Iq_pu_to_Nm_sf")
     626                      .dwattr $C$DW$109, DW_AT_type(*$C$DW$T$31)
     627                      .dwattr $C$DW$109, DW_AT_declaration
     628                      .dwattr $C$DW$109, DW_AT_external
     629              
     630              $C$DW$110       .dwtag  DW_TAG_subprogram, DW_AT_name("USER_computeFlux_pu_to_VpHz_sf")
     631                      .dwattr $C$DW$110, DW_AT_TI_symbol_name("_USER_computeFlux_pu_to_VpHz_sf")
     632                      .dwattr $C$DW$110, DW_AT_type(*$C$DW$T$31)
     633                      .dwattr $C$DW$110, DW_AT_declaration
     634                      .dwattr $C$DW$110, DW_AT_external
     635              
     636              $C$DW$111       .dwtag  DW_TAG_subprogram, DW_AT_name("EST_getSpeed_krpm")
     637                      .dwattr $C$DW$111, DW_AT_TI_symbol_name("_EST_getSpeed_krpm")
     638                      .dwattr $C$DW$111, DW_AT_type(*$C$DW$T$31)
TMS320C2000 Assembler PC v6.2.5 Wed Jun 21 14:56:42 2017

Tools Copyright (c) 1996-2014 Texas Instruments Incorporated
C:\Users\wmj\AppData\Local\Temp\0692810                              PAGE   14

     639                      .dwattr $C$DW$111, DW_AT_declaration
     640                      .dwattr $C$DW$111, DW_AT_external
     641              $C$DW$112       .dwtag  DW_TAG_formal_parameter
     642                      .dwattr $C$DW$112, DW_AT_type(*$C$DW$T$49)
     643                      .dwendtag $C$DW$111
     644              
     645              
     646              $C$DW$113       .dwtag  DW_TAG_subprogram, DW_AT_name("HAL_init")
     647                      .dwattr $C$DW$113, DW_AT_TI_symbol_name("_HAL_init")
     648                      .dwattr $C$DW$113, DW_AT_type(*$C$DW$T$223)
     649                      .dwattr $C$DW$113, DW_AT_declaration
     650                      .dwattr $C$DW$113, DW_AT_external
     651              $C$DW$114       .dwtag  DW_TAG_formal_parameter
     652                      .dwattr $C$DW$114, DW_AT_type(*$C$DW$T$3)
     653              $C$DW$115       .dwtag  DW_TAG_formal_parameter
     654                      .dwattr $C$DW$115, DW_AT_type(*$C$DW$T$201)
     655                      .dwendtag $C$DW$113
     656              
     657              
     658              $C$DW$116       .dwtag  DW_TAG_subprogram, DW_AT_name("EST_getRs_Ohm")
     659                      .dwattr $C$DW$116, DW_AT_TI_symbol_name("_EST_getRs_Ohm")
     660                      .dwattr $C$DW$116, DW_AT_type(*$C$DW$T$70)
     661                      .dwattr $C$DW$116, DW_AT_declaration
     662                      .dwattr $C$DW$116, DW_AT_external
     663              $C$DW$117       .dwtag  DW_TAG_formal_parameter
     664                      .dwattr $C$DW$117, DW_AT_type(*$C$DW$T$49)
     665                      .dwendtag $C$DW$116
     666              
     667              
     668              $C$DW$118       .dwtag  DW_TAG_subprogram, DW_AT_name("EST_getMaxCurrentSlope_pu")
     669                      .dwattr $C$DW$118, DW_AT_TI_symbol_name("_EST_getMaxCurrentSlope_pu")
     670                      .dwattr $C$DW$118, DW_AT_type(*$C$DW$T$31)
     671                      .dwattr $C$DW$118, DW_AT_declaration
     672                      .dwattr $C$DW$118, DW_AT_external
     673              $C$DW$119       .dwtag  DW_TAG_formal_parameter
     674                      .dwattr $C$DW$119, DW_AT_type(*$C$DW$T$49)
     675                      .dwendtag $C$DW$118
     676              
     677              
     678              $C$DW$120       .dwtag  DW_TAG_subprogram, DW_AT_name("EST_getRr_Ohm")
     679                      .dwattr $C$DW$120, DW_AT_TI_symbol_name("_EST_getRr_Ohm")
     680                      .dwattr $C$DW$120, DW_AT_type(*$C$DW$T$70)
     681                      .dwattr $C$DW$120, DW_AT_declaration
     682                      .dwattr $C$DW$120, DW_AT_external
     683              $C$DW$121       .dwtag  DW_TAG_formal_parameter
     684                      .dwattr $C$DW$121, DW_AT_type(*$C$DW$T$49)
     685                      .dwendtag $C$DW$120
     686              
     687              
     688              $C$DW$122       .dwtag  DW_TAG_subprogram, DW_AT_name("USER_computeTorque_Ls_Id_Iq_pu_to_Nm_sf")
     689                      .dwattr $C$DW$122, DW_AT_TI_symbol_name("_USER_computeTorque_Ls_Id_Iq_pu_to_Nm_sf")
     690                      .dwattr $C$DW$122, DW_AT_type(*$C$DW$T$31)
     691                      .dwattr $C$DW$122, DW_AT_declaration
     692                      .dwattr $C$DW$122, DW_AT_external
     693              
TMS320C2000 Assembler PC v6.2.5 Wed Jun 21 14:56:42 2017

Tools Copyright (c) 1996-2014 Texas Instruments Incorporated
C:\Users\wmj\AppData\Local\Temp\0692810                              PAGE   15

     694              $C$DW$123       .dwtag  DW_TAG_subprogram, DW_AT_name("EST_getLs_q_H")
     695                      .dwattr $C$DW$123, DW_AT_TI_symbol_name("_EST_getLs_q_H")
     696                      .dwattr $C$DW$123, DW_AT_type(*$C$DW$T$70)
     697                      .dwattr $C$DW$123, DW_AT_declaration
     698                      .dwattr $C$DW$123, DW_AT_external
     699              $C$DW$124       .dwtag  DW_TAG_formal_parameter
     700                      .dwattr $C$DW$124, DW_AT_type(*$C$DW$T$49)
     701                      .dwendtag $C$DW$123
     702              
     703                      .global _gPwmData
     704 00000012       _gPwmData:      .usect  ".ebss",6,1,1
     705              $C$DW$125       .dwtag  DW_TAG_variable, DW_AT_name("gPwmData")
     706                      .dwattr $C$DW$125, DW_AT_TI_symbol_name("_gPwmData")
     707                      .dwattr $C$DW$125, DW_AT_location[DW_OP_addr _gPwmData]
     708                      .dwattr $C$DW$125, DW_AT_type(*$C$DW$T$227)
     709                      .dwattr $C$DW$125, DW_AT_external
     710                      .global _gStepVars
     711 00000018       _gStepVars:     .usect  ".ebss",12,1,1
     712              $C$DW$126       .dwtag  DW_TAG_variable, DW_AT_name("gStepVars")
     713                      .dwattr $C$DW$126, DW_AT_TI_symbol_name("_gStepVars")
     714                      .dwattr $C$DW$126, DW_AT_location[DW_OP_addr _gStepVars]
     715                      .dwattr $C$DW$126, DW_AT_type(*$C$DW$T$243)
     716                      .dwattr $C$DW$126, DW_AT_external
     717                      .global _gAdcData
     718 00000024       _gAdcData:      .usect  ".ebss",14,1,1
     719              $C$DW$127       .dwtag  DW_TAG_variable, DW_AT_name("gAdcData")
     720                      .dwattr $C$DW$127, DW_AT_TI_symbol_name("_gAdcData")
     721                      .dwattr $C$DW$127, DW_AT_location[DW_OP_addr _gAdcData]
     722                      .dwattr $C$DW$127, DW_AT_type(*$C$DW$T$119)
     723                      .dwattr $C$DW$127, DW_AT_external
     724                      .global _gMotorVars
     725 00000040       _gMotorVars:    .usect  ".ebss",128,1,1
     726              $C$DW$128       .dwtag  DW_TAG_variable, DW_AT_name("gMotorVars")
     727                      .dwattr $C$DW$128, DW_AT_TI_symbol_name("_gMotorVars")
     728                      .dwattr $C$DW$128, DW_AT_location[DW_OP_addr _gMotorVars]
     729                      .dwattr $C$DW$128, DW_AT_type(*$C$DW$T$231)
     730                      .dwattr $C$DW$128, DW_AT_external
     731              $C$DW$129       .dwtag  DW_TAG_variable, DW_AT_name("hal")
     732                      .dwattr $C$DW$129, DW_AT_TI_symbol_name("_hal")
     733                      .dwattr $C$DW$129, DW_AT_type(*$C$DW$T$220)
     734                      .dwattr $C$DW$129, DW_AT_declaration
     735                      .dwattr $C$DW$129, DW_AT_external
     736                      .global _gUserParams
     737 000000c0       _gUserParams:   .usect  ".ebss",172,1,1
     738              $C$DW$130       .dwtag  DW_TAG_variable, DW_AT_name("gUserParams")
     739                      .dwattr $C$DW$130, DW_AT_TI_symbol_name("_gUserParams")
     740                      .dwattr $C$DW$130, DW_AT_location[DW_OP_addr _gUserParams]
     741                      .dwattr $C$DW$130, DW_AT_type(*$C$DW$T$172)
     742                      .dwattr $C$DW$130, DW_AT_external
     743                      .global _ctrl
     744 00000180       _ctrl:  .usect  ".ebss",264,1,1
     745              $C$DW$131       .dwtag  DW_TAG_variable, DW_AT_name("ctrl")
     746                      .dwattr $C$DW$131, DW_AT_TI_symbol_name("_ctrl")
     747                      .dwattr $C$DW$131, DW_AT_location[DW_OP_addr _ctrl]
     748                      .dwattr $C$DW$131, DW_AT_type(*$C$DW$T$196)
TMS320C2000 Assembler PC v6.2.5 Wed Jun 21 14:56:42 2017

Tools Copyright (c) 1996-2014 Texas Instruments Incorporated
C:\Users\wmj\AppData\Local\Temp\0692810                              PAGE   16

     749                      .dwattr $C$DW$131, DW_AT_external
     750                      .global _gGraphVars
     751 00000000       _gGraphVars:    .usect  "graph_data",1046,1,1
     752              $C$DW$132       .dwtag  DW_TAG_variable, DW_AT_name("gGraphVars")
     753                      .dwattr $C$DW$132, DW_AT_TI_symbol_name("_gGraphVars")
     754                      .dwattr $C$DW$132, DW_AT_location[DW_OP_addr _gGraphVars]
     755                      .dwattr $C$DW$132, DW_AT_type(*$C$DW$T$210)
     756                      .dwattr $C$DW$132, DW_AT_external
     757              ;       c:\ti\ccsv6\tools\compiler\c2000_6.2.5\bin\opt2000.exe C:\\Users\\wmj\\AppData\\Local\\Temp\\069282 C
     758              ;       c:\ti\ccsv6\tools\compiler\c2000_6.2.5\bin\ac2000.exe -@C:\\Users\\wmj\\AppData\\Local\\Temp\\0692816
     759 00000000               .sect   ".text"
     760                      .clink
     761                      .global _updateKpKiGains
     762              
     763              $C$DW$133       .dwtag  DW_TAG_subprogram, DW_AT_name("updateKpKiGains")
     764                      .dwattr $C$DW$133, DW_AT_low_pc(_updateKpKiGains)
     765                      .dwattr $C$DW$133, DW_AT_high_pc(0x00)
     766                      .dwattr $C$DW$133, DW_AT_TI_symbol_name("_updateKpKiGains")
     767                      .dwattr $C$DW$133, DW_AT_external
     768                      .dwattr $C$DW$133, DW_AT_TI_begin_file("C:/ti/motorware/motorware_1_01_00_18/sw/solutions/instaspin_f
     769                      .dwattr $C$DW$133, DW_AT_TI_begin_line(0x244)
     770                      .dwattr $C$DW$133, DW_AT_TI_begin_column(0x06)
     771                      .dwattr $C$DW$133, DW_AT_TI_max_frame_size(-2)
     772                      .dwpsn  file "C:/ti/motorware/motorware_1_01_00_18/sw/solutions/instaspin_foc/src/proj_lab05h.c",line
     773              
     774                      .dwfde $C$DW$CIE, _updateKpKiGains
     775              $C$DW$134       .dwtag  DW_TAG_formal_parameter, DW_AT_name("handle")
     776                      .dwattr $C$DW$134, DW_AT_TI_symbol_name("_handle")
     777                      .dwattr $C$DW$134, DW_AT_type(*$C$DW$T$167)
     778                      .dwattr $C$DW$134, DW_AT_location[DW_OP_reg12]
     779              
     780              ;***************************************************************
     781              ;* FNAME: _updateKpKiGains              FR SIZE:   0           *
     782              ;*                                                             *
     783              ;* FUNCTION ENVIRONMENT                                        *
     784              ;*                                                             *
     785              ;* FUNCTION PROPERTIES                                         *
     786              ;*                            0 Parameter,  0 Auto,  0 SOE     *
     787              ;***************************************************************
     788              
     789              _updateKpKiGains:
     790              ;* AR4   assigned to _handle
     791              $C$DW$135       .dwtag  DW_TAG_variable, DW_AT_name("handle")
     792                      .dwattr $C$DW$135, DW_AT_TI_symbol_name("_handle")
     793                      .dwattr $C$DW$135, DW_AT_type(*$C$DW$T$198)
     794                      .dwattr $C$DW$135, DW_AT_location[DW_OP_reg12]
     795              ;* AL    assigned to _Ki
     796              $C$DW$136       .dwtag  DW_TAG_variable, DW_AT_name("Ki")
     797                      .dwattr $C$DW$136, DW_AT_TI_symbol_name("_Ki")
     798                      .dwattr $C$DW$136, DW_AT_type(*$C$DW$T$31)
     799                      .dwattr $C$DW$136, DW_AT_location[DW_OP_reg0]
     800              ;* AL    assigned to _Kp
     801              $C$DW$137       .dwtag  DW_TAG_variable, DW_AT_name("Kp")
     802                      .dwattr $C$DW$137, DW_AT_TI_symbol_name("_Kp")
     803                      .dwattr $C$DW$137, DW_AT_type(*$C$DW$T$31)
TMS320C2000 Assembler PC v6.2.5 Wed Jun 21 14:56:42 2017

Tools Copyright (c) 1996-2014 Texas Instruments Incorporated
C:\Users\wmj\AppData\Local\Temp\0692810                              PAGE   17

     804                      .dwattr $C$DW$137, DW_AT_location[DW_OP_reg0]
     805              ;* AL    assigned to _Ki
     806              $C$DW$138       .dwtag  DW_TAG_variable, DW_AT_name("Ki")
     807                      .dwattr $C$DW$138, DW_AT_TI_symbol_name("_Ki")
     808                      .dwattr $C$DW$138, DW_AT_type(*$C$DW$T$31)
     809                      .dwattr $C$DW$138, DW_AT_location[DW_OP_reg0]
     810              ;* AL    assigned to _Kp
     811              $C$DW$139       .dwtag  DW_TAG_variable, DW_AT_name("Kp")
     812                      .dwattr $C$DW$139, DW_AT_TI_symbol_name("_Kp")
     813                      .dwattr $C$DW$139, DW_AT_type(*$C$DW$T$31)
     814                      .dwattr $C$DW$139, DW_AT_location[DW_OP_reg0]
     815              ;* AL    assigned to _Ki
     816              $C$DW$140       .dwtag  DW_TAG_variable, DW_AT_name("Ki")
     817                      .dwattr $C$DW$140, DW_AT_TI_symbol_name("_Ki")
     818                      .dwattr $C$DW$140, DW_AT_type(*$C$DW$T$31)
     819                      .dwattr $C$DW$140, DW_AT_location[DW_OP_reg0]
     820              ;* AL    assigned to _Kp
     821              $C$DW$141       .dwtag  DW_TAG_variable, DW_AT_name("Kp")
     822                      .dwattr $C$DW$141, DW_AT_TI_symbol_name("_Kp")
     823                      .dwattr $C$DW$141, DW_AT_type(*$C$DW$T$31)
     824                      .dwattr $C$DW$141, DW_AT_location[DW_OP_reg0]
     825                      .dwcfi  cfa_offset, -2
     826                      .dwcfi  save_reg_to_mem, 26, 0
     827                      .dwcfi  save_reg_to_reg, 78, 26
     828 00000000 761F-         MOVW      DP,#_gMotorVars+13    ; [CPU_U] 
         00000001 0001 
     829                      .dwpsn  file "C:/ti/motorware/motorware_1_01_00_18/sw/solutions/instaspin_foc/src/proj_lab05h.c",line
     830 00000002 920D-         MOV       AL,@_gMotorVars+13    ; [CPU_] |582| 
     831 00000003 5203          CMPB      AL,#3                 ; [CPU_] |582| 
     832 00000004 ED1C          BF        $C$L1,NEQ             ; [CPU_] |582| 
     833                      ; branchcc occurs ; [] |582| 
     834 00000005 9202-         MOV       AL,@_gMotorVars+2     ; [CPU_] |582| 
     835 00000006 5201          CMPB      AL,#1                 ; [CPU_] |582| 
     836 00000007 ED19          BF        $C$L1,NEQ             ; [CPU_] |582| 
     837                      ; branchcc occurs ; [] |582| 
     838 00000008 761F-         MOVW      DP,#_Flag_Latch_softwareUpdate ; [CPU_U] 
         00000009 0000 
     839 0000000a 9200-         MOV       AL,@_Flag_Latch_softwareUpdate ; [CPU_] |582| 
     840 0000000b ED15          BF        $C$L1,NEQ             ; [CPU_] |582| 
     841                      ; branchcc occurs ; [] |582| 
     842 0000000c 761F-         MOVW      DP,#_gMotorVars+70    ; [CPU_U] 
         0000000d 0002 
     843                      .dwpsn  file "C:/ti/motorware/motorware_1_01_00_18/sw/modules/ctrl/src/32b/ctrl.h",line 1505,column 7
     844 0000000e D0CE          MOVB      XAR0,#206             ; [CPU_] |1505| 
     845                      .dwpsn  file "C:/ti/motorware/motorware_1_01_00_18/sw/solutions/instaspin_foc/src/proj_lab05h.c",line
     846 0000000f 0606-         MOVL      ACC,@_gMotorVars+70   ; [CPU_] |585| 
     847                      .dwpsn  file "C:/ti/motorware/motorware_1_01_00_18/sw/modules/ctrl/src/32b/ctrl.h",line 1505,column 7
     848 00000010 1E94          MOVL      *+XAR4[AR0],ACC       ; [CPU_] |1505| 
     849                      .dwpsn  file "C:/ti/motorware/motorware_1_01_00_18/sw/modules/ctrl/src/32b/ctrl.h",line 1480,column 7
     850 00000011 D0D4          MOVB      XAR0,#212             ; [CPU_] |1480| 
     851                      .dwpsn  file "C:/ti/motorware/motorware_1_01_00_18/sw/solutions/instaspin_foc/src/proj_lab05h.c",line
     852 00000012 0608-         MOVL      ACC,@_gMotorVars+72   ; [CPU_] |586| 
     853                      .dwpsn  file "C:/ti/motorware/motorware_1_01_00_18/sw/modules/ctrl/src/32b/ctrl.h",line 1480,column 7
     854 00000013 1E94          MOVL      *+XAR4[AR0],ACC       ; [CPU_] |1480| 
     855                      .dwpsn  file "C:/ti/motorware/motorware_1_01_00_18/sw/modules/ctrl/src/32b/ctrl.h",line 1509,column 7
TMS320C2000 Assembler PC v6.2.5 Wed Jun 21 14:56:42 2017

Tools Copyright (c) 1996-2014 Texas Instruments Incorporated
C:\Users\wmj\AppData\Local\Temp\0692810                              PAGE   18

     856 00000014 D0CA          MOVB      XAR0,#202             ; [CPU_] |1509| 
     857                      .dwpsn  file "C:/ti/motorware/motorware_1_01_00_18/sw/solutions/instaspin_foc/src/proj_lab05h.c",line
     858 00000015 060A-         MOVL      ACC,@_gMotorVars+74   ; [CPU_] |589| 
     859                      .dwpsn  file "C:/ti/motorware/motorware_1_01_00_18/sw/modules/ctrl/src/32b/ctrl.h",line 1509,column 7
     860 00000016 1E94          MOVL      *+XAR4[AR0],ACC       ; [CPU_] |1509| 
     861                      .dwpsn  file "C:/ti/motorware/motorware_1_01_00_18/sw/modules/ctrl/src/32b/ctrl.h",line 1484,column 7
     862 00000017 D0D0          MOVB      XAR0,#208             ; [CPU_] |1484| 
     863                      .dwpsn  file "C:/ti/motorware/motorware_1_01_00_18/sw/solutions/instaspin_foc/src/proj_lab05h.c",line
     864 00000018 060C-         MOVL      ACC,@_gMotorVars+76   ; [CPU_] |590| 
     865                      .dwpsn  file "C:/ti/motorware/motorware_1_01_00_18/sw/modules/ctrl/src/32b/ctrl.h",line 1484,column 7
     866 00000019 1E94          MOVL      *+XAR4[AR0],ACC       ; [CPU_] |1484| 
     867                      .dwpsn  file "C:/ti/motorware/motorware_1_01_00_18/sw/modules/ctrl/src/32b/ctrl.h",line 1513,column 7
     868 0000001a D0CC          MOVB      XAR0,#204             ; [CPU_] |1513| 
     869                      .dwpsn  file "C:/ti/motorware/motorware_1_01_00_18/sw/solutions/instaspin_foc/src/proj_lab05h.c",line
     870 0000001b 060A-         MOVL      ACC,@_gMotorVars+74   ; [CPU_] |591| 
     871                      .dwpsn  file "C:/ti/motorware/motorware_1_01_00_18/sw/modules/ctrl/src/32b/ctrl.h",line 1513,column 7
     872 0000001c 1E94          MOVL      *+XAR4[AR0],ACC       ; [CPU_] |1513| 
     873                      .dwpsn  file "C:/ti/motorware/motorware_1_01_00_18/sw/solutions/instaspin_foc/src/proj_lab05h.c",line
     874 0000001d 060C-         MOVL      ACC,@_gMotorVars+76   ; [CPU_] |592| 
     875                      .dwpsn  file "C:/ti/motorware/motorware_1_01_00_18/sw/modules/ctrl/src/32b/ctrl.h",line 1488,column 7
     876 0000001e D0D2          MOVB      XAR0,#210             ; [CPU_] |1488| 
     877 0000001f 1E94          MOVL      *+XAR4[AR0],ACC       ; [CPU_] |1488| 
     878              $C$L1:    
     879              $C$DW$142       .dwtag  DW_TAG_TI_branch
     880                      .dwattr $C$DW$142, DW_AT_low_pc(0x00)
     881                      .dwattr $C$DW$142, DW_AT_TI_return
     882 00000020 0006          LRETR     ; [CPU_] 
     883                      ; return occurs ; [] 
     884                      .dwattr $C$DW$133, DW_AT_TI_end_file("C:/ti/motorware/motorware_1_01_00_18/sw/solutions/instaspin_foc
     885                      .dwattr $C$DW$133, DW_AT_TI_end_line(0x254)
     886                      .dwattr $C$DW$133, DW_AT_TI_end_column(0x01)
     887                      .dwendentry
     888                      .dwendtag $C$DW$133
     889              
     890 00000021               .sect   ".text"
     891                      .clink
     892                      .global _updateGlobalVariables_motor
     893              
     894              $C$DW$143       .dwtag  DW_TAG_subprogram, DW_AT_name("updateGlobalVariables_motor")
     895                      .dwattr $C$DW$143, DW_AT_low_pc(_updateGlobalVariables_motor)
     896                      .dwattr $C$DW$143, DW_AT_high_pc(0x00)
     897                      .dwattr $C$DW$143, DW_AT_TI_symbol_name("_updateGlobalVariables_motor")
     898                      .dwattr $C$DW$143, DW_AT_external
     899                      .dwattr $C$DW$143, DW_AT_TI_begin_file("C:/ti/motorware/motorware_1_01_00_18/sw/solutions/instaspin_f
     900                      .dwattr $C$DW$143, DW_AT_TI_begin_line(0x207)
     901                      .dwattr $C$DW$143, DW_AT_TI_begin_column(0x06)
     902                      .dwattr $C$DW$143, DW_AT_TI_max_frame_size(-8)
     903                      .dwpsn  file "C:/ti/motorware/motorware_1_01_00_18/sw/solutions/instaspin_foc/src/proj_lab05h.c",line
     904              
     905                      .dwfde $C$DW$CIE, _updateGlobalVariables_motor
     906              $C$DW$144       .dwtag  DW_TAG_formal_parameter, DW_AT_name("handle")
     907                      .dwattr $C$DW$144, DW_AT_TI_symbol_name("_handle")
     908                      .dwattr $C$DW$144, DW_AT_type(*$C$DW$T$167)
     909                      .dwattr $C$DW$144, DW_AT_location[DW_OP_reg12]
     910              
TMS320C2000 Assembler PC v6.2.5 Wed Jun 21 14:56:42 2017

Tools Copyright (c) 1996-2014 Texas Instruments Incorporated
C:\Users\wmj\AppData\Local\Temp\0692810                              PAGE   19

     911              ;***************************************************************
     912              ;* FNAME: _updateGlobalVariables_motor  FR SIZE:   6           *
     913              ;*                                                             *
     914              ;* FUNCTION ENVIRONMENT                                        *
     915              ;*                                                             *
     916              ;* FUNCTION PROPERTIES                                         *
     917              ;*                            2 Parameter,  0 Auto,  4 SOE     *
     918              ;***************************************************************
     919              
     920              _updateGlobalVariables_motor:
     921              ;* AR4   assigned to $O$C7
     922              ;* AR4   assigned to $O$C8
     923              ;* XT    assigned to $O$R1
     924              ;* XT    assigned to $O$R2
     925              ;* AL    assigned to $O$R3
     926              ;* AL    assigned to $O$R4
     927              ;* XT    assigned to $O$R6
     928              ;* AR2   assigned to _handle
     929              $C$DW$145       .dwtag  DW_TAG_variable, DW_AT_name("handle")
     930                      .dwattr $C$DW$145, DW_AT_TI_symbol_name("_handle")
     931                      .dwattr $C$DW$145, DW_AT_type(*$C$DW$T$198)
     932                      .dwattr $C$DW$145, DW_AT_location[DW_OP_reg8]
     933                      .dwcfi  cfa_offset, -2
     934                      .dwcfi  save_reg_to_mem, 26, 0
     935                      .dwcfi  save_reg_to_reg, 78, 26
     936 00000021 B2BD          MOVL      *SP++,XAR1            ; [CPU_] 
     937                      .dwcfi  save_reg_to_mem, 7, 2
     938                      .dwcfi  cfa_offset, -4
     939 00000022 AABD          MOVL      *SP++,XAR2            ; [CPU_] 
     940                      .dwcfi  save_reg_to_mem, 9, 4
     941                      .dwcfi  cfa_offset, -6
     942 00000023 FE02          ADDB      SP,#2                 ; [CPU_U] 
     943                      .dwcfi  cfa_offset, -8
     944                      .dwpsn  file "C:/ti/motorware/motorware_1_01_00_18/sw/solutions/instaspin_foc/src/proj_lab05h.c",line
     945 00000024 D018          MOVB      XAR0,#24              ; [CPU_] |524| 
     946                      .dwpsn  file "C:/ti/motorware/motorware_1_01_00_18/sw/solutions/instaspin_foc/src/proj_lab05h.c",line
     947 00000025 86A4          MOVL      XAR2,XAR4             ; [CPU_] |520| 
     948                      .dwpsn  file "C:/ti/motorware/motorware_1_01_00_18/sw/solutions/instaspin_foc/src/proj_lab05h.c",line
     949 00000026 8A92          MOVL      XAR4,*+XAR2[AR0]      ; [CPU_] |524| 
     950              $C$DW$146       .dwtag  DW_TAG_TI_branch
     951                      .dwattr $C$DW$146, DW_AT_low_pc(0x00)
     952                      .dwattr $C$DW$146, DW_AT_name("_EST_getSpeed_krpm")
     953                      .dwattr $C$DW$146, DW_AT_TI_call
     954 00000027 7640!         LCR       #_EST_getSpeed_krpm   ; [CPU_] |524| 
         00000028 0000 
     955                      ; call occurs [#_EST_getSpeed_krpm] ; [] |524| 
     956 00000029 761F-         MOVW      DP,#_gMotorVars+32    ; [CPU_U] 
         0000002a 0001 
     957                      .dwpsn  file "C:/ti/motorware/motorware_1_01_00_18/sw/modules/traj/src/32b/traj.h",line 96,column 3,i
     958 0000002b D06C          MOVB      XAR0,#108             ; [CPU_] |96| 
     959                      .dwpsn  file "C:/ti/motorware/motorware_1_01_00_18/sw/solutions/instaspin_foc/src/proj_lab05h.c",line
     960 0000002c 1E20-         MOVL      @_gMotorVars+32,ACC   ; [CPU_] |524| 
     961                      .dwpsn  file "C:/ti/motorware/motorware_1_01_00_18/sw/modules/traj/src/32b/traj.h",line 96,column 3,i
     962 0000002d 8A92          MOVL      XAR4,*+XAR2[AR0]      ; [CPU_] |96| 
     963                      .dwpsn  file "C:/ti/motorware/motorware_1_01_00_18/sw/solutions/instaspin_foc/src/proj_lab05h.c",line
TMS320C2000 Assembler PC v6.2.5 Wed Jun 21 14:56:42 2017

Tools Copyright (c) 1996-2014 Texas Instruments Incorporated
C:\Users\wmj\AppData\Local\Temp\0692810                              PAGE   20

     964 0000002e D018          MOVB      XAR0,#24              ; [CPU_] |527| 
     965                      .dwpsn  file "C:/ti/motorware/motorware_1_01_00_18/sw/modules/traj/src/32b/traj.h",line 96,column 3,i
     966 0000002f 8BD4          MOVL      XAR1,*+XAR4[2]        ; [CPU_] |96| 
     967                      .dwpsn  file "C:/ti/motorware/motorware_1_01_00_18/sw/solutions/instaspin_foc/src/proj_lab05h.c",line
     968 00000030 8A92          MOVL      XAR4,*+XAR2[AR0]      ; [CPU_] |527| 
     969              $C$DW$147       .dwtag  DW_TAG_TI_branch
     970                      .dwattr $C$DW$147, DW_AT_low_pc(0x00)
     971                      .dwattr $C$DW$147, DW_AT_name("_EST_get_pu_to_krpm_sf")
     972                      .dwattr $C$DW$147, DW_AT_TI_call
     973 00000031 7640!         LCR       #_EST_get_pu_to_krpm_sf ; [CPU_] |527| 
         00000032 0000 
     974                      ; call occurs [#_EST_get_pu_to_krpm_sf] ; [] |527| 
     975 00000033 761F-         MOVW      DP,#_gMotorVars+28    ; [CPU_U] 
         00000034 0001 
     976 00000035 B2AC          MOVL      XT,XAR1               ; [CPU_] |527| 
     977                      .dwpsn  file "C:/ti/motorware/motorware_1_01_00_18/sw/solutions/instaspin_foc/src/proj_lab05h.c",line
     978 00000036 8AA2          MOVL      XAR4,XAR2             ; [CPU_] |530| 
     979                      .dwpsn  file "C:/ti/motorware/motorware_1_01_00_18/sw/solutions/instaspin_foc/src/proj_lab05h.c",line
     980 00000037 5605          IMPYL     P,XT,ACC              ; [CPU_] |527| 
         00000038 00A9 
     981 00000039 5663          QMPYL     ACC,XT,ACC            ; [CPU_] |527| 
         0000003a 00A9 
     982 0000003b 56A7          LSL64     ACC:P,#8              ; [CPU_] |527| 
     983 0000003c 1E1C-         MOVL      @_gMotorVars+28,ACC   ; [CPU_] |527| 
     984 0000003d 761F-         MOVW      DP,#_gTorque_Ls_Id_Iq_pu_to_Nm_sf ; [CPU_U] 
         0000003e 0000 
     985                      .dwpsn  file "C:/ti/motorware/motorware_1_01_00_18/sw/solutions/instaspin_foc/src/proj_lab05h.c",line
     986 0000003f 0606-         MOVL      ACC,@_gTorque_Ls_Id_Iq_pu_to_Nm_sf ; [CPU_] |530| 
     987 00000040 1E42          MOVL      *-SP[2],ACC           ; [CPU_] |530| 
     988 00000041 0610-         MOVL      ACC,@_gTorque_Flux_Iq_pu_to_Nm_sf ; [CPU_] |530| 
     989              $C$DW$148       .dwtag  DW_TAG_TI_branch
     990                      .dwattr $C$DW$148, DW_AT_low_pc(0x00)
     991                      .dwattr $C$DW$148, DW_AT_name("_USER_computeTorque_Nm")
     992                      .dwattr $C$DW$148, DW_AT_TI_call
     993 00000042 7640!         LCR       #_USER_computeTorque_Nm ; [CPU_] |530| 
         00000043 0000 
     994                      ; call occurs [#_USER_computeTorque_Nm] ; [] |530| 
     995 00000044 761F-         MOVW      DP,#_gMotorVars+42    ; [CPU_U] 
         00000045 0001 
     996                      .dwpsn  file "C:/ti/motorware/motorware_1_01_00_18/sw/solutions/instaspin_foc/src/proj_lab05h.c",line
     997 00000046 D018          MOVB      XAR0,#24              ; [CPU_] |533| 
     998                      .dwpsn  file "C:/ti/motorware/motorware_1_01_00_18/sw/solutions/instaspin_foc/src/proj_lab05h.c",line
     999 00000047 1E2A-         MOVL      @_gMotorVars+42,ACC   ; [CPU_] |530| 
    1000                      .dwpsn  file "C:/ti/motorware/motorware_1_01_00_18/sw/solutions/instaspin_foc/src/proj_lab05h.c",line
    1001 00000048 8A92          MOVL      XAR4,*+XAR2[AR0]      ; [CPU_] |533| 
    1002              $C$DW$149       .dwtag  DW_TAG_TI_branch
    1003                      .dwattr $C$DW$149, DW_AT_low_pc(0x00)
    1004                      .dwattr $C$DW$149, DW_AT_name("_EST_getIdRated")
    1005                      .dwattr $C$DW$149, DW_AT_TI_call
    1006 00000049 7640!         LCR       #_EST_getIdRated      ; [CPU_] |533| 
         0000004a 0000 
    1007                      ; call occurs [#_EST_getIdRated] ; [] |533| 
    1008 0000004b 761F-         MOVW      DP,#_gMotorVars+44    ; [CPU_U] 
         0000004c 0001 
    1009                      .dwpsn  file "C:/ti/motorware/motorware_1_01_00_18/sw/solutions/instaspin_foc/src/proj_lab05h.c",line
TMS320C2000 Assembler PC v6.2.5 Wed Jun 21 14:56:42 2017

Tools Copyright (c) 1996-2014 Texas Instruments Incorporated
C:\Users\wmj\AppData\Local\Temp\0692810                              PAGE   21

    1010 0000004d D018          MOVB      XAR0,#24              ; [CPU_] |536| 
    1011                      .dwpsn  file "C:/ti/motorware/motorware_1_01_00_18/sw/solutions/instaspin_foc/src/proj_lab05h.c",line
    1012 0000004e 1E2C-         MOVL      @_gMotorVars+44,ACC   ; [CPU_] |533| 
    1013                      .dwpsn  file "C:/ti/motorware/motorware_1_01_00_18/sw/solutions/instaspin_foc/src/proj_lab05h.c",line
    1014 0000004f 8A92          MOVL      XAR4,*+XAR2[AR0]      ; [CPU_] |536| 
    1015              $C$DW$150       .dwtag  DW_TAG_TI_branch
    1016                      .dwattr $C$DW$150, DW_AT_low_pc(0x00)
    1017                      .dwattr $C$DW$150, DW_AT_name("_EST_getRr_Ohm")
    1018                      .dwattr $C$DW$150, DW_AT_TI_call
    1019 00000050 7640!         LCR       #_EST_getRr_Ohm       ; [CPU_] |536| 
         00000051 0000 
    1020                      ; call occurs [#_EST_getRr_Ohm] ; [] |536| 
    1021 00000052 761F-         MOVW      DP,#_gMotorVars+46    ; [CPU_U] 
         00000053 0001 
    1022                      .dwpsn  file "C:/ti/motorware/motorware_1_01_00_18/sw/solutions/instaspin_foc/src/proj_lab05h.c",line
    1023 00000054 D018          MOVB      XAR0,#24              ; [CPU_] |539| 
    1024                      .dwpsn  file "C:/ti/motorware/motorware_1_01_00_18/sw/solutions/instaspin_foc/src/proj_lab05h.c",line
    1025 00000055 1E2E-         MOVL      @_gMotorVars+46,ACC   ; [CPU_] |536| 
    1026                      .dwpsn  file "C:/ti/motorware/motorware_1_01_00_18/sw/solutions/instaspin_foc/src/proj_lab05h.c",line
    1027 00000056 8A92          MOVL      XAR4,*+XAR2[AR0]      ; [CPU_] |539| 
    1028              $C$DW$151       .dwtag  DW_TAG_TI_branch
    1029                      .dwattr $C$DW$151, DW_AT_low_pc(0x00)
    1030                      .dwattr $C$DW$151, DW_AT_name("_EST_getRs_Ohm")
    1031                      .dwattr $C$DW$151, DW_AT_TI_call
    1032 00000057 7640!         LCR       #_EST_getRs_Ohm       ; [CPU_] |539| 
         00000058 0000 
    1033                      ; call occurs [#_EST_getRs_Ohm] ; [] |539| 
    1034 00000059 761F-         MOVW      DP,#_gMotorVars+48    ; [CPU_U] 
         0000005a 0001 
    1035                      .dwpsn  file "C:/ti/motorware/motorware_1_01_00_18/sw/solutions/instaspin_foc/src/proj_lab05h.c",line
    1036 0000005b D018          MOVB      XAR0,#24              ; [CPU_] |542| 
    1037                      .dwpsn  file "C:/ti/motorware/motorware_1_01_00_18/sw/solutions/instaspin_foc/src/proj_lab05h.c",line
    1038 0000005c 1E30-         MOVL      @_gMotorVars+48,ACC   ; [CPU_] |539| 
    1039                      .dwpsn  file "C:/ti/motorware/motorware_1_01_00_18/sw/solutions/instaspin_foc/src/proj_lab05h.c",line
    1040 0000005d 8A92          MOVL      XAR4,*+XAR2[AR0]      ; [CPU_] |542| 
    1041              $C$DW$152       .dwtag  DW_TAG_TI_branch
    1042                      .dwattr $C$DW$152, DW_AT_low_pc(0x00)
    1043                      .dwattr $C$DW$152, DW_AT_name("_EST_getLs_d_H")
    1044                      .dwattr $C$DW$152, DW_AT_TI_call
    1045 0000005e 7640!         LCR       #_EST_getLs_d_H       ; [CPU_] |542| 
         0000005f 0000 
    1046                      ; call occurs [#_EST_getLs_d_H] ; [] |542| 
    1047 00000060 761F-         MOVW      DP,#_gMotorVars+52    ; [CPU_U] 
         00000061 0001 
    1048                      .dwpsn  file "C:/ti/motorware/motorware_1_01_00_18/sw/solutions/instaspin_foc/src/proj_lab05h.c",line
    1049 00000062 D018          MOVB      XAR0,#24              ; [CPU_] |545| 
    1050                      .dwpsn  file "C:/ti/motorware/motorware_1_01_00_18/sw/solutions/instaspin_foc/src/proj_lab05h.c",line
    1051 00000063 1E34-         MOVL      @_gMotorVars+52,ACC   ; [CPU_] |542| 
    1052                      .dwpsn  file "C:/ti/motorware/motorware_1_01_00_18/sw/solutions/instaspin_foc/src/proj_lab05h.c",line
    1053 00000064 8A92          MOVL      XAR4,*+XAR2[AR0]      ; [CPU_] |545| 
    1054              $C$DW$153       .dwtag  DW_TAG_TI_branch
    1055                      .dwattr $C$DW$153, DW_AT_low_pc(0x00)
    1056                      .dwattr $C$DW$153, DW_AT_name("_EST_getLs_q_H")
    1057                      .dwattr $C$DW$153, DW_AT_TI_call
    1058 00000065 7640!         LCR       #_EST_getLs_q_H       ; [CPU_] |545| 
TMS320C2000 Assembler PC v6.2.5 Wed Jun 21 14:56:42 2017

Tools Copyright (c) 1996-2014 Texas Instruments Incorporated
C:\Users\wmj\AppData\Local\Temp\0692810                              PAGE   22

         00000066 0000 
    1059                      ; call occurs [#_EST_getLs_q_H] ; [] |545| 
    1060 00000067 761F-         MOVW      DP,#_gMotorVars+54    ; [CPU_U] 
         00000068 0001 
    1061                      .dwpsn  file "C:/ti/motorware/motorware_1_01_00_18/sw/solutions/instaspin_foc/src/proj_lab05h.c",line
    1062 00000069 D018          MOVB      XAR0,#24              ; [CPU_] |548| 
    1063                      .dwpsn  file "C:/ti/motorware/motorware_1_01_00_18/sw/solutions/instaspin_foc/src/proj_lab05h.c",line
    1064 0000006a 1E36-         MOVL      @_gMotorVars+54,ACC   ; [CPU_] |545| 
    1065                      .dwpsn  file "C:/ti/motorware/motorware_1_01_00_18/sw/solutions/instaspin_foc/src/proj_lab05h.c",line
    1066 0000006b 8A92          MOVL      XAR4,*+XAR2[AR0]      ; [CPU_] |548| 
    1067              $C$DW$154       .dwtag  DW_TAG_TI_branch
    1068                      .dwattr $C$DW$154, DW_AT_low_pc(0x00)
    1069                      .dwattr $C$DW$154, DW_AT_name("_EST_getFlux_VpHz")
    1070                      .dwattr $C$DW$154, DW_AT_TI_call
    1071 0000006c 7640!         LCR       #_EST_getFlux_VpHz    ; [CPU_] |548| 
         0000006d 0000 
    1072                      ; call occurs [#_EST_getFlux_VpHz] ; [] |548| 
    1073 0000006e 761F-         MOVW      DP,#_gMotorVars+56    ; [CPU_U] 
         0000006f 0001 
    1074                      .dwpsn  file "C:/ti/motorware/motorware_1_01_00_18/sw/solutions/instaspin_foc/src/proj_lab05h.c",line
    1075 00000070 8AA2          MOVL      XAR4,XAR2             ; [CPU_] |551| 
    1076                      .dwpsn  file "C:/ti/motorware/motorware_1_01_00_18/sw/solutions/instaspin_foc/src/proj_lab05h.c",line
    1077 00000071 1E38-         MOVL      @_gMotorVars+56,ACC   ; [CPU_] |548| 
    1078 00000072 761F-         MOVW      DP,#_gFlux_pu_to_Wb_sf ; [CPU_U] 
         00000073 0000 
    1079                      .dwpsn  file "C:/ti/motorware/motorware_1_01_00_18/sw/solutions/instaspin_foc/src/proj_lab05h.c",line
    1080 00000074 0604-         MOVL      ACC,@_gFlux_pu_to_Wb_sf ; [CPU_] |551| 
    1081              $C$DW$155       .dwtag  DW_TAG_TI_branch
    1082                      .dwattr $C$DW$155, DW_AT_low_pc(0x00)
    1083                      .dwattr $C$DW$155, DW_AT_name("_USER_computeFlux")
    1084                      .dwattr $C$DW$155, DW_AT_TI_call
    1085 00000075 7640!         LCR       #_USER_computeFlux    ; [CPU_] |551| 
         00000076 0000 
    1086                      ; call occurs [#_USER_computeFlux] ; [] |551| 
    1087 00000077 761F-         MOVW      DP,#_gMotorVars+40    ; [CPU_U] 
         00000078 0001 
    1088                      .dwpsn  file "C:/ti/motorware/motorware_1_01_00_18/sw/solutions/instaspin_foc/src/proj_lab05h.c",line
    1089 00000079 D018          MOVB      XAR0,#24              ; [CPU_] |557| 
    1090                      .dwpsn  file "C:/ti/motorware/motorware_1_01_00_18/sw/solutions/instaspin_foc/src/proj_lab05h.c",line
    1091 0000007a 1E28-         MOVL      @_gMotorVars+40,ACC   ; [CPU_] |551| 
    1092                      .dwpsn  file "C:/ti/motorware/motorware_1_01_00_18/sw/solutions/instaspin_foc/src/proj_lab05h.c",line
    1093 0000007b 92E2          MOV       AL,*+XAR2[4]          ; [CPU_] |554| 
    1094 0000007c 960D-         MOV       @_gMotorVars+13,AL    ; [CPU_] |554| 
    1095                      .dwpsn  file "C:/ti/motorware/motorware_1_01_00_18/sw/solutions/instaspin_foc/src/proj_lab05h.c",line
    1096 0000007d 8A92          MOVL      XAR4,*+XAR2[AR0]      ; [CPU_] |557| 
    1097              $C$DW$156       .dwtag  DW_TAG_TI_branch
    1098                      .dwattr $C$DW$156, DW_AT_low_pc(0x00)
    1099                      .dwattr $C$DW$156, DW_AT_name("_EST_getState")
    1100                      .dwattr $C$DW$156, DW_AT_TI_call
    1101 0000007e 7640!         LCR       #_EST_getState        ; [CPU_] |557| 
         0000007f 0000 
    1102                      ; call occurs [#_EST_getState] ; [] |557| 
    1103 00000080 761F-         MOVW      DP,#_gMotorVars+14    ; [CPU_U] 
         00000081 0001 
    1104 00000082 960E-         MOV       @_gMotorVars+14,AL    ; [CPU_] |557| 
TMS320C2000 Assembler PC v6.2.5 Wed Jun 21 14:56:42 2017

Tools Copyright (c) 1996-2014 Texas Instruments Incorporated
C:\Users\wmj\AppData\Local\Temp\0692810                              PAGE   23

    1105                      .dwpsn  file "C:/ti/motorware/motorware_1_01_00_18/sw/modules/ctrl/src/32b/ctrl.h",line 880,column 3,
    1106 00000083 BEC0          MOVB      XAR6,#192             ; [CPU_] |880| 
    1107 00000084 761F-         MOVW      DP,#_ctrlHandle       ; [CPU_U] 
         00000085 0000 
    1108 00000086 060C-         MOVL      ACC,@_ctrlHandle      ; [CPU_] |880| 
    1109 00000087 761F-         MOVW      DP,#_gMotorVars+78    ; [CPU_U] 
         00000088 0002 
    1110 00000089 0DA6          ADDU      ACC,AR6               ; [CPU_] |880| 
    1111 0000008a 8AA9          MOVL      XAR4,ACC              ; [CPU_] |880| 
    1112 0000008b 06C4          MOVL      ACC,*+XAR4[0]         ; [CPU_] |880| 
    1113                      .dwpsn  file "C:/ti/motorware/motorware_1_01_00_18/sw/solutions/instaspin_foc/src/proj_lab05h.c",line
    1114 0000008c 1E0E-         MOVL      @_gMotorVars+78,ACC   ; [CPU_] |560| 
    1115                      .dwpsn  file "C:/ti/motorware/motorware_1_01_00_18/sw/modules/ctrl/src/32b/ctrl.h",line 925,column 3,
    1116 0000008d 06D4          MOVL      ACC,*+XAR4[2]         ; [CPU_] |925| 
    1117                      .dwpsn  file "C:/ti/motorware/motorware_1_01_00_18/sw/solutions/instaspin_foc/src/proj_lab05h.c",line
    1118 0000008e 1E10-         MOVL      @_gMotorVars+80,ACC   ; [CPU_] |561| 
    1119                      .dwpsn  file "C:/ti/motorware/motorware_1_01_00_18/sw/solutions/instaspin_foc/src/proj_lab05h.c",line
    1120 0000008f 870E-         MOVL      XT,@_gMotorVars+78    ; [CPU_] |564| 
    1121 00000090 5605-         IMPYL     P,XT,@_gMotorVars+78  ; [CPU_] |564| 
         00000091 000E 
    1122 00000092 5663-         QMPYL     ACC,XT,@_gMotorVars+78 ; [CPU_] |564| 
         00000093 000E 
    1123 00000094 56A7          LSL64     ACC:P,#8              ; [CPU_] |564| 
    1124 00000095 8710-         MOVL      XT,@_gMotorVars+80    ; [CPU_] |564| 
    1125 00000096 1EA6          MOVL      XAR6,ACC              ; [CPU_] |564| 
    1126 00000097 5605-         IMPYL     P,XT,@_gMotorVars+80  ; [CPU_] |564| 
         00000098 0010 
    1127 00000099 5663-         QMPYL     ACC,XT,@_gMotorVars+80 ; [CPU_] |564| 
         0000009a 0010 
    1128 0000009b 56A7          LSL64     ACC:P,#8              ; [CPU_] |564| 
    1129 0000009c 07A6          ADDL      ACC,XAR6              ; [CPU_] |564| 
    1130              $C$DW$157       .dwtag  DW_TAG_TI_branch
    1131                      .dwattr $C$DW$157, DW_AT_low_pc(0x00)
    1132                      .dwattr $C$DW$157, DW_AT_name("__IQ24sqrt")
    1133                      .dwattr $C$DW$157, DW_AT_TI_call
    1134 0000009d 7640!         LCR       #__IQ24sqrt           ; [CPU_] |564| 
         0000009e 0000 
    1135                      ; call occurs [#__IQ24sqrt] ; [] |564| 
    1136 0000009f 761F-         MOVW      DP,#_gMotorVars+82    ; [CPU_U] 
         000000a0 0002 
    1137                      .dwpsn  file "C:/ti/motorware/motorware_1_01_00_18/sw/modules/ctrl/src/32b/ctrl.h",line 329,column 3,
    1138 000000a1 BEB2          MOVB      XAR6,#178             ; [CPU_] |329| 
    1139                      .dwpsn  file "C:/ti/motorware/motorware_1_01_00_18/sw/solutions/instaspin_foc/src/proj_lab05h.c",line
    1140 000000a2 1E12-         MOVL      @_gMotorVars+82,ACC   ; [CPU_] |564| 
    1141 000000a3 761F-         MOVW      DP,#_ctrlHandle       ; [CPU_U] 
         000000a4 0000 
    1142                      .dwpsn  file "C:/ti/motorware/motorware_1_01_00_18/sw/modules/ctrl/src/32b/ctrl.h",line 329,column 3,
    1143 000000a5 060C-         MOVL      ACC,@_ctrlHandle      ; [CPU_] |329| 
    1144 000000a6 761F-         MOVW      DP,#_gMotorVars+88    ; [CPU_U] 
         000000a7 0002 
    1145 000000a8 0DA6          ADDU      ACC,AR6               ; [CPU_] |329| 
    1146 000000a9 8AA9          MOVL      XAR4,ACC              ; [CPU_] |329| 
    1147                      .dwpsn  file "C:/ti/motorware/motorware_1_01_00_18/sw/solutions/instaspin_foc/src/proj_lab05h.c",line
    1148 000000aa FF2F          MOV       ACC,#3072 << 15       ; [CPU_] |567| 
         000000ab 0C00 
TMS320C2000 Assembler PC v6.2.5 Wed Jun 21 14:56:42 2017

Tools Copyright (c) 1996-2014 Texas Instruments Incorporated
C:\Users\wmj\AppData\Local\Temp\0692810                              PAGE   24

    1149                      .dwpsn  file "C:/ti/motorware/motorware_1_01_00_18/sw/modules/ctrl/src/32b/ctrl.h",line 329,column 3,
    1150 000000ac 87C4          MOVL      XT,*+XAR4[0]          ; [CPU_] |329| 
    1151                      .dwpsn  file "C:/ti/motorware/motorware_1_01_00_18/sw/solutions/instaspin_foc/src/proj_lab05h.c",line
    1152 000000ad 5605          IMPYL     P,XT,ACC              ; [CPU_] |567| 
         000000ae 00A9 
    1153 000000af 5663          QMPYL     ACC,XT,ACC            ; [CPU_] |567| 
         000000b0 00A9 
    1154 000000b1 56A7          LSL64     ACC:P,#8              ; [CPU_] |567| 
    1155 000000b2 1E18-         MOVL      @_gMotorVars+88,ACC   ; [CPU_] |567| 
    1156                      .dwpsn  file "C:/ti/motorware/motorware_1_01_00_18/sw/solutions/instaspin_foc/src/proj_lab05h.c",line
    1157 000000b3 FF2F          MOV       ACC,#3072 << 15       ; [CPU_] |568| 
         000000b4 0C00 
    1158                      .dwpsn  file "C:/ti/motorware/motorware_1_01_00_18/sw/modules/ctrl/src/32b/ctrl.h",line 396,column 3,
    1159 000000b5 87D4          MOVL      XT,*+XAR4[2]          ; [CPU_] |396| 
    1160                      .dwpsn  file "C:/ti/motorware/motorware_1_01_00_18/sw/solutions/instaspin_foc/src/proj_lab05h.c",line
    1161 000000b6 5605          IMPYL     P,XT,ACC              ; [CPU_] |568| 
         000000b7 00A9 
    1162 000000b8 5663          QMPYL     ACC,XT,ACC            ; [CPU_] |568| 
         000000b9 00A9 
    1163 000000ba 56A7          LSL64     ACC:P,#8              ; [CPU_] |568| 
    1164 000000bb 1E1A-         MOVL      @_gMotorVars+90,ACC   ; [CPU_] |568| 
    1165                      .dwpsn  file "C:/ti/motorware/motorware_1_01_00_18/sw/solutions/instaspin_foc/src/proj_lab05h.c",line
    1166 000000bc 8718-         MOVL      XT,@_gMotorVars+88    ; [CPU_] |571| 
    1167 000000bd 5605-         IMPYL     P,XT,@_gMotorVars+88  ; [CPU_] |571| 
         000000be 0018 
    1168 000000bf 5663-         QMPYL     ACC,XT,@_gMotorVars+88 ; [CPU_] |571| 
         000000c0 0018 
    1169 000000c1 56A7          LSL64     ACC:P,#8              ; [CPU_] |571| 
    1170 000000c2 871A-         MOVL      XT,@_gMotorVars+90    ; [CPU_] |571| 
    1171 000000c3 1EA6          MOVL      XAR6,ACC              ; [CPU_] |571| 
    1172 000000c4 5605-         IMPYL     P,XT,@_gMotorVars+90  ; [CPU_] |571| 
         000000c5 001A 
    1173 000000c6 5663-         QMPYL     ACC,XT,@_gMotorVars+90 ; [CPU_] |571| 
         000000c7 001A 
    1174 000000c8 56A7          LSL64     ACC:P,#8              ; [CPU_] |571| 
    1175 000000c9 07A6          ADDL      ACC,XAR6              ; [CPU_] |571| 
    1176              $C$DW$158       .dwtag  DW_TAG_TI_branch
    1177                      .dwattr $C$DW$158, DW_AT_low_pc(0x00)
    1178                      .dwattr $C$DW$158, DW_AT_name("__IQ24sqrt")
    1179                      .dwattr $C$DW$158, DW_AT_TI_call
    1180 000000ca 7640!         LCR       #__IQ24sqrt           ; [CPU_] |571| 
         000000cb 0000 
    1181                      ; call occurs [#__IQ24sqrt] ; [] |571| 
    1182 000000cc 761F-         MOVW      DP,#_gMotorVars+92    ; [CPU_U] 
         000000cd 0002 
    1183 000000ce 1E1C-         MOVL      @_gMotorVars+92,ACC   ; [CPU_] |571| 
    1184 000000cf 761F-         MOVW      DP,#_gAdcData+12      ; [CPU_U] 
         000000d0 0000 
    1185                      .dwpsn  file "C:/ti/motorware/motorware_1_01_00_18/sw/solutions/instaspin_foc/src/proj_lab05h.c",line
    1186 000000d1 28A9          MOV       AL,#13107             ; [CPU_] |574| 
         000000d2 3333 
    1187 000000d3 9B73          MOV       AH,#115               ; [CPU_] |574| 
    1188 000000d4 8730-         MOVL      XT,@_gAdcData+12      ; [CPU_] |574| 
    1189 000000d5 5605          IMPYL     P,XT,ACC              ; [CPU_] |574| 
         000000d6 00A9 
TMS320C2000 Assembler PC v6.2.5 Wed Jun 21 14:56:42 2017

Tools Copyright (c) 1996-2014 Texas Instruments Incorporated
C:\Users\wmj\AppData\Local\Temp\0692810                              PAGE   25

    1190 000000d7 FE82          SUBB      SP,#2                 ; [CPU_U] 
    1191                      .dwcfi  cfa_offset, -6
    1192 000000d8 5663          QMPYL     ACC,XT,ACC            ; [CPU_] |574| 
         000000d9 00A9 
    1193 000000da 86BE          MOVL      XAR2,*--SP            ; [CPU_] 
    1194                      .dwcfi  cfa_offset, -4
    1195                      .dwcfi  restore_reg, 9
    1196 000000db 56A7          LSL64     ACC:P,#8              ; [CPU_] |574| 
    1197 000000dc 8BBE          MOVL      XAR1,*--SP            ; [CPU_] 
    1198                      .dwcfi  cfa_offset, -2
    1199                      .dwcfi  restore_reg, 7
    1200 000000dd 761F-         MOVW      DP,#_gMotorVars+86    ; [CPU_U] 
         000000de 0002 
    1201 000000df 1E16-         MOVL      @_gMotorVars+86,ACC   ; [CPU_] |574| 
    1202              $C$DW$159       .dwtag  DW_TAG_TI_branch
    1203                      .dwattr $C$DW$159, DW_AT_low_pc(0x00)
    1204                      .dwattr $C$DW$159, DW_AT_TI_return
    1205 000000e0 0006          LRETR     ; [CPU_] 
    1206                      ; return occurs ; [] 
    1207                      .dwattr $C$DW$143, DW_AT_TI_end_file("C:/ti/motorware/motorware_1_01_00_18/sw/solutions/instaspin_foc
    1208                      .dwattr $C$DW$143, DW_AT_TI_end_line(0x241)
    1209                      .dwattr $C$DW$143, DW_AT_TI_end_column(0x01)
    1210                      .dwendentry
    1211                      .dwendtag $C$DW$143
    1212              
    1213 00000000               .sect   "ramfuncs:retain"
    1214                      .retain
    1215                      .retainrefs
    1216                      .global _mainISR
    1217              
    1218              $C$DW$160       .dwtag  DW_TAG_subprogram, DW_AT_name("mainISR")
    1219                      .dwattr $C$DW$160, DW_AT_low_pc(_mainISR)
    1220                      .dwattr $C$DW$160, DW_AT_high_pc(0x00)
    1221                      .dwattr $C$DW$160, DW_AT_TI_symbol_name("_mainISR")
    1222                      .dwattr $C$DW$160, DW_AT_external
    1223                      .dwattr $C$DW$160, DW_AT_TI_begin_file("C:/ti/motorware/motorware_1_01_00_18/sw/solutions/instaspin_f
    1224                      .dwattr $C$DW$160, DW_AT_TI_begin_line(0x1e7)
    1225                      .dwattr $C$DW$160, DW_AT_TI_begin_column(0x10)
    1226                      .dwattr $C$DW$160, DW_AT_TI_interrupt
    1227                      .dwattr $C$DW$160, DW_AT_TI_max_frame_size(-20)
    1228                      .dwpsn  file "C:/ti/motorware/motorware_1_01_00_18/sw/solutions/instaspin_foc/src/proj_lab05h.c",line
    1229              
    1230                      .dwfde $C$DW$CIE, _mainISR
    1231              
    1232              ;***************************************************************
    1233              ;* FNAME: _mainISR                      FR SIZE:  18           *
    1234              ;*                                                             *
    1235              ;* FUNCTION ENVIRONMENT                                        *
    1236              ;*                                                             *
    1237              ;* FUNCTION PROPERTIES                                         *
    1238              ;*                            4 Parameter,  0 Auto, 14 SOE     *
    1239              ;***************************************************************
    1240              
    1241              _mainISR:
    1242              ;* AR5   assigned to $O$C2
TMS320C2000 Assembler PC v6.2.5 Wed Jun 21 14:56:42 2017

Tools Copyright (c) 1996-2014 Texas Instruments Incorporated
C:\Users\wmj\AppData\Local\Temp\0692810                              PAGE   26

    1243              ;* AR5   assigned to $O$C3
    1244              ;* AR4   assigned to $O$C4
    1245              ;* AR0   assigned to $O$C5
    1246              ;* AR1   assigned to $O$C6
    1247              ;* AR7   assigned to $O$C7
    1248              ;* AR6   assigned to $O$C8
    1249              ;* AR4   assigned to $O$C9
    1250              ;* AR7   assigned to $O$C10
    1251              ;* AR6   assigned to $O$C11
    1252              ;* XT    assigned to _value
    1253              $C$DW$161       .dwtag  DW_TAG_variable, DW_AT_name("value")
    1254                      .dwattr $C$DW$161, DW_AT_TI_symbol_name("_value")
    1255                      .dwattr $C$DW$161, DW_AT_type(*$C$DW$T$31)
    1256                      .dwattr $C$DW$161, DW_AT_location[DW_OP_reg21]
    1257              ;* XT    assigned to _value
    1258              $C$DW$162       .dwtag  DW_TAG_variable, DW_AT_name("value")
    1259                      .dwattr $C$DW$162, DW_AT_TI_symbol_name("_value")
    1260                      .dwattr $C$DW$162, DW_AT_type(*$C$DW$T$31)
    1261                      .dwattr $C$DW$162, DW_AT_location[DW_OP_reg21]
    1262              ;* XT    assigned to _value
    1263              $C$DW$163       .dwtag  DW_TAG_variable, DW_AT_name("value")
    1264                      .dwattr $C$DW$163, DW_AT_TI_symbol_name("_value")
    1265                      .dwattr $C$DW$163, DW_AT_type(*$C$DW$T$31)
    1266                      .dwattr $C$DW$163, DW_AT_location[DW_OP_reg21]
    1267              ;* XT    assigned to _value
    1268              $C$DW$164       .dwtag  DW_TAG_variable, DW_AT_name("value")
    1269                      .dwattr $C$DW$164, DW_AT_TI_symbol_name("_value")
    1270                      .dwattr $C$DW$164, DW_AT_type(*$C$DW$T$31)
    1271                      .dwattr $C$DW$164, DW_AT_location[DW_OP_reg21]
    1272              ;* XT    assigned to _value
    1273              $C$DW$165       .dwtag  DW_TAG_variable, DW_AT_name("value")
    1274                      .dwattr $C$DW$165, DW_AT_TI_symbol_name("_value")
    1275                      .dwattr $C$DW$165, DW_AT_type(*$C$DW$T$31)
    1276                      .dwattr $C$DW$165, DW_AT_location[DW_OP_reg21]
    1277              ;* XT    assigned to _value
    1278              $C$DW$166       .dwtag  DW_TAG_variable, DW_AT_name("value")
    1279                      .dwattr $C$DW$166, DW_AT_TI_symbol_name("_value")
    1280                      .dwattr $C$DW$166, DW_AT_type(*$C$DW$T$31)
    1281                      .dwattr $C$DW$166, DW_AT_location[DW_OP_reg21]
    1282              ;* XT    assigned to _value
    1283              $C$DW$167       .dwtag  DW_TAG_variable, DW_AT_name("value")
    1284                      .dwattr $C$DW$167, DW_AT_TI_symbol_name("_value")
    1285                      .dwattr $C$DW$167, DW_AT_type(*$C$DW$T$31)
    1286                      .dwattr $C$DW$167, DW_AT_location[DW_OP_reg21]
    1287              ;* AR0   assigned to _period
    1288              $C$DW$168       .dwtag  DW_TAG_variable, DW_AT_name("period")
    1289                      .dwattr $C$DW$168, DW_AT_TI_symbol_name("_period")
    1290                      .dwattr $C$DW$168, DW_AT_type(*$C$DW$T$31)
    1291                      .dwattr $C$DW$168, DW_AT_location[DW_OP_reg4]
    1292              ;* AR4   assigned to _obj
    1293              $C$DW$169       .dwtag  DW_TAG_variable, DW_AT_name("obj")
    1294                      .dwattr $C$DW$169, DW_AT_TI_symbol_name("_obj")
    1295                      .dwattr $C$DW$169, DW_AT_type(*$C$DW$T$221)
    1296                      .dwattr $C$DW$169, DW_AT_location[DW_OP_reg12]
    1297              ;* AR6   assigned to $O$L1
TMS320C2000 Assembler PC v6.2.5 Wed Jun 21 14:56:42 2017

Tools Copyright (c) 1996-2014 Texas Instruments Incorporated
C:\Users\wmj\AppData\Local\Temp\0692810                              PAGE   27

    1298              ;* AR4   assigned to $O$U95
    1299              ;* AR7   assigned to $O$U110
    1300              ;* AR4   assigned to $O$U96
    1301                      .dwcfi  cfa_offset, -2
    1302                      .dwcfi  save_reg_to_mem, 26, 0
    1303                      .dwcfi  save_reg_to_reg, 78, 26
    1304 00000000 761B          ASP       ; [CPU_] 
    1305 00000001 0005          PUSH      AR1H:AR0H             ; [CPU_] 
    1306                      .dwcfi  save_reg_to_mem, 5, 2
    1307                      .dwcfi  save_reg_to_mem, 7, 3
    1308                      .dwcfi  cfa_offset, -4
    1309 00000002 ABBD          MOVL      *SP++,XT              ; [CPU_] 
    1310                      .dwcfi  save_reg_to_mem, 21, 4
    1311                      .dwcfi  save_reg_to_mem, 22, 5
    1312                      .dwcfi  cfa_offset, -6
    1313 00000003 AABD          MOVL      *SP++,XAR2            ; [CPU_] 
    1314                      .dwcfi  save_reg_to_mem, 8, 6
    1315                      .dwcfi  save_reg_to_mem, 9, 7
    1316                      .dwcfi  cfa_offset, -8
    1317 00000004 A8BD          MOVL      *SP++,XAR4            ; [CPU_] 
    1318                      .dwcfi  save_reg_to_mem, 12, 8
    1319                      .dwcfi  save_reg_to_mem, 13, 9
    1320                      .dwcfi  cfa_offset, -10
    1321 00000005 A0BD          MOVL      *SP++,XAR5            ; [CPU_] 
    1322                      .dwcfi  save_reg_to_mem, 14, 10
    1323                      .dwcfi  save_reg_to_mem, 15, 11
    1324                      .dwcfi  cfa_offset, -12
    1325 00000006 C2BD          MOVL      *SP++,XAR6            ; [CPU_] 
    1326                      .dwcfi  save_reg_to_mem, 16, 12
    1327                      .dwcfi  save_reg_to_mem, 17, 13
    1328                      .dwcfi  cfa_offset, -14
    1329 00000007 C3BD          MOVL      *SP++,XAR7            ; [CPU_] 
    1330                      .dwcfi  save_reg_to_mem, 18, 14
    1331                      .dwcfi  save_reg_to_mem, 19, 15
    1332                      .dwcfi  cfa_offset, -16
    1333 00000008 FE04          ADDB      SP,#4                 ; [CPU_U] 
    1334                      .dwcfi  cfa_offset, -20
    1335 00000009 FF69          SPM       0                     ; [CPU_] 
    1336 0000000a 2942          CLRC      PAGE0,OVM             ; [CPU_] 
    1337 0000000b 5616          CLRC      AMODE                 ; [CPU_] 
    1338 0000000c 761F-         MOVW      DP,#_gLEDcnt          ; [CPU_U] 
         0000000d 0000 
    1339                      .dwpsn  file "C:/ti/motorware/motorware_1_01_00_18/sw/solutions/instaspin_foc/src/proj_lab05h.c",line
    1340 0000000e 0A02-         INC       @_gLEDcnt             ; [CPU_] |490| 
    1341 0000000f 1B02-         CMP       @_gLEDcnt,#3000       ; [CPU_] |490| 
         00000010 0BB8 
    1342 00000011 680A          B         $C$L2,LO              ; [CPU_] |490| 
    1343                      ; branchcc occurs ; [] |490| 
    1344                      .dwpsn  file "C:/ti/motorware/motorware_1_01_00_18/sw/modules/hal/boards/drv8312kit_revD/f28x/f2802x/
    1345 00000012 8A0A-         MOVL      XAR4,@_halHandle      ; [CPU_] |737| 
    1346 00000013 D008          MOVB      XAR0,#8               ; [CPU_] |737| 
    1347 00000014 9A0C          MOVB      AL,#12                ; [CPU_] |737| 
    1348 00000015 8A94          MOVL      XAR4,*+XAR4[AR0]      ; [CPU_] |737| 
    1349              $C$DW$170       .dwtag  DW_TAG_TI_branch
    1350                      .dwattr $C$DW$170, DW_AT_low_pc(0x00)
TMS320C2000 Assembler PC v6.2.5 Wed Jun 21 14:56:42 2017

Tools Copyright (c) 1996-2014 Texas Instruments Incorporated
C:\Users\wmj\AppData\Local\Temp\0692810                              PAGE   28

    1351                      .dwattr $C$DW$170, DW_AT_name("_GPIO_toggle")
    1352                      .dwattr $C$DW$170, DW_AT_TI_call
    1353 00000016 7640!         LCR       #_GPIO_toggle         ; [CPU_] |737| 
         00000017 0000 
    1354                      ; call occurs [#_GPIO_toggle] ; [] |737| 
    1355 00000018 761F-         MOVW      DP,#_gLEDcnt          ; [CPU_U] 
         00000019 0000 
    1356                      .dwpsn  file "C:/ti/motorware/motorware_1_01_00_18/sw/solutions/instaspin_foc/src/proj_lab05h.c",line
    1357 0000001a 2B02-         MOV       @_gLEDcnt,#0          ; [CPU_] |493| 
    1358 0000001b       $C$L2:    
    1359                      .dwpsn  file "C:/ti/motorware/motorware_1_01_00_18/sw/modules/hal/boards/drv8312kit_revD/f28x/f2802x/
    1360 0000001b 8A0A-         MOVL      XAR4,@_halHandle      ; [CPU_] |170| 
    1361                      .dwpsn  file "C:/ti/motorware/motorware_1_01_00_18/sw/drivers/adc/src/32b/f28x/f2802x/adc.h",line 571
    1362 0000001c 83C4          MOVL      XAR5,*+XAR4[0]        ; [CPU_] |571| 
    1363 0000001d 8D00          MOVL      XAR0,#26117           ; [CPU_] |571| 
         0000001e 6605 
    1364 0000001f 56BF          MOVB      *+XAR5[AR0],#1,UNC    ; [CPU_] |571| 
         00000020 0195 
    1365                      .dwpsn  file "C:/ti/motorware/motorware_1_01_00_18/sw/drivers/pie/src/32b/f28x/f2802x/pie.h",line 757
    1366 00000021 D078          MOVB      XAR0,#120             ; [CPU_] |757| 
    1367 00000022 8A94          MOVL      XAR4,*+XAR4[AR0]      ; [CPU_] |757| 
    1368 00000023 28CC          MOV       *+XAR4[1],#512        ; [CPU_] |757| 
         00000024 0200 
    1369                      .dwpsn  file "C:/ti/motorware/motorware_1_01_00_18/sw/solutions/instaspin_foc/src/proj_lab05h.c",line
    1370 00000025 061A-         MOVL      ACC,@_gStepVars+2     ; [CPU_] |500| 
    1371 00000026 830C-         MOVL      XAR5,@_ctrlHandle     ; [CPU_] |500| 
    1372 00000027 8F00-         MOVL      XAR4,#_gMotorVars     ; [CPU_U] |500| 
         00000028 0040 
    1373 00000029 A842          MOVL      *-SP[2],XAR4          ; [CPU_] |500| 
    1374 0000002a 8F00-         MOVL      XAR4,#_gGraphVars     ; [CPU_U] |500| 
         0000002b 0000 
    1375              $C$DW$171       .dwtag  DW_TAG_TI_branch
    1376                      .dwattr $C$DW$171, DW_AT_low_pc(0x00)
    1377                      .dwattr $C$DW$171, DW_AT_name("_GRAPH_DATA")
    1378                      .dwattr $C$DW$171, DW_AT_TI_call
    1379 0000002c 7640!         LCR       #_GRAPH_DATA          ; [CPU_] |500| 
         0000002d 0000 
    1380                      ; call occurs [#_GRAPH_DATA] ; [] |500| 
    1381 0000002e 761F-         MOVW      DP,#_halHandle        ; [CPU_U] 
         0000002f 0000 
    1382                      .dwpsn  file "C:/ti/motorware/motorware_1_01_00_18/sw/drivers/adc/src/32b/f28x/f2802x/adc.h",line 684
    1383 00000030 830A-         MOVL      XAR5,@_halHandle      ; [CPU_] |684| 
    1384 00000031 8BC5          MOVL      XAR1,*+XAR5[0]        ; [CPU_] |684| 
    1385                      .dwpsn  file "C:/ti/motorware/motorware_1_01_00_18/sw/modules/hal/boards/drv8312kit_revD/f28x/f2802x/
    1386 00000032 D0A0          MOVB      XAR0,#160             ; [CPU_] |490| 
    1387                      .dwpsn  file "C:/ti/motorware/motorware_1_01_00_18/sw/modules/hal/boards/drv8312kit_revD/f28x/f2802x/
    1388 00000033 8F00-         MOVL      XAR4,#_gAdcData       ; [CPU_U] |491| 
         00000034 0024 
    1389                      .dwpsn  file "C:/ti/motorware/motorware_1_01_00_18/sw/drivers/adc/src/32b/f28x/f2802x/adc.h",line 684
    1390 00000035 0EC9          MOVU      ACC,*+XAR1[1]         ; [CPU_] |684| 
    1391 00000036 1EAC          MOVL      XT,ACC                ; [CPU_] |684| 
    1392                      .dwpsn  file "C:/ti/motorware/motorware_1_01_00_18/sw/modules/hal/boards/drv8312kit_revD/f28x/f2802x/
    1393 00000037 0292          MOVB      ACC,#146              ; [CPU_] |490| 
    1394 00000038 07A5          ADDL      ACC,XAR5              ; [CPU_] |490| 
    1395 00000039 1EA6          MOVL      XAR6,ACC              ; [CPU_] |490| 
TMS320C2000 Assembler PC v6.2.5 Wed Jun 21 14:56:42 2017

Tools Copyright (c) 1996-2014 Texas Instruments Incorporated
C:\Users\wmj\AppData\Local\Temp\0692810                              PAGE   29

    1396 0000003a 0695          MOVL      ACC,*+XAR5[AR0]       ; [CPU_] |490| 
    1397 0000003b FF54          NEG       ACC                   ; [CPU_] |490| 
    1398 0000003c 1EA7          MOVL      XAR7,ACC              ; [CPU_] |490| 
    1399 0000003d 5605          IMPYL     P,XT,XAR7             ; [CPU_] |490| 
         0000003e 00A7 
    1400 0000003f 5663          QMPYL     ACC,XT,XAR7           ; [CPU_] |490| 
         00000040 00A7 
    1401 00000041 568B          ASR64     ACC:P,#12             ; [CPU_] |490| 
    1402 00000042 A9A9          MOVL      ACC,P                 ; [CPU_] |490| 
    1403 00000043 03C6          SUBL      ACC,*+XAR6[0]         ; [CPU_] |490| 
    1404                      .dwpsn  file "C:/ti/motorware/motorware_1_01_00_18/sw/modules/hal/boards/drv8312kit_revD/f28x/f2802x/
    1405 00000044 1EC4          MOVL      *+XAR4[0],ACC         ; [CPU_] |491| 
    1406                      .dwpsn  file "C:/ti/motorware/motorware_1_01_00_18/sw/drivers/adc/src/32b/f28x/f2802x/adc.h",line 684
    1407 00000045 0ED1          MOVU      ACC,*+XAR1[2]         ; [CPU_] |684| 
    1408 00000046 1EAC          MOVL      XT,ACC                ; [CPU_] |684| 
    1409                      .dwpsn  file "C:/ti/motorware/motorware_1_01_00_18/sw/modules/hal/boards/drv8312kit_revD/f28x/f2802x/
    1410 00000047 5663          QMPYL     ACC,XT,XAR7           ; [CPU_] |495| 
         00000048 00A7 
    1411 00000049 5605          IMPYL     P,XT,XAR7             ; [CPU_] |495| 
         0000004a 00A7 
    1412 0000004b 568B          ASR64     ACC:P,#12             ; [CPU_] |495| 
    1413 0000004c A9A9          MOVL      ACC,P                 ; [CPU_] |495| 
    1414 0000004d 03D6          SUBL      ACC,*+XAR6[2]         ; [CPU_] |495| 
    1415                      .dwpsn  file "C:/ti/motorware/motorware_1_01_00_18/sw/modules/hal/boards/drv8312kit_revD/f28x/f2802x/
    1416 0000004e 1ED4          MOVL      *+XAR4[2],ACC         ; [CPU_] |496| 
    1417                      .dwpsn  file "C:/ti/motorware/motorware_1_01_00_18/sw/drivers/adc/src/32b/f28x/f2802x/adc.h",line 684
    1418 0000004f 0ED9          MOVU      ACC,*+XAR1[3]         ; [CPU_] |684| 
    1419 00000050 1EAC          MOVL      XT,ACC                ; [CPU_] |684| 
    1420                      .dwpsn  file "C:/ti/motorware/motorware_1_01_00_18/sw/modules/hal/boards/drv8312kit_revD/f28x/f2802x/
    1421 00000051 5663          QMPYL     ACC,XT,XAR7           ; [CPU_] |500| 
         00000052 00A7 
    1422 00000053 5605          IMPYL     P,XT,XAR7             ; [CPU_] |500| 
         00000054 00A7 
    1423 00000055 568B          ASR64     ACC:P,#12             ; [CPU_] |500| 
    1424                      .dwpsn  file "C:/ti/motorware/motorware_1_01_00_18/sw/modules/hal/boards/drv8312kit_revD/f28x/f2802x/
    1425 00000056 C5A4          MOVL      XAR7,XAR4             ; [CPU_] |506| 
    1426                      .dwpsn  file "C:/ti/motorware/motorware_1_01_00_18/sw/modules/hal/boards/drv8312kit_revD/f28x/f2802x/
    1427 00000057 D0A2          MOVB      XAR0,#162             ; [CPU_] |505| 
    1428                      .dwpsn  file "C:/ti/motorware/motorware_1_01_00_18/sw/modules/hal/boards/drv8312kit_revD/f28x/f2802x/
    1429 00000058 A9A9          MOVL      ACC,P                 ; [CPU_] |500| 
    1430 00000059 03E6          SUBL      ACC,*+XAR6[4]         ; [CPU_] |500| 
    1431                      .dwpsn  file "C:/ti/motorware/motorware_1_01_00_18/sw/modules/hal/boards/drv8312kit_revD/f28x/f2802x/
    1432 0000005a DF06          ADDB      XAR7,#6               ; [CPU_] |506| 
    1433                      .dwpsn  file "C:/ti/motorware/motorware_1_01_00_18/sw/modules/hal/boards/drv8312kit_revD/f28x/f2802x/
    1434 0000005b 1EE4          MOVL      *+XAR4[4],ACC         ; [CPU_] |501| 
    1435                      .dwpsn  file "C:/ti/motorware/motorware_1_01_00_18/sw/modules/hal/boards/drv8312kit_revD/f28x/f2802x/
    1436 0000005c 8E95          MOVL      XAR0,*+XAR5[AR0]      ; [CPU_] |505| 
    1437                      .dwpsn  file "C:/ti/motorware/motorware_1_01_00_18/sw/drivers/adc/src/32b/f28x/f2802x/adc.h",line 684
    1438 0000005d 0EE1          MOVU      ACC,*+XAR1[4]         ; [CPU_] |684| 
    1439 0000005e 1EAC          MOVL      XT,ACC                ; [CPU_] |684| 
    1440                      .dwpsn  file "C:/ti/motorware/motorware_1_01_00_18/sw/modules/hal/boards/drv8312kit_revD/f28x/f2802x/
    1441 0000005f 0298          MOVB      ACC,#152              ; [CPU_] |505| 
    1442 00000060 07A5          ADDL      ACC,XAR5              ; [CPU_] |505| 
    1443 00000061 5605          IMPYL     P,XT,XAR0             ; [CPU_] |505| 
         00000062 00A0 
TMS320C2000 Assembler PC v6.2.5 Wed Jun 21 14:56:42 2017

Tools Copyright (c) 1996-2014 Texas Instruments Incorporated
C:\Users\wmj\AppData\Local\Temp\0692810                              PAGE   30

    1444 00000063 1EA6          MOVL      XAR6,ACC              ; [CPU_] |505| 
    1445 00000064 5663          QMPYL     ACC,XT,XAR0           ; [CPU_] |505| 
         00000065 00A0 
    1446 00000066 568B          ASR64     ACC:P,#12             ; [CPU_] |505| 
    1447 00000067 A9A9          MOVL      ACC,P                 ; [CPU_] |505| 
    1448 00000068 03C6          SUBL      ACC,*+XAR6[0]         ; [CPU_] |505| 
    1449                      .dwpsn  file "C:/ti/motorware/motorware_1_01_00_18/sw/modules/hal/boards/drv8312kit_revD/f28x/f2802x/
    1450 00000069 1EC7          MOVL      *+XAR7[0],ACC         ; [CPU_] |506| 
    1451                      .dwpsn  file "C:/ti/motorware/motorware_1_01_00_18/sw/drivers/adc/src/32b/f28x/f2802x/adc.h",line 684
    1452 0000006a 0EE9          MOVU      ACC,*+XAR1[5]         ; [CPU_] |684| 
    1453 0000006b 1EAC          MOVL      XT,ACC                ; [CPU_] |684| 
    1454                      .dwpsn  file "C:/ti/motorware/motorware_1_01_00_18/sw/modules/hal/boards/drv8312kit_revD/f28x/f2802x/
    1455 0000006c 5663          QMPYL     ACC,XT,XAR0           ; [CPU_] |510| 
         0000006d 00A0 
    1456 0000006e 5605          IMPYL     P,XT,XAR0             ; [CPU_] |510| 
         0000006f 00A0 
    1457 00000070 568B          ASR64     ACC:P,#12             ; [CPU_] |510| 
    1458 00000071 A9A9          MOVL      ACC,P                 ; [CPU_] |510| 
    1459 00000072 03D6          SUBL      ACC,*+XAR6[2]         ; [CPU_] |510| 
    1460                      .dwpsn  file "C:/ti/motorware/motorware_1_01_00_18/sw/modules/hal/boards/drv8312kit_revD/f28x/f2802x/
    1461 00000073 1ED7          MOVL      *+XAR7[2],ACC         ; [CPU_] |511| 
    1462                      .dwpsn  file "C:/ti/motorware/motorware_1_01_00_18/sw/drivers/adc/src/32b/f28x/f2802x/adc.h",line 684
    1463 00000074 0EF1          MOVU      ACC,*+XAR1[6]         ; [CPU_] |684| 
    1464 00000075 1EAC          MOVL      XT,ACC                ; [CPU_] |684| 
    1465                      .dwpsn  file "C:/ti/motorware/motorware_1_01_00_18/sw/modules/hal/boards/drv8312kit_revD/f28x/f2802x/
    1466 00000076 5663          QMPYL     ACC,XT,XAR0           ; [CPU_] |515| 
         00000077 00A0 
    1467 00000078 5605          IMPYL     P,XT,XAR0             ; [CPU_] |515| 
         00000079 00A0 
    1468 0000007a 568B          ASR64     ACC:P,#12             ; [CPU_] |515| 
    1469 0000007b A9A9          MOVL      ACC,P                 ; [CPU_] |515| 
    1470 0000007c 03E6          SUBL      ACC,*+XAR6[4]         ; [CPU_] |515| 
    1471                      .dwpsn  file "C:/ti/motorware/motorware_1_01_00_18/sw/modules/hal/boards/drv8312kit_revD/f28x/f2802x/
    1472 0000007d 1EE7          MOVL      *+XAR7[4],ACC         ; [CPU_] |516| 
    1473                      .dwpsn  file "C:/ti/motorware/motorware_1_01_00_18/sw/drivers/adc/src/32b/f28x/f2802x/adc.h",line 684
    1474 0000007e 0EF9          MOVU      ACC,*+XAR1[7]         ; [CPU_] |684| 
    1475 0000007f 1EAC          MOVL      XT,ACC                ; [CPU_] |684| 
    1476                      .dwpsn  file "C:/ti/motorware/motorware_1_01_00_18/sw/modules/hal/boards/drv8312kit_revD/f28x/f2802x/
    1477 00000080 5663          QMPYL     ACC,XT,XAR0           ; [CPU_] |520| 
         00000081 00A0 
    1478 00000082 5605          IMPYL     P,XT,XAR0             ; [CPU_] |520| 
         00000083 00A0 
    1479                      .dwpsn  file "C:/ti/motorware/motorware_1_01_00_18/sw/modules/hal/boards/drv8312kit_revD/f28x/f2802x/
    1480 00000084 D00C          MOVB      XAR0,#12              ; [CPU_] |521| 
    1481                      .dwpsn  file "C:/ti/motorware/motorware_1_01_00_18/sw/modules/hal/boards/drv8312kit_revD/f28x/f2802x/
    1482 00000085 568B          ASR64     ACC:P,#12             ; [CPU_] |520| 
    1483                      .dwpsn  file "C:/ti/motorware/motorware_1_01_00_18/sw/modules/hal/boards/drv8312kit_revD/f28x/f2802x/
    1484 00000086 A994          MOVL      *+XAR4[AR0],P         ; [CPU_] |521| 
    1485                      .dwpsn  file "C:/ti/motorware/motorware_1_01_00_18/sw/solutions/instaspin_foc/src/proj_lab05h.c",line
    1486 00000087 A842          MOVL      *-SP[2],XAR4          ; [CPU_] |506| 
    1487 00000088 8F00-         MOVL      XAR4,#_gPwmData       ; [CPU_U] |506| 
         00000089 0012 
    1488 0000008a A844          MOVL      *-SP[4],XAR4          ; [CPU_] |506| 
    1489 0000008b 8A0C-         MOVL      XAR4,@_ctrlHandle     ; [CPU_] |506| 
    1490              $C$DW$172       .dwtag  DW_TAG_TI_branch
TMS320C2000 Assembler PC v6.2.5 Wed Jun 21 14:56:42 2017

Tools Copyright (c) 1996-2014 Texas Instruments Incorporated
C:\Users\wmj\AppData\Local\Temp\0692810                              PAGE   31

    1491                      .dwattr $C$DW$172, DW_AT_low_pc(0x00)
    1492                      .dwattr $C$DW$172, DW_AT_name("_CTRL_run")
    1493                      .dwattr $C$DW$172, DW_AT_TI_call
    1494 0000008c 7640!         LCR       #_CTRL_run            ; [CPU_] |506| 
         0000008d 0000 
    1495                      ; call occurs [#_CTRL_run] ; [] |506| 
    1496 0000008e 761F-         MOVW      DP,#_halHandle        ; [CPU_U] 
         0000008f 0000 
    1497 00000090 BE02          MOVB      XAR6,#2               ; [CPU_] 
    1498 00000091 3B01          SETC      SXM                   ; [CPU_] 
    1499 00000092 76C0-         MOVL      XAR7,#_gPwmData       ; [CPU_U] 
         00000093 0012 
    1500 00000094 060A-         MOVL      ACC,@_halHandle       ; [CPU_] 
    1501 00000095 097C          ADDB      ACC,#124              ; [CPU_] 
    1502 00000096 8AA9          MOVL      XAR4,ACC              ; [CPU_] 
    1503 00000097       $C$L3:    
    1504                      .dwpsn  file "C:/ti/motorware/motorware_1_01_00_18/sw/modules/hal/boards/drv8312kit_revD/f28x/f2802x/
    1505 00000097 83C4          MOVL      XAR5,*+XAR4[0]        ; [CPU_] |1030| 
    1506                      .dwpsn  file "C:/ti/motorware/motorware_1_01_00_18/sw/drivers/pwm/src/32b/f28x/f2802x/pwm.h",line 171
    1507 00000098 FF2F          MOV       ACC,#-512 << 15       ; [CPU_] |1717| 
         00000099 FE00 
    1508 0000009a 8787          MOVL      XT,*XAR7++            ; [CPU_] |1717| 
    1509 0000009b 5605          IMPYL     P,XT,ACC              ; [CPU_] |1717| 
         0000009c 00A9 
    1510                      .dwpsn  file "C:/ti/motorware/motorware_1_01_00_18/sw/modules/hal/boards/drv8312kit_revD/f28x/f2802x/
    1511 0000009d 58ED          MOVZ      AR0,*+XAR5[5]         ; [CPU_] |1030| 
    1512                      .dwpsn  file "C:/ti/motorware/motorware_1_01_00_18/sw/drivers/pwm/src/32b/f28x/f2802x/pwm.h",line 171
    1513 0000009e 5663          QMPYL     ACC,XT,ACC            ; [CPU_] |1717| 
         0000009f 00A9 
    1514                      .dwpsn  file "C:/ti/motorware/motorware_1_01_00_18/sw/modules/hal/boards/drv8312kit_revD/f28x/f2802x/
    1515 000000a0 DC02          ADDB      XAR4,#2               ; [CPU_] |1027| 
    1516                      .dwpsn  file "C:/ti/motorware/motorware_1_01_00_18/sw/drivers/pwm/src/32b/f28x/f2802x/pwm.h",line 171
    1517 000000a1 56A7          LSL64     ACC:P,#8              ; [CPU_] |1717| 
    1518 000000a2 2BAB          MOV       PL,#0                 ; [CPU_] |1717| 
    1519 000000a3 28AA          MOV       PH,#128               ; [CPU_] |1717| 
         000000a4 0080 
    1520 000000a5 A9A2          MOVL      XAR2,P                ; [CPU_] |1717| 
    1521 000000a6 2BAB          MOV       PL,#0                 ; [CPU_] |1717| 
    1522 000000a7 28AA          MOV       PH,#65408             ; [CPU_] |1717| 
         000000a8 FF80 
    1523 000000a9 5650          MINL      ACC,XAR2              ; [CPU_] |1717| 
         000000aa 00A2 
    1524 000000ab 5661          MAXL      ACC,P                 ; [CPU_] |1717| 
         000000ac 00AB 
    1525 000000ad FF1F          ADD       ACC,#256 << 15        ; [CPU_] |1717| 
         000000ae 0100 
    1526 000000af 1EAC          MOVL      XT,ACC                ; [CPU_] |1717| 
    1527 000000b0 5605          IMPYL     P,XT,XAR0             ; [CPU_] |1717| 
         000000b1 00A0 
    1528 000000b2 5663          QMPYL     ACC,XT,XAR0           ; [CPU_] |1717| 
         000000b3 00A0 
    1529 000000b4 56A7          LSL64     ACC:P,#8              ; [CPU_] |1717| 
    1530 000000b5 3100          MOV       P,#0                  ; [CPU_] |1717| 
    1531 000000b6 5650          MINL      ACC,XAR0              ; [CPU_] |1717| 
         000000b7 00A0 
TMS320C2000 Assembler PC v6.2.5 Wed Jun 21 14:56:42 2017

Tools Copyright (c) 1996-2014 Texas Instruments Incorporated
C:\Users\wmj\AppData\Local\Temp\0692810                              PAGE   32

    1532 000000b8 D009          MOVB      XAR0,#9               ; [CPU_] |1717| 
    1533 000000b9 5661          MAXL      ACC,P                 ; [CPU_] |1717| 
         000000ba 00AB 
    1534 000000bb 9695          MOV       *+XAR5[AR0],AL        ; [CPU_] |1717| 
    1535                      .dwpsn  file "C:/ti/motorware/motorware_1_01_00_18/sw/modules/hal/boards/drv8312kit_revD/f28x/f2802x/
    1536 000000bc 000E          BANZ      $C$L3,AR6--           ; [CPU_] |1027| 
         000000bd FFDB 
    1537                      ; branchcc occurs ; [] |1027| 
    1538 000000be 761F-         MOVW      DP,#_ctrlHandle       ; [CPU_U] 
         000000bf 0000 
    1539                      .dwpsn  file "C:/ti/motorware/motorware_1_01_00_18/sw/solutions/instaspin_foc/src/proj_lab05h.c",line
    1540 000000c0 8A0C-         MOVL      XAR4,@_ctrlHandle     ; [CPU_] |513| 
    1541              $C$DW$173       .dwtag  DW_TAG_TI_branch
    1542                      .dwattr $C$DW$173, DW_AT_low_pc(0x00)
    1543                      .dwattr $C$DW$173, DW_AT_name("_CTRL_setup")
    1544                      .dwattr $C$DW$173, DW_AT_TI_call
    1545 000000c1 7640!         LCR       #_CTRL_setup          ; [CPU_] |513| 
         000000c2 0000 
    1546                      ; call occurs [#_CTRL_setup] ; [] |513| 
    1547 000000c3 FE84          SUBB      SP,#4                 ; [CPU_U] 
    1548                      .dwcfi  cfa_offset, -16
    1549 000000c4 C5BE          MOVL      XAR7,*--SP            ; [CPU_] 
    1550                      .dwcfi  cfa_offset, -14
    1551                      .dwcfi  restore_reg, 18
    1552 000000c5 C4BE          MOVL      XAR6,*--SP            ; [CPU_] 
    1553                      .dwcfi  cfa_offset, -12
    1554                      .dwcfi  restore_reg, 16
    1555 000000c6 83BE          MOVL      XAR5,*--SP            ; [CPU_] 
    1556                      .dwcfi  cfa_offset, -10
    1557                      .dwcfi  restore_reg, 14
    1558 000000c7 8ABE          MOVL      XAR4,*--SP            ; [CPU_] 
    1559                      .dwcfi  cfa_offset, -8
    1560                      .dwcfi  restore_reg, 12
    1561 000000c8 86BE          MOVL      XAR2,*--SP            ; [CPU_] 
    1562                      .dwcfi  cfa_offset, -6
    1563                      .dwcfi  restore_reg, 8
    1564 000000c9 87BE          MOVL      XT,*--SP              ; [CPU_] 
    1565                      .dwcfi  cfa_offset, -4
    1566                      .dwcfi  restore_reg, 22
    1567                      .dwcfi  restore_reg, 21
    1568 000000ca 0003          POP       AR1H:AR0H             ; [CPU_] 
    1569                      .dwcfi  cfa_offset, -2
    1570                      .dwcfi  restore_reg, 5
    1571                      .dwcfi  restore_reg, 7
    1572 000000cb 7617          NASP      ; [CPU_] 
    1573              $C$DW$174       .dwtag  DW_TAG_TI_branch
    1574                      .dwattr $C$DW$174, DW_AT_low_pc(0x00)
    1575                      .dwattr $C$DW$174, DW_AT_TI_return
    1576 000000cc 7602          IRET      ; [CPU_] 
    1577                      ; return occurs ; [] 
    1578                      .dwattr $C$DW$160, DW_AT_TI_end_file("C:/ti/motorware/motorware_1_01_00_18/sw/solutions/instaspin_foc
    1579                      .dwattr $C$DW$160, DW_AT_TI_end_line(0x204)
    1580                      .dwattr $C$DW$160, DW_AT_TI_end_column(0x01)
    1581                      .dwendentry
    1582                      .dwendtag $C$DW$160
TMS320C2000 Assembler PC v6.2.5 Wed Jun 21 14:56:42 2017

Tools Copyright (c) 1996-2014 Texas Instruments Incorporated
C:\Users\wmj\AppData\Local\Temp\0692810                              PAGE   33

    1583              
    1584 000000e1               .sect   ".text"
    1585                      .clink
    1586                      .global _GenerateStepResponse
    1587              
    1588              $C$DW$175       .dwtag  DW_TAG_subprogram, DW_AT_name("GenerateStepResponse")
    1589                      .dwattr $C$DW$175, DW_AT_low_pc(_GenerateStepResponse)
    1590                      .dwattr $C$DW$175, DW_AT_high_pc(0x00)
    1591                      .dwattr $C$DW$175, DW_AT_TI_symbol_name("_GenerateStepResponse")
    1592                      .dwattr $C$DW$175, DW_AT_external
    1593                      .dwattr $C$DW$175, DW_AT_TI_begin_file("C:/ti/motorware/motorware_1_01_00_18/sw/solutions/instaspin_f
    1594                      .dwattr $C$DW$175, DW_AT_TI_begin_line(0x256)
    1595                      .dwattr $C$DW$175, DW_AT_TI_begin_column(0x06)
    1596                      .dwattr $C$DW$175, DW_AT_TI_max_frame_size(-4)
    1597                      .dwpsn  file "C:/ti/motorware/motorware_1_01_00_18/sw/solutions/instaspin_foc/src/proj_lab05h.c",line
    1598              
    1599                      .dwfde $C$DW$CIE, _GenerateStepResponse
    1600              $C$DW$176       .dwtag  DW_TAG_formal_parameter, DW_AT_name("pGraphVars")
    1601                      .dwattr $C$DW$176, DW_AT_TI_symbol_name("_pGraphVars")
    1602                      .dwattr $C$DW$176, DW_AT_type(*$C$DW$T$211)
    1603                      .dwattr $C$DW$176, DW_AT_location[DW_OP_reg12]
    1604              $C$DW$177       .dwtag  DW_TAG_formal_parameter, DW_AT_name("pMotorVars")
    1605                      .dwattr $C$DW$177, DW_AT_TI_symbol_name("_pMotorVars")
    1606                      .dwattr $C$DW$177, DW_AT_type(*$C$DW$T$232)
    1607                      .dwattr $C$DW$177, DW_AT_location[DW_OP_reg14]
    1608              $C$DW$178       .dwtag  DW_TAG_formal_parameter, DW_AT_name("pStepVars")
    1609                      .dwattr $C$DW$178, DW_AT_TI_symbol_name("_pStepVars")
    1610                      .dwattr $C$DW$178, DW_AT_type(*$C$DW$T$244)
    1611                      .dwattr $C$DW$178, DW_AT_location[DW_OP_breg20 -6]
    1612              
    1613              ;***************************************************************
    1614              ;* FNAME: _GenerateStepResponse         FR SIZE:   2           *
    1615              ;*                                                             *
    1616              ;* FUNCTION ENVIRONMENT                                        *
    1617              ;*                                                             *
    1618              ;* FUNCTION PROPERTIES                                         *
    1619              ;*                            0 Parameter,  0 Auto,  2 SOE     *
    1620              ;***************************************************************
    1621              
    1622              _GenerateStepResponse:
    1623              ;* AR7   assigned to _pStepVars
    1624              $C$DW$179       .dwtag  DW_TAG_variable, DW_AT_name("pStepVars")
    1625                      .dwattr $C$DW$179, DW_AT_TI_symbol_name("_pStepVars")
    1626                      .dwattr $C$DW$179, DW_AT_type(*$C$DW$T$245)
    1627                      .dwattr $C$DW$179, DW_AT_location[DW_OP_reg18]
    1628              ;* AR5   assigned to _pMotorVars
    1629              $C$DW$180       .dwtag  DW_TAG_variable, DW_AT_name("pMotorVars")
    1630                      .dwattr $C$DW$180, DW_AT_TI_symbol_name("_pMotorVars")
    1631                      .dwattr $C$DW$180, DW_AT_type(*$C$DW$T$233)
    1632                      .dwattr $C$DW$180, DW_AT_location[DW_OP_reg14]
    1633              ;* AR4   assigned to _pGraphVars
    1634              $C$DW$181       .dwtag  DW_TAG_variable, DW_AT_name("pGraphVars")
    1635                      .dwattr $C$DW$181, DW_AT_TI_symbol_name("_pGraphVars")
    1636                      .dwattr $C$DW$181, DW_AT_type(*$C$DW$T$212)
    1637                      .dwattr $C$DW$181, DW_AT_location[DW_OP_reg12]
TMS320C2000 Assembler PC v6.2.5 Wed Jun 21 14:56:42 2017

Tools Copyright (c) 1996-2014 Texas Instruments Incorporated
C:\Users\wmj\AppData\Local\Temp\0692810                              PAGE   34

    1638                      .dwcfi  cfa_offset, -2
    1639                      .dwcfi  save_reg_to_mem, 26, 0
    1640                      .dwcfi  save_reg_to_reg, 78, 26
    1641 000000e1 B2BD          MOVL      *SP++,XAR1            ; [CPU_] 
    1642                      .dwcfi  save_reg_to_mem, 7, 2
    1643                      .dwcfi  cfa_offset, -4
    1644 000000e2 C546          MOVL      XAR7,*-SP[6]          ; [CPU_] |599| 
    1645                      .dwpsn  file "C:/ti/motorware/motorware_1_01_00_18/sw/solutions/instaspin_foc/src/proj_lab05h.c",line
    1646 000000e3 92C7          MOV       AL,*+XAR7[0]          ; [CPU_] |602| 
    1647 000000e4 EC16          BF        $C$L6,EQ              ; [CPU_] |602| 
    1648                      ; branchcc occurs ; [] |602| 
    1649 000000e5 D008          MOVB      XAR0,#8               ; [CPU_] |602| 
    1650 000000e6 C494          MOVL      XAR6,*+XAR4[AR0]      ; [CPU_] |602| 
    1651 000000e7 0201          MOVB      ACC,#1                ; [CPU_] |602| 
    1652 000000e8 0FA6          CMPL      ACC,XAR6              ; [CPU_] |602| 
    1653 000000e9 EC08          BF        $C$L4,EQ              ; [CPU_] |602| 
    1654                      ; branchcc occurs ; [] |602| 
    1655 000000ea 0202          MOVB      ACC,#2                ; [CPU_] |602| 
    1656 000000eb 0FA6          CMPL      ACC,XAR6              ; [CPU_] |602| 
    1657 000000ec ED0E          BF        $C$L6,NEQ             ; [CPU_] |602| 
    1658                      ; branchcc occurs ; [] |602| 
    1659                      .dwpsn  file "C:/ti/motorware/motorware_1_01_00_18/sw/solutions/instaspin_foc/src/proj_lab05h.c",line
    1660 000000ed 06F7          MOVL      ACC,*+XAR7[6]         ; [CPU_] |609| 
    1661 000000ee D01A          MOVB      XAR0,#26              ; [CPU_] |609| 
    1662 000000ef 07E7          ADDL      ACC,*+XAR7[4]         ; [CPU_] |609| 
    1663                      .dwpsn  file "C:/ti/motorware/motorware_1_01_00_18/sw/solutions/instaspin_foc/src/proj_lab05h.c",line
    1664 000000f0 6F06          B         $C$L5,UNC             ; [CPU_] |611| 
    1665                      ; branch occurs ; [] |611| 
    1666 000000f1       $C$L4:    
    1667                      .dwpsn  file "C:/ti/motorware/motorware_1_01_00_18/sw/solutions/instaspin_foc/src/proj_lab05h.c",line
    1668 000000f1 D10A          MOVB      XAR1,#10              ; [CPU_] |605| 
    1669 000000f2 D008          MOVB      XAR0,#8               ; [CPU_] |605| 
    1670 000000f3 069F          MOVL      ACC,*+XAR7[AR1]       ; [CPU_] |605| 
    1671 000000f4 0797          ADDL      ACC,*+XAR7[AR0]       ; [CPU_] |605| 
    1672 000000f5 D014          MOVB      XAR0,#20              ; [CPU_] |605| 
    1673 000000f6       $C$L5:    
    1674 000000f6 1E95          MOVL      *+XAR5[AR0],ACC       ; [CPU_] |605| 
    1675                      .dwpsn  file "C:/ti/motorware/motorware_1_01_00_18/sw/solutions/instaspin_foc/src/proj_lab05h.c",line
    1676 000000f7 0201          MOVB      ACC,#1                ; [CPU_] |606| 
    1677 000000f8 5601          ADDL      *+XAR7[2],ACC         ; [CPU_] |606| 
         000000f9 00D7 
    1678 000000fa       $C$L6:    
    1679                      .dwpsn  file "C:/ti/motorware/motorware_1_01_00_18/sw/solutions/instaspin_foc/src/proj_lab05h.c",line
    1680 000000fa 92C7          MOV       AL,*+XAR7[0]          ; [CPU_] |625| 
    1681 000000fb ED14          BF        $C$L9,NEQ             ; [CPU_] |625| 
    1682                      ; branchcc occurs ; [] |625| 
    1683 000000fc FF20          MOV       ACC,#256              ; [CPU_] |625| 
         000000fd 0100 
    1684 000000fe 0FD4          CMPL      ACC,*+XAR4[2]         ; [CPU_] |625| 
    1685 000000ff ED10          BF        $C$L9,NEQ             ; [CPU_] |625| 
    1686                      ; branchcc occurs ; [] |625| 
    1687 00000100 D008          MOVB      XAR0,#8               ; [CPU_] |625| 
    1688 00000101 C494          MOVL      XAR6,*+XAR4[AR0]      ; [CPU_] |625| 
    1689 00000102 0201          MOVB      ACC,#1                ; [CPU_] |625| 
    1690 00000103 0FA6          CMPL      ACC,XAR6              ; [CPU_] |625| 
TMS320C2000 Assembler PC v6.2.5 Wed Jun 21 14:56:42 2017

Tools Copyright (c) 1996-2014 Texas Instruments Incorporated
C:\Users\wmj\AppData\Local\Temp\0692810                              PAGE   35

    1691 00000104 EC07          BF        $C$L7,EQ              ; [CPU_] |625| 
    1692                      ; branchcc occurs ; [] |625| 
    1693 00000105 0202          MOVB      ACC,#2                ; [CPU_] |625| 
    1694 00000106 0FA6          CMPL      ACC,XAR6              ; [CPU_] |625| 
    1695 00000107 ED08          BF        $C$L9,NEQ             ; [CPU_] |625| 
    1696                      ; branchcc occurs ; [] |625| 
    1697                      .dwpsn  file "C:/ti/motorware/motorware_1_01_00_18/sw/solutions/instaspin_foc/src/proj_lab05h.c",line
    1698 00000108 D01A          MOVB      XAR0,#26              ; [CPU_] |631| 
    1699 00000109 06E7          MOVL      ACC,*+XAR7[4]         ; [CPU_] |631| 
    1700                      .dwpsn  file "C:/ti/motorware/motorware_1_01_00_18/sw/solutions/instaspin_foc/src/proj_lab05h.c",line
    1701 0000010a 6F04          B         $C$L8,UNC             ; [CPU_] |632| 
    1702                      ; branch occurs ; [] |632| 
    1703 0000010b       $C$L7:    
    1704                      .dwpsn  file "C:/ti/motorware/motorware_1_01_00_18/sw/solutions/instaspin_foc/src/proj_lab05h.c",line
    1705 0000010b D008          MOVB      XAR0,#8               ; [CPU_] |628| 
    1706 0000010c 0697          MOVL      ACC,*+XAR7[AR0]       ; [CPU_] |628| 
    1707 0000010d D014          MOVB      XAR0,#20              ; [CPU_] |628| 
    1708 0000010e       $C$L8:    
    1709 0000010e 1E95          MOVL      *+XAR5[AR0],ACC       ; [CPU_] |628| 
    1710 0000010f       $C$L9:    
    1711                      .dwpsn  file "C:/ti/motorware/motorware_1_01_00_18/sw/solutions/instaspin_foc/src/proj_lab05h.c",line
    1712 0000010f 2BC7          MOV       *+XAR7[0],#0          ; [CPU_] |644| 
    1713                      .dwpsn  file "C:/ti/motorware/motorware_1_01_00_18/sw/solutions/instaspin_foc/src/proj_lab05h.c",line
    1714 00000110 020F          MOVB      ACC,#15               ; [CPU_] |645| 
    1715 00000111 C0D7          AND       *+XAR7[2],AL          ; [CPU_] |645| 
    1716 00000112 C1DF          AND       *+XAR7[3],AH          ; [CPU_] |645| 
    1717 00000113 8BBE          MOVL      XAR1,*--SP            ; [CPU_] 
    1718                      .dwcfi  cfa_offset, -2
    1719                      .dwcfi  restore_reg, 7
    1720              $C$DW$182       .dwtag  DW_TAG_TI_branch
    1721                      .dwattr $C$DW$182, DW_AT_low_pc(0x00)
    1722                      .dwattr $C$DW$182, DW_AT_TI_return
    1723 00000114 0006          LRETR     ; [CPU_] 
    1724                      ; return occurs ; [] 
    1725                      .dwattr $C$DW$175, DW_AT_TI_end_file("C:/ti/motorware/motorware_1_01_00_18/sw/solutions/instaspin_foc
    1726                      .dwattr $C$DW$175, DW_AT_TI_end_line(0x286)
    1727                      .dwattr $C$DW$175, DW_AT_TI_end_column(0x01)
    1728                      .dwendentry
    1729                      .dwendtag $C$DW$175
    1730              
    1731 00000115               .sect   ".text"
    1732                      .clink
    1733                      .global _main
    1734              
    1735              $C$DW$183       .dwtag  DW_TAG_subprogram, DW_AT_name("main")
    1736                      .dwattr $C$DW$183, DW_AT_low_pc(_main)
    1737                      .dwattr $C$DW$183, DW_AT_high_pc(0x00)
    1738                      .dwattr $C$DW$183, DW_AT_TI_symbol_name("_main")
    1739                      .dwattr $C$DW$183, DW_AT_external
    1740                      .dwattr $C$DW$183, DW_AT_TI_begin_file("C:/ti/motorware/motorware_1_01_00_18/sw/solutions/instaspin_f
    1741                      .dwattr $C$DW$183, DW_AT_TI_begin_line(0xa4)
    1742                      .dwattr $C$DW$183, DW_AT_TI_begin_column(0x06)
    1743                      .dwattr $C$DW$183, DW_AT_TI_max_frame_size(-18)
    1744                      .dwpsn  file "C:/ti/motorware/motorware_1_01_00_18/sw/solutions/instaspin_foc/src/proj_lab05h.c",line
    1745              
TMS320C2000 Assembler PC v6.2.5 Wed Jun 21 14:56:42 2017

Tools Copyright (c) 1996-2014 Texas Instruments Incorporated
C:\Users\wmj\AppData\Local\Temp\0692810                              PAGE   36

    1746                      .dwfde $C$DW$CIE, _main
    1747              
    1748              ;***************************************************************
    1749              ;* FNAME: _main                         FR SIZE:  16           *
    1750              ;*                                                             *
    1751              ;* FUNCTION ENVIRONMENT                                        *
    1752              ;*                                                             *
    1753              ;* FUNCTION PROPERTIES                                         *
    1754              ;*                            2 Parameter,  8 Auto,  6 SOE     *
    1755              ;***************************************************************
    1756              
    1757              _main:
    1758              ;* AR4   assigned to $O$C18
    1759              ;* AR5   assigned to $O$C19
    1760              ;* AR4   assigned to $O$C20
    1761              ;* AR5   assigned to $O$C21
    1762              ;* AR5   assigned to $O$C22
    1763              ;* AR7   assigned to $O$C23
    1764              ;* AR5   assigned to $O$C24
    1765              ;* AR6   assigned to $O$C25
    1766              ;* AR5   assigned to $O$C26
    1767              ;* AR7   assigned to $O$C27
    1768              ;* AR0   assigned to $O$C28
    1769              ;* AR7   assigned to $O$C29
    1770              ;* AR0   assigned to $O$C30
    1771              ;* AR5   assigned to $O$C31
    1772              ;* AR5   assigned to $O$C32
    1773              ;* AR5   assigned to $O$C33
    1774              ;* AR4   assigned to $O$C34
    1775              ;* AR3   assigned to $O$K12
    1776              ;* AR5   assigned to _pwmHandle
    1777              $C$DW$184       .dwtag  DW_TAG_variable, DW_AT_name("pwmHandle")
    1778                      .dwattr $C$DW$184, DW_AT_TI_symbol_name("_pwmHandle")
    1779                      .dwattr $C$DW$184, DW_AT_type(*$C$DW$T$110)
    1780                      .dwattr $C$DW$184, DW_AT_location[DW_OP_reg14]
    1781              ;* AR5   assigned to _pwmHandle
    1782              $C$DW$185       .dwtag  DW_TAG_variable, DW_AT_name("pwmHandle")
    1783                      .dwattr $C$DW$185, DW_AT_TI_symbol_name("_pwmHandle")
    1784                      .dwattr $C$DW$185, DW_AT_type(*$C$DW$T$110)
    1785                      .dwattr $C$DW$185, DW_AT_location[DW_OP_reg14]
    1786              ;* AR4   assigned to _pwmHandle
    1787              $C$DW$186       .dwtag  DW_TAG_variable, DW_AT_name("pwmHandle")
    1788                      .dwattr $C$DW$186, DW_AT_TI_symbol_name("_pwmHandle")
    1789                      .dwattr $C$DW$186, DW_AT_type(*$C$DW$T$110)
    1790                      .dwattr $C$DW$186, DW_AT_location[DW_OP_reg12]
    1791              ;* AR4   assigned to _obj
    1792              $C$DW$187       .dwtag  DW_TAG_variable, DW_AT_name("obj")
    1793                      .dwattr $C$DW$187, DW_AT_TI_symbol_name("_obj")
    1794                      .dwattr $C$DW$187, DW_AT_type(*$C$DW$T$221)
    1795                      .dwattr $C$DW$187, DW_AT_location[DW_OP_reg12]
    1796              ;* AL    assigned to _state
    1797              $C$DW$188       .dwtag  DW_TAG_variable, DW_AT_name("state")
    1798                      .dwattr $C$DW$188, DW_AT_TI_symbol_name("_state")
    1799                      .dwattr $C$DW$188, DW_AT_type(*$C$DW$T$72)
    1800                      .dwattr $C$DW$188, DW_AT_location[DW_OP_reg0]
TMS320C2000 Assembler PC v6.2.5 Wed Jun 21 14:56:42 2017

Tools Copyright (c) 1996-2014 Texas Instruments Incorporated
C:\Users\wmj\AppData\Local\Temp\0692810                              PAGE   37

    1801              ;* AL    assigned to _state
    1802              $C$DW$189       .dwtag  DW_TAG_variable, DW_AT_name("state")
    1803                      .dwattr $C$DW$189, DW_AT_TI_symbol_name("_state")
    1804                      .dwattr $C$DW$189, DW_AT_type(*$C$DW$T$72)
    1805                      .dwattr $C$DW$189, DW_AT_location[DW_OP_reg0]
    1806              ;* AR5   assigned to _pwmHandle
    1807              $C$DW$190       .dwtag  DW_TAG_variable, DW_AT_name("pwmHandle")
    1808                      .dwattr $C$DW$190, DW_AT_TI_symbol_name("_pwmHandle")
    1809                      .dwattr $C$DW$190, DW_AT_type(*$C$DW$T$110)
    1810                      .dwattr $C$DW$190, DW_AT_location[DW_OP_reg14]
    1811              ;* AR5   assigned to _pwmHandle
    1812              $C$DW$191       .dwtag  DW_TAG_variable, DW_AT_name("pwmHandle")
    1813                      .dwattr $C$DW$191, DW_AT_TI_symbol_name("_pwmHandle")
    1814                      .dwattr $C$DW$191, DW_AT_type(*$C$DW$T$110)
    1815                      .dwattr $C$DW$191, DW_AT_location[DW_OP_reg14]
    1816              ;* AR4   assigned to _pwmHandle
    1817              $C$DW$192       .dwtag  DW_TAG_variable, DW_AT_name("pwmHandle")
    1818                      .dwattr $C$DW$192, DW_AT_TI_symbol_name("_pwmHandle")
    1819                      .dwattr $C$DW$192, DW_AT_type(*$C$DW$T$110)
    1820                      .dwattr $C$DW$192, DW_AT_location[DW_OP_reg12]
    1821              ;* AR4   assigned to _obj
    1822              $C$DW$193       .dwtag  DW_TAG_variable, DW_AT_name("obj")
    1823                      .dwattr $C$DW$193, DW_AT_TI_symbol_name("_obj")
    1824                      .dwattr $C$DW$193, DW_AT_type(*$C$DW$T$221)
    1825                      .dwattr $C$DW$193, DW_AT_location[DW_OP_reg12]
    1826              ;* AH    assigned to _state
    1827              $C$DW$194       .dwtag  DW_TAG_variable, DW_AT_name("state")
    1828                      .dwattr $C$DW$194, DW_AT_TI_symbol_name("_state")
    1829                      .dwattr $C$DW$194, DW_AT_type(*$C$DW$T$72)
    1830                      .dwattr $C$DW$194, DW_AT_location[DW_OP_reg1]
    1831              ;* AR6   assigned to _pwmHandle
    1832              $C$DW$195       .dwtag  DW_TAG_variable, DW_AT_name("pwmHandle")
    1833                      .dwattr $C$DW$195, DW_AT_TI_symbol_name("_pwmHandle")
    1834                      .dwattr $C$DW$195, DW_AT_type(*$C$DW$T$110)
    1835                      .dwattr $C$DW$195, DW_AT_location[DW_OP_reg16]
    1836              ;* AR6   assigned to _pwmHandle
    1837              $C$DW$196       .dwtag  DW_TAG_variable, DW_AT_name("pwmHandle")
    1838                      .dwattr $C$DW$196, DW_AT_TI_symbol_name("_pwmHandle")
    1839                      .dwattr $C$DW$196, DW_AT_type(*$C$DW$T$110)
    1840                      .dwattr $C$DW$196, DW_AT_location[DW_OP_reg16]
    1841              ;* AR5   assigned to _pwmHandle
    1842              $C$DW$197       .dwtag  DW_TAG_variable, DW_AT_name("pwmHandle")
    1843                      .dwattr $C$DW$197, DW_AT_TI_symbol_name("_pwmHandle")
    1844                      .dwattr $C$DW$197, DW_AT_type(*$C$DW$T$110)
    1845                      .dwattr $C$DW$197, DW_AT_location[DW_OP_reg14]
    1846              ;* AR5   assigned to _obj
    1847              $C$DW$198       .dwtag  DW_TAG_variable, DW_AT_name("obj")
    1848                      .dwattr $C$DW$198, DW_AT_TI_symbol_name("_obj")
    1849                      .dwattr $C$DW$198, DW_AT_type(*$C$DW$T$221)
    1850                      .dwattr $C$DW$198, DW_AT_location[DW_OP_reg14]
    1851              ;* AR6   assigned to _handle
    1852              $C$DW$199       .dwtag  DW_TAG_variable, DW_AT_name("handle")
    1853                      .dwattr $C$DW$199, DW_AT_TI_symbol_name("_handle")
    1854                      .dwattr $C$DW$199, DW_AT_type(*$C$DW$T$99)
    1855                      .dwattr $C$DW$199, DW_AT_location[DW_OP_reg16]
TMS320C2000 Assembler PC v6.2.5 Wed Jun 21 14:56:42 2017

Tools Copyright (c) 1996-2014 Texas Instruments Incorporated
C:\Users\wmj\AppData\Local\Temp\0692810                              PAGE   38

    1856              ;* XT    assigned to _bias
    1857              $C$DW$200       .dwtag  DW_TAG_variable, DW_AT_name("bias")
    1858                      .dwattr $C$DW$200, DW_AT_TI_symbol_name("_bias")
    1859                      .dwattr $C$DW$200, DW_AT_type(*$C$DW$T$31)
    1860                      .dwattr $C$DW$200, DW_AT_location[DW_OP_reg21]
    1861              ;* AR6   assigned to _handle
    1862              $C$DW$201       .dwtag  DW_TAG_variable, DW_AT_name("handle")
    1863                      .dwattr $C$DW$201, DW_AT_TI_symbol_name("_handle")
    1864                      .dwattr $C$DW$201, DW_AT_type(*$C$DW$T$99)
    1865                      .dwattr $C$DW$201, DW_AT_location[DW_OP_reg16]
    1866              ;* AR5   assigned to _handle
    1867              $C$DW$202       .dwtag  DW_TAG_variable, DW_AT_name("handle")
    1868                      .dwattr $C$DW$202, DW_AT_TI_symbol_name("_handle")
    1869                      .dwattr $C$DW$202, DW_AT_type(*$C$DW$T$223)
    1870                      .dwattr $C$DW$202, DW_AT_location[DW_OP_reg14]
    1871              ;* AR5   assigned to _obj
    1872              $C$DW$203       .dwtag  DW_TAG_variable, DW_AT_name("obj")
    1873                      .dwattr $C$DW$203, DW_AT_TI_symbol_name("_obj")
    1874                      .dwattr $C$DW$203, DW_AT_type(*$C$DW$T$221)
    1875                      .dwattr $C$DW$203, DW_AT_location[DW_OP_reg14]
    1876              ;* AL    assigned to _bias
    1877              $C$DW$204       .dwtag  DW_TAG_variable, DW_AT_name("bias")
    1878                      .dwattr $C$DW$204, DW_AT_TI_symbol_name("_bias")
    1879                      .dwattr $C$DW$204, DW_AT_type(*$C$DW$T$31)
    1880                      .dwattr $C$DW$204, DW_AT_location[DW_OP_reg0]
    1881              ;* AL    assigned to _bias
    1882              $C$DW$205       .dwtag  DW_TAG_variable, DW_AT_name("bias")
    1883                      .dwattr $C$DW$205, DW_AT_TI_symbol_name("_bias")
    1884                      .dwattr $C$DW$205, DW_AT_type(*$C$DW$T$31)
    1885                      .dwattr $C$DW$205, DW_AT_location[DW_OP_reg0]
    1886              ;* AL    assigned to _bias
    1887              $C$DW$206       .dwtag  DW_TAG_variable, DW_AT_name("bias")
    1888                      .dwattr $C$DW$206, DW_AT_TI_symbol_name("_bias")
    1889                      .dwattr $C$DW$206, DW_AT_type(*$C$DW$T$31)
    1890                      .dwattr $C$DW$206, DW_AT_location[DW_OP_reg0]
    1891              ;* AR6   assigned to _pwmHandle
    1892              $C$DW$207       .dwtag  DW_TAG_variable, DW_AT_name("pwmHandle")
    1893                      .dwattr $C$DW$207, DW_AT_TI_symbol_name("_pwmHandle")
    1894                      .dwattr $C$DW$207, DW_AT_type(*$C$DW$T$110)
    1895                      .dwattr $C$DW$207, DW_AT_location[DW_OP_reg16]
    1896              ;* AR6   assigned to _pwmHandle
    1897              $C$DW$208       .dwtag  DW_TAG_variable, DW_AT_name("pwmHandle")
    1898                      .dwattr $C$DW$208, DW_AT_TI_symbol_name("_pwmHandle")
    1899                      .dwattr $C$DW$208, DW_AT_type(*$C$DW$T$110)
    1900                      .dwattr $C$DW$208, DW_AT_location[DW_OP_reg16]
    1901              ;* AR5   assigned to _pwmHandle
    1902              $C$DW$209       .dwtag  DW_TAG_variable, DW_AT_name("pwmHandle")
    1903                      .dwattr $C$DW$209, DW_AT_TI_symbol_name("_pwmHandle")
    1904                      .dwattr $C$DW$209, DW_AT_type(*$C$DW$T$110)
    1905                      .dwattr $C$DW$209, DW_AT_location[DW_OP_reg14]
    1906              ;* AR6   assigned to _pwmHandle
    1907              $C$DW$210       .dwtag  DW_TAG_variable, DW_AT_name("pwmHandle")
    1908                      .dwattr $C$DW$210, DW_AT_TI_symbol_name("_pwmHandle")
    1909                      .dwattr $C$DW$210, DW_AT_type(*$C$DW$T$110)
    1910                      .dwattr $C$DW$210, DW_AT_location[DW_OP_reg16]
TMS320C2000 Assembler PC v6.2.5 Wed Jun 21 14:56:42 2017

Tools Copyright (c) 1996-2014 Texas Instruments Incorporated
C:\Users\wmj\AppData\Local\Temp\0692810                              PAGE   39

    1911              ;* AR6   assigned to _pwmHandle
    1912              $C$DW$211       .dwtag  DW_TAG_variable, DW_AT_name("pwmHandle")
    1913                      .dwattr $C$DW$211, DW_AT_TI_symbol_name("_pwmHandle")
    1914                      .dwattr $C$DW$211, DW_AT_type(*$C$DW$T$110)
    1915                      .dwattr $C$DW$211, DW_AT_location[DW_OP_reg16]
    1916              ;* AR5   assigned to _pwmHandle
    1917              $C$DW$212       .dwtag  DW_TAG_variable, DW_AT_name("pwmHandle")
    1918                      .dwattr $C$DW$212, DW_AT_TI_symbol_name("_pwmHandle")
    1919                      .dwattr $C$DW$212, DW_AT_type(*$C$DW$T$110)
    1920                      .dwattr $C$DW$212, DW_AT_location[DW_OP_reg14]
    1921              ;* AR5   assigned to _obj
    1922              $C$DW$213       .dwtag  DW_TAG_variable, DW_AT_name("obj")
    1923                      .dwattr $C$DW$213, DW_AT_TI_symbol_name("_obj")
    1924                      .dwattr $C$DW$213, DW_AT_type(*$C$DW$T$221)
    1925                      .dwattr $C$DW$213, DW_AT_location[DW_OP_reg14]
    1926              ;* AL    assigned to _maxVsMag
    1927              $C$DW$214       .dwtag  DW_TAG_variable, DW_AT_name("maxVsMag")
    1928                      .dwattr $C$DW$214, DW_AT_TI_symbol_name("_maxVsMag")
    1929                      .dwattr $C$DW$214, DW_AT_type(*$C$DW$T$31)
    1930                      .dwattr $C$DW$214, DW_AT_location[DW_OP_reg0]
    1931              ;* AL    assigned to _maxAccel_pu
    1932              $C$DW$215       .dwtag  DW_TAG_variable, DW_AT_name("maxAccel_pu")
    1933                      .dwattr $C$DW$215, DW_AT_TI_symbol_name("_maxAccel_pu")
    1934                      .dwattr $C$DW$215, DW_AT_type(*$C$DW$T$31)
    1935                      .dwattr $C$DW$215, DW_AT_location[DW_OP_reg0]
    1936              ;* AL    assigned to _Id_ref_pu
    1937              $C$DW$216       .dwtag  DW_TAG_variable, DW_AT_name("Id_ref_pu")
    1938                      .dwattr $C$DW$216, DW_AT_TI_symbol_name("_Id_ref_pu")
    1939                      .dwattr $C$DW$216, DW_AT_type(*$C$DW$T$31)
    1940                      .dwattr $C$DW$216, DW_AT_location[DW_OP_reg0]
    1941              ;* AL    assigned to _state
    1942              $C$DW$217       .dwtag  DW_TAG_variable, DW_AT_name("state")
    1943                      .dwattr $C$DW$217, DW_AT_TI_symbol_name("_state")
    1944                      .dwattr $C$DW$217, DW_AT_type(*$C$DW$T$72)
    1945                      .dwattr $C$DW$217, DW_AT_location[DW_OP_reg0]
    1946              ;* AR5   assigned to _pwmHandle
    1947              $C$DW$218       .dwtag  DW_TAG_variable, DW_AT_name("pwmHandle")
    1948                      .dwattr $C$DW$218, DW_AT_TI_symbol_name("_pwmHandle")
    1949                      .dwattr $C$DW$218, DW_AT_type(*$C$DW$T$110)
    1950                      .dwattr $C$DW$218, DW_AT_location[DW_OP_reg14]
    1951              ;* AR5   assigned to _pwmHandle
    1952              $C$DW$219       .dwtag  DW_TAG_variable, DW_AT_name("pwmHandle")
    1953                      .dwattr $C$DW$219, DW_AT_TI_symbol_name("_pwmHandle")
    1954                      .dwattr $C$DW$219, DW_AT_type(*$C$DW$T$110)
    1955                      .dwattr $C$DW$219, DW_AT_location[DW_OP_reg14]
    1956              ;* AR4   assigned to _pwmHandle
    1957              $C$DW$220       .dwtag  DW_TAG_variable, DW_AT_name("pwmHandle")
    1958                      .dwattr $C$DW$220, DW_AT_TI_symbol_name("_pwmHandle")
    1959                      .dwattr $C$DW$220, DW_AT_type(*$C$DW$T$110)
    1960                      .dwattr $C$DW$220, DW_AT_location[DW_OP_reg12]
    1961              ;* AR4   assigned to _obj
    1962              $C$DW$221       .dwtag  DW_TAG_variable, DW_AT_name("obj")
    1963                      .dwattr $C$DW$221, DW_AT_TI_symbol_name("_obj")
    1964                      .dwattr $C$DW$221, DW_AT_type(*$C$DW$T$221)
    1965                      .dwattr $C$DW$221, DW_AT_location[DW_OP_reg12]
TMS320C2000 Assembler PC v6.2.5 Wed Jun 21 14:56:42 2017

Tools Copyright (c) 1996-2014 Texas Instruments Incorporated
C:\Users\wmj\AppData\Local\Temp\0692810                              PAGE   40

    1966              $C$DW$222       .dwtag  DW_TAG_variable, DW_AT_name("ctrlState")
    1967                      .dwattr $C$DW$222, DW_AT_TI_symbol_name("_ctrlState")
    1968                      .dwattr $C$DW$222, DW_AT_type(*$C$DW$T$42)
    1969                      .dwattr $C$DW$222, DW_AT_location[DW_OP_breg20 -7]
    1970              ;* AL    assigned to _flag_ctrlStateChanged
    1971              $C$DW$223       .dwtag  DW_TAG_variable, DW_AT_name("flag_ctrlStateChanged")
    1972                      .dwattr $C$DW$223, DW_AT_TI_symbol_name("_flag_ctrlStateChanged")
    1973                      .dwattr $C$DW$223, DW_AT_type(*$C$DW$T$72)
    1974                      .dwattr $C$DW$223, DW_AT_location[DW_OP_reg0]
    1975              ;* AR2   assigned to _obj
    1976              $C$DW$224       .dwtag  DW_TAG_variable, DW_AT_name("obj")
    1977                      .dwattr $C$DW$224, DW_AT_TI_symbol_name("_obj")
    1978                      .dwattr $C$DW$224, DW_AT_type(*$C$DW$T$197)
    1979                      .dwattr $C$DW$224, DW_AT_location[DW_OP_reg8]
    1980              ;* XT    assigned to _bias
    1981              $C$DW$225       .dwtag  DW_TAG_variable, DW_AT_name("bias")
    1982                      .dwattr $C$DW$225, DW_AT_TI_symbol_name("_bias")
    1983                      .dwattr $C$DW$225, DW_AT_type(*$C$DW$T$31)
    1984                      .dwattr $C$DW$225, DW_AT_location[DW_OP_reg21]
    1985              ;* AR1   assigned to _cnt
    1986              $C$DW$226       .dwtag  DW_TAG_variable, DW_AT_name("cnt")
    1987                      .dwattr $C$DW$226, DW_AT_TI_symbol_name("_cnt")
    1988                      .dwattr $C$DW$226, DW_AT_type(*$C$DW$T$35)
    1989                      .dwattr $C$DW$226, DW_AT_location[DW_OP_reg6]
    1990              ;* AR1   assigned to _cnt
    1991              $C$DW$227       .dwtag  DW_TAG_variable, DW_AT_name("cnt")
    1992                      .dwattr $C$DW$227, DW_AT_TI_symbol_name("_cnt")
    1993                      .dwattr $C$DW$227, DW_AT_type(*$C$DW$T$35)
    1994                      .dwattr $C$DW$227, DW_AT_location[DW_OP_reg6]
    1995              ;* XT    assigned to _bias
    1996              $C$DW$228       .dwtag  DW_TAG_variable, DW_AT_name("bias")
    1997                      .dwattr $C$DW$228, DW_AT_TI_symbol_name("_bias")
    1998                      .dwattr $C$DW$228, DW_AT_type(*$C$DW$T$31)
    1999                      .dwattr $C$DW$228, DW_AT_location[DW_OP_reg21]
    2000              ;* XT    assigned to _bias
    2001              $C$DW$229       .dwtag  DW_TAG_variable, DW_AT_name("bias")
    2002                      .dwattr $C$DW$229, DW_AT_TI_symbol_name("_bias")
    2003                      .dwattr $C$DW$229, DW_AT_type(*$C$DW$T$31)
    2004                      .dwattr $C$DW$229, DW_AT_location[DW_OP_reg21]
    2005              ;* AL    assigned to _bias
    2006              $C$DW$230       .dwtag  DW_TAG_variable, DW_AT_name("bias")
    2007                      .dwattr $C$DW$230, DW_AT_TI_symbol_name("_bias")
    2008                      .dwattr $C$DW$230, DW_AT_type(*$C$DW$T$31)
    2009                      .dwattr $C$DW$230, DW_AT_location[DW_OP_reg0]
    2010              ;* AL    assigned to _bias
    2011              $C$DW$231       .dwtag  DW_TAG_variable, DW_AT_name("bias")
    2012                      .dwattr $C$DW$231, DW_AT_TI_symbol_name("_bias")
    2013                      .dwattr $C$DW$231, DW_AT_type(*$C$DW$T$31)
    2014                      .dwattr $C$DW$231, DW_AT_location[DW_OP_reg0]
    2015              ;* AL    assigned to _bias
    2016              $C$DW$232       .dwtag  DW_TAG_variable, DW_AT_name("bias")
    2017                      .dwattr $C$DW$232, DW_AT_TI_symbol_name("_bias")
    2018                      .dwattr $C$DW$232, DW_AT_type(*$C$DW$T$31)
    2019                      .dwattr $C$DW$232, DW_AT_location[DW_OP_reg0]
    2020              ;* AR1   assigned to $O$K15
TMS320C2000 Assembler PC v6.2.5 Wed Jun 21 14:56:42 2017

Tools Copyright (c) 1996-2014 Texas Instruments Incorporated
C:\Users\wmj\AppData\Local\Temp\0692810                              PAGE   41

    2021              ;* AR1   assigned to $O$K15
    2022              ;* AR7   assigned to $O$K15
    2023              ;* AR1   assigned to $O$K15
    2024              ;* AR4   assigned to $O$K15
    2025              ;* AR1   assigned to $O$K15
    2026              ;* AR4   assigned to $O$v1
    2027              ;* AR4   assigned to $O$v1
    2028              ;* AR4   assigned to $O$v1
    2029              ;* AR4   assigned to $O$v1
    2030              ;* AR2   assigned to $O$v1
    2031              ;* AR4   assigned to $O$v2
    2032              ;* AR4   assigned to $O$v2
    2033              ;* PL    assigned to $O$v2
    2034              $C$DW$233       .dwtag  DW_TAG_variable, DW_AT_name("version")
    2035                      .dwattr $C$DW$233, DW_AT_TI_symbol_name("_version")
    2036                      .dwattr $C$DW$233, DW_AT_type(*$C$DW$T$40)
    2037                      .dwattr $C$DW$233, DW_AT_location[DW_OP_breg20 -6]
    2038                      .dwcfi  cfa_offset, -2
    2039                      .dwcfi  save_reg_to_mem, 26, 0
    2040                      .dwcfi  save_reg_to_reg, 78, 26
    2041 00000115 B2BD          MOVL      *SP++,XAR1            ; [CPU_] 
    2042                      .dwcfi  save_reg_to_mem, 7, 2
    2043                      .dwcfi  cfa_offset, -4
    2044 00000116 AABD          MOVL      *SP++,XAR2            ; [CPU_] 
    2045                      .dwcfi  save_reg_to_mem, 9, 4
    2046                      .dwcfi  cfa_offset, -6
    2047 00000117 A2BD          MOVL      *SP++,XAR3            ; [CPU_] 
    2048                      .dwcfi  save_reg_to_mem, 11, 6
    2049                      .dwcfi  cfa_offset, -8
    2050 00000118 FE0A          ADDB      SP,#10                ; [CPU_U] 
    2051                      .dwcfi  cfa_offset, -18
    2052                      .dwpsn  file "C:/ti/motorware/motorware_1_01_00_18/sw/solutions/instaspin_foc/src/proj_lab05h.c",line
    2053 00000119 8F00!         MOVL      XAR4,#_RamfuncsRunStart ; [CPU_U] |178| 
         0000011a 0000 
    2054 0000011b 8F40!         MOVL      XAR5,#_RamfuncsLoadEnd ; [CPU_U] |178| 
         0000011c 0000 
    2055 0000011d A842          MOVL      *-SP[2],XAR4          ; [CPU_] |178| 
    2056 0000011e 8F00!         MOVL      XAR4,#_RamfuncsLoadStart ; [CPU_U] |178| 
         0000011f 0000 
    2057              $C$DW$234       .dwtag  DW_TAG_TI_branch
    2058                      .dwattr $C$DW$234, DW_AT_low_pc(0x00)
    2059                      .dwattr $C$DW$234, DW_AT_name("_memCopy")
    2060                      .dwattr $C$DW$234, DW_AT_TI_call
    2061 00000120 7640!         LCR       #_memCopy             ; [CPU_] |178| 
         00000121 0000 
    2062                      ; call occurs [#_memCopy] ; [] |178| 
    2063                      .dwpsn  file "C:/ti/motorware/motorware_1_01_00_18/sw/solutions/instaspin_foc/src/proj_lab05h.c",line
    2064 00000122 8F00!         MOVL      XAR4,#_hal            ; [CPU_U] |196| 
         00000123 0000 
    2065 00000124 02A6          MOVB      ACC,#166              ; [CPU_] |196| 
    2066              $C$DW$235       .dwtag  DW_TAG_TI_branch
    2067                      .dwattr $C$DW$235, DW_AT_low_pc(0x00)
    2068                      .dwattr $C$DW$235, DW_AT_name("_HAL_init")
    2069                      .dwattr $C$DW$235, DW_AT_TI_call
    2070 00000125 7640!         LCR       #_HAL_init            ; [CPU_] |196| 
TMS320C2000 Assembler PC v6.2.5 Wed Jun 21 14:56:42 2017

Tools Copyright (c) 1996-2014 Texas Instruments Incorporated
C:\Users\wmj\AppData\Local\Temp\0692810                              PAGE   42

         00000126 0000 
    2071                      ; call occurs [#_HAL_init] ; [] |196| 
    2072                      .dwpsn  file "C:/ti/motorware/motorware_1_01_00_18/sw/solutions/instaspin_foc/src/proj_lab05h.c",line
    2073 00000127 8DC0-         MOVL      XAR3,#_gGraphVars     ; [CPU_U] |201| 
         00000128 0000 
    2074                      .dwpsn  file "C:/ti/motorware/motorware_1_01_00_18/sw/solutions/instaspin_foc/src/proj_lab05h.c",line
    2075 00000129 8D40-         MOVL      XAR1,#_gUserParams    ; [CPU_U] |204| 
         0000012a 00C0 
    2076 0000012b 761F-         MOVW      DP,#_halHandle        ; [CPU_U] 
         0000012c 0000 
    2077                      .dwpsn  file "C:/ti/motorware/motorware_1_01_00_18/sw/solutions/instaspin_foc/src/proj_lab05h.c",line
    2078 0000012d D008          MOVB      XAR0,#8               ; [CPU_] |201| 
    2079 0000012e 0201          MOVB      ACC,#1                ; [CPU_] |201| 
    2080                      .dwpsn  file "C:/ti/motorware/motorware_1_01_00_18/sw/solutions/instaspin_foc/src/proj_lab05h.c",line
    2081 0000012f A80A-         MOVL      @_halHandle,XAR4      ; [CPU_] |196| 
    2082                      .dwpsn  file "C:/ti/motorware/motorware_1_01_00_18/sw/solutions/instaspin_foc/src/proj_lab05h.c",line
    2083 00000130 1E93          MOVL      *+XAR3[AR0],ACC       ; [CPU_] |201| 
    2084                      .dwpsn  file "C:/ti/motorware/motorware_1_01_00_18/sw/solutions/instaspin_foc/src/proj_lab05h.c",line
    2085 00000131 8AA1          MOVL      XAR4,XAR1             ; [CPU_] |204| 
    2086 00000132 B24A          MOVL      *-SP[10],XAR1         ; [CPU_] |204| 
    2087              $C$DW$236       .dwtag  DW_TAG_TI_branch
    2088                      .dwattr $C$DW$236, DW_AT_low_pc(0x00)
    2089                      .dwattr $C$DW$236, DW_AT_name("_USER_checkForErrors")
    2090                      .dwattr $C$DW$236, DW_AT_TI_call
    2091 00000133 7640!         LCR       #_USER_checkForErrors ; [CPU_] |204| 
         00000134 0000 
    2092                      ; call occurs [#_USER_checkForErrors] ; [] |204| 
    2093                      .dwpsn  file "C:/ti/motorware/motorware_1_01_00_18/sw/solutions/instaspin_foc/src/proj_lab05h.c",line
    2094 00000135 8AA1          MOVL      XAR4,XAR1             ; [CPU_] |207| 
    2095              $C$DW$237       .dwtag  DW_TAG_TI_branch
    2096                      .dwattr $C$DW$237, DW_AT_low_pc(0x00)
    2097                      .dwattr $C$DW$237, DW_AT_name("_USER_getErrorCode")
    2098                      .dwattr $C$DW$237, DW_AT_TI_call
    2099 00000136 7640!         LCR       #_USER_getErrorCode   ; [CPU_] |207| 
         00000137 0000 
    2100                      ; call occurs [#_USER_getErrorCode] ; [] |207| 
    2101 00000138 8D40-         MOVL      XAR1,#_gMotorVars     ; [CPU_U] |207| 
         00000139 0040 
    2102 0000013a D00F          MOVB      XAR0,#15              ; [CPU_] |207| 
    2103 0000013b 9691          MOV       *+XAR1[AR0],AL        ; [CPU_] |207| 
    2104                      .dwpsn  file "C:/ti/motorware/motorware_1_01_00_18/sw/solutions/instaspin_foc/src/proj_lab05h.c",line
    2105 0000013c D00F          MOVB      XAR0,#15              ; [CPU_] |210| 
    2106 0000013d 9291          MOV       AL,*+XAR1[AR0]        ; [CPU_] |210| 
    2107 0000013e 56C0          BF        $C$L28,NEQ            ; [CPU_] |210| 
         0000013f 021F 
    2108                      ; branchcc occurs ; [] |210| 
    2109 00000140 864A          MOVL      XAR2,*-SP[10]         ; [CPU_] 
    2110                      .dwpsn  file "C:/ti/motorware/motorware_1_01_00_18/sw/solutions/instaspin_foc/src/proj_lab05h.c",line
    2111 00000141 8AA2          MOVL      XAR4,XAR2             ; [CPU_] |219| 
    2112              $C$DW$238       .dwtag  DW_TAG_TI_branch
    2113                      .dwattr $C$DW$238, DW_AT_low_pc(0x00)
    2114                      .dwattr $C$DW$238, DW_AT_name("_USER_setParams")
    2115                      .dwattr $C$DW$238, DW_AT_TI_call
    2116 00000142 7640!         LCR       #_USER_setParams      ; [CPU_] |219| 
         00000143 0000 
TMS320C2000 Assembler PC v6.2.5 Wed Jun 21 14:56:42 2017

Tools Copyright (c) 1996-2014 Texas Instruments Incorporated
C:\Users\wmj\AppData\Local\Temp\0692810                              PAGE   43

    2117                      ; call occurs [#_USER_setParams] ; [] |219| 
    2118 00000144 761F-         MOVW      DP,#_halHandle        ; [CPU_U] 
         00000145 0000 
    2119                      .dwpsn  file "C:/ti/motorware/motorware_1_01_00_18/sw/solutions/instaspin_foc/src/proj_lab05h.c",line
    2120 00000146 8A0A-         MOVL      XAR4,@_halHandle      ; [CPU_] |222| 
    2121 00000147 83A2          MOVL      XAR5,XAR2             ; [CPU_] |222| 
    2122              $C$DW$239       .dwtag  DW_TAG_TI_branch
    2123                      .dwattr $C$DW$239, DW_AT_low_pc(0x00)
    2124                      .dwattr $C$DW$239, DW_AT_name("_HAL_setParams")
    2125                      .dwattr $C$DW$239, DW_AT_TI_call
    2126 00000148 7640!         LCR       #_HAL_setParams       ; [CPU_] |222| 
         00000149 0000 
    2127                      ; call occurs [#_HAL_setParams] ; [] |222| 
    2128 0000014a 761F-         MOVW      DP,#_halHandle        ; [CPU_U] 
         0000014b 0000 
    2129                      .dwpsn  file "C:/ti/motorware/motorware_1_01_00_18/sw/solutions/instaspin_foc/src/proj_lab05h.c",line
    2130 0000014c 9A06          MOVB      AL,#6                 ; [CPU_] |225| 
    2131 0000014d 9B00          MOVB      AH,#0                 ; [CPU_] |225| 
    2132 0000014e 8A0A-         MOVL      XAR4,@_halHandle      ; [CPU_] |225| 
    2133              $C$DW$240       .dwtag  DW_TAG_TI_branch
    2134                      .dwattr $C$DW$240, DW_AT_low_pc(0x00)
    2135                      .dwattr $C$DW$240, DW_AT_name("_HAL_I2c_Pca9555_WrData")
    2136                      .dwattr $C$DW$240, DW_AT_TI_call
    2137 0000014f 7640!         LCR       #_HAL_I2c_Pca9555_WrData ; [CPU_] |225| 
         00000150 0000 
    2138                      ; call occurs [#_HAL_I2c_Pca9555_WrData] ; [] |225| 
    2139 00000151 761F-         MOVW      DP,#_halHandle        ; [CPU_U] 
         00000152 0000 
    2140                      .dwpsn  file "C:/ti/motorware/motorware_1_01_00_18/sw/solutions/instaspin_foc/src/proj_lab05h.c",line
    2141 00000153 9A02          MOVB      AL,#2                 ; [CPU_] |227| 
    2142 00000154 9B58          MOVB      AH,#88                ; [CPU_] |227| 
    2143 00000155 8A0A-         MOVL      XAR4,@_halHandle      ; [CPU_] |227| 
    2144              $C$DW$241       .dwtag  DW_TAG_TI_branch
    2145                      .dwattr $C$DW$241, DW_AT_low_pc(0x00)
    2146                      .dwattr $C$DW$241, DW_AT_name("_HAL_I2c_Pca9555_WrData")
    2147                      .dwattr $C$DW$241, DW_AT_TI_call
    2148 00000156 7640!         LCR       #_HAL_I2c_Pca9555_WrData ; [CPU_] |227| 
         00000157 0000 
    2149                      ; call occurs [#_HAL_I2c_Pca9555_WrData] ; [] |227| 
    2150                      .dwpsn  file "C:/ti/motorware/motorware_1_01_00_18/sw/solutions/instaspin_foc/src/proj_lab05h.c",line
    2151 00000158 D500          MOVB      XAR5,#0               ; [CPU_] |233| 
    2152 00000159 8F00-         MOVL      XAR4,#_ctrl           ; [CPU_U] |233| 
         0000015a 0180 
    2153 0000015b FF20          MOV       ACC,#264              ; [CPU_] |233| 
         0000015c 0108 
    2154              $C$DW$242       .dwtag  DW_TAG_TI_branch
    2155                      .dwattr $C$DW$242, DW_AT_low_pc(0x00)
    2156                      .dwattr $C$DW$242, DW_AT_name("_CTRL_initCtrl")
    2157                      .dwattr $C$DW$242, DW_AT_TI_call
    2158 0000015d 7640!         LCR       #_CTRL_initCtrl       ; [CPU_] |233| 
         0000015e 0000 
    2159                      ; call occurs [#_CTRL_initCtrl] ; [] |233| 
    2160 0000015f 761F-         MOVW      DP,#_ctrlHandle       ; [CPU_U] 
         00000160 0000 
    2161                      .dwpsn  file "C:/ti/motorware/motorware_1_01_00_18/sw/solutions/instaspin_foc/src/proj_lab05h.c",line
TMS320C2000 Assembler PC v6.2.5 Wed Jun 21 14:56:42 2017

Tools Copyright (c) 1996-2014 Texas Instruments Incorporated
C:\Users\wmj\AppData\Local\Temp\0692810                              PAGE   44

    2162 00000161 5DAD          MOVZ      AR5,SP                ; [CPU_U] |240| 
    2163 00000162 DD86          SUBB      XAR5,#6               ; [CPU_U] |240| 
    2164                      .dwpsn  file "C:/ti/motorware/motorware_1_01_00_18/sw/solutions/instaspin_foc/src/proj_lab05h.c",line
    2165 00000163 A80C-         MOVL      @_ctrlHandle,XAR4     ; [CPU_] |233| 
    2166                      .dwpsn  file "C:/ti/motorware/motorware_1_01_00_18/sw/solutions/instaspin_foc/src/proj_lab05h.c",line
    2167              $C$DW$243       .dwtag  DW_TAG_TI_branch
    2168                      .dwattr $C$DW$243, DW_AT_low_pc(0x00)
    2169                      .dwattr $C$DW$243, DW_AT_name("_CTRL_getVersion")
    2170                      .dwattr $C$DW$243, DW_AT_TI_call
    2171 00000164 7640!         LCR       #_CTRL_getVersion     ; [CPU_] |240| 
         00000165 0000 
    2172                      ; call occurs [#_CTRL_getVersion] ; [] |240| 
    2173                      .dwpsn  file "C:/ti/motorware/motorware_1_01_00_18/sw/solutions/instaspin_foc/src/proj_lab05h.c",line
    2174 00000166 D910          ADDB      XAR1,#16              ; [CPU_] |242| 
    2175 00000167 761F-         MOVW      DP,#_ctrlHandle       ; [CPU_U] 
         00000168 0000 
    2176 00000169 C444          MOVL      XAR6,*-SP[4]          ; [CPU_] |242| 
    2177 0000016a 0646          MOVL      ACC,*-SP[6]           ; [CPU_] |242| 
    2178 0000016b 1EC1          MOVL      *+XAR1[0],ACC         ; [CPU_] |242| 
    2179                      .dwpsn  file "C:/ti/motorware/motorware_1_01_00_18/sw/solutions/instaspin_foc/src/proj_lab05h.c",line
    2180 0000016c 83A2          MOVL      XAR5,XAR2             ; [CPU_] |246| 
    2181                      .dwpsn  file "C:/ti/motorware/motorware_1_01_00_18/sw/solutions/instaspin_foc/src/proj_lab05h.c",line
    2182 0000016d C2D1          MOVL      *+XAR1[2],XAR6        ; [CPU_] |242| 
    2183                      .dwpsn  file "C:/ti/motorware/motorware_1_01_00_18/sw/solutions/instaspin_foc/src/proj_lab05h.c",line
    2184 0000016e 8A0C-         MOVL      XAR4,@_ctrlHandle     ; [CPU_] |246| 
    2185              $C$DW$244       .dwtag  DW_TAG_TI_branch
    2186                      .dwattr $C$DW$244, DW_AT_low_pc(0x00)
    2187                      .dwattr $C$DW$244, DW_AT_name("_CTRL_setParams")
    2188                      .dwattr $C$DW$244, DW_AT_TI_call
    2189 0000016f 7640!         LCR       #_CTRL_setParams      ; [CPU_] |246| 
         00000170 0000 
    2190                      ; call occurs [#_CTRL_setParams] ; [] |246| 
    2191 00000171 761F-         MOVW      DP,#_halHandle        ; [CPU_U] 
         00000172 0000 
    2192                      .dwpsn  file "C:/ti/motorware/motorware_1_01_00_18/sw/solutions/instaspin_foc/src/proj_lab05h.c",line
    2193 00000173 8A0A-         MOVL      XAR4,@_halHandle      ; [CPU_] |249| 
    2194              $C$DW$245       .dwtag  DW_TAG_TI_branch
    2195                      .dwattr $C$DW$245, DW_AT_low_pc(0x00)
    2196                      .dwattr $C$DW$245, DW_AT_name("_HAL_setupFaults")
    2197                      .dwattr $C$DW$245, DW_AT_TI_call
    2198 00000174 7640!         LCR       #_HAL_setupFaults     ; [CPU_] |249| 
         00000175 0000 
    2199                      ; call occurs [#_HAL_setupFaults] ; [] |249| 
    2200 00000176 761F-         MOVW      DP,#_halHandle        ; [CPU_U] 
         00000177 0000 
    2201                      .dwpsn  file "C:/ti/motorware/motorware_1_01_00_18/sw/solutions/instaspin_foc/src/proj_lab05h.c",line
    2202 00000178 8A0A-         MOVL      XAR4,@_halHandle      ; [CPU_] |252| 
    2203 00000179 7622   EALLOW
    2204                      .dwpsn  file "C:/ti/motorware/motorware_1_01_00_18/sw/modules/hal/boards/drv8312kit_revD/f28x/f2802x/
    2205 0000017a D078          MOVB      XAR0,#120             ; [CPU_] |463| 
    2206 0000017b C494          MOVL      XAR6,*+XAR4[AR0]      ; [CPU_] |463| 
    2207 0000017c 8F40+         MOVL      XAR5,#_mainISR        ; [CPU_U] |463| 
         0000017d 0000 
    2208 0000017e D0F0          MOVB      XAR0,#240             ; [CPU_] |463| 
    2209 0000017f A096          MOVL      *+XAR6[AR0],XAR5      ; [CPU_] |463| 
TMS320C2000 Assembler PC v6.2.5 Wed Jun 21 14:56:42 2017

Tools Copyright (c) 1996-2014 Texas Instruments Incorporated
C:\Users\wmj\AppData\Local\Temp\0692810                              PAGE   45

    2210 00000180 761A   EDIS
    2211 00000181 FF69          SPM       #0                    ; [CPU_] 
    2212                      .dwpsn  file "C:/ti/motorware/motorware_1_01_00_18/sw/solutions/instaspin_foc/src/proj_lab05h.c",line
    2213              $C$DW$246       .dwtag  DW_TAG_TI_branch
    2214                      .dwattr $C$DW$246, DW_AT_low_pc(0x00)
    2215                      .dwattr $C$DW$246, DW_AT_name("_HAL_enableAdcInts")
    2216                      .dwattr $C$DW$246, DW_AT_TI_call
    2217 00000182 7640!         LCR       #_HAL_enableAdcInts   ; [CPU_] |255| 
         00000183 0000 
    2218                      ; call occurs [#_HAL_enableAdcInts] ; [] |255| 
    2219 00000184 761F-         MOVW      DP,#_halHandle        ; [CPU_U] 
         00000185 0000 
    2220                      .dwpsn  file "C:/ti/motorware/motorware_1_01_00_18/sw/solutions/instaspin_foc/src/proj_lab05h.c",line
    2221 00000186 8A0A-         MOVL      XAR4,@_halHandle      ; [CPU_] |258| 
    2222              $C$DW$247       .dwtag  DW_TAG_TI_branch
    2223                      .dwattr $C$DW$247, DW_AT_low_pc(0x00)
    2224                      .dwattr $C$DW$247, DW_AT_name("_HAL_enableGlobalInts")
    2225                      .dwattr $C$DW$247, DW_AT_TI_call
    2226 00000187 7640!         LCR       #_HAL_enableGlobalInts ; [CPU_] |258| 
         00000188 0000 
    2227                      ; call occurs [#_HAL_enableGlobalInts] ; [] |258| 
    2228 00000189 761F-         MOVW      DP,#_halHandle        ; [CPU_U] 
         0000018a 0000 
    2229                      .dwpsn  file "C:/ti/motorware/motorware_1_01_00_18/sw/solutions/instaspin_foc/src/proj_lab05h.c",line
    2230 0000018b 8A0A-         MOVL      XAR4,@_halHandle      ; [CPU_] |261| 
    2231              $C$DW$248       .dwtag  DW_TAG_TI_branch
    2232                      .dwattr $C$DW$248, DW_AT_low_pc(0x00)
    2233                      .dwattr $C$DW$248, DW_AT_name("_HAL_enableDebugInt")
    2234                      .dwattr $C$DW$248, DW_AT_TI_call
    2235 0000018c 7640!         LCR       #_HAL_enableDebugInt  ; [CPU_] |261| 
         0000018d 0000 
    2236                      ; call occurs [#_HAL_enableDebugInt] ; [] |261| 
    2237 0000018e 761F-         MOVW      DP,#_halHandle        ; [CPU_U] 
         0000018f 0000 
    2238                      .dwpsn  file "C:/ti/motorware/motorware_1_01_00_18/sw/modules/hal/boards/drv8312kit_revD/f28x/f2802x/
    2239 00000190 8A0A-         MOVL      XAR4,@_halHandle      ; [CPU_] |232| 
    2240                      .dwpsn  file "C:/ti/motorware/motorware_1_01_00_18/sw/modules/hal/boards/drv8312kit_revD/f28x/f2802x/
    2241 00000191 DC7C          ADDB      XAR4,#124             ; [CPU_] |234| 
    2242 00000192 83C4          MOVL      XAR5,*+XAR4[0]        ; [CPU_] |234| 
    2243 00000193 7622   EALLOW
    2244                      .dwpsn  file "C:/ti/motorware/motorware_1_01_00_18/sw/drivers/pwm/src/32b/f28x/f2802x/pwm.h",line 156
    2245 00000194 DD18          ADDB      XAR5,#24              ; [CPU_] |1567| 
    2246 00000195 1AC5          OR        *+XAR5[0],#0x0004     ; [CPU_] |1567| 
         00000196 0004 
    2247 00000197 761A   EDIS
    2248                      .dwpsn  file "C:/ti/motorware/motorware_1_01_00_18/sw/modules/hal/boards/drv8312kit_revD/f28x/f2802x/
    2249 00000198 83D4          MOVL      XAR5,*+XAR4[2]        ; [CPU_] |235| 
    2250 00000199 7622   EALLOW
    2251                      .dwpsn  file "C:/ti/motorware/motorware_1_01_00_18/sw/drivers/pwm/src/32b/f28x/f2802x/pwm.h",line 156
    2252 0000019a DD18          ADDB      XAR5,#24              ; [CPU_] |1567| 
    2253 0000019b 1AC5          OR        *+XAR5[0],#0x0004     ; [CPU_] |1567| 
         0000019c 0004 
    2254 0000019d 761A   EDIS
    2255                      .dwpsn  file "C:/ti/motorware/motorware_1_01_00_18/sw/modules/hal/boards/drv8312kit_revD/f28x/f2802x/
    2256 0000019e 8AE4          MOVL      XAR4,*+XAR4[4]        ; [CPU_] |236| 
TMS320C2000 Assembler PC v6.2.5 Wed Jun 21 14:56:42 2017

Tools Copyright (c) 1996-2014 Texas Instruments Incorporated
C:\Users\wmj\AppData\Local\Temp\0692810                              PAGE   46

    2257 0000019f 7622   EALLOW
    2258                      .dwpsn  file "C:/ti/motorware/motorware_1_01_00_18/sw/drivers/pwm/src/32b/f28x/f2802x/pwm.h",line 156
    2259 000001a0 DC18          ADDB      XAR4,#24              ; [CPU_] |1567| 
    2260 000001a1 1AC4          OR        *+XAR4[0],#0x0004     ; [CPU_] |1567| 
         000001a2 0004 
    2261 000001a3 761A   EDIS
    2262                      .dwpsn  file "C:/ti/motorware/motorware_1_01_00_18/sw/modules/ctrl/src/32b/ctrl.h",line 1246,column 3
    2263 000001a4 8A0C-         MOVL      XAR4,@_ctrlHandle     ; [CPU_] |1246| 
    2264 000001a5 D0F1          MOVB      XAR0,#241             ; [CPU_] |1246| 
    2265 000001a6 FF69          SPM       #0                    ; [CPU_] 
    2266 000001a7 56BF          MOVB      *+XAR4[AR0],#1,UNC    ; [CPU_] |1246| 
         000001a8 0194 
    2267                      .dwpsn  file "C:/ti/motorware/motorware_1_01_00_18/sw/solutions/instaspin_foc/src/proj_lab05h.c",line
    2268              $C$DW$249       .dwtag  DW_TAG_TI_branch
    2269                      .dwattr $C$DW$249, DW_AT_low_pc(0x00)
    2270                      .dwattr $C$DW$249, DW_AT_name("_USER_computeFlux_pu_to_Wb_sf")
    2271                      .dwattr $C$DW$249, DW_AT_TI_call
    2272 000001a9 7640!         LCR       #_USER_computeFlux_pu_to_Wb_sf ; [CPU_] |284| 
         000001aa 0000 
    2273                      ; call occurs [#_USER_computeFlux_pu_to_Wb_sf] ; [] |284| 
    2274 000001ab 761F-         MOVW      DP,#_gFlux_pu_to_Wb_sf ; [CPU_U] 
         000001ac 0000 
    2275 000001ad 1E04-         MOVL      @_gFlux_pu_to_Wb_sf,ACC ; [CPU_] |284| 
    2276                      .dwpsn  file "C:/ti/motorware/motorware_1_01_00_18/sw/solutions/instaspin_foc/src/proj_lab05h.c",line
    2277              $C$DW$250       .dwtag  DW_TAG_TI_branch
    2278                      .dwattr $C$DW$250, DW_AT_low_pc(0x00)
    2279                      .dwattr $C$DW$250, DW_AT_name("_USER_computeFlux_pu_to_VpHz_sf")
    2280                      .dwattr $C$DW$250, DW_AT_TI_call
    2281 000001ae 7640!         LCR       #_USER_computeFlux_pu_to_VpHz_sf ; [CPU_] |285| 
         000001af 0000 
    2282                      ; call occurs [#_USER_computeFlux_pu_to_VpHz_sf] ; [] |285| 
    2283 000001b0 761F-         MOVW      DP,#_gFlux_pu_to_VpHz_sf ; [CPU_U] 
         000001b1 0000 
    2284 000001b2 1E08-         MOVL      @_gFlux_pu_to_VpHz_sf,ACC ; [CPU_] |285| 
    2285                      .dwpsn  file "C:/ti/motorware/motorware_1_01_00_18/sw/solutions/instaspin_foc/src/proj_lab05h.c",line
    2286              $C$DW$251       .dwtag  DW_TAG_TI_branch
    2287                      .dwattr $C$DW$251, DW_AT_low_pc(0x00)
    2288                      .dwattr $C$DW$251, DW_AT_name("_USER_computeTorque_Ls_Id_Iq_pu_to_Nm_sf")
    2289                      .dwattr $C$DW$251, DW_AT_TI_call
    2290 000001b3 7640!         LCR       #_USER_computeTorque_Ls_Id_Iq_pu_to_Nm_sf ; [CPU_] |286| 
         000001b4 0000 
    2291                      ; call occurs [#_USER_computeTorque_Ls_Id_Iq_pu_to_Nm_sf] ; [] |286| 
    2292 000001b5 761F-         MOVW      DP,#_gTorque_Ls_Id_Iq_pu_to_Nm_sf ; [CPU_U] 
         000001b6 0000 
    2293 000001b7 1E06-         MOVL      @_gTorque_Ls_Id_Iq_pu_to_Nm_sf,ACC ; [CPU_] |286| 
    2294                      .dwpsn  file "C:/ti/motorware/motorware_1_01_00_18/sw/solutions/instaspin_foc/src/proj_lab05h.c",line
    2295              $C$DW$252       .dwtag  DW_TAG_TI_branch
    2296                      .dwattr $C$DW$252, DW_AT_low_pc(0x00)
    2297                      .dwattr $C$DW$252, DW_AT_name("_USER_computeTorque_Flux_Iq_pu_to_Nm_sf")
    2298                      .dwattr $C$DW$252, DW_AT_TI_call
    2299 000001b8 7640!         LCR       #_USER_computeTorque_Flux_Iq_pu_to_Nm_sf ; [CPU_] |287| 
         000001b9 0000 
    2300                      ; call occurs [#_USER_computeTorque_Flux_Iq_pu_to_Nm_sf] ; [] |287| 
    2301 000001ba 761F-         MOVW      DP,#_gTorque_Flux_Iq_pu_to_Nm_sf ; [CPU_U] 
         000001bb 0000 
TMS320C2000 Assembler PC v6.2.5 Wed Jun 21 14:56:42 2017

Tools Copyright (c) 1996-2014 Texas Instruments Incorporated
C:\Users\wmj\AppData\Local\Temp\0692810                              PAGE   47

    2302 000001bc 1E10-         MOVL      @_gTorque_Flux_Iq_pu_to_Nm_sf,ACC ; [CPU_] |287| 
    2303 000001bd       $C$L10:    
    2304 000001bd 761F-         MOVW      DP,#_gMotorVars       ; [CPU_U] 
         000001be 0001 
    2305                      .dwpsn  file "C:/ti/motorware/motorware_1_01_00_18/sw/solutions/instaspin_foc/src/proj_lab05h.c",line
    2306 000001bf 9200-         MOV       AL,@_gMotorVars       ; [CPU_] |292| 
    2307 000001c0 ECFD          BF        $C$L10,EQ             ; [CPU_] |292| 
    2308                      ; branchcc occurs ; [] |292| 
    2309 000001c1 761F-         MOVW      DP,#_ctrlHandle       ; [CPU_U] 
         000001c2 0000 
    2310                      .dwpsn  file "C:/ti/motorware/motorware_1_01_00_18/sw/solutions/instaspin_foc/src/proj_lab05h.c",line
    2311 000001c3 860C-         MOVL      XAR2,@_ctrlHandle     ; [CPU_] |295| 
    2312                      .dwpsn  file "C:/ti/motorware/motorware_1_01_00_18/sw/modules/ctrl/src/32b/ctrl.h",line 1288,column 3
    2313 000001c4 D0F4          MOVB      XAR0,#244             ; [CPU_] |1288| 
    2314 000001c5 56BF          MOVB      *+XAR2[AR0],#1,UNC    ; [CPU_] |1288| 
         000001c6 0192 
    2315                      .dwpsn  file "C:/ti/motorware/motorware_1_01_00_18/sw/solutions/instaspin_foc/src/proj_lab05h.c",line
    2316 000001c7 FFEF          B         $C$L27,UNC            ; [CPU_] |298| 
         000001c8 0173 
    2317                      ; branch occurs ; [] |298| 
    2318 000001c9       $C$L11:    
    2319                      .dwpsn  file "C:/ti/motorware/motorware_1_01_00_18/sw/solutions/instaspin_foc/src/proj_lab05h.c",line
    2320 000001c9 0A01-         INC       @_gCounter_updateGlobals ; [CPU_] |303| 
    2321                      .dwpsn  file "C:/ti/motorware/motorware_1_01_00_18/sw/modules/ctrl/src/32b/ctrl.h",line 1304,column 3
    2322 000001ca D0F5          MOVB      XAR0,#245             ; [CPU_] |1304| 
    2323                      .dwpsn  file "C:/ti/motorware/motorware_1_01_00_18/sw/solutions/instaspin_foc/src/proj_lab05h.c",line
    2324 000001cb 92F1          MOV       AL,*+XAR1[6]          ; [CPU_] |306| 
    2325                      .dwpsn  file "C:/ti/motorware/motorware_1_01_00_18/sw/modules/ctrl/src/32b/ctrl.h",line 1304,column 3
    2326 000001cc 9692          MOV       *+XAR2[AR0],AL        ; [CPU_] |1304| 
    2327                      .dwpsn  file "C:/ti/motorware/motorware_1_01_00_18/sw/solutions/instaspin_foc/src/proj_lab05h.c",line
    2328 000001cd D018          MOVB      XAR0,#24              ; [CPU_] |309| 
    2329 000001ce 8A92          MOVL      XAR4,*+XAR2[AR0]      ; [CPU_] |309| 
    2330 000001cf 92E9          MOV       AL,*+XAR1[5]          ; [CPU_] |309| 
    2331              $C$DW$253       .dwtag  DW_TAG_TI_branch
    2332                      .dwattr $C$DW$253, DW_AT_low_pc(0x00)
    2333                      .dwattr $C$DW$253, DW_AT_name("_EST_setFlag_enableRsRecalc")
    2334                      .dwattr $C$DW$253, DW_AT_TI_call
    2335 000001d0 7640!         LCR       #_EST_setFlag_enableRsRecalc ; [CPU_] |309| 
         000001d1 0000 
    2336                      ; call occurs [#_EST_setFlag_enableRsRecalc] ; [] |309| 
    2337 000001d2 761F-         MOVW      DP,#_ctrlHandle       ; [CPU_U] 
         000001d3 0000 
    2338                      .dwpsn  file "C:/ti/motorware/motorware_1_01_00_18/sw/solutions/instaspin_foc/src/proj_lab05h.c",line
    2339 000001d4 8A0C-         MOVL      XAR4,@_ctrlHandle     ; [CPU_] |312| 
    2340                      .dwpsn  file "C:/ti/motorware/motorware_1_01_00_18/sw/modules/ctrl/src/32b/ctrl.h",line 1275,column 3
    2341 000001d5 D0F3          MOVB      XAR0,#243             ; [CPU_] |1275| 
    2342                      .dwpsn  file "C:/ti/motorware/motorware_1_01_00_18/sw/solutions/instaspin_foc/src/proj_lab05h.c",line
    2343 000001d6 92F9          MOV       AL,*+XAR1[7]          ; [CPU_] |312| 
    2344                      .dwpsn  file "C:/ti/motorware/motorware_1_01_00_18/sw/modules/ctrl/src/32b/ctrl.h",line 1275,column 3
    2345 000001d7 9694          MOV       *+XAR4[AR0],AL        ; [CPU_] |1275| 
    2346                      .dwpsn  file "C:/ti/motorware/motorware_1_01_00_18/sw/modules/ctrl/src/32b/ctrl.h",line 1060,column 3
    2347 000001d8 92E4          MOV       AL,*+XAR4[4]          ; [CPU_] |1060| 
    2348 000001d9 56C1          BF        $C$L22,EQ             ; [CPU_] |1060| 
         000001da 00C7 
    2349                      ; branchcc occurs ; [] |1060| 
TMS320C2000 Assembler PC v6.2.5 Wed Jun 21 14:56:42 2017

Tools Copyright (c) 1996-2014 Texas Instruments Incorporated
C:\Users\wmj\AppData\Local\Temp\0692810                              PAGE   48

    2350                      .dwpsn  file "C:/ti/motorware/motorware_1_01_00_18/sw/solutions/instaspin_foc/src/proj_lab05h.c",line
    2351              $C$DW$254       .dwtag  DW_TAG_TI_branch
    2352                      .dwattr $C$DW$254, DW_AT_low_pc(0x00)
    2353                      .dwattr $C$DW$254, DW_AT_name("_CTRL_updateState")
    2354                      .dwattr $C$DW$254, DW_AT_TI_call
    2355 000001db 7640!         LCR       #_CTRL_updateState    ; [CPU_] |328| 
         000001dc 0000 
    2356                      ; call occurs [#_CTRL_updateState] ; [] |328| 
    2357 000001dd 761F-         MOVW      DP,#_ctrlHandle       ; [CPU_U] 
         000001de 0000 
    2358                      .dwpsn  file "C:/ti/motorware/motorware_1_01_00_18/sw/solutions/instaspin_foc/src/proj_lab05h.c",line
    2359 000001df 8A0C-         MOVL      XAR4,@_ctrlHandle     ; [CPU_] |331| 
    2360 000001e0 93C9          MOV       AH,*+XAR1[1]          ; [CPU_] |331| 
    2361                      .dwpsn  file "C:/ti/motorware/motorware_1_01_00_18/sw/modules/ctrl/src/32b/ctrl.h",line 1218,column 3
    2362 000001e1 D0F0          MOVB      XAR0,#240             ; [CPU_] |1218| 
    2363                      .dwpsn  file "C:/ti/motorware/motorware_1_01_00_18/sw/solutions/instaspin_foc/src/proj_lab05h.c",line
    2364 000001e2 5200          CMPB      AL,#0                 ; [CPU_] |333| 
    2365                      .dwpsn  file "C:/ti/motorware/motorware_1_01_00_18/sw/modules/ctrl/src/32b/ctrl.h",line 1218,column 3
    2366 000001e3 9794          MOV       *+XAR4[AR0],AH        ; [CPU_] |1218| 
    2367                      .dwpsn  file "C:/ti/motorware/motorware_1_01_00_18/sw/solutions/instaspin_foc/src/proj_lab05h.c",line
    2368 000001e4 56C1          BF        $C$L23,EQ             ; [CPU_] |333| 
         000001e5 00D7 
    2369                      ; branchcc occurs ; [] |333| 
    2370                      .dwpsn  file "C:/ti/motorware/motorware_1_01_00_18/sw/modules/ctrl/src/32b/ctrl.h",line 771,column 3,
    2371 000001e6 92E4          MOV       AL,*+XAR4[4]          ; [CPU_] |771| 
    2372 000001e7 9647          MOV       *-SP[7],AL            ; [CPU_] |771| 
    2373 000001e8 5202          CMPB      AL,#2                 ; [CPU_] |771| 
    2374 000001e9 56C1          BF        $C$L19,EQ             ; [CPU_] |771| 
         000001ea 0093 
    2375                      ; branchcc occurs ; [] |771| 
    2376                      .dwpsn  file "C:/ti/motorware/motorware_1_01_00_18/sw/solutions/instaspin_foc/src/proj_lab05h.c",line
    2377 000001eb 5203          CMPB      AL,#3                 ; [CPU_] |342| 
    2378 000001ec EC1B          BF        $C$L12,EQ             ; [CPU_] |342| 
    2379                      ; branchcc occurs ; [] |342| 
    2380                      .dwpsn  file "C:/ti/motorware/motorware_1_01_00_18/sw/solutions/instaspin_foc/src/proj_lab05h.c",line
    2381 000001ed 5201          CMPB      AL,#1                 ; [CPU_] |375| 
    2382 000001ee 56C0          BF        $C$L21,NEQ            ; [CPU_] |375| 
         000001ef 00A2 
    2383                      ; branchcc occurs ; [] |375| 
    2384                      .dwpsn  file "C:/ti/motorware/motorware_1_01_00_18/sw/modules/hal/boards/drv8312kit_revD/f28x/f2802x/
    2385 000001f0 830A-         MOVL      XAR5,@_halHandle      ; [CPU_] |232| 
    2386                      .dwpsn  file "C:/ti/motorware/motorware_1_01_00_18/sw/modules/hal/boards/drv8312kit_revD/f28x/f2802x/
    2387 000001f1 DD7C          ADDB      XAR5,#124             ; [CPU_] |234| 
    2388 000001f2 C4C5          MOVL      XAR6,*+XAR5[0]        ; [CPU_] |234| 
    2389 000001f3 7622   EALLOW
    2390                      .dwpsn  file "C:/ti/motorware/motorware_1_01_00_18/sw/drivers/pwm/src/32b/f28x/f2802x/pwm.h",line 156
    2391 000001f4 DE18          ADDB      XAR6,#24              ; [CPU_] |1567| 
    2392 000001f5 1AC6          OR        *+XAR6[0],#0x0004     ; [CPU_] |1567| 
         000001f6 0004 
    2393 000001f7 761A   EDIS
    2394                      .dwpsn  file "C:/ti/motorware/motorware_1_01_00_18/sw/modules/hal/boards/drv8312kit_revD/f28x/f2802x/
    2395 000001f8 C4D5          MOVL      XAR6,*+XAR5[2]        ; [CPU_] |235| 
    2396 000001f9 7622   EALLOW
    2397                      .dwpsn  file "C:/ti/motorware/motorware_1_01_00_18/sw/drivers/pwm/src/32b/f28x/f2802x/pwm.h",line 156
    2398 000001fa DE18          ADDB      XAR6,#24              ; [CPU_] |1567| 
TMS320C2000 Assembler PC v6.2.5 Wed Jun 21 14:56:42 2017

Tools Copyright (c) 1996-2014 Texas Instruments Incorporated
C:\Users\wmj\AppData\Local\Temp\0692810                              PAGE   49

    2399 000001fb 1AC6          OR        *+XAR6[0],#0x0004     ; [CPU_] |1567| 
         000001fc 0004 
    2400 000001fd 761A   EDIS
    2401                      .dwpsn  file "C:/ti/motorware/motorware_1_01_00_18/sw/modules/hal/boards/drv8312kit_revD/f28x/f2802x/
    2402 000001fe 83E5          MOVL      XAR5,*+XAR5[4]        ; [CPU_] |236| 
    2403 000001ff 7622   EALLOW
    2404                      .dwpsn  file "C:/ti/motorware/motorware_1_01_00_18/sw/drivers/pwm/src/32b/f28x/f2802x/pwm.h",line 156
    2405 00000200 DD18          ADDB      XAR5,#24              ; [CPU_] |1567| 
    2406 00000201 1AC5          OR        *+XAR5[0],#0x0004     ; [CPU_] |1567| 
         00000202 0004 
    2407 00000203 761A   EDIS
    2408                      .dwpsn  file "C:/ti/motorware/motorware_1_01_00_18/sw/solutions/instaspin_foc/src/proj_lab05h.c",line
    2409 00000204 2BC9          MOV       *+XAR1[1],#0          ; [CPU_] |379| 
    2410 00000205 FFEF          B         $C$L21,UNC            ; [CPU_] |379| 
         00000206 008B 
    2411                      ; branch occurs ; [] |379| 
    2412 00000207       $C$L12:    
    2413 00000207 761F-         MOVW      DP,#_gMotorVars+7     ; [CPU_U] 
         00000208 0001 
    2414                      .dwpsn  file "C:/ti/motorware/motorware_1_01_00_18/sw/solutions/instaspin_foc/src/proj_lab05h.c",line
    2415 00000209 9207-         MOV       AL,@_gMotorVars+7     ; [CPU_] |344| 
    2416 0000020a 5201          CMPB      AL,#1                 ; [CPU_] |344| 
    2417 0000020b EC22          BF        $C$L13,EQ             ; [CPU_] |344| 
    2418                      ; branchcc occurs ; [] |344| 
    2419 0000020c 761F-         MOVW      DP,#_halHandle        ; [CPU_U] 
         0000020d 0000 
    2420                      .dwpsn  file "C:/ti/motorware/motorware_1_01_00_18/sw/modules/hal/boards/drv8312kit_revD/f28x/f2802x/
    2421 0000020e 0292          MOVB      ACC,#146              ; [CPU_] |698| 
    2422                      .dwpsn  file "C:/ti/motorware/motorware_1_01_00_18/sw/solutions/instaspin_foc/src/proj_lab05h.c",line
    2423 0000020f A30A-         MOVL      P,@_halHandle         ; [CPU_] |352| 
    2424                      .dwpsn  file "C:/ti/motorware/motorware_1_01_00_18/sw/modules/hal/boards/drv8312kit_revD/f28x/f2802x/
    2425 00000210 07AB          ADDL      ACC,P                 ; [CPU_] |698| 
    2426 00000211 83A9          MOVL      XAR5,ACC              ; [CPU_] |698| 
    2427 00000212 28A9          MOV       AL,#7699              ; [CPU_] |698| 
         00000213 1E13 
    2428 00000214 9BEF          MOV       AH,#239               ; [CPU_] |698| 
    2429 00000215 1EC5          MOVL      *+XAR5[0],ACC         ; [CPU_] |698| 
    2430 00000216 28A9          MOV       AL,#26959             ; [CPU_] |698| 
         00000217 694F 
    2431 00000218 9BED          MOV       AH,#237               ; [CPU_] |698| 
    2432 00000219 1ED5          MOVL      *+XAR5[2],ACC         ; [CPU_] |698| 
    2433 0000021a 28A9          MOV       AL,#33771             ; [CPU_] |698| 
         0000021b 83EB 
    2434 0000021c 9BEF          MOV       AH,#239               ; [CPU_] |698| 
    2435 0000021d 1EE5          MOVL      *+XAR5[4],ACC         ; [CPU_] |698| 
    2436                      .dwpsn  file "C:/ti/motorware/motorware_1_01_00_18/sw/modules/hal/boards/drv8312kit_revD/f28x/f2802x/
    2437 0000021e 0298          MOVB      ACC,#152              ; [CPU_] |702| 
    2438 0000021f 07AB          ADDL      ACC,P                 ; [CPU_] |702| 
    2439 00000220 83A9          MOVL      XAR5,ACC              ; [CPU_] |702| 
    2440 00000221 28A9          MOV       AL,#43867             ; [CPU_] |702| 
         00000222 AB5B 
    2441 00000223 9B57          MOV       AH,#87                ; [CPU_] |702| 
    2442 00000224 1EC5          MOVL      *+XAR5[0],ACC         ; [CPU_] |702| 
    2443 00000225 FF28          MOV       ACC,#22345 << 8       ; [CPU_] |702| 
         00000226 5749 
TMS320C2000 Assembler PC v6.2.5 Wed Jun 21 14:56:42 2017

Tools Copyright (c) 1996-2014 Texas Instruments Incorporated
C:\Users\wmj\AppData\Local\Temp\0692810                              PAGE   50

    2444 00000227 1ED5          MOVL      *+XAR5[2],ACC         ; [CPU_] |702| 
    2445 00000228 28A9          MOV       AL,#42467             ; [CPU_] |702| 
         00000229 A5E3 
    2446 0000022a 9B57          MOV       AH,#87                ; [CPU_] |702| 
    2447 0000022b 1EE5          MOVL      *+XAR5[4],ACC         ; [CPU_] |702| 
    2448 0000022c 6F37          B         $C$L18,UNC            ; [CPU_] |702| 
    2449                      ; branch occurs ; [] |702| 
    2450 0000022d       $C$L13:    
    2451 0000022d 761F-         MOVW      DP,#_halHandle        ; [CPU_U] 
         0000022e 0000 
    2452                      .dwpsn  file "C:/ti/motorware/motorware_1_01_00_18/sw/solutions/instaspin_foc/src/proj_lab05h.c",line
    2453 0000022f A30A-         MOVL      P,@_halHandle         ; [CPU_] |347| 
    2454                      .dwpsn  file "C:/ti/motorware/motorware_1_01_00_18/sw/modules/hal/boards/drv8312kit_revD/f28x/f2802x/
    2455 00000230 D100          MOVB      XAR1,#0               ; [CPU_] |965| 
    2456                      .dwpsn  file "C:/ti/motorware/motorware_1_01_00_18/sw/solutions/instaspin_foc/src/proj_lab05h.c",line
    2457 00000231 A9A5          MOVL      XAR5,P                ; [CPU_] |347| 
    2458                      .dwpsn  file "C:/ti/motorware/motorware_1_01_00_18/sw/modules/hal/boards/drv8312kit_revD/f28x/f2802x/
    2459 00000232 6F14          B         $C$L15,UNC            ; [CPU_] |965| 
    2460                      ; branch occurs ; [] |965| 
    2461 00000233       $C$L14:    
    2462                      .dwpsn  file "C:/ti/motorware/motorware_1_01_00_18/sw/modules/hal/boards/drv8312kit_revD/f28x/f2802x/
    2463 00000233 0EA1          MOVU      ACC,AR1               ; [CPU_] |313| 
    2464 00000234 BE92          MOVB      XAR6,#146             ; [CPU_] |313| 
    2465 00000235 FF30          LSL       ACC,1                 ; [CPU_] |313| 
    2466 00000236 8EA9          MOVL      XAR0,ACC              ; [CPU_] |313| 
    2467 00000237 A0A9          MOVL      ACC,XAR5              ; [CPU_] |313| 
    2468 00000238 07A0          ADDL      ACC,XAR0              ; [CPU_] |313| 
    2469 00000239 0DA6          ADDU      ACC,AR6               ; [CPU_] |313| 
    2470 0000023a 1EA7          MOVL      XAR7,ACC              ; [CPU_] |313| 
    2471                      .dwpsn  file "C:/ti/motorware/motorware_1_01_00_18/sw/modules/hal/boards/drv8312kit_revD/f28x/f2802x/
    2472 0000023b C4A5          MOVL      XAR6,XAR5             ; [CPU_] |969| 
    2473 0000023c 3AA9          MOVL      ACC,XAR0              ; [CPU_] |969| 
    2474 0000023d D00A          MOVB      XAR0,#10              ; [CPU_] |969| 
    2475 0000023e 5601          ADDL      XAR6,ACC              ; [CPU_] |969| 
         0000023f 00A6 
    2476 00000240 C496          MOVL      XAR6,*+XAR6[AR0]      ; [CPU_] |969| 
    2477                      .dwpsn  file "C:/ti/motorware/motorware_1_01_00_18/sw/modules/hal/boards/drv8312kit_revD/f28x/f2802x/
    2478 00000241 87C7          MOVL      XT,*+XAR7[0]          ; [CPU_] |313| 
    2479                      .dwpsn  file "C:/ti/motorware/motorware_1_01_00_18/sw/modules/hal/boards/drv8312kit_revD/f28x/f2802x/
    2480 00000242 D901          ADDB      XAR1,#1               ; [CPU_] |965| 
    2481                      .dwpsn  file "C:/ti/motorware/motorware_1_01_00_18/sw/modules/hal/boards/drv8312kit_revD/f28x/f2802x/
    2482 00000243 ABA9          MOVL      ACC,XT                ; [CPU_] |969| 
    2483 00000244 07C6          ADDL      ACC,*+XAR6[0]         ; [CPU_] |969| 
    2484                      .dwpsn  file "C:/ti/motorware/motorware_1_01_00_18/sw/modules/hal/boards/drv8312kit_revD/f28x/f2802x/
    2485 00000245 1EC7          MOVL      *+XAR7[0],ACC         ; [CPU_] |698| 
    2486 00000246       $C$L15:    
    2487                      .dwpsn  file "C:/ti/motorware/motorware_1_01_00_18/sw/modules/hal/boards/drv8312kit_revD/f28x/f2802x/
    2488 00000246 D0A4          MOVB      XAR0,#164             ; [CPU_] |965| 
    2489 00000247 92A1          MOV       AL,AR1                ; [CPU_] |965| 
    2490 00000248 5495          CMP       AL,*+XAR5[AR0]        ; [CPU_] |965| 
    2491 00000249 68EA          B         $C$L14,LO             ; [CPU_] |965| 
    2492                      ; branchcc occurs ; [] |965| 
    2493                      .dwpsn  file "C:/ti/motorware/motorware_1_01_00_18/sw/modules/hal/boards/drv8312kit_revD/f28x/f2802x/
    2494 0000024a D100          MOVB      XAR1,#0               ; [CPU_] |976| 
    2495 0000024b 6F14          B         $C$L17,UNC            ; [CPU_] |976| 
TMS320C2000 Assembler PC v6.2.5 Wed Jun 21 14:56:42 2017

Tools Copyright (c) 1996-2014 Texas Instruments Incorporated
C:\Users\wmj\AppData\Local\Temp\0692810                              PAGE   51

    2496                      ; branch occurs ; [] |976| 
    2497 0000024c       $C$L16:    
    2498                      .dwpsn  file "C:/ti/motorware/motorware_1_01_00_18/sw/modules/hal/boards/drv8312kit_revD/f28x/f2802x/
    2499 0000024c 0EA1          MOVU      ACC,AR1               ; [CPU_] |317| 
    2500 0000024d BE98          MOVB      XAR6,#152             ; [CPU_] |317| 
    2501 0000024e FF30          LSL       ACC,1                 ; [CPU_] |317| 
    2502 0000024f 8EA9          MOVL      XAR0,ACC              ; [CPU_] |317| 
    2503 00000250 A0A9          MOVL      ACC,XAR5              ; [CPU_] |317| 
    2504 00000251 07A0          ADDL      ACC,XAR0              ; [CPU_] |317| 
    2505 00000252 0DA6          ADDU      ACC,AR6               ; [CPU_] |317| 
    2506 00000253 1EA7          MOVL      XAR7,ACC              ; [CPU_] |317| 
    2507                      .dwpsn  file "C:/ti/motorware/motorware_1_01_00_18/sw/modules/hal/boards/drv8312kit_revD/f28x/f2802x/
    2508 00000254 C4A5          MOVL      XAR6,XAR5             ; [CPU_] |980| 
    2509 00000255 3AA9          MOVL      ACC,XAR0              ; [CPU_] |980| 
    2510 00000256 D040          MOVB      XAR0,#64              ; [CPU_] |980| 
    2511 00000257 5601          ADDL      XAR6,ACC              ; [CPU_] |980| 
         00000258 00A6 
    2512 00000259 C496          MOVL      XAR6,*+XAR6[AR0]      ; [CPU_] |980| 
    2513                      .dwpsn  file "C:/ti/motorware/motorware_1_01_00_18/sw/modules/hal/boards/drv8312kit_revD/f28x/f2802x/
    2514 0000025a 87C7          MOVL      XT,*+XAR7[0]          ; [CPU_] |317| 
    2515                      .dwpsn  file "C:/ti/motorware/motorware_1_01_00_18/sw/modules/hal/boards/drv8312kit_revD/f28x/f2802x/
    2516 0000025b D901          ADDB      XAR1,#1               ; [CPU_] |976| 
    2517                      .dwpsn  file "C:/ti/motorware/motorware_1_01_00_18/sw/modules/hal/boards/drv8312kit_revD/f28x/f2802x/
    2518 0000025c ABA9          MOVL      ACC,XT                ; [CPU_] |980| 
    2519 0000025d 07C6          ADDL      ACC,*+XAR6[0]         ; [CPU_] |980| 
    2520                      .dwpsn  file "C:/ti/motorware/motorware_1_01_00_18/sw/modules/hal/boards/drv8312kit_revD/f28x/f2802x/
    2521 0000025e 1EC7          MOVL      *+XAR7[0],ACC         ; [CPU_] |702| 
    2522 0000025f       $C$L17:    
    2523                      .dwpsn  file "C:/ti/motorware/motorware_1_01_00_18/sw/modules/hal/boards/drv8312kit_revD/f28x/f2802x/
    2524 0000025f D0A5          MOVB      XAR0,#165             ; [CPU_] |976| 
    2525 00000260 92A1          MOV       AL,AR1                ; [CPU_] |976| 
    2526 00000261 5495          CMP       AL,*+XAR5[AR0]        ; [CPU_] |976| 
    2527 00000262 68EA          B         $C$L16,LO             ; [CPU_] |976| 
    2528                      ; branchcc occurs ; [] |976| 
    2529 00000263       $C$L18:    
    2530                      .dwpsn  file "C:/ti/motorware/motorware_1_01_00_18/sw/solutions/instaspin_foc/src/proj_lab05h.c",line
    2531 00000263 76C0-         MOVL      XAR7,#_gMotorVars     ; [CPU_U] |363| 
         00000264 0040 
    2532                      .dwpsn  file "C:/ti/motorware/motorware_1_01_00_18/sw/modules/hal/boards/drv8312kit_revD/f28x/f2802x/
    2533 00000265 0292          MOVB      ACC,#146              ; [CPU_] |313| 
    2534                      .dwpsn  file "C:/ti/motorware/motorware_1_01_00_18/sw/solutions/instaspin_foc/src/proj_lab05h.c",line
    2535 00000266 C4A7          MOVL      XAR6,XAR7             ; [CPU_] |363| 
    2536                      .dwpsn  file "C:/ti/motorware/motorware_1_01_00_18/sw/modules/hal/boards/drv8312kit_revD/f28x/f2802x/
    2537 00000267 07AB          ADDL      ACC,P                 ; [CPU_] |313| 
    2538 00000268 83A9          MOVL      XAR5,ACC              ; [CPU_] |313| 
    2539 00000269 06C5          MOVL      ACC,*+XAR5[0]         ; [CPU_] |313| 
    2540                      .dwpsn  file "C:/ti/motorware/motorware_1_01_00_18/sw/solutions/instaspin_foc/src/proj_lab05h.c",line
    2541 0000026a DE5E          ADDB      XAR6,#94              ; [CPU_] |363| 
    2542 0000026b 1EC6          MOVL      *+XAR6[0],ACC         ; [CPU_] |363| 
    2543                      .dwpsn  file "C:/ti/motorware/motorware_1_01_00_18/sw/solutions/instaspin_foc/src/proj_lab05h.c",line
    2544 0000026c DF64          ADDB      XAR7,#100             ; [CPU_] |368| 
    2545                      .dwpsn  file "C:/ti/motorware/motorware_1_01_00_18/sw/modules/hal/boards/drv8312kit_revD/f28x/f2802x/
    2546 0000026d 06D5          MOVL      ACC,*+XAR5[2]         ; [CPU_] |313| 
    2547                      .dwpsn  file "C:/ti/motorware/motorware_1_01_00_18/sw/solutions/instaspin_foc/src/proj_lab05h.c",line
    2548 0000026e 1ED6          MOVL      *+XAR6[2],ACC         ; [CPU_] |364| 
TMS320C2000 Assembler PC v6.2.5 Wed Jun 21 14:56:42 2017

Tools Copyright (c) 1996-2014 Texas Instruments Incorporated
C:\Users\wmj\AppData\Local\Temp\0692810                              PAGE   52

    2549                      .dwpsn  file "C:/ti/motorware/motorware_1_01_00_18/sw/modules/hal/boards/drv8312kit_revD/f28x/f2802x/
    2550 0000026f 06E5          MOVL      ACC,*+XAR5[4]         ; [CPU_] |313| 
    2551                      .dwpsn  file "C:/ti/motorware/motorware_1_01_00_18/sw/solutions/instaspin_foc/src/proj_lab05h.c",line
    2552 00000270 1EE6          MOVL      *+XAR6[4],ACC         ; [CPU_] |365| 
    2553                      .dwpsn  file "C:/ti/motorware/motorware_1_01_00_18/sw/modules/hal/boards/drv8312kit_revD/f28x/f2802x/
    2554 00000271 0298          MOVB      ACC,#152              ; [CPU_] |317| 
    2555 00000272 07AB          ADDL      ACC,P                 ; [CPU_] |317| 
    2556 00000273 83A9          MOVL      XAR5,ACC              ; [CPU_] |317| 
    2557 00000274 06C5          MOVL      ACC,*+XAR5[0]         ; [CPU_] |317| 
    2558                      .dwpsn  file "C:/ti/motorware/motorware_1_01_00_18/sw/solutions/instaspin_foc/src/proj_lab05h.c",line
    2559 00000275 1EC7          MOVL      *+XAR7[0],ACC         ; [CPU_] |368| 
    2560                      .dwpsn  file "C:/ti/motorware/motorware_1_01_00_18/sw/modules/hal/boards/drv8312kit_revD/f28x/f2802x/
    2561 00000276 06D5          MOVL      ACC,*+XAR5[2]         ; [CPU_] |317| 
    2562                      .dwpsn  file "C:/ti/motorware/motorware_1_01_00_18/sw/solutions/instaspin_foc/src/proj_lab05h.c",line
    2563 00000277 1ED7          MOVL      *+XAR7[2],ACC         ; [CPU_] |369| 
    2564                      .dwpsn  file "C:/ti/motorware/motorware_1_01_00_18/sw/modules/hal/boards/drv8312kit_revD/f28x/f2802x/
    2565 00000278 06E5          MOVL      ACC,*+XAR5[4]         ; [CPU_] |317| 
    2566                      .dwpsn  file "C:/ti/motorware/motorware_1_01_00_18/sw/modules/hal/boards/drv8312kit_revD/f28x/f2802x/
    2567 00000279 A9A5          MOVL      XAR5,P                ; [CPU_] |270| 
    2568                      .dwpsn  file "C:/ti/motorware/motorware_1_01_00_18/sw/solutions/instaspin_foc/src/proj_lab05h.c",line
    2569 0000027a 1EE7          MOVL      *+XAR7[4],ACC         ; [CPU_] |370| 
    2570                      .dwpsn  file "C:/ti/motorware/motorware_1_01_00_18/sw/drivers/pwm/src/32b/f28x/f2802x/pwm.h",line 955
    2571 0000027b 6F02          B         $C$L20,UNC            ; [CPU_] |955| 
    2572                      ; branch occurs ; [] |955| 
    2573 0000027c       $C$L19:    
    2574                      .dwpsn  file "C:/ti/motorware/motorware_1_01_00_18/sw/modules/hal/boards/drv8312kit_revD/f28x/f2802x/
    2575 0000027c 830A-         MOVL      XAR5,@_halHandle      ; [CPU_] |268| 
    2576 0000027d       $C$L20:    
    2577                      .dwpsn  file "C:/ti/motorware/motorware_1_01_00_18/sw/modules/hal/boards/drv8312kit_revD/f28x/f2802x/
    2578 0000027d DD7C          ADDB      XAR5,#124             ; [CPU_] |270| 
    2579 0000027e C4C5          MOVL      XAR6,*+XAR5[0]        ; [CPU_] |270| 
    2580 0000027f 7622   EALLOW
    2581                      .dwpsn  file "C:/ti/motorware/motorware_1_01_00_18/sw/drivers/pwm/src/32b/f28x/f2802x/pwm.h",line 951
    2582 00000280 D017          MOVB      XAR0,#23              ; [CPU_] |951| 
    2583 00000281 56BF          MOVB      *+XAR6[AR0],#4,UNC    ; [CPU_] |951| 
         00000282 0496 
    2584 00000283 761A   EDIS
    2585                      .dwpsn  file "C:/ti/motorware/motorware_1_01_00_18/sw/modules/hal/boards/drv8312kit_revD/f28x/f2802x/
    2586 00000284 C4D5          MOVL      XAR6,*+XAR5[2]        ; [CPU_] |271| 
    2587 00000285 7622   EALLOW
    2588                      .dwpsn  file "C:/ti/motorware/motorware_1_01_00_18/sw/drivers/pwm/src/32b/f28x/f2802x/pwm.h",line 951
    2589 00000286 D017          MOVB      XAR0,#23              ; [CPU_] |951| 
    2590 00000287 56BF          MOVB      *+XAR6[AR0],#4,UNC    ; [CPU_] |951| 
         00000288 0496 
    2591 00000289 761A   EDIS
    2592                      .dwpsn  file "C:/ti/motorware/motorware_1_01_00_18/sw/modules/hal/boards/drv8312kit_revD/f28x/f2802x/
    2593 0000028a 83E5          MOVL      XAR5,*+XAR5[4]        ; [CPU_] |272| 
    2594 0000028b 7622   EALLOW
    2595                      .dwpsn  file "C:/ti/motorware/motorware_1_01_00_18/sw/drivers/pwm/src/32b/f28x/f2802x/pwm.h",line 951
    2596 0000028c D017          MOVB      XAR0,#23              ; [CPU_] |951| 
    2597 0000028d 56BF          MOVB      *+XAR5[AR0],#4,UNC    ; [CPU_] |951| 
         0000028e 0495 
    2598 0000028f 761A   EDIS
    2599 00000290       $C$L21:    
    2600                      .dwpsn  file "C:/ti/motorware/motorware_1_01_00_18/sw/solutions/instaspin_foc/src/proj_lab05h.c",line
TMS320C2000 Assembler PC v6.2.5 Wed Jun 21 14:56:42 2017

Tools Copyright (c) 1996-2014 Texas Instruments Incorporated
C:\Users\wmj\AppData\Local\Temp\0692810                              PAGE   53

    2601 00000290 D0F5          MOVB      XAR0,#245             ; [CPU_] |382| 
    2602 00000291 9294          MOV       AL,*+XAR4[AR0]        ; [CPU_] |382| 
    2603 00000292 5201          CMPB      AL,#1                 ; [CPU_] |382| 
    2604 00000293 ED28          BF        $C$L23,NEQ            ; [CPU_] |382| 
    2605                      ; branchcc occurs ; [] |382| 
    2606 00000294 9247          MOV       AL,*-SP[7]            ; [CPU_] 
    2607 00000295 5202          CMPB      AL,#2                 ; [CPU_] |382| 
    2608 00000296 6425          B         $C$L23,LT             ; [CPU_] |382| 
    2609                      ; branchcc occurs ; [] |382| 
    2610 00000297 761F-         MOVW      DP,#_gMotorVars+19    ; [CPU_U] 
         00000298 0001 
    2611 00000299 9213-         MOV       AL,@_gMotorVars+19    ; [CPU_] |382| 
    2612 0000029a 5206          CMPB      AL,#6                 ; [CPU_] |382| 
    2613 0000029b ED20          BF        $C$L23,NEQ            ; [CPU_] |382| 
    2614                      ; branchcc occurs ; [] |382| 
    2615 0000029c FF69          SPM       #0                    ; [CPU_] 
    2616                      .dwpsn  file "C:/ti/motorware/motorware_1_01_00_18/sw/solutions/instaspin_foc/src/proj_lab05h.c",line
    2617              $C$DW$255       .dwtag  DW_TAG_TI_branch
    2618                      .dwattr $C$DW$255, DW_AT_low_pc(0x00)
    2619                      .dwattr $C$DW$255, DW_AT_name("_USER_softwareUpdate1p6")
    2620                      .dwattr $C$DW$255, DW_AT_TI_call
    2621 0000029d 7640!         LCR       #_USER_softwareUpdate1p6 ; [CPU_] |387| 
         0000029e 0000 
    2622                      ; call occurs [#_USER_softwareUpdate1p6] ; [] |387| 
    2623 0000029f 6F1C          B         $C$L23,UNC            ; [CPU_] |387| 
    2624                      ; branch occurs ; [] |387| 
    2625 000002a0       $C$L22:    
    2626                      .dwpsn  file "C:/ti/motorware/motorware_1_01_00_18/sw/modules/ctrl/src/32b/ctrl.h",line 1218,column 3
    2627 000002a0 D0F0          MOVB      XAR0,#240             ; [CPU_] |1218| 
    2628 000002a1 761F-         MOVW      DP,#_gMotorVars       ; [CPU_U] 
         000002a2 0001 
    2629 000002a3 2B94          MOV       *+XAR4[AR0],#0        ; [CPU_] |1218| 
    2630                      .dwpsn  file "C:/ti/motorware/motorware_1_01_00_18/sw/solutions/instaspin_foc/src/proj_lab05h.c",line
    2631 000002a4 2B00-         MOV       @_gMotorVars,#0       ; [CPU_] |320| 
    2632 000002a5 761F-         MOVW      DP,#_halHandle        ; [CPU_U] 
         000002a6 0000 
    2633                      .dwpsn  file "C:/ti/motorware/motorware_1_01_00_18/sw/modules/hal/boards/drv8312kit_revD/f28x/f2802x/
    2634 000002a7 8A0A-         MOVL      XAR4,@_halHandle      ; [CPU_] |232| 
    2635                      .dwpsn  file "C:/ti/motorware/motorware_1_01_00_18/sw/modules/hal/boards/drv8312kit_revD/f28x/f2802x/
    2636 000002a8 DC7C          ADDB      XAR4,#124             ; [CPU_] |234| 
    2637 000002a9 83C4          MOVL      XAR5,*+XAR4[0]        ; [CPU_] |234| 
    2638 000002aa 7622   EALLOW
    2639                      .dwpsn  file "C:/ti/motorware/motorware_1_01_00_18/sw/drivers/pwm/src/32b/f28x/f2802x/pwm.h",line 156
    2640 000002ab DD18          ADDB      XAR5,#24              ; [CPU_] |1567| 
    2641 000002ac 1AC5          OR        *+XAR5[0],#0x0004     ; [CPU_] |1567| 
         000002ad 0004 
    2642 000002ae 761A   EDIS
    2643                      .dwpsn  file "C:/ti/motorware/motorware_1_01_00_18/sw/modules/hal/boards/drv8312kit_revD/f28x/f2802x/
    2644 000002af 83D4          MOVL      XAR5,*+XAR4[2]        ; [CPU_] |235| 
    2645 000002b0 7622   EALLOW
    2646                      .dwpsn  file "C:/ti/motorware/motorware_1_01_00_18/sw/drivers/pwm/src/32b/f28x/f2802x/pwm.h",line 156
    2647 000002b1 DD18          ADDB      XAR5,#24              ; [CPU_] |1567| 
    2648 000002b2 1AC5          OR        *+XAR5[0],#0x0004     ; [CPU_] |1567| 
         000002b3 0004 
    2649 000002b4 761A   EDIS
TMS320C2000 Assembler PC v6.2.5 Wed Jun 21 14:56:42 2017

Tools Copyright (c) 1996-2014 Texas Instruments Incorporated
C:\Users\wmj\AppData\Local\Temp\0692810                              PAGE   54

    2650                      .dwpsn  file "C:/ti/motorware/motorware_1_01_00_18/sw/modules/hal/boards/drv8312kit_revD/f28x/f2802x/
    2651 000002b5 8AE4          MOVL      XAR4,*+XAR4[4]        ; [CPU_] |236| 
    2652 000002b6 7622   EALLOW
    2653                      .dwpsn  file "C:/ti/motorware/motorware_1_01_00_18/sw/drivers/pwm/src/32b/f28x/f2802x/pwm.h",line 156
    2654 000002b7 DC18          ADDB      XAR4,#24              ; [CPU_] |1567| 
    2655 000002b8 1AC4          OR        *+XAR4[0],#0x0004     ; [CPU_] |1567| 
         000002b9 0004 
    2656 000002ba 761A   EDIS
    2657 000002bb       $C$L23:    
    2658                      .dwpsn  file "C:/ti/motorware/motorware_1_01_00_18/sw/solutions/instaspin_foc/src/proj_lab05h.c",line
    2659 000002bb D018          MOVB      XAR0,#24              ; [CPU_] |393| 
    2660 000002bc FF69          SPM       #0                    ; [CPU_] 
    2661 000002bd 8A92          MOVL      XAR4,*+XAR2[AR0]      ; [CPU_] |393| 
    2662              $C$DW$256       .dwtag  DW_TAG_TI_branch
    2663                      .dwattr $C$DW$256, DW_AT_low_pc(0x00)
    2664                      .dwattr $C$DW$256, DW_AT_name("_EST_isMotorIdentified")
    2665                      .dwattr $C$DW$256, DW_AT_TI_call
    2666 000002be 7640!         LCR       #_EST_isMotorIdentified ; [CPU_] |393| 
         000002bf 0000 
    2667                      ; call occurs [#_EST_isMotorIdentified] ; [] |393| 
    2668 000002c0 5200          CMPB      AL,#0                 ; [CPU_] |393| 
    2669 000002c1 EC42          BF        $C$L24,EQ             ; [CPU_] |393| 
    2670                      ; branchcc occurs ; [] |393| 
    2671 000002c2 761F-         MOVW      DP,#_ctrlHandle       ; [CPU_U] 
         000002c3 0000 
    2672                      .dwpsn  file "C:/ti/motorware/motorware_1_01_00_18/sw/solutions/instaspin_foc/src/proj_lab05h.c",line
    2673 000002c4 8D40-         MOVL      XAR1,#_gMotorVars     ; [CPU_U] |402| 
         000002c5 0040 
    2674                      .dwpsn  file "C:/ti/motorware/motorware_1_01_00_18/sw/modules/ctrl/src/32b/ctrl.h",line 1546,column 3
    2675 000002c6 8A0C-         MOVL      XAR4,@_ctrlHandle     ; [CPU_] |1546| 
    2676                      .dwpsn  file "C:/ti/motorware/motorware_1_01_00_18/sw/solutions/instaspin_foc/src/proj_lab05h.c",line
    2677 000002c7 D022          MOVB      XAR0,#34              ; [CPU_] |402| 
    2678 000002c8 0691          MOVL      ACC,*+XAR1[AR0]       ; [CPU_] |402| 
    2679                      .dwpsn  file "C:/ti/motorware/motorware_1_01_00_18/sw/modules/ctrl/src/32b/ctrl.h",line 1546,column 3
    2680 000002c9 D0A8          MOVB      XAR0,#168             ; [CPU_] |1546| 
    2681 000002ca 1E94          MOVL      *+XAR4[AR0],ACC       ; [CPU_] |1546| 
    2682                      .dwpsn  file "C:/ti/motorware/motorware_1_01_00_18/sw/solutions/instaspin_foc/src/proj_lab05h.c",line
    2683 000002cb D018          MOVB      XAR0,#24              ; [CPU_] |405| 
    2684 000002cc 060E-         MOVL      ACC,@_gMaxCurrentSlope ; [CPU_] |405| 
    2685 000002cd 8A92          MOVL      XAR4,*+XAR2[AR0]      ; [CPU_] |405| 
    2686              $C$DW$257       .dwtag  DW_TAG_TI_branch
    2687                      .dwattr $C$DW$257, DW_AT_low_pc(0x00)
    2688                      .dwattr $C$DW$257, DW_AT_name("_EST_setMaxCurrentSlope_pu")
    2689                      .dwattr $C$DW$257, DW_AT_TI_call
    2690 000002ce 7640!         LCR       #_EST_setMaxCurrentSlope_pu ; [CPU_] |405| 
         000002cf 0000 
    2691                      ; call occurs [#_EST_setMaxCurrentSlope_pu] ; [] |405| 
    2692 000002d0 761F-         MOVW      DP,#_ctrlHandle       ; [CPU_U] 
         000002d1 0000 
    2693                      .dwpsn  file "C:/ti/motorware/motorware_1_01_00_18/sw/solutions/instaspin_foc/src/proj_lab05h.c",line
    2694 000002d2 D01A          MOVB      XAR0,#26              ; [CPU_] |409| 
    2695                      .dwpsn  file "C:/ti/motorware/motorware_1_01_00_18/sw/solutions/instaspin_foc/src/proj_lab05h.c",line
    2696 000002d3 56BF          MOVB      *+XAR1[2],#1,UNC      ; [CPU_] |406| 
         000002d4 01D1 
    2697                      .dwpsn  file "C:/ti/motorware/motorware_1_01_00_18/sw/solutions/instaspin_foc/src/proj_lab05h.c",line
TMS320C2000 Assembler PC v6.2.5 Wed Jun 21 14:56:42 2017

Tools Copyright (c) 1996-2014 Texas Instruments Incorporated
C:\Users\wmj\AppData\Local\Temp\0692810                              PAGE   55

    2698 000002d5 8A0C-         MOVL      XAR4,@_ctrlHandle     ; [CPU_] |409| 
    2699 000002d6 0691          MOVL      ACC,*+XAR1[AR0]       ; [CPU_] |409| 
    2700              $C$DW$258       .dwtag  DW_TAG_TI_branch
    2701                      .dwattr $C$DW$258, DW_AT_low_pc(0x00)
    2702                      .dwattr $C$DW$258, DW_AT_name("_CTRL_setSpd_ref_krpm")
    2703                      .dwattr $C$DW$258, DW_AT_TI_call
    2704 000002d7 7640!         LCR       #_CTRL_setSpd_ref_krpm ; [CPU_] |409| 
         000002d8 0000 
    2705                      ; call occurs [#_CTRL_setSpd_ref_krpm] ; [] |409| 
    2706 000002d9 761F-         MOVW      DP,#_ctrlHandle       ; [CPU_U] 
         000002da 0000 
    2707                      .dwpsn  file "C:/ti/motorware/motorware_1_01_00_18/sw/solutions/instaspin_foc/src/proj_lab05h.c",line
    2708 000002db 8F40          MOVL      XAR5,#5592            ; [CPU_U] |412| 
         000002dc 15D8 
    2709 000002dd D01E          MOVB      XAR0,#30              ; [CPU_] |412| 
    2710 000002de A0AC          MOVL      XT,XAR5               ; [CPU_] |412| 
    2711 000002df 8A0C-         MOVL      XAR4,@_ctrlHandle     ; [CPU_] |412| 
    2712                      .dwpsn  file "C:/ti/motorware/motorware_1_01_00_18/sw/solutions/instaspin_foc/src/proj_lab05h.c",line
    2713 000002e0 8F6A          MOVL      XAR5,#2796202         ; [CPU_U] |415| 
         000002e1 AAAA 
    2714                      .dwpsn  file "C:/ti/motorware/motorware_1_01_00_18/sw/solutions/instaspin_foc/src/proj_lab05h.c",line
    2715 000002e2 5605          IMPYL     P,XT,*+XAR1[AR0]      ; [CPU_] |412| 
         000002e3 0091 
    2716 000002e4 5663          QMPYL     ACC,XT,*+XAR1[AR0]    ; [CPU_] |412| 
         000002e5 0091 
    2717                      .dwpsn  file "C:/ti/motorware/motorware_1_01_00_18/sw/modules/ctrl/src/32b/ctrl.h",line 1560,column 3
    2718 000002e6 D076          MOVB      XAR0,#118             ; [CPU_] |1560| 
    2719                      .dwpsn  file "C:/ti/motorware/motorware_1_01_00_18/sw/solutions/instaspin_foc/src/proj_lab05h.c",line
    2720 000002e7 56A7          LSL64     ACC:P,#8              ; [CPU_] |412| 
    2721                      .dwpsn  file "C:/ti/motorware/motorware_1_01_00_18/sw/modules/ctrl/src/32b/ctrl.h",line 1560,column 3
    2722 000002e8 1E94          MOVL      *+XAR4[AR0],ACC       ; [CPU_] |1560| 
    2723                      .dwpsn  file "C:/ti/motorware/motorware_1_01_00_18/sw/solutions/instaspin_foc/src/proj_lab05h.c",line
    2724 000002e9 D014          MOVB      XAR0,#20              ; [CPU_] |415| 
    2725 000002ea 8791          MOVL      XT,*+XAR1[AR0]        ; [CPU_] |415| 
    2726                      .dwpsn  file "C:/ti/motorware/motorware_1_01_00_18/sw/modules/ctrl/src/32b/ctrl.h",line 1347,column 3
    2727 000002eb D0E2          MOVB      XAR0,#226             ; [CPU_] |1347| 
    2728                      .dwpsn  file "C:/ti/motorware/motorware_1_01_00_18/sw/solutions/instaspin_foc/src/proj_lab05h.c",line
    2729 000002ec 5605          IMPYL     P,XT,XAR5             ; [CPU_] |415| 
         000002ed 00A5 
    2730 000002ee 5663          QMPYL     ACC,XT,XAR5           ; [CPU_] |415| 
         000002ef 00A5 
    2731 000002f0 56A7          LSL64     ACC:P,#8              ; [CPU_] |415| 
    2732                      .dwpsn  file "C:/ti/motorware/motorware_1_01_00_18/sw/modules/ctrl/src/32b/ctrl.h",line 1347,column 3
    2733 000002f1 1E94          MOVL      *+XAR4[AR0],ACC       ; [CPU_] |1347| 
    2734                      .dwpsn  file "C:/ti/motorware/motorware_1_01_00_18/sw/solutions/instaspin_foc/src/proj_lab05h.c",line
    2735 000002f2 9200-         MOV       AL,@_Flag_Latch_softwareUpdate ; [CPU_] |417| 
    2736 000002f3 EC27          BF        $C$L25,EQ             ; [CPU_] |417| 
    2737                      ; branchcc occurs ; [] |417| 
    2738                      .dwpsn  file "C:/ti/motorware/motorware_1_01_00_18/sw/solutions/instaspin_foc/src/proj_lab05h.c",line
    2739 000002f4 2B00-         MOV       @_Flag_Latch_softwareUpdate,#0 ; [CPU_] |419| 
    2740                      .dwpsn  file "C:/ti/motorware/motorware_1_01_00_18/sw/solutions/instaspin_foc/src/proj_lab05h.c",line
    2741              $C$DW$259       .dwtag  DW_TAG_TI_branch
    2742                      .dwattr $C$DW$259, DW_AT_low_pc(0x00)
    2743                      .dwattr $C$DW$259, DW_AT_name("_USER_calcPIgains")
    2744                      .dwattr $C$DW$259, DW_AT_TI_call
TMS320C2000 Assembler PC v6.2.5 Wed Jun 21 14:56:42 2017

Tools Copyright (c) 1996-2014 Texas Instruments Incorporated
C:\Users\wmj\AppData\Local\Temp\0692810                              PAGE   56

    2745 000002f5 7640!         LCR       #_USER_calcPIgains    ; [CPU_] |421| 
         000002f6 0000 
    2746                      ; call occurs [#_USER_calcPIgains] ; [] |421| 
    2747 000002f7 761F-         MOVW      DP,#_ctrlHandle       ; [CPU_U] 
         000002f8 0000 
    2748                      .dwpsn  file "C:/ti/motorware/motorware_1_01_00_18/sw/solutions/instaspin_foc/src/proj_lab05h.c",line
    2749 000002f9 8A0C-         MOVL      XAR4,@_ctrlHandle     ; [CPU_] |424| 
    2750 000002fa D0CA          MOVB      XAR0,#202             ; [CPU_] |424| 
    2751 000002fb 0694          MOVL      ACC,*+XAR4[AR0]       ; [CPU_] |424| 
    2752 000002fc D04A          MOVB      XAR0,#74              ; [CPU_] |424| 
    2753 000002fd 1E91          MOVL      *+XAR1[AR0],ACC       ; [CPU_] |424| 
    2754                      .dwpsn  file "C:/ti/motorware/motorware_1_01_00_18/sw/solutions/instaspin_foc/src/proj_lab05h.c",line
    2755 000002fe D0D0          MOVB      XAR0,#208             ; [CPU_] |425| 
    2756 000002ff 0694          MOVL      ACC,*+XAR4[AR0]       ; [CPU_] |425| 
    2757 00000300 D04C          MOVB      XAR0,#76              ; [CPU_] |425| 
    2758 00000301 1E91          MOVL      *+XAR1[AR0],ACC       ; [CPU_] |425| 
    2759 00000302 6F18          B         $C$L25,UNC            ; [CPU_] |425| 
    2760                      ; branch occurs ; [] |425| 
    2761 00000303       $C$L24:    
    2762 00000303 761F-         MOVW      DP,#_Flag_Latch_softwareUpdate ; [CPU_U] 
         00000304 0000 
    2763                      .dwpsn  file "C:/ti/motorware/motorware_1_01_00_18/sw/solutions/instaspin_foc/src/proj_lab05h.c",line
    2764 00000305 D0CE          MOVB      XAR0,#206             ; [CPU_] |434| 
    2765 00000306 830C-         MOVL      XAR5,@_ctrlHandle     ; [CPU_] |434| 
    2766 00000307 8F00-         MOVL      XAR4,#_gMotorVars     ; [CPU_U] |434| 
         00000308 0040 
    2767 00000309 D146          MOVB      XAR1,#70              ; [CPU_] |434| 
    2768                      .dwpsn  file "C:/ti/motorware/motorware_1_01_00_18/sw/solutions/instaspin_foc/src/proj_lab05h.c",line
    2769 0000030a 56BF-         MOVB      @_Flag_Latch_softwareUpdate,#1,UNC ; [CPU_] |431| 
         0000030b 0100 
    2770                      .dwpsn  file "C:/ti/motorware/motorware_1_01_00_18/sw/solutions/instaspin_foc/src/proj_lab05h.c",line
    2771 0000030c 0695          MOVL      ACC,*+XAR5[AR0]       ; [CPU_] |434| 
    2772                      .dwpsn  file "C:/ti/motorware/motorware_1_01_00_18/sw/solutions/instaspin_foc/src/proj_lab05h.c",line
    2773 0000030d D0D4          MOVB      XAR0,#212             ; [CPU_] |435| 
    2774                      .dwpsn  file "C:/ti/motorware/motorware_1_01_00_18/sw/solutions/instaspin_foc/src/proj_lab05h.c",line
    2775 0000030e 1E9C          MOVL      *+XAR4[AR1],ACC       ; [CPU_] |434| 
    2776                      .dwpsn  file "C:/ti/motorware/motorware_1_01_00_18/sw/solutions/instaspin_foc/src/proj_lab05h.c",line
    2777 0000030f 0695          MOVL      ACC,*+XAR5[AR0]       ; [CPU_] |435| 
    2778 00000310 D048          MOVB      XAR0,#72              ; [CPU_] |435| 
    2779 00000311 1E94          MOVL      *+XAR4[AR0],ACC       ; [CPU_] |435| 
    2780                      .dwpsn  file "C:/ti/motorware/motorware_1_01_00_18/sw/solutions/instaspin_foc/src/proj_lab05h.c",line
    2781 00000312 D018          MOVB      XAR0,#24              ; [CPU_] |439| 
    2782 00000313 8A92          MOVL      XAR4,*+XAR2[AR0]      ; [CPU_] |439| 
    2783              $C$DW$260       .dwtag  DW_TAG_TI_branch
    2784                      .dwattr $C$DW$260, DW_AT_low_pc(0x00)
    2785                      .dwattr $C$DW$260, DW_AT_name("_EST_getMaxCurrentSlope_pu")
    2786                      .dwattr $C$DW$260, DW_AT_TI_call
    2787 00000314 7640!         LCR       #_EST_getMaxCurrentSlope_pu ; [CPU_] |439| 
         00000315 0000 
    2788                      ; call occurs [#_EST_getMaxCurrentSlope_pu] ; [] |439| 
    2789 00000316 761F-         MOVW      DP,#_gMaxCurrentSlope ; [CPU_U] 
         00000317 0000 
    2790 00000318 1E0E-         MOVL      @_gMaxCurrentSlope,ACC ; [CPU_] |439| 
    2791 00000319 8A0C-         MOVL      XAR4,@_ctrlHandle     ; [CPU_] |439| 
    2792 0000031a       $C$L25:    
TMS320C2000 Assembler PC v6.2.5 Wed Jun 21 14:56:42 2017

Tools Copyright (c) 1996-2014 Texas Instruments Incorporated
C:\Users\wmj\AppData\Local\Temp\0692810                              PAGE   57

    2793                      .dwpsn  file "C:/ti/motorware/motorware_1_01_00_18/sw/solutions/instaspin_foc/src/proj_lab05h.c",line
    2794 0000031a 9201-         MOV       AL,@_gCounter_updateGlobals ; [CPU_] |443| 
    2795 0000031b EC07          BF        $C$L26,EQ             ; [CPU_] |443| 
    2796                      ; branchcc occurs ; [] |443| 
    2797                      .dwpsn  file "C:/ti/motorware/motorware_1_01_00_18/sw/solutions/instaspin_foc/src/proj_lab05h.c",line
    2798 0000031c 2B01-         MOV       @_gCounter_updateGlobals,#0 ; [CPU_] |446| 
    2799                      .dwpsn  file "C:/ti/motorware/motorware_1_01_00_18/sw/solutions/instaspin_foc/src/proj_lab05h.c",line
    2800              $C$DW$261       .dwtag  DW_TAG_TI_branch
    2801                      .dwattr $C$DW$261, DW_AT_low_pc(0x00)
    2802                      .dwattr $C$DW$261, DW_AT_name("_updateGlobalVariables_motor")
    2803                      .dwattr $C$DW$261, DW_AT_TI_call
    2804 0000031d 7640'         LCR       #_updateGlobalVariables_motor ; [CPU_] |448| 
         0000031e 0021 
    2805                      ; call occurs [#_updateGlobalVariables_motor] ; [] |448| 
    2806 0000031f 761F-         MOVW      DP,#_ctrlHandle       ; [CPU_U] 
         00000320 0000 
    2807 00000321 8A0C-         MOVL      XAR4,@_ctrlHandle     ; [CPU_] |448| 
    2808 00000322       $C$L26:    
    2809                      .dwpsn  file "C:/ti/motorware/motorware_1_01_00_18/sw/solutions/instaspin_foc/src/proj_lab05h.c",line
    2810              $C$DW$262       .dwtag  DW_TAG_TI_branch
    2811                      .dwattr $C$DW$262, DW_AT_low_pc(0x00)
    2812                      .dwattr $C$DW$262, DW_AT_name("_updateKpKiGains")
    2813                      .dwattr $C$DW$262, DW_AT_TI_call
    2814 00000322 7640'         LCR       #_updateKpKiGains     ; [CPU_] |452| 
         00000323 0000 
    2815                      ; call occurs [#_updateKpKiGains] ; [] |452| 
    2816                      .dwpsn  file "C:/ti/motorware/motorware_1_01_00_18/sw/solutions/instaspin_foc/src/proj_lab05h.c",line
    2817 00000324 8D40-         MOVL      XAR1,#_gMotorVars     ; [CPU_U] |455| 
         00000325 0040 
    2818 00000326 D018          MOVB      XAR0,#24              ; [CPU_] |455| 
    2819 00000327 92D9          MOV       AL,*+XAR1[3]          ; [CPU_] |455| 
    2820 00000328 8A92          MOVL      XAR4,*+XAR2[AR0]      ; [CPU_] |455| 
    2821              $C$DW$263       .dwtag  DW_TAG_TI_branch
    2822                      .dwattr $C$DW$263, DW_AT_low_pc(0x00)
    2823                      .dwattr $C$DW$263, DW_AT_name("_EST_setFlag_enableForceAngle")
    2824                      .dwattr $C$DW$263, DW_AT_TI_call
    2825 00000329 7640!         LCR       #_EST_setFlag_enableForceAngle ; [CPU_] |455| 
         0000032a 0000 
    2826                      ; call occurs [#_EST_setFlag_enableForceAngle] ; [] |455| 
    2827 0000032b 761F-         MOVW      DP,#_ctrlHandle       ; [CPU_U] 
         0000032c 0000 
    2828                      .dwpsn  file "C:/ti/motorware/motorware_1_01_00_18/sw/solutions/instaspin_foc/src/proj_lab05h.c",line
    2829 0000032d D008          MOVB      XAR0,#8               ; [CPU_] |458| 
    2830                      .dwpsn  file "C:/ti/motorware/motorware_1_01_00_18/sw/modules/ctrl/src/32b/ctrl.h",line 1262,column 3
    2831 0000032e 8A0C-         MOVL      XAR4,@_ctrlHandle     ; [CPU_] |1262| 
    2832                      .dwpsn  file "C:/ti/motorware/motorware_1_01_00_18/sw/solutions/instaspin_foc/src/proj_lab05h.c",line
    2833 0000032f 9291          MOV       AL,*+XAR1[AR0]        ; [CPU_] |458| 
    2834                      .dwpsn  file "C:/ti/motorware/motorware_1_01_00_18/sw/solutions/instaspin_foc/src/proj_lab05h.c",line
    2835 00000330 83A1          MOVL      XAR5,XAR1             ; [CPU_] |471| 
    2836                      .dwpsn  file "C:/ti/motorware/motorware_1_01_00_18/sw/modules/ctrl/src/32b/ctrl.h",line 1262,column 3
    2837 00000331 D0F2          MOVB      XAR0,#242             ; [CPU_] |1262| 
    2838 00000332 9694          MOV       *+XAR4[AR0],AL        ; [CPU_] |1262| 
    2839                      .dwpsn  file "C:/ti/motorware/motorware_1_01_00_18/sw/solutions/instaspin_foc/src/proj_lab05h.c",line
    2840 00000333 8F00-         MOVL      XAR4,#_gStepVars      ; [CPU_U] |471| 
         00000334 0018 
TMS320C2000 Assembler PC v6.2.5 Wed Jun 21 14:56:42 2017

Tools Copyright (c) 1996-2014 Texas Instruments Incorporated
C:\Users\wmj\AppData\Local\Temp\0692810                              PAGE   58

    2841 00000335 A842          MOVL      *-SP[2],XAR4          ; [CPU_] |471| 
    2842 00000336 8AA3          MOVL      XAR4,XAR3             ; [CPU_] |471| 
    2843              $C$DW$264       .dwtag  DW_TAG_TI_branch
    2844                      .dwattr $C$DW$264, DW_AT_low_pc(0x00)
    2845                      .dwattr $C$DW$264, DW_AT_name("_GenerateStepResponse")
    2846                      .dwattr $C$DW$264, DW_AT_TI_call
    2847 00000337 7640'         LCR       #_GenerateStepResponse ; [CPU_] |471| 
         00000338 00E1 
    2848                      ; call occurs [#_GenerateStepResponse] ; [] |471| 
    2849 00000339 860C-         MOVL      XAR2,@_ctrlHandle     ; [CPU_] |471| 
    2850 0000033a       $C$L27:    
    2851                      .dwpsn  file "C:/ti/motorware/motorware_1_01_00_18/sw/solutions/instaspin_foc/src/proj_lab05h.c",line
    2852 0000033a 8D40-         MOVL      XAR1,#_gMotorVars     ; [CPU_U] |473| 
         0000033b 0040 
    2853 0000033c 92C1          MOV       AL,*+XAR1[0]          ; [CPU_] |473| 
    2854 0000033d 56C0          BF        $C$L11,NEQ            ; [CPU_] |473| 
         0000033e FE8C 
    2855                      ; branchcc occurs ; [] |473| 
    2856                      .dwpsn  file "C:/ti/motorware/motorware_1_01_00_18/sw/modules/hal/boards/drv8312kit_revD/f28x/f2802x/
    2857 0000033f 8A0A-         MOVL      XAR4,@_halHandle      ; [CPU_] |232| 
    2858                      .dwpsn  file "C:/ti/motorware/motorware_1_01_00_18/sw/modules/hal/boards/drv8312kit_revD/f28x/f2802x/
    2859 00000340 DC7C          ADDB      XAR4,#124             ; [CPU_] |234| 
    2860 00000341 83C4          MOVL      XAR5,*+XAR4[0]        ; [CPU_] |234| 
    2861 00000342 7622   EALLOW
    2862                      .dwpsn  file "C:/ti/motorware/motorware_1_01_00_18/sw/drivers/pwm/src/32b/f28x/f2802x/pwm.h",line 156
    2863 00000343 DD18          ADDB      XAR5,#24              ; [CPU_] |1567| 
    2864 00000344 1AC5          OR        *+XAR5[0],#0x0004     ; [CPU_] |1567| 
         00000345 0004 
    2865 00000346 761A   EDIS
    2866                      .dwpsn  file "C:/ti/motorware/motorware_1_01_00_18/sw/modules/hal/boards/drv8312kit_revD/f28x/f2802x/
    2867 00000347 83D4          MOVL      XAR5,*+XAR4[2]        ; [CPU_] |235| 
    2868 00000348 7622   EALLOW
    2869                      .dwpsn  file "C:/ti/motorware/motorware_1_01_00_18/sw/drivers/pwm/src/32b/f28x/f2802x/pwm.h",line 156
    2870 00000349 DD18          ADDB      XAR5,#24              ; [CPU_] |1567| 
    2871 0000034a 1AC5          OR        *+XAR5[0],#0x0004     ; [CPU_] |1567| 
         0000034b 0004 
    2872 0000034c 761A   EDIS
    2873                      .dwpsn  file "C:/ti/motorware/motorware_1_01_00_18/sw/modules/hal/boards/drv8312kit_revD/f28x/f2802x/
    2874 0000034d 8AE4          MOVL      XAR4,*+XAR4[4]        ; [CPU_] |236| 
    2875 0000034e 7622   EALLOW
    2876                      .dwpsn  file "C:/ti/motorware/motorware_1_01_00_18/sw/drivers/pwm/src/32b/f28x/f2802x/pwm.h",line 156
    2877 0000034f DC18          ADDB      XAR4,#24              ; [CPU_] |1567| 
    2878 00000350 1AC4          OR        *+XAR4[0],#0x0004     ; [CPU_] |1567| 
         00000351 0004 
    2879 00000352 761A   EDIS
    2880                      .dwpsn  file "C:/ti/motorware/motorware_1_01_00_18/sw/solutions/instaspin_foc/src/proj_lab05h.c",line
    2881 00000353 834A          MOVL      XAR5,*-SP[10]         ; [CPU_] |479| 
    2882 00000354 FF69          SPM       #0                    ; [CPU_] 
    2883 00000355 8AA2          MOVL      XAR4,XAR2             ; [CPU_] |479| 
    2884              $C$DW$265       .dwtag  DW_TAG_TI_branch
    2885                      .dwattr $C$DW$265, DW_AT_low_pc(0x00)
    2886                      .dwattr $C$DW$265, DW_AT_name("_CTRL_setParams")
    2887                      .dwattr $C$DW$265, DW_AT_TI_call
    2888 00000356 7640!         LCR       #_CTRL_setParams      ; [CPU_] |479| 
         00000357 0000 
TMS320C2000 Assembler PC v6.2.5 Wed Jun 21 14:56:42 2017

Tools Copyright (c) 1996-2014 Texas Instruments Incorporated
C:\Users\wmj\AppData\Local\Temp\0692810                              PAGE   59

    2889                      ; call occurs [#_CTRL_setParams] ; [] |479| 
    2890 00000358 761F-         MOVW      DP,#_gMotorVars+1     ; [CPU_U] 
         00000359 0001 
    2891                      .dwpsn  file "C:/ti/motorware/motorware_1_01_00_18/sw/solutions/instaspin_foc/src/proj_lab05h.c",line
    2892 0000035a 2B01-         MOV       @_gMotorVars+1,#0     ; [CPU_] |480| 
    2893                      .dwpsn  file "C:/ti/motorware/motorware_1_01_00_18/sw/solutions/instaspin_foc/src/proj_lab05h.c",line
    2894 0000035b FFEF          B         $C$L10,UNC            ; [CPU_] |482| 
         0000035c FE62 
    2895                      ; branch occurs ; [] |482| 
    2896 0000035d       $C$L28:    
    2897 0000035d 761F-         MOVW      DP,#_gMotorVars       ; [CPU_U] 
         0000035e 0001 
    2898                      .dwpsn  file "C:/ti/motorware/motorware_1_01_00_18/sw/solutions/instaspin_foc/src/proj_lab05h.c",line
    2899 0000035f 2B00-         MOV       @_gMotorVars,#0       ; [CPU_] |214| 
    2900                      .dwpsn  file "C:/ti/motorware/motorware_1_01_00_18/sw/solutions/instaspin_foc/src/proj_lab05h.c",line
    2901 00000360 6FFD          B         $C$L28,UNC            ; [CPU_] |215| 
    2902                      ; branch occurs ; [] |215| 
    2903                      .dwattr $C$DW$183, DW_AT_TI_end_file("C:/ti/motorware/motorware_1_01_00_18/sw/solutions/instaspin_foc
    2904                      .dwattr $C$DW$183, DW_AT_TI_end_line(0x1e4)
    2905                      .dwattr $C$DW$183, DW_AT_TI_end_column(0x01)
    2906                      .dwendentry
    2907                      .dwendtag $C$DW$183
    2908              
    2909              ;**************************************************************
    2910              ;* UNDEFINED EXTERNAL REFERENCES                              *
    2911              ;**************************************************************
    2912                      .global _CTRL_setParams
    2913                      .global _CTRL_setSpd_ref_krpm
    2914                      .global _CTRL_setup
    2915                      .global _CTRL_run
    2916                      .global _CTRL_getVersion
    2917                      .global _GRAPH_DATA
    2918                      .global _HAL_setParams
    2919                      .global _HAL_setupFaults
    2920                      .global _HAL_enableDebugInt
    2921                      .global _HAL_enableGlobalInts
    2922                      .global _HAL_enableAdcInts
    2923                      .global _EST_setFlag_enableForceAngle
    2924                      .global _EST_setFlag_enableRsRecalc
    2925                      .global _EST_setMaxCurrentSlope_pu
    2926                      .global _USER_checkForErrors
    2927                      .global _memCopy
    2928                      .global _USER_softwareUpdate1p6
    2929                      .global _USER_calcPIgains
    2930                      .global _USER_setParams
    2931                      .global _GPIO_toggle
    2932                      .global _HAL_I2c_Pca9555_WrData
    2933                      .global _EST_getState
    2934                      .global _EST_isMotorIdentified
    2935                      .global _CTRL_updateState
    2936                      .global _USER_getErrorCode
    2937                      .global __IQ24sqrt
    2938                      .global _USER_computeTorque_Nm
    2939                      .global _EST_getIdRated
    2940                      .global _EST_getLs_d_H
TMS320C2000 Assembler PC v6.2.5 Wed Jun 21 14:56:42 2017

Tools Copyright (c) 1996-2014 Texas Instruments Incorporated
C:\Users\wmj\AppData\Local\Temp\0692810                              PAGE   60

    2941                      .global _EST_getFlux_VpHz
    2942                      .global _EST_get_pu_to_krpm_sf
    2943                      .global _RamfuncsRunStart
    2944                      .global _RamfuncsLoadEnd
    2945                      .global _RamfuncsLoadStart
    2946                      .global _USER_computeFlux
    2947                      .global _USER_computeFlux_pu_to_Wb_sf
    2948                      .global _CTRL_initCtrl
    2949                      .global _USER_computeTorque_Flux_Iq_pu_to_Nm_sf
    2950                      .global _USER_computeFlux_pu_to_VpHz_sf
    2951                      .global _EST_getSpeed_krpm
    2952                      .global _HAL_init
    2953                      .global _EST_getRs_Ohm
    2954                      .global _EST_getMaxCurrentSlope_pu
    2955                      .global _EST_getRr_Ohm
    2956                      .global _USER_computeTorque_Ls_Id_Iq_pu_to_Nm_sf
