TMS320C2000 Assembler PC v6.2.5 Sat Jul 08 15:24:56 2017

Tools Copyright (c) 1996-2014 Texas Instruments Incorporated
C:\Users\wmj\AppData\Local\Temp\1317611                              PAGE    1

       1              ;***************************************************************
       2              ;* TMS320C2000 C/C++ Codegen                         PC v6.2.5 *
       3              ;* Date/Time created: Sat Jul 08 15:24:56 2017                 *
       4              ;***************************************************************
       5                      .compiler_opts --float_support=softlib --hll_source=on --mem_model:code=flat --mem_model:data=large -
       6        0002  FP      .set    XAR2
       7              
       8              $C$DW$CU        .dwtag  DW_TAG_compile_unit
       9                      .dwattr $C$DW$CU, DW_AT_name("D:/Foc/my_motor/sw/modules/pid/src/32b/pid.c")
      10                      .dwattr $C$DW$CU, DW_AT_producer("TMS320C2000 C/C++ Codegen PC v6.2.5 Copyright (c) 1996-2014 Texas I
      11                      .dwattr $C$DW$CU, DW_AT_TI_version(0x01)
      12                      .dwattr $C$DW$CU, DW_AT_comp_dir("D:\Foc\my_motor\sw\solutions\instaspin_foc\boards\hvkit_rev1p1\f28x
      13              ;       c:\ti\ccsv6\tools\compiler\c2000_6.2.5\bin\opt2000.exe C:\\Users\\wmj\\AppData\\Local\\Temp\\131763 C
      14              ;       c:\ti\ccsv6\tools\compiler\c2000_6.2.5\bin\ac2000.exe -@C:\\Users\\wmj\\AppData\\Local\\Temp\\1317617
      15 00000000               .sect   ".text"
      16                      .clink
      17                      .global _PID_init
      18              
      19              $C$DW$1 .dwtag  DW_TAG_subprogram, DW_AT_name("PID_init")
      20                      .dwattr $C$DW$1, DW_AT_low_pc(_PID_init)
      21                      .dwattr $C$DW$1, DW_AT_high_pc(0x00)
      22                      .dwattr $C$DW$1, DW_AT_TI_symbol_name("_PID_init")
      23                      .dwattr $C$DW$1, DW_AT_external
      24                      .dwattr $C$DW$1, DW_AT_type(*$C$DW$T$23)
      25                      .dwattr $C$DW$1, DW_AT_TI_begin_file("D:/Foc/my_motor/sw/modules/pid/src/32b/pid.c")
      26                      .dwattr $C$DW$1, DW_AT_TI_begin_line(0x38)
      27                      .dwattr $C$DW$1, DW_AT_TI_begin_column(0x0c)
      28                      .dwattr $C$DW$1, DW_AT_TI_max_frame_size(-2)
      29                      .dwpsn  file "D:/Foc/my_motor/sw/modules/pid/src/32b/pid.c",line 57,column 1,is_stmt,address _PID_ini
      30              
      31                      .dwfde $C$DW$CIE, _PID_init
      32              $C$DW$2 .dwtag  DW_TAG_formal_parameter, DW_AT_name("pMemory")
      33                      .dwattr $C$DW$2, DW_AT_TI_symbol_name("_pMemory")
      34                      .dwattr $C$DW$2, DW_AT_type(*$C$DW$T$3)
      35                      .dwattr $C$DW$2, DW_AT_location[DW_OP_reg12]
      36              $C$DW$3 .dwtag  DW_TAG_formal_parameter, DW_AT_name("numBytes")
      37                      .dwattr $C$DW$3, DW_AT_TI_symbol_name("_numBytes")
      38                      .dwattr $C$DW$3, DW_AT_type(*$C$DW$T$25)
      39                      .dwattr $C$DW$3, DW_AT_location[DW_OP_reg0]
      40              
      41              ;***************************************************************
      42              ;* FNAME: _PID_init                     FR SIZE:   0           *
      43              ;*                                                             *
      44              ;* FUNCTION ENVIRONMENT                                        *
      45              ;*                                                             *
      46              ;* FUNCTION PROPERTIES                                         *
      47              ;*                            0 Parameter,  0 Auto,  0 SOE     *
      48              ;***************************************************************
      49              
      50              _PID_init:
      51              ;* AR6   assigned to _numBytes
      52              $C$DW$4 .dwtag  DW_TAG_variable, DW_AT_name("numBytes")
      53                      .dwattr $C$DW$4, DW_AT_TI_symbol_name("_numBytes")
      54                      .dwattr $C$DW$4, DW_AT_type(*$C$DW$T$25)
      55                      .dwattr $C$DW$4, DW_AT_location[DW_OP_reg16]
TMS320C2000 Assembler PC v6.2.5 Sat Jul 08 15:24:56 2017

Tools Copyright (c) 1996-2014 Texas Instruments Incorporated
C:\Users\wmj\AppData\Local\Temp\1317611                              PAGE    2

      56              ;* AR4   assigned to _pMemory
      57              $C$DW$5 .dwtag  DW_TAG_variable, DW_AT_name("pMemory")
      58                      .dwattr $C$DW$5, DW_AT_TI_symbol_name("_pMemory")
      59                      .dwattr $C$DW$5, DW_AT_type(*$C$DW$T$28)
      60                      .dwattr $C$DW$5, DW_AT_location[DW_OP_reg12]
      61                      .dwcfi  cfa_offset, -2
      62                      .dwcfi  save_reg_to_mem, 26, 0
      63                      .dwcfi  save_reg_to_reg, 78, 26
      64 00000000 1EA6          MOVL      XAR6,ACC              ; [CPU_] |57| 
      65                      .dwpsn  file "D:/Foc/my_motor/sw/modules/pid/src/32b/pid.c",line 61,column 3,is_stmt
      66 00000001 0210          MOVB      ACC,#16               ; [CPU_] |61| 
      67 00000002 0FA6          CMPL      ACC,XAR6              ; [CPU_] |61| 
      68 00000003 6903          B         $C$L1,LOS             ; [CPU_] |61| 
      69                      ; branchcc occurs ; [] |61| 
      70                      .dwpsn  file "D:/Foc/my_motor/sw/modules/pid/src/32b/pid.c",line 62,column 5,is_stmt
      71 00000004 D400          MOVB      XAR4,#0               ; [CPU_] |62| 
      72              $C$DW$6 .dwtag  DW_TAG_TI_branch
      73                      .dwattr $C$DW$6, DW_AT_low_pc(0x00)
      74                      .dwattr $C$DW$6, DW_AT_TI_return
      75 00000005 0006          LRETR     ; [CPU_] 
      76                      ; return occurs ; [] 
      77 00000006       $C$L1:    
      78                      .dwpsn  file "D:/Foc/my_motor/sw/modules/pid/src/32b/pid.h",line 413,column 3,is_stmt
      79 00000006 0200          MOVB      ACC,#0                ; [CPU_] |413| 
      80                      .dwpsn  file "D:/Foc/my_motor/sw/modules/pid/src/32b/pid.h",line 400,column 3,is_stmt
      81 00000007 D008          MOVB      XAR0,#8               ; [CPU_] |400| 
      82                      .dwpsn  file "D:/Foc/my_motor/sw/modules/pid/src/32b/pid.h",line 413,column 3,is_stmt
      83 00000008 1EF4          MOVL      *+XAR4[6],ACC         ; [CPU_] |413| 
      84                      .dwpsn  file "D:/Foc/my_motor/sw/modules/pid/src/32b/pid.h",line 400,column 3,is_stmt
      85 00000009 1E94          MOVL      *+XAR4[AR0],ACC       ; [CPU_] |400| 
      86                      .dwpsn  file "D:/Foc/my_motor/sw/modules/pid/src/32b/pid.h",line 290,column 3,is_stmt
      87 0000000a D00A          MOVB      XAR0,#10              ; [CPU_] |290| 
      88 0000000b 1E94          MOVL      *+XAR4[AR0],ACC       ; [CPU_] |290| 
      89              $C$DW$7 .dwtag  DW_TAG_TI_branch
      90                      .dwattr $C$DW$7, DW_AT_low_pc(0x00)
      91                      .dwattr $C$DW$7, DW_AT_TI_return
      92 0000000c 0006          LRETR     ; [CPU_] 
      93                      ; return occurs ; [] 
      94                      .dwattr $C$DW$1, DW_AT_TI_end_file("D:/Foc/my_motor/sw/modules/pid/src/32b/pid.c")
      95                      .dwattr $C$DW$1, DW_AT_TI_end_line(0x49)
      96                      .dwattr $C$DW$1, DW_AT_TI_end_column(0x01)
      97                      .dwendentry
      98                      .dwendtag $C$DW$1
      99              
     100              
     101              ;***************************************************************
     102              ;* TYPE INFORMATION                                            *
     103              ;***************************************************************
     104              
     105              $C$DW$T$20      .dwtag  DW_TAG_structure_type
     106                      .dwattr $C$DW$T$20, DW_AT_name("_PID_Obj_")
     107                      .dwattr $C$DW$T$20, DW_AT_byte_size(0x10)
     108              $C$DW$8 .dwtag  DW_TAG_member
     109                      .dwattr $C$DW$8, DW_AT_type(*$C$DW$T$19)
     110                      .dwattr $C$DW$8, DW_AT_name("Kp")
TMS320C2000 Assembler PC v6.2.5 Sat Jul 08 15:24:56 2017

Tools Copyright (c) 1996-2014 Texas Instruments Incorporated
C:\Users\wmj\AppData\Local\Temp\1317611                              PAGE    3

     111                      .dwattr $C$DW$8, DW_AT_TI_symbol_name("_Kp")
     112                      .dwattr $C$DW$8, DW_AT_data_member_location[DW_OP_plus_uconst 0x0]
     113                      .dwattr $C$DW$8, DW_AT_accessibility(DW_ACCESS_public)
     114              $C$DW$9 .dwtag  DW_TAG_member
     115                      .dwattr $C$DW$9, DW_AT_type(*$C$DW$T$19)
     116                      .dwattr $C$DW$9, DW_AT_name("Ki")
     117                      .dwattr $C$DW$9, DW_AT_TI_symbol_name("_Ki")
     118                      .dwattr $C$DW$9, DW_AT_data_member_location[DW_OP_plus_uconst 0x2]
     119                      .dwattr $C$DW$9, DW_AT_accessibility(DW_ACCESS_public)
     120              $C$DW$10        .dwtag  DW_TAG_member
     121                      .dwattr $C$DW$10, DW_AT_type(*$C$DW$T$19)
     122                      .dwattr $C$DW$10, DW_AT_name("Kd")
     123                      .dwattr $C$DW$10, DW_AT_TI_symbol_name("_Kd")
     124                      .dwattr $C$DW$10, DW_AT_data_member_location[DW_OP_plus_uconst 0x4]
     125                      .dwattr $C$DW$10, DW_AT_accessibility(DW_ACCESS_public)
     126              $C$DW$11        .dwtag  DW_TAG_member
     127                      .dwattr $C$DW$11, DW_AT_type(*$C$DW$T$19)
     128                      .dwattr $C$DW$11, DW_AT_name("Ui")
     129                      .dwattr $C$DW$11, DW_AT_TI_symbol_name("_Ui")
     130                      .dwattr $C$DW$11, DW_AT_data_member_location[DW_OP_plus_uconst 0x6]
     131                      .dwattr $C$DW$11, DW_AT_accessibility(DW_ACCESS_public)
     132              $C$DW$12        .dwtag  DW_TAG_member
     133                      .dwattr $C$DW$12, DW_AT_type(*$C$DW$T$19)
     134                      .dwattr $C$DW$12, DW_AT_name("refValue")
     135                      .dwattr $C$DW$12, DW_AT_TI_symbol_name("_refValue")
     136                      .dwattr $C$DW$12, DW_AT_data_member_location[DW_OP_plus_uconst 0x8]
     137                      .dwattr $C$DW$12, DW_AT_accessibility(DW_ACCESS_public)
     138              $C$DW$13        .dwtag  DW_TAG_member
     139                      .dwattr $C$DW$13, DW_AT_type(*$C$DW$T$19)
     140                      .dwattr $C$DW$13, DW_AT_name("fbackValue")
     141                      .dwattr $C$DW$13, DW_AT_TI_symbol_name("_fbackValue")
     142                      .dwattr $C$DW$13, DW_AT_data_member_location[DW_OP_plus_uconst 0xa]
     143                      .dwattr $C$DW$13, DW_AT_accessibility(DW_ACCESS_public)
     144              $C$DW$14        .dwtag  DW_TAG_member
     145                      .dwattr $C$DW$14, DW_AT_type(*$C$DW$T$19)
     146                      .dwattr $C$DW$14, DW_AT_name("outMin")
     147                      .dwattr $C$DW$14, DW_AT_TI_symbol_name("_outMin")
     148                      .dwattr $C$DW$14, DW_AT_data_member_location[DW_OP_plus_uconst 0xc]
     149                      .dwattr $C$DW$14, DW_AT_accessibility(DW_ACCESS_public)
     150              $C$DW$15        .dwtag  DW_TAG_member
     151                      .dwattr $C$DW$15, DW_AT_type(*$C$DW$T$19)
     152                      .dwattr $C$DW$15, DW_AT_name("outMax")
     153                      .dwattr $C$DW$15, DW_AT_TI_symbol_name("_outMax")
     154                      .dwattr $C$DW$15, DW_AT_data_member_location[DW_OP_plus_uconst 0xe]
     155                      .dwattr $C$DW$15, DW_AT_accessibility(DW_ACCESS_public)
     156                      .dwendtag $C$DW$T$20
     157              
     158              $C$DW$T$21      .dwtag  DW_TAG_typedef, DW_AT_name("PID_Obj")
     159                      .dwattr $C$DW$T$21, DW_AT_type(*$C$DW$T$20)
     160                      .dwattr $C$DW$T$21, DW_AT_language(DW_LANG_C)
     161              $C$DW$T$22      .dwtag  DW_TAG_pointer_type
     162                      .dwattr $C$DW$T$22, DW_AT_type(*$C$DW$T$20)
     163                      .dwattr $C$DW$T$22, DW_AT_address_class(0x16)
     164              $C$DW$T$23      .dwtag  DW_TAG_typedef, DW_AT_name("PID_Handle")
     165                      .dwattr $C$DW$T$23, DW_AT_type(*$C$DW$T$22)
TMS320C2000 Assembler PC v6.2.5 Sat Jul 08 15:24:56 2017

Tools Copyright (c) 1996-2014 Texas Instruments Incorporated
C:\Users\wmj\AppData\Local\Temp\1317611                              PAGE    4

     166                      .dwattr $C$DW$T$23, DW_AT_language(DW_LANG_C)
     167              $C$DW$T$3       .dwtag  DW_TAG_pointer_type
     168                      .dwattr $C$DW$T$3, DW_AT_address_class(0x16)
     169              $C$DW$16        .dwtag  DW_TAG_TI_far_type
     170                      .dwattr $C$DW$16, DW_AT_type(*$C$DW$T$3)
     171              $C$DW$T$28      .dwtag  DW_TAG_const_type
     172                      .dwattr $C$DW$T$28, DW_AT_type(*$C$DW$16)
     173              $C$DW$T$4       .dwtag  DW_TAG_base_type
     174                      .dwattr $C$DW$T$4, DW_AT_encoding(DW_ATE_boolean)
     175                      .dwattr $C$DW$T$4, DW_AT_name("bool")
     176                      .dwattr $C$DW$T$4, DW_AT_byte_size(0x01)
     177              $C$DW$T$5       .dwtag  DW_TAG_base_type
     178                      .dwattr $C$DW$T$5, DW_AT_encoding(DW_ATE_signed_char)
     179                      .dwattr $C$DW$T$5, DW_AT_name("signed char")
     180                      .dwattr $C$DW$T$5, DW_AT_byte_size(0x01)
     181              $C$DW$T$6       .dwtag  DW_TAG_base_type
     182                      .dwattr $C$DW$T$6, DW_AT_encoding(DW_ATE_unsigned_char)
     183                      .dwattr $C$DW$T$6, DW_AT_name("unsigned char")
     184                      .dwattr $C$DW$T$6, DW_AT_byte_size(0x01)
     185              $C$DW$T$7       .dwtag  DW_TAG_base_type
     186                      .dwattr $C$DW$T$7, DW_AT_encoding(DW_ATE_signed_char)
     187                      .dwattr $C$DW$T$7, DW_AT_name("wchar_t")
     188                      .dwattr $C$DW$T$7, DW_AT_byte_size(0x01)
     189              $C$DW$T$8       .dwtag  DW_TAG_base_type
     190                      .dwattr $C$DW$T$8, DW_AT_encoding(DW_ATE_signed)
     191                      .dwattr $C$DW$T$8, DW_AT_name("short")
     192                      .dwattr $C$DW$T$8, DW_AT_byte_size(0x01)
     193              $C$DW$T$9       .dwtag  DW_TAG_base_type
     194                      .dwattr $C$DW$T$9, DW_AT_encoding(DW_ATE_unsigned)
     195                      .dwattr $C$DW$T$9, DW_AT_name("unsigned short")
     196                      .dwattr $C$DW$T$9, DW_AT_byte_size(0x01)
     197              $C$DW$T$10      .dwtag  DW_TAG_base_type
     198                      .dwattr $C$DW$T$10, DW_AT_encoding(DW_ATE_signed)
     199                      .dwattr $C$DW$T$10, DW_AT_name("int")
     200                      .dwattr $C$DW$T$10, DW_AT_byte_size(0x01)
     201              $C$DW$T$11      .dwtag  DW_TAG_base_type
     202                      .dwattr $C$DW$T$11, DW_AT_encoding(DW_ATE_unsigned)
     203                      .dwattr $C$DW$T$11, DW_AT_name("unsigned int")
     204                      .dwattr $C$DW$T$11, DW_AT_byte_size(0x01)
     205              $C$DW$T$12      .dwtag  DW_TAG_base_type
     206                      .dwattr $C$DW$T$12, DW_AT_encoding(DW_ATE_signed)
     207                      .dwattr $C$DW$T$12, DW_AT_name("long")
     208                      .dwattr $C$DW$T$12, DW_AT_byte_size(0x02)
     209              $C$DW$T$19      .dwtag  DW_TAG_typedef, DW_AT_name("_iq")
     210                      .dwattr $C$DW$T$19, DW_AT_type(*$C$DW$T$12)
     211                      .dwattr $C$DW$T$19, DW_AT_language(DW_LANG_C)
     212              $C$DW$T$13      .dwtag  DW_TAG_base_type
     213                      .dwattr $C$DW$T$13, DW_AT_encoding(DW_ATE_unsigned)
     214                      .dwattr $C$DW$T$13, DW_AT_name("unsigned long")
     215                      .dwattr $C$DW$T$13, DW_AT_byte_size(0x02)
     216              $C$DW$T$24      .dwtag  DW_TAG_typedef, DW_AT_name("size_t")
     217                      .dwattr $C$DW$T$24, DW_AT_type(*$C$DW$T$13)
     218                      .dwattr $C$DW$T$24, DW_AT_language(DW_LANG_C)
     219              $C$DW$17        .dwtag  DW_TAG_TI_far_type
     220                      .dwattr $C$DW$17, DW_AT_type(*$C$DW$T$24)
TMS320C2000 Assembler PC v6.2.5 Sat Jul 08 15:24:56 2017

Tools Copyright (c) 1996-2014 Texas Instruments Incorporated
C:\Users\wmj\AppData\Local\Temp\1317611                              PAGE    5

     221              $C$DW$T$25      .dwtag  DW_TAG_const_type
     222                      .dwattr $C$DW$T$25, DW_AT_type(*$C$DW$17)
     223              $C$DW$T$14      .dwtag  DW_TAG_base_type
     224                      .dwattr $C$DW$T$14, DW_AT_encoding(DW_ATE_signed)
     225                      .dwattr $C$DW$T$14, DW_AT_name("long long")
     226                      .dwattr $C$DW$T$14, DW_AT_byte_size(0x04)
     227              $C$DW$T$15      .dwtag  DW_TAG_base_type
     228                      .dwattr $C$DW$T$15, DW_AT_encoding(DW_ATE_unsigned)
     229                      .dwattr $C$DW$T$15, DW_AT_name("unsigned long long")
     230                      .dwattr $C$DW$T$15, DW_AT_byte_size(0x04)
     231              $C$DW$T$16      .dwtag  DW_TAG_base_type
     232                      .dwattr $C$DW$T$16, DW_AT_encoding(DW_ATE_float)
     233                      .dwattr $C$DW$T$16, DW_AT_name("float")
     234                      .dwattr $C$DW$T$16, DW_AT_byte_size(0x02)
     235              $C$DW$T$17      .dwtag  DW_TAG_base_type
     236                      .dwattr $C$DW$T$17, DW_AT_encoding(DW_ATE_float)
     237                      .dwattr $C$DW$T$17, DW_AT_name("double")
     238                      .dwattr $C$DW$T$17, DW_AT_byte_size(0x02)
     239              $C$DW$T$18      .dwtag  DW_TAG_base_type
     240                      .dwattr $C$DW$T$18, DW_AT_encoding(DW_ATE_float)
     241                      .dwattr $C$DW$T$18, DW_AT_name("long double")
     242                      .dwattr $C$DW$T$18, DW_AT_byte_size(0x04)
     243                      .dwattr $C$DW$CU, DW_AT_language(DW_LANG_C)
     244              
     245              ;***************************************************************
     246              ;* DWARF CIE ENTRIES                                           *
     247              ;***************************************************************
     248              
     249              $C$DW$CIE       .dwcie 78
     250                      .dwcfi  cfa_register, 20
     251                      .dwcfi  cfa_offset, 0
     252                      .dwcfi  undefined, 0
     253                      .dwcfi  undefined, 1
     254                      .dwcfi  undefined, 2
     255                      .dwcfi  undefined, 3
     256                      .dwcfi  undefined, 20
     257                      .dwcfi  undefined, 21
     258                      .dwcfi  undefined, 22
     259                      .dwcfi  undefined, 23
     260                      .dwcfi  undefined, 24
     261                      .dwcfi  undefined, 25
     262                      .dwcfi  undefined, 26
     263                      .dwcfi  same_value, 28
     264                      .dwcfi  undefined, 29
     265                      .dwcfi  undefined, 30
     266                      .dwcfi  undefined, 31
     267                      .dwcfi  undefined, 32
     268                      .dwcfi  undefined, 33
     269                      .dwcfi  undefined, 34
     270                      .dwcfi  undefined, 35
     271                      .dwcfi  undefined, 36
     272                      .dwcfi  undefined, 37
     273                      .dwcfi  undefined, 38
     274                      .dwcfi  undefined, 75
     275                      .dwcfi  undefined, 76
TMS320C2000 Assembler PC v6.2.5 Sat Jul 08 15:24:56 2017

Tools Copyright (c) 1996-2014 Texas Instruments Incorporated
C:\Users\wmj\AppData\Local\Temp\1317611                              PAGE    6

     276                      .dwcfi  undefined, 77
     277                      .dwcfi  undefined, 4
     278                      .dwcfi  same_value, 6
     279                      .dwcfi  same_value, 8
     280                      .dwcfi  same_value, 10
     281                      .dwcfi  undefined, 12
     282                      .dwcfi  undefined, 14
     283                      .dwcfi  undefined, 16
     284                      .dwcfi  undefined, 17
     285                      .dwcfi  undefined, 18
     286                      .dwcfi  undefined, 19
     287                      .dwcfi  undefined, 5
     288                      .dwcfi  same_value, 7
     289                      .dwcfi  same_value, 9
     290                      .dwcfi  same_value, 11
     291                      .dwcfi  undefined, 13
     292                      .dwcfi  undefined, 15
     293                      .dwcfi  undefined, 78
     294                      .dwendentry
     295              
     296              ;***************************************************************
     297              ;* DWARF REGISTER MAP                                          *
     298              ;***************************************************************
     299              
     300              $C$DW$18        .dwtag  DW_TAG_TI_assign_register, DW_AT_name("AL")
     301                      .dwattr $C$DW$18, DW_AT_location[DW_OP_reg0]
     302              $C$DW$19        .dwtag  DW_TAG_TI_assign_register, DW_AT_name("AH")
     303                      .dwattr $C$DW$19, DW_AT_location[DW_OP_reg1]
     304              $C$DW$20        .dwtag  DW_TAG_TI_assign_register, DW_AT_name("PL")
     305                      .dwattr $C$DW$20, DW_AT_location[DW_OP_reg2]
     306              $C$DW$21        .dwtag  DW_TAG_TI_assign_register, DW_AT_name("PH")
     307                      .dwattr $C$DW$21, DW_AT_location[DW_OP_reg3]
     308              $C$DW$22        .dwtag  DW_TAG_TI_assign_register, DW_AT_name("SP")
     309                      .dwattr $C$DW$22, DW_AT_location[DW_OP_reg20]
     310              $C$DW$23        .dwtag  DW_TAG_TI_assign_register, DW_AT_name("XT")
     311                      .dwattr $C$DW$23, DW_AT_location[DW_OP_reg21]
     312              $C$DW$24        .dwtag  DW_TAG_TI_assign_register, DW_AT_name("T")
     313                      .dwattr $C$DW$24, DW_AT_location[DW_OP_reg22]
     314              $C$DW$25        .dwtag  DW_TAG_TI_assign_register, DW_AT_name("ST0")
     315                      .dwattr $C$DW$25, DW_AT_location[DW_OP_reg23]
     316              $C$DW$26        .dwtag  DW_TAG_TI_assign_register, DW_AT_name("ST1")
     317                      .dwattr $C$DW$26, DW_AT_location[DW_OP_reg24]
     318              $C$DW$27        .dwtag  DW_TAG_TI_assign_register, DW_AT_name("PC")
     319                      .dwattr $C$DW$27, DW_AT_location[DW_OP_reg25]
     320              $C$DW$28        .dwtag  DW_TAG_TI_assign_register, DW_AT_name("RPC")
     321                      .dwattr $C$DW$28, DW_AT_location[DW_OP_reg26]
     322              $C$DW$29        .dwtag  DW_TAG_TI_assign_register, DW_AT_name("FP")
     323                      .dwattr $C$DW$29, DW_AT_location[DW_OP_reg28]
     324              $C$DW$30        .dwtag  DW_TAG_TI_assign_register, DW_AT_name("DP")
     325                      .dwattr $C$DW$30, DW_AT_location[DW_OP_reg29]
     326              $C$DW$31        .dwtag  DW_TAG_TI_assign_register, DW_AT_name("SXM")
     327                      .dwattr $C$DW$31, DW_AT_location[DW_OP_reg30]
     328              $C$DW$32        .dwtag  DW_TAG_TI_assign_register, DW_AT_name("PM")
     329                      .dwattr $C$DW$32, DW_AT_location[DW_OP_reg31]
     330              $C$DW$33        .dwtag  DW_TAG_TI_assign_register, DW_AT_name("OVM")
TMS320C2000 Assembler PC v6.2.5 Sat Jul 08 15:24:56 2017

Tools Copyright (c) 1996-2014 Texas Instruments Incorporated
C:\Users\wmj\AppData\Local\Temp\1317611                              PAGE    7

     331                      .dwattr $C$DW$33, DW_AT_location[DW_OP_regx 0x20]
     332              $C$DW$34        .dwtag  DW_TAG_TI_assign_register, DW_AT_name("PAGE0")
     333                      .dwattr $C$DW$34, DW_AT_location[DW_OP_regx 0x21]
     334              $C$DW$35        .dwtag  DW_TAG_TI_assign_register, DW_AT_name("AMODE")
     335                      .dwattr $C$DW$35, DW_AT_location[DW_OP_regx 0x22]
     336              $C$DW$36        .dwtag  DW_TAG_TI_assign_register, DW_AT_name("INTM")
     337                      .dwattr $C$DW$36, DW_AT_location[DW_OP_regx 0x23]
     338              $C$DW$37        .dwtag  DW_TAG_TI_assign_register, DW_AT_name("IFR")
     339                      .dwattr $C$DW$37, DW_AT_location[DW_OP_regx 0x24]
     340              $C$DW$38        .dwtag  DW_TAG_TI_assign_register, DW_AT_name("IER")
     341                      .dwattr $C$DW$38, DW_AT_location[DW_OP_regx 0x25]
     342              $C$DW$39        .dwtag  DW_TAG_TI_assign_register, DW_AT_name("V")
     343                      .dwattr $C$DW$39, DW_AT_location[DW_OP_regx 0x26]
     344              $C$DW$40        .dwtag  DW_TAG_TI_assign_register, DW_AT_name("PSEUDOH")
     345                      .dwattr $C$DW$40, DW_AT_location[DW_OP_regx 0x4c]
     346              $C$DW$41        .dwtag  DW_TAG_TI_assign_register, DW_AT_name("VOL")
     347                      .dwattr $C$DW$41, DW_AT_location[DW_OP_regx 0x4d]
     348              $C$DW$42        .dwtag  DW_TAG_TI_assign_register, DW_AT_name("AR0")
     349                      .dwattr $C$DW$42, DW_AT_location[DW_OP_reg4]
     350              $C$DW$43        .dwtag  DW_TAG_TI_assign_register, DW_AT_name("AR1")
     351                      .dwattr $C$DW$43, DW_AT_location[DW_OP_reg6]
     352              $C$DW$44        .dwtag  DW_TAG_TI_assign_register, DW_AT_name("AR2")
     353                      .dwattr $C$DW$44, DW_AT_location[DW_OP_reg8]
     354              $C$DW$45        .dwtag  DW_TAG_TI_assign_register, DW_AT_name("AR3")
     355                      .dwattr $C$DW$45, DW_AT_location[DW_OP_reg10]
     356              $C$DW$46        .dwtag  DW_TAG_TI_assign_register, DW_AT_name("AR4")
     357                      .dwattr $C$DW$46, DW_AT_location[DW_OP_reg12]
     358              $C$DW$47        .dwtag  DW_TAG_TI_assign_register, DW_AT_name("AR5")
     359                      .dwattr $C$DW$47, DW_AT_location[DW_OP_reg14]
     360              $C$DW$48        .dwtag  DW_TAG_TI_assign_register, DW_AT_name("AR6")
     361                      .dwattr $C$DW$48, DW_AT_location[DW_OP_reg16]
     362              $C$DW$49        .dwtag  DW_TAG_TI_assign_register, DW_AT_name("XAR6")
     363                      .dwattr $C$DW$49, DW_AT_location[DW_OP_reg17]
     364              $C$DW$50        .dwtag  DW_TAG_TI_assign_register, DW_AT_name("AR7")
     365                      .dwattr $C$DW$50, DW_AT_location[DW_OP_reg18]
     366              $C$DW$51        .dwtag  DW_TAG_TI_assign_register, DW_AT_name("XAR7")
     367                      .dwattr $C$DW$51, DW_AT_location[DW_OP_reg19]
     368              $C$DW$52        .dwtag  DW_TAG_TI_assign_register, DW_AT_name("XAR0")
     369                      .dwattr $C$DW$52, DW_AT_location[DW_OP_reg5]
     370              $C$DW$53        .dwtag  DW_TAG_TI_assign_register, DW_AT_name("XAR1")
     371                      .dwattr $C$DW$53, DW_AT_location[DW_OP_reg7]
     372              $C$DW$54        .dwtag  DW_TAG_TI_assign_register, DW_AT_name("XAR2")
     373                      .dwattr $C$DW$54, DW_AT_location[DW_OP_reg9]
     374              $C$DW$55        .dwtag  DW_TAG_TI_assign_register, DW_AT_name("XAR3")
     375                      .dwattr $C$DW$55, DW_AT_location[DW_OP_reg11]
     376              $C$DW$56        .dwtag  DW_TAG_TI_assign_register, DW_AT_name("XAR4")
     377                      .dwattr $C$DW$56, DW_AT_location[DW_OP_reg13]
     378              $C$DW$57        .dwtag  DW_TAG_TI_assign_register, DW_AT_name("XAR5")
     379                      .dwattr $C$DW$57, DW_AT_location[DW_OP_reg15]
     380              $C$DW$58        .dwtag  DW_TAG_TI_assign_register, DW_AT_name("CIE_RETA")
     381                      .dwattr $C$DW$58, DW_AT_location[DW_OP_regx 0x4e]
     382                      .dwendtag $C$DW$CU
     383              

No Assembly Errors, No Assembly Warnings
