TMS320C2000 Assembler PC v6.2.5 Sat Jul 08 16:16:11 2017

Tools Copyright (c) 1996-2014 Texas Instruments Incorporated
C:\Users\wmj\AppData\Local\Temp\1433210                              PAGE    1

       1              ;***************************************************************
       2              ;* TMS320C2000 C/C++ Codegen                         PC v6.2.5 *
       3              ;* Date/Time created: Sat Jul 08 16:16:11 2017                 *
       4              ;***************************************************************
       5                      .compiler_opts --float_support=softlib --hll_source=on --mem_model:code=flat --mem_model:data=large -
       6        0002  FP      .set    XAR2
       7              
       8              $C$DW$CU        .dwtag  DW_TAG_compile_unit
       9                      .dwattr $C$DW$CU, DW_AT_name("D:/Foc/my_motor/sw/solutions/instaspin_foc/src/proj_lab05a.c")
      10                      .dwattr $C$DW$CU, DW_AT_producer("TMS320C2000 C/C++ Codegen PC v6.2.5 Copyright (c) 1996-2014 Texas I
      11                      .dwattr $C$DW$CU, DW_AT_TI_version(0x01)
      12                      .dwattr $C$DW$CU, DW_AT_comp_dir("D:\Foc\my_motor\sw\solutions\instaspin_foc\boards\hvkit_rev1p1\f28x
      13              ;**************************************************************
      14              ;* CINIT RECORDS                                              *
      15              ;**************************************************************
      16 00000000               .sect   ".cinit"
      17                      .align  1
      18 00000000 FFFF          .field          -1,16
      19 00000001 0000-         .field          _gLEDcnt+0,32
         00000002 0000 
      20 00000003 0000          .bits   0,16                    ; _gLEDcnt @ 0
      21              
      22 00000004               .sect   ".cinit"
      23                      .align  1
      24 00000004 FFFF          .field          -1,16
      25 00000005 0001-         .field          _Flag_Latch_softwareUpdate+0,32
         00000006 0000 
      26 00000007 0001          .bits   1,16                    ; _Flag_Latch_softwareUpdate @ 0
      27              
      28 00000008               .sect   ".cinit"
      29                      .align  1
      30 00000008 FFFF          .field          -1,16
      31 00000009 0002-         .field          _gCounter_updateGlobals+0,32
         0000000a 0000 
      32 0000000b 0000          .bits   0,16                    ; _gCounter_updateGlobals @ 0
      33              
      34 0000000c               .sect   ".cinit"
      35                      .align  1
      36 0000000c FFFE          .field          -2,16
      37 0000000d 0006-         .field          _gMaxCurrentSlope+0,32
         0000000e 0000 
      38 0000000f 0000          .bits   0,32                    ; _gMaxCurrentSlope @ 0
         00000010 0000 
      39              
      40 00000011               .sect   ".cinit"
      41                      .align  1
      42 00000011 FFFA          .field          -$C$IR_1,16
      43 00000012 0012-         .field          _gPwmData+0,32
         00000013 0000 
      44 00000014 0000          .bits   0,32                    ; _gPwmData._Tabc._value[0] @ 0
         00000015 0000 
      45 00000016 0000          .bits   0,32                    ; _gPwmData._Tabc._value[1] @ 32
         00000017 0000 
      46 00000018 0000          .bits   0,32                    ; _gPwmData._Tabc._value[2] @ 64
         00000019 0000 
TMS320C2000 Assembler PC v6.2.5 Sat Jul 08 16:16:11 2017

Tools Copyright (c) 1996-2014 Texas Instruments Incorporated
C:\Users\wmj\AppData\Local\Temp\1433210                              PAGE    2

      47        0006  $C$IR_1:        .set    6
      48              
      49 0000001a               .sect   ".cinit"
      50                      .align  1
      51 0000001a FF80          .field          -$C$IR_2,16
      52 0000001b 0040-         .field          _gMotorVars+0,32
         0000001c 0000 
      53 0000001d 0000          .bits   0,16                    ; _gMotorVars._Flag_enableSys @ 0
      54 0000001e 0000          .bits   0,16                    ; _gMotorVars._Flag_Run_Identify @ 16
      55 0000001f 0000          .bits   0,16                    ; _gMotorVars._Flag_MotorIdentified @ 32
      56 00000020 0001          .bits   1,16                    ; _gMotorVars._Flag_enableForceAngle @ 48
      57 00000021 0000          .bits   0,16                    ; _gMotorVars._Flag_enableFieldWeakening @ 64
      58 00000022 0000          .bits   0,16                    ; _gMotorVars._Flag_enableRsRecalc @ 80
      59 00000023 0001          .bits   1,16                    ; _gMotorVars._Flag_enableUserParams @ 96
      60 00000024 0001          .bits   1,16                    ; _gMotorVars._Flag_enableOffsetcalc @ 112
      61 00000025 0000          .bits   0,16                    ; _gMotorVars._Flag_enablePowerWarp @ 128
      62 00000026 0000          .bits   0,16                    ; _gMotorVars._Flag_enableSpeedCtrl @ 144
      63 00000027 0000          .bits   0,16                    ; _gMotorVars._Flag_enableRun @ 160
      64 00000028 0000          .bits   0,16                    ; _gMotorVars._Flag_RunState @ 176
      65 00000029 0000          .bits   0,16                    ; _gMotorVars._Flag_enableFlyingStart @ 192
      66 0000002a 0001          .bits   1,16                    ; _gMotorVars._CtrlState @ 208
      67 0000002b 0001          .bits   1,16                    ; _gMotorVars._EstState @ 224
      68 0000002c 0000          .bits   0,16                    ; _gMotorVars._UserErrorCode @ 240
      69 0000002d 0000          .bits   0,16                    ; _gMotorVars._CtrlVersion._rsvd @ 256
      70 0000002e 0004          .bits   4,16                    ; _gMotorVars._CtrlVersion._targetProc @ 272
      71 0000002f 0000          .bits   0,16                    ; _gMotorVars._CtrlVersion._major @ 288
      72 00000030 0000          .bits   0,16                    ; _gMotorVars._CtrlVersion._minor @ 304
      73 00000031 0000          .bits   0,32                    ; _gMotorVars._IdRef_A @ 320
         00000032 0000 
      74 00000033 0000          .bits   0,32                    ; _gMotorVars._IqRef_A @ 352
         00000034 0000 
      75 00000035 0000          .bits   0,32                    ; _gMotorVars._SpeedRef_pu @ 384
         00000036 0000 
      76 00000037 9999          .bits   1677721,32                      ; _gMotorVars._SpeedRef_krpm @ 416
         00000038 0019 
      77 00000039 0000          .bits   0,32                    ; _gMotorVars._SpeedTraj_krpm @ 448
         0000003a 0000 
      78 0000003b 3333          .bits   3355443,32                      ; _gMotorVars._MaxAccel_krpmps @ 480
         0000003c 0033 
      79 0000003d 0000          .bits   0,32                    ; _gMotorVars._Speed_krpm @ 512
         0000003e 0000 
      80 0000003f 0000          .bits   8388608,32                      ; _gMotorVars._OverModulation @ 544
         00000040 0080 
      81 00000041 9999          .bits   1677721,32                      ; _gMotorVars._RsOnLineCurrent_A @ 576
         00000042 0019 
      82 00000043 0190          .bits   400,32                  ; _gMotorVars._SvgenMaxModulation_ticks @ 608
         00000044 0000 
      83 00000045 0000          .bits   0,32                    ; _gMotorVars._Flux_Wb @ 640
         00000046 0000 
      84 00000047 0000          .bits   0,32                    ; _gMotorVars._Torque_Nm @ 672
         00000048 0000 
      85 00000049 0000          .xfloat $strtod("0x0p+0")               ; _gMotorVars._MagnCurr_A @ 704
         0000004a 0000 
      86 0000004b 0000          .xfloat $strtod("0x0p+0")               ; _gMotorVars._Rr_Ohm @ 736
         0000004c 0000 
TMS320C2000 Assembler PC v6.2.5 Sat Jul 08 16:16:11 2017

Tools Copyright (c) 1996-2014 Texas Instruments Incorporated
C:\Users\wmj\AppData\Local\Temp\1433210                              PAGE    3

      87 0000004d 0000          .xfloat $strtod("0x0p+0")               ; _gMotorVars._Rs_Ohm @ 768
         0000004e 0000 
      88 0000004f 0000          .xfloat $strtod("0x0p+0")               ; _gMotorVars._RsOnLine_Ohm @ 800
         00000050 0000 
      89 00000051 0000          .xfloat $strtod("0x0p+0")               ; _gMotorVars._Lsd_H @ 832
         00000052 0000 
      90 00000053 0000          .xfloat $strtod("0x0p+0")               ; _gMotorVars._Lsq_H @ 864
         00000054 0000 
      91 00000055 0000          .xfloat $strtod("0x0p+0")               ; _gMotorVars._Flux_VpHz @ 896
         00000056 0000 
      92 00000057 0000          .xfloat $strtod("0x0p+0")               ; _gMotorVars._ipd_excFreq_Hz @ 928
         00000058 0000 
      93 00000059 0000          .bits   0,32                    ; _gMotorVars._ipd_Kspd @ 960
         0000005a 0000 
      94 0000005b 0000          .bits   0,32                    ; _gMotorVars._ipd_excMag_coarse_pu @ 992
         0000005c 0000 
      95 0000005d 0000          .bits   0,32                    ; _gMotorVars._ipd_excMag_fine_pu @ 1024
         0000005e 0000 
      96 0000005f 0000          .xfloat $strtod("0x0p+0")               ; _gMotorVars._ipd_waitTime_coarse_sec @ 1056
         00000060 0000 
      97 00000061 0000          .xfloat $strtod("0x0p+0")               ; _gMotorVars._ipd_waitTime_fine_sec @ 1088
         00000062 0000 
      98 00000063 0000          .bits   0,32                    ; _gMotorVars._Kp_spd @ 1120
         00000064 0000 
      99 00000065 0000          .bits   0,32                    ; _gMotorVars._Ki_spd @ 1152
         00000066 0000 
     100 00000067 0000          .bits   0,32                    ; _gMotorVars._Kp_Idq @ 1184
         00000068 0000 
     101 00000069 0000          .bits   0,32                    ; _gMotorVars._Ki_Idq @ 1216
         0000006a 0000 
     102 0000006b 0000          .bits   0,32                    ; _gMotorVars._Vd @ 1248
         0000006c 0000 
     103 0000006d 0000          .bits   0,32                    ; _gMotorVars._Vq @ 1280
         0000006e 0000 
     104 0000006f 0000          .bits   0,32                    ; _gMotorVars._Vs @ 1312
         00000070 0000 
     105 00000071 6666          .bits   6710886,32                      ; _gMotorVars._VsRef @ 1344
         00000072 0066 
     106 00000073 0000          .bits   0,32                    ; _gMotorVars._VdcBus_kV @ 1376
         00000074 0000 
     107 00000075 0000          .bits   0,32                    ; _gMotorVars._Id_A @ 1408
         00000076 0000 
     108 00000077 0000          .bits   0,32                    ; _gMotorVars._Iq_A @ 1440
         00000078 0000 
     109 00000079 0000          .bits   0,32                    ; _gMotorVars._Is_A @ 1472
         0000007a 0000 
     110 0000007b 0000          .bits   0,32                    ; _gMotorVars._I_bias._value[0] @ 1504
         0000007c 0000 
     111 0000007d 0000          .bits   0,32                    ; _gMotorVars._I_bias._value[1] @ 1536
         0000007e 0000 
     112 0000007f 0000          .bits   0,32                    ; _gMotorVars._I_bias._value[2] @ 1568
         00000080 0000 
     113 00000081 0000          .bits   0,32                    ; _gMotorVars._V_bias._value[0] @ 1600
         00000082 0000 
     114 00000083 0000          .bits   0,32                    ; _gMotorVars._V_bias._value[1] @ 1632
TMS320C2000 Assembler PC v6.2.5 Sat Jul 08 16:16:11 2017

Tools Copyright (c) 1996-2014 Texas Instruments Incorporated
C:\Users\wmj\AppData\Local\Temp\1433210                              PAGE    4

         00000084 0000 
     115 00000085 0000          .bits   0,32                    ; _gMotorVars._V_bias._value[2] @ 1664
         00000086 0000 
     116 00000087 999A          .bits   10066330,32                     ; _gMotorVars._SpeedSet_krpm @ 1696
         00000088 0099 
     117 00000089 0000          .bits   0,32                    ; _gMotorVars._angle_sen_pu @ 1728
         0000008a 0000 
     118 0000008b 0000          .bits   0,32                    ; _gMotorVars._angle_est_pu @ 1760
         0000008c 0000 
     119 0000008d 0000          .bits   0,32                    ; _gMotorVars._speed_sen_pu @ 1792
         0000008e 0000 
     120 0000008f 0000          .bits   0,32                    ; _gMotorVars._speed_est_pu @ 1824
         00000090 0000 
     121 00000091 0000          .bits   0,32                    ; _gMotorVars._speedHigh_hall2fast_pu @ 1856
         00000092 0000 
     122 00000093 0000          .bits   0,32                    ; _gMotorVars._speedLow_hall2fast_pu @ 1888
         00000094 0000 
     123 00000095 0000          .bits   0,32                    ; _gMotorVars._IdSet_A @ 1920
         00000096 0000 
     124 00000097 0000          .bits   0,32                    ; _gMotorVars._IqSet_A @ 1952
         00000098 0000 
     125 00000099 0000          .bits   0,32                    ; _gMotorVars._IdRef_pu @ 1984
         0000009a 0000 
     126 0000009b 0000          .bits   0,32                    ; _gMotorVars._IqRef_pu @ 2016
         0000009c 0000 
     127        0080  $C$IR_2:        .set    128
     128              
     129              
     130              $C$DW$1 .dwtag  DW_TAG_subprogram, DW_AT_name("CTRL_setParams")
     131                      .dwattr $C$DW$1, DW_AT_TI_symbol_name("_CTRL_setParams")
     132                      .dwattr $C$DW$1, DW_AT_declaration
     133                      .dwattr $C$DW$1, DW_AT_external
     134              $C$DW$2 .dwtag  DW_TAG_formal_parameter
     135                      .dwattr $C$DW$2, DW_AT_type(*$C$DW$T$166)
     136              $C$DW$3 .dwtag  DW_TAG_formal_parameter
     137                      .dwattr $C$DW$3, DW_AT_type(*$C$DW$T$172)
     138                      .dwendtag $C$DW$1
     139              
     140              
     141              $C$DW$4 .dwtag  DW_TAG_subprogram, DW_AT_name("CTRL_setSpd_ref_krpm")
     142                      .dwattr $C$DW$4, DW_AT_TI_symbol_name("_CTRL_setSpd_ref_krpm")
     143                      .dwattr $C$DW$4, DW_AT_declaration
     144                      .dwattr $C$DW$4, DW_AT_external
     145              $C$DW$5 .dwtag  DW_TAG_formal_parameter
     146                      .dwattr $C$DW$5, DW_AT_type(*$C$DW$T$166)
     147              $C$DW$6 .dwtag  DW_TAG_formal_parameter
     148                      .dwattr $C$DW$6, DW_AT_type(*$C$DW$T$238)
     149                      .dwendtag $C$DW$4
     150              
     151              
     152              $C$DW$7 .dwtag  DW_TAG_subprogram, DW_AT_name("HAL_enableAdcInts")
     153                      .dwattr $C$DW$7, DW_AT_TI_symbol_name("_HAL_enableAdcInts")
     154                      .dwattr $C$DW$7, DW_AT_declaration
     155                      .dwattr $C$DW$7, DW_AT_external
     156              $C$DW$8 .dwtag  DW_TAG_formal_parameter
TMS320C2000 Assembler PC v6.2.5 Sat Jul 08 16:16:11 2017

Tools Copyright (c) 1996-2014 Texas Instruments Incorporated
C:\Users\wmj\AppData\Local\Temp\1433210                              PAGE    5

     157                      .dwattr $C$DW$8, DW_AT_type(*$C$DW$T$212)
     158                      .dwendtag $C$DW$7
     159              
     160              
     161              $C$DW$9 .dwtag  DW_TAG_subprogram, DW_AT_name("CTRL_setup")
     162                      .dwattr $C$DW$9, DW_AT_TI_symbol_name("_CTRL_setup")
     163                      .dwattr $C$DW$9, DW_AT_declaration
     164                      .dwattr $C$DW$9, DW_AT_external
     165              $C$DW$10        .dwtag  DW_TAG_formal_parameter
     166                      .dwattr $C$DW$10, DW_AT_type(*$C$DW$T$166)
     167                      .dwendtag $C$DW$9
     168              
     169              
     170              $C$DW$11        .dwtag  DW_TAG_subprogram, DW_AT_name("CTRL_run")
     171                      .dwattr $C$DW$11, DW_AT_TI_symbol_name("_CTRL_run")
     172                      .dwattr $C$DW$11, DW_AT_declaration
     173                      .dwattr $C$DW$11, DW_AT_external
     174              $C$DW$12        .dwtag  DW_TAG_formal_parameter
     175                      .dwattr $C$DW$12, DW_AT_type(*$C$DW$T$166)
     176              $C$DW$13        .dwtag  DW_TAG_formal_parameter
     177                      .dwattr $C$DW$13, DW_AT_type(*$C$DW$T$212)
     178              $C$DW$14        .dwtag  DW_TAG_formal_parameter
     179                      .dwattr $C$DW$14, DW_AT_type(*$C$DW$T$206)
     180              $C$DW$15        .dwtag  DW_TAG_formal_parameter
     181                      .dwattr $C$DW$15, DW_AT_type(*$C$DW$T$217)
     182                      .dwendtag $C$DW$11
     183              
     184              
     185              $C$DW$16        .dwtag  DW_TAG_subprogram, DW_AT_name("HAL_I2c_Pca9555_WrData")
     186                      .dwattr $C$DW$16, DW_AT_TI_symbol_name("_HAL_I2c_Pca9555_WrData")
     187                      .dwattr $C$DW$16, DW_AT_declaration
     188                      .dwattr $C$DW$16, DW_AT_external
     189              $C$DW$17        .dwtag  DW_TAG_formal_parameter
     190                      .dwattr $C$DW$17, DW_AT_type(*$C$DW$T$212)
     191              $C$DW$18        .dwtag  DW_TAG_formal_parameter
     192                      .dwattr $C$DW$18, DW_AT_type(*$C$DW$T$23)
     193              $C$DW$19        .dwtag  DW_TAG_formal_parameter
     194                      .dwattr $C$DW$19, DW_AT_type(*$C$DW$T$23)
     195                      .dwendtag $C$DW$16
     196              
     197              
     198              $C$DW$20        .dwtag  DW_TAG_subprogram, DW_AT_name("HAL_setupFaults")
     199                      .dwattr $C$DW$20, DW_AT_TI_symbol_name("_HAL_setupFaults")
     200                      .dwattr $C$DW$20, DW_AT_declaration
     201                      .dwattr $C$DW$20, DW_AT_external
     202              $C$DW$21        .dwtag  DW_TAG_formal_parameter
     203                      .dwattr $C$DW$21, DW_AT_type(*$C$DW$T$212)
     204                      .dwendtag $C$DW$20
     205              
     206              
     207              $C$DW$22        .dwtag  DW_TAG_subprogram, DW_AT_name("HAL_enableDebugInt")
     208                      .dwattr $C$DW$22, DW_AT_TI_symbol_name("_HAL_enableDebugInt")
     209                      .dwattr $C$DW$22, DW_AT_declaration
     210                      .dwattr $C$DW$22, DW_AT_external
     211              $C$DW$23        .dwtag  DW_TAG_formal_parameter
TMS320C2000 Assembler PC v6.2.5 Sat Jul 08 16:16:11 2017

Tools Copyright (c) 1996-2014 Texas Instruments Incorporated
C:\Users\wmj\AppData\Local\Temp\1433210                              PAGE    6

     212                      .dwattr $C$DW$23, DW_AT_type(*$C$DW$T$212)
     213                      .dwendtag $C$DW$22
     214              
     215              
     216              $C$DW$24        .dwtag  DW_TAG_subprogram, DW_AT_name("HAL_enableGlobalInts")
     217                      .dwattr $C$DW$24, DW_AT_TI_symbol_name("_HAL_enableGlobalInts")
     218                      .dwattr $C$DW$24, DW_AT_declaration
     219                      .dwattr $C$DW$24, DW_AT_external
     220              $C$DW$25        .dwtag  DW_TAG_formal_parameter
     221                      .dwattr $C$DW$25, DW_AT_type(*$C$DW$T$212)
     222                      .dwendtag $C$DW$24
     223              
     224              
     225              $C$DW$26        .dwtag  DW_TAG_subprogram, DW_AT_name("HAL_setParams")
     226                      .dwattr $C$DW$26, DW_AT_TI_symbol_name("_HAL_setParams")
     227                      .dwattr $C$DW$26, DW_AT_declaration
     228                      .dwattr $C$DW$26, DW_AT_external
     229              $C$DW$27        .dwtag  DW_TAG_formal_parameter
     230                      .dwattr $C$DW$27, DW_AT_type(*$C$DW$T$212)
     231              $C$DW$28        .dwtag  DW_TAG_formal_parameter
     232                      .dwattr $C$DW$28, DW_AT_type(*$C$DW$T$229)
     233                      .dwendtag $C$DW$26
     234              
     235              
     236              $C$DW$29        .dwtag  DW_TAG_subprogram, DW_AT_name("CTRL_getVersion")
     237                      .dwattr $C$DW$29, DW_AT_TI_symbol_name("_CTRL_getVersion")
     238                      .dwattr $C$DW$29, DW_AT_declaration
     239                      .dwattr $C$DW$29, DW_AT_external
     240              $C$DW$30        .dwtag  DW_TAG_formal_parameter
     241                      .dwattr $C$DW$30, DW_AT_type(*$C$DW$T$166)
     242              $C$DW$31        .dwtag  DW_TAG_formal_parameter
     243                      .dwattr $C$DW$31, DW_AT_type(*$C$DW$T$202)
     244                      .dwendtag $C$DW$29
     245              
     246              
     247              $C$DW$32        .dwtag  DW_TAG_subprogram, DW_AT_name("USER_setParams")
     248                      .dwattr $C$DW$32, DW_AT_TI_symbol_name("_USER_setParams")
     249                      .dwattr $C$DW$32, DW_AT_declaration
     250                      .dwattr $C$DW$32, DW_AT_external
     251              $C$DW$33        .dwtag  DW_TAG_formal_parameter
     252                      .dwattr $C$DW$33, DW_AT_type(*$C$DW$T$172)
     253                      .dwendtag $C$DW$32
     254              
     255              
     256              $C$DW$34        .dwtag  DW_TAG_subprogram, DW_AT_name("USER_softwareUpdate1p6")
     257                      .dwattr $C$DW$34, DW_AT_TI_symbol_name("_USER_softwareUpdate1p6")
     258                      .dwattr $C$DW$34, DW_AT_declaration
     259                      .dwattr $C$DW$34, DW_AT_external
     260              $C$DW$35        .dwtag  DW_TAG_formal_parameter
     261                      .dwattr $C$DW$35, DW_AT_type(*$C$DW$T$166)
     262                      .dwendtag $C$DW$34
     263              
     264              
     265              $C$DW$36        .dwtag  DW_TAG_subprogram, DW_AT_name("USER_calcPIgains")
     266                      .dwattr $C$DW$36, DW_AT_TI_symbol_name("_USER_calcPIgains")
TMS320C2000 Assembler PC v6.2.5 Sat Jul 08 16:16:11 2017

Tools Copyright (c) 1996-2014 Texas Instruments Incorporated
C:\Users\wmj\AppData\Local\Temp\1433210                              PAGE    7

     267                      .dwattr $C$DW$36, DW_AT_declaration
     268                      .dwattr $C$DW$36, DW_AT_external
     269              $C$DW$37        .dwtag  DW_TAG_formal_parameter
     270                      .dwattr $C$DW$37, DW_AT_type(*$C$DW$T$166)
     271                      .dwendtag $C$DW$36
     272              
     273              
     274              $C$DW$38        .dwtag  DW_TAG_subprogram, DW_AT_name("EST_setFlag_enableRsRecalc")
     275                      .dwattr $C$DW$38, DW_AT_TI_symbol_name("_EST_setFlag_enableRsRecalc")
     276                      .dwattr $C$DW$38, DW_AT_declaration
     277                      .dwattr $C$DW$38, DW_AT_external
     278              $C$DW$39        .dwtag  DW_TAG_formal_parameter
     279                      .dwattr $C$DW$39, DW_AT_type(*$C$DW$T$47)
     280              $C$DW$40        .dwtag  DW_TAG_formal_parameter
     281                      .dwattr $C$DW$40, DW_AT_type(*$C$DW$T$235)
     282                      .dwendtag $C$DW$38
     283              
     284              
     285              $C$DW$41        .dwtag  DW_TAG_subprogram, DW_AT_name("EST_setMaxCurrentSlope_pu")
     286                      .dwattr $C$DW$41, DW_AT_TI_symbol_name("_EST_setMaxCurrentSlope_pu")
     287                      .dwattr $C$DW$41, DW_AT_declaration
     288                      .dwattr $C$DW$41, DW_AT_external
     289              $C$DW$42        .dwtag  DW_TAG_formal_parameter
     290                      .dwattr $C$DW$42, DW_AT_type(*$C$DW$T$47)
     291              $C$DW$43        .dwtag  DW_TAG_formal_parameter
     292                      .dwattr $C$DW$43, DW_AT_type(*$C$DW$T$238)
     293                      .dwendtag $C$DW$41
     294              
     295              
     296              $C$DW$44        .dwtag  DW_TAG_subprogram, DW_AT_name("memCopy")
     297                      .dwattr $C$DW$44, DW_AT_TI_symbol_name("_memCopy")
     298                      .dwattr $C$DW$44, DW_AT_declaration
     299                      .dwattr $C$DW$44, DW_AT_external
     300              $C$DW$45        .dwtag  DW_TAG_formal_parameter
     301                      .dwattr $C$DW$45, DW_AT_type(*$C$DW$T$232)
     302              $C$DW$46        .dwtag  DW_TAG_formal_parameter
     303                      .dwattr $C$DW$46, DW_AT_type(*$C$DW$T$232)
     304              $C$DW$47        .dwtag  DW_TAG_formal_parameter
     305                      .dwattr $C$DW$47, DW_AT_type(*$C$DW$T$232)
     306                      .dwendtag $C$DW$44
     307              
     308              
     309              $C$DW$48        .dwtag  DW_TAG_subprogram, DW_AT_name("USER_checkForErrors")
     310                      .dwattr $C$DW$48, DW_AT_TI_symbol_name("_USER_checkForErrors")
     311                      .dwattr $C$DW$48, DW_AT_declaration
     312                      .dwattr $C$DW$48, DW_AT_external
     313              $C$DW$49        .dwtag  DW_TAG_formal_parameter
     314                      .dwattr $C$DW$49, DW_AT_type(*$C$DW$T$172)
     315                      .dwendtag $C$DW$48
     316              
     317              
     318              $C$DW$50        .dwtag  DW_TAG_subprogram, DW_AT_name("EST_setFlag_enableForceAngle")
     319                      .dwattr $C$DW$50, DW_AT_TI_symbol_name("_EST_setFlag_enableForceAngle")
     320                      .dwattr $C$DW$50, DW_AT_declaration
     321                      .dwattr $C$DW$50, DW_AT_external
TMS320C2000 Assembler PC v6.2.5 Sat Jul 08 16:16:11 2017

Tools Copyright (c) 1996-2014 Texas Instruments Incorporated
C:\Users\wmj\AppData\Local\Temp\1433210                              PAGE    8

     322              $C$DW$51        .dwtag  DW_TAG_formal_parameter
     323                      .dwattr $C$DW$51, DW_AT_type(*$C$DW$T$47)
     324              $C$DW$52        .dwtag  DW_TAG_formal_parameter
     325                      .dwattr $C$DW$52, DW_AT_type(*$C$DW$T$235)
     326                      .dwendtag $C$DW$50
     327              
     328              
     329              $C$DW$53        .dwtag  DW_TAG_subprogram, DW_AT_name("CTRL_updateState")
     330                      .dwattr $C$DW$53, DW_AT_TI_symbol_name("_CTRL_updateState")
     331                      .dwattr $C$DW$53, DW_AT_type(*$C$DW$T$70)
     332                      .dwattr $C$DW$53, DW_AT_declaration
     333                      .dwattr $C$DW$53, DW_AT_external
     334              $C$DW$54        .dwtag  DW_TAG_formal_parameter
     335                      .dwattr $C$DW$54, DW_AT_type(*$C$DW$T$166)
     336                      .dwendtag $C$DW$53
     337              
     338                      .global _gLEDcnt
     339 00000000       _gLEDcnt:       .usect  ".ebss",1,1,0
     340              $C$DW$55        .dwtag  DW_TAG_variable, DW_AT_name("gLEDcnt")
     341                      .dwattr $C$DW$55, DW_AT_TI_symbol_name("_gLEDcnt")
     342                      .dwattr $C$DW$55, DW_AT_location[DW_OP_addr _gLEDcnt]
     343                      .dwattr $C$DW$55, DW_AT_type(*$C$DW$T$23)
     344                      .dwattr $C$DW$55, DW_AT_external
     345              
     346              $C$DW$56        .dwtag  DW_TAG_subprogram, DW_AT_name("USER_getErrorCode")
     347                      .dwattr $C$DW$56, DW_AT_TI_symbol_name("_USER_getErrorCode")
     348                      .dwattr $C$DW$56, DW_AT_type(*$C$DW$T$132)
     349                      .dwattr $C$DW$56, DW_AT_declaration
     350                      .dwattr $C$DW$56, DW_AT_external
     351              $C$DW$57        .dwtag  DW_TAG_formal_parameter
     352                      .dwattr $C$DW$57, DW_AT_type(*$C$DW$T$172)
     353                      .dwendtag $C$DW$56
     354              
     355              
     356              $C$DW$58        .dwtag  DW_TAG_subprogram, DW_AT_name("EST_isMotorIdentified")
     357                      .dwattr $C$DW$58, DW_AT_TI_symbol_name("_EST_isMotorIdentified")
     358                      .dwattr $C$DW$58, DW_AT_type(*$C$DW$T$70)
     359                      .dwattr $C$DW$58, DW_AT_declaration
     360                      .dwattr $C$DW$58, DW_AT_external
     361              $C$DW$59        .dwtag  DW_TAG_formal_parameter
     362                      .dwattr $C$DW$59, DW_AT_type(*$C$DW$T$47)
     363                      .dwendtag $C$DW$58
     364              
     365                      .global _Flag_Latch_softwareUpdate
     366 00000001       _Flag_Latch_softwareUpdate:     .usect  ".ebss",1,1,0
     367              $C$DW$60        .dwtag  DW_TAG_variable, DW_AT_name("Flag_Latch_softwareUpdate")
     368                      .dwattr $C$DW$60, DW_AT_TI_symbol_name("_Flag_Latch_softwareUpdate")
     369                      .dwattr $C$DW$60, DW_AT_location[DW_OP_addr _Flag_Latch_softwareUpdate]
     370                      .dwattr $C$DW$60, DW_AT_type(*$C$DW$T$70)
     371                      .dwattr $C$DW$60, DW_AT_external
     372                      .global _gCounter_updateGlobals
     373 00000002       _gCounter_updateGlobals:        .usect  ".ebss",1,1,0
     374              $C$DW$61        .dwtag  DW_TAG_variable, DW_AT_name("gCounter_updateGlobals")
     375                      .dwattr $C$DW$61, DW_AT_TI_symbol_name("_gCounter_updateGlobals")
     376                      .dwattr $C$DW$61, DW_AT_location[DW_OP_addr _gCounter_updateGlobals]
TMS320C2000 Assembler PC v6.2.5 Sat Jul 08 16:16:11 2017

Tools Copyright (c) 1996-2014 Texas Instruments Incorporated
C:\Users\wmj\AppData\Local\Temp\1433210                              PAGE    9

     377                      .dwattr $C$DW$61, DW_AT_type(*$C$DW$T$67)
     378                      .dwattr $C$DW$61, DW_AT_external
     379              
     380              $C$DW$62        .dwtag  DW_TAG_subprogram, DW_AT_name("EST_getState")
     381                      .dwattr $C$DW$62, DW_AT_TI_symbol_name("_EST_getState")
     382                      .dwattr $C$DW$62, DW_AT_type(*$C$DW$T$130)
     383                      .dwattr $C$DW$62, DW_AT_declaration
     384                      .dwattr $C$DW$62, DW_AT_external
     385              $C$DW$63        .dwtag  DW_TAG_formal_parameter
     386                      .dwattr $C$DW$63, DW_AT_type(*$C$DW$T$47)
     387                      .dwendtag $C$DW$62
     388              
     389              
     390              $C$DW$64        .dwtag  DW_TAG_subprogram, DW_AT_name("_IQ24sqrt")
     391                      .dwattr $C$DW$64, DW_AT_TI_symbol_name("__IQ24sqrt")
     392                      .dwattr $C$DW$64, DW_AT_type(*$C$DW$T$12)
     393                      .dwattr $C$DW$64, DW_AT_declaration
     394                      .dwattr $C$DW$64, DW_AT_external
     395              $C$DW$65        .dwtag  DW_TAG_formal_parameter
     396                      .dwattr $C$DW$65, DW_AT_type(*$C$DW$T$12)
     397                      .dwendtag $C$DW$64
     398              
     399                      .global _gTorque_Flux_Iq_pu_to_Nm_sf
     400 00000004       _gTorque_Flux_Iq_pu_to_Nm_sf:   .usect  ".ebss",2,1,1
     401              $C$DW$66        .dwtag  DW_TAG_variable, DW_AT_name("gTorque_Flux_Iq_pu_to_Nm_sf")
     402                      .dwattr $C$DW$66, DW_AT_TI_symbol_name("_gTorque_Flux_Iq_pu_to_Nm_sf")
     403                      .dwattr $C$DW$66, DW_AT_location[DW_OP_addr _gTorque_Flux_Iq_pu_to_Nm_sf]
     404                      .dwattr $C$DW$66, DW_AT_type(*$C$DW$T$32)
     405                      .dwattr $C$DW$66, DW_AT_external
     406              
     407              $C$DW$67        .dwtag  DW_TAG_subprogram, DW_AT_name("EST_get_pu_to_krpm_sf")
     408                      .dwattr $C$DW$67, DW_AT_TI_symbol_name("_EST_get_pu_to_krpm_sf")
     409                      .dwattr $C$DW$67, DW_AT_type(*$C$DW$T$32)
     410                      .dwattr $C$DW$67, DW_AT_declaration
     411                      .dwattr $C$DW$67, DW_AT_external
     412              $C$DW$68        .dwtag  DW_TAG_formal_parameter
     413                      .dwattr $C$DW$68, DW_AT_type(*$C$DW$T$47)
     414                      .dwendtag $C$DW$67
     415              
     416              
     417              $C$DW$69        .dwtag  DW_TAG_subprogram, DW_AT_name("EST_getLs_q_H")
     418                      .dwattr $C$DW$69, DW_AT_TI_symbol_name("_EST_getLs_q_H")
     419                      .dwattr $C$DW$69, DW_AT_type(*$C$DW$T$68)
     420                      .dwattr $C$DW$69, DW_AT_declaration
     421                      .dwattr $C$DW$69, DW_AT_external
     422              $C$DW$70        .dwtag  DW_TAG_formal_parameter
     423                      .dwattr $C$DW$70, DW_AT_type(*$C$DW$T$47)
     424                      .dwendtag $C$DW$69
     425              
     426              
     427              $C$DW$71        .dwtag  DW_TAG_subprogram, DW_AT_name("EST_getMaxCurrentSlope_pu")
     428                      .dwattr $C$DW$71, DW_AT_TI_symbol_name("_EST_getMaxCurrentSlope_pu")
     429                      .dwattr $C$DW$71, DW_AT_type(*$C$DW$T$32)
     430                      .dwattr $C$DW$71, DW_AT_declaration
     431                      .dwattr $C$DW$71, DW_AT_external
TMS320C2000 Assembler PC v6.2.5 Sat Jul 08 16:16:11 2017

Tools Copyright (c) 1996-2014 Texas Instruments Incorporated
C:\Users\wmj\AppData\Local\Temp\1433210                              PAGE   10

     432              $C$DW$72        .dwtag  DW_TAG_formal_parameter
     433                      .dwattr $C$DW$72, DW_AT_type(*$C$DW$T$47)
     434                      .dwendtag $C$DW$71
     435              
     436              
     437              $C$DW$73        .dwtag  DW_TAG_subprogram, DW_AT_name("EST_getIdRated")
     438                      .dwattr $C$DW$73, DW_AT_TI_symbol_name("_EST_getIdRated")
     439                      .dwattr $C$DW$73, DW_AT_type(*$C$DW$T$68)
     440                      .dwattr $C$DW$73, DW_AT_declaration
     441                      .dwattr $C$DW$73, DW_AT_external
     442              $C$DW$74        .dwtag  DW_TAG_formal_parameter
     443                      .dwattr $C$DW$74, DW_AT_type(*$C$DW$T$47)
     444                      .dwendtag $C$DW$73
     445              
     446              
     447              $C$DW$75        .dwtag  DW_TAG_subprogram, DW_AT_name("EST_getLs_d_H")
     448                      .dwattr $C$DW$75, DW_AT_TI_symbol_name("_EST_getLs_d_H")
     449                      .dwattr $C$DW$75, DW_AT_type(*$C$DW$T$68)
     450                      .dwattr $C$DW$75, DW_AT_declaration
     451                      .dwattr $C$DW$75, DW_AT_external
     452              $C$DW$76        .dwtag  DW_TAG_formal_parameter
     453                      .dwattr $C$DW$76, DW_AT_type(*$C$DW$T$47)
     454                      .dwendtag $C$DW$75
     455              
     456              
     457              $C$DW$77        .dwtag  DW_TAG_subprogram, DW_AT_name("EST_getFlux_VpHz")
     458                      .dwattr $C$DW$77, DW_AT_TI_symbol_name("_EST_getFlux_VpHz")
     459                      .dwattr $C$DW$77, DW_AT_type(*$C$DW$T$68)
     460                      .dwattr $C$DW$77, DW_AT_declaration
     461                      .dwattr $C$DW$77, DW_AT_external
     462              $C$DW$78        .dwtag  DW_TAG_formal_parameter
     463                      .dwattr $C$DW$78, DW_AT_type(*$C$DW$T$47)
     464                      .dwendtag $C$DW$77
     465              
     466              $C$DW$79        .dwtag  DW_TAG_variable, DW_AT_name("RamfuncsLoadStart")
     467                      .dwattr $C$DW$79, DW_AT_TI_symbol_name("_RamfuncsLoadStart")
     468                      .dwattr $C$DW$79, DW_AT_type(*$C$DW$T$232)
     469                      .dwattr $C$DW$79, DW_AT_declaration
     470                      .dwattr $C$DW$79, DW_AT_external
     471              $C$DW$80        .dwtag  DW_TAG_variable, DW_AT_name("RamfuncsLoadEnd")
     472                      .dwattr $C$DW$80, DW_AT_TI_symbol_name("_RamfuncsLoadEnd")
     473                      .dwattr $C$DW$80, DW_AT_type(*$C$DW$T$232)
     474                      .dwattr $C$DW$80, DW_AT_declaration
     475                      .dwattr $C$DW$80, DW_AT_external
     476                      .global _gMaxCurrentSlope
     477 00000006       _gMaxCurrentSlope:      .usect  ".ebss",2,1,1
     478              $C$DW$81        .dwtag  DW_TAG_variable, DW_AT_name("gMaxCurrentSlope")
     479                      .dwattr $C$DW$81, DW_AT_TI_symbol_name("_gMaxCurrentSlope")
     480                      .dwattr $C$DW$81, DW_AT_location[DW_OP_addr _gMaxCurrentSlope]
     481                      .dwattr $C$DW$81, DW_AT_type(*$C$DW$T$32)
     482                      .dwattr $C$DW$81, DW_AT_external
     483                      .global _ctrlHandle
     484 00000008       _ctrlHandle:    .usect  ".ebss",2,1,1
     485              $C$DW$82        .dwtag  DW_TAG_variable, DW_AT_name("ctrlHandle")
     486                      .dwattr $C$DW$82, DW_AT_TI_symbol_name("_ctrlHandle")
TMS320C2000 Assembler PC v6.2.5 Sat Jul 08 16:16:11 2017

Tools Copyright (c) 1996-2014 Texas Instruments Incorporated
C:\Users\wmj\AppData\Local\Temp\1433210                              PAGE   11

     487                      .dwattr $C$DW$82, DW_AT_location[DW_OP_addr _ctrlHandle]
     488                      .dwattr $C$DW$82, DW_AT_type(*$C$DW$T$166)
     489                      .dwattr $C$DW$82, DW_AT_external
     490                      .global _halHandle
     491 0000000a       _halHandle:     .usect  ".ebss",2,1,1
     492              $C$DW$83        .dwtag  DW_TAG_variable, DW_AT_name("halHandle")
     493                      .dwattr $C$DW$83, DW_AT_TI_symbol_name("_halHandle")
     494                      .dwattr $C$DW$83, DW_AT_location[DW_OP_addr _halHandle]
     495                      .dwattr $C$DW$83, DW_AT_type(*$C$DW$T$212)
     496                      .dwattr $C$DW$83, DW_AT_external
     497              
     498              $C$DW$84        .dwtag  DW_TAG_subprogram, DW_AT_name("labs")
     499                      .dwattr $C$DW$84, DW_AT_TI_symbol_name("_labs")
     500                      .dwattr $C$DW$84, DW_AT_type(*$C$DW$T$12)
     501                      .dwattr $C$DW$84, DW_AT_declaration
     502                      .dwattr $C$DW$84, DW_AT_external
     503              $C$DW$85        .dwtag  DW_TAG_formal_parameter
     504                      .dwattr $C$DW$85, DW_AT_type(*$C$DW$T$12)
     505                      .dwendtag $C$DW$84
     506              
     507                      .global _gFlux_pu_to_VpHz_sf
     508 0000000c       _gFlux_pu_to_VpHz_sf:   .usect  ".ebss",2,1,1
     509              $C$DW$86        .dwtag  DW_TAG_variable, DW_AT_name("gFlux_pu_to_VpHz_sf")
     510                      .dwattr $C$DW$86, DW_AT_TI_symbol_name("_gFlux_pu_to_VpHz_sf")
     511                      .dwattr $C$DW$86, DW_AT_location[DW_OP_addr _gFlux_pu_to_VpHz_sf]
     512                      .dwattr $C$DW$86, DW_AT_type(*$C$DW$T$32)
     513                      .dwattr $C$DW$86, DW_AT_external
     514                      .global _gTorque_Ls_Id_Iq_pu_to_Nm_sf
     515 0000000e       _gTorque_Ls_Id_Iq_pu_to_Nm_sf:  .usect  ".ebss",2,1,1
     516              $C$DW$87        .dwtag  DW_TAG_variable, DW_AT_name("gTorque_Ls_Id_Iq_pu_to_Nm_sf")
     517                      .dwattr $C$DW$87, DW_AT_TI_symbol_name("_gTorque_Ls_Id_Iq_pu_to_Nm_sf")
     518                      .dwattr $C$DW$87, DW_AT_location[DW_OP_addr _gTorque_Ls_Id_Iq_pu_to_Nm_sf]
     519                      .dwattr $C$DW$87, DW_AT_type(*$C$DW$T$32)
     520                      .dwattr $C$DW$87, DW_AT_external
     521                      .global _gFlux_pu_to_Wb_sf
     522 00000010       _gFlux_pu_to_Wb_sf:     .usect  ".ebss",2,1,1
     523              $C$DW$88        .dwtag  DW_TAG_variable, DW_AT_name("gFlux_pu_to_Wb_sf")
     524                      .dwattr $C$DW$88, DW_AT_TI_symbol_name("_gFlux_pu_to_Wb_sf")
     525                      .dwattr $C$DW$88, DW_AT_location[DW_OP_addr _gFlux_pu_to_Wb_sf]
     526                      .dwattr $C$DW$88, DW_AT_type(*$C$DW$T$32)
     527                      .dwattr $C$DW$88, DW_AT_external
     528              
     529              $C$DW$89        .dwtag  DW_TAG_subprogram, DW_AT_name("__IQmpy")
     530                      .dwattr $C$DW$89, DW_AT_TI_symbol_name("___IQmpy")
     531                      .dwattr $C$DW$89, DW_AT_type(*$C$DW$T$12)
     532                      .dwattr $C$DW$89, DW_AT_declaration
     533                      .dwattr $C$DW$89, DW_AT_external
     534              $C$DW$90        .dwtag  DW_TAG_formal_parameter
     535                      .dwattr $C$DW$90, DW_AT_type(*$C$DW$T$12)
     536              $C$DW$91        .dwtag  DW_TAG_formal_parameter
     537                      .dwattr $C$DW$91, DW_AT_type(*$C$DW$T$12)
     538              $C$DW$92        .dwtag  DW_TAG_formal_parameter
     539                      .dwattr $C$DW$92, DW_AT_type(*$C$DW$T$10)
     540                      .dwendtag $C$DW$89
     541              
TMS320C2000 Assembler PC v6.2.5 Sat Jul 08 16:16:11 2017

Tools Copyright (c) 1996-2014 Texas Instruments Incorporated
C:\Users\wmj\AppData\Local\Temp\1433210                              PAGE   12

     542              
     543              $C$DW$93        .dwtag  DW_TAG_subprogram, DW_AT_name("__IQsat")
     544                      .dwattr $C$DW$93, DW_AT_TI_symbol_name("___IQsat")
     545                      .dwattr $C$DW$93, DW_AT_type(*$C$DW$T$12)
     546                      .dwattr $C$DW$93, DW_AT_declaration
     547                      .dwattr $C$DW$93, DW_AT_external
     548              $C$DW$94        .dwtag  DW_TAG_formal_parameter
     549                      .dwattr $C$DW$94, DW_AT_type(*$C$DW$T$12)
     550              $C$DW$95        .dwtag  DW_TAG_formal_parameter
     551                      .dwattr $C$DW$95, DW_AT_type(*$C$DW$T$12)
     552              $C$DW$96        .dwtag  DW_TAG_formal_parameter
     553                      .dwattr $C$DW$96, DW_AT_type(*$C$DW$T$12)
     554                      .dwendtag $C$DW$93
     555              
     556              
     557              $C$DW$97        .dwtag  DW_TAG_subprogram, DW_AT_name("USER_computeTorque_Ls_Id_Iq_pu_to_Nm_sf")
     558                      .dwattr $C$DW$97, DW_AT_TI_symbol_name("_USER_computeTorque_Ls_Id_Iq_pu_to_Nm_sf")
     559                      .dwattr $C$DW$97, DW_AT_type(*$C$DW$T$32)
     560                      .dwattr $C$DW$97, DW_AT_declaration
     561                      .dwattr $C$DW$97, DW_AT_external
     562              
     563              $C$DW$98        .dwtag  DW_TAG_subprogram, DW_AT_name("USER_computeFlux_pu_to_VpHz_sf")
     564                      .dwattr $C$DW$98, DW_AT_TI_symbol_name("_USER_computeFlux_pu_to_VpHz_sf")
     565                      .dwattr $C$DW$98, DW_AT_type(*$C$DW$T$32)
     566                      .dwattr $C$DW$98, DW_AT_declaration
     567                      .dwattr $C$DW$98, DW_AT_external
     568              
     569              $C$DW$99        .dwtag  DW_TAG_subprogram, DW_AT_name("USER_computeFlux")
     570                      .dwattr $C$DW$99, DW_AT_TI_symbol_name("_USER_computeFlux")
     571                      .dwattr $C$DW$99, DW_AT_type(*$C$DW$T$32)
     572                      .dwattr $C$DW$99, DW_AT_declaration
     573                      .dwattr $C$DW$99, DW_AT_external
     574              $C$DW$100       .dwtag  DW_TAG_formal_parameter
     575                      .dwattr $C$DW$100, DW_AT_type(*$C$DW$T$166)
     576              $C$DW$101       .dwtag  DW_TAG_formal_parameter
     577                      .dwattr $C$DW$101, DW_AT_type(*$C$DW$T$238)
     578                      .dwendtag $C$DW$99
     579              
     580              
     581              $C$DW$102       .dwtag  DW_TAG_subprogram, DW_AT_name("USER_computeTorque_Flux_Iq_pu_to_Nm_sf")
     582                      .dwattr $C$DW$102, DW_AT_TI_symbol_name("_USER_computeTorque_Flux_Iq_pu_to_Nm_sf")
     583                      .dwattr $C$DW$102, DW_AT_type(*$C$DW$T$32)
     584                      .dwattr $C$DW$102, DW_AT_declaration
     585                      .dwattr $C$DW$102, DW_AT_external
     586              
     587              $C$DW$103       .dwtag  DW_TAG_subprogram, DW_AT_name("USER_computeFlux_pu_to_Wb_sf")
     588                      .dwattr $C$DW$103, DW_AT_TI_symbol_name("_USER_computeFlux_pu_to_Wb_sf")
     589                      .dwattr $C$DW$103, DW_AT_type(*$C$DW$T$32)
     590                      .dwattr $C$DW$103, DW_AT_declaration
     591                      .dwattr $C$DW$103, DW_AT_external
     592              
     593              $C$DW$104       .dwtag  DW_TAG_subprogram, DW_AT_name("EST_getSpeed_krpm")
     594                      .dwattr $C$DW$104, DW_AT_TI_symbol_name("_EST_getSpeed_krpm")
     595                      .dwattr $C$DW$104, DW_AT_type(*$C$DW$T$32)
     596                      .dwattr $C$DW$104, DW_AT_declaration
TMS320C2000 Assembler PC v6.2.5 Sat Jul 08 16:16:11 2017

Tools Copyright (c) 1996-2014 Texas Instruments Incorporated
C:\Users\wmj\AppData\Local\Temp\1433210                              PAGE   13

     597                      .dwattr $C$DW$104, DW_AT_external
     598              $C$DW$105       .dwtag  DW_TAG_formal_parameter
     599                      .dwattr $C$DW$105, DW_AT_type(*$C$DW$T$47)
     600                      .dwendtag $C$DW$104
     601              
     602              
     603              $C$DW$106       .dwtag  DW_TAG_subprogram, DW_AT_name("EST_getRr_Ohm")
     604                      .dwattr $C$DW$106, DW_AT_TI_symbol_name("_EST_getRr_Ohm")
     605                      .dwattr $C$DW$106, DW_AT_type(*$C$DW$T$68)
     606                      .dwattr $C$DW$106, DW_AT_declaration
     607                      .dwattr $C$DW$106, DW_AT_external
     608              $C$DW$107       .dwtag  DW_TAG_formal_parameter
     609                      .dwattr $C$DW$107, DW_AT_type(*$C$DW$T$47)
     610                      .dwendtag $C$DW$106
     611              
     612              $C$DW$108       .dwtag  DW_TAG_variable, DW_AT_name("RamfuncsRunStart")
     613                      .dwattr $C$DW$108, DW_AT_TI_symbol_name("_RamfuncsRunStart")
     614                      .dwattr $C$DW$108, DW_AT_type(*$C$DW$T$232)
     615                      .dwattr $C$DW$108, DW_AT_declaration
     616                      .dwattr $C$DW$108, DW_AT_external
     617              
     618              $C$DW$109       .dwtag  DW_TAG_subprogram, DW_AT_name("EST_getRs_Ohm")
     619                      .dwattr $C$DW$109, DW_AT_TI_symbol_name("_EST_getRs_Ohm")
     620                      .dwattr $C$DW$109, DW_AT_type(*$C$DW$T$68)
     621                      .dwattr $C$DW$109, DW_AT_declaration
     622                      .dwattr $C$DW$109, DW_AT_external
     623              $C$DW$110       .dwtag  DW_TAG_formal_parameter
     624                      .dwattr $C$DW$110, DW_AT_type(*$C$DW$T$47)
     625                      .dwendtag $C$DW$109
     626              
     627              
     628              $C$DW$111       .dwtag  DW_TAG_subprogram, DW_AT_name("HAL_init")
     629                      .dwattr $C$DW$111, DW_AT_TI_symbol_name("_HAL_init")
     630                      .dwattr $C$DW$111, DW_AT_type(*$C$DW$T$212)
     631                      .dwattr $C$DW$111, DW_AT_declaration
     632                      .dwattr $C$DW$111, DW_AT_external
     633              $C$DW$112       .dwtag  DW_TAG_formal_parameter
     634                      .dwattr $C$DW$112, DW_AT_type(*$C$DW$T$3)
     635              $C$DW$113       .dwtag  DW_TAG_formal_parameter
     636                      .dwattr $C$DW$113, DW_AT_type(*$C$DW$T$197)
     637                      .dwendtag $C$DW$111
     638              
     639              
     640              $C$DW$114       .dwtag  DW_TAG_subprogram, DW_AT_name("CTRL_initCtrl")
     641                      .dwattr $C$DW$114, DW_AT_TI_symbol_name("_CTRL_initCtrl")
     642                      .dwattr $C$DW$114, DW_AT_type(*$C$DW$T$166)
     643                      .dwattr $C$DW$114, DW_AT_declaration
     644                      .dwattr $C$DW$114, DW_AT_external
     645              $C$DW$115       .dwtag  DW_TAG_formal_parameter
     646                      .dwattr $C$DW$115, DW_AT_type(*$C$DW$T$195)
     647              $C$DW$116       .dwtag  DW_TAG_formal_parameter
     648                      .dwattr $C$DW$116, DW_AT_type(*$C$DW$T$3)
     649              $C$DW$117       .dwtag  DW_TAG_formal_parameter
     650                      .dwattr $C$DW$117, DW_AT_type(*$C$DW$T$197)
     651                      .dwendtag $C$DW$114
TMS320C2000 Assembler PC v6.2.5 Sat Jul 08 16:16:11 2017

Tools Copyright (c) 1996-2014 Texas Instruments Incorporated
C:\Users\wmj\AppData\Local\Temp\1433210                              PAGE   14

     652              
     653              
     654              $C$DW$118       .dwtag  DW_TAG_subprogram, DW_AT_name("USER_computeTorque_Nm")
     655                      .dwattr $C$DW$118, DW_AT_TI_symbol_name("_USER_computeTorque_Nm")
     656                      .dwattr $C$DW$118, DW_AT_type(*$C$DW$T$32)
     657                      .dwattr $C$DW$118, DW_AT_declaration
     658                      .dwattr $C$DW$118, DW_AT_external
     659              $C$DW$119       .dwtag  DW_TAG_formal_parameter
     660                      .dwattr $C$DW$119, DW_AT_type(*$C$DW$T$166)
     661              $C$DW$120       .dwtag  DW_TAG_formal_parameter
     662                      .dwattr $C$DW$120, DW_AT_type(*$C$DW$T$238)
     663              $C$DW$121       .dwtag  DW_TAG_formal_parameter
     664                      .dwattr $C$DW$121, DW_AT_type(*$C$DW$T$238)
     665                      .dwendtag $C$DW$118
     666              
     667                      .global _gPwmData
     668 00000012       _gPwmData:      .usect  ".ebss",6,1,1
     669              $C$DW$122       .dwtag  DW_TAG_variable, DW_AT_name("gPwmData")
     670                      .dwattr $C$DW$122, DW_AT_TI_symbol_name("_gPwmData")
     671                      .dwattr $C$DW$122, DW_AT_location[DW_OP_addr _gPwmData]
     672                      .dwattr $C$DW$122, DW_AT_type(*$C$DW$T$216)
     673                      .dwattr $C$DW$122, DW_AT_external
     674                      .global _gAdcData
     675 00000018       _gAdcData:      .usect  ".ebss",22,1,1
     676              $C$DW$123       .dwtag  DW_TAG_variable, DW_AT_name("gAdcData")
     677                      .dwattr $C$DW$123, DW_AT_TI_symbol_name("_gAdcData")
     678                      .dwattr $C$DW$123, DW_AT_location[DW_OP_addr _gAdcData]
     679                      .dwattr $C$DW$123, DW_AT_type(*$C$DW$T$118)
     680                      .dwattr $C$DW$123, DW_AT_external
     681                      .global _gMotorVars
     682 00000040       _gMotorVars:    .usect  ".ebss",128,1,1
     683              $C$DW$124       .dwtag  DW_TAG_variable, DW_AT_name("gMotorVars")
     684                      .dwattr $C$DW$124, DW_AT_TI_symbol_name("_gMotorVars")
     685                      .dwattr $C$DW$124, DW_AT_location[DW_OP_addr _gMotorVars]
     686                      .dwattr $C$DW$124, DW_AT_type(*$C$DW$T$220)
     687                      .dwattr $C$DW$124, DW_AT_external
     688                      .global _gUserParams
     689 000000c0       _gUserParams:   .usect  ".ebss",172,1,1
     690              $C$DW$125       .dwtag  DW_TAG_variable, DW_AT_name("gUserParams")
     691                      .dwattr $C$DW$125, DW_AT_TI_symbol_name("_gUserParams")
     692                      .dwattr $C$DW$125, DW_AT_location[DW_OP_addr _gUserParams]
     693                      .dwattr $C$DW$125, DW_AT_type(*$C$DW$T$171)
     694                      .dwattr $C$DW$125, DW_AT_external
     695              $C$DW$126       .dwtag  DW_TAG_variable, DW_AT_name("hal")
     696                      .dwattr $C$DW$126, DW_AT_TI_symbol_name("_hal")
     697                      .dwattr $C$DW$126, DW_AT_type(*$C$DW$T$209)
     698                      .dwattr $C$DW$126, DW_AT_declaration
     699                      .dwattr $C$DW$126, DW_AT_external
     700                      .global _ctrl
     701 00000180       _ctrl:  .usect  ".ebss",264,1,1
     702              $C$DW$127       .dwtag  DW_TAG_variable, DW_AT_name("ctrl")
     703                      .dwattr $C$DW$127, DW_AT_TI_symbol_name("_ctrl")
     704                      .dwattr $C$DW$127, DW_AT_location[DW_OP_addr _ctrl]
     705                      .dwattr $C$DW$127, DW_AT_type(*$C$DW$T$192)
     706                      .dwattr $C$DW$127, DW_AT_external
TMS320C2000 Assembler PC v6.2.5 Sat Jul 08 16:16:11 2017

Tools Copyright (c) 1996-2014 Texas Instruments Incorporated
C:\Users\wmj\AppData\Local\Temp\1433210                              PAGE   15

     707              ;       c:\ti\ccsv6\tools\compiler\c2000_6.2.5\bin\opt2000.exe C:\\Users\\wmj\\AppData\\Local\\Temp\\143322 C
     708              ;       c:\ti\ccsv6\tools\compiler\c2000_6.2.5\bin\ac2000.exe -@C:\\Users\\wmj\\AppData\\Local\\Temp\\1433216
     709 00000000               .sect   ".text"
     710                      .clink
     711                      .global _updateKpKiGains
     712              
     713              $C$DW$128       .dwtag  DW_TAG_subprogram, DW_AT_name("updateKpKiGains")
     714                      .dwattr $C$DW$128, DW_AT_low_pc(_updateKpKiGains)
     715                      .dwattr $C$DW$128, DW_AT_high_pc(0x00)
     716                      .dwattr $C$DW$128, DW_AT_TI_symbol_name("_updateKpKiGains")
     717                      .dwattr $C$DW$128, DW_AT_external
     718                      .dwattr $C$DW$128, DW_AT_TI_begin_file("D:/Foc/my_motor/sw/solutions/instaspin_foc/src/proj_lab05a.c"
     719                      .dwattr $C$DW$128, DW_AT_TI_begin_line(0x23d)
     720                      .dwattr $C$DW$128, DW_AT_TI_begin_column(0x06)
     721                      .dwattr $C$DW$128, DW_AT_TI_max_frame_size(-2)
     722                      .dwpsn  file "D:/Foc/my_motor/sw/solutions/instaspin_foc/src/proj_lab05a.c",line 574,column 1,is_stmt
     723              
     724                      .dwfde $C$DW$CIE, _updateKpKiGains
     725              $C$DW$129       .dwtag  DW_TAG_formal_parameter, DW_AT_name("handle")
     726                      .dwattr $C$DW$129, DW_AT_TI_symbol_name("_handle")
     727                      .dwattr $C$DW$129, DW_AT_type(*$C$DW$T$166)
     728                      .dwattr $C$DW$129, DW_AT_location[DW_OP_reg12]
     729              
     730              ;***************************************************************
     731              ;* FNAME: _updateKpKiGains              FR SIZE:   0           *
     732              ;*                                                             *
     733              ;* FUNCTION ENVIRONMENT                                        *
     734              ;*                                                             *
     735              ;* FUNCTION PROPERTIES                                         *
     736              ;*                            0 Parameter,  0 Auto,  0 SOE     *
     737              ;***************************************************************
     738              
     739              _updateKpKiGains:
     740              ;* AR4   assigned to _handle
     741              $C$DW$130       .dwtag  DW_TAG_variable, DW_AT_name("handle")
     742                      .dwattr $C$DW$130, DW_AT_TI_symbol_name("_handle")
     743                      .dwattr $C$DW$130, DW_AT_type(*$C$DW$T$194)
     744                      .dwattr $C$DW$130, DW_AT_location[DW_OP_reg12]
     745              ;* AL    assigned to _Ki
     746              $C$DW$131       .dwtag  DW_TAG_variable, DW_AT_name("Ki")
     747                      .dwattr $C$DW$131, DW_AT_TI_symbol_name("_Ki")
     748                      .dwattr $C$DW$131, DW_AT_type(*$C$DW$T$32)
     749                      .dwattr $C$DW$131, DW_AT_location[DW_OP_reg0]
     750              ;* AL    assigned to _Kp
     751              $C$DW$132       .dwtag  DW_TAG_variable, DW_AT_name("Kp")
     752                      .dwattr $C$DW$132, DW_AT_TI_symbol_name("_Kp")
     753                      .dwattr $C$DW$132, DW_AT_type(*$C$DW$T$32)
     754                      .dwattr $C$DW$132, DW_AT_location[DW_OP_reg0]
     755              ;* AL    assigned to _Ki
     756              $C$DW$133       .dwtag  DW_TAG_variable, DW_AT_name("Ki")
     757                      .dwattr $C$DW$133, DW_AT_TI_symbol_name("_Ki")
     758                      .dwattr $C$DW$133, DW_AT_type(*$C$DW$T$32)
     759                      .dwattr $C$DW$133, DW_AT_location[DW_OP_reg0]
     760              ;* AL    assigned to _Kp
     761              $C$DW$134       .dwtag  DW_TAG_variable, DW_AT_name("Kp")
TMS320C2000 Assembler PC v6.2.5 Sat Jul 08 16:16:11 2017

Tools Copyright (c) 1996-2014 Texas Instruments Incorporated
C:\Users\wmj\AppData\Local\Temp\1433210                              PAGE   16

     762                      .dwattr $C$DW$134, DW_AT_TI_symbol_name("_Kp")
     763                      .dwattr $C$DW$134, DW_AT_type(*$C$DW$T$32)
     764                      .dwattr $C$DW$134, DW_AT_location[DW_OP_reg0]
     765                      .dwcfi  cfa_offset, -2
     766                      .dwcfi  save_reg_to_mem, 26, 0
     767                      .dwcfi  save_reg_to_reg, 78, 26
     768 00000000 761F-         MOVW      DP,#_gMotorVars+13    ; [CPU_U] 
         00000001 0001 
     769                      .dwpsn  file "D:/Foc/my_motor/sw/solutions/instaspin_foc/src/proj_lab05a.c",line 575,column 3,is_stmt
     770 00000002 920D-         MOV       AL,@_gMotorVars+13    ; [CPU_] |575| 
     771 00000003 5203          CMPB      AL,#3                 ; [CPU_] |575| 
     772 00000004 ED16          BF        $C$L1,NEQ             ; [CPU_] |575| 
     773                      ; branchcc occurs ; [] |575| 
     774 00000005 9202-         MOV       AL,@_gMotorVars+2     ; [CPU_] |575| 
     775 00000006 5201          CMPB      AL,#1                 ; [CPU_] |575| 
     776 00000007 ED13          BF        $C$L1,NEQ             ; [CPU_] |575| 
     777                      ; branchcc occurs ; [] |575| 
     778 00000008 761F-         MOVW      DP,#_Flag_Latch_softwareUpdate ; [CPU_U] 
         00000009 0000 
     779 0000000a 9201-         MOV       AL,@_Flag_Latch_softwareUpdate ; [CPU_] |575| 
     780 0000000b ED0F          BF        $C$L1,NEQ             ; [CPU_] |575| 
     781                      ; branchcc occurs ; [] |575| 
     782 0000000c 761F-         MOVW      DP,#_gMotorVars+74    ; [CPU_U] 
         0000000d 0002 
     783                      .dwpsn  file "D:/Foc/my_motor/sw/modules/ctrl/src/32b/ctrl.h",line 1509,column 7,is_stmt
     784 0000000e D0CA          MOVB      XAR0,#202             ; [CPU_] |1509| 
     785                      .dwpsn  file "D:/Foc/my_motor/sw/solutions/instaspin_foc/src/proj_lab05a.c",line 578,column 7,is_stmt
     786 0000000f 060A-         MOVL      ACC,@_gMotorVars+74   ; [CPU_] |578| 
     787                      .dwpsn  file "D:/Foc/my_motor/sw/modules/ctrl/src/32b/ctrl.h",line 1509,column 7,is_stmt
     788 00000010 1E94          MOVL      *+XAR4[AR0],ACC       ; [CPU_] |1509| 
     789                      .dwpsn  file "D:/Foc/my_motor/sw/modules/ctrl/src/32b/ctrl.h",line 1484,column 7,is_stmt
     790 00000011 D0D0          MOVB      XAR0,#208             ; [CPU_] |1484| 
     791                      .dwpsn  file "D:/Foc/my_motor/sw/solutions/instaspin_foc/src/proj_lab05a.c",line 579,column 7,is_stmt
     792 00000012 060C-         MOVL      ACC,@_gMotorVars+76   ; [CPU_] |579| 
     793                      .dwpsn  file "D:/Foc/my_motor/sw/modules/ctrl/src/32b/ctrl.h",line 1484,column 7,is_stmt
     794 00000013 1E94          MOVL      *+XAR4[AR0],ACC       ; [CPU_] |1484| 
     795                      .dwpsn  file "D:/Foc/my_motor/sw/modules/ctrl/src/32b/ctrl.h",line 1513,column 7,is_stmt
     796 00000014 D0CC          MOVB      XAR0,#204             ; [CPU_] |1513| 
     797                      .dwpsn  file "D:/Foc/my_motor/sw/solutions/instaspin_foc/src/proj_lab05a.c",line 580,column 7,is_stmt
     798 00000015 060A-         MOVL      ACC,@_gMotorVars+74   ; [CPU_] |580| 
     799                      .dwpsn  file "D:/Foc/my_motor/sw/modules/ctrl/src/32b/ctrl.h",line 1513,column 7,is_stmt
     800 00000016 1E94          MOVL      *+XAR4[AR0],ACC       ; [CPU_] |1513| 
     801                      .dwpsn  file "D:/Foc/my_motor/sw/solutions/instaspin_foc/src/proj_lab05a.c",line 581,column 7,is_stmt
     802 00000017 060C-         MOVL      ACC,@_gMotorVars+76   ; [CPU_] |581| 
     803                      .dwpsn  file "D:/Foc/my_motor/sw/modules/ctrl/src/32b/ctrl.h",line 1488,column 7,is_stmt
     804 00000018 D0D2          MOVB      XAR0,#210             ; [CPU_] |1488| 
     805 00000019 1E94          MOVL      *+XAR4[AR0],ACC       ; [CPU_] |1488| 
     806              $C$L1:    
     807              $C$DW$135       .dwtag  DW_TAG_TI_branch
     808                      .dwattr $C$DW$135, DW_AT_low_pc(0x00)
     809                      .dwattr $C$DW$135, DW_AT_TI_return
     810 0000001a 0006          LRETR     ; [CPU_] 
     811                      ; return occurs ; [] 
     812                      .dwattr $C$DW$128, DW_AT_TI_end_file("D:/Foc/my_motor/sw/solutions/instaspin_foc/src/proj_lab05a.c")
     813                      .dwattr $C$DW$128, DW_AT_TI_end_line(0x249)
TMS320C2000 Assembler PC v6.2.5 Sat Jul 08 16:16:11 2017

Tools Copyright (c) 1996-2014 Texas Instruments Incorporated
C:\Users\wmj\AppData\Local\Temp\1433210                              PAGE   17

     814                      .dwattr $C$DW$128, DW_AT_TI_end_column(0x01)
     815                      .dwendentry
     816                      .dwendtag $C$DW$128
     817              
     818 0000001b               .sect   ".text"
     819                      .clink
     820                      .global _updateIqRef
     821              
     822              $C$DW$136       .dwtag  DW_TAG_subprogram, DW_AT_name("updateIqRef")
     823                      .dwattr $C$DW$136, DW_AT_low_pc(_updateIqRef)
     824                      .dwattr $C$DW$136, DW_AT_high_pc(0x00)
     825                      .dwattr $C$DW$136, DW_AT_TI_symbol_name("_updateIqRef")
     826                      .dwattr $C$DW$136, DW_AT_external
     827                      .dwattr $C$DW$136, DW_AT_TI_begin_file("D:/Foc/my_motor/sw/solutions/instaspin_foc/src/proj_lab05a.c"
     828                      .dwattr $C$DW$136, DW_AT_TI_begin_line(0x225)
     829                      .dwattr $C$DW$136, DW_AT_TI_begin_column(0x06)
     830                      .dwattr $C$DW$136, DW_AT_TI_max_frame_size(-6)
     831                      .dwpsn  file "D:/Foc/my_motor/sw/solutions/instaspin_foc/src/proj_lab05a.c",line 550,column 1,is_stmt
     832              
     833                      .dwfde $C$DW$CIE, _updateIqRef
     834              $C$DW$137       .dwtag  DW_TAG_formal_parameter, DW_AT_name("handle")
     835                      .dwattr $C$DW$137, DW_AT_TI_symbol_name("_handle")
     836                      .dwattr $C$DW$137, DW_AT_type(*$C$DW$T$166)
     837                      .dwattr $C$DW$137, DW_AT_location[DW_OP_reg12]
     838              
     839              ;***************************************************************
     840              ;* FNAME: _updateIqRef                  FR SIZE:   4           *
     841              ;*                                                             *
     842              ;* FUNCTION ENVIRONMENT                                        *
     843              ;*                                                             *
     844              ;* FUNCTION PROPERTIES                                         *
     845              ;*                            0 Parameter,  0 Auto,  4 SOE     *
     846              ;***************************************************************
     847              
     848              _updateIqRef:
     849              ;* AR1   assigned to _iq_ref
     850              $C$DW$138       .dwtag  DW_TAG_variable, DW_AT_name("iq_ref")
     851                      .dwattr $C$DW$138, DW_AT_TI_symbol_name("_iq_ref")
     852                      .dwattr $C$DW$138, DW_AT_type(*$C$DW$T$32)
     853                      .dwattr $C$DW$138, DW_AT_location[DW_OP_reg6]
     854              ;* AR2   assigned to _handle
     855              $C$DW$139       .dwtag  DW_TAG_variable, DW_AT_name("handle")
     856                      .dwattr $C$DW$139, DW_AT_TI_symbol_name("_handle")
     857                      .dwattr $C$DW$139, DW_AT_type(*$C$DW$T$194)
     858                      .dwattr $C$DW$139, DW_AT_location[DW_OP_reg8]
     859                      .dwcfi  cfa_offset, -2
     860                      .dwcfi  save_reg_to_mem, 26, 0
     861                      .dwcfi  save_reg_to_reg, 78, 26
     862 0000001b 761F-         MOVW      DP,#_gMotorVars+22    ; [CPU_U] 
         0000001c 0001 
     863 0000001d B2BD          MOVL      *SP++,XAR1            ; [CPU_] 
     864                      .dwcfi  save_reg_to_mem, 7, 2
     865                      .dwcfi  cfa_offset, -4
     866                      .dwpsn  file "D:/Foc/my_motor/sw/solutions/instaspin_foc/src/proj_lab05a.c",line 551,column 14,is_stm
     867 0000001e 8716-         MOVL      XT,@_gMotorVars+22    ; [CPU_] |551| 
TMS320C2000 Assembler PC v6.2.5 Sat Jul 08 16:16:11 2017

Tools Copyright (c) 1996-2014 Texas Instruments Incorporated
C:\Users\wmj\AppData\Local\Temp\1433210                              PAGE   18

     868 0000001f AABD          MOVL      *SP++,XAR2            ; [CPU_] 
     869                      .dwcfi  save_reg_to_mem, 9, 4
     870                      .dwcfi  cfa_offset, -6
     871                      .dwpsn  file "D:/Foc/my_motor/sw/solutions/instaspin_foc/src/proj_lab05a.c",line 550,column 1,is_stmt
     872 00000020 86A4          MOVL      XAR2,XAR4             ; [CPU_] |550| 
     873                      .dwpsn  file "D:/Foc/my_motor/sw/solutions/instaspin_foc/src/proj_lab05a.c",line 551,column 14,is_stm
     874 00000021 8F19          MOVL      XAR4,#1677721         ; [CPU_U] |551| 
         00000022 9999 
     875 00000023 5605          IMPYL     P,XT,XAR4             ; [CPU_] |551| 
         00000024 00A4 
     876 00000025 5663          QMPYL     ACC,XT,XAR4           ; [CPU_] |551| 
         00000026 00A4 
     877                      .dwpsn  file "D:/Foc/my_motor/sw/solutions/instaspin_foc/src/proj_lab05a.c",line 554,column 3,is_stmt
     878 00000027 8F02          MOVL      XAR4,#167772          ; [CPU_U] |554| 
         00000028 8F5C 
     879                      .dwpsn  file "D:/Foc/my_motor/sw/solutions/instaspin_foc/src/proj_lab05a.c",line 551,column 14,is_stm
     880 00000029 56A7          LSL64     ACC:P,#8              ; [CPU_] |551| 
     881 0000002a 8BA9          MOVL      XAR1,ACC              ; [CPU_] |551| 
     882                      .dwpsn  file "D:/Foc/my_motor/sw/solutions/instaspin_foc/src/proj_lab05a.c",line 554,column 3,is_stmt
     883 0000002b 0620-         MOVL      ACC,@_gMotorVars+32   ; [CPU_] |554| 
     884 0000002c FF56          ABS       ACC                   ; [CPU_] |554| 
     885 0000002d 0FA4          CMPL      ACC,XAR4              ; [CPU_] |554| 
     886 0000002e 6310          B         $C$L4,GEQ             ; [CPU_] |554| 
     887                      ; branchcc occurs ; [] |554| 
     888 0000002f B2A9          MOVL      ACC,XAR1              ; [CPU_] 
     889                      .dwpsn  file "D:/Foc/my_motor/sw/solutions/instaspin_foc/src/proj_lab05a.c",line 556,column 7,is_stmt
     890 00000030 6407          B         $C$L2,LT              ; [CPU_] |556| 
     891                      ; branchcc occurs ; [] |556| 
     892                      .dwpsn  file "D:/Foc/my_motor/sw/solutions/instaspin_foc/src/proj_lab05a.c",line 560,column 12,is_stm
     893 00000031 FF58          TEST      ACC                   ; [CPU_] |560| 
     894 00000032 650C          B         $C$L4,LEQ             ; [CPU_] |560| 
     895                      ; branchcc occurs ; [] |560| 
     896                      .dwpsn  file "D:/Foc/my_motor/sw/solutions/instaspin_foc/src/proj_lab05a.c",line 562,column 11,is_stm
     897 00000033 8F42          MOVL      XAR5,#167772          ; [CPU_U] |562| 
         00000034 8F5C 
     898 00000035 A0A9          MOVL      ACC,XAR5              ; [CPU_] |562| 
     899 00000036 6F05          B         $C$L3,UNC             ; [CPU_] |562| 
     900                      ; branch occurs ; [] |562| 
     901 00000037       $C$L2:    
     902                      .dwpsn  file "D:/Foc/my_motor/sw/solutions/instaspin_foc/src/proj_lab05a.c",line 558,column 11,is_stm
     903 00000037 28A9          MOV       AL,#28836             ; [CPU_] |558| 
         00000038 70A4 
     904 00000039 28A8          MOV       AH,#65533             ; [CPU_] |558| 
         0000003a FFFD 
     905 0000003b       $C$L3:    
     906 0000003b 8AA2          MOVL      XAR4,XAR2             ; [CPU_] |558| 
     907              $C$DW$140       .dwtag  DW_TAG_TI_branch
     908                      .dwattr $C$DW$140, DW_AT_low_pc(0x00)
     909                      .dwattr $C$DW$140, DW_AT_name("_CTRL_setSpd_ref_krpm")
     910                      .dwattr $C$DW$140, DW_AT_TI_call
     911 0000003c 7640!         LCR       #_CTRL_setSpd_ref_krpm ; [CPU_] |558| 
         0000003d 0000 
     912                      ; call occurs [#_CTRL_setSpd_ref_krpm] ; [] |558| 
     913 0000003e       $C$L4:    
     914                      .dwpsn  file "D:/Foc/my_motor/sw/modules/ctrl/src/32b/ctrl.h",line 1439,column 3,is_stmt
TMS320C2000 Assembler PC v6.2.5 Sat Jul 08 16:16:11 2017

Tools Copyright (c) 1996-2014 Texas Instruments Incorporated
C:\Users\wmj\AppData\Local\Temp\1433210                              PAGE   19

     915 0000003e D0E4          MOVB      XAR0,#228             ; [CPU_] |1439| 
     916 0000003f B292          MOVL      *+XAR2[AR0],XAR1      ; [CPU_] |1439| 
     917 00000040 86BE          MOVL      XAR2,*--SP            ; [CPU_] 
     918                      .dwcfi  cfa_offset, -4
     919                      .dwcfi  restore_reg, 9
     920 00000041 8BBE          MOVL      XAR1,*--SP            ; [CPU_] 
     921                      .dwcfi  cfa_offset, -2
     922                      .dwcfi  restore_reg, 7
     923              $C$DW$141       .dwtag  DW_TAG_TI_branch
     924                      .dwattr $C$DW$141, DW_AT_low_pc(0x00)
     925                      .dwattr $C$DW$141, DW_AT_TI_return
     926 00000042 0006          LRETR     ; [CPU_] 
     927                      ; return occurs ; [] 
     928                      .dwattr $C$DW$136, DW_AT_TI_end_file("D:/Foc/my_motor/sw/solutions/instaspin_foc/src/proj_lab05a.c")
     929                      .dwattr $C$DW$136, DW_AT_TI_end_line(0x23a)
     930                      .dwattr $C$DW$136, DW_AT_TI_end_column(0x01)
     931                      .dwendentry
     932                      .dwendtag $C$DW$136
     933              
     934 00000043               .sect   ".text"
     935                      .clink
     936                      .global _updateGlobalVariables_motor
     937              
     938              $C$DW$142       .dwtag  DW_TAG_subprogram, DW_AT_name("updateGlobalVariables_motor")
     939                      .dwattr $C$DW$142, DW_AT_low_pc(_updateGlobalVariables_motor)
     940                      .dwattr $C$DW$142, DW_AT_high_pc(0x00)
     941                      .dwattr $C$DW$142, DW_AT_TI_symbol_name("_updateGlobalVariables_motor")
     942                      .dwattr $C$DW$142, DW_AT_external
     943                      .dwattr $C$DW$142, DW_AT_TI_begin_file("D:/Foc/my_motor/sw/solutions/instaspin_foc/src/proj_lab05a.c"
     944                      .dwattr $C$DW$142, DW_AT_TI_begin_line(0x1e8)
     945                      .dwattr $C$DW$142, DW_AT_TI_begin_column(0x06)
     946                      .dwattr $C$DW$142, DW_AT_TI_max_frame_size(-8)
     947                      .dwpsn  file "D:/Foc/my_motor/sw/solutions/instaspin_foc/src/proj_lab05a.c",line 489,column 1,is_stmt
     948              
     949                      .dwfde $C$DW$CIE, _updateGlobalVariables_motor
     950              $C$DW$143       .dwtag  DW_TAG_formal_parameter, DW_AT_name("handle")
     951                      .dwattr $C$DW$143, DW_AT_TI_symbol_name("_handle")
     952                      .dwattr $C$DW$143, DW_AT_type(*$C$DW$T$166)
     953                      .dwattr $C$DW$143, DW_AT_location[DW_OP_reg12]
     954              
     955              ;***************************************************************
     956              ;* FNAME: _updateGlobalVariables_motor  FR SIZE:   6           *
     957              ;*                                                             *
     958              ;* FUNCTION ENVIRONMENT                                        *
     959              ;*                                                             *
     960              ;* FUNCTION PROPERTIES                                         *
     961              ;*                            2 Parameter,  0 Auto,  4 SOE     *
     962              ;***************************************************************
     963              
     964              _updateGlobalVariables_motor:
     965              ;* AR4   assigned to $O$C7
     966              ;* AR4   assigned to $O$C8
     967              ;* XT    assigned to $O$R1
     968              ;* XT    assigned to $O$R2
     969              ;* AL    assigned to $O$R3
TMS320C2000 Assembler PC v6.2.5 Sat Jul 08 16:16:11 2017

Tools Copyright (c) 1996-2014 Texas Instruments Incorporated
C:\Users\wmj\AppData\Local\Temp\1433210                              PAGE   20

     970              ;* AL    assigned to $O$R4
     971              ;* XT    assigned to $O$R6
     972              ;* AR2   assigned to _handle
     973              $C$DW$144       .dwtag  DW_TAG_variable, DW_AT_name("handle")
     974                      .dwattr $C$DW$144, DW_AT_TI_symbol_name("_handle")
     975                      .dwattr $C$DW$144, DW_AT_type(*$C$DW$T$194)
     976                      .dwattr $C$DW$144, DW_AT_location[DW_OP_reg8]
     977                      .dwcfi  cfa_offset, -2
     978                      .dwcfi  save_reg_to_mem, 26, 0
     979                      .dwcfi  save_reg_to_reg, 78, 26
     980 00000043 B2BD          MOVL      *SP++,XAR1            ; [CPU_] 
     981                      .dwcfi  save_reg_to_mem, 7, 2
     982                      .dwcfi  cfa_offset, -4
     983 00000044 AABD          MOVL      *SP++,XAR2            ; [CPU_] 
     984                      .dwcfi  save_reg_to_mem, 9, 4
     985                      .dwcfi  cfa_offset, -6
     986 00000045 FE02          ADDB      SP,#2                 ; [CPU_U] 
     987                      .dwcfi  cfa_offset, -8
     988                      .dwpsn  file "D:/Foc/my_motor/sw/solutions/instaspin_foc/src/proj_lab05a.c",line 493,column 3,is_stmt
     989 00000046 D018          MOVB      XAR0,#24              ; [CPU_] |493| 
     990                      .dwpsn  file "D:/Foc/my_motor/sw/solutions/instaspin_foc/src/proj_lab05a.c",line 489,column 1,is_stmt
     991 00000047 86A4          MOVL      XAR2,XAR4             ; [CPU_] |489| 
     992                      .dwpsn  file "D:/Foc/my_motor/sw/solutions/instaspin_foc/src/proj_lab05a.c",line 493,column 3,is_stmt
     993 00000048 8A92          MOVL      XAR4,*+XAR2[AR0]      ; [CPU_] |493| 
     994              $C$DW$145       .dwtag  DW_TAG_TI_branch
     995                      .dwattr $C$DW$145, DW_AT_low_pc(0x00)
     996                      .dwattr $C$DW$145, DW_AT_name("_EST_getSpeed_krpm")
     997                      .dwattr $C$DW$145, DW_AT_TI_call
     998 00000049 7640!         LCR       #_EST_getSpeed_krpm   ; [CPU_] |493| 
         0000004a 0000 
     999                      ; call occurs [#_EST_getSpeed_krpm] ; [] |493| 
    1000 0000004b 761F-         MOVW      DP,#_gMotorVars+32    ; [CPU_U] 
         0000004c 0001 
    1001                      .dwpsn  file "D:/Foc/my_motor/sw/modules/traj/src/32b/traj.h",line 96,column 3,is_stmt
    1002 0000004d D06C          MOVB      XAR0,#108             ; [CPU_] |96| 
    1003                      .dwpsn  file "D:/Foc/my_motor/sw/solutions/instaspin_foc/src/proj_lab05a.c",line 493,column 3,is_stmt
    1004 0000004e 1E20-         MOVL      @_gMotorVars+32,ACC   ; [CPU_] |493| 
    1005                      .dwpsn  file "D:/Foc/my_motor/sw/modules/traj/src/32b/traj.h",line 96,column 3,is_stmt
    1006 0000004f 8A92          MOVL      XAR4,*+XAR2[AR0]      ; [CPU_] |96| 
    1007                      .dwpsn  file "D:/Foc/my_motor/sw/solutions/instaspin_foc/src/proj_lab05a.c",line 496,column 3,is_stmt
    1008 00000050 D018          MOVB      XAR0,#24              ; [CPU_] |496| 
    1009                      .dwpsn  file "D:/Foc/my_motor/sw/modules/traj/src/32b/traj.h",line 96,column 3,is_stmt
    1010 00000051 8BD4          MOVL      XAR1,*+XAR4[2]        ; [CPU_] |96| 
    1011                      .dwpsn  file "D:/Foc/my_motor/sw/solutions/instaspin_foc/src/proj_lab05a.c",line 496,column 3,is_stmt
    1012 00000052 8A92          MOVL      XAR4,*+XAR2[AR0]      ; [CPU_] |496| 
    1013              $C$DW$146       .dwtag  DW_TAG_TI_branch
    1014                      .dwattr $C$DW$146, DW_AT_low_pc(0x00)
    1015                      .dwattr $C$DW$146, DW_AT_name("_EST_get_pu_to_krpm_sf")
    1016                      .dwattr $C$DW$146, DW_AT_TI_call
    1017 00000053 7640!         LCR       #_EST_get_pu_to_krpm_sf ; [CPU_] |496| 
         00000054 0000 
    1018                      ; call occurs [#_EST_get_pu_to_krpm_sf] ; [] |496| 
    1019 00000055 761F-         MOVW      DP,#_gMotorVars+28    ; [CPU_U] 
         00000056 0001 
    1020 00000057 B2AC          MOVL      XT,XAR1               ; [CPU_] |496| 
TMS320C2000 Assembler PC v6.2.5 Sat Jul 08 16:16:11 2017

Tools Copyright (c) 1996-2014 Texas Instruments Incorporated
C:\Users\wmj\AppData\Local\Temp\1433210                              PAGE   21

    1021                      .dwpsn  file "D:/Foc/my_motor/sw/solutions/instaspin_foc/src/proj_lab05a.c",line 499,column 3,is_stmt
    1022 00000058 8AA2          MOVL      XAR4,XAR2             ; [CPU_] |499| 
    1023                      .dwpsn  file "D:/Foc/my_motor/sw/solutions/instaspin_foc/src/proj_lab05a.c",line 496,column 3,is_stmt
    1024 00000059 5605          IMPYL     P,XT,ACC              ; [CPU_] |496| 
         0000005a 00A9 
    1025 0000005b 5663          QMPYL     ACC,XT,ACC            ; [CPU_] |496| 
         0000005c 00A9 
    1026 0000005d 56A7          LSL64     ACC:P,#8              ; [CPU_] |496| 
    1027 0000005e 1E1C-         MOVL      @_gMotorVars+28,ACC   ; [CPU_] |496| 
    1028 0000005f 761F-         MOVW      DP,#_gTorque_Ls_Id_Iq_pu_to_Nm_sf ; [CPU_U] 
         00000060 0000 
    1029                      .dwpsn  file "D:/Foc/my_motor/sw/solutions/instaspin_foc/src/proj_lab05a.c",line 499,column 3,is_stmt
    1030 00000061 060E-         MOVL      ACC,@_gTorque_Ls_Id_Iq_pu_to_Nm_sf ; [CPU_] |499| 
    1031 00000062 1E42          MOVL      *-SP[2],ACC           ; [CPU_] |499| 
    1032 00000063 0604-         MOVL      ACC,@_gTorque_Flux_Iq_pu_to_Nm_sf ; [CPU_] |499| 
    1033              $C$DW$147       .dwtag  DW_TAG_TI_branch
    1034                      .dwattr $C$DW$147, DW_AT_low_pc(0x00)
    1035                      .dwattr $C$DW$147, DW_AT_name("_USER_computeTorque_Nm")
    1036                      .dwattr $C$DW$147, DW_AT_TI_call
    1037 00000064 7640!         LCR       #_USER_computeTorque_Nm ; [CPU_] |499| 
         00000065 0000 
    1038                      ; call occurs [#_USER_computeTorque_Nm] ; [] |499| 
    1039 00000066 761F-         MOVW      DP,#_gMotorVars+42    ; [CPU_U] 
         00000067 0001 
    1040                      .dwpsn  file "D:/Foc/my_motor/sw/solutions/instaspin_foc/src/proj_lab05a.c",line 502,column 3,is_stmt
    1041 00000068 D018          MOVB      XAR0,#24              ; [CPU_] |502| 
    1042                      .dwpsn  file "D:/Foc/my_motor/sw/solutions/instaspin_foc/src/proj_lab05a.c",line 499,column 3,is_stmt
    1043 00000069 1E2A-         MOVL      @_gMotorVars+42,ACC   ; [CPU_] |499| 
    1044                      .dwpsn  file "D:/Foc/my_motor/sw/solutions/instaspin_foc/src/proj_lab05a.c",line 502,column 3,is_stmt
    1045 0000006a 8A92          MOVL      XAR4,*+XAR2[AR0]      ; [CPU_] |502| 
    1046              $C$DW$148       .dwtag  DW_TAG_TI_branch
    1047                      .dwattr $C$DW$148, DW_AT_low_pc(0x00)
    1048                      .dwattr $C$DW$148, DW_AT_name("_EST_getIdRated")
    1049                      .dwattr $C$DW$148, DW_AT_TI_call
    1050 0000006b 7640!         LCR       #_EST_getIdRated      ; [CPU_] |502| 
         0000006c 0000 
    1051                      ; call occurs [#_EST_getIdRated] ; [] |502| 
    1052 0000006d 761F-         MOVW      DP,#_gMotorVars+44    ; [CPU_U] 
         0000006e 0001 
    1053                      .dwpsn  file "D:/Foc/my_motor/sw/solutions/instaspin_foc/src/proj_lab05a.c",line 505,column 3,is_stmt
    1054 0000006f D018          MOVB      XAR0,#24              ; [CPU_] |505| 
    1055                      .dwpsn  file "D:/Foc/my_motor/sw/solutions/instaspin_foc/src/proj_lab05a.c",line 502,column 3,is_stmt
    1056 00000070 1E2C-         MOVL      @_gMotorVars+44,ACC   ; [CPU_] |502| 
    1057                      .dwpsn  file "D:/Foc/my_motor/sw/solutions/instaspin_foc/src/proj_lab05a.c",line 505,column 3,is_stmt
    1058 00000071 8A92          MOVL      XAR4,*+XAR2[AR0]      ; [CPU_] |505| 
    1059              $C$DW$149       .dwtag  DW_TAG_TI_branch
    1060                      .dwattr $C$DW$149, DW_AT_low_pc(0x00)
    1061                      .dwattr $C$DW$149, DW_AT_name("_EST_getRr_Ohm")
    1062                      .dwattr $C$DW$149, DW_AT_TI_call
    1063 00000072 7640!         LCR       #_EST_getRr_Ohm       ; [CPU_] |505| 
         00000073 0000 
    1064                      ; call occurs [#_EST_getRr_Ohm] ; [] |505| 
    1065 00000074 761F-         MOVW      DP,#_gMotorVars+46    ; [CPU_U] 
         00000075 0001 
    1066                      .dwpsn  file "D:/Foc/my_motor/sw/solutions/instaspin_foc/src/proj_lab05a.c",line 508,column 3,is_stmt
TMS320C2000 Assembler PC v6.2.5 Sat Jul 08 16:16:11 2017

Tools Copyright (c) 1996-2014 Texas Instruments Incorporated
C:\Users\wmj\AppData\Local\Temp\1433210                              PAGE   22

    1067 00000076 D018          MOVB      XAR0,#24              ; [CPU_] |508| 
    1068                      .dwpsn  file "D:/Foc/my_motor/sw/solutions/instaspin_foc/src/proj_lab05a.c",line 505,column 3,is_stmt
    1069 00000077 1E2E-         MOVL      @_gMotorVars+46,ACC   ; [CPU_] |505| 
    1070                      .dwpsn  file "D:/Foc/my_motor/sw/solutions/instaspin_foc/src/proj_lab05a.c",line 508,column 3,is_stmt
    1071 00000078 8A92          MOVL      XAR4,*+XAR2[AR0]      ; [CPU_] |508| 
    1072              $C$DW$150       .dwtag  DW_TAG_TI_branch
    1073                      .dwattr $C$DW$150, DW_AT_low_pc(0x00)
    1074                      .dwattr $C$DW$150, DW_AT_name("_EST_getRs_Ohm")
    1075                      .dwattr $C$DW$150, DW_AT_TI_call
    1076 00000079 7640!         LCR       #_EST_getRs_Ohm       ; [CPU_] |508| 
         0000007a 0000 
    1077                      ; call occurs [#_EST_getRs_Ohm] ; [] |508| 
    1078 0000007b 761F-         MOVW      DP,#_gMotorVars+48    ; [CPU_U] 
         0000007c 0001 
    1079                      .dwpsn  file "D:/Foc/my_motor/sw/solutions/instaspin_foc/src/proj_lab05a.c",line 511,column 3,is_stmt
    1080 0000007d D018          MOVB      XAR0,#24              ; [CPU_] |511| 
    1081                      .dwpsn  file "D:/Foc/my_motor/sw/solutions/instaspin_foc/src/proj_lab05a.c",line 508,column 3,is_stmt
    1082 0000007e 1E30-         MOVL      @_gMotorVars+48,ACC   ; [CPU_] |508| 
    1083                      .dwpsn  file "D:/Foc/my_motor/sw/solutions/instaspin_foc/src/proj_lab05a.c",line 511,column 3,is_stmt
    1084 0000007f 8A92          MOVL      XAR4,*+XAR2[AR0]      ; [CPU_] |511| 
    1085              $C$DW$151       .dwtag  DW_TAG_TI_branch
    1086                      .dwattr $C$DW$151, DW_AT_low_pc(0x00)
    1087                      .dwattr $C$DW$151, DW_AT_name("_EST_getLs_d_H")
    1088                      .dwattr $C$DW$151, DW_AT_TI_call
    1089 00000080 7640!         LCR       #_EST_getLs_d_H       ; [CPU_] |511| 
         00000081 0000 
    1090                      ; call occurs [#_EST_getLs_d_H] ; [] |511| 
    1091 00000082 761F-         MOVW      DP,#_gMotorVars+52    ; [CPU_U] 
         00000083 0001 
    1092                      .dwpsn  file "D:/Foc/my_motor/sw/solutions/instaspin_foc/src/proj_lab05a.c",line 514,column 3,is_stmt
    1093 00000084 D018          MOVB      XAR0,#24              ; [CPU_] |514| 
    1094                      .dwpsn  file "D:/Foc/my_motor/sw/solutions/instaspin_foc/src/proj_lab05a.c",line 511,column 3,is_stmt
    1095 00000085 1E34-         MOVL      @_gMotorVars+52,ACC   ; [CPU_] |511| 
    1096                      .dwpsn  file "D:/Foc/my_motor/sw/solutions/instaspin_foc/src/proj_lab05a.c",line 514,column 3,is_stmt
    1097 00000086 8A92          MOVL      XAR4,*+XAR2[AR0]      ; [CPU_] |514| 
    1098              $C$DW$152       .dwtag  DW_TAG_TI_branch
    1099                      .dwattr $C$DW$152, DW_AT_low_pc(0x00)
    1100                      .dwattr $C$DW$152, DW_AT_name("_EST_getLs_q_H")
    1101                      .dwattr $C$DW$152, DW_AT_TI_call
    1102 00000087 7640!         LCR       #_EST_getLs_q_H       ; [CPU_] |514| 
         00000088 0000 
    1103                      ; call occurs [#_EST_getLs_q_H] ; [] |514| 
    1104 00000089 761F-         MOVW      DP,#_gMotorVars+54    ; [CPU_U] 
         0000008a 0001 
    1105                      .dwpsn  file "D:/Foc/my_motor/sw/solutions/instaspin_foc/src/proj_lab05a.c",line 517,column 3,is_stmt
    1106 0000008b D018          MOVB      XAR0,#24              ; [CPU_] |517| 
    1107                      .dwpsn  file "D:/Foc/my_motor/sw/solutions/instaspin_foc/src/proj_lab05a.c",line 514,column 3,is_stmt
    1108 0000008c 1E36-         MOVL      @_gMotorVars+54,ACC   ; [CPU_] |514| 
    1109                      .dwpsn  file "D:/Foc/my_motor/sw/solutions/instaspin_foc/src/proj_lab05a.c",line 517,column 3,is_stmt
    1110 0000008d 8A92          MOVL      XAR4,*+XAR2[AR0]      ; [CPU_] |517| 
    1111              $C$DW$153       .dwtag  DW_TAG_TI_branch
    1112                      .dwattr $C$DW$153, DW_AT_low_pc(0x00)
    1113                      .dwattr $C$DW$153, DW_AT_name("_EST_getFlux_VpHz")
    1114                      .dwattr $C$DW$153, DW_AT_TI_call
    1115 0000008e 7640!         LCR       #_EST_getFlux_VpHz    ; [CPU_] |517| 
TMS320C2000 Assembler PC v6.2.5 Sat Jul 08 16:16:11 2017

Tools Copyright (c) 1996-2014 Texas Instruments Incorporated
C:\Users\wmj\AppData\Local\Temp\1433210                              PAGE   23

         0000008f 0000 
    1116                      ; call occurs [#_EST_getFlux_VpHz] ; [] |517| 
    1117 00000090 761F-         MOVW      DP,#_gMotorVars+56    ; [CPU_U] 
         00000091 0001 
    1118                      .dwpsn  file "D:/Foc/my_motor/sw/solutions/instaspin_foc/src/proj_lab05a.c",line 520,column 3,is_stmt
    1119 00000092 8AA2          MOVL      XAR4,XAR2             ; [CPU_] |520| 
    1120                      .dwpsn  file "D:/Foc/my_motor/sw/solutions/instaspin_foc/src/proj_lab05a.c",line 517,column 3,is_stmt
    1121 00000093 1E38-         MOVL      @_gMotorVars+56,ACC   ; [CPU_] |517| 
    1122 00000094 761F-         MOVW      DP,#_gFlux_pu_to_Wb_sf ; [CPU_U] 
         00000095 0000 
    1123                      .dwpsn  file "D:/Foc/my_motor/sw/solutions/instaspin_foc/src/proj_lab05a.c",line 520,column 3,is_stmt
    1124 00000096 0610-         MOVL      ACC,@_gFlux_pu_to_Wb_sf ; [CPU_] |520| 
    1125              $C$DW$154       .dwtag  DW_TAG_TI_branch
    1126                      .dwattr $C$DW$154, DW_AT_low_pc(0x00)
    1127                      .dwattr $C$DW$154, DW_AT_name("_USER_computeFlux")
    1128                      .dwattr $C$DW$154, DW_AT_TI_call
    1129 00000097 7640!         LCR       #_USER_computeFlux    ; [CPU_] |520| 
         00000098 0000 
    1130                      ; call occurs [#_USER_computeFlux] ; [] |520| 
    1131 00000099 761F-         MOVW      DP,#_gMotorVars+40    ; [CPU_U] 
         0000009a 0001 
    1132                      .dwpsn  file "D:/Foc/my_motor/sw/solutions/instaspin_foc/src/proj_lab05a.c",line 526,column 3,is_stmt
    1133 0000009b D018          MOVB      XAR0,#24              ; [CPU_] |526| 
    1134                      .dwpsn  file "D:/Foc/my_motor/sw/solutions/instaspin_foc/src/proj_lab05a.c",line 520,column 3,is_stmt
    1135 0000009c 1E28-         MOVL      @_gMotorVars+40,ACC   ; [CPU_] |520| 
    1136                      .dwpsn  file "D:/Foc/my_motor/sw/solutions/instaspin_foc/src/proj_lab05a.c",line 523,column 3,is_stmt
    1137 0000009d 92E2          MOV       AL,*+XAR2[4]          ; [CPU_] |523| 
    1138 0000009e 960D-         MOV       @_gMotorVars+13,AL    ; [CPU_] |523| 
    1139                      .dwpsn  file "D:/Foc/my_motor/sw/solutions/instaspin_foc/src/proj_lab05a.c",line 526,column 3,is_stmt
    1140 0000009f 8A92          MOVL      XAR4,*+XAR2[AR0]      ; [CPU_] |526| 
    1141              $C$DW$155       .dwtag  DW_TAG_TI_branch
    1142                      .dwattr $C$DW$155, DW_AT_low_pc(0x00)
    1143                      .dwattr $C$DW$155, DW_AT_name("_EST_getState")
    1144                      .dwattr $C$DW$155, DW_AT_TI_call
    1145 000000a0 7640!         LCR       #_EST_getState        ; [CPU_] |526| 
         000000a1 0000 
    1146                      ; call occurs [#_EST_getState] ; [] |526| 
    1147 000000a2 761F-         MOVW      DP,#_gMotorVars+14    ; [CPU_U] 
         000000a3 0001 
    1148 000000a4 960E-         MOV       @_gMotorVars+14,AL    ; [CPU_] |526| 
    1149                      .dwpsn  file "D:/Foc/my_motor/sw/modules/ctrl/src/32b/ctrl.h",line 880,column 3,is_stmt
    1150 000000a5 BEC0          MOVB      XAR6,#192             ; [CPU_] |880| 
    1151 000000a6 761F-         MOVW      DP,#_ctrlHandle       ; [CPU_U] 
         000000a7 0000 
    1152 000000a8 0608-         MOVL      ACC,@_ctrlHandle      ; [CPU_] |880| 
    1153 000000a9 761F-         MOVW      DP,#_gMotorVars+78    ; [CPU_U] 
         000000aa 0002 
    1154 000000ab 0DA6          ADDU      ACC,AR6               ; [CPU_] |880| 
    1155 000000ac 8AA9          MOVL      XAR4,ACC              ; [CPU_] |880| 
    1156 000000ad 06C4          MOVL      ACC,*+XAR4[0]         ; [CPU_] |880| 
    1157                      .dwpsn  file "D:/Foc/my_motor/sw/solutions/instaspin_foc/src/proj_lab05a.c",line 529,column 3,is_stmt
    1158 000000ae 1E0E-         MOVL      @_gMotorVars+78,ACC   ; [CPU_] |529| 
    1159                      .dwpsn  file "D:/Foc/my_motor/sw/modules/ctrl/src/32b/ctrl.h",line 925,column 3,is_stmt
    1160 000000af 06D4          MOVL      ACC,*+XAR4[2]         ; [CPU_] |925| 
    1161                      .dwpsn  file "D:/Foc/my_motor/sw/solutions/instaspin_foc/src/proj_lab05a.c",line 530,column 3,is_stmt
TMS320C2000 Assembler PC v6.2.5 Sat Jul 08 16:16:11 2017

Tools Copyright (c) 1996-2014 Texas Instruments Incorporated
C:\Users\wmj\AppData\Local\Temp\1433210                              PAGE   24

    1162 000000b0 1E10-         MOVL      @_gMotorVars+80,ACC   ; [CPU_] |530| 
    1163                      .dwpsn  file "D:/Foc/my_motor/sw/solutions/instaspin_foc/src/proj_lab05a.c",line 533,column 3,is_stmt
    1164 000000b1 870E-         MOVL      XT,@_gMotorVars+78    ; [CPU_] |533| 
    1165 000000b2 5605-         IMPYL     P,XT,@_gMotorVars+78  ; [CPU_] |533| 
         000000b3 000E 
    1166 000000b4 5663-         QMPYL     ACC,XT,@_gMotorVars+78 ; [CPU_] |533| 
         000000b5 000E 
    1167 000000b6 56A7          LSL64     ACC:P,#8              ; [CPU_] |533| 
    1168 000000b7 8710-         MOVL      XT,@_gMotorVars+80    ; [CPU_] |533| 
    1169 000000b8 1EA6          MOVL      XAR6,ACC              ; [CPU_] |533| 
    1170 000000b9 5605-         IMPYL     P,XT,@_gMotorVars+80  ; [CPU_] |533| 
         000000ba 0010 
    1171 000000bb 5663-         QMPYL     ACC,XT,@_gMotorVars+80 ; [CPU_] |533| 
         000000bc 0010 
    1172 000000bd 56A7          LSL64     ACC:P,#8              ; [CPU_] |533| 
    1173 000000be 07A6          ADDL      ACC,XAR6              ; [CPU_] |533| 
    1174              $C$DW$156       .dwtag  DW_TAG_TI_branch
    1175                      .dwattr $C$DW$156, DW_AT_low_pc(0x00)
    1176                      .dwattr $C$DW$156, DW_AT_name("__IQ24sqrt")
    1177                      .dwattr $C$DW$156, DW_AT_TI_call
    1178 000000bf 7640!         LCR       #__IQ24sqrt           ; [CPU_] |533| 
         000000c0 0000 
    1179                      ; call occurs [#__IQ24sqrt] ; [] |533| 
    1180 000000c1 761F-         MOVW      DP,#_gMotorVars+82    ; [CPU_U] 
         000000c2 0002 
    1181                      .dwpsn  file "D:/Foc/my_motor/sw/modules/ctrl/src/32b/ctrl.h",line 329,column 3,is_stmt
    1182 000000c3 BEB2          MOVB      XAR6,#178             ; [CPU_] |329| 
    1183                      .dwpsn  file "D:/Foc/my_motor/sw/solutions/instaspin_foc/src/proj_lab05a.c",line 533,column 3,is_stmt
    1184 000000c4 1E12-         MOVL      @_gMotorVars+82,ACC   ; [CPU_] |533| 
    1185 000000c5 761F-         MOVW      DP,#_ctrlHandle       ; [CPU_U] 
         000000c6 0000 
    1186                      .dwpsn  file "D:/Foc/my_motor/sw/modules/ctrl/src/32b/ctrl.h",line 329,column 3,is_stmt
    1187 000000c7 0608-         MOVL      ACC,@_ctrlHandle      ; [CPU_] |329| 
    1188 000000c8 761F-         MOVW      DP,#_gMotorVars+88    ; [CPU_U] 
         000000c9 0002 
    1189 000000ca 0DA6          ADDU      ACC,AR6               ; [CPU_] |329| 
    1190 000000cb 8AA9          MOVL      XAR4,ACC              ; [CPU_] |329| 
    1191                      .dwpsn  file "D:/Foc/my_motor/sw/solutions/instaspin_foc/src/proj_lab05a.c",line 536,column 3,is_stmt
    1192 000000cc FF2F          MOV       ACC,#5120 << 15       ; [CPU_] |536| 
         000000cd 1400 
    1193                      .dwpsn  file "D:/Foc/my_motor/sw/modules/ctrl/src/32b/ctrl.h",line 329,column 3,is_stmt
    1194 000000ce 87C4          MOVL      XT,*+XAR4[0]          ; [CPU_] |329| 
    1195                      .dwpsn  file "D:/Foc/my_motor/sw/solutions/instaspin_foc/src/proj_lab05a.c",line 536,column 3,is_stmt
    1196 000000cf 5605          IMPYL     P,XT,ACC              ; [CPU_] |536| 
         000000d0 00A9 
    1197 000000d1 5663          QMPYL     ACC,XT,ACC            ; [CPU_] |536| 
         000000d2 00A9 
    1198 000000d3 56A7          LSL64     ACC:P,#8              ; [CPU_] |536| 
    1199 000000d4 1E18-         MOVL      @_gMotorVars+88,ACC   ; [CPU_] |536| 
    1200                      .dwpsn  file "D:/Foc/my_motor/sw/solutions/instaspin_foc/src/proj_lab05a.c",line 537,column 3,is_stmt
    1201 000000d5 FF2F          MOV       ACC,#5120 << 15       ; [CPU_] |537| 
         000000d6 1400 
    1202                      .dwpsn  file "D:/Foc/my_motor/sw/modules/ctrl/src/32b/ctrl.h",line 396,column 3,is_stmt
    1203 000000d7 87D4          MOVL      XT,*+XAR4[2]          ; [CPU_] |396| 
    1204                      .dwpsn  file "D:/Foc/my_motor/sw/solutions/instaspin_foc/src/proj_lab05a.c",line 537,column 3,is_stmt
TMS320C2000 Assembler PC v6.2.5 Sat Jul 08 16:16:11 2017

Tools Copyright (c) 1996-2014 Texas Instruments Incorporated
C:\Users\wmj\AppData\Local\Temp\1433210                              PAGE   25

    1205 000000d8 5605          IMPYL     P,XT,ACC              ; [CPU_] |537| 
         000000d9 00A9 
    1206 000000da 5663          QMPYL     ACC,XT,ACC            ; [CPU_] |537| 
         000000db 00A9 
    1207 000000dc 56A7          LSL64     ACC:P,#8              ; [CPU_] |537| 
    1208 000000dd 1E1A-         MOVL      @_gMotorVars+90,ACC   ; [CPU_] |537| 
    1209                      .dwpsn  file "D:/Foc/my_motor/sw/solutions/instaspin_foc/src/proj_lab05a.c",line 540,column 3,is_stmt
    1210 000000de 8718-         MOVL      XT,@_gMotorVars+88    ; [CPU_] |540| 
    1211 000000df 5605-         IMPYL     P,XT,@_gMotorVars+88  ; [CPU_] |540| 
         000000e0 0018 
    1212 000000e1 5663-         QMPYL     ACC,XT,@_gMotorVars+88 ; [CPU_] |540| 
         000000e2 0018 
    1213 000000e3 56A7          LSL64     ACC:P,#8              ; [CPU_] |540| 
    1214 000000e4 871A-         MOVL      XT,@_gMotorVars+90    ; [CPU_] |540| 
    1215 000000e5 1EA6          MOVL      XAR6,ACC              ; [CPU_] |540| 
    1216 000000e6 5605-         IMPYL     P,XT,@_gMotorVars+90  ; [CPU_] |540| 
         000000e7 001A 
    1217 000000e8 5663-         QMPYL     ACC,XT,@_gMotorVars+90 ; [CPU_] |540| 
         000000e9 001A 
    1218 000000ea 56A7          LSL64     ACC:P,#8              ; [CPU_] |540| 
    1219 000000eb 07A6          ADDL      ACC,XAR6              ; [CPU_] |540| 
    1220              $C$DW$157       .dwtag  DW_TAG_TI_branch
    1221                      .dwattr $C$DW$157, DW_AT_low_pc(0x00)
    1222                      .dwattr $C$DW$157, DW_AT_name("__IQ24sqrt")
    1223                      .dwattr $C$DW$157, DW_AT_TI_call
    1224 000000ec 7640!         LCR       #__IQ24sqrt           ; [CPU_] |540| 
         000000ed 0000 
    1225                      ; call occurs [#__IQ24sqrt] ; [] |540| 
    1226 000000ee 761F-         MOVW      DP,#_gMotorVars+92    ; [CPU_U] 
         000000ef 0002 
    1227 000000f0 1E1C-         MOVL      @_gMotorVars+92,ACC   ; [CPU_] |540| 
    1228 000000f1 761F-         MOVW      DP,#_gAdcData+12      ; [CPU_U] 
         000000f2 0000 
    1229                      .dwpsn  file "D:/Foc/my_motor/sw/solutions/instaspin_foc/src/proj_lab05a.c",line 543,column 3,is_stmt
    1230 000000f3 28A9          MOV       AL,#13107             ; [CPU_] |543| 
         000000f4 3333 
    1231 000000f5 9B73          MOV       AH,#115               ; [CPU_] |543| 
    1232 000000f6 8724-         MOVL      XT,@_gAdcData+12      ; [CPU_] |543| 
    1233 000000f7 5605          IMPYL     P,XT,ACC              ; [CPU_] |543| 
         000000f8 00A9 
    1234 000000f9 FE82          SUBB      SP,#2                 ; [CPU_U] 
    1235                      .dwcfi  cfa_offset, -6
    1236 000000fa 5663          QMPYL     ACC,XT,ACC            ; [CPU_] |543| 
         000000fb 00A9 
    1237 000000fc 86BE          MOVL      XAR2,*--SP            ; [CPU_] 
    1238                      .dwcfi  cfa_offset, -4
    1239                      .dwcfi  restore_reg, 9
    1240 000000fd 56A7          LSL64     ACC:P,#8              ; [CPU_] |543| 
    1241 000000fe 8BBE          MOVL      XAR1,*--SP            ; [CPU_] 
    1242                      .dwcfi  cfa_offset, -2
    1243                      .dwcfi  restore_reg, 7
    1244 000000ff 761F-         MOVW      DP,#_gMotorVars+86    ; [CPU_U] 
         00000100 0002 
    1245 00000101 1E16-         MOVL      @_gMotorVars+86,ACC   ; [CPU_] |543| 
    1246              $C$DW$158       .dwtag  DW_TAG_TI_branch
TMS320C2000 Assembler PC v6.2.5 Sat Jul 08 16:16:11 2017

Tools Copyright (c) 1996-2014 Texas Instruments Incorporated
C:\Users\wmj\AppData\Local\Temp\1433210                              PAGE   26

    1247                      .dwattr $C$DW$158, DW_AT_low_pc(0x00)
    1248                      .dwattr $C$DW$158, DW_AT_TI_return
    1249 00000102 0006          LRETR     ; [CPU_] 
    1250                      ; return occurs ; [] 
    1251                      .dwattr $C$DW$142, DW_AT_TI_end_file("D:/Foc/my_motor/sw/solutions/instaspin_foc/src/proj_lab05a.c")
    1252                      .dwattr $C$DW$142, DW_AT_TI_end_line(0x222)
    1253                      .dwattr $C$DW$142, DW_AT_TI_end_column(0x01)
    1254                      .dwendentry
    1255                      .dwendtag $C$DW$142
    1256              
    1257 00000000               .sect   "ramfuncs:retain"
    1258                      .retain
    1259                      .retainrefs
    1260                      .global _mainISR
    1261              
    1262              $C$DW$159       .dwtag  DW_TAG_subprogram, DW_AT_name("mainISR")
    1263                      .dwattr $C$DW$159, DW_AT_low_pc(_mainISR)
    1264                      .dwattr $C$DW$159, DW_AT_high_pc(0x00)
    1265                      .dwattr $C$DW$159, DW_AT_TI_symbol_name("_mainISR")
    1266                      .dwattr $C$DW$159, DW_AT_external
    1267                      .dwattr $C$DW$159, DW_AT_TI_begin_file("D:/Foc/my_motor/sw/solutions/instaspin_foc/src/proj_lab05a.c"
    1268                      .dwattr $C$DW$159, DW_AT_TI_begin_line(0x1c6)
    1269                      .dwattr $C$DW$159, DW_AT_TI_begin_column(0x10)
    1270                      .dwattr $C$DW$159, DW_AT_TI_interrupt
    1271                      .dwattr $C$DW$159, DW_AT_TI_max_frame_size(-20)
    1272                      .dwpsn  file "D:/Foc/my_motor/sw/solutions/instaspin_foc/src/proj_lab05a.c",line 455,column 1,is_stmt
    1273              
    1274                      .dwfde $C$DW$CIE, _mainISR
    1275              
    1276              ;***************************************************************
    1277              ;* FNAME: _mainISR                      FR SIZE:  18           *
    1278              ;*                                                             *
    1279              ;* FUNCTION ENVIRONMENT                                        *
    1280              ;*                                                             *
    1281              ;* FUNCTION PROPERTIES                                         *
    1282              ;*                            4 Parameter,  0 Auto, 14 SOE     *
    1283              ;***************************************************************
    1284              
    1285              _mainISR:
    1286              ;* AR5   assigned to $O$C1
    1287              ;* AR4   assigned to $O$C2
    1288              ;* AR1   assigned to $O$C3
    1289              ;* AR0   assigned to $O$C4
    1290              ;* AR7   assigned to $O$C5
    1291              ;* AR6   assigned to $O$C6
    1292              ;* AR4   assigned to $O$C7
    1293              ;* AR7   assigned to $O$C8
    1294              ;* AR6   assigned to $O$C9
    1295              ;* AR5   assigned to $O$v1
    1296              ;* AL    assigned to _value
    1297              $C$DW$160       .dwtag  DW_TAG_variable, DW_AT_name("value")
    1298                      .dwattr $C$DW$160, DW_AT_TI_symbol_name("_value")
    1299                      .dwattr $C$DW$160, DW_AT_type(*$C$DW$T$32)
    1300                      .dwattr $C$DW$160, DW_AT_location[DW_OP_reg0]
    1301              ;* AL    assigned to _value
TMS320C2000 Assembler PC v6.2.5 Sat Jul 08 16:16:11 2017

Tools Copyright (c) 1996-2014 Texas Instruments Incorporated
C:\Users\wmj\AppData\Local\Temp\1433210                              PAGE   27

    1302              $C$DW$161       .dwtag  DW_TAG_variable, DW_AT_name("value")
    1303                      .dwattr $C$DW$161, DW_AT_TI_symbol_name("_value")
    1304                      .dwattr $C$DW$161, DW_AT_type(*$C$DW$T$32)
    1305                      .dwattr $C$DW$161, DW_AT_location[DW_OP_reg0]
    1306              ;* AL    assigned to _value
    1307              $C$DW$162       .dwtag  DW_TAG_variable, DW_AT_name("value")
    1308                      .dwattr $C$DW$162, DW_AT_TI_symbol_name("_value")
    1309                      .dwattr $C$DW$162, DW_AT_type(*$C$DW$T$32)
    1310                      .dwattr $C$DW$162, DW_AT_location[DW_OP_reg0]
    1311              ;* AL    assigned to _value
    1312              $C$DW$163       .dwtag  DW_TAG_variable, DW_AT_name("value")
    1313                      .dwattr $C$DW$163, DW_AT_TI_symbol_name("_value")
    1314                      .dwattr $C$DW$163, DW_AT_type(*$C$DW$T$32)
    1315                      .dwattr $C$DW$163, DW_AT_location[DW_OP_reg0]
    1316              ;* XT    assigned to _value
    1317              $C$DW$164       .dwtag  DW_TAG_variable, DW_AT_name("value")
    1318                      .dwattr $C$DW$164, DW_AT_TI_symbol_name("_value")
    1319                      .dwattr $C$DW$164, DW_AT_type(*$C$DW$T$32)
    1320                      .dwattr $C$DW$164, DW_AT_location[DW_OP_reg21]
    1321              ;* XT    assigned to _value
    1322              $C$DW$165       .dwtag  DW_TAG_variable, DW_AT_name("value")
    1323                      .dwattr $C$DW$165, DW_AT_TI_symbol_name("_value")
    1324                      .dwattr $C$DW$165, DW_AT_type(*$C$DW$T$32)
    1325                      .dwattr $C$DW$165, DW_AT_location[DW_OP_reg21]
    1326              ;* XT    assigned to _value
    1327              $C$DW$166       .dwtag  DW_TAG_variable, DW_AT_name("value")
    1328                      .dwattr $C$DW$166, DW_AT_TI_symbol_name("_value")
    1329                      .dwattr $C$DW$166, DW_AT_type(*$C$DW$T$32)
    1330                      .dwattr $C$DW$166, DW_AT_location[DW_OP_reg21]
    1331              ;* XT    assigned to _value
    1332              $C$DW$167       .dwtag  DW_TAG_variable, DW_AT_name("value")
    1333                      .dwattr $C$DW$167, DW_AT_TI_symbol_name("_value")
    1334                      .dwattr $C$DW$167, DW_AT_type(*$C$DW$T$32)
    1335                      .dwattr $C$DW$167, DW_AT_location[DW_OP_reg21]
    1336              ;* XT    assigned to _value
    1337              $C$DW$168       .dwtag  DW_TAG_variable, DW_AT_name("value")
    1338                      .dwattr $C$DW$168, DW_AT_TI_symbol_name("_value")
    1339                      .dwattr $C$DW$168, DW_AT_type(*$C$DW$T$32)
    1340                      .dwattr $C$DW$168, DW_AT_location[DW_OP_reg21]
    1341              ;* XT    assigned to _value
    1342              $C$DW$169       .dwtag  DW_TAG_variable, DW_AT_name("value")
    1343                      .dwattr $C$DW$169, DW_AT_TI_symbol_name("_value")
    1344                      .dwattr $C$DW$169, DW_AT_type(*$C$DW$T$32)
    1345                      .dwattr $C$DW$169, DW_AT_location[DW_OP_reg21]
    1346              ;* XT    assigned to _value
    1347              $C$DW$170       .dwtag  DW_TAG_variable, DW_AT_name("value")
    1348                      .dwattr $C$DW$170, DW_AT_TI_symbol_name("_value")
    1349                      .dwattr $C$DW$170, DW_AT_type(*$C$DW$T$32)
    1350                      .dwattr $C$DW$170, DW_AT_location[DW_OP_reg21]
    1351              ;* AR0   assigned to _period
    1352              $C$DW$171       .dwtag  DW_TAG_variable, DW_AT_name("period")
    1353                      .dwattr $C$DW$171, DW_AT_TI_symbol_name("_period")
    1354                      .dwattr $C$DW$171, DW_AT_type(*$C$DW$T$32)
    1355                      .dwattr $C$DW$171, DW_AT_location[DW_OP_reg4]
    1356              ;* AR5   assigned to _obj
TMS320C2000 Assembler PC v6.2.5 Sat Jul 08 16:16:11 2017

Tools Copyright (c) 1996-2014 Texas Instruments Incorporated
C:\Users\wmj\AppData\Local\Temp\1433210                              PAGE   28

    1357              $C$DW$172       .dwtag  DW_TAG_variable, DW_AT_name("obj")
    1358                      .dwattr $C$DW$172, DW_AT_TI_symbol_name("_obj")
    1359                      .dwattr $C$DW$172, DW_AT_type(*$C$DW$T$210)
    1360                      .dwattr $C$DW$172, DW_AT_location[DW_OP_reg14]
    1361              ;* AR6   assigned to $O$L1
    1362              ;* AR4   assigned to $O$U106
    1363              ;* AR7   assigned to $O$U121
    1364              ;* AR4   assigned to $O$U107
    1365                      .dwcfi  cfa_offset, -2
    1366                      .dwcfi  save_reg_to_mem, 26, 0
    1367                      .dwcfi  save_reg_to_reg, 78, 26
    1368 00000000 761B          ASP       ; [CPU_] 
    1369 00000001 0005          PUSH      AR1H:AR0H             ; [CPU_] 
    1370                      .dwcfi  save_reg_to_mem, 5, 2
    1371                      .dwcfi  save_reg_to_mem, 7, 3
    1372                      .dwcfi  cfa_offset, -4
    1373 00000002 ABBD          MOVL      *SP++,XT              ; [CPU_] 
    1374                      .dwcfi  save_reg_to_mem, 21, 4
    1375                      .dwcfi  save_reg_to_mem, 22, 5
    1376                      .dwcfi  cfa_offset, -6
    1377 00000003 AABD          MOVL      *SP++,XAR2            ; [CPU_] 
    1378                      .dwcfi  save_reg_to_mem, 8, 6
    1379                      .dwcfi  save_reg_to_mem, 9, 7
    1380                      .dwcfi  cfa_offset, -8
    1381 00000004 A8BD          MOVL      *SP++,XAR4            ; [CPU_] 
    1382                      .dwcfi  save_reg_to_mem, 12, 8
    1383                      .dwcfi  save_reg_to_mem, 13, 9
    1384                      .dwcfi  cfa_offset, -10
    1385 00000005 A0BD          MOVL      *SP++,XAR5            ; [CPU_] 
    1386                      .dwcfi  save_reg_to_mem, 14, 10
    1387                      .dwcfi  save_reg_to_mem, 15, 11
    1388                      .dwcfi  cfa_offset, -12
    1389 00000006 C2BD          MOVL      *SP++,XAR6            ; [CPU_] 
    1390                      .dwcfi  save_reg_to_mem, 16, 12
    1391                      .dwcfi  save_reg_to_mem, 17, 13
    1392                      .dwcfi  cfa_offset, -14
    1393 00000007 C3BD          MOVL      *SP++,XAR7            ; [CPU_] 
    1394                      .dwcfi  save_reg_to_mem, 18, 14
    1395                      .dwcfi  save_reg_to_mem, 19, 15
    1396                      .dwcfi  cfa_offset, -16
    1397 00000008 FE04          ADDB      SP,#4                 ; [CPU_U] 
    1398                      .dwcfi  cfa_offset, -20
    1399 00000009 FF69          SPM       0                     ; [CPU_] 
    1400 0000000a 2942          CLRC      PAGE0,OVM             ; [CPU_] 
    1401 0000000b 5616          CLRC      AMODE                 ; [CPU_] 
    1402 0000000c 761F-         MOVW      DP,#_gLEDcnt          ; [CPU_U] 
         0000000d 0000 
    1403                      .dwpsn  file "D:/Foc/my_motor/sw/solutions/instaspin_foc/src/proj_lab05a.c",line 457,column 3,is_stmt
    1404 0000000e 0A00-         INC       @_gLEDcnt             ; [CPU_] |457| 
    1405 0000000f 1B00-         CMP       @_gLEDcnt,#2000       ; [CPU_] |457| 
         00000010 07D0 
    1406 00000011 6802          B         $C$L5,LO              ; [CPU_] |457| 
    1407                      ; branchcc occurs ; [] |457| 
    1408                      .dwpsn  file "D:/Foc/my_motor/sw/solutions/instaspin_foc/src/proj_lab05a.c",line 460,column 5,is_stmt
    1409 00000012 2B00-         MOV       @_gLEDcnt,#0          ; [CPU_] |460| 
TMS320C2000 Assembler PC v6.2.5 Sat Jul 08 16:16:11 2017

Tools Copyright (c) 1996-2014 Texas Instruments Incorporated
C:\Users\wmj\AppData\Local\Temp\1433210                              PAGE   29

    1410 00000013       $C$L5:    
    1411                      .dwpsn  file "D:/Foc/my_motor/sw/solutions/instaspin_foc/src/proj_lab05a.c",line 465,column 3,is_stmt
    1412 00000013 830A-         MOVL      XAR5,@_halHandle      ; [CPU_] |465| 
    1413                      .dwpsn  file "D:/Foc/my_motor/sw/drivers/adc/src/32b/f28x/f2802x/adc.h",line 571,column 3,is_stmt
    1414 00000014 8AC5          MOVL      XAR4,*+XAR5[0]        ; [CPU_] |571| 
    1415 00000015 8D00          MOVL      XAR0,#26117           ; [CPU_] |571| 
         00000016 6605 
    1416 00000017 56BF          MOVB      *+XAR4[AR0],#1,UNC    ; [CPU_] |571| 
         00000018 0194 
    1417                      .dwpsn  file "D:/Foc/my_motor/sw/drivers/pie/src/32b/f28x/f2802x/pie.h",line 757,column 5,is_stmt
    1418 00000019 D078          MOVB      XAR0,#120             ; [CPU_] |757| 
    1419 0000001a 8A95          MOVL      XAR4,*+XAR5[AR0]      ; [CPU_] |757| 
    1420 0000001b 28CC          MOV       *+XAR4[1],#512        ; [CPU_] |757| 
         0000001c 0200 
    1421                      .dwpsn  file "D:/Foc/my_motor/sw/drivers/adc/src/32b/f28x/f2802x/adc.h",line 684,column 3,is_stmt
    1422 0000001d 8BC5          MOVL      XAR1,*+XAR5[0]        ; [CPU_] |684| 
    1423                      .dwpsn  file "D:/Foc/my_motor/sw/modules/hal/boards/hvkit_rev1p1/f28x/f2802x/src/hal.h",line 501,colu
    1424 0000001e D0AC          MOVB      XAR0,#172             ; [CPU_] |501| 
    1425 0000001f C595          MOVL      XAR7,*+XAR5[AR0]      ; [CPU_] |501| 
    1426                      .dwpsn  file "D:/Foc/my_motor/sw/modules/hal/boards/hvkit_rev1p1/f28x/f2802x/src/hal.h",line 502,colu
    1427 00000020 8F00-         MOVL      XAR4,#_gAdcData       ; [CPU_U] |502| 
         00000021 0018 
    1428                      .dwpsn  file "D:/Foc/my_motor/sw/drivers/adc/src/32b/f28x/f2802x/adc.h",line 684,column 3,is_stmt
    1429 00000022 0EC9          MOVU      ACC,*+XAR1[1]         ; [CPU_] |684| 
    1430 00000023 1EAC          MOVL      XT,ACC                ; [CPU_] |684| 
    1431                      .dwpsn  file "D:/Foc/my_motor/sw/modules/hal/boards/hvkit_rev1p1/f28x/f2802x/src/hal.h",line 501,colu
    1432 00000024 0296          MOVB      ACC,#150              ; [CPU_] |501| 
    1433 00000025 5605          IMPYL     P,XT,XAR7             ; [CPU_] |501| 
         00000026 00A7 
    1434 00000027 07A5          ADDL      ACC,XAR5              ; [CPU_] |501| 
    1435 00000028 1EA6          MOVL      XAR6,ACC              ; [CPU_] |501| 
    1436 00000029 5663          QMPYL     ACC,XT,XAR7           ; [CPU_] |501| 
         0000002a 00A7 
    1437 0000002b 568B          ASR64     ACC:P,#12             ; [CPU_] |501| 
    1438 0000002c A9A9          MOVL      ACC,P                 ; [CPU_] |501| 
    1439 0000002d 03C6          SUBL      ACC,*+XAR6[0]         ; [CPU_] |501| 
    1440                      .dwpsn  file "D:/Foc/my_motor/sw/modules/hal/boards/hvkit_rev1p1/f28x/f2802x/src/hal.h",line 502,colu
    1441 0000002e 1EC4          MOVL      *+XAR4[0],ACC         ; [CPU_] |502| 
    1442                      .dwpsn  file "D:/Foc/my_motor/sw/drivers/adc/src/32b/f28x/f2802x/adc.h",line 684,column 3,is_stmt
    1443 0000002f 0ED1          MOVU      ACC,*+XAR1[2]         ; [CPU_] |684| 
    1444 00000030 1EAC          MOVL      XT,ACC                ; [CPU_] |684| 
    1445                      .dwpsn  file "D:/Foc/my_motor/sw/modules/hal/boards/hvkit_rev1p1/f28x/f2802x/src/hal.h",line 506,colu
    1446 00000031 5605          IMPYL     P,XT,XAR7             ; [CPU_] |506| 
         00000032 00A7 
    1447 00000033 5663          QMPYL     ACC,XT,XAR7           ; [CPU_] |506| 
         00000034 00A7 
    1448 00000035 568B          ASR64     ACC:P,#12             ; [CPU_] |506| 
    1449 00000036 A9A9          MOVL      ACC,P                 ; [CPU_] |506| 
    1450 00000037 03D6          SUBL      ACC,*+XAR6[2]         ; [CPU_] |506| 
    1451                      .dwpsn  file "D:/Foc/my_motor/sw/modules/hal/boards/hvkit_rev1p1/f28x/f2802x/src/hal.h",line 507,colu
    1452 00000038 1ED4          MOVL      *+XAR4[2],ACC         ; [CPU_] |507| 
    1453                      .dwpsn  file "D:/Foc/my_motor/sw/drivers/adc/src/32b/f28x/f2802x/adc.h",line 684,column 3,is_stmt
    1454 00000039 0ED9          MOVU      ACC,*+XAR1[3]         ; [CPU_] |684| 
    1455 0000003a 1EAC          MOVL      XT,ACC                ; [CPU_] |684| 
    1456                      .dwpsn  file "D:/Foc/my_motor/sw/modules/hal/boards/hvkit_rev1p1/f28x/f2802x/src/hal.h",line 511,colu
TMS320C2000 Assembler PC v6.2.5 Sat Jul 08 16:16:11 2017

Tools Copyright (c) 1996-2014 Texas Instruments Incorporated
C:\Users\wmj\AppData\Local\Temp\1433210                              PAGE   30

    1457 0000003b 5605          IMPYL     P,XT,XAR7             ; [CPU_] |511| 
         0000003c 00A7 
    1458 0000003d 5663          QMPYL     ACC,XT,XAR7           ; [CPU_] |511| 
         0000003e 00A7 
    1459 0000003f 568B          ASR64     ACC:P,#12             ; [CPU_] |511| 
    1460                      .dwpsn  file "D:/Foc/my_motor/sw/modules/hal/boards/hvkit_rev1p1/f28x/f2802x/src/hal.h",line 517,colu
    1461 00000040 C5A4          MOVL      XAR7,XAR4             ; [CPU_] |517| 
    1462                      .dwpsn  file "D:/Foc/my_motor/sw/modules/hal/boards/hvkit_rev1p1/f28x/f2802x/src/hal.h",line 511,colu
    1463 00000041 A9A9          MOVL      ACC,P                 ; [CPU_] |511| 
    1464                      .dwpsn  file "D:/Foc/my_motor/sw/modules/hal/boards/hvkit_rev1p1/f28x/f2802x/src/hal.h",line 516,colu
    1465 00000042 D0AE          MOVB      XAR0,#174             ; [CPU_] |516| 
    1466                      .dwpsn  file "D:/Foc/my_motor/sw/modules/hal/boards/hvkit_rev1p1/f28x/f2802x/src/hal.h",line 511,colu
    1467 00000043 03E6          SUBL      ACC,*+XAR6[4]         ; [CPU_] |511| 
    1468                      .dwpsn  file "D:/Foc/my_motor/sw/modules/hal/boards/hvkit_rev1p1/f28x/f2802x/src/hal.h",line 517,colu
    1469 00000044 DF06          ADDB      XAR7,#6               ; [CPU_] |517| 
    1470                      .dwpsn  file "D:/Foc/my_motor/sw/modules/hal/boards/hvkit_rev1p1/f28x/f2802x/src/hal.h",line 512,colu
    1471 00000045 1EE4          MOVL      *+XAR4[4],ACC         ; [CPU_] |512| 
    1472                      .dwpsn  file "D:/Foc/my_motor/sw/modules/hal/boards/hvkit_rev1p1/f28x/f2802x/src/hal.h",line 516,colu
    1473 00000046 8E95          MOVL      XAR0,*+XAR5[AR0]      ; [CPU_] |516| 
    1474                      .dwpsn  file "D:/Foc/my_motor/sw/drivers/adc/src/32b/f28x/f2802x/adc.h",line 684,column 3,is_stmt
    1475 00000047 0EE1          MOVU      ACC,*+XAR1[4]         ; [CPU_] |684| 
    1476 00000048 1EAC          MOVL      XT,ACC                ; [CPU_] |684| 
    1477                      .dwpsn  file "D:/Foc/my_motor/sw/modules/hal/boards/hvkit_rev1p1/f28x/f2802x/src/hal.h",line 516,colu
    1478 00000049 029C          MOVB      ACC,#156              ; [CPU_] |516| 
    1479 0000004a 5605          IMPYL     P,XT,XAR0             ; [CPU_] |516| 
         0000004b 00A0 
    1480 0000004c 07A5          ADDL      ACC,XAR5              ; [CPU_] |516| 
    1481 0000004d 1EA6          MOVL      XAR6,ACC              ; [CPU_] |516| 
    1482 0000004e 5663          QMPYL     ACC,XT,XAR0           ; [CPU_] |516| 
         0000004f 00A0 
    1483 00000050 568B          ASR64     ACC:P,#12             ; [CPU_] |516| 
    1484 00000051 A9A9          MOVL      ACC,P                 ; [CPU_] |516| 
    1485 00000052 03C6          SUBL      ACC,*+XAR6[0]         ; [CPU_] |516| 
    1486                      .dwpsn  file "D:/Foc/my_motor/sw/modules/hal/boards/hvkit_rev1p1/f28x/f2802x/src/hal.h",line 517,colu
    1487 00000053 1EC7          MOVL      *+XAR7[0],ACC         ; [CPU_] |517| 
    1488                      .dwpsn  file "D:/Foc/my_motor/sw/drivers/adc/src/32b/f28x/f2802x/adc.h",line 684,column 3,is_stmt
    1489 00000054 0EE9          MOVU      ACC,*+XAR1[5]         ; [CPU_] |684| 
    1490 00000055 1EAC          MOVL      XT,ACC                ; [CPU_] |684| 
    1491                      .dwpsn  file "D:/Foc/my_motor/sw/modules/hal/boards/hvkit_rev1p1/f28x/f2802x/src/hal.h",line 521,colu
    1492 00000056 5605          IMPYL     P,XT,XAR0             ; [CPU_] |521| 
         00000057 00A0 
    1493 00000058 5663          QMPYL     ACC,XT,XAR0           ; [CPU_] |521| 
         00000059 00A0 
    1494 0000005a 568B          ASR64     ACC:P,#12             ; [CPU_] |521| 
    1495 0000005b A9A9          MOVL      ACC,P                 ; [CPU_] |521| 
    1496 0000005c 03D6          SUBL      ACC,*+XAR6[2]         ; [CPU_] |521| 
    1497                      .dwpsn  file "D:/Foc/my_motor/sw/modules/hal/boards/hvkit_rev1p1/f28x/f2802x/src/hal.h",line 522,colu
    1498 0000005d 1ED7          MOVL      *+XAR7[2],ACC         ; [CPU_] |522| 
    1499                      .dwpsn  file "D:/Foc/my_motor/sw/drivers/adc/src/32b/f28x/f2802x/adc.h",line 684,column 3,is_stmt
    1500 0000005e 0EF1          MOVU      ACC,*+XAR1[6]         ; [CPU_] |684| 
    1501 0000005f 1EAC          MOVL      XT,ACC                ; [CPU_] |684| 
    1502                      .dwpsn  file "D:/Foc/my_motor/sw/modules/hal/boards/hvkit_rev1p1/f28x/f2802x/src/hal.h",line 526,colu
    1503 00000060 5605          IMPYL     P,XT,XAR0             ; [CPU_] |526| 
         00000061 00A0 
    1504 00000062 5663          QMPYL     ACC,XT,XAR0           ; [CPU_] |526| 
TMS320C2000 Assembler PC v6.2.5 Sat Jul 08 16:16:11 2017

Tools Copyright (c) 1996-2014 Texas Instruments Incorporated
C:\Users\wmj\AppData\Local\Temp\1433210                              PAGE   31

         00000063 00A0 
    1505 00000064 568B          ASR64     ACC:P,#12             ; [CPU_] |526| 
    1506 00000065 A9A9          MOVL      ACC,P                 ; [CPU_] |526| 
    1507 00000066 03E6          SUBL      ACC,*+XAR6[4]         ; [CPU_] |526| 
    1508                      .dwpsn  file "D:/Foc/my_motor/sw/modules/hal/boards/hvkit_rev1p1/f28x/f2802x/src/hal.h",line 527,colu
    1509 00000067 1EE7          MOVL      *+XAR7[4],ACC         ; [CPU_] |527| 
    1510                      .dwpsn  file "D:/Foc/my_motor/sw/drivers/adc/src/32b/f28x/f2802x/adc.h",line 684,column 3,is_stmt
    1511 00000068 0EF9          MOVU      ACC,*+XAR1[7]         ; [CPU_] |684| 
    1512 00000069 1EAC          MOVL      XT,ACC                ; [CPU_] |684| 
    1513                      .dwpsn  file "D:/Foc/my_motor/sw/modules/hal/boards/hvkit_rev1p1/f28x/f2802x/src/hal.h",line 531,colu
    1514 0000006a 5605          IMPYL     P,XT,XAR0             ; [CPU_] |531| 
         0000006b 00A0 
    1515 0000006c 5663          QMPYL     ACC,XT,XAR0           ; [CPU_] |531| 
         0000006d 00A0 
    1516                      .dwpsn  file "D:/Foc/my_motor/sw/modules/hal/boards/hvkit_rev1p1/f28x/f2802x/src/hal.h",line 532,colu
    1517 0000006e D00C          MOVB      XAR0,#12              ; [CPU_] |532| 
    1518                      .dwpsn  file "D:/Foc/my_motor/sw/modules/hal/boards/hvkit_rev1p1/f28x/f2802x/src/hal.h",line 531,colu
    1519 0000006f 568B          ASR64     ACC:P,#12             ; [CPU_] |531| 
    1520                      .dwpsn  file "D:/Foc/my_motor/sw/modules/hal/boards/hvkit_rev1p1/f28x/f2802x/src/hal.h",line 532,colu
    1521 00000070 A994          MOVL      *+XAR4[AR0],P         ; [CPU_] |532| 
    1522                      .dwpsn  file "D:/Foc/my_motor/sw/drivers/adc/src/32b/f28x/f2802x/adc.h",line 684,column 3,is_stmt
    1523 00000071 D008          MOVB      XAR0,#8               ; [CPU_] |684| 
    1524 00000072 0E91          MOVU      ACC,*+XAR1[AR0]       ; [CPU_] |684| 
    1525                      .dwpsn  file "D:/Foc/my_motor/sw/modules/hal/boards/hvkit_rev1p1/f28x/f2802x/src/hal.h",line 536,colu
    1526 00000073 D00E          MOVB      XAR0,#14              ; [CPU_] |536| 
    1527 00000074 1E94          MOVL      *+XAR4[AR0],ACC       ; [CPU_] |536| 
    1528                      .dwpsn  file "D:/Foc/my_motor/sw/drivers/adc/src/32b/f28x/f2802x/adc.h",line 684,column 3,is_stmt
    1529 00000075 D009          MOVB      XAR0,#9               ; [CPU_] |684| 
    1530 00000076 0E91          MOVU      ACC,*+XAR1[AR0]       ; [CPU_] |684| 
    1531                      .dwpsn  file "D:/Foc/my_motor/sw/modules/hal/boards/hvkit_rev1p1/f28x/f2802x/src/hal.h",line 540,colu
    1532 00000077 D010          MOVB      XAR0,#16              ; [CPU_] |540| 
    1533 00000078 1E94          MOVL      *+XAR4[AR0],ACC       ; [CPU_] |540| 
    1534                      .dwpsn  file "D:/Foc/my_motor/sw/drivers/adc/src/32b/f28x/f2802x/adc.h",line 684,column 3,is_stmt
    1535 00000079 D00A          MOVB      XAR0,#10              ; [CPU_] |684| 
    1536 0000007a 0E91          MOVU      ACC,*+XAR1[AR0]       ; [CPU_] |684| 
    1537                      .dwpsn  file "D:/Foc/my_motor/sw/modules/hal/boards/hvkit_rev1p1/f28x/f2802x/src/hal.h",line 543,colu
    1538 0000007b D014          MOVB      XAR0,#20              ; [CPU_] |543| 
    1539 0000007c 1E94          MOVL      *+XAR4[AR0],ACC       ; [CPU_] |543| 
    1540                      .dwpsn  file "D:/Foc/my_motor/sw/drivers/adc/src/32b/f28x/f2802x/adc.h",line 684,column 3,is_stmt
    1541 0000007d D00B          MOVB      XAR0,#11              ; [CPU_] |684| 
    1542 0000007e 0E91          MOVU      ACC,*+XAR1[AR0]       ; [CPU_] |684| 
    1543                      .dwpsn  file "D:/Foc/my_motor/sw/modules/hal/boards/hvkit_rev1p1/f28x/f2802x/src/hal.h",line 546,colu
    1544 0000007f D012          MOVB      XAR0,#18              ; [CPU_] |546| 
    1545 00000080 1E94          MOVL      *+XAR4[AR0],ACC       ; [CPU_] |546| 
    1546                      .dwpsn  file "D:/Foc/my_motor/sw/solutions/instaspin_foc/src/proj_lab05a.c",line 473,column 3,is_stmt
    1547 00000081 A842          MOVL      *-SP[2],XAR4          ; [CPU_] |473| 
    1548 00000082 8F00-         MOVL      XAR4,#_gPwmData       ; [CPU_U] |473| 
         00000083 0012 
    1549 00000084 A844          MOVL      *-SP[4],XAR4          ; [CPU_] |473| 
    1550 00000085 8A08-         MOVL      XAR4,@_ctrlHandle     ; [CPU_] |473| 
    1551              $C$DW$173       .dwtag  DW_TAG_TI_branch
    1552                      .dwattr $C$DW$173, DW_AT_low_pc(0x00)
    1553                      .dwattr $C$DW$173, DW_AT_name("_CTRL_run")
    1554                      .dwattr $C$DW$173, DW_AT_TI_call
    1555 00000086 7640!         LCR       #_CTRL_run            ; [CPU_] |473| 
TMS320C2000 Assembler PC v6.2.5 Sat Jul 08 16:16:11 2017

Tools Copyright (c) 1996-2014 Texas Instruments Incorporated
C:\Users\wmj\AppData\Local\Temp\1433210                              PAGE   32

         00000087 0000 
    1556                      ; call occurs [#_CTRL_run] ; [] |473| 
    1557 00000088 761F-         MOVW      DP,#_halHandle        ; [CPU_U] 
         00000089 0000 
    1558 0000008a BE02          MOVB      XAR6,#2               ; [CPU_] 
    1559 0000008b 3B01          SETC      SXM                   ; [CPU_] 
    1560 0000008c 76C0-         MOVL      XAR7,#_gPwmData       ; [CPU_U] 
         0000008d 0012 
    1561 0000008e 060A-         MOVL      ACC,@_halHandle       ; [CPU_] 
    1562 0000008f 097C          ADDB      ACC,#124              ; [CPU_] 
    1563 00000090 8AA9          MOVL      XAR4,ACC              ; [CPU_] 
    1564 00000091       $C$L6:    
    1565                      .dwpsn  file "D:/Foc/my_motor/sw/modules/hal/boards/hvkit_rev1p1/f28x/f2802x/src/hal.h",line 1083,col
    1566 00000091 83C4          MOVL      XAR5,*+XAR4[0]        ; [CPU_] |1083| 
    1567                      .dwpsn  file "D:/Foc/my_motor/sw/drivers/pwm/src/32b/f28x/f2802x/pwm.h",line 1717,column 3,is_stmt
    1568 00000092 FF2F          MOV       ACC,#-512 << 15       ; [CPU_] |1717| 
         00000093 FE00 
    1569 00000094 8787          MOVL      XT,*XAR7++            ; [CPU_] |1717| 
    1570 00000095 5605          IMPYL     P,XT,ACC              ; [CPU_] |1717| 
         00000096 00A9 
    1571                      .dwpsn  file "D:/Foc/my_motor/sw/modules/hal/boards/hvkit_rev1p1/f28x/f2802x/src/hal.h",line 1083,col
    1572 00000097 58ED          MOVZ      AR0,*+XAR5[5]         ; [CPU_] |1083| 
    1573                      .dwpsn  file "D:/Foc/my_motor/sw/drivers/pwm/src/32b/f28x/f2802x/pwm.h",line 1717,column 3,is_stmt
    1574 00000098 5663          QMPYL     ACC,XT,ACC            ; [CPU_] |1717| 
         00000099 00A9 
    1575                      .dwpsn  file "D:/Foc/my_motor/sw/modules/hal/boards/hvkit_rev1p1/f28x/f2802x/src/hal.h",line 1080,col
    1576 0000009a DC02          ADDB      XAR4,#2               ; [CPU_] |1080| 
    1577                      .dwpsn  file "D:/Foc/my_motor/sw/drivers/pwm/src/32b/f28x/f2802x/pwm.h",line 1717,column 3,is_stmt
    1578 0000009b 56A7          LSL64     ACC:P,#8              ; [CPU_] |1717| 
    1579 0000009c 2BAB          MOV       PL,#0                 ; [CPU_] |1717| 
    1580 0000009d 28AA          MOV       PH,#128               ; [CPU_] |1717| 
         0000009e 0080 
    1581 0000009f A9A2          MOVL      XAR2,P                ; [CPU_] |1717| 
    1582 000000a0 2BAB          MOV       PL,#0                 ; [CPU_] |1717| 
    1583 000000a1 28AA          MOV       PH,#65408             ; [CPU_] |1717| 
         000000a2 FF80 
    1584 000000a3 5650          MINL      ACC,XAR2              ; [CPU_] |1717| 
         000000a4 00A2 
    1585 000000a5 5661          MAXL      ACC,P                 ; [CPU_] |1717| 
         000000a6 00AB 
    1586 000000a7 FF1F          ADD       ACC,#256 << 15        ; [CPU_] |1717| 
         000000a8 0100 
    1587 000000a9 1EAC          MOVL      XT,ACC                ; [CPU_] |1717| 
    1588 000000aa 5605          IMPYL     P,XT,XAR0             ; [CPU_] |1717| 
         000000ab 00A0 
    1589 000000ac 5663          QMPYL     ACC,XT,XAR0           ; [CPU_] |1717| 
         000000ad 00A0 
    1590 000000ae 56A7          LSL64     ACC:P,#8              ; [CPU_] |1717| 
    1591 000000af 3100          MOV       P,#0                  ; [CPU_] |1717| 
    1592 000000b0 5650          MINL      ACC,XAR0              ; [CPU_] |1717| 
         000000b1 00A0 
    1593 000000b2 D009          MOVB      XAR0,#9               ; [CPU_] |1717| 
    1594 000000b3 5661          MAXL      ACC,P                 ; [CPU_] |1717| 
         000000b4 00AB 
    1595 000000b5 9695          MOV       *+XAR5[AR0],AL        ; [CPU_] |1717| 
TMS320C2000 Assembler PC v6.2.5 Sat Jul 08 16:16:11 2017

Tools Copyright (c) 1996-2014 Texas Instruments Incorporated
C:\Users\wmj\AppData\Local\Temp\1433210                              PAGE   33

    1596                      .dwpsn  file "D:/Foc/my_motor/sw/modules/hal/boards/hvkit_rev1p1/f28x/f2802x/src/hal.h",line 1080,col
    1597 000000b6 000E          BANZ      $C$L6,AR6--           ; [CPU_] |1080| 
         000000b7 FFDB 
    1598                      ; branchcc occurs ; [] |1080| 
    1599 000000b8 761F-         MOVW      DP,#_ctrlHandle       ; [CPU_U] 
         000000b9 0000 
    1600                      .dwpsn  file "D:/Foc/my_motor/sw/solutions/instaspin_foc/src/proj_lab05a.c",line 481,column 3,is_stmt
    1601 000000ba 8A08-         MOVL      XAR4,@_ctrlHandle     ; [CPU_] |481| 
    1602              $C$DW$174       .dwtag  DW_TAG_TI_branch
    1603                      .dwattr $C$DW$174, DW_AT_low_pc(0x00)
    1604                      .dwattr $C$DW$174, DW_AT_name("_CTRL_setup")
    1605                      .dwattr $C$DW$174, DW_AT_TI_call
    1606 000000bb 7640!         LCR       #_CTRL_setup          ; [CPU_] |481| 
         000000bc 0000 
    1607                      ; call occurs [#_CTRL_setup] ; [] |481| 
    1608 000000bd FE84          SUBB      SP,#4                 ; [CPU_U] 
    1609                      .dwcfi  cfa_offset, -16
    1610 000000be C5BE          MOVL      XAR7,*--SP            ; [CPU_] 
    1611                      .dwcfi  cfa_offset, -14
    1612                      .dwcfi  restore_reg, 18
    1613 000000bf C4BE          MOVL      XAR6,*--SP            ; [CPU_] 
    1614                      .dwcfi  cfa_offset, -12
    1615                      .dwcfi  restore_reg, 16
    1616 000000c0 83BE          MOVL      XAR5,*--SP            ; [CPU_] 
    1617                      .dwcfi  cfa_offset, -10
    1618                      .dwcfi  restore_reg, 14
    1619 000000c1 8ABE          MOVL      XAR4,*--SP            ; [CPU_] 
    1620                      .dwcfi  cfa_offset, -8
    1621                      .dwcfi  restore_reg, 12
    1622 000000c2 86BE          MOVL      XAR2,*--SP            ; [CPU_] 
    1623                      .dwcfi  cfa_offset, -6
    1624                      .dwcfi  restore_reg, 8
    1625 000000c3 87BE          MOVL      XT,*--SP              ; [CPU_] 
    1626                      .dwcfi  cfa_offset, -4
    1627                      .dwcfi  restore_reg, 22
    1628                      .dwcfi  restore_reg, 21
    1629 000000c4 0003          POP       AR1H:AR0H             ; [CPU_] 
    1630                      .dwcfi  cfa_offset, -2
    1631                      .dwcfi  restore_reg, 5
    1632                      .dwcfi  restore_reg, 7
    1633 000000c5 7617          NASP      ; [CPU_] 
    1634              $C$DW$175       .dwtag  DW_TAG_TI_branch
    1635                      .dwattr $C$DW$175, DW_AT_low_pc(0x00)
    1636                      .dwattr $C$DW$175, DW_AT_TI_return
    1637 000000c6 7602          IRET      ; [CPU_] 
    1638                      ; return occurs ; [] 
    1639                      .dwattr $C$DW$159, DW_AT_TI_end_file("D:/Foc/my_motor/sw/solutions/instaspin_foc/src/proj_lab05a.c")
    1640                      .dwattr $C$DW$159, DW_AT_TI_end_line(0x1e5)
    1641                      .dwattr $C$DW$159, DW_AT_TI_end_column(0x01)
    1642                      .dwendentry
    1643                      .dwendtag $C$DW$159
    1644              
    1645 00000103               .sect   ".text"
    1646                      .clink
    1647                      .global _main
TMS320C2000 Assembler PC v6.2.5 Sat Jul 08 16:16:11 2017

Tools Copyright (c) 1996-2014 Texas Instruments Incorporated
C:\Users\wmj\AppData\Local\Temp\1433210                              PAGE   34

    1648              
    1649              $C$DW$176       .dwtag  DW_TAG_subprogram, DW_AT_name("main")
    1650                      .dwattr $C$DW$176, DW_AT_low_pc(_main)
    1651                      .dwattr $C$DW$176, DW_AT_high_pc(0x00)
    1652                      .dwattr $C$DW$176, DW_AT_TI_symbol_name("_main")
    1653                      .dwattr $C$DW$176, DW_AT_external
    1654                      .dwattr $C$DW$176, DW_AT_TI_begin_file("D:/Foc/my_motor/sw/solutions/instaspin_foc/src/proj_lab05a.c"
    1655                      .dwattr $C$DW$176, DW_AT_TI_begin_line(0x87)
    1656                      .dwattr $C$DW$176, DW_AT_TI_begin_column(0x06)
    1657                      .dwattr $C$DW$176, DW_AT_TI_max_frame_size(-16)
    1658                      .dwpsn  file "D:/Foc/my_motor/sw/solutions/instaspin_foc/src/proj_lab05a.c",line 136,column 1,is_stmt
    1659              
    1660                      .dwfde $C$DW$CIE, _main
    1661              
    1662              ;***************************************************************
    1663              ;* FNAME: _main                         FR SIZE:  14           *
    1664              ;*                                                             *
    1665              ;* FUNCTION ENVIRONMENT                                        *
    1666              ;*                                                             *
    1667              ;* FUNCTION PROPERTIES                                         *
    1668              ;*                            2 Parameter,  5 Auto,  6 SOE     *
    1669              ;***************************************************************
    1670              
    1671              _main:
    1672              ;* AR4   assigned to $O$C14
    1673              ;* AR4   assigned to $O$C15
    1674              ;* AR5   assigned to $O$C16
    1675              ;* AR5   assigned to $O$C17
    1676              ;* AR7   assigned to $O$C18
    1677              ;* AR5   assigned to $O$C19
    1678              ;* AR6   assigned to $O$C20
    1679              ;* AR5   assigned to $O$C21
    1680              ;* AR7   assigned to $O$C22
    1681              ;* AR0   assigned to $O$C23
    1682              ;* AR7   assigned to $O$C24
    1683              ;* AR0   assigned to $O$C25
    1684              ;* AR5   assigned to $O$C26
    1685              ;* AR5   assigned to $O$C27
    1686              ;* AR5   assigned to $O$C28
    1687              ;* AR4   assigned to $O$C29
    1688              ;* AR3   assigned to $O$K12
    1689              ;* AR5   assigned to _pwmHandle
    1690              $C$DW$177       .dwtag  DW_TAG_variable, DW_AT_name("pwmHandle")
    1691                      .dwattr $C$DW$177, DW_AT_TI_symbol_name("_pwmHandle")
    1692                      .dwattr $C$DW$177, DW_AT_type(*$C$DW$T$105)
    1693                      .dwattr $C$DW$177, DW_AT_location[DW_OP_reg14]
    1694              ;* AR5   assigned to _pwmHandle
    1695              $C$DW$178       .dwtag  DW_TAG_variable, DW_AT_name("pwmHandle")
    1696                      .dwattr $C$DW$178, DW_AT_TI_symbol_name("_pwmHandle")
    1697                      .dwattr $C$DW$178, DW_AT_type(*$C$DW$T$105)
    1698                      .dwattr $C$DW$178, DW_AT_location[DW_OP_reg14]
    1699              ;* AR4   assigned to _pwmHandle
    1700              $C$DW$179       .dwtag  DW_TAG_variable, DW_AT_name("pwmHandle")
    1701                      .dwattr $C$DW$179, DW_AT_TI_symbol_name("_pwmHandle")
    1702                      .dwattr $C$DW$179, DW_AT_type(*$C$DW$T$105)
TMS320C2000 Assembler PC v6.2.5 Sat Jul 08 16:16:11 2017

Tools Copyright (c) 1996-2014 Texas Instruments Incorporated
C:\Users\wmj\AppData\Local\Temp\1433210                              PAGE   35

    1703                      .dwattr $C$DW$179, DW_AT_location[DW_OP_reg12]
    1704              ;* AR4   assigned to _obj
    1705              $C$DW$180       .dwtag  DW_TAG_variable, DW_AT_name("obj")
    1706                      .dwattr $C$DW$180, DW_AT_TI_symbol_name("_obj")
    1707                      .dwattr $C$DW$180, DW_AT_type(*$C$DW$T$210)
    1708                      .dwattr $C$DW$180, DW_AT_location[DW_OP_reg12]
    1709              ;* AL    assigned to _state
    1710              $C$DW$181       .dwtag  DW_TAG_variable, DW_AT_name("state")
    1711                      .dwattr $C$DW$181, DW_AT_TI_symbol_name("_state")
    1712                      .dwattr $C$DW$181, DW_AT_type(*$C$DW$T$70)
    1713                      .dwattr $C$DW$181, DW_AT_location[DW_OP_reg0]
    1714              ;* AL    assigned to _state
    1715              $C$DW$182       .dwtag  DW_TAG_variable, DW_AT_name("state")
    1716                      .dwattr $C$DW$182, DW_AT_TI_symbol_name("_state")
    1717                      .dwattr $C$DW$182, DW_AT_type(*$C$DW$T$70)
    1718                      .dwattr $C$DW$182, DW_AT_location[DW_OP_reg0]
    1719              ;* AR5   assigned to _pwmHandle
    1720              $C$DW$183       .dwtag  DW_TAG_variable, DW_AT_name("pwmHandle")
    1721                      .dwattr $C$DW$183, DW_AT_TI_symbol_name("_pwmHandle")
    1722                      .dwattr $C$DW$183, DW_AT_type(*$C$DW$T$105)
    1723                      .dwattr $C$DW$183, DW_AT_location[DW_OP_reg14]
    1724              ;* AR5   assigned to _pwmHandle
    1725              $C$DW$184       .dwtag  DW_TAG_variable, DW_AT_name("pwmHandle")
    1726                      .dwattr $C$DW$184, DW_AT_TI_symbol_name("_pwmHandle")
    1727                      .dwattr $C$DW$184, DW_AT_type(*$C$DW$T$105)
    1728                      .dwattr $C$DW$184, DW_AT_location[DW_OP_reg14]
    1729              ;* AR4   assigned to _pwmHandle
    1730              $C$DW$185       .dwtag  DW_TAG_variable, DW_AT_name("pwmHandle")
    1731                      .dwattr $C$DW$185, DW_AT_TI_symbol_name("_pwmHandle")
    1732                      .dwattr $C$DW$185, DW_AT_type(*$C$DW$T$105)
    1733                      .dwattr $C$DW$185, DW_AT_location[DW_OP_reg12]
    1734              ;* AR4   assigned to _obj
    1735              $C$DW$186       .dwtag  DW_TAG_variable, DW_AT_name("obj")
    1736                      .dwattr $C$DW$186, DW_AT_TI_symbol_name("_obj")
    1737                      .dwattr $C$DW$186, DW_AT_type(*$C$DW$T$210)
    1738                      .dwattr $C$DW$186, DW_AT_location[DW_OP_reg12]
    1739              ;* AH    assigned to _state
    1740              $C$DW$187       .dwtag  DW_TAG_variable, DW_AT_name("state")
    1741                      .dwattr $C$DW$187, DW_AT_TI_symbol_name("_state")
    1742                      .dwattr $C$DW$187, DW_AT_type(*$C$DW$T$70)
    1743                      .dwattr $C$DW$187, DW_AT_location[DW_OP_reg1]
    1744              ;* AR6   assigned to _pwmHandle
    1745              $C$DW$188       .dwtag  DW_TAG_variable, DW_AT_name("pwmHandle")
    1746                      .dwattr $C$DW$188, DW_AT_TI_symbol_name("_pwmHandle")
    1747                      .dwattr $C$DW$188, DW_AT_type(*$C$DW$T$105)
    1748                      .dwattr $C$DW$188, DW_AT_location[DW_OP_reg16]
    1749              ;* AR6   assigned to _pwmHandle
    1750              $C$DW$189       .dwtag  DW_TAG_variable, DW_AT_name("pwmHandle")
    1751                      .dwattr $C$DW$189, DW_AT_TI_symbol_name("_pwmHandle")
    1752                      .dwattr $C$DW$189, DW_AT_type(*$C$DW$T$105)
    1753                      .dwattr $C$DW$189, DW_AT_location[DW_OP_reg16]
    1754              ;* AR5   assigned to _pwmHandle
    1755              $C$DW$190       .dwtag  DW_TAG_variable, DW_AT_name("pwmHandle")
    1756                      .dwattr $C$DW$190, DW_AT_TI_symbol_name("_pwmHandle")
    1757                      .dwattr $C$DW$190, DW_AT_type(*$C$DW$T$105)
TMS320C2000 Assembler PC v6.2.5 Sat Jul 08 16:16:11 2017

Tools Copyright (c) 1996-2014 Texas Instruments Incorporated
C:\Users\wmj\AppData\Local\Temp\1433210                              PAGE   36

    1758                      .dwattr $C$DW$190, DW_AT_location[DW_OP_reg14]
    1759              ;* AR5   assigned to _obj
    1760              $C$DW$191       .dwtag  DW_TAG_variable, DW_AT_name("obj")
    1761                      .dwattr $C$DW$191, DW_AT_TI_symbol_name("_obj")
    1762                      .dwattr $C$DW$191, DW_AT_type(*$C$DW$T$210)
    1763                      .dwattr $C$DW$191, DW_AT_location[DW_OP_reg14]
    1764              ;* AR6   assigned to _handle
    1765              $C$DW$192       .dwtag  DW_TAG_variable, DW_AT_name("handle")
    1766                      .dwattr $C$DW$192, DW_AT_TI_symbol_name("_handle")
    1767                      .dwattr $C$DW$192, DW_AT_type(*$C$DW$T$94)
    1768                      .dwattr $C$DW$192, DW_AT_location[DW_OP_reg16]
    1769              ;* XT    assigned to _bias
    1770              $C$DW$193       .dwtag  DW_TAG_variable, DW_AT_name("bias")
    1771                      .dwattr $C$DW$193, DW_AT_TI_symbol_name("_bias")
    1772                      .dwattr $C$DW$193, DW_AT_type(*$C$DW$T$32)
    1773                      .dwattr $C$DW$193, DW_AT_location[DW_OP_reg21]
    1774              ;* AR6   assigned to _handle
    1775              $C$DW$194       .dwtag  DW_TAG_variable, DW_AT_name("handle")
    1776                      .dwattr $C$DW$194, DW_AT_TI_symbol_name("_handle")
    1777                      .dwattr $C$DW$194, DW_AT_type(*$C$DW$T$94)
    1778                      .dwattr $C$DW$194, DW_AT_location[DW_OP_reg16]
    1779              ;* AR5   assigned to _handle
    1780              $C$DW$195       .dwtag  DW_TAG_variable, DW_AT_name("handle")
    1781                      .dwattr $C$DW$195, DW_AT_TI_symbol_name("_handle")
    1782                      .dwattr $C$DW$195, DW_AT_type(*$C$DW$T$212)
    1783                      .dwattr $C$DW$195, DW_AT_location[DW_OP_reg14]
    1784              ;* AR5   assigned to _obj
    1785              $C$DW$196       .dwtag  DW_TAG_variable, DW_AT_name("obj")
    1786                      .dwattr $C$DW$196, DW_AT_TI_symbol_name("_obj")
    1787                      .dwattr $C$DW$196, DW_AT_type(*$C$DW$T$210)
    1788                      .dwattr $C$DW$196, DW_AT_location[DW_OP_reg14]
    1789              ;* AL    assigned to _bias
    1790              $C$DW$197       .dwtag  DW_TAG_variable, DW_AT_name("bias")
    1791                      .dwattr $C$DW$197, DW_AT_TI_symbol_name("_bias")
    1792                      .dwattr $C$DW$197, DW_AT_type(*$C$DW$T$32)
    1793                      .dwattr $C$DW$197, DW_AT_location[DW_OP_reg0]
    1794              ;* AL    assigned to _bias
    1795              $C$DW$198       .dwtag  DW_TAG_variable, DW_AT_name("bias")
    1796                      .dwattr $C$DW$198, DW_AT_TI_symbol_name("_bias")
    1797                      .dwattr $C$DW$198, DW_AT_type(*$C$DW$T$32)
    1798                      .dwattr $C$DW$198, DW_AT_location[DW_OP_reg0]
    1799              ;* AL    assigned to _bias
    1800              $C$DW$199       .dwtag  DW_TAG_variable, DW_AT_name("bias")
    1801                      .dwattr $C$DW$199, DW_AT_TI_symbol_name("_bias")
    1802                      .dwattr $C$DW$199, DW_AT_type(*$C$DW$T$32)
    1803                      .dwattr $C$DW$199, DW_AT_location[DW_OP_reg0]
    1804              ;* AR6   assigned to _pwmHandle
    1805              $C$DW$200       .dwtag  DW_TAG_variable, DW_AT_name("pwmHandle")
    1806                      .dwattr $C$DW$200, DW_AT_TI_symbol_name("_pwmHandle")
    1807                      .dwattr $C$DW$200, DW_AT_type(*$C$DW$T$105)
    1808                      .dwattr $C$DW$200, DW_AT_location[DW_OP_reg16]
    1809              ;* AR6   assigned to _pwmHandle
    1810              $C$DW$201       .dwtag  DW_TAG_variable, DW_AT_name("pwmHandle")
    1811                      .dwattr $C$DW$201, DW_AT_TI_symbol_name("_pwmHandle")
    1812                      .dwattr $C$DW$201, DW_AT_type(*$C$DW$T$105)
TMS320C2000 Assembler PC v6.2.5 Sat Jul 08 16:16:11 2017

Tools Copyright (c) 1996-2014 Texas Instruments Incorporated
C:\Users\wmj\AppData\Local\Temp\1433210                              PAGE   37

    1813                      .dwattr $C$DW$201, DW_AT_location[DW_OP_reg16]
    1814              ;* AR5   assigned to _pwmHandle
    1815              $C$DW$202       .dwtag  DW_TAG_variable, DW_AT_name("pwmHandle")
    1816                      .dwattr $C$DW$202, DW_AT_TI_symbol_name("_pwmHandle")
    1817                      .dwattr $C$DW$202, DW_AT_type(*$C$DW$T$105)
    1818                      .dwattr $C$DW$202, DW_AT_location[DW_OP_reg14]
    1819              ;* AR6   assigned to _pwmHandle
    1820              $C$DW$203       .dwtag  DW_TAG_variable, DW_AT_name("pwmHandle")
    1821                      .dwattr $C$DW$203, DW_AT_TI_symbol_name("_pwmHandle")
    1822                      .dwattr $C$DW$203, DW_AT_type(*$C$DW$T$105)
    1823                      .dwattr $C$DW$203, DW_AT_location[DW_OP_reg16]
    1824              ;* AR6   assigned to _pwmHandle
    1825              $C$DW$204       .dwtag  DW_TAG_variable, DW_AT_name("pwmHandle")
    1826                      .dwattr $C$DW$204, DW_AT_TI_symbol_name("_pwmHandle")
    1827                      .dwattr $C$DW$204, DW_AT_type(*$C$DW$T$105)
    1828                      .dwattr $C$DW$204, DW_AT_location[DW_OP_reg16]
    1829              ;* AR5   assigned to _pwmHandle
    1830              $C$DW$205       .dwtag  DW_TAG_variable, DW_AT_name("pwmHandle")
    1831                      .dwattr $C$DW$205, DW_AT_TI_symbol_name("_pwmHandle")
    1832                      .dwattr $C$DW$205, DW_AT_type(*$C$DW$T$105)
    1833                      .dwattr $C$DW$205, DW_AT_location[DW_OP_reg14]
    1834              ;* AR5   assigned to _obj
    1835              $C$DW$206       .dwtag  DW_TAG_variable, DW_AT_name("obj")
    1836                      .dwattr $C$DW$206, DW_AT_TI_symbol_name("_obj")
    1837                      .dwattr $C$DW$206, DW_AT_type(*$C$DW$T$210)
    1838                      .dwattr $C$DW$206, DW_AT_location[DW_OP_reg14]
    1839              ;* AL    assigned to _state
    1840              $C$DW$207       .dwtag  DW_TAG_variable, DW_AT_name("state")
    1841                      .dwattr $C$DW$207, DW_AT_TI_symbol_name("_state")
    1842                      .dwattr $C$DW$207, DW_AT_type(*$C$DW$T$70)
    1843                      .dwattr $C$DW$207, DW_AT_location[DW_OP_reg0]
    1844              ;* AR5   assigned to _pwmHandle
    1845              $C$DW$208       .dwtag  DW_TAG_variable, DW_AT_name("pwmHandle")
    1846                      .dwattr $C$DW$208, DW_AT_TI_symbol_name("_pwmHandle")
    1847                      .dwattr $C$DW$208, DW_AT_type(*$C$DW$T$105)
    1848                      .dwattr $C$DW$208, DW_AT_location[DW_OP_reg14]
    1849              ;* AR5   assigned to _pwmHandle
    1850              $C$DW$209       .dwtag  DW_TAG_variable, DW_AT_name("pwmHandle")
    1851                      .dwattr $C$DW$209, DW_AT_TI_symbol_name("_pwmHandle")
    1852                      .dwattr $C$DW$209, DW_AT_type(*$C$DW$T$105)
    1853                      .dwattr $C$DW$209, DW_AT_location[DW_OP_reg14]
    1854              ;* AR4   assigned to _pwmHandle
    1855              $C$DW$210       .dwtag  DW_TAG_variable, DW_AT_name("pwmHandle")
    1856                      .dwattr $C$DW$210, DW_AT_TI_symbol_name("_pwmHandle")
    1857                      .dwattr $C$DW$210, DW_AT_type(*$C$DW$T$105)
    1858                      .dwattr $C$DW$210, DW_AT_location[DW_OP_reg12]
    1859              ;* AR4   assigned to _obj
    1860              $C$DW$211       .dwtag  DW_TAG_variable, DW_AT_name("obj")
    1861                      .dwattr $C$DW$211, DW_AT_TI_symbol_name("_obj")
    1862                      .dwattr $C$DW$211, DW_AT_type(*$C$DW$T$210)
    1863                      .dwattr $C$DW$211, DW_AT_location[DW_OP_reg12]
    1864              $C$DW$212       .dwtag  DW_TAG_variable, DW_AT_name("ctrlState")
    1865                      .dwattr $C$DW$212, DW_AT_TI_symbol_name("_ctrlState")
    1866                      .dwattr $C$DW$212, DW_AT_type(*$C$DW$T$40)
    1867                      .dwattr $C$DW$212, DW_AT_location[DW_OP_breg20 -7]
TMS320C2000 Assembler PC v6.2.5 Sat Jul 08 16:16:11 2017

Tools Copyright (c) 1996-2014 Texas Instruments Incorporated
C:\Users\wmj\AppData\Local\Temp\1433210                              PAGE   38

    1868              ;* AL    assigned to _flag_ctrlStateChanged
    1869              $C$DW$213       .dwtag  DW_TAG_variable, DW_AT_name("flag_ctrlStateChanged")
    1870                      .dwattr $C$DW$213, DW_AT_TI_symbol_name("_flag_ctrlStateChanged")
    1871                      .dwattr $C$DW$213, DW_AT_type(*$C$DW$T$70)
    1872                      .dwattr $C$DW$213, DW_AT_location[DW_OP_reg0]
    1873              ;* AR2   assigned to _obj
    1874              $C$DW$214       .dwtag  DW_TAG_variable, DW_AT_name("obj")
    1875                      .dwattr $C$DW$214, DW_AT_TI_symbol_name("_obj")
    1876                      .dwattr $C$DW$214, DW_AT_type(*$C$DW$T$193)
    1877                      .dwattr $C$DW$214, DW_AT_location[DW_OP_reg8]
    1878              ;* XT    assigned to _bias
    1879              $C$DW$215       .dwtag  DW_TAG_variable, DW_AT_name("bias")
    1880                      .dwattr $C$DW$215, DW_AT_TI_symbol_name("_bias")
    1881                      .dwattr $C$DW$215, DW_AT_type(*$C$DW$T$32)
    1882                      .dwattr $C$DW$215, DW_AT_location[DW_OP_reg21]
    1883              ;* AR1   assigned to _cnt
    1884              $C$DW$216       .dwtag  DW_TAG_variable, DW_AT_name("cnt")
    1885                      .dwattr $C$DW$216, DW_AT_TI_symbol_name("_cnt")
    1886                      .dwattr $C$DW$216, DW_AT_type(*$C$DW$T$33)
    1887                      .dwattr $C$DW$216, DW_AT_location[DW_OP_reg6]
    1888              ;* AR1   assigned to _cnt
    1889              $C$DW$217       .dwtag  DW_TAG_variable, DW_AT_name("cnt")
    1890                      .dwattr $C$DW$217, DW_AT_TI_symbol_name("_cnt")
    1891                      .dwattr $C$DW$217, DW_AT_type(*$C$DW$T$33)
    1892                      .dwattr $C$DW$217, DW_AT_location[DW_OP_reg6]
    1893              ;* XT    assigned to _bias
    1894              $C$DW$218       .dwtag  DW_TAG_variable, DW_AT_name("bias")
    1895                      .dwattr $C$DW$218, DW_AT_TI_symbol_name("_bias")
    1896                      .dwattr $C$DW$218, DW_AT_type(*$C$DW$T$32)
    1897                      .dwattr $C$DW$218, DW_AT_location[DW_OP_reg21]
    1898              ;* XT    assigned to _bias
    1899              $C$DW$219       .dwtag  DW_TAG_variable, DW_AT_name("bias")
    1900                      .dwattr $C$DW$219, DW_AT_TI_symbol_name("_bias")
    1901                      .dwattr $C$DW$219, DW_AT_type(*$C$DW$T$32)
    1902                      .dwattr $C$DW$219, DW_AT_location[DW_OP_reg21]
    1903              ;* AL    assigned to _bias
    1904              $C$DW$220       .dwtag  DW_TAG_variable, DW_AT_name("bias")
    1905                      .dwattr $C$DW$220, DW_AT_TI_symbol_name("_bias")
    1906                      .dwattr $C$DW$220, DW_AT_type(*$C$DW$T$32)
    1907                      .dwattr $C$DW$220, DW_AT_location[DW_OP_reg0]
    1908              ;* AL    assigned to _bias
    1909              $C$DW$221       .dwtag  DW_TAG_variable, DW_AT_name("bias")
    1910                      .dwattr $C$DW$221, DW_AT_TI_symbol_name("_bias")
    1911                      .dwattr $C$DW$221, DW_AT_type(*$C$DW$T$32)
    1912                      .dwattr $C$DW$221, DW_AT_location[DW_OP_reg0]
    1913              ;* AL    assigned to _bias
    1914              $C$DW$222       .dwtag  DW_TAG_variable, DW_AT_name("bias")
    1915                      .dwattr $C$DW$222, DW_AT_TI_symbol_name("_bias")
    1916                      .dwattr $C$DW$222, DW_AT_type(*$C$DW$T$32)
    1917                      .dwattr $C$DW$222, DW_AT_location[DW_OP_reg0]
    1918              ;* AR1   assigned to $O$K13
    1919              ;* AR1   assigned to $O$K13
    1920              ;* AR7   assigned to $O$K13
    1921              ;* AR5   assigned to $O$K13
    1922              ;* AR1   assigned to $O$K13
TMS320C2000 Assembler PC v6.2.5 Sat Jul 08 16:16:11 2017

Tools Copyright (c) 1996-2014 Texas Instruments Incorporated
C:\Users\wmj\AppData\Local\Temp\1433210                              PAGE   39

    1923              ;* AR4   assigned to $O$v1
    1924              ;* AR4   assigned to $O$v1
    1925              ;* AR4   assigned to $O$v1
    1926              ;* AR4   assigned to $O$v1
    1927              ;* AR2   assigned to $O$v1
    1928              ;* AR4   assigned to $O$v2
    1929              ;* AR4   assigned to $O$v2
    1930              ;* PL    assigned to $O$v2
    1931              $C$DW$223       .dwtag  DW_TAG_variable, DW_AT_name("version")
    1932                      .dwattr $C$DW$223, DW_AT_TI_symbol_name("_version")
    1933                      .dwattr $C$DW$223, DW_AT_type(*$C$DW$T$38)
    1934                      .dwattr $C$DW$223, DW_AT_location[DW_OP_breg20 -6]
    1935                      .dwcfi  cfa_offset, -2
    1936                      .dwcfi  save_reg_to_mem, 26, 0
    1937                      .dwcfi  save_reg_to_reg, 78, 26
    1938 00000103 B2BD          MOVL      *SP++,XAR1            ; [CPU_] 
    1939                      .dwcfi  save_reg_to_mem, 7, 2
    1940                      .dwcfi  cfa_offset, -4
    1941 00000104 AABD          MOVL      *SP++,XAR2            ; [CPU_] 
    1942                      .dwcfi  save_reg_to_mem, 9, 4
    1943                      .dwcfi  cfa_offset, -6
    1944 00000105 A2BD          MOVL      *SP++,XAR3            ; [CPU_] 
    1945                      .dwcfi  save_reg_to_mem, 11, 6
    1946                      .dwcfi  cfa_offset, -8
    1947 00000106 FE08          ADDB      SP,#8                 ; [CPU_U] 
    1948                      .dwcfi  cfa_offset, -16
    1949                      .dwpsn  file "D:/Foc/my_motor/sw/solutions/instaspin_foc/src/proj_lab05a.c",line 149,column 3,is_stmt
    1950 00000107 8F00!         MOVL      XAR4,#_RamfuncsRunStart ; [CPU_U] |149| 
         00000108 0000 
    1951 00000109 8F40!         MOVL      XAR5,#_RamfuncsLoadEnd ; [CPU_U] |149| 
         0000010a 0000 
    1952 0000010b A842          MOVL      *-SP[2],XAR4          ; [CPU_] |149| 
    1953 0000010c 8F00!         MOVL      XAR4,#_RamfuncsLoadStart ; [CPU_U] |149| 
         0000010d 0000 
    1954              $C$DW$224       .dwtag  DW_TAG_TI_branch
    1955                      .dwattr $C$DW$224, DW_AT_low_pc(0x00)
    1956                      .dwattr $C$DW$224, DW_AT_name("_memCopy")
    1957                      .dwattr $C$DW$224, DW_AT_TI_call
    1958 0000010e 7640!         LCR       #_memCopy             ; [CPU_] |149| 
         0000010f 0000 
    1959                      ; call occurs [#_memCopy] ; [] |149| 
    1960                      .dwpsn  file "D:/Foc/my_motor/sw/solutions/instaspin_foc/src/proj_lab05a.c",line 167,column 3,is_stmt
    1961 00000110 8F00!         MOVL      XAR4,#_hal            ; [CPU_U] |167| 
         00000111 0000 
    1962 00000112 02B2          MOVB      ACC,#178              ; [CPU_] |167| 
    1963              $C$DW$225       .dwtag  DW_TAG_TI_branch
    1964                      .dwattr $C$DW$225, DW_AT_low_pc(0x00)
    1965                      .dwattr $C$DW$225, DW_AT_name("_HAL_init")
    1966                      .dwattr $C$DW$225, DW_AT_TI_call
    1967 00000113 7640!         LCR       #_HAL_init            ; [CPU_] |167| 
         00000114 0000 
    1968                      ; call occurs [#_HAL_init] ; [] |167| 
    1969                      .dwpsn  file "D:/Foc/my_motor/sw/solutions/instaspin_foc/src/proj_lab05a.c",line 171,column 3,is_stmt
    1970 00000115 8DC0-         MOVL      XAR3,#_gUserParams    ; [CPU_U] |171| 
         00000116 00C0 
TMS320C2000 Assembler PC v6.2.5 Sat Jul 08 16:16:11 2017

Tools Copyright (c) 1996-2014 Texas Instruments Incorporated
C:\Users\wmj\AppData\Local\Temp\1433210                              PAGE   40

    1971 00000117 761F-         MOVW      DP,#_halHandle        ; [CPU_U] 
         00000118 0000 
    1972                      .dwpsn  file "D:/Foc/my_motor/sw/solutions/instaspin_foc/src/proj_lab05a.c",line 167,column 3,is_stmt
    1973 00000119 A80A-         MOVL      @_halHandle,XAR4      ; [CPU_] |167| 
    1974                      .dwpsn  file "D:/Foc/my_motor/sw/solutions/instaspin_foc/src/proj_lab05a.c",line 171,column 3,is_stmt
    1975 0000011a 8AA3          MOVL      XAR4,XAR3             ; [CPU_] |171| 
    1976              $C$DW$226       .dwtag  DW_TAG_TI_branch
    1977                      .dwattr $C$DW$226, DW_AT_low_pc(0x00)
    1978                      .dwattr $C$DW$226, DW_AT_name("_USER_checkForErrors")
    1979                      .dwattr $C$DW$226, DW_AT_TI_call
    1980 0000011b 7640!         LCR       #_USER_checkForErrors ; [CPU_] |171| 
         0000011c 0000 
    1981                      ; call occurs [#_USER_checkForErrors] ; [] |171| 
    1982                      .dwpsn  file "D:/Foc/my_motor/sw/solutions/instaspin_foc/src/proj_lab05a.c",line 175,column 3,is_stmt
    1983 0000011d 8AA3          MOVL      XAR4,XAR3             ; [CPU_] |175| 
    1984              $C$DW$227       .dwtag  DW_TAG_TI_branch
    1985                      .dwattr $C$DW$227, DW_AT_low_pc(0x00)
    1986                      .dwattr $C$DW$227, DW_AT_name("_USER_getErrorCode")
    1987                      .dwattr $C$DW$227, DW_AT_TI_call
    1988 0000011e 7640!         LCR       #_USER_getErrorCode   ; [CPU_] |175| 
         0000011f 0000 
    1989                      ; call occurs [#_USER_getErrorCode] ; [] |175| 
    1990 00000120 8D40-         MOVL      XAR1,#_gMotorVars     ; [CPU_U] |175| 
         00000121 0040 
    1991 00000122 D00F          MOVB      XAR0,#15              ; [CPU_] |175| 
    1992 00000123 9691          MOV       *+XAR1[AR0],AL        ; [CPU_] |175| 
    1993                      .dwpsn  file "D:/Foc/my_motor/sw/solutions/instaspin_foc/src/proj_lab05a.c",line 179,column 3,is_stmt
    1994 00000124 D00F          MOVB      XAR0,#15              ; [CPU_] |179| 
    1995 00000125 9291          MOV       AL,*+XAR1[AR0]        ; [CPU_] |179| 
    1996 00000126 56C0          BF        $C$L26,NEQ            ; [CPU_] |179| 
         00000127 01F5 
    1997                      ; branchcc occurs ; [] |179| 
    1998                      .dwpsn  file "D:/Foc/my_motor/sw/solutions/instaspin_foc/src/proj_lab05a.c",line 189,column 3,is_stmt
    1999 00000128 8AA3          MOVL      XAR4,XAR3             ; [CPU_] |189| 
    2000              $C$DW$228       .dwtag  DW_TAG_TI_branch
    2001                      .dwattr $C$DW$228, DW_AT_low_pc(0x00)
    2002                      .dwattr $C$DW$228, DW_AT_name("_USER_setParams")
    2003                      .dwattr $C$DW$228, DW_AT_TI_call
    2004 00000129 7640!         LCR       #_USER_setParams      ; [CPU_] |189| 
         0000012a 0000 
    2005                      ; call occurs [#_USER_setParams] ; [] |189| 
    2006 0000012b 761F-         MOVW      DP,#_halHandle        ; [CPU_U] 
         0000012c 0000 
    2007                      .dwpsn  file "D:/Foc/my_motor/sw/solutions/instaspin_foc/src/proj_lab05a.c",line 193,column 3,is_stmt
    2008 0000012d 83A3          MOVL      XAR5,XAR3             ; [CPU_] |193| 
    2009 0000012e 8A0A-         MOVL      XAR4,@_halHandle      ; [CPU_] |193| 
    2010              $C$DW$229       .dwtag  DW_TAG_TI_branch
    2011                      .dwattr $C$DW$229, DW_AT_low_pc(0x00)
    2012                      .dwattr $C$DW$229, DW_AT_name("_HAL_setParams")
    2013                      .dwattr $C$DW$229, DW_AT_TI_call
    2014 0000012f 7640!         LCR       #_HAL_setParams       ; [CPU_] |193| 
         00000130 0000 
    2015                      ; call occurs [#_HAL_setParams] ; [] |193| 
    2016 00000131 761F-         MOVW      DP,#_halHandle        ; [CPU_U] 
         00000132 0000 
TMS320C2000 Assembler PC v6.2.5 Sat Jul 08 16:16:11 2017

Tools Copyright (c) 1996-2014 Texas Instruments Incorporated
C:\Users\wmj\AppData\Local\Temp\1433210                              PAGE   41

    2017                      .dwpsn  file "D:/Foc/my_motor/sw/solutions/instaspin_foc/src/proj_lab05a.c",line 196,column 3,is_stmt
    2018 00000133 9A06          MOVB      AL,#6                 ; [CPU_] |196| 
    2019 00000134 9B00          MOVB      AH,#0                 ; [CPU_] |196| 
    2020 00000135 8A0A-         MOVL      XAR4,@_halHandle      ; [CPU_] |196| 
    2021              $C$DW$230       .dwtag  DW_TAG_TI_branch
    2022                      .dwattr $C$DW$230, DW_AT_low_pc(0x00)
    2023                      .dwattr $C$DW$230, DW_AT_name("_HAL_I2c_Pca9555_WrData")
    2024                      .dwattr $C$DW$230, DW_AT_TI_call
    2025 00000136 7640!         LCR       #_HAL_I2c_Pca9555_WrData ; [CPU_] |196| 
         00000137 0000 
    2026                      ; call occurs [#_HAL_I2c_Pca9555_WrData] ; [] |196| 
    2027 00000138 761F-         MOVW      DP,#_halHandle        ; [CPU_U] 
         00000139 0000 
    2028                      .dwpsn  file "D:/Foc/my_motor/sw/solutions/instaspin_foc/src/proj_lab05a.c",line 198,column 3,is_stmt
    2029 0000013a 9A02          MOVB      AL,#2                 ; [CPU_] |198| 
    2030 0000013b 9B58          MOVB      AH,#88                ; [CPU_] |198| 
    2031 0000013c 8A0A-         MOVL      XAR4,@_halHandle      ; [CPU_] |198| 
    2032              $C$DW$231       .dwtag  DW_TAG_TI_branch
    2033                      .dwattr $C$DW$231, DW_AT_low_pc(0x00)
    2034                      .dwattr $C$DW$231, DW_AT_name("_HAL_I2c_Pca9555_WrData")
    2035                      .dwattr $C$DW$231, DW_AT_TI_call
    2036 0000013d 7640!         LCR       #_HAL_I2c_Pca9555_WrData ; [CPU_] |198| 
         0000013e 0000 
    2037                      ; call occurs [#_HAL_I2c_Pca9555_WrData] ; [] |198| 
    2038 0000013f 761F-         MOVW      DP,#_halHandle        ; [CPU_U] 
         00000140 0000 
    2039                      .dwpsn  file "D:/Foc/my_motor/sw/solutions/instaspin_foc/src/proj_lab05a.c",line 199,column 3,is_stmt
    2040 00000141 9A02          MOVB      AL,#2                 ; [CPU_] |199| 
    2041 00000142 9B5C          MOVB      AH,#92                ; [CPU_] |199| 
    2042 00000143 8A0A-         MOVL      XAR4,@_halHandle      ; [CPU_] |199| 
    2043              $C$DW$232       .dwtag  DW_TAG_TI_branch
    2044                      .dwattr $C$DW$232, DW_AT_low_pc(0x00)
    2045                      .dwattr $C$DW$232, DW_AT_name("_HAL_I2c_Pca9555_WrData")
    2046                      .dwattr $C$DW$232, DW_AT_TI_call
    2047 00000144 7640!         LCR       #_HAL_I2c_Pca9555_WrData ; [CPU_] |199| 
         00000145 0000 
    2048                      ; call occurs [#_HAL_I2c_Pca9555_WrData] ; [] |199| 
    2049                      .dwpsn  file "D:/Foc/my_motor/sw/solutions/instaspin_foc/src/proj_lab05a.c",line 206,column 3,is_stmt
    2050 00000146 D500          MOVB      XAR5,#0               ; [CPU_] |206| 
    2051 00000147 8F00-         MOVL      XAR4,#_ctrl           ; [CPU_U] |206| 
         00000148 0180 
    2052 00000149 FF20          MOV       ACC,#264              ; [CPU_] |206| 
         0000014a 0108 
    2053              $C$DW$233       .dwtag  DW_TAG_TI_branch
    2054                      .dwattr $C$DW$233, DW_AT_low_pc(0x00)
    2055                      .dwattr $C$DW$233, DW_AT_name("_CTRL_initCtrl")
    2056                      .dwattr $C$DW$233, DW_AT_TI_call
    2057 0000014b 7640!         LCR       #_CTRL_initCtrl       ; [CPU_] |206| 
         0000014c 0000 
    2058                      ; call occurs [#_CTRL_initCtrl] ; [] |206| 
    2059 0000014d 761F-         MOVW      DP,#_ctrlHandle       ; [CPU_U] 
         0000014e 0000 
    2060                      .dwpsn  file "D:/Foc/my_motor/sw/solutions/instaspin_foc/src/proj_lab05a.c",line 214,column 5,is_stmt
    2061 0000014f 5DAD          MOVZ      AR5,SP                ; [CPU_U] |214| 
    2062 00000150 DD86          SUBB      XAR5,#6               ; [CPU_U] |214| 
TMS320C2000 Assembler PC v6.2.5 Sat Jul 08 16:16:11 2017

Tools Copyright (c) 1996-2014 Texas Instruments Incorporated
C:\Users\wmj\AppData\Local\Temp\1433210                              PAGE   42

    2063                      .dwpsn  file "D:/Foc/my_motor/sw/solutions/instaspin_foc/src/proj_lab05a.c",line 206,column 3,is_stmt
    2064 00000151 A808-         MOVL      @_ctrlHandle,XAR4     ; [CPU_] |206| 
    2065                      .dwpsn  file "D:/Foc/my_motor/sw/solutions/instaspin_foc/src/proj_lab05a.c",line 214,column 5,is_stmt
    2066              $C$DW$234       .dwtag  DW_TAG_TI_branch
    2067                      .dwattr $C$DW$234, DW_AT_low_pc(0x00)
    2068                      .dwattr $C$DW$234, DW_AT_name("_CTRL_getVersion")
    2069                      .dwattr $C$DW$234, DW_AT_TI_call
    2070 00000152 7640!         LCR       #_CTRL_getVersion     ; [CPU_] |214| 
         00000153 0000 
    2071                      ; call occurs [#_CTRL_getVersion] ; [] |214| 
    2072                      .dwpsn  file "D:/Foc/my_motor/sw/solutions/instaspin_foc/src/proj_lab05a.c",line 216,column 5,is_stmt
    2073 00000154 D910          ADDB      XAR1,#16              ; [CPU_] |216| 
    2074 00000155 761F-         MOVW      DP,#_ctrlHandle       ; [CPU_U] 
         00000156 0000 
    2075 00000157 C444          MOVL      XAR6,*-SP[4]          ; [CPU_] |216| 
    2076 00000158 0646          MOVL      ACC,*-SP[6]           ; [CPU_] |216| 
    2077                      .dwpsn  file "D:/Foc/my_motor/sw/solutions/instaspin_foc/src/proj_lab05a.c",line 221,column 3,is_stmt
    2078 00000159 83A3          MOVL      XAR5,XAR3             ; [CPU_] |221| 
    2079                      .dwpsn  file "D:/Foc/my_motor/sw/solutions/instaspin_foc/src/proj_lab05a.c",line 216,column 5,is_stmt
    2080 0000015a 1EC1          MOVL      *+XAR1[0],ACC         ; [CPU_] |216| 
    2081 0000015b C2D1          MOVL      *+XAR1[2],XAR6        ; [CPU_] |216| 
    2082                      .dwpsn  file "D:/Foc/my_motor/sw/solutions/instaspin_foc/src/proj_lab05a.c",line 221,column 3,is_stmt
    2083 0000015c 8A08-         MOVL      XAR4,@_ctrlHandle     ; [CPU_] |221| 
    2084              $C$DW$235       .dwtag  DW_TAG_TI_branch
    2085                      .dwattr $C$DW$235, DW_AT_low_pc(0x00)
    2086                      .dwattr $C$DW$235, DW_AT_name("_CTRL_setParams")
    2087                      .dwattr $C$DW$235, DW_AT_TI_call
    2088 0000015d 7640!         LCR       #_CTRL_setParams      ; [CPU_] |221| 
         0000015e 0000 
    2089                      ; call occurs [#_CTRL_setParams] ; [] |221| 
    2090 0000015f 761F-         MOVW      DP,#_halHandle        ; [CPU_U] 
         00000160 0000 
    2091                      .dwpsn  file "D:/Foc/my_motor/sw/solutions/instaspin_foc/src/proj_lab05a.c",line 225,column 3,is_stmt
    2092 00000161 8A0A-         MOVL      XAR4,@_halHandle      ; [CPU_] |225| 
    2093              $C$DW$236       .dwtag  DW_TAG_TI_branch
    2094                      .dwattr $C$DW$236, DW_AT_low_pc(0x00)
    2095                      .dwattr $C$DW$236, DW_AT_name("_HAL_setupFaults")
    2096                      .dwattr $C$DW$236, DW_AT_TI_call
    2097 00000162 7640!         LCR       #_HAL_setupFaults     ; [CPU_] |225| 
         00000163 0000 
    2098                      ; call occurs [#_HAL_setupFaults] ; [] |225| 
    2099 00000164 761F-         MOVW      DP,#_halHandle        ; [CPU_U] 
         00000165 0000 
    2100                      .dwpsn  file "D:/Foc/my_motor/sw/solutions/instaspin_foc/src/proj_lab05a.c",line 229,column 3,is_stmt
    2101 00000166 8A0A-         MOVL      XAR4,@_halHandle      ; [CPU_] |229| 
    2102 00000167 7622   EALLOW
    2103                      .dwpsn  file "D:/Foc/my_motor/sw/modules/hal/boards/hvkit_rev1p1/f28x/f2802x/src/hal.h",line 474,colu
    2104 00000168 D078          MOVB      XAR0,#120             ; [CPU_] |474| 
    2105 00000169 C494          MOVL      XAR6,*+XAR4[AR0]      ; [CPU_] |474| 
    2106 0000016a 8F40+         MOVL      XAR5,#_mainISR        ; [CPU_U] |474| 
         0000016b 0000 
    2107 0000016c D0F0          MOVB      XAR0,#240             ; [CPU_] |474| 
    2108 0000016d A096          MOVL      *+XAR6[AR0],XAR5      ; [CPU_] |474| 
    2109 0000016e 761A   EDIS
    2110 0000016f FF69          SPM       #0                    ; [CPU_] 
TMS320C2000 Assembler PC v6.2.5 Sat Jul 08 16:16:11 2017

Tools Copyright (c) 1996-2014 Texas Instruments Incorporated
C:\Users\wmj\AppData\Local\Temp\1433210                              PAGE   43

    2111                      .dwpsn  file "D:/Foc/my_motor/sw/solutions/instaspin_foc/src/proj_lab05a.c",line 233,column 3,is_stmt
    2112              $C$DW$237       .dwtag  DW_TAG_TI_branch
    2113                      .dwattr $C$DW$237, DW_AT_low_pc(0x00)
    2114                      .dwattr $C$DW$237, DW_AT_name("_HAL_enableAdcInts")
    2115                      .dwattr $C$DW$237, DW_AT_TI_call
    2116 00000170 7640!         LCR       #_HAL_enableAdcInts   ; [CPU_] |233| 
         00000171 0000 
    2117                      ; call occurs [#_HAL_enableAdcInts] ; [] |233| 
    2118 00000172 761F-         MOVW      DP,#_halHandle        ; [CPU_U] 
         00000173 0000 
    2119                      .dwpsn  file "D:/Foc/my_motor/sw/solutions/instaspin_foc/src/proj_lab05a.c",line 237,column 3,is_stmt
    2120 00000174 8A0A-         MOVL      XAR4,@_halHandle      ; [CPU_] |237| 
    2121              $C$DW$238       .dwtag  DW_TAG_TI_branch
    2122                      .dwattr $C$DW$238, DW_AT_low_pc(0x00)
    2123                      .dwattr $C$DW$238, DW_AT_name("_HAL_enableGlobalInts")
    2124                      .dwattr $C$DW$238, DW_AT_TI_call
    2125 00000175 7640!         LCR       #_HAL_enableGlobalInts ; [CPU_] |237| 
         00000176 0000 
    2126                      ; call occurs [#_HAL_enableGlobalInts] ; [] |237| 
    2127 00000177 761F-         MOVW      DP,#_halHandle        ; [CPU_U] 
         00000178 0000 
    2128                      .dwpsn  file "D:/Foc/my_motor/sw/solutions/instaspin_foc/src/proj_lab05a.c",line 241,column 3,is_stmt
    2129 00000179 8A0A-         MOVL      XAR4,@_halHandle      ; [CPU_] |241| 
    2130              $C$DW$239       .dwtag  DW_TAG_TI_branch
    2131                      .dwattr $C$DW$239, DW_AT_low_pc(0x00)
    2132                      .dwattr $C$DW$239, DW_AT_name("_HAL_enableDebugInt")
    2133                      .dwattr $C$DW$239, DW_AT_TI_call
    2134 0000017a 7640!         LCR       #_HAL_enableDebugInt  ; [CPU_] |241| 
         0000017b 0000 
    2135                      ; call occurs [#_HAL_enableDebugInt] ; [] |241| 
    2136 0000017c 761F-         MOVW      DP,#_halHandle        ; [CPU_U] 
         0000017d 0000 
    2137                      .dwpsn  file "D:/Foc/my_motor/sw/modules/hal/boards/hvkit_rev1p1/f28x/f2802x/src/hal.h",line 243,colu
    2138 0000017e 8A0A-         MOVL      XAR4,@_halHandle      ; [CPU_] |243| 
    2139                      .dwpsn  file "D:/Foc/my_motor/sw/modules/hal/boards/hvkit_rev1p1/f28x/f2802x/src/hal.h",line 245,colu
    2140 0000017f DC7C          ADDB      XAR4,#124             ; [CPU_] |245| 
    2141 00000180 83C4          MOVL      XAR5,*+XAR4[0]        ; [CPU_] |245| 
    2142 00000181 7622   EALLOW
    2143                      .dwpsn  file "D:/Foc/my_motor/sw/drivers/pwm/src/32b/f28x/f2802x/pwm.h",line 1567,column 5,is_stmt
    2144 00000182 DD18          ADDB      XAR5,#24              ; [CPU_] |1567| 
    2145 00000183 1AC5          OR        *+XAR5[0],#0x0004     ; [CPU_] |1567| 
         00000184 0004 
    2146 00000185 761A   EDIS
    2147                      .dwpsn  file "D:/Foc/my_motor/sw/modules/hal/boards/hvkit_rev1p1/f28x/f2802x/src/hal.h",line 246,colu
    2148 00000186 83D4          MOVL      XAR5,*+XAR4[2]        ; [CPU_] |246| 
    2149 00000187 7622   EALLOW
    2150                      .dwpsn  file "D:/Foc/my_motor/sw/drivers/pwm/src/32b/f28x/f2802x/pwm.h",line 1567,column 5,is_stmt
    2151 00000188 DD18          ADDB      XAR5,#24              ; [CPU_] |1567| 
    2152 00000189 1AC5          OR        *+XAR5[0],#0x0004     ; [CPU_] |1567| 
         0000018a 0004 
    2153 0000018b 761A   EDIS
    2154                      .dwpsn  file "D:/Foc/my_motor/sw/modules/hal/boards/hvkit_rev1p1/f28x/f2802x/src/hal.h",line 247,colu
    2155 0000018c 8AE4          MOVL      XAR4,*+XAR4[4]        ; [CPU_] |247| 
    2156 0000018d 7622   EALLOW
    2157                      .dwpsn  file "D:/Foc/my_motor/sw/drivers/pwm/src/32b/f28x/f2802x/pwm.h",line 1567,column 5,is_stmt
TMS320C2000 Assembler PC v6.2.5 Sat Jul 08 16:16:11 2017

Tools Copyright (c) 1996-2014 Texas Instruments Incorporated
C:\Users\wmj\AppData\Local\Temp\1433210                              PAGE   44

    2158 0000018e DC18          ADDB      XAR4,#24              ; [CPU_] |1567| 
    2159 0000018f 1AC4          OR        *+XAR4[0],#0x0004     ; [CPU_] |1567| 
         00000190 0004 
    2160 00000191 761A   EDIS
    2161                      .dwpsn  file "D:/Foc/my_motor/sw/modules/ctrl/src/32b/ctrl.h",line 1246,column 3,is_stmt
    2162 00000192 8A08-         MOVL      XAR4,@_ctrlHandle     ; [CPU_] |1246| 
    2163 00000193 D0F1          MOVB      XAR0,#241             ; [CPU_] |1246| 
    2164 00000194 FF69          SPM       #0                    ; [CPU_] 
    2165 00000195 56BF          MOVB      *+XAR4[AR0],#1,UNC    ; [CPU_] |1246| 
         00000196 0194 
    2166                      .dwpsn  file "D:/Foc/my_motor/sw/solutions/instaspin_foc/src/proj_lab05a.c",line 268,column 3,is_stmt
    2167              $C$DW$240       .dwtag  DW_TAG_TI_branch
    2168                      .dwattr $C$DW$240, DW_AT_low_pc(0x00)
    2169                      .dwattr $C$DW$240, DW_AT_name("_USER_computeFlux_pu_to_Wb_sf")
    2170                      .dwattr $C$DW$240, DW_AT_TI_call
    2171 00000197 7640!         LCR       #_USER_computeFlux_pu_to_Wb_sf ; [CPU_] |268| 
         00000198 0000 
    2172                      ; call occurs [#_USER_computeFlux_pu_to_Wb_sf] ; [] |268| 
    2173 00000199 761F-         MOVW      DP,#_gFlux_pu_to_Wb_sf ; [CPU_U] 
         0000019a 0000 
    2174 0000019b 1E10-         MOVL      @_gFlux_pu_to_Wb_sf,ACC ; [CPU_] |268| 
    2175                      .dwpsn  file "D:/Foc/my_motor/sw/solutions/instaspin_foc/src/proj_lab05a.c",line 269,column 3,is_stmt
    2176              $C$DW$241       .dwtag  DW_TAG_TI_branch
    2177                      .dwattr $C$DW$241, DW_AT_low_pc(0x00)
    2178                      .dwattr $C$DW$241, DW_AT_name("_USER_computeFlux_pu_to_VpHz_sf")
    2179                      .dwattr $C$DW$241, DW_AT_TI_call
    2180 0000019c 7640!         LCR       #_USER_computeFlux_pu_to_VpHz_sf ; [CPU_] |269| 
         0000019d 0000 
    2181                      ; call occurs [#_USER_computeFlux_pu_to_VpHz_sf] ; [] |269| 
    2182 0000019e 761F-         MOVW      DP,#_gFlux_pu_to_VpHz_sf ; [CPU_U] 
         0000019f 0000 
    2183 000001a0 1E0C-         MOVL      @_gFlux_pu_to_VpHz_sf,ACC ; [CPU_] |269| 
    2184                      .dwpsn  file "D:/Foc/my_motor/sw/solutions/instaspin_foc/src/proj_lab05a.c",line 270,column 3,is_stmt
    2185              $C$DW$242       .dwtag  DW_TAG_TI_branch
    2186                      .dwattr $C$DW$242, DW_AT_low_pc(0x00)
    2187                      .dwattr $C$DW$242, DW_AT_name("_USER_computeTorque_Ls_Id_Iq_pu_to_Nm_sf")
    2188                      .dwattr $C$DW$242, DW_AT_TI_call
    2189 000001a1 7640!         LCR       #_USER_computeTorque_Ls_Id_Iq_pu_to_Nm_sf ; [CPU_] |270| 
         000001a2 0000 
    2190                      ; call occurs [#_USER_computeTorque_Ls_Id_Iq_pu_to_Nm_sf] ; [] |270| 
    2191 000001a3 761F-         MOVW      DP,#_gTorque_Ls_Id_Iq_pu_to_Nm_sf ; [CPU_U] 
         000001a4 0000 
    2192 000001a5 1E0E-         MOVL      @_gTorque_Ls_Id_Iq_pu_to_Nm_sf,ACC ; [CPU_] |270| 
    2193                      .dwpsn  file "D:/Foc/my_motor/sw/solutions/instaspin_foc/src/proj_lab05a.c",line 271,column 3,is_stmt
    2194              $C$DW$243       .dwtag  DW_TAG_TI_branch
    2195                      .dwattr $C$DW$243, DW_AT_low_pc(0x00)
    2196                      .dwattr $C$DW$243, DW_AT_name("_USER_computeTorque_Flux_Iq_pu_to_Nm_sf")
    2197                      .dwattr $C$DW$243, DW_AT_TI_call
    2198 000001a6 7640!         LCR       #_USER_computeTorque_Flux_Iq_pu_to_Nm_sf ; [CPU_] |271| 
         000001a7 0000 
    2199                      ; call occurs [#_USER_computeTorque_Flux_Iq_pu_to_Nm_sf] ; [] |271| 
    2200 000001a8 761F-         MOVW      DP,#_gTorque_Flux_Iq_pu_to_Nm_sf ; [CPU_U] 
         000001a9 0000 
    2201 000001aa 1E04-         MOVL      @_gTorque_Flux_Iq_pu_to_Nm_sf,ACC ; [CPU_] |271| 
    2202 000001ab       $C$L7:    
TMS320C2000 Assembler PC v6.2.5 Sat Jul 08 16:16:11 2017

Tools Copyright (c) 1996-2014 Texas Instruments Incorporated
C:\Users\wmj\AppData\Local\Temp\1433210                              PAGE   45

    2203 000001ab 761F-         MOVW      DP,#_gMotorVars       ; [CPU_U] 
         000001ac 0001 
    2204                      .dwpsn  file "D:/Foc/my_motor/sw/solutions/instaspin_foc/src/proj_lab05a.c",line 277,column 11,is_stm
    2205 000001ad 9200-         MOV       AL,@_gMotorVars       ; [CPU_] |277| 
    2206 000001ae ECFD          BF        $C$L7,EQ              ; [CPU_] |277| 
    2207                      ; branchcc occurs ; [] |277| 
    2208 000001af 761F-         MOVW      DP,#_ctrlHandle       ; [CPU_U] 
         000001b0 0000 
    2209                      .dwpsn  file "D:/Foc/my_motor/sw/solutions/instaspin_foc/src/proj_lab05a.c",line 280,column 5,is_stmt
    2210 000001b1 8608-         MOVL      XAR2,@_ctrlHandle     ; [CPU_] |280| 
    2211                      .dwpsn  file "D:/Foc/my_motor/sw/modules/ctrl/src/32b/ctrl.h",line 1288,column 3,is_stmt
    2212 000001b2 D0F4          MOVB      XAR0,#244             ; [CPU_] |1288| 
    2213 000001b3 2B92          MOV       *+XAR2[AR0],#0        ; [CPU_] |1288| 
    2214                      .dwpsn  file "D:/Foc/my_motor/sw/solutions/instaspin_foc/src/proj_lab05a.c",line 283,column 5,is_stmt
    2215 000001b4 FFEF          B         $C$L25,UNC            ; [CPU_] |283| 
         000001b5 0144 
    2216                      ; branch occurs ; [] |283| 
    2217 000001b6       $C$L8:    
    2218                      .dwpsn  file "D:/Foc/my_motor/sw/solutions/instaspin_foc/src/proj_lab05a.c",line 288,column 9,is_stmt
    2219 000001b6 0A02-         INC       @_gCounter_updateGlobals ; [CPU_] |288| 
    2220                      .dwpsn  file "D:/Foc/my_motor/sw/modules/ctrl/src/32b/ctrl.h",line 1304,column 3,is_stmt
    2221 000001b7 D0F5          MOVB      XAR0,#245             ; [CPU_] |1304| 
    2222                      .dwpsn  file "D:/Foc/my_motor/sw/solutions/instaspin_foc/src/proj_lab05a.c",line 291,column 9,is_stmt
    2223 000001b8 92F1          MOV       AL,*+XAR1[6]          ; [CPU_] |291| 
    2224                      .dwpsn  file "D:/Foc/my_motor/sw/modules/ctrl/src/32b/ctrl.h",line 1304,column 3,is_stmt
    2225 000001b9 9692          MOV       *+XAR2[AR0],AL        ; [CPU_] |1304| 
    2226                      .dwpsn  file "D:/Foc/my_motor/sw/solutions/instaspin_foc/src/proj_lab05a.c",line 294,column 9,is_stmt
    2227 000001ba D018          MOVB      XAR0,#24              ; [CPU_] |294| 
    2228 000001bb 8A92          MOVL      XAR4,*+XAR2[AR0]      ; [CPU_] |294| 
    2229 000001bc 92E9          MOV       AL,*+XAR1[5]          ; [CPU_] |294| 
    2230              $C$DW$244       .dwtag  DW_TAG_TI_branch
    2231                      .dwattr $C$DW$244, DW_AT_low_pc(0x00)
    2232                      .dwattr $C$DW$244, DW_AT_name("_EST_setFlag_enableRsRecalc")
    2233                      .dwattr $C$DW$244, DW_AT_TI_call
    2234 000001bd 7640!         LCR       #_EST_setFlag_enableRsRecalc ; [CPU_] |294| 
         000001be 0000 
    2235                      ; call occurs [#_EST_setFlag_enableRsRecalc] ; [] |294| 
    2236 000001bf 761F-         MOVW      DP,#_ctrlHandle       ; [CPU_U] 
         000001c0 0000 
    2237                      .dwpsn  file "D:/Foc/my_motor/sw/solutions/instaspin_foc/src/proj_lab05a.c",line 297,column 9,is_stmt
    2238 000001c1 8A08-         MOVL      XAR4,@_ctrlHandle     ; [CPU_] |297| 
    2239                      .dwpsn  file "D:/Foc/my_motor/sw/modules/ctrl/src/32b/ctrl.h",line 1275,column 3,is_stmt
    2240 000001c2 D0F3          MOVB      XAR0,#243             ; [CPU_] |1275| 
    2241                      .dwpsn  file "D:/Foc/my_motor/sw/solutions/instaspin_foc/src/proj_lab05a.c",line 297,column 9,is_stmt
    2242 000001c3 92F9          MOV       AL,*+XAR1[7]          ; [CPU_] |297| 
    2243                      .dwpsn  file "D:/Foc/my_motor/sw/modules/ctrl/src/32b/ctrl.h",line 1275,column 3,is_stmt
    2244 000001c4 9694          MOV       *+XAR4[AR0],AL        ; [CPU_] |1275| 
    2245                      .dwpsn  file "D:/Foc/my_motor/sw/modules/ctrl/src/32b/ctrl.h",line 1060,column 3,is_stmt
    2246 000001c5 92E4          MOV       AL,*+XAR4[4]          ; [CPU_] |1060| 
    2247 000001c6 56C1          BF        $C$L19,EQ             ; [CPU_] |1060| 
         000001c7 00C6 
    2248                      ; branchcc occurs ; [] |1060| 
    2249                      .dwpsn  file "D:/Foc/my_motor/sw/solutions/instaspin_foc/src/proj_lab05a.c",line 314,column 40,is_stm
    2250              $C$DW$245       .dwtag  DW_TAG_TI_branch
    2251                      .dwattr $C$DW$245, DW_AT_low_pc(0x00)
TMS320C2000 Assembler PC v6.2.5 Sat Jul 08 16:16:11 2017

Tools Copyright (c) 1996-2014 Texas Instruments Incorporated
C:\Users\wmj\AppData\Local\Temp\1433210                              PAGE   46

    2252                      .dwattr $C$DW$245, DW_AT_name("_CTRL_updateState")
    2253                      .dwattr $C$DW$245, DW_AT_TI_call
    2254 000001c8 7640!         LCR       #_CTRL_updateState    ; [CPU_] |314| 
         000001c9 0000 
    2255                      ; call occurs [#_CTRL_updateState] ; [] |314| 
    2256 000001ca 761F-         MOVW      DP,#_ctrlHandle       ; [CPU_U] 
         000001cb 0000 
    2257                      .dwpsn  file "D:/Foc/my_motor/sw/solutions/instaspin_foc/src/proj_lab05a.c",line 317,column 13,is_stm
    2258 000001cc 8A08-         MOVL      XAR4,@_ctrlHandle     ; [CPU_] |317| 
    2259 000001cd 93C9          MOV       AH,*+XAR1[1]          ; [CPU_] |317| 
    2260                      .dwpsn  file "D:/Foc/my_motor/sw/modules/ctrl/src/32b/ctrl.h",line 1218,column 3,is_stmt
    2261 000001ce D0F0          MOVB      XAR0,#240             ; [CPU_] |1218| 
    2262                      .dwpsn  file "D:/Foc/my_motor/sw/solutions/instaspin_foc/src/proj_lab05a.c",line 319,column 13,is_stm
    2263 000001cf 5200          CMPB      AL,#0                 ; [CPU_] |319| 
    2264                      .dwpsn  file "D:/Foc/my_motor/sw/modules/ctrl/src/32b/ctrl.h",line 1218,column 3,is_stmt
    2265 000001d0 9794          MOV       *+XAR4[AR0],AH        ; [CPU_] |1218| 
    2266                      .dwpsn  file "D:/Foc/my_motor/sw/solutions/instaspin_foc/src/proj_lab05a.c",line 319,column 13,is_stm
    2267 000001d1 56C1          BF        $C$L20,EQ             ; [CPU_] |319| 
         000001d2 00D6 
    2268                      ; branchcc occurs ; [] |319| 
    2269                      .dwpsn  file "D:/Foc/my_motor/sw/modules/ctrl/src/32b/ctrl.h",line 771,column 3,is_stmt
    2270 000001d3 92E4          MOV       AL,*+XAR4[4]          ; [CPU_] |771| 
    2271 000001d4 9647          MOV       *-SP[7],AL            ; [CPU_] |771| 
    2272 000001d5 5202          CMPB      AL,#2                 ; [CPU_] |771| 
    2273 000001d6 56C1          BF        $C$L16,EQ             ; [CPU_] |771| 
         000001d7 0092 
    2274                      ; branchcc occurs ; [] |771| 
    2275                      .dwpsn  file "D:/Foc/my_motor/sw/solutions/instaspin_foc/src/proj_lab05a.c",line 328,column 22,is_stm
    2276 000001d8 5203          CMPB      AL,#3                 ; [CPU_] |328| 
    2277 000001d9 EC1B          BF        $C$L9,EQ              ; [CPU_] |328| 
    2278                      ; branchcc occurs ; [] |328| 
    2279                      .dwpsn  file "D:/Foc/my_motor/sw/solutions/instaspin_foc/src/proj_lab05a.c",line 361,column 22,is_stm
    2280 000001da 5201          CMPB      AL,#1                 ; [CPU_] |361| 
    2281 000001db 56C0          BF        $C$L18,NEQ            ; [CPU_] |361| 
         000001dc 00A1 
    2282                      ; branchcc occurs ; [] |361| 
    2283                      .dwpsn  file "D:/Foc/my_motor/sw/modules/hal/boards/hvkit_rev1p1/f28x/f2802x/src/hal.h",line 243,colu
    2284 000001dd 830A-         MOVL      XAR5,@_halHandle      ; [CPU_] |243| 
    2285                      .dwpsn  file "D:/Foc/my_motor/sw/modules/hal/boards/hvkit_rev1p1/f28x/f2802x/src/hal.h",line 245,colu
    2286 000001de DD7C          ADDB      XAR5,#124             ; [CPU_] |245| 
    2287 000001df C4C5          MOVL      XAR6,*+XAR5[0]        ; [CPU_] |245| 
    2288 000001e0 7622   EALLOW
    2289                      .dwpsn  file "D:/Foc/my_motor/sw/drivers/pwm/src/32b/f28x/f2802x/pwm.h",line 1567,column 5,is_stmt
    2290 000001e1 DE18          ADDB      XAR6,#24              ; [CPU_] |1567| 
    2291 000001e2 1AC6          OR        *+XAR6[0],#0x0004     ; [CPU_] |1567| 
         000001e3 0004 
    2292 000001e4 761A   EDIS
    2293                      .dwpsn  file "D:/Foc/my_motor/sw/modules/hal/boards/hvkit_rev1p1/f28x/f2802x/src/hal.h",line 246,colu
    2294 000001e5 C4D5          MOVL      XAR6,*+XAR5[2]        ; [CPU_] |246| 
    2295 000001e6 7622   EALLOW
    2296                      .dwpsn  file "D:/Foc/my_motor/sw/drivers/pwm/src/32b/f28x/f2802x/pwm.h",line 1567,column 5,is_stmt
    2297 000001e7 DE18          ADDB      XAR6,#24              ; [CPU_] |1567| 
    2298 000001e8 1AC6          OR        *+XAR6[0],#0x0004     ; [CPU_] |1567| 
         000001e9 0004 
    2299 000001ea 761A   EDIS
TMS320C2000 Assembler PC v6.2.5 Sat Jul 08 16:16:11 2017

Tools Copyright (c) 1996-2014 Texas Instruments Incorporated
C:\Users\wmj\AppData\Local\Temp\1433210                              PAGE   47

    2300                      .dwpsn  file "D:/Foc/my_motor/sw/modules/hal/boards/hvkit_rev1p1/f28x/f2802x/src/hal.h",line 247,colu
    2301 000001eb 83E5          MOVL      XAR5,*+XAR5[4]        ; [CPU_] |247| 
    2302 000001ec 7622   EALLOW
    2303                      .dwpsn  file "D:/Foc/my_motor/sw/drivers/pwm/src/32b/f28x/f2802x/pwm.h",line 1567,column 5,is_stmt
    2304 000001ed DD18          ADDB      XAR5,#24              ; [CPU_] |1567| 
    2305 000001ee 1AC5          OR        *+XAR5[0],#0x0004     ; [CPU_] |1567| 
         000001ef 0004 
    2306 000001f0 761A   EDIS
    2307                      .dwpsn  file "D:/Foc/my_motor/sw/solutions/instaspin_foc/src/proj_lab05a.c",line 365,column 21,is_stm
    2308 000001f1 2BC9          MOV       *+XAR1[1],#0          ; [CPU_] |365| 
    2309 000001f2 FFEF          B         $C$L18,UNC            ; [CPU_] |365| 
         000001f3 008A 
    2310                      ; branch occurs ; [] |365| 
    2311 000001f4       $C$L9:    
    2312 000001f4 761F-         MOVW      DP,#_gMotorVars+7     ; [CPU_U] 
         000001f5 0001 
    2313                      .dwpsn  file "D:/Foc/my_motor/sw/solutions/instaspin_foc/src/proj_lab05a.c",line 330,column 21,is_stm
    2314 000001f6 9207-         MOV       AL,@_gMotorVars+7     ; [CPU_] |330| 
    2315 000001f7 5201          CMPB      AL,#1                 ; [CPU_] |330| 
    2316 000001f8 EC21          BF        $C$L10,EQ             ; [CPU_] |330| 
    2317                      ; branchcc occurs ; [] |330| 
    2318 000001f9 761F-         MOVW      DP,#_halHandle        ; [CPU_U] 
         000001fa 0000 
    2319                      .dwpsn  file "D:/Foc/my_motor/sw/modules/hal/boards/hvkit_rev1p1/f28x/f2802x/src/hal.h",line 739,colu
    2320 000001fb 0296          MOVB      ACC,#150              ; [CPU_] |739| 
    2321                      .dwpsn  file "D:/Foc/my_motor/sw/solutions/instaspin_foc/src/proj_lab05a.c",line 338,column 23,is_stm
    2322 000001fc A30A-         MOVL      P,@_halHandle         ; [CPU_] |338| 
    2323                      .dwpsn  file "D:/Foc/my_motor/sw/modules/hal/boards/hvkit_rev1p1/f28x/f2802x/src/hal.h",line 739,colu
    2324 000001fd 07AB          ADDL      ACC,P                 ; [CPU_] |739| 
    2325 000001fe 83A9          MOVL      XAR5,ACC              ; [CPU_] |739| 
    2326 000001ff 28A9          MOV       AL,#61388             ; [CPU_] |739| 
         00000200 EFCC 
    2327 00000201 9BFC          MOV       AH,#252               ; [CPU_] |739| 
    2328 00000202 1EC5          MOVL      *+XAR5[0],ACC         ; [CPU_] |739| 
    2329 00000203 28A9          MOV       AL,#23986             ; [CPU_] |739| 
         00000204 5DB2 
    2330 00000205 9BFD          MOV       AH,#253               ; [CPU_] |739| 
    2331 00000206 1ED5          MOVL      *+XAR5[2],ACC         ; [CPU_] |739| 
    2332 00000207 28A9          MOV       AL,#16002             ; [CPU_] |739| 
         00000208 3E82 
    2333 00000209 9BFC          MOV       AH,#252               ; [CPU_] |739| 
    2334 0000020a 1EE5          MOVL      *+XAR5[4],ACC         ; [CPU_] |739| 
    2335                      .dwpsn  file "D:/Foc/my_motor/sw/modules/hal/boards/hvkit_rev1p1/f28x/f2802x/src/hal.h",line 743,colu
    2336 0000020b 029C          MOVB      ACC,#156              ; [CPU_] |743| 
    2337 0000020c 07AB          ADDL      ACC,P                 ; [CPU_] |743| 
    2338 0000020d 83A9          MOVL      XAR5,ACC              ; [CPU_] |743| 
    2339 0000020e 28A9          MOV       AL,#56841             ; [CPU_] |743| 
         0000020f DE09 
    2340 00000210 9B57          MOV       AH,#87                ; [CPU_] |743| 
    2341 00000211 1EC5          MOVL      *+XAR5[0],ACC         ; [CPU_] |743| 
    2342 00000212 28A9          MOV       AL,#37530             ; [CPU_] |743| 
         00000213 929A 
    2343 00000214 1ED5          MOVL      *+XAR5[2],ACC         ; [CPU_] |743| 
    2344 00000215 28A9          MOV       AL,#18824             ; [CPU_] |743| 
         00000216 4988 
TMS320C2000 Assembler PC v6.2.5 Sat Jul 08 16:16:11 2017

Tools Copyright (c) 1996-2014 Texas Instruments Incorporated
C:\Users\wmj\AppData\Local\Temp\1433210                              PAGE   48

    2345 00000217 1EE5          MOVL      *+XAR5[4],ACC         ; [CPU_] |743| 
    2346 00000218 6F37          B         $C$L15,UNC            ; [CPU_] |743| 
    2347                      ; branch occurs ; [] |743| 
    2348 00000219       $C$L10:    
    2349 00000219 761F-         MOVW      DP,#_halHandle        ; [CPU_U] 
         0000021a 0000 
    2350                      .dwpsn  file "D:/Foc/my_motor/sw/solutions/instaspin_foc/src/proj_lab05a.c",line 333,column 23,is_stm
    2351 0000021b A30A-         MOVL      P,@_halHandle         ; [CPU_] |333| 
    2352                      .dwpsn  file "D:/Foc/my_motor/sw/modules/hal/boards/hvkit_rev1p1/f28x/f2802x/src/hal.h",line 1018,col
    2353 0000021c D100          MOVB      XAR1,#0               ; [CPU_] |1018| 
    2354                      .dwpsn  file "D:/Foc/my_motor/sw/solutions/instaspin_foc/src/proj_lab05a.c",line 333,column 23,is_stm
    2355 0000021d A9A5          MOVL      XAR5,P                ; [CPU_] |333| 
    2356                      .dwpsn  file "D:/Foc/my_motor/sw/modules/hal/boards/hvkit_rev1p1/f28x/f2802x/src/hal.h",line 1018,col
    2357 0000021e 6F14          B         $C$L12,UNC            ; [CPU_] |1018| 
    2358                      ; branch occurs ; [] |1018| 
    2359 0000021f       $C$L11:    
    2360                      .dwpsn  file "D:/Foc/my_motor/sw/modules/hal/boards/hvkit_rev1p1/f28x/f2802x/src/hal.h",line 324,colu
    2361 0000021f 0EA1          MOVU      ACC,AR1               ; [CPU_] |324| 
    2362 00000220 BE96          MOVB      XAR6,#150             ; [CPU_] |324| 
    2363 00000221 FF30          LSL       ACC,1                 ; [CPU_] |324| 
    2364 00000222 8EA9          MOVL      XAR0,ACC              ; [CPU_] |324| 
    2365 00000223 A0A9          MOVL      ACC,XAR5              ; [CPU_] |324| 
    2366 00000224 07A0          ADDL      ACC,XAR0              ; [CPU_] |324| 
    2367 00000225 0DA6          ADDU      ACC,AR6               ; [CPU_] |324| 
    2368 00000226 1EA7          MOVL      XAR7,ACC              ; [CPU_] |324| 
    2369                      .dwpsn  file "D:/Foc/my_motor/sw/modules/hal/boards/hvkit_rev1p1/f28x/f2802x/src/hal.h",line 1022,col
    2370 00000227 C4A5          MOVL      XAR6,XAR5             ; [CPU_] |1022| 
    2371 00000228 3AA9          MOVL      ACC,XAR0              ; [CPU_] |1022| 
    2372 00000229 D00A          MOVB      XAR0,#10              ; [CPU_] |1022| 
    2373 0000022a 5601          ADDL      XAR6,ACC              ; [CPU_] |1022| 
         0000022b 00A6 
    2374 0000022c C496          MOVL      XAR6,*+XAR6[AR0]      ; [CPU_] |1022| 
    2375                      .dwpsn  file "D:/Foc/my_motor/sw/modules/hal/boards/hvkit_rev1p1/f28x/f2802x/src/hal.h",line 324,colu
    2376 0000022d 87C7          MOVL      XT,*+XAR7[0]          ; [CPU_] |324| 
    2377                      .dwpsn  file "D:/Foc/my_motor/sw/modules/hal/boards/hvkit_rev1p1/f28x/f2802x/src/hal.h",line 1018,col
    2378 0000022e D901          ADDB      XAR1,#1               ; [CPU_] |1018| 
    2379                      .dwpsn  file "D:/Foc/my_motor/sw/modules/hal/boards/hvkit_rev1p1/f28x/f2802x/src/hal.h",line 1022,col
    2380 0000022f ABA9          MOVL      ACC,XT                ; [CPU_] |1022| 
    2381 00000230 07C6          ADDL      ACC,*+XAR6[0]         ; [CPU_] |1022| 
    2382                      .dwpsn  file "D:/Foc/my_motor/sw/modules/hal/boards/hvkit_rev1p1/f28x/f2802x/src/hal.h",line 739,colu
    2383 00000231 1EC7          MOVL      *+XAR7[0],ACC         ; [CPU_] |739| 
    2384 00000232       $C$L12:    
    2385                      .dwpsn  file "D:/Foc/my_motor/sw/modules/hal/boards/hvkit_rev1p1/f28x/f2802x/src/hal.h",line 1018,col
    2386 00000232 D0B0          MOVB      XAR0,#176             ; [CPU_] |1018| 
    2387 00000233 92A1          MOV       AL,AR1                ; [CPU_] |1018| 
    2388 00000234 5495          CMP       AL,*+XAR5[AR0]        ; [CPU_] |1018| 
    2389 00000235 68EA          B         $C$L11,LO             ; [CPU_] |1018| 
    2390                      ; branchcc occurs ; [] |1018| 
    2391                      .dwpsn  file "D:/Foc/my_motor/sw/modules/hal/boards/hvkit_rev1p1/f28x/f2802x/src/hal.h",line 1029,col
    2392 00000236 D100          MOVB      XAR1,#0               ; [CPU_] |1029| 
    2393 00000237 6F14          B         $C$L14,UNC            ; [CPU_] |1029| 
    2394                      ; branch occurs ; [] |1029| 
    2395 00000238       $C$L13:    
    2396                      .dwpsn  file "D:/Foc/my_motor/sw/modules/hal/boards/hvkit_rev1p1/f28x/f2802x/src/hal.h",line 328,colu
    2397 00000238 0EA1          MOVU      ACC,AR1               ; [CPU_] |328| 
TMS320C2000 Assembler PC v6.2.5 Sat Jul 08 16:16:11 2017

Tools Copyright (c) 1996-2014 Texas Instruments Incorporated
C:\Users\wmj\AppData\Local\Temp\1433210                              PAGE   49

    2398 00000239 BE9C          MOVB      XAR6,#156             ; [CPU_] |328| 
    2399 0000023a FF30          LSL       ACC,1                 ; [CPU_] |328| 
    2400 0000023b 8EA9          MOVL      XAR0,ACC              ; [CPU_] |328| 
    2401 0000023c A0A9          MOVL      ACC,XAR5              ; [CPU_] |328| 
    2402 0000023d 07A0          ADDL      ACC,XAR0              ; [CPU_] |328| 
    2403 0000023e 0DA6          ADDU      ACC,AR6               ; [CPU_] |328| 
    2404 0000023f 1EA7          MOVL      XAR7,ACC              ; [CPU_] |328| 
    2405                      .dwpsn  file "D:/Foc/my_motor/sw/modules/hal/boards/hvkit_rev1p1/f28x/f2802x/src/hal.h",line 1033,col
    2406 00000240 C4A5          MOVL      XAR6,XAR5             ; [CPU_] |1033| 
    2407 00000241 3AA9          MOVL      ACC,XAR0              ; [CPU_] |1033| 
    2408 00000242 D040          MOVB      XAR0,#64              ; [CPU_] |1033| 
    2409 00000243 5601          ADDL      XAR6,ACC              ; [CPU_] |1033| 
         00000244 00A6 
    2410 00000245 C496          MOVL      XAR6,*+XAR6[AR0]      ; [CPU_] |1033| 
    2411                      .dwpsn  file "D:/Foc/my_motor/sw/modules/hal/boards/hvkit_rev1p1/f28x/f2802x/src/hal.h",line 328,colu
    2412 00000246 87C7          MOVL      XT,*+XAR7[0]          ; [CPU_] |328| 
    2413                      .dwpsn  file "D:/Foc/my_motor/sw/modules/hal/boards/hvkit_rev1p1/f28x/f2802x/src/hal.h",line 1029,col
    2414 00000247 D901          ADDB      XAR1,#1               ; [CPU_] |1029| 
    2415                      .dwpsn  file "D:/Foc/my_motor/sw/modules/hal/boards/hvkit_rev1p1/f28x/f2802x/src/hal.h",line 1033,col
    2416 00000248 ABA9          MOVL      ACC,XT                ; [CPU_] |1033| 
    2417 00000249 07C6          ADDL      ACC,*+XAR6[0]         ; [CPU_] |1033| 
    2418                      .dwpsn  file "D:/Foc/my_motor/sw/modules/hal/boards/hvkit_rev1p1/f28x/f2802x/src/hal.h",line 743,colu
    2419 0000024a 1EC7          MOVL      *+XAR7[0],ACC         ; [CPU_] |743| 
    2420 0000024b       $C$L14:    
    2421                      .dwpsn  file "D:/Foc/my_motor/sw/modules/hal/boards/hvkit_rev1p1/f28x/f2802x/src/hal.h",line 1029,col
    2422 0000024b D0B1          MOVB      XAR0,#177             ; [CPU_] |1029| 
    2423 0000024c 92A1          MOV       AL,AR1                ; [CPU_] |1029| 
    2424 0000024d 5495          CMP       AL,*+XAR5[AR0]        ; [CPU_] |1029| 
    2425 0000024e 68EA          B         $C$L13,LO             ; [CPU_] |1029| 
    2426                      ; branchcc occurs ; [] |1029| 
    2427 0000024f       $C$L15:    
    2428                      .dwpsn  file "D:/Foc/my_motor/sw/solutions/instaspin_foc/src/proj_lab05a.c",line 349,column 21,is_stm
    2429 0000024f 76C0-         MOVL      XAR7,#_gMotorVars     ; [CPU_U] |349| 
         00000250 0040 
    2430                      .dwpsn  file "D:/Foc/my_motor/sw/modules/hal/boards/hvkit_rev1p1/f28x/f2802x/src/hal.h",line 324,colu
    2431 00000251 0296          MOVB      ACC,#150              ; [CPU_] |324| 
    2432                      .dwpsn  file "D:/Foc/my_motor/sw/solutions/instaspin_foc/src/proj_lab05a.c",line 349,column 21,is_stm
    2433 00000252 C4A7          MOVL      XAR6,XAR7             ; [CPU_] |349| 
    2434                      .dwpsn  file "D:/Foc/my_motor/sw/modules/hal/boards/hvkit_rev1p1/f28x/f2802x/src/hal.h",line 324,colu
    2435 00000253 07AB          ADDL      ACC,P                 ; [CPU_] |324| 
    2436 00000254 83A9          MOVL      XAR5,ACC              ; [CPU_] |324| 
    2437 00000255 06C5          MOVL      ACC,*+XAR5[0]         ; [CPU_] |324| 
    2438                      .dwpsn  file "D:/Foc/my_motor/sw/solutions/instaspin_foc/src/proj_lab05a.c",line 349,column 21,is_stm
    2439 00000256 DE5E          ADDB      XAR6,#94              ; [CPU_] |349| 
    2440 00000257 1EC6          MOVL      *+XAR6[0],ACC         ; [CPU_] |349| 
    2441                      .dwpsn  file "D:/Foc/my_motor/sw/solutions/instaspin_foc/src/proj_lab05a.c",line 354,column 21,is_stm
    2442 00000258 DF64          ADDB      XAR7,#100             ; [CPU_] |354| 
    2443                      .dwpsn  file "D:/Foc/my_motor/sw/modules/hal/boards/hvkit_rev1p1/f28x/f2802x/src/hal.h",line 324,colu
    2444 00000259 06D5          MOVL      ACC,*+XAR5[2]         ; [CPU_] |324| 
    2445                      .dwpsn  file "D:/Foc/my_motor/sw/solutions/instaspin_foc/src/proj_lab05a.c",line 350,column 21,is_stm
    2446 0000025a 1ED6          MOVL      *+XAR6[2],ACC         ; [CPU_] |350| 
    2447                      .dwpsn  file "D:/Foc/my_motor/sw/modules/hal/boards/hvkit_rev1p1/f28x/f2802x/src/hal.h",line 324,colu
    2448 0000025b 06E5          MOVL      ACC,*+XAR5[4]         ; [CPU_] |324| 
    2449                      .dwpsn  file "D:/Foc/my_motor/sw/solutions/instaspin_foc/src/proj_lab05a.c",line 351,column 21,is_stm
    2450 0000025c 1EE6          MOVL      *+XAR6[4],ACC         ; [CPU_] |351| 
TMS320C2000 Assembler PC v6.2.5 Sat Jul 08 16:16:11 2017

Tools Copyright (c) 1996-2014 Texas Instruments Incorporated
C:\Users\wmj\AppData\Local\Temp\1433210                              PAGE   50

    2451                      .dwpsn  file "D:/Foc/my_motor/sw/modules/hal/boards/hvkit_rev1p1/f28x/f2802x/src/hal.h",line 328,colu
    2452 0000025d 029C          MOVB      ACC,#156              ; [CPU_] |328| 
    2453 0000025e 07AB          ADDL      ACC,P                 ; [CPU_] |328| 
    2454 0000025f 83A9          MOVL      XAR5,ACC              ; [CPU_] |328| 
    2455 00000260 06C5          MOVL      ACC,*+XAR5[0]         ; [CPU_] |328| 
    2456                      .dwpsn  file "D:/Foc/my_motor/sw/solutions/instaspin_foc/src/proj_lab05a.c",line 354,column 21,is_stm
    2457 00000261 1EC7          MOVL      *+XAR7[0],ACC         ; [CPU_] |354| 
    2458                      .dwpsn  file "D:/Foc/my_motor/sw/modules/hal/boards/hvkit_rev1p1/f28x/f2802x/src/hal.h",line 328,colu
    2459 00000262 06D5          MOVL      ACC,*+XAR5[2]         ; [CPU_] |328| 
    2460                      .dwpsn  file "D:/Foc/my_motor/sw/solutions/instaspin_foc/src/proj_lab05a.c",line 355,column 21,is_stm
    2461 00000263 1ED7          MOVL      *+XAR7[2],ACC         ; [CPU_] |355| 
    2462                      .dwpsn  file "D:/Foc/my_motor/sw/modules/hal/boards/hvkit_rev1p1/f28x/f2802x/src/hal.h",line 328,colu
    2463 00000264 06E5          MOVL      ACC,*+XAR5[4]         ; [CPU_] |328| 
    2464                      .dwpsn  file "D:/Foc/my_motor/sw/modules/hal/boards/hvkit_rev1p1/f28x/f2802x/src/hal.h",line 281,colu
    2465 00000265 A9A5          MOVL      XAR5,P                ; [CPU_] |281| 
    2466                      .dwpsn  file "D:/Foc/my_motor/sw/solutions/instaspin_foc/src/proj_lab05a.c",line 356,column 21,is_stm
    2467 00000266 1EE7          MOVL      *+XAR7[4],ACC         ; [CPU_] |356| 
    2468                      .dwpsn  file "D:/Foc/my_motor/sw/drivers/pwm/src/32b/f28x/f2802x/pwm.h",line 955,column 5,is_stmt
    2469 00000267 6F02          B         $C$L17,UNC            ; [CPU_] |955| 
    2470                      ; branch occurs ; [] |955| 
    2471 00000268       $C$L16:    
    2472                      .dwpsn  file "D:/Foc/my_motor/sw/modules/hal/boards/hvkit_rev1p1/f28x/f2802x/src/hal.h",line 279,colu
    2473 00000268 830A-         MOVL      XAR5,@_halHandle      ; [CPU_] |279| 
    2474 00000269       $C$L17:    
    2475                      .dwpsn  file "D:/Foc/my_motor/sw/modules/hal/boards/hvkit_rev1p1/f28x/f2802x/src/hal.h",line 281,colu
    2476 00000269 DD7C          ADDB      XAR5,#124             ; [CPU_] |281| 
    2477 0000026a C4C5          MOVL      XAR6,*+XAR5[0]        ; [CPU_] |281| 
    2478 0000026b 7622   EALLOW
    2479                      .dwpsn  file "D:/Foc/my_motor/sw/drivers/pwm/src/32b/f28x/f2802x/pwm.h",line 951,column 5,is_stmt
    2480 0000026c D017          MOVB      XAR0,#23              ; [CPU_] |951| 
    2481 0000026d 56BF          MOVB      *+XAR6[AR0],#4,UNC    ; [CPU_] |951| 
         0000026e 0496 
    2482 0000026f 761A   EDIS
    2483                      .dwpsn  file "D:/Foc/my_motor/sw/modules/hal/boards/hvkit_rev1p1/f28x/f2802x/src/hal.h",line 282,colu
    2484 00000270 C4D5          MOVL      XAR6,*+XAR5[2]        ; [CPU_] |282| 
    2485 00000271 7622   EALLOW
    2486                      .dwpsn  file "D:/Foc/my_motor/sw/drivers/pwm/src/32b/f28x/f2802x/pwm.h",line 951,column 5,is_stmt
    2487 00000272 D017          MOVB      XAR0,#23              ; [CPU_] |951| 
    2488 00000273 56BF          MOVB      *+XAR6[AR0],#4,UNC    ; [CPU_] |951| 
         00000274 0496 
    2489 00000275 761A   EDIS
    2490                      .dwpsn  file "D:/Foc/my_motor/sw/modules/hal/boards/hvkit_rev1p1/f28x/f2802x/src/hal.h",line 283,colu
    2491 00000276 83E5          MOVL      XAR5,*+XAR5[4]        ; [CPU_] |283| 
    2492 00000277 7622   EALLOW
    2493                      .dwpsn  file "D:/Foc/my_motor/sw/drivers/pwm/src/32b/f28x/f2802x/pwm.h",line 951,column 5,is_stmt
    2494 00000278 D017          MOVB      XAR0,#23              ; [CPU_] |951| 
    2495 00000279 56BF          MOVB      *+XAR5[AR0],#4,UNC    ; [CPU_] |951| 
         0000027a 0495 
    2496 0000027b 761A   EDIS
    2497 0000027c       $C$L18:    
    2498                      .dwpsn  file "D:/Foc/my_motor/sw/solutions/instaspin_foc/src/proj_lab05a.c",line 368,column 17,is_stm
    2499 0000027c D0F5          MOVB      XAR0,#245             ; [CPU_] |368| 
    2500 0000027d 9294          MOV       AL,*+XAR4[AR0]        ; [CPU_] |368| 
    2501 0000027e 5201          CMPB      AL,#1                 ; [CPU_] |368| 
    2502 0000027f ED28          BF        $C$L20,NEQ            ; [CPU_] |368| 
TMS320C2000 Assembler PC v6.2.5 Sat Jul 08 16:16:11 2017

Tools Copyright (c) 1996-2014 Texas Instruments Incorporated
C:\Users\wmj\AppData\Local\Temp\1433210                              PAGE   51

    2503                      ; branchcc occurs ; [] |368| 
    2504 00000280 9247          MOV       AL,*-SP[7]            ; [CPU_] 
    2505 00000281 5202          CMPB      AL,#2                 ; [CPU_] |368| 
    2506 00000282 6425          B         $C$L20,LT             ; [CPU_] |368| 
    2507                      ; branchcc occurs ; [] |368| 
    2508 00000283 761F-         MOVW      DP,#_gMotorVars+19    ; [CPU_U] 
         00000284 0001 
    2509 00000285 9213-         MOV       AL,@_gMotorVars+19    ; [CPU_] |368| 
    2510 00000286 5206          CMPB      AL,#6                 ; [CPU_] |368| 
    2511 00000287 ED20          BF        $C$L20,NEQ            ; [CPU_] |368| 
    2512                      ; branchcc occurs ; [] |368| 
    2513 00000288 FF69          SPM       #0                    ; [CPU_] 
    2514                      .dwpsn  file "D:/Foc/my_motor/sw/solutions/instaspin_foc/src/proj_lab05a.c",line 373,column 21,is_stm
    2515              $C$DW$246       .dwtag  DW_TAG_TI_branch
    2516                      .dwattr $C$DW$246, DW_AT_low_pc(0x00)
    2517                      .dwattr $C$DW$246, DW_AT_name("_USER_softwareUpdate1p6")
    2518                      .dwattr $C$DW$246, DW_AT_TI_call
    2519 00000289 7640!         LCR       #_USER_softwareUpdate1p6 ; [CPU_] |373| 
         0000028a 0000 
    2520                      ; call occurs [#_USER_softwareUpdate1p6] ; [] |373| 
    2521 0000028b 6F1C          B         $C$L20,UNC            ; [CPU_] |373| 
    2522                      ; branch occurs ; [] |373| 
    2523 0000028c       $C$L19:    
    2524                      .dwpsn  file "D:/Foc/my_motor/sw/modules/ctrl/src/32b/ctrl.h",line 1218,column 3,is_stmt
    2525 0000028c D0F0          MOVB      XAR0,#240             ; [CPU_] |1218| 
    2526 0000028d 761F-         MOVW      DP,#_gMotorVars       ; [CPU_U] 
         0000028e 0001 
    2527 0000028f 2B94          MOV       *+XAR4[AR0],#0        ; [CPU_] |1218| 
    2528                      .dwpsn  file "D:/Foc/my_motor/sw/solutions/instaspin_foc/src/proj_lab05a.c",line 306,column 13,is_stm
    2529 00000290 2B00-         MOV       @_gMotorVars,#0       ; [CPU_] |306| 
    2530 00000291 761F-         MOVW      DP,#_halHandle        ; [CPU_U] 
         00000292 0000 
    2531                      .dwpsn  file "D:/Foc/my_motor/sw/modules/hal/boards/hvkit_rev1p1/f28x/f2802x/src/hal.h",line 243,colu
    2532 00000293 8A0A-         MOVL      XAR4,@_halHandle      ; [CPU_] |243| 
    2533                      .dwpsn  file "D:/Foc/my_motor/sw/modules/hal/boards/hvkit_rev1p1/f28x/f2802x/src/hal.h",line 245,colu
    2534 00000294 DC7C          ADDB      XAR4,#124             ; [CPU_] |245| 
    2535 00000295 83C4          MOVL      XAR5,*+XAR4[0]        ; [CPU_] |245| 
    2536 00000296 7622   EALLOW
    2537                      .dwpsn  file "D:/Foc/my_motor/sw/drivers/pwm/src/32b/f28x/f2802x/pwm.h",line 1567,column 5,is_stmt
    2538 00000297 DD18          ADDB      XAR5,#24              ; [CPU_] |1567| 
    2539 00000298 1AC5          OR        *+XAR5[0],#0x0004     ; [CPU_] |1567| 
         00000299 0004 
    2540 0000029a 761A   EDIS
    2541                      .dwpsn  file "D:/Foc/my_motor/sw/modules/hal/boards/hvkit_rev1p1/f28x/f2802x/src/hal.h",line 246,colu
    2542 0000029b 83D4          MOVL      XAR5,*+XAR4[2]        ; [CPU_] |246| 
    2543 0000029c 7622   EALLOW
    2544                      .dwpsn  file "D:/Foc/my_motor/sw/drivers/pwm/src/32b/f28x/f2802x/pwm.h",line 1567,column 5,is_stmt
    2545 0000029d DD18          ADDB      XAR5,#24              ; [CPU_] |1567| 
    2546 0000029e 1AC5          OR        *+XAR5[0],#0x0004     ; [CPU_] |1567| 
         0000029f 0004 
    2547 000002a0 761A   EDIS
    2548                      .dwpsn  file "D:/Foc/my_motor/sw/modules/hal/boards/hvkit_rev1p1/f28x/f2802x/src/hal.h",line 247,colu
    2549 000002a1 8AE4          MOVL      XAR4,*+XAR4[4]        ; [CPU_] |247| 
    2550 000002a2 7622   EALLOW
    2551                      .dwpsn  file "D:/Foc/my_motor/sw/drivers/pwm/src/32b/f28x/f2802x/pwm.h",line 1567,column 5,is_stmt
TMS320C2000 Assembler PC v6.2.5 Sat Jul 08 16:16:11 2017

Tools Copyright (c) 1996-2014 Texas Instruments Incorporated
C:\Users\wmj\AppData\Local\Temp\1433210                              PAGE   52

    2552 000002a3 DC18          ADDB      XAR4,#24              ; [CPU_] |1567| 
    2553 000002a4 1AC4          OR        *+XAR4[0],#0x0004     ; [CPU_] |1567| 
         000002a5 0004 
    2554 000002a6 761A   EDIS
    2555 000002a7       $C$L20:    
    2556                      .dwpsn  file "D:/Foc/my_motor/sw/solutions/instaspin_foc/src/proj_lab05a.c",line 380,column 9,is_stmt
    2557 000002a7 D018          MOVB      XAR0,#24              ; [CPU_] |380| 
    2558 000002a8 FF69          SPM       #0                    ; [CPU_] 
    2559 000002a9 8A92          MOVL      XAR4,*+XAR2[AR0]      ; [CPU_] |380| 
    2560              $C$DW$247       .dwtag  DW_TAG_TI_branch
    2561                      .dwattr $C$DW$247, DW_AT_low_pc(0x00)
    2562                      .dwattr $C$DW$247, DW_AT_name("_EST_isMotorIdentified")
    2563                      .dwattr $C$DW$247, DW_AT_TI_call
    2564 000002aa 7640!         LCR       #_EST_isMotorIdentified ; [CPU_] |380| 
         000002ab 0000 
    2565                      ; call occurs [#_EST_isMotorIdentified] ; [] |380| 
    2566 000002ac 5200          CMPB      AL,#0                 ; [CPU_] |380| 
    2567 000002ad EC22          BF        $C$L21,EQ             ; [CPU_] |380| 
    2568                      ; branchcc occurs ; [] |380| 
    2569                      .dwpsn  file "D:/Foc/my_motor/sw/solutions/instaspin_foc/src/proj_lab05a.c",line 383,column 13,is_stm
    2570 000002ae D018          MOVB      XAR0,#24              ; [CPU_] |383| 
    2571 000002af 761F-         MOVW      DP,#_gMaxCurrentSlope ; [CPU_U] 
         000002b0 0000 
    2572 000002b1 8A92          MOVL      XAR4,*+XAR2[AR0]      ; [CPU_] |383| 
    2573 000002b2 0606-         MOVL      ACC,@_gMaxCurrentSlope ; [CPU_] |383| 
    2574              $C$DW$248       .dwtag  DW_TAG_TI_branch
    2575                      .dwattr $C$DW$248, DW_AT_low_pc(0x00)
    2576                      .dwattr $C$DW$248, DW_AT_name("_EST_setMaxCurrentSlope_pu")
    2577                      .dwattr $C$DW$248, DW_AT_TI_call
    2578 000002b3 7640!         LCR       #_EST_setMaxCurrentSlope_pu ; [CPU_] |383| 
         000002b4 0000 
    2579                      ; call occurs [#_EST_setMaxCurrentSlope_pu] ; [] |383| 
    2580 000002b5 761F-         MOVW      DP,#_gMotorVars+2     ; [CPU_U] 
         000002b6 0001 
    2581                      .dwpsn  file "D:/Foc/my_motor/sw/solutions/instaspin_foc/src/proj_lab05a.c",line 384,column 13,is_stm
    2582 000002b7 56BF-         MOVB      @_gMotorVars+2,#1,UNC ; [CPU_] |384| 
         000002b8 0102 
    2583 000002b9 761F-         MOVW      DP,#_Flag_Latch_softwareUpdate ; [CPU_U] 
         000002ba 0000 
    2584                      .dwpsn  file "D:/Foc/my_motor/sw/solutions/instaspin_foc/src/proj_lab05a.c",line 387,column 13,is_stm
    2585 000002bb 9201-         MOV       AL,@_Flag_Latch_softwareUpdate ; [CPU_] |387| 
    2586 000002bc EC1E          BF        $C$L22,EQ             ; [CPU_] |387| 
    2587                      ; branchcc occurs ; [] |387| 
    2588                      .dwpsn  file "D:/Foc/my_motor/sw/solutions/instaspin_foc/src/proj_lab05a.c",line 391,column 15,is_stm
    2589 000002bd 8A08-         MOVL      XAR4,@_ctrlHandle     ; [CPU_] |391| 
    2590                      .dwpsn  file "D:/Foc/my_motor/sw/solutions/instaspin_foc/src/proj_lab05a.c",line 389,column 15,is_stm
    2591 000002be 2B01-         MOV       @_Flag_Latch_softwareUpdate,#0 ; [CPU_] |389| 
    2592                      .dwpsn  file "D:/Foc/my_motor/sw/solutions/instaspin_foc/src/proj_lab05a.c",line 391,column 15,is_stm
    2593              $C$DW$249       .dwtag  DW_TAG_TI_branch
    2594                      .dwattr $C$DW$249, DW_AT_low_pc(0x00)
    2595                      .dwattr $C$DW$249, DW_AT_name("_USER_calcPIgains")
    2596                      .dwattr $C$DW$249, DW_AT_TI_call
    2597 000002bf 7640!         LCR       #_USER_calcPIgains    ; [CPU_] |391| 
         000002c0 0000 
    2598                      ; call occurs [#_USER_calcPIgains] ; [] |391| 
TMS320C2000 Assembler PC v6.2.5 Sat Jul 08 16:16:11 2017

Tools Copyright (c) 1996-2014 Texas Instruments Incorporated
C:\Users\wmj\AppData\Local\Temp\1433210                              PAGE   53

    2599 000002c1 761F-         MOVW      DP,#_ctrlHandle       ; [CPU_U] 
         000002c2 0000 
    2600                      .dwpsn  file "D:/Foc/my_motor/sw/solutions/instaspin_foc/src/proj_lab05a.c",line 394,column 15,is_stm
    2601 000002c3 8A08-         MOVL      XAR4,@_ctrlHandle     ; [CPU_] |394| 
    2602 000002c4 D0CA          MOVB      XAR0,#202             ; [CPU_] |394| 
    2603 000002c5 D14A          MOVB      XAR1,#74              ; [CPU_] |394| 
    2604 000002c6 8F40-         MOVL      XAR5,#_gMotorVars     ; [CPU_U] |394| 
         000002c7 0040 
    2605 000002c8 0694          MOVL      ACC,*+XAR4[AR0]       ; [CPU_] |394| 
    2606                      .dwpsn  file "D:/Foc/my_motor/sw/solutions/instaspin_foc/src/proj_lab05a.c",line 395,column 15,is_stm
    2607 000002c9 D0D0          MOVB      XAR0,#208             ; [CPU_] |395| 
    2608                      .dwpsn  file "D:/Foc/my_motor/sw/solutions/instaspin_foc/src/proj_lab05a.c",line 394,column 15,is_stm
    2609 000002ca 1E9D          MOVL      *+XAR5[AR1],ACC       ; [CPU_] |394| 
    2610                      .dwpsn  file "D:/Foc/my_motor/sw/solutions/instaspin_foc/src/proj_lab05a.c",line 395,column 15,is_stm
    2611 000002cb 0694          MOVL      ACC,*+XAR4[AR0]       ; [CPU_] |395| 
    2612 000002cc D04C          MOVB      XAR0,#76              ; [CPU_] |395| 
    2613 000002cd 1E95          MOVL      *+XAR5[AR0],ACC       ; [CPU_] |395| 
    2614 000002ce 6F0D          B         $C$L23,UNC            ; [CPU_] |395| 
    2615                      ; branch occurs ; [] |395| 
    2616 000002cf       $C$L21:    
    2617                      .dwpsn  file "D:/Foc/my_motor/sw/solutions/instaspin_foc/src/proj_lab05a.c",line 404,column 13,is_stm
    2618 000002cf D018          MOVB      XAR0,#24              ; [CPU_] |404| 
    2619 000002d0 761F-         MOVW      DP,#_Flag_Latch_softwareUpdate ; [CPU_U] 
         000002d1 0000 
    2620 000002d2 8A92          MOVL      XAR4,*+XAR2[AR0]      ; [CPU_] |404| 
    2621                      .dwpsn  file "D:/Foc/my_motor/sw/solutions/instaspin_foc/src/proj_lab05a.c",line 401,column 13,is_stm
    2622 000002d3 56BF-         MOVB      @_Flag_Latch_softwareUpdate,#1,UNC ; [CPU_] |401| 
         000002d4 0101 
    2623                      .dwpsn  file "D:/Foc/my_motor/sw/solutions/instaspin_foc/src/proj_lab05a.c",line 404,column 13,is_stm
    2624              $C$DW$250       .dwtag  DW_TAG_TI_branch
    2625                      .dwattr $C$DW$250, DW_AT_low_pc(0x00)
    2626                      .dwattr $C$DW$250, DW_AT_name("_EST_getMaxCurrentSlope_pu")
    2627                      .dwattr $C$DW$250, DW_AT_TI_call
    2628 000002d5 7640!         LCR       #_EST_getMaxCurrentSlope_pu ; [CPU_] |404| 
         000002d6 0000 
    2629                      ; call occurs [#_EST_getMaxCurrentSlope_pu] ; [] |404| 
    2630 000002d7 761F-         MOVW      DP,#_gMaxCurrentSlope ; [CPU_U] 
         000002d8 0000 
    2631 000002d9 1E06-         MOVL      @_gMaxCurrentSlope,ACC ; [CPU_] |404| 
    2632 000002da       $C$L22:    
    2633 000002da 8A08-         MOVL      XAR4,@_ctrlHandle     ; [CPU_] |404| 
    2634 000002db       $C$L23:    
    2635                      .dwpsn  file "D:/Foc/my_motor/sw/solutions/instaspin_foc/src/proj_lab05a.c",line 409,column 9,is_stmt
    2636 000002db 9202-         MOV       AL,@_gCounter_updateGlobals ; [CPU_] |409| 
    2637 000002dc EC07          BF        $C$L24,EQ             ; [CPU_] |409| 
    2638                      ; branchcc occurs ; [] |409| 
    2639                      .dwpsn  file "D:/Foc/my_motor/sw/solutions/instaspin_foc/src/proj_lab05a.c",line 412,column 13,is_stm
    2640 000002dd 2B02-         MOV       @_gCounter_updateGlobals,#0 ; [CPU_] |412| 
    2641                      .dwpsn  file "D:/Foc/my_motor/sw/solutions/instaspin_foc/src/proj_lab05a.c",line 414,column 13,is_stm
    2642              $C$DW$251       .dwtag  DW_TAG_TI_branch
    2643                      .dwattr $C$DW$251, DW_AT_low_pc(0x00)
    2644                      .dwattr $C$DW$251, DW_AT_name("_updateGlobalVariables_motor")
    2645                      .dwattr $C$DW$251, DW_AT_TI_call
    2646 000002de 7640'         LCR       #_updateGlobalVariables_motor ; [CPU_] |414| 
         000002df 0043 
TMS320C2000 Assembler PC v6.2.5 Sat Jul 08 16:16:11 2017

Tools Copyright (c) 1996-2014 Texas Instruments Incorporated
C:\Users\wmj\AppData\Local\Temp\1433210                              PAGE   54

    2647                      ; call occurs [#_updateGlobalVariables_motor] ; [] |414| 
    2648 000002e0 761F-         MOVW      DP,#_ctrlHandle       ; [CPU_U] 
         000002e1 0000 
    2649 000002e2 8A08-         MOVL      XAR4,@_ctrlHandle     ; [CPU_] |414| 
    2650 000002e3       $C$L24:    
    2651                      .dwpsn  file "D:/Foc/my_motor/sw/solutions/instaspin_foc/src/proj_lab05a.c",line 418,column 9,is_stmt
    2652              $C$DW$252       .dwtag  DW_TAG_TI_branch
    2653                      .dwattr $C$DW$252, DW_AT_low_pc(0x00)
    2654                      .dwattr $C$DW$252, DW_AT_name("_updateIqRef")
    2655                      .dwattr $C$DW$252, DW_AT_TI_call
    2656 000002e3 7640'         LCR       #_updateIqRef         ; [CPU_] |418| 
         000002e4 001B 
    2657                      ; call occurs [#_updateIqRef] ; [] |418| 
    2658 000002e5 761F-         MOVW      DP,#_ctrlHandle       ; [CPU_U] 
         000002e6 0000 
    2659                      .dwpsn  file "D:/Foc/my_motor/sw/solutions/instaspin_foc/src/proj_lab05a.c",line 421,column 9,is_stmt
    2660 000002e7 8A08-         MOVL      XAR4,@_ctrlHandle     ; [CPU_] |421| 
    2661              $C$DW$253       .dwtag  DW_TAG_TI_branch
    2662                      .dwattr $C$DW$253, DW_AT_low_pc(0x00)
    2663                      .dwattr $C$DW$253, DW_AT_name("_updateKpKiGains")
    2664                      .dwattr $C$DW$253, DW_AT_TI_call
    2665 000002e8 7640'         LCR       #_updateKpKiGains     ; [CPU_] |421| 
         000002e9 0000 
    2666                      ; call occurs [#_updateKpKiGains] ; [] |421| 
    2667                      .dwpsn  file "D:/Foc/my_motor/sw/solutions/instaspin_foc/src/proj_lab05a.c",line 424,column 9,is_stmt
    2668 000002ea 8D40-         MOVL      XAR1,#_gMotorVars     ; [CPU_U] |424| 
         000002eb 0040 
    2669 000002ec D018          MOVB      XAR0,#24              ; [CPU_] |424| 
    2670 000002ed 92D9          MOV       AL,*+XAR1[3]          ; [CPU_] |424| 
    2671 000002ee 8A92          MOVL      XAR4,*+XAR2[AR0]      ; [CPU_] |424| 
    2672              $C$DW$254       .dwtag  DW_TAG_TI_branch
    2673                      .dwattr $C$DW$254, DW_AT_low_pc(0x00)
    2674                      .dwattr $C$DW$254, DW_AT_name("_EST_setFlag_enableForceAngle")
    2675                      .dwattr $C$DW$254, DW_AT_TI_call
    2676 000002ef 7640!         LCR       #_EST_setFlag_enableForceAngle ; [CPU_] |424| 
         000002f0 0000 
    2677                      ; call occurs [#_EST_setFlag_enableForceAngle] ; [] |424| 
    2678 000002f1 761F-         MOVW      DP,#_ctrlHandle       ; [CPU_U] 
         000002f2 0000 
    2679                      .dwpsn  file "D:/Foc/my_motor/sw/solutions/instaspin_foc/src/proj_lab05a.c",line 427,column 9,is_stmt
    2680 000002f3 8608-         MOVL      XAR2,@_ctrlHandle     ; [CPU_] |427| 
    2681 000002f4 D008          MOVB      XAR0,#8               ; [CPU_] |427| 
    2682 000002f5 9291          MOV       AL,*+XAR1[AR0]        ; [CPU_] |427| 
    2683                      .dwpsn  file "D:/Foc/my_motor/sw/modules/ctrl/src/32b/ctrl.h",line 1262,column 3,is_stmt
    2684 000002f6 D0F2          MOVB      XAR0,#242             ; [CPU_] |1262| 
    2685 000002f7 9692          MOV       *+XAR2[AR0],AL        ; [CPU_] |1262| 
    2686 000002f8       $C$L25:    
    2687                      .dwpsn  file "D:/Foc/my_motor/sw/solutions/instaspin_foc/src/proj_lab05a.c",line 439,column 7,is_stmt
    2688 000002f8 8D40-         MOVL      XAR1,#_gMotorVars     ; [CPU_U] |439| 
         000002f9 0040 
    2689 000002fa 92C1          MOV       AL,*+XAR1[0]          ; [CPU_] |439| 
    2690 000002fb 56C0          BF        $C$L8,NEQ             ; [CPU_] |439| 
         000002fc FEBB 
    2691                      ; branchcc occurs ; [] |439| 
    2692                      .dwpsn  file "D:/Foc/my_motor/sw/modules/hal/boards/hvkit_rev1p1/f28x/f2802x/src/hal.h",line 243,colu
TMS320C2000 Assembler PC v6.2.5 Sat Jul 08 16:16:11 2017

Tools Copyright (c) 1996-2014 Texas Instruments Incorporated
C:\Users\wmj\AppData\Local\Temp\1433210                              PAGE   55

    2693 000002fd 8A0A-         MOVL      XAR4,@_halHandle      ; [CPU_] |243| 
    2694                      .dwpsn  file "D:/Foc/my_motor/sw/modules/hal/boards/hvkit_rev1p1/f28x/f2802x/src/hal.h",line 245,colu
    2695 000002fe DC7C          ADDB      XAR4,#124             ; [CPU_] |245| 
    2696 000002ff 83C4          MOVL      XAR5,*+XAR4[0]        ; [CPU_] |245| 
    2697 00000300 7622   EALLOW
    2698                      .dwpsn  file "D:/Foc/my_motor/sw/drivers/pwm/src/32b/f28x/f2802x/pwm.h",line 1567,column 5,is_stmt
    2699 00000301 DD18          ADDB      XAR5,#24              ; [CPU_] |1567| 
    2700 00000302 1AC5          OR        *+XAR5[0],#0x0004     ; [CPU_] |1567| 
         00000303 0004 
    2701 00000304 761A   EDIS
    2702                      .dwpsn  file "D:/Foc/my_motor/sw/modules/hal/boards/hvkit_rev1p1/f28x/f2802x/src/hal.h",line 246,colu
    2703 00000305 83D4          MOVL      XAR5,*+XAR4[2]        ; [CPU_] |246| 
    2704 00000306 7622   EALLOW
    2705                      .dwpsn  file "D:/Foc/my_motor/sw/drivers/pwm/src/32b/f28x/f2802x/pwm.h",line 1567,column 5,is_stmt
    2706 00000307 DD18          ADDB      XAR5,#24              ; [CPU_] |1567| 
    2707 00000308 1AC5          OR        *+XAR5[0],#0x0004     ; [CPU_] |1567| 
         00000309 0004 
    2708 0000030a 761A   EDIS
    2709                      .dwpsn  file "D:/Foc/my_motor/sw/modules/hal/boards/hvkit_rev1p1/f28x/f2802x/src/hal.h",line 247,colu
    2710 0000030b 8AE4          MOVL      XAR4,*+XAR4[4]        ; [CPU_] |247| 
    2711 0000030c 7622   EALLOW
    2712                      .dwpsn  file "D:/Foc/my_motor/sw/drivers/pwm/src/32b/f28x/f2802x/pwm.h",line 1567,column 5,is_stmt
    2713 0000030d DC18          ADDB      XAR4,#24              ; [CPU_] |1567| 
    2714 0000030e 1AC4          OR        *+XAR4[0],#0x0004     ; [CPU_] |1567| 
         0000030f 0004 
    2715 00000310 761A   EDIS
    2716 00000311 FF69          SPM       #0                    ; [CPU_] 
    2717                      .dwpsn  file "D:/Foc/my_motor/sw/solutions/instaspin_foc/src/proj_lab05a.c",line 446,column 5,is_stmt
    2718 00000312 8AA2          MOVL      XAR4,XAR2             ; [CPU_] |446| 
    2719 00000313 83A3          MOVL      XAR5,XAR3             ; [CPU_] |446| 
    2720              $C$DW$255       .dwtag  DW_TAG_TI_branch
    2721                      .dwattr $C$DW$255, DW_AT_low_pc(0x00)
    2722                      .dwattr $C$DW$255, DW_AT_name("_CTRL_setParams")
    2723                      .dwattr $C$DW$255, DW_AT_TI_call
    2724 00000314 7640!         LCR       #_CTRL_setParams      ; [CPU_] |446| 
         00000315 0000 
    2725                      ; call occurs [#_CTRL_setParams] ; [] |446| 
    2726 00000316 761F-         MOVW      DP,#_gMotorVars+1     ; [CPU_U] 
         00000317 0001 
    2727                      .dwpsn  file "D:/Foc/my_motor/sw/solutions/instaspin_foc/src/proj_lab05a.c",line 447,column 5,is_stmt
    2728 00000318 2B01-         MOV       @_gMotorVars+1,#0     ; [CPU_] |447| 
    2729                      .dwpsn  file "D:/Foc/my_motor/sw/solutions/instaspin_foc/src/proj_lab05a.c",line 449,column 3,is_stmt
    2730 00000319 FFEF          B         $C$L7,UNC             ; [CPU_] |449| 
         0000031a FE92 
    2731                      ; branch occurs ; [] |449| 
    2732 0000031b       $C$L26:    
    2733 0000031b 761F-         MOVW      DP,#_gMotorVars       ; [CPU_U] 
         0000031c 0001 
    2734                      .dwpsn  file "D:/Foc/my_motor/sw/solutions/instaspin_foc/src/proj_lab05a.c",line 183,column 11,is_stm
    2735 0000031d 2B00-         MOV       @_gMotorVars,#0       ; [CPU_] |183| 
    2736                      .dwpsn  file "D:/Foc/my_motor/sw/solutions/instaspin_foc/src/proj_lab05a.c",line 184,column 9,is_stmt
    2737 0000031e 6FFD          B         $C$L26,UNC            ; [CPU_] |184| 
    2738                      ; branch occurs ; [] |184| 
    2739                      .dwattr $C$DW$176, DW_AT_TI_end_file("D:/Foc/my_motor/sw/solutions/instaspin_foc/src/proj_lab05a.c")
    2740                      .dwattr $C$DW$176, DW_AT_TI_end_line(0x1c3)
TMS320C2000 Assembler PC v6.2.5 Sat Jul 08 16:16:11 2017

Tools Copyright (c) 1996-2014 Texas Instruments Incorporated
C:\Users\wmj\AppData\Local\Temp\1433210                              PAGE   56

    2741                      .dwattr $C$DW$176, DW_AT_TI_end_column(0x01)
    2742                      .dwendentry
    2743                      .dwendtag $C$DW$176
    2744              
    2745              ;**************************************************************
    2746              ;* UNDEFINED EXTERNAL REFERENCES                              *
    2747              ;**************************************************************
    2748                      .global _CTRL_setParams
    2749                      .global _CTRL_setSpd_ref_krpm
    2750                      .global _HAL_enableAdcInts
    2751                      .global _CTRL_setup
    2752                      .global _CTRL_run
    2753                      .global _HAL_I2c_Pca9555_WrData
    2754                      .global _HAL_setupFaults
    2755                      .global _HAL_enableDebugInt
    2756                      .global _HAL_enableGlobalInts
    2757                      .global _HAL_setParams
    2758                      .global _CTRL_getVersion
    2759                      .global _USER_setParams
    2760                      .global _USER_softwareUpdate1p6
    2761                      .global _USER_calcPIgains
    2762                      .global _EST_setFlag_enableRsRecalc
    2763                      .global _EST_setMaxCurrentSlope_pu
    2764                      .global _memCopy
    2765                      .global _USER_checkForErrors
    2766                      .global _EST_setFlag_enableForceAngle
    2767                      .global _CTRL_updateState
    2768                      .global _USER_getErrorCode
    2769                      .global _EST_isMotorIdentified
    2770                      .global _EST_getState
    2771                      .global __IQ24sqrt
    2772                      .global _EST_get_pu_to_krpm_sf
    2773                      .global _EST_getLs_q_H
    2774                      .global _EST_getMaxCurrentSlope_pu
    2775                      .global _EST_getIdRated
    2776                      .global _EST_getLs_d_H
    2777                      .global _EST_getFlux_VpHz
    2778                      .global _RamfuncsLoadStart
    2779                      .global _RamfuncsLoadEnd
    2780                      .global _USER_computeTorque_Ls_Id_Iq_pu_to_Nm_sf
    2781                      .global _USER_computeFlux_pu_to_VpHz_sf
    2782                      .global _USER_computeFlux
    2783                      .global _USER_computeTorque_Flux_Iq_pu_to_Nm_sf
    2784                      .global _USER_computeFlux_pu_to_Wb_sf
    2785                      .global _EST_getSpeed_krpm
    2786                      .global _EST_getRr_Ohm
    2787                      .global _RamfuncsRunStart
    2788                      .global _EST_getRs_Ohm
    2789                      .global _HAL_init
    2790                      .global _CTRL_initCtrl
    2791                      .global _USER_computeTorque_Nm
    2792                      .global _hal
    2793              
    2794              ;***************************************************************
    2795              ;* TYPE INFORMATION                                            *
TMS320C2000 Assembler PC v6.2.5 Sat Jul 08 16:16:11 2017

Tools Copyright (c) 1996-2014 Texas Instruments Incorporated
C:\Users\wmj\AppData\Local\Temp\1433210                              PAGE   57

    2796              ;***************************************************************
    2797              
    2798              $C$DW$T$39      .dwtag  DW_TAG_enumeration_type
    2799                      .dwattr $C$DW$T$39, DW_AT_byte_size(0x01)
    2800              $C$DW$256       .dwtag  DW_TAG_enumerator, DW_AT_name("CTRL_State_Error"), DW_AT_const_value(0x00)
    2801              $C$DW$257       .dwtag  DW_TAG_enumerator, DW_AT_name("CTRL_State_Idle"), DW_AT_const_value(0x01)
    2802              $C$DW$258       .dwtag  DW_TAG_enumerator, DW_AT_name("CTRL_State_OffLine"), DW_AT_const_value(0x02)
    2803              $C$DW$259       .dwtag  DW_TAG_enumerator, DW_AT_name("CTRL_State_OnLine"), DW_AT_const_value(0x03)
    2804              $C$DW$260       .dwtag  DW_TAG_enumerator, DW_AT_name("CTRL_numStates"), DW_AT_const_value(0x04)
    2805                      .dwendtag $C$DW$T$39
    2806              
    2807              $C$DW$T$40      .dwtag  DW_TAG_typedef, DW_AT_name("CTRL_State_e")
    2808                      .dwattr $C$DW$T$40, DW_AT_type(*$C$DW$T$39)
    2809                      .dwattr $C$DW$T$40, DW_AT_language(DW_LANG_C)
    2810              
    2811              $C$DW$T$41      .dwtag  DW_TAG_enumeration_type
    2812                      .dwattr $C$DW$T$41, DW_AT_byte_size(0x01)
    2813              $C$DW$261       .dwtag  DW_TAG_enumerator, DW_AT_name("CTRL_ErrorCode_NoError"), DW_AT_const_value(0x00)
    2814              $C$DW$262       .dwtag  DW_TAG_enumerator, DW_AT_name("CTRL_ErrorCode_IdClip"), DW_AT_const_value(0x01)
    2815              $C$DW$263       .dwtag  DW_TAG_enumerator, DW_AT_name("CTRL_ErrorCode_EstError"), DW_AT_const_value(0x02)
    2816              $C$DW$264       .dwtag  DW_TAG_enumerator, DW_AT_name("CTRL_numErrorCodes"), DW_AT_const_value(0x03)
    2817                      .dwendtag $C$DW$T$41
    2818              
    2819              $C$DW$T$42      .dwtag  DW_TAG_typedef, DW_AT_name("CTRL_ErrorCode_e")
    2820                      .dwattr $C$DW$T$42, DW_AT_type(*$C$DW$T$41)
    2821                      .dwattr $C$DW$T$42, DW_AT_language(DW_LANG_C)
    2822              
    2823              $C$DW$T$72      .dwtag  DW_TAG_enumeration_type
    2824                      .dwattr $C$DW$T$72, DW_AT_byte_size(0x01)
    2825              $C$DW$265       .dwtag  DW_TAG_enumerator, DW_AT_name("CTRL_TargetProc_2806x"), DW_AT_const_value(0x00)
    2826              $C$DW$266       .dwtag  DW_TAG_enumerator, DW_AT_name("CTRL_TargetProc_2805x"), DW_AT_const_value(0x01)
    2827              $C$DW$267       .dwtag  DW_TAG_enumerator, DW_AT_name("CTRL_TargetProc_2803x"), DW_AT_const_value(0x02)
    2828              $C$DW$268       .dwtag  DW_TAG_enumerator, DW_AT_name("CTRL_TargetProc_2802x"), DW_AT_const_value(0x03)
    2829              $C$DW$269       .dwtag  DW_TAG_enumerator, DW_AT_name("CTRL_TargetProc_Unknown"), DW_AT_const_value(0x04)
    2830                      .dwendtag $C$DW$T$72
    2831              
    2832              $C$DW$T$73      .dwtag  DW_TAG_typedef, DW_AT_name("CTRL_TargetProc_e")
    2833                      .dwattr $C$DW$T$73, DW_AT_type(*$C$DW$T$72)
    2834                      .dwattr $C$DW$T$73, DW_AT_language(DW_LANG_C)
    2835              
    2836              $C$DW$T$126     .dwtag  DW_TAG_enumeration_type
    2837                      .dwattr $C$DW$T$126, DW_AT_byte_size(0x01)
    2838              $C$DW$270       .dwtag  DW_TAG_enumerator, DW_AT_name("MOTOR_Type_Induction"), DW_AT_const_value(0x00)
    2839              $C$DW$271       .dwtag  DW_TAG_enumerator, DW_AT_name("MOTOR_Type_Pm"), DW_AT_const_value(0x01)
    2840                      .dwendtag $C$DW$T$126
    2841              
    2842              $C$DW$T$127     .dwtag  DW_TAG_typedef, DW_AT_name("MOTOR_Type_e")
    2843                      .dwattr $C$DW$T$127, DW_AT_type(*$C$DW$T$126)
    2844                      .dwattr $C$DW$T$127, DW_AT_language(DW_LANG_C)
    2845              
    2846              $C$DW$T$129     .dwtag  DW_TAG_enumeration_type
    2847                      .dwattr $C$DW$T$129, DW_AT_byte_size(0x01)
    2848              $C$DW$272       .dwtag  DW_TAG_enumerator, DW_AT_name("EST_State_Error"), DW_AT_const_value(0x00)
    2849              $C$DW$273       .dwtag  DW_TAG_enumerator, DW_AT_name("EST_State_Idle"), DW_AT_const_value(0x01)
    2850              $C$DW$274       .dwtag  DW_TAG_enumerator, DW_AT_name("EST_State_RoverL"), DW_AT_const_value(0x02)
TMS320C2000 Assembler PC v6.2.5 Sat Jul 08 16:16:11 2017

Tools Copyright (c) 1996-2014 Texas Instruments Incorporated
C:\Users\wmj\AppData\Local\Temp\1433210                              PAGE   58

    2851              $C$DW$275       .dwtag  DW_TAG_enumerator, DW_AT_name("EST_State_Rs"), DW_AT_const_value(0x03)
    2852              $C$DW$276       .dwtag  DW_TAG_enumerator, DW_AT_name("EST_State_RampUp"), DW_AT_const_value(0x04)
    2853              $C$DW$277       .dwtag  DW_TAG_enumerator, DW_AT_name("EST_State_IdRated"), DW_AT_const_value(0x05)
    2854              $C$DW$278       .dwtag  DW_TAG_enumerator, DW_AT_name("EST_State_RatedFlux_OL"), DW_AT_const_value(0x06)
    2855              $C$DW$279       .dwtag  DW_TAG_enumerator, DW_AT_name("EST_State_RatedFlux"), DW_AT_const_value(0x07)
    2856              $C$DW$280       .dwtag  DW_TAG_enumerator, DW_AT_name("EST_State_RampDown"), DW_AT_const_value(0x08)
    2857              $C$DW$281       .dwtag  DW_TAG_enumerator, DW_AT_name("EST_State_LockRotor"), DW_AT_const_value(0x09)
    2858              $C$DW$282       .dwtag  DW_TAG_enumerator, DW_AT_name("EST_State_Ls"), DW_AT_const_value(0x0a)
    2859              $C$DW$283       .dwtag  DW_TAG_enumerator, DW_AT_name("EST_State_Rr"), DW_AT_const_value(0x0b)
    2860              $C$DW$284       .dwtag  DW_TAG_enumerator, DW_AT_name("EST_State_MotorIdentified"), DW_AT_const_value(0x0c)
    2861              $C$DW$285       .dwtag  DW_TAG_enumerator, DW_AT_name("EST_State_OnLine"), DW_AT_const_value(0x0d)
    2862              $C$DW$286       .dwtag  DW_TAG_enumerator, DW_AT_name("EST_numStates"), DW_AT_const_value(0x0e)
    2863                      .dwendtag $C$DW$T$129
    2864              
    2865              $C$DW$T$130     .dwtag  DW_TAG_typedef, DW_AT_name("EST_State_e")
    2866                      .dwattr $C$DW$T$130, DW_AT_type(*$C$DW$T$129)
    2867                      .dwattr $C$DW$T$130, DW_AT_language(DW_LANG_C)
    2868              
    2869              $C$DW$T$131     .dwtag  DW_TAG_enumeration_type
    2870                      .dwattr $C$DW$T$131, DW_AT_byte_size(0x01)
    2871              $C$DW$287       .dwtag  DW_TAG_enumerator, DW_AT_name("USER_ErrorCode_NoError"), DW_AT_const_value(0x00)
    2872              $C$DW$288       .dwtag  DW_TAG_enumerator, DW_AT_name("USER_ErrorCode_iqFullScaleCurrent_A_High"), DW_AT_cons
    2873              $C$DW$289       .dwtag  DW_TAG_enumerator, DW_AT_name("USER_ErrorCode_iqFullScaleCurrent_A_Low"), DW_AT_const
    2874              $C$DW$290       .dwtag  DW_TAG_enumerator, DW_AT_name("USER_ErrorCode_iqFullScaleVoltage_V_High"), DW_AT_cons
    2875              $C$DW$291       .dwtag  DW_TAG_enumerator, DW_AT_name("USER_ErrorCode_iqFullScaleVoltage_V_Low"), DW_AT_const
    2876              $C$DW$292       .dwtag  DW_TAG_enumerator, DW_AT_name("USER_ErrorCode_iqFullScaleFreq_Hz_High"), DW_AT_const_
    2877              $C$DW$293       .dwtag  DW_TAG_enumerator, DW_AT_name("USER_ErrorCode_iqFullScaleFreq_Hz_Low"), DW_AT_const_v
    2878              $C$DW$294       .dwtag  DW_TAG_enumerator, DW_AT_name("USER_ErrorCode_numPwmTicksPerIsrTick_High"), DW_AT_con
    2879              $C$DW$295       .dwtag  DW_TAG_enumerator, DW_AT_name("USER_ErrorCode_numPwmTicksPerIsrTick_Low"), DW_AT_cons
    2880              $C$DW$296       .dwtag  DW_TAG_enumerator, DW_AT_name("USER_ErrorCode_numIsrTicksPerCtrlTick_High"), DW_AT_co
    2881              $C$DW$297       .dwtag  DW_TAG_enumerator, DW_AT_name("USER_ErrorCode_numIsrTicksPerCtrlTick_Low"), DW_AT_con
    2882              $C$DW$298       .dwtag  DW_TAG_enumerator, DW_AT_name("USER_ErrorCode_numCtrlTicksPerCurrentTick_High"), DW_A
    2883              $C$DW$299       .dwtag  DW_TAG_enumerator, DW_AT_name("USER_ErrorCode_numCtrlTicksPerCurrentTick_Low"), DW_AT
    2884              $C$DW$300       .dwtag  DW_TAG_enumerator, DW_AT_name("USER_ErrorCode_numCtrlTicksPerEstTick_High"), DW_AT_co
    2885              $C$DW$301       .dwtag  DW_TAG_enumerator, DW_AT_name("USER_ErrorCode_numCtrlTicksPerEstTick_Low"), DW_AT_con
    2886              $C$DW$302       .dwtag  DW_TAG_enumerator, DW_AT_name("USER_ErrorCode_numCtrlTicksPerSpeedTick_High"), DW_AT_
    2887              $C$DW$303       .dwtag  DW_TAG_enumerator, DW_AT_name("USER_ErrorCode_numCtrlTicksPerSpeedTick_Low"), DW_AT_c
    2888              $C$DW$304       .dwtag  DW_TAG_enumerator, DW_AT_name("USER_ErrorCode_numCtrlTicksPerTrajTick_High"), DW_AT_c
    2889              $C$DW$305       .dwtag  DW_TAG_enumerator, DW_AT_name("USER_ErrorCode_numCtrlTicksPerTrajTick_Low"), DW_AT_co
    2890              $C$DW$306       .dwtag  DW_TAG_enumerator, DW_AT_name("USER_ErrorCode_numCurrentSensors_High"), DW_AT_const_v
    2891              $C$DW$307       .dwtag  DW_TAG_enumerator, DW_AT_name("USER_ErrorCode_numCurrentSensors_Low"), DW_AT_const_va
    2892              $C$DW$308       .dwtag  DW_TAG_enumerator, DW_AT_name("USER_ErrorCode_numVoltageSensors_High"), DW_AT_const_v
    2893              $C$DW$309       .dwtag  DW_TAG_enumerator, DW_AT_name("USER_ErrorCode_numVoltageSensors_Low"), DW_AT_const_va
    2894              $C$DW$310       .dwtag  DW_TAG_enumerator, DW_AT_name("USER_ErrorCode_offsetPole_rps_High"), DW_AT_const_valu
    2895              $C$DW$311       .dwtag  DW_TAG_enumerator, DW_AT_name("USER_ErrorCode_offsetPole_rps_Low"), DW_AT_const_value
    2896              $C$DW$312       .dwtag  DW_TAG_enumerator, DW_AT_name("USER_ErrorCode_fluxPole_rps_High"), DW_AT_const_value(
    2897              $C$DW$313       .dwtag  DW_TAG_enumerator, DW_AT_name("USER_ErrorCode_fluxPole_rps_Low"), DW_AT_const_value(0
    2898              $C$DW$314       .dwtag  DW_TAG_enumerator, DW_AT_name("USER_ErrorCode_zeroSpeedLimit_High"), DW_AT_const_valu
    2899              $C$DW$315       .dwtag  DW_TAG_enumerator, DW_AT_name("USER_ErrorCode_zeroSpeedLimit_Low"), DW_AT_const_value
    2900              $C$DW$316       .dwtag  DW_TAG_enumerator, DW_AT_name("USER_ErrorCode_forceAngleFreq_Hz_High"), DW_AT_const_v
    2901              $C$DW$317       .dwtag  DW_TAG_enumerator, DW_AT_name("USER_ErrorCode_forceAngleFreq_Hz_Low"), DW_AT_const_va
    2902              $C$DW$318       .dwtag  DW_TAG_enumerator, DW_AT_name("USER_ErrorCode_maxAccel_Hzps_High"), DW_AT_const_value
    2903              $C$DW$319       .dwtag  DW_TAG_enumerator, DW_AT_name("USER_ErrorCode_maxAccel_Hzps_Low"), DW_AT_const_value(
    2904              $C$DW$320       .dwtag  DW_TAG_enumerator, DW_AT_name("USER_ErrorCode_maxAccel_est_Hzps_High"), DW_AT_const_v
    2905              $C$DW$321       .dwtag  DW_TAG_enumerator, DW_AT_name("USER_ErrorCode_maxAccel_est_Hzps_Low"), DW_AT_const_va
TMS320C2000 Assembler PC v6.2.5 Sat Jul 08 16:16:11 2017

Tools Copyright (c) 1996-2014 Texas Instruments Incorporated
C:\Users\wmj\AppData\Local\Temp\1433210                              PAGE   59

    2906              $C$DW$322       .dwtag  DW_TAG_enumerator, DW_AT_name("USER_ErrorCode_directionPole_rps_High"), DW_AT_const_v
    2907              $C$DW$323       .dwtag  DW_TAG_enumerator, DW_AT_name("USER_ErrorCode_directionPole_rps_Low"), DW_AT_const_va
    2908              $C$DW$324       .dwtag  DW_TAG_enumerator, DW_AT_name("USER_ErrorCode_speedPole_rps_High"), DW_AT_const_value
    2909              $C$DW$325       .dwtag  DW_TAG_enumerator, DW_AT_name("USER_ErrorCode_speedPole_rps_Low"), DW_AT_const_value(
    2910              $C$DW$326       .dwtag  DW_TAG_enumerator, DW_AT_name("USER_ErrorCode_dcBusPole_rps_High"), DW_AT_const_value
    2911              $C$DW$327       .dwtag  DW_TAG_enumerator, DW_AT_name("USER_ErrorCode_dcBusPole_rps_Low"), DW_AT_const_value(
    2912              $C$DW$328       .dwtag  DW_TAG_enumerator, DW_AT_name("USER_ErrorCode_fluxFraction_High"), DW_AT_const_value(
    2913              $C$DW$329       .dwtag  DW_TAG_enumerator, DW_AT_name("USER_ErrorCode_fluxFraction_Low"), DW_AT_const_value(0
    2914              $C$DW$330       .dwtag  DW_TAG_enumerator, DW_AT_name("USER_ErrorCode_indEst_speedMaxFraction_High"), DW_AT_c
    2915              $C$DW$331       .dwtag  DW_TAG_enumerator, DW_AT_name("USER_ErrorCode_indEst_speedMaxFraction_Low"), DW_AT_co
    2916              $C$DW$332       .dwtag  DW_TAG_enumerator, DW_AT_name("USER_ErrorCode_powerWarpGain_High"), DW_AT_const_value
    2917              $C$DW$333       .dwtag  DW_TAG_enumerator, DW_AT_name("USER_ErrorCode_powerWarpGain_Low"), DW_AT_const_value(
    2918              $C$DW$334       .dwtag  DW_TAG_enumerator, DW_AT_name("USER_ErrorCode_systemFreq_MHz_High"), DW_AT_const_valu
    2919              $C$DW$335       .dwtag  DW_TAG_enumerator, DW_AT_name("USER_ErrorCode_systemFreq_MHz_Low"), DW_AT_const_value
    2920              $C$DW$336       .dwtag  DW_TAG_enumerator, DW_AT_name("USER_ErrorCode_pwmFreq_kHz_High"), DW_AT_const_value(0
    2921              $C$DW$337       .dwtag  DW_TAG_enumerator, DW_AT_name("USER_ErrorCode_pwmFreq_kHz_Low"), DW_AT_const_value(0x
    2922              $C$DW$338       .dwtag  DW_TAG_enumerator, DW_AT_name("USER_ErrorCode_voltage_sf_High"), DW_AT_const_value(0x
    2923              $C$DW$339       .dwtag  DW_TAG_enumerator, DW_AT_name("USER_ErrorCode_voltage_sf_Low"), DW_AT_const_value(0x3
    2924              $C$DW$340       .dwtag  DW_TAG_enumerator, DW_AT_name("USER_ErrorCode_current_sf_High"), DW_AT_const_value(0x
    2925              $C$DW$341       .dwtag  DW_TAG_enumerator, DW_AT_name("USER_ErrorCode_current_sf_Low"), DW_AT_const_value(0x3
    2926              $C$DW$342       .dwtag  DW_TAG_enumerator, DW_AT_name("USER_ErrorCode_voltageFilterPole_Hz_High"), DW_AT_cons
    2927              $C$DW$343       .dwtag  DW_TAG_enumerator, DW_AT_name("USER_ErrorCode_voltageFilterPole_Hz_Low"), DW_AT_const
    2928              $C$DW$344       .dwtag  DW_TAG_enumerator, DW_AT_name("USER_ErrorCode_maxVsMag_pu_High"), DW_AT_const_value(0
    2929              $C$DW$345       .dwtag  DW_TAG_enumerator, DW_AT_name("USER_ErrorCode_maxVsMag_pu_Low"), DW_AT_const_value(0x
    2930              $C$DW$346       .dwtag  DW_TAG_enumerator, DW_AT_name("USER_ErrorCode_estKappa_High"), DW_AT_const_value(0x3b
    2931              $C$DW$347       .dwtag  DW_TAG_enumerator, DW_AT_name("USER_ErrorCode_estKappa_Low"), DW_AT_const_value(0x3c)
    2932              $C$DW$348       .dwtag  DW_TAG_enumerator, DW_AT_name("USER_ErrorCode_motor_type_Unknown"), DW_AT_const_value
